; ModuleID = 'distribution_energy-host-x86_64-unknown-linux-gnu.bc'
source_filename = "/g/g0/wright117/workspace/openmc/openmc-omp/openmc/src/distribution_energy.cpp"
target datalayout = "e-m:e-p270:32:32-p271:32:32-p272:64:64-i64:64-i128:128-f80:128-n8:16:32:64-S128"
target triple = "x86_64-unknown-linux-gnu"

%"class.std::ios_base::Init" = type { i8 }
%"struct.std::array" = type { [6 x i32] }
%"struct.std::array.126" = type { [2 x ptr] }
%"class.openmc::DiscretePhoton" = type { %"class.openmc::EnergyDistribution", i32, double, double }
%"class.openmc::EnergyDistribution" = type { ptr }
%"class.openmc::LevelInelastic" = type { %"class.openmc::EnergyDistribution", double, double }
%"class.__gnu_cxx::__normal_iterator.140" = type { ptr }
%"class.openmc::ContinuousTabular" = type { %"class.openmc::EnergyDistribution", i32, %"class.std::vector", %"class.std::vector.0", %"class.std::vector.5", %"class.std::vector.10" }
%"class.std::vector" = type { %"struct.std::_Vector_base" }
%"struct.std::_Vector_base" = type { %"struct.std::_Vector_base<int, std::allocator<int>>::_Vector_impl" }
%"struct.std::_Vector_base<int, std::allocator<int>>::_Vector_impl" = type { %"struct.std::_Vector_base<int, std::allocator<int>>::_Vector_impl_data" }
%"struct.std::_Vector_base<int, std::allocator<int>>::_Vector_impl_data" = type { ptr, ptr, ptr }
%"class.std::vector.0" = type { %"struct.std::_Vector_base.1" }
%"struct.std::_Vector_base.1" = type { %"struct.std::_Vector_base<openmc::Interpolation, std::allocator<openmc::Interpolation>>::_Vector_impl" }
%"struct.std::_Vector_base<openmc::Interpolation, std::allocator<openmc::Interpolation>>::_Vector_impl" = type { %"struct.std::_Vector_base<openmc::Interpolation, std::allocator<openmc::Interpolation>>::_Vector_impl_data" }
%"struct.std::_Vector_base<openmc::Interpolation, std::allocator<openmc::Interpolation>>::_Vector_impl_data" = type { ptr, ptr, ptr }
%"class.std::vector.5" = type { %"struct.std::_Vector_base.6" }
%"struct.std::_Vector_base.6" = type { %"struct.std::_Vector_base<double, std::allocator<double>>::_Vector_impl" }
%"struct.std::_Vector_base<double, std::allocator<double>>::_Vector_impl" = type { %"struct.std::_Vector_base<double, std::allocator<double>>::_Vector_impl_data" }
%"struct.std::_Vector_base<double, std::allocator<double>>::_Vector_impl_data" = type { ptr, ptr, ptr }
%"class.std::vector.10" = type { %"struct.std::_Vector_base.11" }
%"struct.std::_Vector_base.11" = type { %"struct.std::_Vector_base<openmc::ContinuousTabular::CTTable, std::allocator<openmc::ContinuousTabular::CTTable>>::_Vector_impl" }
%"struct.std::_Vector_base<openmc::ContinuousTabular::CTTable, std::allocator<openmc::ContinuousTabular::CTTable>>::_Vector_impl" = type { %"struct.std::_Vector_base<openmc::ContinuousTabular::CTTable, std::allocator<openmc::ContinuousTabular::CTTable>>::_Vector_impl_data" }
%"struct.std::_Vector_base<openmc::ContinuousTabular::CTTable, std::allocator<openmc::ContinuousTabular::CTTable>>::_Vector_impl_data" = type { ptr, ptr, ptr }
%"struct.openmc::ContinuousTabular::CTTable" = type { i32, i32, %"class.xt::xtensor_container", %"class.xt::xtensor_container", %"class.xt::xtensor_container" }
%"class.xt::xtensor_container" = type { %"class.xt::xstrided_container.base.54", %"class.xt::xcontainer_semantic.55", %"class.xt::uvector.44" }
%"class.xt::xstrided_container.base.54" = type <{ %"struct.std::array.52", %"struct.std::array.53", %"struct.std::array.53", i32 }>
%"struct.std::array.52" = type { [1 x i64] }
%"struct.std::array.53" = type { [1 x i64] }
%"class.xt::xcontainer_semantic.55" = type { %"class.xt::xsemantic_base.56" }
%"class.xt::xsemantic_base.56" = type { %"class.xt::xsharable_expression.57" }
%"class.xt::xsharable_expression.57" = type { %"class.std::shared_ptr.59" }
%"class.std::shared_ptr.59" = type { %"class.std::__shared_ptr.60" }
%"class.std::__shared_ptr.60" = type { ptr, %"class.std::__shared_count" }
%"class.std::__shared_count" = type { ptr }
%"class.xt::uvector.44" = type { [8 x i8], ptr, ptr }
%"class.__gnu_cxx::__normal_iterator.141" = type { ptr }
%"class.__gnu_cxx::__normal_iterator.142" = type { ptr }
%"class.openmc::MaxwellEnergy" = type { %"class.openmc::EnergyDistribution", %"class.openmc::Tabulated1D", double }
%"class.openmc::Tabulated1D" = type { %"class.openmc::Function1D", i64, %"class.std::vector", %"class.std::vector.0", i64, %"class.std::vector.5", %"class.std::vector.5" }
%"class.openmc::Function1D" = type { ptr }
%"class.openmc::Evaporation" = type { %"class.openmc::EnergyDistribution", %"class.openmc::Tabulated1D", double }
%"class.openmc::WattEnergy" = type { %"class.openmc::EnergyDistribution", %"class.openmc::Tabulated1D", %"class.openmc::Tabulated1D", double }
%"class.openmc::EnergyDistributionFlat" = type { i32, ptr }
%"class.openmc::DiscretePhotonFlat" = type { ptr }
%"class.openmc::LevelInelasticFlat" = type { ptr }
%"class.openmc::ContinuousTabularFlat" = type { ptr, i64, i64 }
%"class.openmc::EvaporationFlat" = type { ptr }
%"class.openmc::MaxwellFlat" = type { ptr }
%"class.openmc::WattFlat" = type { ptr }
%"class.gsl::span" = type { ptr, ptr }
%"class.openmc::CTTableFlat" = type { ptr, i64 }
%"class.openmc::Tabulated1DFlat" = type { ptr, i64, i64 }
%"class.openmc::DataBuffer" = type <{ ptr, i64, i64, i32, [4 x i8] }>
%"class.xt::xarray_container" = type { %"class.xt::xstrided_container.base", %"class.xt::xcontainer_semantic", %"class.xt::uvector" }
%"class.xt::xstrided_container.base" = type <{ %"class.xt::svector", %"class.xt::svector.15", %"class.xt::svector.15", i32 }>
%"class.xt::svector" = type { [8 x i8], ptr, ptr, ptr, [4 x i64] }
%"class.xt::svector.15" = type { [8 x i8], ptr, ptr, ptr, [4 x i64] }
%"class.xt::xcontainer_semantic" = type { %"class.xt::xsemantic_base" }
%"class.xt::xsemantic_base" = type { %"class.xt::xsharable_expression" }
%"class.xt::xsharable_expression" = type { %"class.std::shared_ptr" }
%"class.std::shared_ptr" = type { %"class.std::__shared_ptr" }
%"class.std::__shared_ptr" = type { ptr, %"class.std::__shared_count" }
%"class.xt::uvector" = type { [8 x i8], ptr, ptr }
%"class.xt::xview" = type <{ %"class.xt::xview_semantic", ptr, %"class.std::tuple", [4 x i8], %"class.xt::sequence_view", %"class.xt::sequence_view.27", %"class.xt::sequence_view.27", i64, i8, [7 x i8] }>
%"class.xt::xview_semantic" = type { %"class.xt::xsemantic_base.16" }
%"class.xt::xsemantic_base.16" = type { %"class.xt::xsharable_expression.17" }
%"class.xt::xsharable_expression.17" = type { %"class.std::shared_ptr.19" }
%"class.std::shared_ptr.19" = type { %"class.std::__shared_ptr.20" }
%"class.std::__shared_ptr.20" = type { ptr, %"class.std::__shared_count" }
%"class.std::tuple" = type { %"struct.std::_Tuple_impl" }
%"struct.std::_Tuple_impl" = type { %"struct.std::_Head_base" }
%"struct.std::_Head_base" = type { i32 }
%"class.xt::sequence_view" = type { ptr }
%"class.xt::sequence_view.27" = type { ptr }
%"class.std::back_insert_iterator" = type { ptr }
%"class.xt::xarray_container.28" = type { %"class.xt::xstrided_container.base.36", %"class.xt::xcontainer_semantic.37", %"class.xt::uvector.44" }
%"class.xt::xstrided_container.base.36" = type <{ %"class.xt::svector", %"class.xt::svector.15", %"class.xt::svector.15", i32 }>
%"class.xt::xcontainer_semantic.37" = type { %"class.xt::xsemantic_base.38" }
%"class.xt::xsemantic_base.38" = type { %"class.xt::xsharable_expression.39" }
%"class.xt::xsharable_expression.39" = type { %"class.std::shared_ptr.41" }
%"class.std::shared_ptr.41" = type { %"class.std::__shared_ptr.42" }
%"class.std::__shared_ptr.42" = type { ptr, %"class.std::__shared_count" }
%"class.xt::xview.62" = type <{ %"class.xt::xview_semantic.63", ptr, %"class.std::tuple.75", %"class.xt::svector", %"class.xt::svector.15", %"class.xt::svector.15", i64, i8, [7 x i8] }>
%"class.xt::xview_semantic.63" = type { %"class.xt::xsemantic_base.64" }
%"class.xt::xsemantic_base.64" = type { %"class.xt::xsharable_expression.65" }
%"class.xt::xsharable_expression.65" = type { %"class.std::shared_ptr.67" }
%"class.std::shared_ptr.67" = type { %"class.std::__shared_ptr.68" }
%"class.std::__shared_ptr.68" = type { ptr, %"class.std::__shared_count" }
%"class.std::tuple.75" = type { %"struct.std::_Tuple_impl.base", [4 x i8] }
%"struct.std::_Tuple_impl.base" = type <{ %"struct.std::_Tuple_impl.77", %"struct.std::_Head_base" }>
%"struct.std::_Tuple_impl.77" = type { %"struct.std::_Head_base.78" }
%"struct.std::_Head_base.78" = type { %"class.xt::xrange" }
%"class.xt::xrange" = type { i64, i64 }
%"struct.xt::xrange_adaptor" = type <{ i64, i64, [8 x i8] }>
%"class.std::allocator" = type { i8 }
%"class.std::vector.86" = type { %"struct.std::_Vector_base.87" }
%"struct.std::_Vector_base.87" = type { %"struct.std::_Vector_base<unsigned long, std::allocator<unsigned long>>::_Vector_impl" }
%"struct.std::_Vector_base<unsigned long, std::allocator<unsigned long>>::_Vector_impl" = type { %"struct.std::_Vector_base<unsigned long, std::allocator<unsigned long>>::_Vector_impl_data" }
%"struct.std::_Vector_base<unsigned long, std::allocator<unsigned long>>::_Vector_impl_data" = type { ptr, ptr, ptr }
%"class.__gnu_cxx::__normal_iterator" = type { ptr }
%"class.xt::xarray_adaptor" = type { %"class.xt::xstrided_container.base.97", %"class.xt::xcontainer_semantic.98", ptr }
%"class.xt::xstrided_container.base.97" = type <{ %"class.std::vector.86", %"class.std::vector.95", %"class.std::vector.95", i32 }>
%"class.std::vector.95" = type { %"struct.std::_Vector_base.96" }
%"struct.std::_Vector_base.96" = type { %"struct.std::_Vector_base<long, std::allocator<long>>::_Vector_impl" }
%"struct.std::_Vector_base<long, std::allocator<long>>::_Vector_impl" = type { %"struct.std::_Vector_base<long, std::allocator<long>>::_Vector_impl_data" }
%"struct.std::_Vector_base<long, std::allocator<long>>::_Vector_impl_data" = type { ptr, ptr, ptr }
%"class.xt::xcontainer_semantic.98" = type { %"class.xt::xsemantic_base.99" }
%"class.xt::xsemantic_base.99" = type { %"class.xt::xsharable_expression.100" }
%"class.xt::xsharable_expression.100" = type { %"class.std::shared_ptr.102" }
%"class.std::shared_ptr.102" = type { %"class.std::__shared_ptr.103" }
%"class.std::__shared_ptr.103" = type { ptr, %"class.std::__shared_count" }
%"struct.std::integer_sequence" = type { i8 }
%class.anon.116 = type { ptr }
%class.anon.117 = type { ptr }
%class.anon.118 = type { ptr }
%class.anon.119 = type { ptr }
%"class.std::allocator.7" = type { i8 }
%"struct.std::integer_sequence.123" = type { i8 }
%"struct.xt::detail::cast_if_integer" = type { i8 }
%"struct.xt::placeholders::xtuph" = type { i8 }
%"class.xt::xstrided_container" = type <{ %"class.xt::svector", %"class.xt::svector.15", %"class.xt::svector.15", i32, [4 x i8] }>
%"class.std::allocator.80" = type { i8 }
%"class.std::allocator.83" = type { i8 }
%"class.std::_Sp_counted_base" = type { ptr, i32, i32 }
%"struct.std::random_access_iterator_tag" = type { i8 }
%"class.xt::xstrided_container.88" = type <{ %"class.std::vector.86", %"class.std::vector.95", %"class.std::vector.95", i32, [4 x i8] }>
%"struct.std::integral_constant" = type { i8 }
%"class.__gnu_cxx::__normal_iterator.105" = type { ptr }
%class.anon = type { ptr, ptr }
%class.anon.106 = type { ptr, ptr }
%"struct.std::integral_constant.107" = type { i8 }
%"struct.xtl::identity" = type { i8 }
%"class.xt::stepper_assigner" = type { ptr, %"class.xt::xstepper", %"class.xt::xstepper.108", %"class.xt::svector" }
%"class.xt::xstepper" = type { ptr, ptr, i64 }
%"class.xt::xstepper.108" = type { ptr, %"class.__gnu_cxx::__normal_iterator.109", i64 }
%"class.__gnu_cxx::__normal_iterator.109" = type { ptr }
%"struct.std::is_convertible" = type { i8 }
%class.anon.110 = type { ptr }
%class.anon.111 = type { ptr }
%class.anon.112 = type { ptr }
%class.anon.113 = type { ptr }
%"struct.xt::conditional_cast_functor" = type { i8 }
%"class.__gnu_cxx::__normal_iterator.114" = type { ptr }
%"struct.xt::detail::slice_implementation_getter" = type { i8 }
%"struct.xtl::is_signed" = type { i8 }
%"struct.xt::detail::is_sequence_view" = type { i8 }
%"class.__gnu_cxx::__normal_iterator.115" = type { ptr }
%"struct.xtl::is_signed.120" = type { i8 }
%"struct.std::multiplies" = type { i8 }
%"class.__gnu_cxx::__normal_iterator.122" = type { ptr }
%"class.xt::xstrided_container.29" = type <{ %"class.xt::svector", %"class.xt::svector.15", %"class.xt::svector.15", i32, [4 x i8] }>
%"class.xt::xstrided_container.45" = type <{ %"struct.std::array.52", %"struct.std::array.53", %"struct.std::array.53", i32, [4 x i8] }>
%"struct.xt::detail::slice_implementation_getter.124" = type { i8 }
%class.anon.125 = type { i8 }
%class.anon.127 = type { ptr, ptr }
%class.anon.128 = type { ptr, ptr }
%"class.xt::stepper_assigner.129" = type { ptr, %"class.xt::xstepper.130", %"class.xt::xstepper.131", %"struct.std::array.52" }
%"class.xt::xstepper.130" = type { ptr, ptr, i64 }
%"class.xt::xstepper.131" = type { ptr, ptr, i64 }
%"struct.std::is_convertible.132" = type { i8 }
%class.anon.133 = type { ptr }
%class.anon.134 = type { ptr }
%class.anon.136 = type { ptr }
%class.anon.137 = type { ptr }
%"struct.std::array.135" = type { [2 x i64] }
%"struct.xt::conditional_cast_functor.138" = type { i8 }
%"class.__gnu_cxx::__normal_iterator.139" = type { ptr }
%"struct.__gnu_cxx::__ops::_Iter_less_val" = type { i8 }
%"class.gsl::span.143" = type { ptr, ptr }
%"class.std::allocator.2" = type { i8 }

$_ZN6openmc14DiscretePhotonD0Ev = comdat any

$_ZN6openmc18EnergyDistributionD2Ev = comdat any

$_ZN6openmc14LevelInelasticD0Ev = comdat any

$_ZN6openmc17ContinuousTabularD2Ev = comdat any

$_ZN6openmc17ContinuousTabularD0Ev = comdat any

$_ZN6openmc13MaxwellEnergyD2Ev = comdat any

$_ZN6openmc13MaxwellEnergyD0Ev = comdat any

$_ZN6openmc11EvaporationD2Ev = comdat any

$_ZN6openmc11EvaporationD0Ev = comdat any

$_ZN6openmc10WattEnergyD2Ev = comdat any

$_ZN6openmc10WattEnergyD0Ev = comdat any

$_ZN6openmc18DiscretePhotonFlatC2EPKh = comdat any

$_ZN6openmc18LevelInelasticFlatC2EPKh = comdat any

$_ZN6openmc15EvaporationFlatC2EPKh = comdat any

$_ZN6openmc11MaxwellFlatC2EPKh = comdat any

$_ZN6openmc8WattFlatC2EPKh = comdat any

$_ZN6openmc18EnergyDistributionC2Ev = comdat any

$_ZN6openmc14read_attributeIiEEvlPKcRT_ = comdat any

$_ZN6openmc14read_attributeIdEEvlPKcRT_ = comdat any

$_ZN6openmc18EnergyDistributionD0Ev = comdat any

$_ZN6openmc10DataBuffer3addIiEENSt9enable_ifIXsr3std9is_scalarINSt5decayIT_E4typeEEE5valueEvE4typeES4_ = comdat any

$_ZN6openmc10DataBuffer3addIdEENSt9enable_ifIXsr3std9is_scalarINSt5decayIT_E4typeEEE5valueEvE4typeES4_ = comdat any

$_ZNK6openmc18DiscretePhotonFlat12primary_flagEv = comdat any

$_ZNK6openmc18DiscretePhotonFlat1AEv = comdat any

$_ZNK6openmc18DiscretePhotonFlat6energyEv = comdat any

$_ZNK6openmc18LevelInelasticFlat10mass_ratioEv = comdat any

$_ZNK6openmc18LevelInelasticFlat9thresholdEv = comdat any

$_ZNSt6vectorIiSaIiEEC2Ev = comdat any

$_ZNSt6vectorIN6openmc13InterpolationESaIS1_EEC2Ev = comdat any

$_ZNSt6vectorIdSaIdEEC2Ev = comdat any

$_ZNSt6vectorIN6openmc17ContinuousTabular7CTTableESaIS2_EEC2Ev = comdat any

$_ZN2xt16xarray_containerINS_7uvectorIiSaIiEEELNS_11layout_typeE1ENS_7svectorImLm4ESaImELb1EEENS_22xtensor_expression_tagEEC2Ev = comdat any

$_ZN6openmc14read_attributeIiEEvlPKcRN2xt16xarray_containerINS3_7uvectorIT_SaIS6_EEELNS3_11layout_typeE1ENS3_7svectorINS8_9size_typeELm4ESaINSt6vectorIS6_S7_E9size_typeEELb1EEENS3_22xtensor_expression_tagEEE = comdat any

$_ZN2xt4viewIRNS_16xarray_containerINS_7uvectorIiSaIiEEELNS_11layout_typeE1ENS_7svectorImLm4ESaImELb1EEENS_22xtensor_expression_tagEEEJiEEEDaOT_DpOT0_ = comdat any

$_ZSt4copyIPiSt20back_insert_iteratorISt6vectorIiSaIiEEEET0_T_S7_S6_ = comdat any

$_ZN2xt20xcontiguous_iterableINS_5xviewIRNS_16xarray_containerINS_7uvectorIiSaIiEEELNS_11layout_typeE1ENS_7svectorImLm4ESaImELb1EEENS_22xtensor_expression_tagEEEJiEEEE5beginILS6_1EEENSt11conditionalIXeqT_L_ZNSE_13static_layoutEEEPiNS_9xiteratorINS_8xstepperISD_EEPNS_13sequence_viewIS9_Ll1ELln1EEEXT_EEEE4typeEv = comdat any

$_ZN2xt20xcontiguous_iterableINS_5xviewIRNS_16xarray_containerINS_7uvectorIiSaIiEEELNS_11layout_typeE1ENS_7svectorImLm4ESaImELb1EEENS_22xtensor_expression_tagEEEJiEEEE3endILS6_1EEENSt11conditionalIXeqT_L_ZNSE_13static_layoutEEEPiNS_9xiteratorINS_8xstepperISD_EEPNS_13sequence_viewIS9_Ll1ELln1EEEXT_EEEE4typeEv = comdat any

$_ZSt13back_inserterISt6vectorIiSaIiEEESt20back_insert_iteratorIT_ERS4_ = comdat any

$_ZNSt6vectorIN6openmc13InterpolationESaIS1_EE9push_backEOS1_ = comdat any

$_ZNKSt6vectorIiSaIiEE4sizeEv = comdat any

$_ZN6openmc12read_datasetIdEEvlRSt6vectorIT_SaIS2_EEb = comdat any

$_ZNKSt6vectorIdSaIdEE4sizeEv = comdat any

$_ZN6openmc14read_attributeIiEEvlPKcRSt6vectorIT_SaIS4_EE = comdat any

$_ZN2xt16xarray_containerINS_7uvectorIdSaIdEEELNS_11layout_typeE1ENS_7svectorImLm4ESaImELb1EEENS_22xtensor_expression_tagEEC2Ev = comdat any

$_ZN6openmc12read_datasetIdEEvlRN2xt16xarray_containerINS1_7uvectorIT_SaIS4_EEELNS1_11layout_typeE1ENS1_7svectorINS6_9size_typeELm4ESaINSt6vectorIS4_S5_E9size_typeEELb1EEENS1_22xtensor_expression_tagEEEb = comdat any

$_ZNSt6vectorIiSaIiEEixEm = comdat any

$_ZNK2xt10xcontainerINS_16xarray_containerINS_7uvectorIdSaIdEEELNS_11layout_typeE1ENS_7svectorImLm4ESaImELb1EEENS_22xtensor_expression_tagEEEE5shapeEv = comdat any

$_ZNK2xt7svectorImLm4ESaImELb1EEixEm = comdat any

$_ZN6openmc17ContinuousTabular7CTTableC2Ev = comdat any

$_ZN2xt4viewIRNS_16xarray_containerINS_7uvectorIdSaIdEEELNS_11layout_typeE1ENS_7svectorImLm4ESaImELb1EEENS_22xtensor_expression_tagEEEJiNS_14xrange_adaptorIllNS_12placeholders5xtuphEEEEEEDaOT_DpOT0_ = comdat any

$_ZN2xt5rangeIiiEEDaT_T0_ = comdat any

$_ZN2xt17xtensor_containerINS_7uvectorIdSaIdEEELm1ELNS_11layout_typeE1ENS_22xtensor_expression_tagEEaSINS_5xviewIRNS_16xarray_containerIS3_LS4_1ENS_7svectorImLm4ESaImELb1EEES5_EEJiNS_6xrangeIlEEEEEEERS6_RKNS_11xexpressionIT_EE = comdat any

$_ZN2xt5xviewIRNS_16xarray_containerINS_7uvectorIdSaIdEEELNS_11layout_typeE1ENS_7svectorImLm4ESaImELb1EEENS_22xtensor_expression_tagEEEJiNS_6xrangeIlEEEED2Ev = comdat any

$_ZNSt6vectorIN6openmc17ContinuousTabular7CTTableESaIS2_EE9push_backEOS2_ = comdat any

$_ZN6openmc17ContinuousTabular7CTTableD2Ev = comdat any

$_ZN2xt16xarray_containerINS_7uvectorIdSaIdEEELNS_11layout_typeE1ENS_7svectorImLm4ESaImELb1EEENS_22xtensor_expression_tagEED2Ev = comdat any

$_ZNSt6vectorIiSaIiEED2Ev = comdat any

$_ZN2xt20xsharable_expressionINS_5xviewIRNS_16xarray_containerINS_7uvectorIiSaIiEEELNS_11layout_typeE1ENS_7svectorImLm4ESaImELb1EEENS_22xtensor_expression_tagEEEJiEEEED2Ev = comdat any

$_ZN2xt16xarray_containerINS_7uvectorIiSaIiEEELNS_11layout_typeE1ENS_7svectorImLm4ESaImELb1EEENS_22xtensor_expression_tagEED2Ev = comdat any

$_ZNSt6vectorIN6openmc17ContinuousTabular7CTTableESaIS2_EED2Ev = comdat any

$_ZNSt6vectorIdSaIdEED2Ev = comdat any

$_ZNSt6vectorIN6openmc13InterpolationESaIS1_EED2Ev = comdat any

$_ZNSt12_Vector_baseIiSaIiEEC2Ev = comdat any

$_ZNSt12_Vector_baseIiSaIiEE12_Vector_implC2Ev = comdat any

$_ZNSt15__new_allocatorIiEC2Ev = comdat any

$_ZNSt12_Vector_baseIN6openmc13InterpolationESaIS1_EEC2Ev = comdat any

$_ZNSt12_Vector_baseIN6openmc13InterpolationESaIS1_EE12_Vector_implC2Ev = comdat any

$_ZNSaIN6openmc13InterpolationEEC2Ev = comdat any

$_ZNSt15__new_allocatorIN6openmc13InterpolationEEC2Ev = comdat any

$_ZNSt12_Vector_baseIdSaIdEEC2Ev = comdat any

$_ZNSt12_Vector_baseIdSaIdEE12_Vector_implC2Ev = comdat any

$_ZNSt15__new_allocatorIdEC2Ev = comdat any

$_ZNSt12_Vector_baseIN6openmc17ContinuousTabular7CTTableESaIS2_EEC2Ev = comdat any

$_ZNSt12_Vector_baseIN6openmc17ContinuousTabular7CTTableESaIS2_EE12_Vector_implC2Ev = comdat any

$_ZNSaIN6openmc17ContinuousTabular7CTTableEEC2Ev = comdat any

$_ZNSt12_Vector_baseIN6openmc17ContinuousTabular7CTTableESaIS2_EE17_Vector_impl_dataC2Ev = comdat any

$_ZNSt15__new_allocatorIN6openmc17ContinuousTabular7CTTableEEC2Ev = comdat any

$_ZN2xt18xstrided_containerINS_16xarray_containerINS_7uvectorIiSaIiEEELNS_11layout_typeE1ENS_7svectorImLm4ESaImELb1EEENS_22xtensor_expression_tagEEEEC2Ev = comdat any

$_ZN2xt19xcontainer_semanticINS_16xarray_containerINS_7uvectorIiSaIiEEELNS_11layout_typeE1ENS_7svectorImLm4ESaImELb1EEENS_22xtensor_expression_tagEEEEC2Ev = comdat any

$_ZNSaIiEC2Ev = comdat any

$_ZN2xt7uvectorIiSaIiEEC2EmRKiRKS1_ = comdat any

$_ZN2xt20xsharable_expressionINS_16xarray_containerINS_7uvectorIiSaIiEEELNS_11layout_typeE1ENS_7svectorImLm4ESaImELb1EEENS_22xtensor_expression_tagEEEED2Ev = comdat any

$_ZN2xt18xstrided_containerINS_16xarray_containerINS_7uvectorIiSaIiEEELNS_11layout_typeE1ENS_7svectorImLm4ESaImELb1EEENS_22xtensor_expression_tagEEEED2Ev = comdat any

$_ZN2xt7svectorImLm4ESaImELb1EEC2Ev = comdat any

$_ZN2xt7svectorIlLm4ESaIlELb1EEC2Ev = comdat any

$_ZN3xtl13make_sequenceIN2xt7svectorImLm4ESaImELb1EEEEET_NS5_9size_typeENS5_10value_typeE = comdat any

$_ZNK2xt10xcontainerINS_16xarray_containerINS_7uvectorIiSaIiEEELNS_11layout_typeE1ENS_7svectorImLm4ESaImELb1EEENS_22xtensor_expression_tagEEEE9dimensionEv = comdat any

$__clang_call_terminate = comdat any

$_ZN2xt7svectorImLm4ESaImELb1EEaSEOS2_ = comdat any

$_ZN2xt7svectorImLm4ESaImELb1EED2Ev = comdat any

$_ZN3xtl13make_sequenceIN2xt7svectorIlLm4ESaIlELb1EEEEET_NS5_9size_typeENS5_10value_typeE = comdat any

$_ZN2xt7svectorIlLm4ESaIlELb1EEaSEOS2_ = comdat any

$_ZN2xt7svectorIlLm4ESaIlELb1EED2Ev = comdat any

$_ZNSaImEC2Ev = comdat any

$_ZN2xt7svectorImLm4ESaImELb1EEC2ERKS1_ = comdat any

$_ZNSt15__new_allocatorImEC2Ev = comdat any

$_ZNSaImEC2ERKS_ = comdat any

$_ZSt5beginImLm4EEPT_RAT0__S0_ = comdat any

$_ZSt3endImLm4EEPT_RAT0__S0_ = comdat any

$_ZNSt15__new_allocatorImEC2ERKS0_ = comdat any

$_ZNSaIlEC2Ev = comdat any

$_ZN2xt7svectorIlLm4ESaIlELb1EEC2ERKS1_ = comdat any

$_ZNSt15__new_allocatorIlEC2Ev = comdat any

$_ZNSaIlEC2ERKS_ = comdat any

$_ZSt5beginIlLm4EEPT_RAT0__S0_ = comdat any

$_ZSt3endIlLm4EEPT_RAT0__S0_ = comdat any

$_ZNSt15__new_allocatorIlEC2ERKS0_ = comdat any

$_ZN3xtl6detail16sequence_builderIN2xt7svectorImLm4ESaImELb1EEEE4makeEmm = comdat any

$_ZN2xt7svectorImLm4ESaImELb1EEC2EmRKmRKS1_ = comdat any

$_ZN2xt7svectorImLm4ESaImELb1EE6assignEmRKm = comdat any

$_ZNK2xt7svectorImLm4ESaImELb1EE8capacityEv = comdat any

$_ZN2xt7svectorImLm4ESaImELb1EE4growEm = comdat any

$_ZSt4fillIPmmEvT_S1_RKT0_ = comdat any

$_ZN2xt7svectorImLm4ESaImELb1EE5beginEv = comdat any

$_ZN2xt7svectorImLm4ESaImELb1EE3endEv = comdat any

$_ZNK2xt7svectorImLm4ESaImELb1EE4sizeEv = comdat any

$_ZNSt15__new_allocatorImE8allocateEmPKv = comdat any

$_ZSt18uninitialized_copyIPmS0_ET0_T_S2_S1_ = comdat any

$_ZNSt15__new_allocatorImE10deallocateEPmm = comdat any

$_ZNKSt15__new_allocatorImE11_M_max_sizeEv = comdat any

$_ZNSt20__uninitialized_copyILb1EE13__uninit_copyIPmS2_EET0_T_S4_S3_ = comdat any

$_ZSt4copyIPmS0_ET0_T_S2_S1_ = comdat any

$_ZSt13__copy_move_aILb0EPmS0_ET1_T0_S2_S1_ = comdat any

$_ZSt12__miter_baseIPmET_S1_ = comdat any

$_ZSt12__niter_wrapIPmET_RKS1_S1_ = comdat any

$_ZSt14__copy_move_a1ILb0EPmS0_ET1_T0_S2_S1_ = comdat any

$_ZSt12__niter_baseIPmET_S1_ = comdat any

$_ZSt14__copy_move_a2ILb0EPmS0_ET1_T0_S2_S1_ = comdat any

$_ZNSt11__copy_moveILb0ELb1ESt26random_access_iterator_tagE8__copy_mImEEPT_PKS3_S6_S4_ = comdat any

$_ZSt8__fill_aIPmmEvT_S1_RKT0_ = comdat any

$_ZSt9__fill_a1IPmmEN9__gnu_cxx11__enable_ifIXsr11__is_scalarIT0_EE7__valueEvE6__typeET_S6_RKS3_ = comdat any

$_ZNK2xt10xcontainerINS_16xarray_containerINS_7uvectorIiSaIiEEELNS_11layout_typeE1ENS_7svectorImLm4ESaImELb1EEENS_22xtensor_expression_tagEEEE5shapeEv = comdat any

$_ZNKR2xt10xcontainerINS_16xarray_containerINS_7uvectorIiSaIiEEELNS_11layout_typeE1ENS_7svectorImLm4ESaImELb1EEENS_22xtensor_expression_tagEEEE12derived_castEv = comdat any

$_ZNK2xt18xstrided_containerINS_16xarray_containerINS_7uvectorIiSaIiEEELNS_11layout_typeE1ENS_7svectorImLm4ESaImELb1EEENS_22xtensor_expression_tagEEEE10shape_implEv = comdat any

$_ZN2xt7svectorImLm4ESaImELb1EE6assignIPmEEvT_S5_ = comdat any

$_ZN2xt7svectorImLm4ESaImELb1EE8on_stackEv = comdat any

$_ZN2xt6detail23safe_destroy_deallocateISaImEEEvRT_NSt16allocator_traitsIS3_E7pointerENS6_9size_typeE = comdat any

$_ZNSt16allocator_traitsISaImEE10deallocateERS0_Pmm = comdat any

$_ZN3xtl6detail16sequence_builderIN2xt7svectorIlLm4ESaIlELb1EEEE4makeEml = comdat any

$_ZN2xt7svectorIlLm4ESaIlELb1EEC2EmRKlRKS1_ = comdat any

$_ZN2xt7svectorIlLm4ESaIlELb1EE6assignEmRKl = comdat any

$_ZNK2xt7svectorIlLm4ESaIlELb1EE8capacityEv = comdat any

$_ZN2xt7svectorIlLm4ESaIlELb1EE4growEm = comdat any

$_ZSt4fillIPllEvT_S1_RKT0_ = comdat any

$_ZN2xt7svectorIlLm4ESaIlELb1EE5beginEv = comdat any

$_ZN2xt7svectorIlLm4ESaIlELb1EE3endEv = comdat any

$_ZNK2xt7svectorIlLm4ESaIlELb1EE4sizeEv = comdat any

$_ZNSt15__new_allocatorIlE8allocateEmPKv = comdat any

$_ZSt18uninitialized_copyIPlS0_ET0_T_S2_S1_ = comdat any

$_ZNSt15__new_allocatorIlE10deallocateEPlm = comdat any

$_ZNKSt15__new_allocatorIlE11_M_max_sizeEv = comdat any

$_ZNSt20__uninitialized_copyILb1EE13__uninit_copyIPlS2_EET0_T_S4_S3_ = comdat any

$_ZSt4copyIPlS0_ET0_T_S2_S1_ = comdat any

$_ZSt13__copy_move_aILb0EPlS0_ET1_T0_S2_S1_ = comdat any

$_ZSt12__miter_baseIPlET_S1_ = comdat any

$_ZSt12__niter_wrapIPlET_RKS1_S1_ = comdat any

$_ZSt14__copy_move_a1ILb0EPlS0_ET1_T0_S2_S1_ = comdat any

$_ZSt12__niter_baseIPlET_S1_ = comdat any

$_ZSt14__copy_move_a2ILb0EPlS0_ET1_T0_S2_S1_ = comdat any

$_ZNSt11__copy_moveILb0ELb1ESt26random_access_iterator_tagE8__copy_mIlEEPT_PKS3_S6_S4_ = comdat any

$_ZSt8__fill_aIPllEvT_S1_RKT0_ = comdat any

$_ZSt9__fill_a1IPllEN9__gnu_cxx11__enable_ifIXsr11__is_scalarIT0_EE7__valueEvE6__typeET_S6_RKS3_ = comdat any

$_ZN2xt7svectorIlLm4ESaIlELb1EE6assignIPlEEvT_S5_ = comdat any

$_ZN2xt7svectorIlLm4ESaIlELb1EE8on_stackEv = comdat any

$_ZN2xt6detail23safe_destroy_deallocateISaIlEEEvRT_NSt16allocator_traitsIS3_E7pointerENS6_9size_typeE = comdat any

$_ZNSt16allocator_traitsISaIlEE10deallocateERS0_Plm = comdat any

$_ZN2xt14xsemantic_baseINS_16xarray_containerINS_7uvectorIiSaIiEEELNS_11layout_typeE1ENS_7svectorImLm4ESaImELb1EEENS_22xtensor_expression_tagEEEEC2Ev = comdat any

$_ZN2xt20xsharable_expressionINS_16xarray_containerINS_7uvectorIiSaIiEEELNS_11layout_typeE1ENS_7svectorImLm4ESaImELb1EEENS_22xtensor_expression_tagEEEEC2Ev = comdat any

$_ZNSt10shared_ptrIN2xt16xarray_containerINS0_7uvectorIiSaIiEEELNS0_11layout_typeE1ENS0_7svectorImLm4ESaImELb1EEENS0_22xtensor_expression_tagEEEEC2EDn = comdat any

$_ZNSt10shared_ptrIN2xt16xarray_containerINS0_7uvectorIiSaIiEEELNS0_11layout_typeE1ENS0_7svectorImLm4ESaImELb1EEENS0_22xtensor_expression_tagEEEEC2Ev = comdat any

$_ZNSt12__shared_ptrIN2xt16xarray_containerINS0_7uvectorIiSaIiEEELNS0_11layout_typeE1ENS0_7svectorImLm4ESaImELb1EEENS0_22xtensor_expression_tagEEELN9__gnu_cxx12_Lock_policyE2EEC2Ev = comdat any

$_ZNSt14__shared_countILN9__gnu_cxx12_Lock_policyE2EEC2Ev = comdat any

$_ZNSaIiEC2ERKS_ = comdat any

$_ZNSt15__new_allocatorIiE8allocateEmPKv = comdat any

$_ZSt18uninitialized_fillIPiiEvT_S1_RKT0_ = comdat any

$_ZNSt15__new_allocatorIiEC2ERKS0_ = comdat any

$_ZNKSt15__new_allocatorIiE11_M_max_sizeEv = comdat any

$_ZNSt20__uninitialized_fillILb1EE13__uninit_fillIPiiEEvT_S3_RKT0_ = comdat any

$_ZSt4fillIPiiEvT_S1_RKT0_ = comdat any

$_ZSt8__fill_aIPiiEvT_S1_RKT0_ = comdat any

$_ZSt9__fill_a1IPiiEN9__gnu_cxx11__enable_ifIXsr11__is_scalarIT0_EE7__valueEvE6__typeET_S6_RKS3_ = comdat any

$_ZNSt14__shared_countILN9__gnu_cxx12_Lock_policyE2EED2Ev = comdat any

$_ZNSt16_Sp_counted_baseILN9__gnu_cxx12_Lock_policyE2EE10_M_releaseEv = comdat any

$_ZN9__gnu_cxx27__exchange_and_add_dispatchEPii = comdat any

$_ZNSt16_Sp_counted_baseILN9__gnu_cxx12_Lock_policyE2EE24_M_release_last_use_coldEv = comdat any

$_ZN9__gnu_cxx20__is_single_threadedEv = comdat any

$_ZN9__gnu_cxx25__exchange_and_add_singleEPii = comdat any

$_ZN9__gnu_cxx18__exchange_and_addEPVii = comdat any

$_ZNSt16_Sp_counted_baseILN9__gnu_cxx12_Lock_policyE2EE19_M_release_last_useEv = comdat any

$_ZNSt6vectorImSaImEE5beginEv = comdat any

$_ZNSt6vectorImSaImEE3endEv = comdat any

$_ZN9__gnu_cxxneIPmSt6vectorImSaImEEEEbRKNS_17__normal_iteratorIT_T0_EESA_ = comdat any

$_ZNK9__gnu_cxx17__normal_iteratorIPmSt6vectorImSaImEEEdeEv = comdat any

$_ZN9__gnu_cxx17__normal_iteratorIPmSt6vectorImSaImEEEppEv = comdat any

$_ZNSt6vectorIiSaIiEEC2EmRKS0_ = comdat any

$_ZNSt6vectorIiSaIiEE4dataEv = comdat any

$_ZN2xt5adaptILNS_11layout_typeE1ERSt6vectorIiSaIiEES2_ImSaImEETnNSt9enable_ifIXsr11conjunctionIN3xtl8negationINS_6detail8is_arrayINSt5decayIT1_E4typeEEEEENSA_ISt10is_pointerIT0_EEEEE5valueEiE4typeELi0EEENS_14xarray_adaptorINS9_12closure_typeISK_E4typeEXT_ESG_NS_22xtensor_expression_tagEEEOSK_RKSE_S1_ = comdat any

$_ZN2xt16xarray_containerINS_7uvectorIiSaIiEEELNS_11layout_typeE1ENS_7svectorImLm4ESaImELb1EEENS_22xtensor_expression_tagEEaSINS_14xarray_adaptorIRSt6vectorIiS2_ELS4_1ESC_ImS6_ES8_EEEERS9_RKNS_11xexpressionIT_EE = comdat any

$_ZN2xt14xarray_adaptorIRSt6vectorIiSaIiEELNS_11layout_typeE1ES1_ImSaImEENS_22xtensor_expression_tagEED2Ev = comdat any

$_ZNSt6vectorImSaImEED2Ev = comdat any

$_ZN9__gnu_cxx17__normal_iteratorIPmSt6vectorImSaImEEEC2ERKS1_ = comdat any

$_ZNK9__gnu_cxx17__normal_iteratorIPmSt6vectorImSaImEEE4baseEv = comdat any

$_ZNSt6vectorIiSaIiEE17_S_check_init_lenEmRKS0_ = comdat any

$_ZNSt12_Vector_baseIiSaIiEEC2EmRKS0_ = comdat any

$_ZNSt6vectorIiSaIiEE21_M_default_initializeEm = comdat any

$_ZNSt12_Vector_baseIiSaIiEED2Ev = comdat any

$_ZNSt6vectorIiSaIiEE11_S_max_sizeERKS0_ = comdat any

$_ZNSt16allocator_traitsISaIiEE8max_sizeERKS0_ = comdat any

$_ZSt3minImERKT_S2_S2_ = comdat any

$_ZNKSt15__new_allocatorIiE8max_sizeEv = comdat any

$_ZNSt12_Vector_baseIiSaIiEE12_Vector_implC2ERKS0_ = comdat any

$_ZNSt12_Vector_baseIiSaIiEE17_M_create_storageEm = comdat any

$_ZNSt15__new_allocatorIiED2Ev = comdat any

$_ZNSt12_Vector_baseIiSaIiEE11_M_allocateEm = comdat any

$_ZNSt16allocator_traitsISaIiEE8allocateERS0_m = comdat any

$_ZSt27__uninitialized_default_n_aIPimiET_S1_T0_RSaIT1_E = comdat any

$_ZNSt12_Vector_baseIiSaIiEE19_M_get_Tp_allocatorEv = comdat any

$_ZSt25__uninitialized_default_nIPimET_S1_T0_ = comdat any

$_ZNSt27__uninitialized_default_n_1ILb1EE18__uninit_default_nIPimEET_S3_T0_ = comdat any

$_ZSt10_ConstructIiJEEvPT_DpOT0_ = comdat any

$_ZSt6fill_nIPimiET_S1_T0_RKT1_ = comdat any

$_ZSt10__fill_n_aIPimiET_S1_T0_RKT1_St26random_access_iterator_tag = comdat any

$_ZSt17__size_to_integerm = comdat any

$_ZSt19__iterator_categoryIPiENSt15iterator_traitsIT_E17iterator_categoryERKS2_ = comdat any

$_ZNSt12_Vector_baseIiSaIiEE13_M_deallocateEPim = comdat any

$_ZNSt16allocator_traitsISaIiEE10deallocateERS0_Pim = comdat any

$_ZNSt15__new_allocatorIiE10deallocateEPim = comdat any

$_ZNKSt6vectorIiSaIiEE11_M_data_ptrIiEEPT_S4_ = comdat any

$_ZN2xt14xarray_adaptorIRSt6vectorIiSaIiEELNS_11layout_typeE1ES1_ImSaImEENS_22xtensor_expression_tagEEC2IS4_EEOT_RKS7_S5_ = comdat any

$_ZN2xt18xstrided_containerINS_14xarray_adaptorIRSt6vectorIiSaIiEELNS_11layout_typeE1ES2_ImSaImEENS_22xtensor_expression_tagEEEEC2Ev = comdat any

$_ZN2xt19xcontainer_semanticINS_14xarray_adaptorIRSt6vectorIiSaIiEELNS_11layout_typeE1ES2_ImSaImEENS_22xtensor_expression_tagEEEEC2Ev = comdat any

$_ZN2xt18xstrided_containerINS_14xarray_adaptorIRSt6vectorIiSaIiEELNS_11layout_typeE1ES2_ImSaImEENS_22xtensor_expression_tagEEEE6resizeIRKS8_EEvOT_S6_ = comdat any

$_ZN2xt20xsharable_expressionINS_14xarray_adaptorIRSt6vectorIiSaIiEELNS_11layout_typeE1ES2_ImSaImEENS_22xtensor_expression_tagEEEED2Ev = comdat any

$_ZN2xt18xstrided_containerINS_14xarray_adaptorIRSt6vectorIiSaIiEELNS_11layout_typeE1ES2_ImSaImEENS_22xtensor_expression_tagEEEED2Ev = comdat any

$_ZNSt6vectorImSaImEEC2Ev = comdat any

$_ZNSt6vectorIlSaIlEEC2Ev = comdat any

$_ZN3xtl13make_sequenceISt6vectorImSaImEEEET_NS4_9size_typeENS4_10value_typeE = comdat any

$_ZNK2xt10xcontainerINS_14xarray_adaptorIRSt6vectorIiSaIiEELNS_11layout_typeE1ES2_ImSaImEENS_22xtensor_expression_tagEEEE9dimensionEv = comdat any

$_ZNSt6vectorImSaImEEaSEOS1_ = comdat any

$_ZN3xtl13make_sequenceISt6vectorIlSaIlEEEET_NS4_9size_typeENS4_10value_typeE = comdat any

$_ZNSt6vectorIlSaIlEEaSEOS1_ = comdat any

$_ZNSt6vectorIlSaIlEED2Ev = comdat any

$_ZNSt12_Vector_baseImSaImEEC2Ev = comdat any

$_ZNSt12_Vector_baseImSaImEE12_Vector_implC2Ev = comdat any

$_ZNSt12_Vector_baseIlSaIlEEC2Ev = comdat any

$_ZNSt12_Vector_baseIlSaIlEE12_Vector_implC2Ev = comdat any

$_ZN3xtl6detail16sequence_builderISt6vectorImSaImEEE4makeEmm = comdat any

$_ZNSt6vectorImSaImEEC2EmRKmRKS0_ = comdat any

$_ZNSt6vectorImSaImEE17_S_check_init_lenEmRKS0_ = comdat any

$_ZNSt12_Vector_baseImSaImEEC2EmRKS0_ = comdat any

$_ZNSt6vectorImSaImEE18_M_fill_initializeEmRKm = comdat any

$_ZNSt12_Vector_baseImSaImEED2Ev = comdat any

$_ZNSt6vectorImSaImEE11_S_max_sizeERKS0_ = comdat any

$_ZNSt16allocator_traitsISaImEE8max_sizeERKS0_ = comdat any

$_ZNKSt15__new_allocatorImE8max_sizeEv = comdat any

$_ZNSt12_Vector_baseImSaImEE12_Vector_implC2ERKS0_ = comdat any

$_ZNSt12_Vector_baseImSaImEE17_M_create_storageEm = comdat any

$_ZNSt15__new_allocatorImED2Ev = comdat any

$_ZNSt12_Vector_baseImSaImEE11_M_allocateEm = comdat any

$_ZNSt16allocator_traitsISaImEE8allocateERS0_m = comdat any

$_ZSt24__uninitialized_fill_n_aIPmmmmET_S1_T0_RKT1_RSaIT2_E = comdat any

$_ZNSt12_Vector_baseImSaImEE19_M_get_Tp_allocatorEv = comdat any

$_ZSt20uninitialized_fill_nIPmmmET_S1_T0_RKT1_ = comdat any

$_ZNSt22__uninitialized_fill_nILb1EE15__uninit_fill_nIPmmmEET_S3_T0_RKT1_ = comdat any

$_ZSt6fill_nIPmmmET_S1_T0_RKT1_ = comdat any

$_ZSt10__fill_n_aIPmmmET_S1_T0_RKT1_St26random_access_iterator_tag = comdat any

$_ZSt19__iterator_categoryIPmENSt15iterator_traitsIT_E17iterator_categoryERKS2_ = comdat any

$_ZNSt12_Vector_baseImSaImEE13_M_deallocateEPmm = comdat any

$_ZNK2xt10xcontainerINS_14xarray_adaptorIRSt6vectorIiSaIiEELNS_11layout_typeE1ES2_ImSaImEENS_22xtensor_expression_tagEEEE5shapeEv = comdat any

$_ZNKSt6vectorImSaImEE4sizeEv = comdat any

$_ZNKR2xt10xcontainerINS_14xarray_adaptorIRSt6vectorIiSaIiEELNS_11layout_typeE1ES2_ImSaImEENS_22xtensor_expression_tagEEEE12derived_castEv = comdat any

$_ZNK2xt18xstrided_containerINS_14xarray_adaptorIRSt6vectorIiSaIiEELNS_11layout_typeE1ES2_ImSaImEENS_22xtensor_expression_tagEEEE10shape_implEv = comdat any

$_ZNSt6vectorImSaImEE14_M_move_assignEOS1_St17integral_constantIbLb1EE = comdat any

$_ZNKSt12_Vector_baseImSaImEE13get_allocatorEv = comdat any

$_ZNSt6vectorImSaImEEC2ERKS0_ = comdat any

$_ZNSt12_Vector_baseImSaImEE17_Vector_impl_data12_M_swap_dataERS2_ = comdat any

$_ZSt15__alloc_on_moveISaImEEvRT_S2_ = comdat any

$_ZNKSt12_Vector_baseImSaImEE19_M_get_Tp_allocatorEv = comdat any

$_ZNSt12_Vector_baseImSaImEEC2ERKS0_ = comdat any

$_ZNSt12_Vector_baseImSaImEE17_Vector_impl_dataC2Ev = comdat any

$_ZNSt12_Vector_baseImSaImEE17_Vector_impl_data12_M_copy_dataERKS2_ = comdat any

$_ZN3xtl6detail16sequence_builderISt6vectorIlSaIlEEE4makeEml = comdat any

$_ZNSt6vectorIlSaIlEEC2EmRKlRKS0_ = comdat any

$_ZNSt6vectorIlSaIlEE17_S_check_init_lenEmRKS0_ = comdat any

$_ZNSt12_Vector_baseIlSaIlEEC2EmRKS0_ = comdat any

$_ZNSt6vectorIlSaIlEE18_M_fill_initializeEmRKl = comdat any

$_ZNSt12_Vector_baseIlSaIlEED2Ev = comdat any

$_ZNSt6vectorIlSaIlEE11_S_max_sizeERKS0_ = comdat any

$_ZNSt16allocator_traitsISaIlEE8max_sizeERKS0_ = comdat any

$_ZNKSt15__new_allocatorIlE8max_sizeEv = comdat any

$_ZNSt12_Vector_baseIlSaIlEE12_Vector_implC2ERKS0_ = comdat any

$_ZNSt12_Vector_baseIlSaIlEE17_M_create_storageEm = comdat any

$_ZNSt15__new_allocatorIlED2Ev = comdat any

$_ZNSt12_Vector_baseIlSaIlEE11_M_allocateEm = comdat any

$_ZNSt16allocator_traitsISaIlEE8allocateERS0_m = comdat any

$_ZSt24__uninitialized_fill_n_aIPlmllET_S1_T0_RKT1_RSaIT2_E = comdat any

$_ZNSt12_Vector_baseIlSaIlEE19_M_get_Tp_allocatorEv = comdat any

$_ZSt20uninitialized_fill_nIPlmlET_S1_T0_RKT1_ = comdat any

$_ZNSt22__uninitialized_fill_nILb1EE15__uninit_fill_nIPlmlEET_S3_T0_RKT1_ = comdat any

$_ZSt6fill_nIPlmlET_S1_T0_RKT1_ = comdat any

$_ZSt10__fill_n_aIPlmlET_S1_T0_RKT1_St26random_access_iterator_tag = comdat any

$_ZSt19__iterator_categoryIPlENSt15iterator_traitsIT_E17iterator_categoryERKS2_ = comdat any

$_ZNSt12_Vector_baseIlSaIlEE13_M_deallocateEPlm = comdat any

$_ZNSt6vectorIlSaIlEE14_M_move_assignEOS1_St17integral_constantIbLb1EE = comdat any

$_ZNKSt12_Vector_baseIlSaIlEE13get_allocatorEv = comdat any

$_ZNSt6vectorIlSaIlEEC2ERKS0_ = comdat any

$_ZNSt12_Vector_baseIlSaIlEE17_Vector_impl_data12_M_swap_dataERS2_ = comdat any

$_ZSt15__alloc_on_moveISaIlEEvRT_S2_ = comdat any

$_ZNKSt12_Vector_baseIlSaIlEE19_M_get_Tp_allocatorEv = comdat any

$_ZNSt12_Vector_baseIlSaIlEEC2ERKS0_ = comdat any

$_ZNSt12_Vector_baseIlSaIlEE17_Vector_impl_dataC2Ev = comdat any

$_ZNSt12_Vector_baseIlSaIlEE17_Vector_impl_data12_M_copy_dataERKS2_ = comdat any

$_ZSt8_DestroyIPllEvT_S1_RSaIT0_E = comdat any

$_ZSt8_DestroyIPlEvT_S1_ = comdat any

$_ZNSt12_Destroy_auxILb1EE9__destroyIPlEEvT_S3_ = comdat any

$_ZN2xt14xsemantic_baseINS_14xarray_adaptorIRSt6vectorIiSaIiEELNS_11layout_typeE1ES2_ImSaImEENS_22xtensor_expression_tagEEEEC2Ev = comdat any

$_ZN2xt20xsharable_expressionINS_14xarray_adaptorIRSt6vectorIiSaIiEELNS_11layout_typeE1ES2_ImSaImEENS_22xtensor_expression_tagEEEEC2Ev = comdat any

$_ZNSt10shared_ptrIN2xt14xarray_adaptorIRSt6vectorIiSaIiEELNS0_11layout_typeE1ES2_ImSaImEENS0_22xtensor_expression_tagEEEEC2EDn = comdat any

$_ZNSt10shared_ptrIN2xt14xarray_adaptorIRSt6vectorIiSaIiEELNS0_11layout_typeE1ES2_ImSaImEENS0_22xtensor_expression_tagEEEEC2Ev = comdat any

$_ZNSt12__shared_ptrIN2xt14xarray_adaptorIRSt6vectorIiSaIiEELNS0_11layout_typeE1ES2_ImSaImEENS0_22xtensor_expression_tagEEELN9__gnu_cxx12_Lock_policyE2EEC2Ev = comdat any

$_ZN2xt18xstrided_containerINS_14xarray_adaptorIRSt6vectorIiSaIiEELNS_11layout_typeE1ES2_ImSaImEENS_22xtensor_expression_tagEEEE6resizeIRKS8_EEvOT_b = comdat any

$_ZSt5equalIN9__gnu_cxx17__normal_iteratorIPKmSt6vectorImSaImEEEENS1_IPmS6_EEEbT_SA_T0_ = comdat any

$_ZSt5beginISt6vectorImSaImEEEDTcldtfp_5beginEERKT_ = comdat any

$_ZSt3endISt6vectorImSaImEEEDTcldtfp_3endEERKT_ = comdat any

$_ZSt5beginISt6vectorImSaImEEEDTcldtfp_5beginEERT_ = comdat any

$_ZN3xtl16forward_sequenceISt6vectorImSaImEERKS3_EEDcRNSt16remove_referenceIT0_E4typeE = comdat any

$_ZNSt6vectorImSaImEEaSERKS1_ = comdat any

$_ZN2xt16resize_containerISt6vectorIlSaIlEEEEbRT_NS4_9size_typeE = comdat any

$_ZN2xt15compute_stridesILNS_11layout_typeE1ESt6vectorImSaImEES2_IlSaIlEES6_EEmRKT0_S1_RT1_RT2_ = comdat any

$_ZN2xt6detail21resize_data_containerISt6vectorIiSaIiEEmEEvRT_T0_ = comdat any

$_ZN2xt10xcontainerINS_14xarray_adaptorIRSt6vectorIiSaIiEELNS_11layout_typeE1ES2_ImSaImEENS_22xtensor_expression_tagEEEE7storageEv = comdat any

$_ZSt11__equal_auxIN9__gnu_cxx17__normal_iteratorIPKmSt6vectorImSaImEEEENS1_IPmS6_EEEbT_SA_T0_ = comdat any

$_ZSt12__equal_aux1IPKmPmEbT_S3_T0_ = comdat any

$_ZSt12__niter_baseIPKmSt6vectorImSaImEEET_N9__gnu_cxx17__normal_iteratorIS5_T0_EE = comdat any

$_ZSt12__niter_baseIPmSt6vectorImSaImEEET_N9__gnu_cxx17__normal_iteratorIS4_T0_EE = comdat any

$_ZNSt7__equalILb1EE5equalImEEbPKT_S4_S4_ = comdat any

$_ZSt8__memcmpImmEiPKT_PKT0_m = comdat any

$_ZNK9__gnu_cxx17__normal_iteratorIPKmSt6vectorImSaImEEE4baseEv = comdat any

$_ZNKSt6vectorImSaImEE5beginEv = comdat any

$_ZN9__gnu_cxx17__normal_iteratorIPKmSt6vectorImSaImEEEC2ERKS2_ = comdat any

$_ZNKSt6vectorImSaImEE3endEv = comdat any

$_ZN3xtl6detail18sequence_forwarderISt6vectorImSaImEES4_E7forwardIRKS4_EEOT_SA_ = comdat any

$_ZNKSt6vectorImSaImEE8capacityEv = comdat any

$_ZNSt6vectorImSaImEE20_M_allocate_and_copyIN9__gnu_cxx17__normal_iteratorIPKmS1_EEEEPmmT_S9_ = comdat any

$_ZSt8_DestroyIPmmEvT_S1_RSaIT0_E = comdat any

$_ZSt8_DestroyIN9__gnu_cxx17__normal_iteratorIPmSt6vectorImSaImEEEEmEvT_S7_RSaIT0_E = comdat any

$_ZSt4copyIN9__gnu_cxx17__normal_iteratorIPKmSt6vectorImSaImEEEENS1_IPmS6_EEET0_T_SB_SA_ = comdat any

$_ZSt22__uninitialized_copy_aIPmS0_mET0_T_S2_S1_RSaIT1_E = comdat any

$_ZSt22__uninitialized_copy_aIN9__gnu_cxx17__normal_iteratorIPKmSt6vectorImSaImEEEEPmmET0_T_SA_S9_RSaIT1_E = comdat any

$_ZSt18uninitialized_copyIN9__gnu_cxx17__normal_iteratorIPKmSt6vectorImSaImEEEEPmET0_T_SA_S9_ = comdat any

$_ZNSt20__uninitialized_copyILb1EE13__uninit_copyIN9__gnu_cxx17__normal_iteratorIPKmSt6vectorImSaImEEEEPmEET0_T_SC_SB_ = comdat any

$_ZSt4copyIN9__gnu_cxx17__normal_iteratorIPKmSt6vectorImSaImEEEEPmET0_T_SA_S9_ = comdat any

$_ZSt13__copy_move_aILb0EN9__gnu_cxx17__normal_iteratorIPKmSt6vectorImSaImEEEEPmET1_T0_SA_S9_ = comdat any

$_ZSt12__miter_baseIN9__gnu_cxx17__normal_iteratorIPKmSt6vectorImSaImEEEEET_S8_ = comdat any

$_ZSt14__copy_move_a1ILb0EPKmPmET1_T0_S4_S3_ = comdat any

$_ZSt14__copy_move_a2ILb0EPKmPmET1_T0_S4_S3_ = comdat any

$_ZSt8_DestroyIPmEvT_S1_ = comdat any

$_ZNSt12_Destroy_auxILb1EE9__destroyIPmEEvT_S3_ = comdat any

$_ZSt8_DestroyIN9__gnu_cxx17__normal_iteratorIPmSt6vectorImSaImEEEEEvT_S7_ = comdat any

$_ZNSt12_Destroy_auxILb1EE9__destroyIN9__gnu_cxx17__normal_iteratorIPmSt6vectorImSaImEEEEEEvT_S9_ = comdat any

$_ZSt13__copy_move_aILb0EN9__gnu_cxx17__normal_iteratorIPKmSt6vectorImSaImEEEENS1_IPmS6_EEET1_T0_SB_SA_ = comdat any

$_ZSt12__niter_wrapIN9__gnu_cxx17__normal_iteratorIPmSt6vectorImSaImEEEES2_ET_S7_T0_ = comdat any

$_ZNK9__gnu_cxx17__normal_iteratorIPmSt6vectorImSaImEEEplEl = comdat any

$_ZNSt6vectorIlSaIlEE6resizeEm = comdat any

$_ZNKSt6vectorIlSaIlEE4sizeEv = comdat any

$_ZNSt6vectorIlSaIlEE17_M_default_appendEm = comdat any

$_ZNSt6vectorIlSaIlEE15_M_erase_at_endEPl = comdat any

$_ZNKSt6vectorIlSaIlEE8max_sizeEv = comdat any

$_ZSt27__uninitialized_default_n_aIPlmlET_S1_T0_RSaIT1_E = comdat any

$_ZNKSt6vectorIlSaIlEE12_M_check_lenEmPKc = comdat any

$_ZNSt6vectorIlSaIlEE11_S_relocateEPlS2_S2_RS0_ = comdat any

$_ZSt25__uninitialized_default_nIPlmET_S1_T0_ = comdat any

$_ZNSt27__uninitialized_default_n_1ILb1EE18__uninit_default_nIPlmEET_S3_T0_ = comdat any

$_ZSt10_ConstructIlJEEvPT_DpOT0_ = comdat any

$_ZSt3maxImERKT_S2_S2_ = comdat any

$_ZSt12__relocate_aIPlS0_SaIlEET0_T_S3_S2_RT1_ = comdat any

$_ZSt14__relocate_a_1IllENSt9enable_ifIXsr3std24__is_bitwise_relocatableIT_EE5valueEPS1_E4typeES2_S2_S2_RSaIT0_E = comdat any

$_ZN2xt6detail15compute_stridesILNS_11layout_typeE1ESt6vectorImSaImEES3_IlSaIlEEPS7_EEmRKT0_S2_RT1_T2_ = comdat any

$_ZNSt6vectorIlSaIlEEixEm = comdat any

$_ZNKSt6vectorImSaImEEixEm = comdat any

$_ZN2xt6detail13adapt_stridesISt6vectorImSaImEES2_IlSaIlEEPS6_EEvRKT_RT0_T1_NSB_9size_typeE = comdat any

$_ZN2xt16resize_containerISt6vectorIiSaIiEEEEbRT_NS4_9size_typeE = comdat any

$_ZNSt6vectorIiSaIiEE6resizeEm = comdat any

$_ZNSt6vectorIiSaIiEE17_M_default_appendEm = comdat any

$_ZNSt6vectorIiSaIiEE15_M_erase_at_endEPi = comdat any

$_ZNKSt6vectorIiSaIiEE8max_sizeEv = comdat any

$_ZNKSt6vectorIiSaIiEE12_M_check_lenEmPKc = comdat any

$_ZNSt6vectorIiSaIiEE11_S_relocateEPiS2_S2_RS0_ = comdat any

$_ZNKSt12_Vector_baseIiSaIiEE19_M_get_Tp_allocatorEv = comdat any

$_ZSt12__relocate_aIPiS0_SaIiEET0_T_S3_S2_RT1_ = comdat any

$_ZSt14__relocate_a_1IiiENSt9enable_ifIXsr3std24__is_bitwise_relocatableIT_EE5valueEPS1_E4typeES2_S2_S2_RSaIT0_E = comdat any

$_ZSt12__niter_baseIPiET_S1_ = comdat any

$_ZSt8_DestroyIPiiEvT_S1_RSaIT0_E = comdat any

$_ZSt8_DestroyIPiEvT_S1_ = comdat any

$_ZNSt12_Destroy_auxILb1EE9__destroyIPiEEvT_S3_ = comdat any

$_ZNR2xt10xcontainerINS_14xarray_adaptorIRSt6vectorIiSaIiEELNS_11layout_typeE1ES2_ImSaImEENS_22xtensor_expression_tagEEEE12derived_castEv = comdat any

$_ZN2xt14xarray_adaptorIRSt6vectorIiSaIiEELNS_11layout_typeE1ES1_ImSaImEENS_22xtensor_expression_tagEE12storage_implEv = comdat any

$_ZNSt12__shared_ptrIN2xt14xarray_adaptorIRSt6vectorIiSaIiEELNS0_11layout_typeE1ES2_ImSaImEENS0_22xtensor_expression_tagEEELN9__gnu_cxx12_Lock_policyE2EED2Ev = comdat any

$_ZN2xt19xcontainer_semanticINS_16xarray_containerINS_7uvectorIiSaIiEEELNS_11layout_typeE1ENS_7svectorImLm4ESaImELb1EEENS_22xtensor_expression_tagEEEEaSINS_14xarray_adaptorIRSt6vectorIiS3_ELS5_1ESE_ImS7_ES9_EEEERSA_RKNS_11xexpressionIT_EE = comdat any

$_ZN2xt14xsemantic_baseINS_16xarray_containerINS_7uvectorIiSaIiEEELNS_11layout_typeE1ENS_7svectorImLm4ESaImELb1EEENS_22xtensor_expression_tagEEEEaSINS_14xarray_adaptorIRSt6vectorIiS3_ELS5_1ESE_ImS7_ES9_EEEERSA_RKNS_11xexpressionIT_EE = comdat any

$_ZN2xt16xarray_containerINS_7uvectorIiSaIiEEELNS_11layout_typeE1ENS_7svectorImLm4ESaImELb1EEENS_22xtensor_expression_tagEEC2INS_14xarray_adaptorIRSt6vectorIiS2_ELS4_1ESC_ImS6_ES8_EEEERKNS_11xexpressionIT_EE = comdat any

$_ZNR2xt11xexpressionINS_16xarray_containerINS_7uvectorIiSaIiEEELNS_11layout_typeE1ENS_7svectorImLm4ESaImELb1EEENS_22xtensor_expression_tagEEEE12derived_castEv = comdat any

$_ZN2xt19xcontainer_semanticINS_16xarray_containerINS_7uvectorIiSaIiEEELNS_11layout_typeE1ENS_7svectorImLm4ESaImELb1EEENS_22xtensor_expression_tagEEEE16assign_temporaryEOSA_ = comdat any

$_ZN2xt7uvectorIiSaIiEEC2Ev = comdat any

$_ZNKR2xt11xexpressionINS_14xarray_adaptorIRSt6vectorIiSaIiEELNS_11layout_typeE1ES2_ImSaImEENS_22xtensor_expression_tagEEEE12derived_castEv = comdat any

$_ZN2xt6detail21resize_data_containerINS_7uvectorIiSaIiEEEmEEvRT_T0_ = comdat any

$_ZN2xt14xsemantic_baseINS_16xarray_containerINS_7uvectorIiSaIiEEELNS_11layout_typeE1ENS_7svectorImLm4ESaImELb1EEENS_22xtensor_expression_tagEEEE6assignINS_14xarray_adaptorIRSt6vectorIiS3_ELS5_1ESE_ImS7_ES9_EEEERSA_RKNS_11xexpressionIT_EE = comdat any

$_ZN2xt7uvectorIiSaIiEED2Ev = comdat any

$_ZN2xt7uvectorIiSaIiEEC2ERKS1_ = comdat any

$_ZN2xt16resize_containerINS_7uvectorIiSaIiEEEEEbRT_NS4_9size_typeE = comdat any

$_ZN2xt7uvectorIiSaIiEE6resizeEm = comdat any

$_ZN2xt7uvectorIiSaIiEE11resize_implEm = comdat any

$_ZNK2xt7uvectorIiSaIiEE4sizeEv = comdat any

$_ZN2xt6detail18safe_init_allocateISaIiEEENSt16allocator_traitsIT_E7pointerERS4_NS5_9size_typeE = comdat any

$_ZN2xt6detail23safe_destroy_deallocateISaIiEEEvRT_NSt16allocator_traitsIS3_E7pointerENS6_9size_typeE = comdat any

$_ZN2xt19xcontainer_semanticINS_16xarray_containerINS_7uvectorIiSaIiEEELNS_11layout_typeE1ENS_7svectorImLm4ESaImELb1EEENS_22xtensor_expression_tagEEEE18assign_xexpressionINS_14xarray_adaptorIRSt6vectorIiS3_ELS5_1ESE_ImS7_ES9_EEEERSA_RKNS_11xexpressionIT_EE = comdat any

$_ZN2xt18assign_xexpressionINS_16xarray_containerINS_7uvectorIiSaIiEEELNS_11layout_typeE1ENS_7svectorImLm4ESaImELb1EEENS_22xtensor_expression_tagEEENS_14xarray_adaptorIRSt6vectorIiS3_ELS5_1ESC_ImS7_ES9_EEEEvRNS_11xexpressionIT_EERKNSH_IT0_EE = comdat any

$_ZN3xtl3mpl9static_ifILb0EZN2xt18assign_xexpressionINS2_16xarray_containerINS2_7uvectorIiSaIiEEELNS2_11layout_typeE1ENS2_7svectorImLm4ESaImELb1EEENS2_22xtensor_expression_tagEEENS2_14xarray_adaptorIRSt6vectorIiS6_ELS8_1ESF_ImSA_ESC_EEEEvRNS2_11xexpressionIT_EERKNSK_IT0_EEEUlSL_E_ZNS3_ISD_SJ_EEvSN_SR_EUlSL_E0_EEDcRKSO_RKT1_ = comdat any

$_ZN3xtl3mpl9static_ifIZN2xt18assign_xexpressionINS2_16xarray_containerINS2_7uvectorIiSaIiEEELNS2_11layout_typeE1ENS2_7svectorImLm4ESaImELb1EEENS2_22xtensor_expression_tagEEENS2_14xarray_adaptorIRSt6vectorIiS6_ELS8_1ESF_ImSA_ESC_EEEEvRNS2_11xexpressionIT_EERKNSK_IT0_EEEUlSL_E_ZNS3_ISD_SJ_EEvSN_SR_EUlSL_E0_EEDcSt17integral_constantIbLb0EERKSL_RKSO_ = comdat any

$_ZZN2xt18assign_xexpressionINS_16xarray_containerINS_7uvectorIiSaIiEEELNS_11layout_typeE1ENS_7svectorImLm4ESaImELb1EEENS_22xtensor_expression_tagEEENS_14xarray_adaptorIRSt6vectorIiS3_ELS5_1ESC_ImS7_ES9_EEEEvRNS_11xexpressionIT_EERKNSH_IT0_EEENKUlSI_E0_clIN3xtl8identityEEEDaSI_ = comdat any

$_ZN2xt20xexpression_assignerINS_22xtensor_expression_tagEE18assign_xexpressionINS_11xexpressionINS_16xarray_containerINS_7uvectorIiSaIiEEELNS_11layout_typeE1ENS_7svectorImLm4ESaImELb1EEES1_EEEENS4_INS_14xarray_adaptorIRSt6vectorIiS7_ELS9_1ESG_ImSB_ES1_EEEEEEvRT_RKT0_ = comdat any

$_ZN2xt20xexpression_assignerINS_22xtensor_expression_tagEE6resizeINS_16xarray_containerINS_7uvectorIiSaIiEEELNS_11layout_typeE1ENS_7svectorImLm4ESaImELb1EEES1_EENS_14xarray_adaptorIRSt6vectorIiS6_ELS8_1ESE_ImSA_ES1_EEEEbRT_RKT0_ = comdat any

$_ZN2xt25xexpression_assigner_baseINS_22xtensor_expression_tagEE11assign_dataINS_16xarray_containerINS_7uvectorIiSaIiEEELNS_11layout_typeE1ENS_7svectorImLm4ESaImELb1EEES1_EENS_14xarray_adaptorIRSt6vectorIiS6_ELS8_1ESE_ImSA_ES1_EEEEvRNS_11xexpressionIT_EERKNSJ_IT0_EEb = comdat any

$_ZN2xt18xstrided_containerINS_16xarray_containerINS_7uvectorIiSaIiEEELNS_11layout_typeE1ENS_7svectorImLm4ESaImELb1EEENS_22xtensor_expression_tagEEEE6resizeIRKSt6vectorImS7_EEEvOT_b = comdat any

$_ZSt5equalIN9__gnu_cxx17__normal_iteratorIPKmSt6vectorImSaImEEEEPmEbT_S9_T0_ = comdat any

$_ZSt5beginIN2xt7svectorImLm4ESaImELb1EEEEDTcldtfp_5beginEERT_ = comdat any

$_ZN3xtl16forward_sequenceIN2xt7svectorImLm4ESaImELb1EEERKSt6vectorImS3_EEEDcRNSt16remove_referenceIT0_E4typeE = comdat any

$_ZN2xt16resize_containerINS_7svectorIlLm4ESaIlELb1EEEEEbRT_NS4_9size_typeE = comdat any

$_ZN2xt15compute_stridesILNS_11layout_typeE1ENS_7svectorImLm4ESaImELb1EEENS2_IlLm4ESaIlELb1EEES6_EEmRKT0_S1_RT1_RT2_ = comdat any

$_ZN2xt10xcontainerINS_16xarray_containerINS_7uvectorIiSaIiEEELNS_11layout_typeE1ENS_7svectorImLm4ESaImELb1EEENS_22xtensor_expression_tagEEEE7storageEv = comdat any

$_ZSt11__equal_auxIN9__gnu_cxx17__normal_iteratorIPKmSt6vectorImSaImEEEEPmEbT_S9_T0_ = comdat any

$_ZN3xtl6detail23sequence_forwarder_implIN2xt7svectorImLm4ESaImELb1EEESt6vectorImS4_EvE7forwardIS7_EEDaRKT_ = comdat any

$_ZN2xt7svectorImLm4ESaImELb1EEC2IN9__gnu_cxx17__normal_iteratorIPKmSt6vectorImS1_EEEvEET_SB_RKS1_ = comdat any

$_ZN2xt7svectorImLm4ESaImELb1EE6assignIN9__gnu_cxx17__normal_iteratorIPKmSt6vectorImS1_EEEEEvT_SB_ = comdat any

$_ZN9__gnu_cxxmiIPKmSt6vectorImSaImEEEENS_17__normal_iteratorIT_T0_E15difference_typeERKS9_SC_ = comdat any

$_ZN2xt7svectorIlLm4ESaIlELb1EE6resizeEm = comdat any

$_ZN2xt6detail15compute_stridesILNS_11layout_typeE1ENS_7svectorImLm4ESaImELb1EEENS3_IlLm4ESaIlELb1EEEPS7_EEmRKT0_S2_RT1_T2_ = comdat any

$_ZN2xt7svectorIlLm4ESaIlELb1EEixEm = comdat any

$_ZN2xt6detail13adapt_stridesINS_7svectorImLm4ESaImELb1EEENS2_IlLm4ESaIlELb1EEEPS6_EEvRKT_RT0_T1_NSB_9size_typeE = comdat any

$_ZNR2xt10xcontainerINS_16xarray_containerINS_7uvectorIiSaIiEEELNS_11layout_typeE1ENS_7svectorImLm4ESaImELb1EEENS_22xtensor_expression_tagEEEE12derived_castEv = comdat any

$_ZN2xt16xarray_containerINS_7uvectorIiSaIiEEELNS_11layout_typeE1ENS_7svectorImLm4ESaImELb1EEENS_22xtensor_expression_tagEE12storage_implEv = comdat any

$_ZN2xt14xassign_traitsINS_16xarray_containerINS_7uvectorIiSaIiEEELNS_11layout_typeE1ENS_7svectorImLm4ESaImELb1EEENS_22xtensor_expression_tagEEENS_14xarray_adaptorIRSt6vectorIiS3_ELS5_1ESC_ImS7_ES9_EEE13linear_assignERKSA_RKSG_b = comdat any

$_ZN2xt14xassign_traitsINS_16xarray_containerINS_7uvectorIiSaIiEEELNS_11layout_typeE1ENS_7svectorImLm4ESaImELb1EEENS_22xtensor_expression_tagEEENS_14xarray_adaptorIRSt6vectorIiS3_ELS5_1ESC_ImS7_ES9_EEE18simd_linear_assignERKSA_RKSG_ = comdat any

$_ZN2xt15linear_assignerILb0EE3runINS_16xarray_containerINS_7uvectorIiSaIiEEELNS_11layout_typeE1ENS_7svectorImLm4ESaImELb1EEENS_22xtensor_expression_tagEEENS_14xarray_adaptorIRSt6vectorIiS5_ELS7_1ESE_ImS9_ESB_EEEEvRT_RKT0_ = comdat any

$_ZN2xt16stepper_assignerINS_16xarray_containerINS_7uvectorIiSaIiEEELNS_11layout_typeE1ENS_7svectorImLm4ESaImELb1EEENS_22xtensor_expression_tagEEENS_14xarray_adaptorIRSt6vectorIiS3_ELS5_1ESC_ImS7_ES9_EELS5_1EEC2ERSA_RKSG_ = comdat any

$_ZN2xt16stepper_assignerINS_16xarray_containerINS_7uvectorIiSaIiEEELNS_11layout_typeE1ENS_7svectorImLm4ESaImELb1EEENS_22xtensor_expression_tagEEENS_14xarray_adaptorIRSt6vectorIiS3_ELS5_1ESC_ImS7_ES9_EELS5_1EE3runEv = comdat any

$_ZN2xt16stepper_assignerINS_16xarray_containerINS_7uvectorIiSaIiEEELNS_11layout_typeE1ENS_7svectorImLm4ESaImELb1EEENS_22xtensor_expression_tagEEENS_14xarray_adaptorIRSt6vectorIiS3_ELS5_1ESC_ImS7_ES9_EELS5_1EED2Ev = comdat any

$_ZN2xt6detail16is_linear_assignINS_16xarray_containerINS_7uvectorIiSaIiEEELNS_11layout_typeE1ENS_7svectorImLm4ESaImELb1EEENS_22xtensor_expression_tagEEENS_14xarray_adaptorIRSt6vectorIiS4_ELS6_1ESD_ImS8_ESA_EEEENSt9enable_ifIXsr11has_stridesIT_EE5valueEbE4typeERKSJ_RKT0_ = comdat any

$_ZN2xt15linear_assignerILb0EE8run_implINS_16xarray_containerINS_7uvectorIiSaIiEEELNS_11layout_typeE1ENS_7svectorImLm4ESaImELb1EEENS_22xtensor_expression_tagEEENS_14xarray_adaptorIRSt6vectorIiS5_ELS7_1ESE_ImS9_ESB_EEEEvRT_RKT0_St17integral_constantIbLb1EE = comdat any

$_ZN2xt12linear_beginINS_14xarray_adaptorIRSt6vectorIiSaIiEELNS_11layout_typeE1ES2_ImSaImEENS_22xtensor_expression_tagEEEEEDaRKT_ = comdat any

$_ZN2xt12linear_beginINS_16xarray_containerINS_7uvectorIiSaIiEEELNS_11layout_typeE1ENS_7svectorImLm4ESaImELb1EEENS_22xtensor_expression_tagEEEEEDaRT_ = comdat any

$_ZNK2xt10xcontainerINS_16xarray_containerINS_7uvectorIiSaIiEEELNS_11layout_typeE1ENS_7svectorImLm4ESaImELb1EEENS_22xtensor_expression_tagEEEE4sizeEv = comdat any

$_ZNK9__gnu_cxx17__normal_iteratorIPKiSt6vectorIiSaIiEEEdeEv = comdat any

$_ZN9__gnu_cxx17__normal_iteratorIPKiSt6vectorIiSaIiEEEppEv = comdat any

$_ZN3xtl3mpl9static_ifILb1EZN2xt12linear_beginINS2_14xarray_adaptorIRSt6vectorIiSaIiEELNS2_11layout_typeE1ES5_ImSaImEENS2_22xtensor_expression_tagEEEEEDaRKT_EUlSE_E_ZNS3_ISD_EEDaSG_EUlSE_E0_EEDcRKT0_RKT1_ = comdat any

$_ZN3xtl3mpl9static_ifIZN2xt12linear_beginINS2_14xarray_adaptorIRSt6vectorIiSaIiEELNS2_11layout_typeE1ES5_ImSaImEENS2_22xtensor_expression_tagEEEEEDaRKT_EUlSE_E_ZNS3_ISD_EEDaSG_EUlSE_E0_EEDcSt17integral_constantIbLb1EESG_RKT0_ = comdat any

$_ZZN2xt12linear_beginINS_14xarray_adaptorIRSt6vectorIiSaIiEELNS_11layout_typeE1ES2_ImSaImEENS_22xtensor_expression_tagEEEEEDaRKT_ENKUlSB_E_clIN3xtl8identityEEEDaSB_ = comdat any

$_ZNK3xtl8identityclIRKN2xt14xarray_adaptorIRSt6vectorIiSaIiEELNS2_11layout_typeE1ES4_ImSaImEENS2_22xtensor_expression_tagEEEEEOT_SG_ = comdat any

$_ZNK2xt10xcontainerINS_14xarray_adaptorIRSt6vectorIiSaIiEELNS_11layout_typeE1ES2_ImSaImEENS_22xtensor_expression_tagEEEE14storage_cbeginEv = comdat any

$_ZNK2xt10xcontainerINS_14xarray_adaptorIRSt6vectorIiSaIiEELNS_11layout_typeE1ES2_ImSaImEENS_22xtensor_expression_tagEEEE7storageEv = comdat any

$_ZNKSt6vectorIiSaIiEE6cbeginEv = comdat any

$_ZNK2xt14xarray_adaptorIRSt6vectorIiSaIiEELNS_11layout_typeE1ES1_ImSaImEENS_22xtensor_expression_tagEE12storage_implEv = comdat any

$_ZN9__gnu_cxx17__normal_iteratorIPKiSt6vectorIiSaIiEEEC2ERKS2_ = comdat any

$_ZN3xtl3mpl9static_ifILb1EZN2xt12linear_beginINS2_16xarray_containerINS2_7uvectorIiSaIiEEELNS2_11layout_typeE1ENS2_7svectorImLm4ESaImELb1EEENS2_22xtensor_expression_tagEEEEEDaRT_EUlSE_E_ZNS3_ISD_EEDaSF_EUlSE_E0_EEDcRKT0_RKT1_ = comdat any

$_ZN3xtl3mpl9static_ifIZN2xt12linear_beginINS2_16xarray_containerINS2_7uvectorIiSaIiEEELNS2_11layout_typeE1ENS2_7svectorImLm4ESaImELb1EEENS2_22xtensor_expression_tagEEEEEDaRT_EUlSE_E_ZNS3_ISD_EEDaSF_EUlSE_E0_EEDcSt17integral_constantIbLb1EERKSE_RKT0_ = comdat any

$_ZZN2xt12linear_beginINS_16xarray_containerINS_7uvectorIiSaIiEEELNS_11layout_typeE1ENS_7svectorImLm4ESaImELb1EEENS_22xtensor_expression_tagEEEEEDaRT_ENKUlSB_E_clIN3xtl8identityEEEDaSB_ = comdat any

$_ZNK3xtl8identityclIRN2xt16xarray_containerINS2_7uvectorIiSaIiEEELNS2_11layout_typeE1ENS2_7svectorImLm4ESaImELb1EEENS2_22xtensor_expression_tagEEEEEOT_SF_ = comdat any

$_ZN2xt10xcontainerINS_16xarray_containerINS_7uvectorIiSaIiEEELNS_11layout_typeE1ENS_7svectorImLm4ESaImELb1EEENS_22xtensor_expression_tagEEEE13storage_beginEv = comdat any

$_ZN2xt7uvectorIiSaIiEE5beginEv = comdat any

$_ZNK2xt10xcontainerINS_16xarray_containerINS_7uvectorIiSaIiEEELNS_11layout_typeE1ENS_7svectorImLm4ESaImELb1EEENS_22xtensor_expression_tagEEEE7storageEv = comdat any

$_ZNK2xt16xarray_containerINS_7uvectorIiSaIiEEELNS_11layout_typeE1ENS_7svectorImLm4ESaImELb1EEENS_22xtensor_expression_tagEE12storage_implEv = comdat any

$_ZN2xt10xcontainerINS_16xarray_containerINS_7uvectorIiSaIiEEELNS_11layout_typeE1ENS_7svectorImLm4ESaImELb1EEENS_22xtensor_expression_tagEEEE13stepper_beginIS8_EENS_8xstepperISA_EERKT_ = comdat any

$_ZNK2xt10xcontainerINS_14xarray_adaptorIRSt6vectorIiSaIiEELNS_11layout_typeE1ES2_ImSaImEENS_22xtensor_expression_tagEEEE13stepper_beginINS_7svectorImLm4ES7_Lb1EEEEENS_8xstepperIKSA_EERKT_ = comdat any

$_ZN2xt10xcontainerINS_16xarray_containerINS_7uvectorIiSaIiEEELNS_11layout_typeE1ENS_7svectorImLm4ESaImELb1EEENS_22xtensor_expression_tagEEEE11data_xbeginEv = comdat any

$_ZN2xt8xstepperINS_16xarray_containerINS_7uvectorIiSaIiEEELNS_11layout_typeE1ENS_7svectorImLm4ESaImELb1EEENS_22xtensor_expression_tagEEEEC2EPSA_Pim = comdat any

$_ZNK2xt10xcontainerINS_14xarray_adaptorIRSt6vectorIiSaIiEELNS_11layout_typeE1ES2_ImSaImEENS_22xtensor_expression_tagEEEE11data_xbeginEv = comdat any

$_ZN2xt8xstepperIKNS_14xarray_adaptorIRSt6vectorIiSaIiEELNS_11layout_typeE1ES2_ImSaImEENS_22xtensor_expression_tagEEEEC2EPSB_N9__gnu_cxx17__normal_iteratorIPKiS4_EEm = comdat any

$_ZN2xt16conditional_castILb0EiRKiEEDaOT1_ = comdat any

$_ZNK2xt8xstepperIKNS_14xarray_adaptorIRSt6vectorIiSaIiEELNS_11layout_typeE1ES2_ImSaImEENS_22xtensor_expression_tagEEEEdeEv = comdat any

$_ZNK2xt8xstepperINS_16xarray_containerINS_7uvectorIiSaIiEEELNS_11layout_typeE1ENS_7svectorImLm4ESaImELb1EEENS_22xtensor_expression_tagEEEEdeEv = comdat any

$_ZN2xt13stepper_toolsILNS_11layout_typeE1EE17increment_stepperINS_16stepper_assignerINS_16xarray_containerINS_7uvectorIiSaIiEEELS1_1ENS_7svectorImLm4ESaImELb1EEENS_22xtensor_expression_tagEEENS_14xarray_adaptorIRSt6vectorIiS7_ELS1_1ESF_ImSA_ESC_EELS1_1EEESB_SB_EEvRT_RT0_RKT1_ = comdat any

$_ZNK3xtl8identityclIRKiEEOT_S5_ = comdat any

$_ZN2xt7svectorImLm4ESaImELb1EEixEm = comdat any

$_ZN2xt16stepper_assignerINS_16xarray_containerINS_7uvectorIiSaIiEEELNS_11layout_typeE1ENS_7svectorImLm4ESaImELb1EEENS_22xtensor_expression_tagEEENS_14xarray_adaptorIRSt6vectorIiS3_ELS5_1ESC_ImS7_ES9_EELS5_1EE4stepEm = comdat any

$_ZN2xt16stepper_assignerINS_16xarray_containerINS_7uvectorIiSaIiEEELNS_11layout_typeE1ENS_7svectorImLm4ESaImELb1EEENS_22xtensor_expression_tagEEENS_14xarray_adaptorIRSt6vectorIiS3_ELS5_1ESC_ImS7_ES9_EELS5_1EE5resetEm = comdat any

$_ZSt4copyIPKmPmET0_T_S4_S3_ = comdat any

$_ZNK2xt7svectorImLm4ESaImELb1EE6cbeginEv = comdat any

$_ZNK2xt7svectorImLm4ESaImELb1EE4cendEv = comdat any

$_ZN2xt16stepper_assignerINS_16xarray_containerINS_7uvectorIiSaIiEEELNS_11layout_typeE1ENS_7svectorImLm4ESaImELb1EEENS_22xtensor_expression_tagEEENS_14xarray_adaptorIRSt6vectorIiS3_ELS5_1ESC_ImS7_ES9_EELS5_1EE6to_endES5_ = comdat any

$_ZN2xt8xstepperINS_16xarray_containerINS_7uvectorIiSaIiEEELNS_11layout_typeE1ENS_7svectorImLm4ESaImELb1EEENS_22xtensor_expression_tagEEEE4stepEmm = comdat any

$_ZN2xt8xstepperIKNS_14xarray_adaptorIRSt6vectorIiSaIiEELNS_11layout_typeE1ES2_ImSaImEENS_22xtensor_expression_tagEEEE4stepEmm = comdat any

$_ZNK2xt10xcontainerINS_16xarray_containerINS_7uvectorIiSaIiEEELNS_11layout_typeE1ENS_7svectorImLm4ESaImELb1EEENS_22xtensor_expression_tagEEEE7stridesEv = comdat any

$_ZNK2xt7svectorIlLm4ESaIlELb1EEixEm = comdat any

$_ZNK2xt18xstrided_containerINS_16xarray_containerINS_7uvectorIiSaIiEEELNS_11layout_typeE1ENS_7svectorImLm4ESaImELb1EEENS_22xtensor_expression_tagEEEE12strides_implEv = comdat any

$_ZNK2xt10xcontainerINS_14xarray_adaptorIRSt6vectorIiSaIiEELNS_11layout_typeE1ES2_ImSaImEENS_22xtensor_expression_tagEEEE7stridesEv = comdat any

$_ZNKSt6vectorIlSaIlEEixEm = comdat any

$_ZN9__gnu_cxx17__normal_iteratorIPKiSt6vectorIiSaIiEEEpLEl = comdat any

$_ZNK2xt18xstrided_containerINS_14xarray_adaptorIRSt6vectorIiSaIiEELNS_11layout_typeE1ES2_ImSaImEENS_22xtensor_expression_tagEEEE12strides_implEv = comdat any

$_ZN2xt8xstepperINS_16xarray_containerINS_7uvectorIiSaIiEEELNS_11layout_typeE1ENS_7svectorImLm4ESaImELb1EEENS_22xtensor_expression_tagEEEE5resetEm = comdat any

$_ZN2xt8xstepperIKNS_14xarray_adaptorIRSt6vectorIiSaIiEELNS_11layout_typeE1ES2_ImSaImEENS_22xtensor_expression_tagEEEE5resetEm = comdat any

$_ZNK2xt10xcontainerINS_16xarray_containerINS_7uvectorIiSaIiEEELNS_11layout_typeE1ENS_7svectorImLm4ESaImELb1EEENS_22xtensor_expression_tagEEEE11backstridesEv = comdat any

$_ZNK2xt18xstrided_containerINS_16xarray_containerINS_7uvectorIiSaIiEEELNS_11layout_typeE1ENS_7svectorImLm4ESaImELb1EEENS_22xtensor_expression_tagEEEE16backstrides_implEv = comdat any

$_ZNK2xt10xcontainerINS_14xarray_adaptorIRSt6vectorIiSaIiEELNS_11layout_typeE1ES2_ImSaImEENS_22xtensor_expression_tagEEEE11backstridesEv = comdat any

$_ZN9__gnu_cxx17__normal_iteratorIPKiSt6vectorIiSaIiEEEmIEl = comdat any

$_ZNK2xt18xstrided_containerINS_14xarray_adaptorIRSt6vectorIiSaIiEELNS_11layout_typeE1ES2_ImSaImEENS_22xtensor_expression_tagEEEE16backstrides_implEv = comdat any

$_ZSt13__copy_move_aILb0EPKmPmET1_T0_S4_S3_ = comdat any

$_ZSt12__miter_baseIPKmET_S2_ = comdat any

$_ZSt12__niter_baseIPKmET_S2_ = comdat any

$_ZN2xt8xstepperINS_16xarray_containerINS_7uvectorIiSaIiEEELNS_11layout_typeE1ENS_7svectorImLm4ESaImELb1EEENS_22xtensor_expression_tagEEEE6to_endES5_ = comdat any

$_ZN2xt8xstepperIKNS_14xarray_adaptorIRSt6vectorIiSaIiEELNS_11layout_typeE1ES2_ImSaImEENS_22xtensor_expression_tagEEEE6to_endES6_ = comdat any

$_ZN2xt10xcontainerINS_16xarray_containerINS_7uvectorIiSaIiEEELNS_11layout_typeE1ENS_7svectorImLm4ESaImELb1EEENS_22xtensor_expression_tagEEEE9data_xendES5_m = comdat any

$_ZNK2xt10xcontainerINS_16xarray_containerINS_7uvectorIiSaIiEEELNS_11layout_typeE1ENS_7svectorImLm4ESaImELb1EEENS_22xtensor_expression_tagEEEE14data_xend_implIPiEET_SE_S5_m = comdat any

$_ZN2xt16strided_data_endINS_10xcontainerINS_16xarray_containerINS_7uvectorIiSaIiEEELNS_11layout_typeE1ENS_7svectorImLm4ESaImELb1EEENS_22xtensor_expression_tagEEEEEPimEET0_RKT_SE_S6_T1_ = comdat any

$_ZNK2xt7svectorIlLm4ESaIlELb1EE4backEv = comdat any

$_ZNK2xt7svectorIlLm4ESaIlELb1EE5frontEv = comdat any

$_ZNK2xt10xcontainerINS_14xarray_adaptorIRSt6vectorIiSaIiEELNS_11layout_typeE1ES2_ImSaImEENS_22xtensor_expression_tagEEEE9data_xendES6_m = comdat any

$_ZNK2xt10xcontainerINS_14xarray_adaptorIRSt6vectorIiSaIiEELNS_11layout_typeE1ES2_ImSaImEENS_22xtensor_expression_tagEEEE14data_xend_implIN9__gnu_cxx17__normal_iteratorIPKiS4_EEEET_SI_S6_m = comdat any

$_ZN2xt16strided_data_endINS_10xcontainerINS_14xarray_adaptorIRSt6vectorIiSaIiEELNS_11layout_typeE1ES3_ImSaImEENS_22xtensor_expression_tagEEEEEN9__gnu_cxx17__normal_iteratorIPKiS5_EEmEET0_RKT_SI_S7_T1_ = comdat any

$_ZNKSt6vectorIlSaIlEE4backEv = comdat any

$_ZNKSt6vectorIlSaIlEE5frontEv = comdat any

$_ZNKSt6vectorIlSaIlEE3endEv = comdat any

$_ZNK9__gnu_cxx17__normal_iteratorIPKlSt6vectorIlSaIlEEEmiEl = comdat any

$_ZNK9__gnu_cxx17__normal_iteratorIPKlSt6vectorIlSaIlEEEdeEv = comdat any

$_ZN9__gnu_cxx17__normal_iteratorIPKlSt6vectorIlSaIlEEEC2ERKS2_ = comdat any

$_ZNKSt6vectorIlSaIlEE5beginEv = comdat any

$_ZN2xt16xarray_containerINS_7uvectorIiSaIiEEELNS_11layout_typeE1ENS_7svectorImLm4ESaImELb1EEENS_22xtensor_expression_tagEEaSEOS9_ = comdat any

$_ZN2xt18xstrided_containerINS_16xarray_containerINS_7uvectorIiSaIiEEELNS_11layout_typeE1ENS_7svectorImLm4ESaImELb1EEENS_22xtensor_expression_tagEEEEaSEOSB_ = comdat any

$_ZN2xt19xcontainer_semanticINS_16xarray_containerINS_7uvectorIiSaIiEEELNS_11layout_typeE1ENS_7svectorImLm4ESaImELb1EEENS_22xtensor_expression_tagEEEEaSEOSB_ = comdat any

$_ZN2xt7uvectorIiSaIiEEaSEOS2_ = comdat any

$_ZN2xt14xsemantic_baseINS_16xarray_containerINS_7uvectorIiSaIiEEELNS_11layout_typeE1ENS_7svectorImLm4ESaImELb1EEENS_22xtensor_expression_tagEEEEaSEOSB_ = comdat any

$_ZN2xt20xsharable_expressionINS_16xarray_containerINS_7uvectorIiSaIiEEELNS_11layout_typeE1ENS_7svectorImLm4ESaImELb1EEENS_22xtensor_expression_tagEEEEaSEOSB_ = comdat any

$_ZNSt10shared_ptrIN2xt16xarray_containerINS0_7uvectorIiSaIiEEELNS0_11layout_typeE1ENS0_7svectorImLm4ESaImELb1EEENS0_22xtensor_expression_tagEEEEaSEOSB_ = comdat any

$_ZNSt12__shared_ptrIN2xt16xarray_containerINS0_7uvectorIiSaIiEEELNS0_11layout_typeE1ENS0_7svectorImLm4ESaImELb1EEENS0_22xtensor_expression_tagEEELN9__gnu_cxx12_Lock_policyE2EEaSEOSD_ = comdat any

$_ZNSt12__shared_ptrIN2xt16xarray_containerINS0_7uvectorIiSaIiEEELNS0_11layout_typeE1ENS0_7svectorImLm4ESaImELb1EEENS0_22xtensor_expression_tagEEELN9__gnu_cxx12_Lock_policyE2EEC2EOSD_ = comdat any

$_ZNSt12__shared_ptrIN2xt16xarray_containerINS0_7uvectorIiSaIiEEELNS0_11layout_typeE1ENS0_7svectorImLm4ESaImELb1EEENS0_22xtensor_expression_tagEEELN9__gnu_cxx12_Lock_policyE2EE4swapERSD_ = comdat any

$_ZNSt12__shared_ptrIN2xt16xarray_containerINS0_7uvectorIiSaIiEEELNS0_11layout_typeE1ENS0_7svectorImLm4ESaImELb1EEENS0_22xtensor_expression_tagEEELN9__gnu_cxx12_Lock_policyE2EED2Ev = comdat any

$_ZNSt14__shared_countILN9__gnu_cxx12_Lock_policyE2EE7_M_swapERS2_ = comdat any

$_ZSt4swapIPN2xt16xarray_containerINS0_7uvectorIiSaIiEEELNS0_11layout_typeE1ENS0_7svectorImLm4ESaImELb1EEENS0_22xtensor_expression_tagEEEENSt9enable_ifIXsr6__and_ISt6__not_ISt15__is_tuple_likeIT_EESt21is_move_constructibleISF_ESt18is_move_assignableISF_EEE5valueEvE4typeERSF_SO_ = comdat any

$_ZN2xt7uvectorIiSaIiEEC2EOS2_ = comdat any

$_ZSt4swapIPiENSt9enable_ifIXsr6__and_ISt6__not_ISt15__is_tuple_likeIT_EESt21is_move_constructibleIS4_ESt18is_move_assignableIS4_EEE5valueEvE4typeERS4_SD_ = comdat any

$_ZN2xt6detail14make_view_implIRNS_16xarray_containerINS_7uvectorIiSaIiEEELNS_11layout_typeE1ENS_7svectorImLm4ESaImELb1EEENS_22xtensor_expression_tagEEEJLm0EEJiEEEDaOT_St16integer_sequenceImJXspT0_EEEDpOT1_ = comdat any

$_ZN2xt24get_slice_implementationINS_16xarray_containerINS_7uvectorIiSaIiEEELNS_11layout_typeE1ENS_7svectorImLm4ESaImELb1EEENS_22xtensor_expression_tagEEEiEEDaRT_OT0_m = comdat any

$_ZN2xt6detail26get_underlying_shape_indexINS_16xarray_containerINS_7uvectorIiSaIiEEELNS_11layout_typeE1ENS_7svectorImLm4ESaImELb1EEENS_22xtensor_expression_tagEEEJiEEEmm = comdat any

$_ZN2xt5xviewIRNS_16xarray_containerINS_7uvectorIiSaIiEEELNS_11layout_typeE1ENS_7svectorImLm4ESaImELb1EEENS_22xtensor_expression_tagEEEJiEEC2ISB_lJEEEOT_OT0_DpOT1_ = comdat any

$_ZNK2xt6detail27slice_implementation_getterIiEclINS_16xarray_containerINS_7uvectorIiSaIiEEELNS_11layout_typeE1ENS_7svectorImLm4ESaImELb1EEENS_22xtensor_expression_tagEEEiEEDcRT_OT0_m = comdat any

$_ZNK2xt6detail27slice_implementation_getterIiE9get_sliceINS_16xarray_containerINS_7uvectorIiSaIiEEELNS_11layout_typeE1ENS_7svectorImLm4ESaImELb1EEENS_22xtensor_expression_tagEEEiEEDcRT_OT0_mSt17integral_constantIbLb1EE = comdat any

$_ZNK2xt17xconst_accessibleINS_16xarray_containerINS_7uvectorIiSaIiEEELNS_11layout_typeE1ENS_7svectorImLm4ESaImELb1EEENS_22xtensor_expression_tagEEEE5shapeEm = comdat any

$_ZNK2xt17xconst_accessibleINS_16xarray_containerINS_7uvectorIiSaIiEEELNS_11layout_typeE1ENS_7svectorImLm4ESaImELb1EEENS_22xtensor_expression_tagEEEE12derived_castEv = comdat any

$_ZN2xt20newaxis_count_beforeIJiEEEmm = comdat any

$_ZN2xt6detail18newaxis_count_implIiJvEE5countEm = comdat any

$_ZN2xt6detail18newaxis_count_implIvJEE5countEm = comdat any

$_ZN2xt5xviewIRNS_16xarray_containerINS_7uvectorIiSaIiEEELNS_11layout_typeE1ENS_7svectorImLm4ESaImELb1EEENS_22xtensor_expression_tagEEEJiEEC2ISB_lJEEESt17integral_constantIbLb1EEOT_OT0_DpOT1_ = comdat any

$_ZN2xt14xview_semanticINS_5xviewIRNS_16xarray_containerINS_7uvectorIiSaIiEEELNS_11layout_typeE1ENS_7svectorImLm4ESaImELb1EEENS_22xtensor_expression_tagEEEJiEEEEC2Ev = comdat any

$_ZNSt5tupleIJiEEC2IJlELb1ETnNSt9enable_ifIXclsr4_TCCIXT0_EEE29__is_implicitly_constructibleIDpT_EEEbE4typeELb1EEEDpOS3_ = comdat any

$_ZNK2xt5xviewIRNS_16xarray_containerINS_7uvectorIiSaIiEEELNS_11layout_typeE1ENS_7svectorImLm4ESaImELb1EEENS_22xtensor_expression_tagEEEJiEE13compute_shapeESt17integral_constantIbLb1EE = comdat any

$_ZN2xt13sequence_viewINS_7svectorIlLm4ESaIlELb1EEELl1ELln1EEC2ERKS3_ = comdat any

$_ZNK2xt5xviewIRNS_16xarray_containerINS_7uvectorIiSaIiEEELNS_11layout_typeE1ENS_7svectorImLm4ESaImELb1EEENS_22xtensor_expression_tagEEEJiEE16data_offset_implIJLm0EEEEmSt16integer_sequenceImJXspT_EEE = comdat any

$_ZN2xt14xsemantic_baseINS_5xviewIRNS_16xarray_containerINS_7uvectorIiSaIiEEELNS_11layout_typeE1ENS_7svectorImLm4ESaImELb1EEENS_22xtensor_expression_tagEEEJiEEEEC2Ev = comdat any

$_ZN2xt20xsharable_expressionINS_5xviewIRNS_16xarray_containerINS_7uvectorIiSaIiEEELNS_11layout_typeE1ENS_7svectorImLm4ESaImELb1EEENS_22xtensor_expression_tagEEEJiEEEEC2Ev = comdat any

$_ZNSt10shared_ptrIN2xt5xviewIRNS0_16xarray_containerINS0_7uvectorIiSaIiEEELNS0_11layout_typeE1ENS0_7svectorImLm4ESaImELb1EEENS0_22xtensor_expression_tagEEEJiEEEEC2EDn = comdat any

$_ZNSt10shared_ptrIN2xt5xviewIRNS0_16xarray_containerINS0_7uvectorIiSaIiEEELNS0_11layout_typeE1ENS0_7svectorImLm4ESaImELb1EEENS0_22xtensor_expression_tagEEEJiEEEEC2Ev = comdat any

$_ZNSt12__shared_ptrIN2xt5xviewIRNS0_16xarray_containerINS0_7uvectorIiSaIiEEELNS0_11layout_typeE1ENS0_7svectorImLm4ESaImELb1EEENS0_22xtensor_expression_tagEEEJiEEELN9__gnu_cxx12_Lock_policyE2EEC2Ev = comdat any

$_ZNSt11_Tuple_implILm0EJiEEC2IlEEOT_ = comdat any

$_ZNSt10_Head_baseILm0EiLb0EEC2IlEEOT_ = comdat any

$_ZN2xt13sequence_viewINS_7svectorImLm4ESaImELb1EEELl1ELln1EEC2ERKS3_ = comdat any

$_ZN2xt5valueIiiEENSt9enable_ifIXntsr9is_xsliceIT_EE5valueEmE4typeERKS2_T0_ = comdat any

$_ZSt3getILm0EJiEERKNSt13tuple_elementIXT_ESt5tupleIJDpT0_EEE4typeERKS4_ = comdat any

$_ZNSt5arrayIlLm1EEixEm = comdat any

$_ZNK2xt10xcontainerINS_16xarray_containerINS_7uvectorIiSaIiEEELNS_11layout_typeE1ENS_7svectorImLm4ESaImELb1EEENS_22xtensor_expression_tagEEEE11data_offsetEv = comdat any

$_ZSt12__get_helperILm0EiJEERKT0_RKSt11_Tuple_implIXT_EJS0_DpT1_EE = comdat any

$_ZNSt11_Tuple_implILm0EJiEE7_M_headERKS0_ = comdat any

$_ZNSt10_Head_baseILm0EiLb0EE7_M_headERKS0_ = comdat any

$_ZNSt14__array_traitsIlLm1EE6_S_refERA1_Klm = comdat any

$_ZSt13__copy_move_aILb0EPiSt20back_insert_iteratorISt6vectorIiSaIiEEEET1_T0_S7_S6_ = comdat any

$_ZSt12__miter_baseIPiET_S1_ = comdat any

$_ZSt12__niter_wrapISt20back_insert_iteratorISt6vectorIiSaIiEEEET_RKS5_S5_ = comdat any

$_ZSt14__copy_move_a1ILb0EPiSt20back_insert_iteratorISt6vectorIiSaIiEEEET1_T0_S7_S6_ = comdat any

$_ZSt12__niter_baseISt20back_insert_iteratorISt6vectorIiSaIiEEEET_S5_ = comdat any

$_ZSt14__copy_move_a2ILb0EPiSt20back_insert_iteratorISt6vectorIiSaIiEEEET1_T0_S7_S6_ = comdat any

$_ZNSt11__copy_moveILb0ELb0ESt26random_access_iterator_tagE8__copy_mIPiSt20back_insert_iteratorISt6vectorIiSaIiEEEEET0_T_SA_S9_ = comdat any

$_ZNSt20back_insert_iteratorISt6vectorIiSaIiEEEdeEv = comdat any

$_ZNSt20back_insert_iteratorISt6vectorIiSaIiEEEaSERKi = comdat any

$_ZNSt20back_insert_iteratorISt6vectorIiSaIiEEEppEv = comdat any

$_ZNSt6vectorIiSaIiEE9push_backERKi = comdat any

$_ZNSt16allocator_traitsISaIiEE9constructIiJRKiEEEvRS0_PT_DpOT0_ = comdat any

$_ZNSt6vectorIiSaIiEE17_M_realloc_insertIJRKiEEEvN9__gnu_cxx17__normal_iteratorIPiS1_EEDpOT_ = comdat any

$_ZNSt6vectorIiSaIiEE3endEv = comdat any

$_ZNSt15__new_allocatorIiE9constructIiJRKiEEEvPT_DpOT0_ = comdat any

$_ZN9__gnu_cxxmiIPiSt6vectorIiSaIiEEEENS_17__normal_iteratorIT_T0_E15difference_typeERKS8_SB_ = comdat any

$_ZNSt6vectorIiSaIiEE5beginEv = comdat any

$_ZNK9__gnu_cxx17__normal_iteratorIPiSt6vectorIiSaIiEEE4baseEv = comdat any

$_ZN9__gnu_cxx17__normal_iteratorIPiSt6vectorIiSaIiEEEC2ERKS1_ = comdat any

$_ZN3xtl3mpl9static_ifILb1EZN2xt20xcontiguous_iterableINS2_5xviewIRNS2_16xarray_containerINS2_7uvectorIiSaIiEEELNS2_11layout_typeE1ENS2_7svectorImLm4ESaImELb1EEENS2_22xtensor_expression_tagEEEJiEEEE5beginILS9_1EEENSt11conditionalIXeqT_L_ZNSH_13static_layoutEEEPiNS2_9xiteratorINS2_8xstepperISG_EEPNS2_13sequence_viewISC_Ll1ELln1EEEXT_EEEE4typeEvEUlT_E_ZNSI_ILS9_1EEEST_vEUlSU_E0_EEDcRKT0_RKT1_ = comdat any

$_ZN3xtl3mpl9static_ifIZN2xt20xcontiguous_iterableINS2_5xviewIRNS2_16xarray_containerINS2_7uvectorIiSaIiEEELNS2_11layout_typeE1ENS2_7svectorImLm4ESaImELb1EEENS2_22xtensor_expression_tagEEEJiEEEE5beginILS9_1EEENSt11conditionalIXeqT_L_ZNSH_13static_layoutEEEPiNS2_9xiteratorINS2_8xstepperISG_EEPNS2_13sequence_viewISC_Ll1ELln1EEEXT_EEEE4typeEvEUlT_E_ZNSI_ILS9_1EEEST_vEUlSU_E0_EEDcSt17integral_constantIbLb1EERKSU_RKT0_ = comdat any

$_ZZN2xt20xcontiguous_iterableINS_5xviewIRNS_16xarray_containerINS_7uvectorIiSaIiEEELNS_11layout_typeE1ENS_7svectorImLm4ESaImELb1EEENS_22xtensor_expression_tagEEEJiEEEE5beginILS6_1EEENSt11conditionalIXeqT_L_ZNSE_13static_layoutEEEPiNS_9xiteratorINS_8xstepperISD_EEPNS_13sequence_viewIS9_Ll1ELln1EEEXT_EEEE4typeEvENKUlT_E_clIN3xtl8identityEEEDaSR_ = comdat any

$_ZNK3xtl8identityclIRN2xt20xcontiguous_iterableINS2_5xviewIRNS2_16xarray_containerINS2_7uvectorIiSaIiEEELNS2_11layout_typeE1ENS2_7svectorImLm4ESaImELb1EEENS2_22xtensor_expression_tagEEEJiEEEEEEEOT_SK_ = comdat any

$_ZN2xt20xcontiguous_iterableINS_5xviewIRNS_16xarray_containerINS_7uvectorIiSaIiEEELNS_11layout_typeE1ENS_7svectorImLm4ESaImELb1EEENS_22xtensor_expression_tagEEEJiEEEE12derived_castEv = comdat any

$_ZN2xt5xviewIRNS_16xarray_containerINS_7uvectorIiSaIiEEELNS_11layout_typeE1ENS_7svectorImLm4ESaImELb1EEENS_22xtensor_expression_tagEEEJiEE13storage_beginISA_EENSt9enable_ifIXaasr18has_data_interfaceIT_EE5valueL_ZNSC_15is_strided_viewEEEPiE4typeEv = comdat any

$_ZNK2xt5xviewIRNS_16xarray_containerINS_7uvectorIiSaIiEEELNS_11layout_typeE1ENS_7svectorImLm4ESaImELb1EEENS_22xtensor_expression_tagEEEJiEE11data_offsetISA_EENSt9enable_ifIXaasr18has_data_interfaceIT_EE5valueL_ZNSC_15is_strided_viewEEEmE4typeEv = comdat any

$_ZNK2xt5xviewIRNS_16xarray_containerINS_7uvectorIiSaIiEEELNS_11layout_typeE1ENS_7svectorImLm4ESaImELb1EEENS_22xtensor_expression_tagEEEJiEE15compute_stridesESt17integral_constantIbLb1EE = comdat any

$_ZN3xtl3mpl9static_ifILb1EZN2xt20xcontiguous_iterableINS2_5xviewIRNS2_16xarray_containerINS2_7uvectorIiSaIiEEELNS2_11layout_typeE1ENS2_7svectorImLm4ESaImELb1EEENS2_22xtensor_expression_tagEEEJiEEEE3endILS9_1EEENSt11conditionalIXeqT_L_ZNSH_13static_layoutEEEPiNS2_9xiteratorINS2_8xstepperISG_EEPNS2_13sequence_viewISC_Ll1ELln1EEEXT_EEEE4typeEvEUlT_E_ZNSI_ILS9_1EEEST_vEUlSU_E0_EEDcRKT0_RKT1_ = comdat any

$_ZN3xtl3mpl9static_ifIZN2xt20xcontiguous_iterableINS2_5xviewIRNS2_16xarray_containerINS2_7uvectorIiSaIiEEELNS2_11layout_typeE1ENS2_7svectorImLm4ESaImELb1EEENS2_22xtensor_expression_tagEEEJiEEEE3endILS9_1EEENSt11conditionalIXeqT_L_ZNSH_13static_layoutEEEPiNS2_9xiteratorINS2_8xstepperISG_EEPNS2_13sequence_viewISC_Ll1ELln1EEEXT_EEEE4typeEvEUlT_E_ZNSI_ILS9_1EEEST_vEUlSU_E0_EEDcSt17integral_constantIbLb1EERKSU_RKT0_ = comdat any

$_ZZN2xt20xcontiguous_iterableINS_5xviewIRNS_16xarray_containerINS_7uvectorIiSaIiEEELNS_11layout_typeE1ENS_7svectorImLm4ESaImELb1EEENS_22xtensor_expression_tagEEEJiEEEE3endILS6_1EEENSt11conditionalIXeqT_L_ZNSE_13static_layoutEEEPiNS_9xiteratorINS_8xstepperISD_EEPNS_13sequence_viewIS9_Ll1ELln1EEEXT_EEEE4typeEvENKUlT_E_clIN3xtl8identityEEEDaSR_ = comdat any

$_ZN2xt5xviewIRNS_16xarray_containerINS_7uvectorIiSaIiEEELNS_11layout_typeE1ENS_7svectorImLm4ESaImELb1EEENS_22xtensor_expression_tagEEEJiEE11storage_endISA_EENSt9enable_ifIXaasr18has_data_interfaceIT_EE5valueL_ZNSC_15is_strided_viewEEEPiE4typeEv = comdat any

$_ZNK2xt17xconst_accessibleINS_5xviewIRNS_16xarray_containerINS_7uvectorIiSaIiEEELNS_11layout_typeE1ENS_7svectorImLm4ESaImELb1EEENS_22xtensor_expression_tagEEEJiEEEE4sizeEv = comdat any

$_ZN2xt12compute_sizeINS_13sequence_viewINS_7svectorImLm4ESaImELb1EEELl1ELln1EEEEEmRKT_ = comdat any

$_ZNK2xt17xconst_accessibleINS_5xviewIRNS_16xarray_containerINS_7uvectorIiSaIiEEELNS_11layout_typeE1ENS_7svectorImLm4ESaImELb1EEENS_22xtensor_expression_tagEEEJiEEEE12derived_castEv = comdat any

$_ZNK2xt5xviewIRNS_16xarray_containerINS_7uvectorIiSaIiEEELNS_11layout_typeE1ENS_7svectorImLm4ESaImELb1EEENS_22xtensor_expression_tagEEEJiEE5shapeEv = comdat any

$_ZN2xt6detail17compute_size_implINS_13sequence_viewINS_7svectorImLm4ESaImELb1EEELl1ELln1EEEEEmRKT_St17integral_constantIbLb0EE = comdat any

$_ZSt10accumulateIPKmmSt10multipliesImEET0_T_S5_S4_T1_ = comdat any

$_ZNK2xt13sequence_viewINS_7svectorImLm4ESaImELb1EEELl1ELln1EE6cbeginEv = comdat any

$_ZNK2xt13sequence_viewINS_7svectorImLm4ESaImELb1EEELl1ELln1EE4cendEv = comdat any

$_ZNKSt10multipliesImEclERKmS2_ = comdat any

$_ZNK2xt13sequence_viewINS_7svectorImLm4ESaImELb1EEELl1ELln1EE5beginEv = comdat any

$_ZNK2xt7svectorImLm4ESaImELb1EE5beginEv = comdat any

$_ZNK2xt13sequence_viewINS_7svectorImLm4ESaImELb1EEELl1ELln1EE3endEv = comdat any

$_ZNK2xt7svectorImLm4ESaImELb1EE3endEv = comdat any

$_ZNSt20back_insert_iteratorISt6vectorIiSaIiEEEC2ERS2_ = comdat any

$_ZNSt6vectorIN6openmc13InterpolationESaIS1_EE12emplace_backIJS1_EEERS1_DpOT_ = comdat any

$_ZNSt16allocator_traitsISaIN6openmc13InterpolationEEE9constructIS1_JS1_EEEvRS2_PT_DpOT0_ = comdat any

$_ZNSt6vectorIN6openmc13InterpolationESaIS1_EE17_M_realloc_insertIJS1_EEEvN9__gnu_cxx17__normal_iteratorIPS1_S3_EEDpOT_ = comdat any

$_ZNSt6vectorIN6openmc13InterpolationESaIS1_EE3endEv = comdat any

$_ZNSt6vectorIN6openmc13InterpolationESaIS1_EE4backEv = comdat any

$_ZNSt15__new_allocatorIN6openmc13InterpolationEE9constructIS1_JS1_EEEvPT_DpOT0_ = comdat any

$_ZNKSt6vectorIN6openmc13InterpolationESaIS1_EE12_M_check_lenEmPKc = comdat any

$_ZN9__gnu_cxxmiIPN6openmc13InterpolationESt6vectorIS2_SaIS2_EEEENS_17__normal_iteratorIT_T0_E15difference_typeERKSA_SD_ = comdat any

$_ZNSt6vectorIN6openmc13InterpolationESaIS1_EE5beginEv = comdat any

$_ZNSt12_Vector_baseIN6openmc13InterpolationESaIS1_EE11_M_allocateEm = comdat any

$_ZNSt6vectorIN6openmc13InterpolationESaIS1_EE11_S_relocateEPS1_S4_S4_RS2_ = comdat any

$_ZNK9__gnu_cxx17__normal_iteratorIPN6openmc13InterpolationESt6vectorIS2_SaIS2_EEE4baseEv = comdat any

$_ZNSt12_Vector_baseIN6openmc13InterpolationESaIS1_EE19_M_get_Tp_allocatorEv = comdat any

$_ZNSt12_Vector_baseIN6openmc13InterpolationESaIS1_EE13_M_deallocateEPS1_m = comdat any

$_ZNKSt6vectorIN6openmc13InterpolationESaIS1_EE8max_sizeEv = comdat any

$_ZNKSt6vectorIN6openmc13InterpolationESaIS1_EE4sizeEv = comdat any

$_ZNSt6vectorIN6openmc13InterpolationESaIS1_EE11_S_max_sizeERKS2_ = comdat any

$_ZNKSt12_Vector_baseIN6openmc13InterpolationESaIS1_EE19_M_get_Tp_allocatorEv = comdat any

$_ZNSt16allocator_traitsISaIN6openmc13InterpolationEEE8max_sizeERKS2_ = comdat any

$_ZNKSt15__new_allocatorIN6openmc13InterpolationEE8max_sizeEv = comdat any

$_ZNKSt15__new_allocatorIN6openmc13InterpolationEE11_M_max_sizeEv = comdat any

$_ZN9__gnu_cxx17__normal_iteratorIPN6openmc13InterpolationESt6vectorIS2_SaIS2_EEEC2ERKS3_ = comdat any

$_ZNSt16allocator_traitsISaIN6openmc13InterpolationEEE8allocateERS2_m = comdat any

$_ZNSt15__new_allocatorIN6openmc13InterpolationEE8allocateEmPKv = comdat any

$_ZSt12__relocate_aIPN6openmc13InterpolationES2_SaIS1_EET0_T_S5_S4_RT1_ = comdat any

$_ZSt14__relocate_a_1IN6openmc13InterpolationES1_ENSt9enable_ifIXsr3std24__is_bitwise_relocatableIT_EE5valueEPS3_E4typeES4_S4_S4_RSaIT0_E = comdat any

$_ZSt12__niter_baseIPN6openmc13InterpolationEET_S3_ = comdat any

$_ZNSt16allocator_traitsISaIN6openmc13InterpolationEEE10deallocateERS2_PS1_m = comdat any

$_ZNSt15__new_allocatorIN6openmc13InterpolationEE10deallocateEPS1_m = comdat any

$_ZNK9__gnu_cxx17__normal_iteratorIPN6openmc13InterpolationESt6vectorIS2_SaIS2_EEEmiEl = comdat any

$_ZNK9__gnu_cxx17__normal_iteratorIPN6openmc13InterpolationESt6vectorIS2_SaIS2_EEEdeEv = comdat any

$_ZNSt6vectorIdSaIdEE6resizeEm = comdat any

$_ZNSt6vectorImSaImEEixEm = comdat any

$_ZNSt6vectorIdSaIdEE4dataEv = comdat any

$_ZNSt6vectorIdSaIdEE17_M_default_appendEm = comdat any

$_ZNSt6vectorIdSaIdEE15_M_erase_at_endEPd = comdat any

$_ZNKSt6vectorIdSaIdEE8max_sizeEv = comdat any

$_ZSt27__uninitialized_default_n_aIPdmdET_S1_T0_RSaIT1_E = comdat any

$_ZNSt12_Vector_baseIdSaIdEE19_M_get_Tp_allocatorEv = comdat any

$_ZNKSt6vectorIdSaIdEE12_M_check_lenEmPKc = comdat any

$_ZNSt12_Vector_baseIdSaIdEE11_M_allocateEm = comdat any

$_ZNSt12_Vector_baseIdSaIdEE13_M_deallocateEPdm = comdat any

$_ZNSt6vectorIdSaIdEE11_S_relocateEPdS2_S2_RS0_ = comdat any

$_ZNSt6vectorIdSaIdEE11_S_max_sizeERKS0_ = comdat any

$_ZNKSt12_Vector_baseIdSaIdEE19_M_get_Tp_allocatorEv = comdat any

$_ZNSt16allocator_traitsISaIdEE8max_sizeERKS0_ = comdat any

$_ZNKSt15__new_allocatorIdE8max_sizeEv = comdat any

$_ZNKSt15__new_allocatorIdE11_M_max_sizeEv = comdat any

$_ZSt25__uninitialized_default_nIPdmET_S1_T0_ = comdat any

$_ZNSt27__uninitialized_default_n_1ILb1EE18__uninit_default_nIPdmEET_S3_T0_ = comdat any

$_ZSt10_ConstructIdJEEvPT_DpOT0_ = comdat any

$_ZSt6fill_nIPdmdET_S1_T0_RKT1_ = comdat any

$_ZSt10__fill_n_aIPdmdET_S1_T0_RKT1_St26random_access_iterator_tag = comdat any

$_ZSt19__iterator_categoryIPdENSt15iterator_traitsIT_E17iterator_categoryERKS2_ = comdat any

$_ZSt8__fill_aIPddEvT_S1_RKT0_ = comdat any

$_ZSt9__fill_a1IPddEN9__gnu_cxx11__enable_ifIXsr11__is_scalarIT0_EE7__valueEvE6__typeET_S6_RKS3_ = comdat any

$_ZNSt16allocator_traitsISaIdEE8allocateERS0_m = comdat any

$_ZNSt15__new_allocatorIdE8allocateEmPKv = comdat any

$_ZNSt16allocator_traitsISaIdEE10deallocateERS0_Pdm = comdat any

$_ZNSt15__new_allocatorIdE10deallocateEPdm = comdat any

$_ZSt12__relocate_aIPdS0_SaIdEET0_T_S3_S2_RT1_ = comdat any

$_ZSt14__relocate_a_1IddENSt9enable_ifIXsr3std24__is_bitwise_relocatableIT_EE5valueEPS1_E4typeES2_S2_S2_RSaIT0_E = comdat any

$_ZSt12__niter_baseIPdET_S1_ = comdat any

$_ZSt8_DestroyIPddEvT_S1_RSaIT0_E = comdat any

$_ZSt8_DestroyIPdEvT_S1_ = comdat any

$_ZNSt12_Destroy_auxILb1EE9__destroyIPdEEvT_S3_ = comdat any

$_ZNKSt6vectorIdSaIdEE11_M_data_ptrIdEEPT_S4_ = comdat any

$_ZN2xt18xstrided_containerINS_16xarray_containerINS_7uvectorIdSaIdEEELNS_11layout_typeE1ENS_7svectorImLm4ESaImELb1EEENS_22xtensor_expression_tagEEEEC2Ev = comdat any

$_ZN2xt19xcontainer_semanticINS_16xarray_containerINS_7uvectorIdSaIdEEELNS_11layout_typeE1ENS_7svectorImLm4ESaImELb1EEENS_22xtensor_expression_tagEEEEC2Ev = comdat any

$_ZNSaIdEC2Ev = comdat any

$_ZN2xt7uvectorIdSaIdEEC2EmRKdRKS1_ = comdat any

$_ZN2xt20xsharable_expressionINS_16xarray_containerINS_7uvectorIdSaIdEEELNS_11layout_typeE1ENS_7svectorImLm4ESaImELb1EEENS_22xtensor_expression_tagEEEED2Ev = comdat any

$_ZN2xt18xstrided_containerINS_16xarray_containerINS_7uvectorIdSaIdEEELNS_11layout_typeE1ENS_7svectorImLm4ESaImELb1EEENS_22xtensor_expression_tagEEEED2Ev = comdat any

$_ZNK2xt10xcontainerINS_16xarray_containerINS_7uvectorIdSaIdEEELNS_11layout_typeE1ENS_7svectorImLm4ESaImELb1EEENS_22xtensor_expression_tagEEEE9dimensionEv = comdat any

$_ZN2xt14xsemantic_baseINS_16xarray_containerINS_7uvectorIdSaIdEEELNS_11layout_typeE1ENS_7svectorImLm4ESaImELb1EEENS_22xtensor_expression_tagEEEEC2Ev = comdat any

$_ZN2xt20xsharable_expressionINS_16xarray_containerINS_7uvectorIdSaIdEEELNS_11layout_typeE1ENS_7svectorImLm4ESaImELb1EEENS_22xtensor_expression_tagEEEEC2Ev = comdat any

$_ZNSt10shared_ptrIN2xt16xarray_containerINS0_7uvectorIdSaIdEEELNS0_11layout_typeE1ENS0_7svectorImLm4ESaImELb1EEENS0_22xtensor_expression_tagEEEEC2EDn = comdat any

$_ZNSt10shared_ptrIN2xt16xarray_containerINS0_7uvectorIdSaIdEEELNS0_11layout_typeE1ENS0_7svectorImLm4ESaImELb1EEENS0_22xtensor_expression_tagEEEEC2Ev = comdat any

$_ZNSt12__shared_ptrIN2xt16xarray_containerINS0_7uvectorIdSaIdEEELNS0_11layout_typeE1ENS0_7svectorImLm4ESaImELb1EEENS0_22xtensor_expression_tagEEELN9__gnu_cxx12_Lock_policyE2EEC2Ev = comdat any

$_ZNSaIdEC2ERKS_ = comdat any

$_ZSt18uninitialized_fillIPddEvT_S1_RKT0_ = comdat any

$_ZNSt15__new_allocatorIdEC2ERKS0_ = comdat any

$_ZNSt20__uninitialized_fillILb1EE13__uninit_fillIPddEEvT_S3_RKT0_ = comdat any

$_ZSt4fillIPddEvT_S1_RKT0_ = comdat any

$_ZNSt12__shared_ptrIN2xt16xarray_containerINS0_7uvectorIdSaIdEEELNS0_11layout_typeE1ENS0_7svectorImLm4ESaImELb1EEENS0_22xtensor_expression_tagEEELN9__gnu_cxx12_Lock_policyE2EED2Ev = comdat any

$_ZN2xt18xstrided_containerINS_16xarray_containerINS_7uvectorIdSaIdEEELNS_11layout_typeE1ENS_7svectorImLm4ESaImELb1EEENS_22xtensor_expression_tagEEEE6resizeIRSt6vectorImS7_EEEvOT_b = comdat any

$_ZN2xt10xcontainerINS_16xarray_containerINS_7uvectorIdSaIdEEELNS_11layout_typeE1ENS_7svectorImLm4ESaImELb1EEENS_22xtensor_expression_tagEEEE4dataEv = comdat any

$_ZSt5equalIN9__gnu_cxx17__normal_iteratorIPmSt6vectorImSaImEEEES2_EbT_S7_T0_ = comdat any

$_ZSt3endISt6vectorImSaImEEEDTcldtfp_3endEERT_ = comdat any

$_ZN3xtl16forward_sequenceIN2xt7svectorImLm4ESaImELb1EEERSt6vectorImS3_EEEDcRNSt16remove_referenceIT0_E4typeE = comdat any

$_ZN2xt6detail21resize_data_containerINS_7uvectorIdSaIdEEEmEEvRT_T0_ = comdat any

$_ZN2xt10xcontainerINS_16xarray_containerINS_7uvectorIdSaIdEEELNS_11layout_typeE1ENS_7svectorImLm4ESaImELb1EEENS_22xtensor_expression_tagEEEE7storageEv = comdat any

$_ZSt11__equal_auxIN9__gnu_cxx17__normal_iteratorIPmSt6vectorImSaImEEEES2_EbT_S7_T0_ = comdat any

$_ZSt12__equal_aux1IPmS0_EbT_S1_T0_ = comdat any

$_ZN2xt16resize_containerINS_7uvectorIdSaIdEEEEEbRT_NS4_9size_typeE = comdat any

$_ZN2xt7uvectorIdSaIdEE6resizeEm = comdat any

$_ZN2xt7uvectorIdSaIdEE11resize_implEm = comdat any

$_ZNK2xt7uvectorIdSaIdEE4sizeEv = comdat any

$_ZN2xt6detail18safe_init_allocateISaIdEEENSt16allocator_traitsIT_E7pointerERS4_NS5_9size_typeE = comdat any

$_ZN2xt6detail23safe_destroy_deallocateISaIdEEEvRT_NSt16allocator_traitsIS3_E7pointerENS6_9size_typeE = comdat any

$_ZNR2xt10xcontainerINS_16xarray_containerINS_7uvectorIdSaIdEEELNS_11layout_typeE1ENS_7svectorImLm4ESaImELb1EEENS_22xtensor_expression_tagEEEE12derived_castEv = comdat any

$_ZN2xt16xarray_containerINS_7uvectorIdSaIdEEELNS_11layout_typeE1ENS_7svectorImLm4ESaImELb1EEENS_22xtensor_expression_tagEE12storage_implEv = comdat any

$_ZN2xt7uvectorIdSaIdEE4dataEv = comdat any

$_ZNKR2xt10xcontainerINS_16xarray_containerINS_7uvectorIdSaIdEEELNS_11layout_typeE1ENS_7svectorImLm4ESaImELb1EEENS_22xtensor_expression_tagEEEE12derived_castEv = comdat any

$_ZNK2xt18xstrided_containerINS_16xarray_containerINS_7uvectorIdSaIdEEELNS_11layout_typeE1ENS_7svectorImLm4ESaImELb1EEENS_22xtensor_expression_tagEEEE10shape_implEv = comdat any

$_ZN2xt17xtensor_containerINS_7uvectorIdSaIdEEELm1ELNS_11layout_typeE1ENS_22xtensor_expression_tagEEC2Ev = comdat any

$_ZN2xt17xtensor_containerINS_7uvectorIdSaIdEEELm1ELNS_11layout_typeE1ENS_22xtensor_expression_tagEED2Ev = comdat any

$_ZN2xt18xstrided_containerINS_17xtensor_containerINS_7uvectorIdSaIdEEELm1ELNS_11layout_typeE1ENS_22xtensor_expression_tagEEEEC2Ev = comdat any

$_ZN2xt19xcontainer_semanticINS_17xtensor_containerINS_7uvectorIdSaIdEEELm1ELNS_11layout_typeE1ENS_22xtensor_expression_tagEEEEC2Ev = comdat any

$_ZN2xt20xsharable_expressionINS_17xtensor_containerINS_7uvectorIdSaIdEEELm1ELNS_11layout_typeE1ENS_22xtensor_expression_tagEEEED2Ev = comdat any

$_ZN3xtl13make_sequenceISt5arrayImLm1EEEET_NS3_9size_typeENS3_10value_typeE = comdat any

$_ZNK2xt10xcontainerINS_17xtensor_containerINS_7uvectorIdSaIdEEELm1ELNS_11layout_typeE1ENS_22xtensor_expression_tagEEEE9dimensionEv = comdat any

$_ZN3xtl13make_sequenceISt5arrayIlLm1EEEET_NS3_9size_typeENS3_10value_typeE = comdat any

$_ZN3xtl6detail16sequence_builderISt5arrayImLm1EEE4makeEmm = comdat any

$_ZNSt5arrayImLm1EE4fillERKm = comdat any

$_ZNSt5arrayImLm1EE5beginEv = comdat any

$_ZNKSt5arrayImLm1EE4sizeEv = comdat any

$_ZNSt5arrayImLm1EE4dataEv = comdat any

$_ZNSt14__array_traitsImLm1EE6_S_ptrERA1_Km = comdat any

$_ZNK2xt10xcontainerINS_17xtensor_containerINS_7uvectorIdSaIdEEELm1ELNS_11layout_typeE1ENS_22xtensor_expression_tagEEEE5shapeEv = comdat any

$_ZNKR2xt10xcontainerINS_17xtensor_containerINS_7uvectorIdSaIdEEELm1ELNS_11layout_typeE1ENS_22xtensor_expression_tagEEEE12derived_castEv = comdat any

$_ZNK2xt18xstrided_containerINS_17xtensor_containerINS_7uvectorIdSaIdEEELm1ELNS_11layout_typeE1ENS_22xtensor_expression_tagEEEE10shape_implEv = comdat any

$_ZN3xtl6detail16sequence_builderISt5arrayIlLm1EEE4makeEml = comdat any

$_ZNSt5arrayIlLm1EE4fillERKl = comdat any

$_ZNSt5arrayIlLm1EE5beginEv = comdat any

$_ZNKSt5arrayIlLm1EE4sizeEv = comdat any

$_ZNSt5arrayIlLm1EE4dataEv = comdat any

$_ZNSt14__array_traitsIlLm1EE6_S_ptrERA1_Kl = comdat any

$_ZN2xt14xsemantic_baseINS_17xtensor_containerINS_7uvectorIdSaIdEEELm1ELNS_11layout_typeE1ENS_22xtensor_expression_tagEEEEC2Ev = comdat any

$_ZN2xt20xsharable_expressionINS_17xtensor_containerINS_7uvectorIdSaIdEEELm1ELNS_11layout_typeE1ENS_22xtensor_expression_tagEEEEC2Ev = comdat any

$_ZNSt10shared_ptrIN2xt17xtensor_containerINS0_7uvectorIdSaIdEEELm1ELNS0_11layout_typeE1ENS0_22xtensor_expression_tagEEEEC2EDn = comdat any

$_ZNSt10shared_ptrIN2xt17xtensor_containerINS0_7uvectorIdSaIdEEELm1ELNS0_11layout_typeE1ENS0_22xtensor_expression_tagEEEEC2Ev = comdat any

$_ZNSt12__shared_ptrIN2xt17xtensor_containerINS0_7uvectorIdSaIdEEELm1ELNS0_11layout_typeE1ENS0_22xtensor_expression_tagEEELN9__gnu_cxx12_Lock_policyE2EEC2Ev = comdat any

$_ZN2xt7uvectorIdSaIdEED2Ev = comdat any

$_ZN2xt6detail14make_view_implIRNS_16xarray_containerINS_7uvectorIdSaIdEEELNS_11layout_typeE1ENS_7svectorImLm4ESaImELb1EEENS_22xtensor_expression_tagEEEJLm0ELm1EEJiNS_14xrange_adaptorIllNS_12placeholders5xtuphEEEEEEDaOT_St16integer_sequenceImJXspT0_EEEDpOT1_ = comdat any

$_ZN2xt24get_slice_implementationINS_16xarray_containerINS_7uvectorIdSaIdEEELNS_11layout_typeE1ENS_7svectorImLm4ESaImELb1EEENS_22xtensor_expression_tagEEEiEEDaRT_OT0_m = comdat any

$_ZN2xt6detail26get_underlying_shape_indexINS_16xarray_containerINS_7uvectorIdSaIdEEELNS_11layout_typeE1ENS_7svectorImLm4ESaImELb1EEENS_22xtensor_expression_tagEEEJiNS_14xrange_adaptorIllNS_12placeholders5xtuphEEEEEEmm = comdat any

$_ZN2xt24get_slice_implementationINS_16xarray_containerINS_7uvectorIdSaIdEEELNS_11layout_typeE1ENS_7svectorImLm4ESaImELb1EEENS_22xtensor_expression_tagEEENS_14xrange_adaptorIllNS_12placeholders5xtuphEEEEEDaRT_OT0_m = comdat any

$_ZN2xt5xviewIRNS_16xarray_containerINS_7uvectorIdSaIdEEELNS_11layout_typeE1ENS_7svectorImLm4ESaImELb1EEENS_22xtensor_expression_tagEEEJiNS_6xrangeIlEEEEC2ISB_lJSD_EEEOT_OT0_DpOT1_ = comdat any

$_ZNK2xt6detail27slice_implementation_getterIiEclINS_16xarray_containerINS_7uvectorIdSaIdEEELNS_11layout_typeE1ENS_7svectorImLm4ESaImELb1EEENS_22xtensor_expression_tagEEEiEEDcRT_OT0_m = comdat any

$_ZNK2xt6detail27slice_implementation_getterIiE9get_sliceINS_16xarray_containerINS_7uvectorIdSaIdEEELNS_11layout_typeE1ENS_7svectorImLm4ESaImELb1EEENS_22xtensor_expression_tagEEEiEEDcRT_OT0_mSt17integral_constantIbLb1EE = comdat any

$_ZNK2xt17xconst_accessibleINS_16xarray_containerINS_7uvectorIdSaIdEEELNS_11layout_typeE1ENS_7svectorImLm4ESaImELb1EEENS_22xtensor_expression_tagEEEE5shapeEm = comdat any

$_ZNK2xt17xconst_accessibleINS_16xarray_containerINS_7uvectorIdSaIdEEELNS_11layout_typeE1ENS_7svectorImLm4ESaImELb1EEENS_22xtensor_expression_tagEEEE12derived_castEv = comdat any

$_ZN2xt20newaxis_count_beforeIJiNS_6xrangeIlEEEEEmm = comdat any

$_ZN2xt6detail18newaxis_count_implIiJNS_6xrangeIlEEvEE5countEm = comdat any

$_ZN2xt6detail18newaxis_count_implINS_6xrangeIlEEJvEE5countEm = comdat any

$_ZNK2xt6detail27slice_implementation_getterINS_14xrange_adaptorIllNS_12placeholders5xtuphEEEEclINS_16xarray_containerINS_7uvectorIdSaIdEEELNS_11layout_typeE1ENS_7svectorImLm4ESaImELb1EEENS_22xtensor_expression_tagEEES5_EEDaRT_OT0_m = comdat any

$_ZNK2xt14xrange_adaptorIllNS_12placeholders5xtuphEE3getIllS2_EENSt9enable_ifIXaaaasr3xtl11is_integralIT_EE5valuesr3xtl11is_integralIT0_EE5valuentsr3xtl11is_integralIT1_EE5valueENS_6xrangeIlEEE4typeEm = comdat any

$_ZN2xt14xrange_adaptorIllNS_12placeholders5xtuphEE9normalizeElm = comdat any

$_ZN2xt6xrangeIlEC2Ell = comdat any

$_ZSt3maxIlERKT_S2_S2_ = comdat any

$_ZSt3minIlERKT_S2_S2_ = comdat any

$_ZN2xt5xviewIRNS_16xarray_containerINS_7uvectorIdSaIdEEELNS_11layout_typeE1ENS_7svectorImLm4ESaImELb1EEENS_22xtensor_expression_tagEEEJiNS_6xrangeIlEEEEC2ISB_lJSD_EEESt17integral_constantIbLb0EEOT_OT0_DpOT1_ = comdat any

$_ZN2xt14xview_semanticINS_5xviewIRNS_16xarray_containerINS_7uvectorIdSaIdEEELNS_11layout_typeE1ENS_7svectorImLm4ESaImELb1EEENS_22xtensor_expression_tagEEEJiNS_6xrangeIlEEEEEEC2Ev = comdat any

$_ZNSt5tupleIJiN2xt6xrangeIlEEEEC2IlS2_TnNSt9enable_ifIXclsr4_TCCIXntcl14__is_alloc_argIT_EEEEE29__is_implicitly_constructibleIS6_T0_EEEbE4typeELb1EEEOS6_OS7_ = comdat any

$_ZNK2xt5xviewIRNS_16xarray_containerINS_7uvectorIdSaIdEEELNS_11layout_typeE1ENS_7svectorImLm4ESaImELb1EEENS_22xtensor_expression_tagEEEJiNS_6xrangeIlEEEE13compute_shapeESt17integral_constantIbLb0EE = comdat any

$_ZN2xt14xsemantic_baseINS_5xviewIRNS_16xarray_containerINS_7uvectorIdSaIdEEELNS_11layout_typeE1ENS_7svectorImLm4ESaImELb1EEENS_22xtensor_expression_tagEEEJiNS_6xrangeIlEEEEEEC2Ev = comdat any

$_ZN2xt20xsharable_expressionINS_5xviewIRNS_16xarray_containerINS_7uvectorIdSaIdEEELNS_11layout_typeE1ENS_7svectorImLm4ESaImELb1EEENS_22xtensor_expression_tagEEEJiNS_6xrangeIlEEEEEEC2Ev = comdat any

$_ZNSt10shared_ptrIN2xt5xviewIRNS0_16xarray_containerINS0_7uvectorIdSaIdEEELNS0_11layout_typeE1ENS0_7svectorImLm4ESaImELb1EEENS0_22xtensor_expression_tagEEEJiNS0_6xrangeIlEEEEEEC2EDn = comdat any

$_ZNSt10shared_ptrIN2xt5xviewIRNS0_16xarray_containerINS0_7uvectorIdSaIdEEELNS0_11layout_typeE1ENS0_7svectorImLm4ESaImELb1EEENS0_22xtensor_expression_tagEEEJiNS0_6xrangeIlEEEEEEC2Ev = comdat any

$_ZNSt12__shared_ptrIN2xt5xviewIRNS0_16xarray_containerINS0_7uvectorIdSaIdEEELNS0_11layout_typeE1ENS0_7svectorImLm4ESaImELb1EEENS0_22xtensor_expression_tagEEEJiNS0_6xrangeIlEEEEELN9__gnu_cxx12_Lock_policyE2EEC2Ev = comdat any

$_ZNSt11_Tuple_implILm0EJiN2xt6xrangeIlEEEEC2IlJS2_EvEEOT_DpOT0_ = comdat any

$_ZNSt11_Tuple_implILm1EJN2xt6xrangeIlEEEEC2IS2_EEOT_ = comdat any

$_ZNSt10_Head_baseILm1EN2xt6xrangeIlEELb0EEC2IS2_EEOT_ = comdat any

$_ZN2xt14integral_countIJiNS_6xrangeIlEEEEEmv = comdat any

$_ZN2xt13newaxis_countIJiNS_6xrangeIlEEEEEmv = comdat any

$_ZN2xt13integral_skipIJiNS_6xrangeIlEEEEEmm = comdat any

$_ZN2xt5applyImRZNKS_5xviewIRNS_16xarray_containerINS_7uvectorIdSaIdEEELNS_11layout_typeE1ENS_7svectorImLm4ESaImELb1EEENS_22xtensor_expression_tagEEEJiNS_6xrangeIlEEEE13compute_shapeESt17integral_constantIbLb0EEEUlRKT_E_JiSE_EEESI_mOT0_RKSt5tupleIJDpT1_EE = comdat any

$_ZN2xt6detail19integral_count_implIiJNS_6xrangeIlEEvEE5countEm = comdat any

$_ZN2xt6detail19integral_count_implINS_6xrangeIlEEJvEE5countEm = comdat any

$_ZN2xt6detail19integral_count_implIvJEE5countEm = comdat any

$_ZN2xt6detail18integral_skip_implIiJNS_6xrangeIlEEvEE5countEm = comdat any

$_ZN2xt6detail18integral_skip_implIiJNS_6xrangeIlEEvEE10count_implEv = comdat any

$_ZN2xt6detail18integral_skip_implIiJNS_6xrangeIlEEvEE10count_implEm = comdat any

$_ZN2xt6detail18integral_skip_implINS_6xrangeIlEEJvEE5countEm = comdat any

$_ZN2xt6detail18integral_skip_implINS_6xrangeIlEEJvEE10count_implEv = comdat any

$_ZN2xt6detail18integral_skip_implINS_6xrangeIlEEJvEE10count_implEm = comdat any

$_ZN2xt6detail18integral_skip_implIvJEE5countEm = comdat any

$_ZN2xt6detail5applyImRZNKS_5xviewIRNS_16xarray_containerINS_7uvectorIdSaIdEEELNS_11layout_typeE1ENS_7svectorImLm4ESaImELb1EEENS_22xtensor_expression_tagEEEJiNS_6xrangeIlEEEE13compute_shapeESt17integral_constantIbLb0EEEUlRKT_E_JLm0ELm1EEJiSF_EEESJ_mOT0_St16integer_sequenceImJXspT1_EEERKSt5tupleIJDpT2_EE = comdat any

$_ZN2xt6detail9apply_oneImRZNKS_5xviewIRNS_16xarray_containerINS_7uvectorIdSaIdEEELNS_11layout_typeE1ENS_7svectorImLm4ESaImELb1EEENS_22xtensor_expression_tagEEEJiNS_6xrangeIlEEEE13compute_shapeESt17integral_constantIbLb0EEEUlRKT_E_Lm0EJiSF_EEESJ_OT0_RKSt5tupleIJDpT2_EE = comdat any

$_ZN2xt6detail9apply_oneImRZNKS_5xviewIRNS_16xarray_containerINS_7uvectorIdSaIdEEELNS_11layout_typeE1ENS_7svectorImLm4ESaImELb1EEENS_22xtensor_expression_tagEEEJiNS_6xrangeIlEEEE13compute_shapeESt17integral_constantIbLb0EEEUlRKT_E_Lm1EJiSF_EEESJ_OT0_RKSt5tupleIJDpT2_EE = comdat any

$_ZNKSt5arrayIPFmRZNK2xt5xviewIRNS0_16xarray_containerINS0_7uvectorIdSaIdEEELNS0_11layout_typeE1ENS0_7svectorImLm4ESaImELb1EEENS0_22xtensor_expression_tagEEEJiNS0_6xrangeIlEEEE13compute_shapeESt17integral_constantIbLb0EEEUlRKT_E_RKSt5tupleIJiSE_EEELm2EEixEm = comdat any

$_ZZNK2xt5xviewIRNS_16xarray_containerINS_7uvectorIdSaIdEEELNS_11layout_typeE1ENS_7svectorImLm4ESaImELb1EEENS_22xtensor_expression_tagEEEJiNS_6xrangeIlEEEE13compute_shapeESt17integral_constantIbLb0EEENKUlRKT_E_clIiEEDaSJ_ = comdat any

$_ZSt3getILm0EJiN2xt6xrangeIlEEEERKNSt13tuple_elementIXT_ESt5tupleIJDpT0_EEE4typeERKS7_ = comdat any

$_ZN2xt8get_sizeIiEENSt9enable_ifIXntsr9is_xsliceIT_EE5valueEmE4typeERKS2_ = comdat any

$_ZSt12__get_helperILm0EiJN2xt6xrangeIlEEEERKT0_RKSt11_Tuple_implIXT_EJS3_DpT1_EE = comdat any

$_ZNSt11_Tuple_implILm0EJiN2xt6xrangeIlEEEE7_M_headERKS3_ = comdat any

$_ZZNK2xt5xviewIRNS_16xarray_containerINS_7uvectorIdSaIdEEELNS_11layout_typeE1ENS_7svectorImLm4ESaImELb1EEENS_22xtensor_expression_tagEEEJiNS_6xrangeIlEEEE13compute_shapeESt17integral_constantIbLb0EEENKUlRKT_E_clISD_EEDaSJ_ = comdat any

$_ZSt3getILm1EJiN2xt6xrangeIlEEEERKNSt13tuple_elementIXT_ESt5tupleIJDpT0_EEE4typeERKS7_ = comdat any

$_ZN2xt8get_sizeINS_6xrangeIlEEEEDaRKNS_6xsliceIT_EE = comdat any

$_ZNK2xt6xsliceINS_6xrangeIlEEE12derived_castEv = comdat any

$_ZNK2xt6xrangeIlE4sizeEv = comdat any

$_ZSt12__get_helperILm1EN2xt6xrangeIlEEJEERKT0_RKSt11_Tuple_implIXT_EJS3_DpT1_EE = comdat any

$_ZNSt11_Tuple_implILm1EJN2xt6xrangeIlEEEE7_M_headERKS3_ = comdat any

$_ZNSt10_Head_baseILm1EN2xt6xrangeIlEELb0EE7_M_headERKS3_ = comdat any

$_ZNSt14__array_traitsIPFmRZNK2xt5xviewIRNS0_16xarray_containerINS0_7uvectorIdSaIdEEELNS0_11layout_typeE1ENS0_7svectorImLm4ESaImELb1EEENS0_22xtensor_expression_tagEEEJiNS0_6xrangeIlEEEE13compute_shapeESt17integral_constantIbLb0EEEUlRKT_E_RKSt5tupleIJiSE_EEELm2EE6_S_refERA2_KSS_m = comdat any

$_ZN2xt6detail15cast_if_integerIivEclEi = comdat any

$_ZN2xt14xrange_adaptorIllNS_12placeholders5xtuphEEC2EllS2_ = comdat any

$_ZN2xt19xcontainer_semanticINS_17xtensor_containerINS_7uvectorIdSaIdEEELm1ELNS_11layout_typeE1ENS_22xtensor_expression_tagEEEEaSINS_5xviewIRNS_16xarray_containerIS4_LS5_1ENS_7svectorImLm4ESaImELb1EEES6_EEJiNS_6xrangeIlEEEEEEERS7_RKNS_11xexpressionIT_EE = comdat any

$_ZN2xt14xsemantic_baseINS_17xtensor_containerINS_7uvectorIdSaIdEEELm1ELNS_11layout_typeE1ENS_22xtensor_expression_tagEEEEaSINS_5xviewIRNS_16xarray_containerIS4_LS5_1ENS_7svectorImLm4ESaImELb1EEES6_EEJiNS_6xrangeIlEEEEEEERS7_RKNS_11xexpressionIT_EE = comdat any

$_ZN2xt17xtensor_containerINS_7uvectorIdSaIdEEELm1ELNS_11layout_typeE1ENS_22xtensor_expression_tagEEC2INS_5xviewIRNS_16xarray_containerIS3_LS4_1ENS_7svectorImLm4ESaImELb1EEES5_EEJiNS_6xrangeIlEEEEEEERKNS_11xexpressionIT_EE = comdat any

$_ZNR2xt11xexpressionINS_17xtensor_containerINS_7uvectorIdSaIdEEELm1ELNS_11layout_typeE1ENS_22xtensor_expression_tagEEEE12derived_castEv = comdat any

$_ZN2xt19xcontainer_semanticINS_17xtensor_containerINS_7uvectorIdSaIdEEELm1ELNS_11layout_typeE1ENS_22xtensor_expression_tagEEEE16assign_temporaryEOS7_ = comdat any

$_ZN2xt7uvectorIdSaIdEEC2Ev = comdat any

$_ZNKR2xt11xexpressionINS_5xviewIRNS_16xarray_containerINS_7uvectorIdSaIdEEELNS_11layout_typeE1ENS_7svectorImLm4ESaImELb1EEENS_22xtensor_expression_tagEEEJiNS_6xrangeIlEEEEEE12derived_castEv = comdat any

$_ZNK2xt17xconst_accessibleINS_5xviewIRNS_16xarray_containerINS_7uvectorIdSaIdEEELNS_11layout_typeE1ENS_7svectorImLm4ESaImELb1EEENS_22xtensor_expression_tagEEEJiNS_6xrangeIlEEEEEE9dimensionEv = comdat any

$_ZN2xt14xsemantic_baseINS_17xtensor_containerINS_7uvectorIdSaIdEEELm1ELNS_11layout_typeE1ENS_22xtensor_expression_tagEEEE6assignINS_5xviewIRNS_16xarray_containerIS4_LS5_1ENS_7svectorImLm4ESaImELb1EEES6_EEJiNS_6xrangeIlEEEEEEERS7_RKNS_11xexpressionIT_EE = comdat any

$_ZN2xt7uvectorIdSaIdEEC2ERKS1_ = comdat any

$_ZNK2xt17xconst_accessibleINS_5xviewIRNS_16xarray_containerINS_7uvectorIdSaIdEEELNS_11layout_typeE1ENS_7svectorImLm4ESaImELb1EEENS_22xtensor_expression_tagEEEJiNS_6xrangeIlEEEEEE12derived_castEv = comdat any

$_ZNK2xt5xviewIRNS_16xarray_containerINS_7uvectorIdSaIdEEELNS_11layout_typeE1ENS_7svectorImLm4ESaImELb1EEENS_22xtensor_expression_tagEEEJiNS_6xrangeIlEEEE5shapeEv = comdat any

$_ZN2xt19xcontainer_semanticINS_17xtensor_containerINS_7uvectorIdSaIdEEELm1ELNS_11layout_typeE1ENS_22xtensor_expression_tagEEEE18assign_xexpressionINS_5xviewIRNS_16xarray_containerIS4_LS5_1ENS_7svectorImLm4ESaImELb1EEES6_EEJiNS_6xrangeIlEEEEEEERS7_RKNS_11xexpressionIT_EE = comdat any

$_ZN2xt18assign_xexpressionINS_17xtensor_containerINS_7uvectorIdSaIdEEELm1ELNS_11layout_typeE1ENS_22xtensor_expression_tagEEENS_5xviewIRNS_16xarray_containerIS4_LS5_1ENS_7svectorImLm4ESaImELb1EEES6_EEJiNS_6xrangeIlEEEEEEEvRNS_11xexpressionIT_EERKNSI_IT0_EE = comdat any

$_ZN3xtl3mpl9static_ifILb0EZN2xt18assign_xexpressionINS2_17xtensor_containerINS2_7uvectorIdSaIdEEELm1ELNS2_11layout_typeE1ENS2_22xtensor_expression_tagEEENS2_5xviewIRNS2_16xarray_containerIS7_LS8_1ENS2_7svectorImLm4ESaImELb1EEES9_EEJiNS2_6xrangeIlEEEEEEEvRNS2_11xexpressionIT_EERKNSL_IT0_EEEUlSM_E_ZNS3_ISA_SK_EEvSO_SS_EUlSM_E0_EEDcRKSP_RKT1_ = comdat any

$_ZN3xtl3mpl9static_ifIZN2xt18assign_xexpressionINS2_17xtensor_containerINS2_7uvectorIdSaIdEEELm1ELNS2_11layout_typeE1ENS2_22xtensor_expression_tagEEENS2_5xviewIRNS2_16xarray_containerIS7_LS8_1ENS2_7svectorImLm4ESaImELb1EEES9_EEJiNS2_6xrangeIlEEEEEEEvRNS2_11xexpressionIT_EERKNSL_IT0_EEEUlSM_E_ZNS3_ISA_SK_EEvSO_SS_EUlSM_E0_EEDcSt17integral_constantIbLb0EERKSM_RKSP_ = comdat any

$_ZZN2xt18assign_xexpressionINS_17xtensor_containerINS_7uvectorIdSaIdEEELm1ELNS_11layout_typeE1ENS_22xtensor_expression_tagEEENS_5xviewIRNS_16xarray_containerIS4_LS5_1ENS_7svectorImLm4ESaImELb1EEES6_EEJiNS_6xrangeIlEEEEEEEvRNS_11xexpressionIT_EERKNSI_IT0_EEENKUlSJ_E0_clIN3xtl8identityEEEDaSJ_ = comdat any

$_ZN2xt20xexpression_assignerINS_22xtensor_expression_tagEE18assign_xexpressionINS_11xexpressionINS_17xtensor_containerINS_7uvectorIdSaIdEEELm1ELNS_11layout_typeE1ES1_EEEENS4_INS_5xviewIRNS_16xarray_containerIS8_LS9_1ENS_7svectorImLm4ESaImELb1EEES1_EEJiNS_6xrangeIlEEEEEEEEEvRT_RKT0_ = comdat any

$_ZN2xt20xexpression_assignerINS_22xtensor_expression_tagEE6resizeINS_17xtensor_containerINS_7uvectorIdSaIdEEELm1ELNS_11layout_typeE1ES1_EENS_5xviewIRNS_16xarray_containerIS7_LS8_1ENS_7svectorImLm4ESaImELb1EEES1_EEJiNS_6xrangeIlEEEEEEEbRT_RKT0_ = comdat any

$_ZN2xt25xexpression_assigner_baseINS_22xtensor_expression_tagEE11assign_dataINS_17xtensor_containerINS_7uvectorIdSaIdEEELm1ELNS_11layout_typeE1ES1_EENS_5xviewIRNS_16xarray_containerIS7_LS8_1ENS_7svectorImLm4ESaImELb1EEES1_EEJiNS_6xrangeIlEEEEEEEvRNS_11xexpressionIT_EERKNSK_IT0_EEb = comdat any

$_ZN2xt18xstrided_containerINS_17xtensor_containerINS_7uvectorIdSaIdEEELm1ELNS_11layout_typeE1ENS_22xtensor_expression_tagEEEE6resizeIRKNS_7svectorImLm4ESaImELb1EEEEEvOT_b = comdat any

$_ZSt5equalIPKmPmEbT_S3_T0_ = comdat any

$_ZSt5beginIN2xt7svectorImLm4ESaImELb1EEEEDTcldtfp_5beginEERKT_ = comdat any

$_ZSt3endIN2xt7svectorImLm4ESaImELb1EEEEDTcldtfp_3endEERKT_ = comdat any

$_ZSt5beginISt5arrayImLm1EEEDTcldtfp_5beginEERT_ = comdat any

$_ZN3xtl16forward_sequenceISt5arrayImLm1EERKN2xt7svectorImLm4ESaImELb1EEEEEDcRNSt16remove_referenceIT0_E4typeE = comdat any

$_ZN2xt16resize_containerIlLm1EEEbRSt5arrayIT_XT0_EENS3_9size_typeE = comdat any

$_ZN2xt15compute_stridesILNS_11layout_typeE1ESt5arrayImLm1EES2_IlLm1EES4_EEmRKT0_S1_RT1_RT2_ = comdat any

$_ZN2xt10xcontainerINS_17xtensor_containerINS_7uvectorIdSaIdEEELm1ELNS_11layout_typeE1ENS_22xtensor_expression_tagEEEE7storageEv = comdat any

$_ZSt11__equal_auxIPKmPmEbT_S3_T0_ = comdat any

$_ZN3xtl6detail23sequence_forwarder_implISt5arrayImLm1EEN2xt7svectorImLm4ESaImELb1EEEvE7forwardIS7_EES3_RKT_ = comdat any

$_ZN2xt6detail15compute_stridesILNS_11layout_typeE1ESt5arrayImLm1EES3_IlLm1EEPS5_EEmRKT0_S2_RT1_T2_ = comdat any

$_ZNKSt5arrayImLm1EEixEm = comdat any

$_ZN2xt6detail13adapt_stridesISt5arrayImLm1EES2_IlLm1EEPS4_EEvRKT_RT0_T1_NS9_9size_typeE = comdat any

$_ZNSt14__array_traitsImLm1EE6_S_refERA1_Kmm = comdat any

$_ZNR2xt10xcontainerINS_17xtensor_containerINS_7uvectorIdSaIdEEELm1ELNS_11layout_typeE1ENS_22xtensor_expression_tagEEEE12derived_castEv = comdat any

$_ZN2xt17xtensor_containerINS_7uvectorIdSaIdEEELm1ELNS_11layout_typeE1ENS_22xtensor_expression_tagEE12storage_implEv = comdat any

$_ZN2xt14xassign_traitsINS_17xtensor_containerINS_7uvectorIdSaIdEEELm1ELNS_11layout_typeE1ENS_22xtensor_expression_tagEEENS_5xviewIRNS_16xarray_containerIS4_LS5_1ENS_7svectorImLm4ESaImELb1EEES6_EEJiNS_6xrangeIlEEEEEE13linear_assignERKS7_RKSH_b = comdat any

$_ZN2xt14xassign_traitsINS_17xtensor_containerINS_7uvectorIdSaIdEEELm1ELNS_11layout_typeE1ENS_22xtensor_expression_tagEEENS_5xviewIRNS_16xarray_containerIS4_LS5_1ENS_7svectorImLm4ESaImELb1EEES6_EEJiNS_6xrangeIlEEEEEE18simd_linear_assignERKS7_RKSH_ = comdat any

$_ZN2xt15linear_assignerILb0EE3runINS_17xtensor_containerINS_7uvectorIdSaIdEEELm1ELNS_11layout_typeE1ENS_22xtensor_expression_tagEEENS_5xviewIRNS_16xarray_containerIS6_LS7_1ENS_7svectorImLm4ESaImELb1EEES8_EEJiNS_6xrangeIlEEEEEEEvRT_RKT0_ = comdat any

$_ZN2xt16stepper_assignerINS_17xtensor_containerINS_7uvectorIdSaIdEEELm1ELNS_11layout_typeE1ENS_22xtensor_expression_tagEEENS_5xviewIRNS_16xarray_containerIS4_LS5_1ENS_7svectorImLm4ESaImELb1EEES6_EEJiNS_6xrangeIlEEEEELS5_1EEC2ERS7_RKSH_ = comdat any

$_ZN2xt16stepper_assignerINS_17xtensor_containerINS_7uvectorIdSaIdEEELm1ELNS_11layout_typeE1ENS_22xtensor_expression_tagEEENS_5xviewIRNS_16xarray_containerIS4_LS5_1ENS_7svectorImLm4ESaImELb1EEES6_EEJiNS_6xrangeIlEEEEELS5_1EE3runEv = comdat any

$_ZN2xt6detail16is_linear_assignINS_17xtensor_containerINS_7uvectorIdSaIdEEELm1ELNS_11layout_typeE1ENS_22xtensor_expression_tagEEENS_5xviewIRNS_16xarray_containerIS5_LS6_1ENS_7svectorImLm4ESaImELb1EEES7_EEJiNS_6xrangeIlEEEEEEENSt9enable_ifIXsr11has_stridesIT_EE5valueEbE4typeERKSK_RKT0_ = comdat any

$_ZN2xt15linear_assignerILb0EE8run_implINS_17xtensor_containerINS_7uvectorIdSaIdEEELm1ELNS_11layout_typeE1ENS_22xtensor_expression_tagEEENS_5xviewIRNS_16xarray_containerIS6_LS7_1ENS_7svectorImLm4ESaImELb1EEES8_EEJiNS_6xrangeIlEEEEEEEvRT_RKT0_St17integral_constantIbLb1EE = comdat any

$_ZN2xt12linear_beginINS_5xviewIRNS_16xarray_containerINS_7uvectorIdSaIdEEELNS_11layout_typeE1ENS_7svectorImLm4ESaImELb1EEENS_22xtensor_expression_tagEEEJiNS_6xrangeIlEEEEEEEDaRKT_ = comdat any

$_ZN2xt12linear_beginINS_17xtensor_containerINS_7uvectorIdSaIdEEELm1ELNS_11layout_typeE1ENS_22xtensor_expression_tagEEEEEDaRT_ = comdat any

$_ZNK2xt10xcontainerINS_17xtensor_containerINS_7uvectorIdSaIdEEELm1ELNS_11layout_typeE1ENS_22xtensor_expression_tagEEEE4sizeEv = comdat any

$_ZN3xtl3mpl9static_ifILb1EZN2xt12linear_beginINS2_5xviewIRNS2_16xarray_containerINS2_7uvectorIdSaIdEEELNS2_11layout_typeE1ENS2_7svectorImLm4ESaImELb1EEENS2_22xtensor_expression_tagEEEJiNS2_6xrangeIlEEEEEEEDaRKT_EUlSJ_E_ZNS3_ISI_EEDaSL_EUlSJ_E0_EEDcRKT0_RKT1_ = comdat any

$_ZN3xtl3mpl9static_ifIZN2xt12linear_beginINS2_5xviewIRNS2_16xarray_containerINS2_7uvectorIdSaIdEEELNS2_11layout_typeE1ENS2_7svectorImLm4ESaImELb1EEENS2_22xtensor_expression_tagEEEJiNS2_6xrangeIlEEEEEEEDaRKT_EUlSJ_E_ZNS3_ISI_EEDaSL_EUlSJ_E0_EEDcSt17integral_constantIbLb1EESL_RKT0_ = comdat any

$_ZZN2xt12linear_beginINS_5xviewIRNS_16xarray_containerINS_7uvectorIdSaIdEEELNS_11layout_typeE1ENS_7svectorImLm4ESaImELb1EEENS_22xtensor_expression_tagEEEJiNS_6xrangeIlEEEEEEEDaRKT_ENKUlSG_E_clIN3xtl8identityEEEDaSG_ = comdat any

$_ZNK3xtl8identityclIRKN2xt5xviewIRNS2_16xarray_containerINS2_7uvectorIdSaIdEEELNS2_11layout_typeE1ENS2_7svectorImLm4ESaImELb1EEENS2_22xtensor_expression_tagEEEJiNS2_6xrangeIlEEEEEEEOT_SL_ = comdat any

$_ZNK2xt5xviewIRNS_16xarray_containerINS_7uvectorIdSaIdEEELNS_11layout_typeE1ENS_7svectorImLm4ESaImELb1EEENS_22xtensor_expression_tagEEEJiNS_6xrangeIlEEEE14storage_cbeginISA_EENSt9enable_ifIXaasr18has_data_interfaceIT_EE5valueL_ZNSE_15is_strided_viewEEEPKdE4typeEv = comdat any

$_ZNK2xt7uvectorIdSaIdEE6cbeginEv = comdat any

$_ZNK2xt5xviewIRNS_16xarray_containerINS_7uvectorIdSaIdEEELNS_11layout_typeE1ENS_7svectorImLm4ESaImELb1EEENS_22xtensor_expression_tagEEEJiNS_6xrangeIlEEEE11data_offsetISA_EENSt9enable_ifIXaasr18has_data_interfaceIT_EE5valueL_ZNSE_15is_strided_viewEEEmE4typeEv = comdat any

$_ZNK2xt7uvectorIdSaIdEE5beginEv = comdat any

$_ZNK2xt5xviewIRNS_16xarray_containerINS_7uvectorIdSaIdEEELNS_11layout_typeE1ENS_7svectorImLm4ESaImELb1EEENS_22xtensor_expression_tagEEEJiNS_6xrangeIlEEEE15compute_stridesESt17integral_constantIbLb0EE = comdat any

$_ZNK2xt5xviewIRNS_16xarray_containerINS_7uvectorIdSaIdEEELNS_11layout_typeE1ENS_7svectorImLm4ESaImELb1EEENS_22xtensor_expression_tagEEEJiNS_6xrangeIlEEEE20compute_strides_implIJLm0EEEEDaSt16integer_sequenceImJXspT_EEE = comdat any

$_ZNK2xt10xcontainerINS_16xarray_containerINS_7uvectorIdSaIdEEELNS_11layout_typeE1ENS_7svectorImLm4ESaImELb1EEENS_22xtensor_expression_tagEEEE7stridesEv = comdat any

$_ZNK2xt5xviewIRNS_16xarray_containerINS_7uvectorIdSaIdEEELNS_11layout_typeE1ENS_7svectorImLm4ESaImELb1EEENS_22xtensor_expression_tagEEEJiNS_6xrangeIlEEEE16data_offset_implIJLm0ELm1EEEEmSt16integer_sequenceImJXspT_EEE = comdat any

$_ZN2xt9step_sizeINS_6xrangeIlEEEEDaRKNS_6xsliceIT_EEm = comdat any

$_ZNK2xt6xrangeIlE9step_sizeEmm = comdat any

$_ZNK2xt18xstrided_containerINS_16xarray_containerINS_7uvectorIdSaIdEEELNS_11layout_typeE1ENS_7svectorImLm4ESaImELb1EEENS_22xtensor_expression_tagEEEE12strides_implEv = comdat any

$_ZN2xt5valueINS_6xrangeIlEEiEEDaRKNS_6xsliceIT_EET0_ = comdat any

$_ZNSt5arrayIlLm2EEixEm = comdat any

$_ZNK2xt10xcontainerINS_16xarray_containerINS_7uvectorIdSaIdEEELNS_11layout_typeE1ENS_7svectorImLm4ESaImELb1EEENS_22xtensor_expression_tagEEEE11data_offsetEv = comdat any

$_ZNK2xt6xrangeIlEclEl = comdat any

$_ZNSt14__array_traitsIlLm2EE6_S_refERA2_Klm = comdat any

$_ZN3xtl3mpl9static_ifILb1EZN2xt12linear_beginINS2_17xtensor_containerINS2_7uvectorIdSaIdEEELm1ELNS2_11layout_typeE1ENS2_22xtensor_expression_tagEEEEEDaRT_EUlSB_E_ZNS3_ISA_EEDaSC_EUlSB_E0_EEDcRKT0_RKT1_ = comdat any

$_ZN3xtl3mpl9static_ifIZN2xt12linear_beginINS2_17xtensor_containerINS2_7uvectorIdSaIdEEELm1ELNS2_11layout_typeE1ENS2_22xtensor_expression_tagEEEEEDaRT_EUlSB_E_ZNS3_ISA_EEDaSC_EUlSB_E0_EEDcSt17integral_constantIbLb1EERKSB_RKT0_ = comdat any

$_ZZN2xt12linear_beginINS_17xtensor_containerINS_7uvectorIdSaIdEEELm1ELNS_11layout_typeE1ENS_22xtensor_expression_tagEEEEEDaRT_ENKUlS8_E_clIN3xtl8identityEEEDaS8_ = comdat any

$_ZNK3xtl8identityclIRN2xt17xtensor_containerINS2_7uvectorIdSaIdEEELm1ELNS2_11layout_typeE1ENS2_22xtensor_expression_tagEEEEEOT_SC_ = comdat any

$_ZN2xt10xcontainerINS_17xtensor_containerINS_7uvectorIdSaIdEEELm1ELNS_11layout_typeE1ENS_22xtensor_expression_tagEEEE13storage_beginEv = comdat any

$_ZN2xt7uvectorIdSaIdEE5beginEv = comdat any

$_ZNK2xt10xcontainerINS_17xtensor_containerINS_7uvectorIdSaIdEEELm1ELNS_11layout_typeE1ENS_22xtensor_expression_tagEEEE7storageEv = comdat any

$_ZNK2xt17xtensor_containerINS_7uvectorIdSaIdEEELm1ELNS_11layout_typeE1ENS_22xtensor_expression_tagEE12storage_implEv = comdat any

$_ZN2xt10xcontainerINS_17xtensor_containerINS_7uvectorIdSaIdEEELm1ELNS_11layout_typeE1ENS_22xtensor_expression_tagEEEE13stepper_beginISt5arrayImLm1EEEENS_8xstepperIS7_EERKT_ = comdat any

$_ZNK2xt5xviewIRNS_16xarray_containerINS_7uvectorIdSaIdEEELNS_11layout_typeE1ENS_7svectorImLm4ESaImELb1EEENS_22xtensor_expression_tagEEEJiNS_6xrangeIlEEEE13stepper_beginISt5arrayImLm1EELb1EEENSt9enable_ifIXT0_ENS_8xstepperIKSE_EEE4typeERKT_ = comdat any

$_ZN2xt10xcontainerINS_17xtensor_containerINS_7uvectorIdSaIdEEELm1ELNS_11layout_typeE1ENS_22xtensor_expression_tagEEEE11data_xbeginEv = comdat any

$_ZN2xt8xstepperINS_17xtensor_containerINS_7uvectorIdSaIdEEELm1ELNS_11layout_typeE1ENS_22xtensor_expression_tagEEEEC2EPS7_Pdm = comdat any

$_ZNK2xt5xviewIRNS_16xarray_containerINS_7uvectorIdSaIdEEELNS_11layout_typeE1ENS_7svectorImLm4ESaImELb1EEENS_22xtensor_expression_tagEEEJiNS_6xrangeIlEEEE11data_xbeginEv = comdat any

$_ZN2xt8xstepperIKNS_5xviewIRNS_16xarray_containerINS_7uvectorIdSaIdEEELNS_11layout_typeE1ENS_7svectorImLm4ESaImELb1EEENS_22xtensor_expression_tagEEEJiNS_6xrangeIlEEEEEEC2EPSG_PKdm = comdat any

$_ZNK2xt5xviewIRNS_16xarray_containerINS_7uvectorIdSaIdEEELNS_11layout_typeE1ENS_7svectorImLm4ESaImELb1EEENS_22xtensor_expression_tagEEEJiNS_6xrangeIlEEEE16data_xbegin_implIPKdEET_SI_ = comdat any

$_ZNK2xt5xviewIRNS_16xarray_containerINS_7uvectorIdSaIdEEELNS_11layout_typeE1ENS_7svectorImLm4ESaImELb1EEENS_22xtensor_expression_tagEEEJiNS_6xrangeIlEEEE4dataISA_EENSt9enable_ifIXaasr18has_data_interfaceIT_EE5valueL_ZNSE_15is_strided_viewEEEPKdE4typeEv = comdat any

$_ZN2xt16conditional_castILb0EdRKdEEDaOT1_ = comdat any

$_ZNK2xt8xstepperIKNS_5xviewIRNS_16xarray_containerINS_7uvectorIdSaIdEEELNS_11layout_typeE1ENS_7svectorImLm4ESaImELb1EEENS_22xtensor_expression_tagEEEJiNS_6xrangeIlEEEEEEdeEv = comdat any

$_ZNK2xt8xstepperINS_17xtensor_containerINS_7uvectorIdSaIdEEELm1ELNS_11layout_typeE1ENS_22xtensor_expression_tagEEEEdeEv = comdat any

$_ZN2xt13stepper_toolsILNS_11layout_typeE1EE17increment_stepperINS_16stepper_assignerINS_17xtensor_containerINS_7uvectorIdSaIdEEELm1ELS1_1ENS_22xtensor_expression_tagEEENS_5xviewIRNS_16xarray_containerIS8_LS1_1ENS_7svectorImLm4ESaImELb1EEES9_EEJiNS_6xrangeIlEEEEELS1_1EEESt5arrayImLm1EESN_EEvRT_RT0_RKT1_ = comdat any

$_ZNK3xtl8identityclIRKdEEOT_S5_ = comdat any

$_ZNSt5arrayImLm1EEixEm = comdat any

$_ZN2xt16stepper_assignerINS_17xtensor_containerINS_7uvectorIdSaIdEEELm1ELNS_11layout_typeE1ENS_22xtensor_expression_tagEEENS_5xviewIRNS_16xarray_containerIS4_LS5_1ENS_7svectorImLm4ESaImELb1EEES6_EEJiNS_6xrangeIlEEEEELS5_1EE4stepEm = comdat any

$_ZN2xt16stepper_assignerINS_17xtensor_containerINS_7uvectorIdSaIdEEELm1ELNS_11layout_typeE1ENS_22xtensor_expression_tagEEENS_5xviewIRNS_16xarray_containerIS4_LS5_1ENS_7svectorImLm4ESaImELb1EEES6_EEJiNS_6xrangeIlEEEEELS5_1EE5resetEm = comdat any

$_ZNKSt5arrayImLm1EE6cbeginEv = comdat any

$_ZNKSt5arrayImLm1EE4cendEv = comdat any

$_ZN2xt16stepper_assignerINS_17xtensor_containerINS_7uvectorIdSaIdEEELm1ELNS_11layout_typeE1ENS_22xtensor_expression_tagEEENS_5xviewIRNS_16xarray_containerIS4_LS5_1ENS_7svectorImLm4ESaImELb1EEES6_EEJiNS_6xrangeIlEEEEELS5_1EE6to_endES5_ = comdat any

$_ZN2xt8xstepperINS_17xtensor_containerINS_7uvectorIdSaIdEEELm1ELNS_11layout_typeE1ENS_22xtensor_expression_tagEEEE4stepEmm = comdat any

$_ZN2xt8xstepperIKNS_5xviewIRNS_16xarray_containerINS_7uvectorIdSaIdEEELNS_11layout_typeE1ENS_7svectorImLm4ESaImELb1EEENS_22xtensor_expression_tagEEEJiNS_6xrangeIlEEEEEE4stepEmm = comdat any

$_ZNK2xt10xcontainerINS_17xtensor_containerINS_7uvectorIdSaIdEEELm1ELNS_11layout_typeE1ENS_22xtensor_expression_tagEEEE7stridesEv = comdat any

$_ZNKSt5arrayIlLm1EEixEm = comdat any

$_ZNK2xt18xstrided_containerINS_17xtensor_containerINS_7uvectorIdSaIdEEELm1ELNS_11layout_typeE1ENS_22xtensor_expression_tagEEEE12strides_implEv = comdat any

$_ZNK2xt5xviewIRNS_16xarray_containerINS_7uvectorIdSaIdEEELNS_11layout_typeE1ENS_7svectorImLm4ESaImELb1EEENS_22xtensor_expression_tagEEEJiNS_6xrangeIlEEEE7stridesISA_EENSt9enable_ifIXaasr18has_data_interfaceIT_EE5valueL_ZNSE_15is_strided_viewEEERKNS6_IlLm4ESaIlELb1EEEE4typeEv = comdat any

$_ZN2xt8xstepperINS_17xtensor_containerINS_7uvectorIdSaIdEEELm1ELNS_11layout_typeE1ENS_22xtensor_expression_tagEEEE5resetEm = comdat any

$_ZN2xt8xstepperIKNS_5xviewIRNS_16xarray_containerINS_7uvectorIdSaIdEEELNS_11layout_typeE1ENS_7svectorImLm4ESaImELb1EEENS_22xtensor_expression_tagEEEJiNS_6xrangeIlEEEEEE5resetEm = comdat any

$_ZNK2xt10xcontainerINS_17xtensor_containerINS_7uvectorIdSaIdEEELm1ELNS_11layout_typeE1ENS_22xtensor_expression_tagEEEE11backstridesEv = comdat any

$_ZNK2xt18xstrided_containerINS_17xtensor_containerINS_7uvectorIdSaIdEEELm1ELNS_11layout_typeE1ENS_22xtensor_expression_tagEEEE16backstrides_implEv = comdat any

$_ZNK2xt5xviewIRNS_16xarray_containerINS_7uvectorIdSaIdEEELNS_11layout_typeE1ENS_7svectorImLm4ESaImELb1EEENS_22xtensor_expression_tagEEEJiNS_6xrangeIlEEEE11backstridesISA_EENSt9enable_ifIXaasr18has_data_interfaceIT_EE5valueL_ZNSE_15is_strided_viewEEERKNS6_IlLm4ESaIlELb1EEEE4typeEv = comdat any

$_ZNKSt5arrayImLm1EE4dataEv = comdat any

$_ZN2xt8xstepperINS_17xtensor_containerINS_7uvectorIdSaIdEEELm1ELNS_11layout_typeE1ENS_22xtensor_expression_tagEEEE6to_endES5_ = comdat any

$_ZN2xt8xstepperIKNS_5xviewIRNS_16xarray_containerINS_7uvectorIdSaIdEEELNS_11layout_typeE1ENS_7svectorImLm4ESaImELb1EEENS_22xtensor_expression_tagEEEJiNS_6xrangeIlEEEEEE6to_endES6_ = comdat any

$_ZN2xt10xcontainerINS_17xtensor_containerINS_7uvectorIdSaIdEEELm1ELNS_11layout_typeE1ENS_22xtensor_expression_tagEEEE9data_xendES5_m = comdat any

$_ZNK2xt10xcontainerINS_17xtensor_containerINS_7uvectorIdSaIdEEELm1ELNS_11layout_typeE1ENS_22xtensor_expression_tagEEEE14data_xend_implIPdEET_SB_S5_m = comdat any

$_ZN2xt16strided_data_endINS_10xcontainerINS_17xtensor_containerINS_7uvectorIdSaIdEEELm1ELNS_11layout_typeE1ENS_22xtensor_expression_tagEEEEEPdmEET0_RKT_SB_S6_T1_ = comdat any

$_ZNKSt5arrayIlLm1EE4backEv = comdat any

$_ZNKSt5arrayIlLm1EE5frontEv = comdat any

$_ZNK2xt5xviewIRNS_16xarray_containerINS_7uvectorIdSaIdEEELNS_11layout_typeE1ENS_7svectorImLm4ESaImELb1EEENS_22xtensor_expression_tagEEEJiNS_6xrangeIlEEEE9data_xendES5_m = comdat any

$_ZNK2xt5xviewIRNS_16xarray_containerINS_7uvectorIdSaIdEEELNS_11layout_typeE1ENS_7svectorImLm4ESaImELb1EEENS_22xtensor_expression_tagEEEJiNS_6xrangeIlEEEE14data_xend_implIPKdEET_SI_S5_m = comdat any

$_ZN2xt16strided_data_endINS_5xviewIRNS_16xarray_containerINS_7uvectorIdSaIdEEELNS_11layout_typeE1ENS_7svectorImLm4ESaImELb1EEENS_22xtensor_expression_tagEEEJiNS_6xrangeIlEEEEEPKdmEET0_RKT_SI_S6_T1_ = comdat any

$_ZN2xt17xtensor_containerINS_7uvectorIdSaIdEEELm1ELNS_11layout_typeE1ENS_22xtensor_expression_tagEEaSEOS6_ = comdat any

$_ZN2xt19xcontainer_semanticINS_17xtensor_containerINS_7uvectorIdSaIdEEELm1ELNS_11layout_typeE1ENS_22xtensor_expression_tagEEEEaSEOS8_ = comdat any

$_ZN2xt7uvectorIdSaIdEEaSEOS2_ = comdat any

$_ZN2xt14xsemantic_baseINS_17xtensor_containerINS_7uvectorIdSaIdEEELm1ELNS_11layout_typeE1ENS_22xtensor_expression_tagEEEEaSEOS8_ = comdat any

$_ZN2xt20xsharable_expressionINS_17xtensor_containerINS_7uvectorIdSaIdEEELm1ELNS_11layout_typeE1ENS_22xtensor_expression_tagEEEEaSEOS8_ = comdat any

$_ZNSt10shared_ptrIN2xt17xtensor_containerINS0_7uvectorIdSaIdEEELm1ELNS0_11layout_typeE1ENS0_22xtensor_expression_tagEEEEaSEOS8_ = comdat any

$_ZNSt12__shared_ptrIN2xt17xtensor_containerINS0_7uvectorIdSaIdEEELm1ELNS0_11layout_typeE1ENS0_22xtensor_expression_tagEEELN9__gnu_cxx12_Lock_policyE2EEaSEOSA_ = comdat any

$_ZNSt12__shared_ptrIN2xt17xtensor_containerINS0_7uvectorIdSaIdEEELm1ELNS0_11layout_typeE1ENS0_22xtensor_expression_tagEEELN9__gnu_cxx12_Lock_policyE2EEC2EOSA_ = comdat any

$_ZNSt12__shared_ptrIN2xt17xtensor_containerINS0_7uvectorIdSaIdEEELm1ELNS0_11layout_typeE1ENS0_22xtensor_expression_tagEEELN9__gnu_cxx12_Lock_policyE2EE4swapERSA_ = comdat any

$_ZNSt12__shared_ptrIN2xt17xtensor_containerINS0_7uvectorIdSaIdEEELm1ELNS0_11layout_typeE1ENS0_22xtensor_expression_tagEEELN9__gnu_cxx12_Lock_policyE2EED2Ev = comdat any

$_ZSt4swapIPN2xt17xtensor_containerINS0_7uvectorIdSaIdEEELm1ELNS0_11layout_typeE1ENS0_22xtensor_expression_tagEEEENSt9enable_ifIXsr6__and_ISt6__not_ISt15__is_tuple_likeIT_EESt21is_move_constructibleISC_ESt18is_move_assignableISC_EEE5valueEvE4typeERSC_SL_ = comdat any

$_ZN2xt7uvectorIdSaIdEEC2EOS2_ = comdat any

$_ZSt4swapIPdENSt9enable_ifIXsr6__and_ISt6__not_ISt15__is_tuple_likeIT_EESt21is_move_constructibleIS4_ESt18is_move_assignableIS4_EEE5valueEvE4typeERS4_SD_ = comdat any

$_ZN2xt20xsharable_expressionINS_5xviewIRNS_16xarray_containerINS_7uvectorIdSaIdEEELNS_11layout_typeE1ENS_7svectorImLm4ESaImELb1EEENS_22xtensor_expression_tagEEEJiNS_6xrangeIlEEEEEED2Ev = comdat any

$_ZNSt12__shared_ptrIN2xt5xviewIRNS0_16xarray_containerINS0_7uvectorIdSaIdEEELNS0_11layout_typeE1ENS0_7svectorImLm4ESaImELb1EEENS0_22xtensor_expression_tagEEEJiNS0_6xrangeIlEEEEELN9__gnu_cxx12_Lock_policyE2EED2Ev = comdat any

$_ZNSt6vectorIN6openmc17ContinuousTabular7CTTableESaIS2_EE12emplace_backIJS2_EEERS2_DpOT_ = comdat any

$_ZNSt16allocator_traitsISaIN6openmc17ContinuousTabular7CTTableEEE9constructIS2_JS2_EEEvRS3_PT_DpOT0_ = comdat any

$_ZNSt6vectorIN6openmc17ContinuousTabular7CTTableESaIS2_EE17_M_realloc_insertIJS2_EEEvN9__gnu_cxx17__normal_iteratorIPS2_S4_EEDpOT_ = comdat any

$_ZNSt6vectorIN6openmc17ContinuousTabular7CTTableESaIS2_EE3endEv = comdat any

$_ZNSt6vectorIN6openmc17ContinuousTabular7CTTableESaIS2_EE4backEv = comdat any

$_ZNSt15__new_allocatorIN6openmc17ContinuousTabular7CTTableEE9constructIS2_JS2_EEEvPT_DpOT0_ = comdat any

$_ZN6openmc17ContinuousTabular7CTTableC2EOS1_ = comdat any

$_ZN2xt17xtensor_containerINS_7uvectorIdSaIdEEELm1ELNS_11layout_typeE1ENS_22xtensor_expression_tagEEC2EOS6_ = comdat any

$_ZN2xt19xcontainer_semanticINS_17xtensor_containerINS_7uvectorIdSaIdEEELm1ELNS_11layout_typeE1ENS_22xtensor_expression_tagEEEEC2EOS8_ = comdat any

$_ZN2xt14xsemantic_baseINS_17xtensor_containerINS_7uvectorIdSaIdEEELm1ELNS_11layout_typeE1ENS_22xtensor_expression_tagEEEEC2EOS8_ = comdat any

$_ZN2xt20xsharable_expressionINS_17xtensor_containerINS_7uvectorIdSaIdEEELm1ELNS_11layout_typeE1ENS_22xtensor_expression_tagEEEEC2EOS8_ = comdat any

$_ZNSt10shared_ptrIN2xt17xtensor_containerINS0_7uvectorIdSaIdEEELm1ELNS0_11layout_typeE1ENS0_22xtensor_expression_tagEEEEC2EOS8_ = comdat any

$_ZNKSt6vectorIN6openmc17ContinuousTabular7CTTableESaIS2_EE12_M_check_lenEmPKc = comdat any

$_ZN9__gnu_cxxmiIPN6openmc17ContinuousTabular7CTTableESt6vectorIS3_SaIS3_EEEENS_17__normal_iteratorIT_T0_E15difference_typeERKSB_SE_ = comdat any

$_ZNSt6vectorIN6openmc17ContinuousTabular7CTTableESaIS2_EE5beginEv = comdat any

$_ZNSt12_Vector_baseIN6openmc17ContinuousTabular7CTTableESaIS2_EE11_M_allocateEm = comdat any

$_ZNSt6vectorIN6openmc17ContinuousTabular7CTTableESaIS2_EE11_S_relocateEPS2_S5_S5_RS3_ = comdat any

$_ZNK9__gnu_cxx17__normal_iteratorIPN6openmc17ContinuousTabular7CTTableESt6vectorIS3_SaIS3_EEE4baseEv = comdat any

$_ZNSt12_Vector_baseIN6openmc17ContinuousTabular7CTTableESaIS2_EE19_M_get_Tp_allocatorEv = comdat any

$_ZNSt12_Vector_baseIN6openmc17ContinuousTabular7CTTableESaIS2_EE13_M_deallocateEPS2_m = comdat any

$_ZNKSt6vectorIN6openmc17ContinuousTabular7CTTableESaIS2_EE8max_sizeEv = comdat any

$_ZNKSt6vectorIN6openmc17ContinuousTabular7CTTableESaIS2_EE4sizeEv = comdat any

$_ZNSt6vectorIN6openmc17ContinuousTabular7CTTableESaIS2_EE11_S_max_sizeERKS3_ = comdat any

$_ZNKSt12_Vector_baseIN6openmc17ContinuousTabular7CTTableESaIS2_EE19_M_get_Tp_allocatorEv = comdat any

$_ZNSt16allocator_traitsISaIN6openmc17ContinuousTabular7CTTableEEE8max_sizeERKS3_ = comdat any

$_ZNKSt15__new_allocatorIN6openmc17ContinuousTabular7CTTableEE8max_sizeEv = comdat any

$_ZNKSt15__new_allocatorIN6openmc17ContinuousTabular7CTTableEE11_M_max_sizeEv = comdat any

$_ZN9__gnu_cxx17__normal_iteratorIPN6openmc17ContinuousTabular7CTTableESt6vectorIS3_SaIS3_EEEC2ERKS4_ = comdat any

$_ZNSt16allocator_traitsISaIN6openmc17ContinuousTabular7CTTableEEE8allocateERS3_m = comdat any

$_ZNSt15__new_allocatorIN6openmc17ContinuousTabular7CTTableEE8allocateEmPKv = comdat any

$_ZSt12__relocate_aIPN6openmc17ContinuousTabular7CTTableES3_SaIS2_EET0_T_S6_S5_RT1_ = comdat any

$_ZSt14__relocate_a_1IPN6openmc17ContinuousTabular7CTTableES3_SaIS2_EET0_T_S6_S5_RT1_ = comdat any

$_ZSt12__niter_baseIPN6openmc17ContinuousTabular7CTTableEET_S4_ = comdat any

$_ZSt19__relocate_object_aIN6openmc17ContinuousTabular7CTTableES2_SaIS2_EEvPT_PT0_RT1_ = comdat any

$_ZNSt16allocator_traitsISaIN6openmc17ContinuousTabular7CTTableEEE7destroyIS2_EEvRS3_PT_ = comdat any

$_ZNSt15__new_allocatorIN6openmc17ContinuousTabular7CTTableEE7destroyIS2_EEvPT_ = comdat any

$_ZNSt16allocator_traitsISaIN6openmc17ContinuousTabular7CTTableEEE10deallocateERS3_PS2_m = comdat any

$_ZNSt15__new_allocatorIN6openmc17ContinuousTabular7CTTableEE10deallocateEPS2_m = comdat any

$_ZNK9__gnu_cxx17__normal_iteratorIPN6openmc17ContinuousTabular7CTTableESt6vectorIS3_SaIS3_EEEmiEl = comdat any

$_ZNK9__gnu_cxx17__normal_iteratorIPN6openmc17ContinuousTabular7CTTableESt6vectorIS3_SaIS3_EEEdeEv = comdat any

$_ZNSt12__shared_ptrIN2xt5xviewIRNS0_16xarray_containerINS0_7uvectorIiSaIiEEELNS0_11layout_typeE1ENS0_7svectorImLm4ESaImELb1EEENS0_22xtensor_expression_tagEEEJiEEELN9__gnu_cxx12_Lock_policyE2EED2Ev = comdat any

$_ZSt8_DestroyIPN6openmc17ContinuousTabular7CTTableES2_EvT_S4_RSaIT0_E = comdat any

$_ZNSt12_Vector_baseIN6openmc17ContinuousTabular7CTTableESaIS2_EED2Ev = comdat any

$_ZSt8_DestroyIPN6openmc17ContinuousTabular7CTTableEEvT_S4_ = comdat any

$_ZNSt12_Destroy_auxILb0EE9__destroyIPN6openmc17ContinuousTabular7CTTableEEEvT_S6_ = comdat any

$_ZSt8_DestroyIN6openmc17ContinuousTabular7CTTableEEvPT_ = comdat any

$_ZNSt15__new_allocatorIN6openmc17ContinuousTabular7CTTableEED2Ev = comdat any

$_ZNSt12_Vector_baseIdSaIdEED2Ev = comdat any

$_ZNSt15__new_allocatorIdED2Ev = comdat any

$_ZSt8_DestroyIPN6openmc13InterpolationES1_EvT_S3_RSaIT0_E = comdat any

$_ZNSt12_Vector_baseIN6openmc13InterpolationESaIS1_EED2Ev = comdat any

$_ZSt8_DestroyIPN6openmc13InterpolationEEvT_S3_ = comdat any

$_ZNSt12_Destroy_auxILb1EE9__destroyIPN6openmc13InterpolationEEEvT_S5_ = comdat any

$_ZNKSt6vectorIN6openmc13InterpolationESaIS1_EEixEm = comdat any

$_ZNKSt6vectorIdSaIdEEixEm = comdat any

$_ZN6openmc17lower_bound_indexIN9__gnu_cxx17__normal_iteratorIPKdSt6vectorIdSaIdEEEEdEENSt15iterator_traitsIT_E15difference_typeESA_SA_RKT0_ = comdat any

$_ZNKSt6vectorIdSaIdEE5beginEv = comdat any

$_ZNKSt6vectorIdSaIdEE3endEv = comdat any

$_ZNKSt6vectorIN6openmc17ContinuousTabular7CTTableESaIS2_EEixEm = comdat any

$_ZNK2xt17xconst_accessibleINS_17xtensor_containerINS_7uvectorIdSaIdEEELm1ELNS_11layout_typeE1ENS_22xtensor_expression_tagEEEEixEm = comdat any

$_ZSt3maxIdERKT_S2_S2_ = comdat any

$_ZNK9__gnu_cxx17__normal_iteratorIPKdSt6vectorIdSaIdEEEdeEv = comdat any

$_ZN9__gnu_cxxmiIPKdSt6vectorIdSaIdEEEENS_17__normal_iteratorIT_T0_E15difference_typeERKS9_SC_ = comdat any

$_ZSt11lower_boundIN9__gnu_cxx17__normal_iteratorIPKdSt6vectorIdSaIdEEEEdET_S8_S8_RKT0_ = comdat any

$_ZNK9__gnu_cxx17__normal_iteratorIPKdSt6vectorIdSaIdEEE4baseEv = comdat any

$_ZSt13__lower_boundIN9__gnu_cxx17__normal_iteratorIPKdSt6vectorIdSaIdEEEEdNS0_5__ops14_Iter_less_valEET_SA_SA_RKT0_T1_ = comdat any

$_ZN9__gnu_cxx5__ops15__iter_less_valEv = comdat any

$_ZSt8distanceIN9__gnu_cxx17__normal_iteratorIPKdSt6vectorIdSaIdEEEEENSt15iterator_traitsIT_E15difference_typeES9_S9_ = comdat any

$_ZSt7advanceIN9__gnu_cxx17__normal_iteratorIPKdSt6vectorIdSaIdEEEElEvRT_T0_ = comdat any

$_ZNK9__gnu_cxx5__ops14_Iter_less_valclINS_17__normal_iteratorIPKdSt6vectorIdSaIdEEEES4_EEbT_RT0_ = comdat any

$_ZN9__gnu_cxx17__normal_iteratorIPKdSt6vectorIdSaIdEEEppEv = comdat any

$_ZSt10__distanceIN9__gnu_cxx17__normal_iteratorIPKdSt6vectorIdSaIdEEEEENSt15iterator_traitsIT_E15difference_typeES9_S9_St26random_access_iterator_tag = comdat any

$_ZSt19__iterator_categoryIN9__gnu_cxx17__normal_iteratorIPKdSt6vectorIdSaIdEEEEENSt15iterator_traitsIT_E17iterator_categoryERKS9_ = comdat any

$_ZSt9__advanceIN9__gnu_cxx17__normal_iteratorIPKdSt6vectorIdSaIdEEEElEvRT_T0_St26random_access_iterator_tag = comdat any

$_ZN9__gnu_cxx17__normal_iteratorIPKdSt6vectorIdSaIdEEEmmEv = comdat any

$_ZN9__gnu_cxx17__normal_iteratorIPKdSt6vectorIdSaIdEEEpLEl = comdat any

$_ZN9__gnu_cxx17__normal_iteratorIPKdSt6vectorIdSaIdEEEC2ERKS2_ = comdat any

$_ZNK2xt17xconst_accessibleINS_17xtensor_containerINS_7uvectorIdSaIdEEELm1ELNS_11layout_typeE1ENS_22xtensor_expression_tagEEEE12derived_castEv = comdat any

$_ZNK2xt10xcontainerINS_17xtensor_containerINS_7uvectorIdSaIdEEELm1ELNS_11layout_typeE1ENS_22xtensor_expression_tagEEEEclIJmEEERKdDpT_ = comdat any

$_ZN2xt11data_offsetImSt5arrayIlLm1EElJEEET_RKT0_T1_DpT2_ = comdat any

$_ZNK2xt7uvectorIdSaIdEEixEm = comdat any

$_ZN2xt6detail15raw_data_offsetILm0ESt5arrayIlLm1EElJEEEDaRKT0_T1_DpT2_ = comdat any

$_ZN2xt11data_offsetImSt5arrayIlLm1EEEET_RKT0_ = comdat any

$_ZNKSt5arrayIlLm1EE4cendEv = comdat any

$_ZN2xt6detail15raw_data_offsetILm0EPKllJEEEDaRKT0_T1_DpT2_ = comdat any

$_ZN2xt6detail15raw_data_offsetILm1ESt5arrayIlLm1EEEEDaRKT0_ = comdat any

$_ZNKSt5arrayIlLm1EE4dataEv = comdat any

$_ZN2xt6detail15raw_data_offsetILm1EPKlEEDaRKT0_ = comdat any

$_ZN6openmc10DataBuffer3addIiEEvRKSt6vectorIT_SaIS3_EE = comdat any

$_ZNKSt6vectorIN6openmc13InterpolationESaIS1_EE5beginEv = comdat any

$_ZNKSt6vectorIN6openmc13InterpolationESaIS1_EE3endEv = comdat any

$_ZN9__gnu_cxxneIPKN6openmc13InterpolationESt6vectorIS2_SaIS2_EEEEbRKNS_17__normal_iteratorIT_T0_EESD_ = comdat any

$_ZNK9__gnu_cxx17__normal_iteratorIPKN6openmc13InterpolationESt6vectorIS2_SaIS2_EEEdeEv = comdat any

$_ZNSt6vectorIiSaIiEE9push_backEOi = comdat any

$_ZN9__gnu_cxx17__normal_iteratorIPKN6openmc13InterpolationESt6vectorIS2_SaIS2_EEEppEv = comdat any

$_ZN6openmc10DataBuffer3addImEENSt9enable_ifIXsr3std9is_scalarINSt5decayIT_E4typeEEE5valueEvE4typeES4_ = comdat any

$_ZN6openmc10DataBuffer3addIdEEvRKSt6vectorIT_SaIS3_EE = comdat any

$_ZN6openmc7alignedEmi = comdat any

$_ZNKSt6vectorIN6openmc17ContinuousTabular7CTTableESaIS2_EE5beginEv = comdat any

$_ZNKSt6vectorIN6openmc17ContinuousTabular7CTTableESaIS2_EE3endEv = comdat any

$_ZN9__gnu_cxxneIPKN6openmc17ContinuousTabular7CTTableESt6vectorIS3_SaIS3_EEEEbRKNS_17__normal_iteratorIT_T0_EESE_ = comdat any

$_ZNK9__gnu_cxx17__normal_iteratorIPKN6openmc17ContinuousTabular7CTTableESt6vectorIS3_SaIS3_EEEdeEv = comdat any

$_ZN9__gnu_cxx17__normal_iteratorIPKN6openmc17ContinuousTabular7CTTableESt6vectorIS3_SaIS3_EEEppEv = comdat any

$_ZN6openmc10DataBuffer3addIdLm1EEEvRKN2xt17xtensor_containerINS2_7uvectorIT_SaIS5_EEEXT0_ELNS2_11layout_typeE1ENS2_22xtensor_expression_tagEEE = comdat any

$_ZNKSt6vectorIiSaIiEE4dataEv = comdat any

$_ZN9__gnu_cxx17__normal_iteratorIPKN6openmc13InterpolationESt6vectorIS2_SaIS2_EEEC2ERKS4_ = comdat any

$_ZNK9__gnu_cxx17__normal_iteratorIPKN6openmc13InterpolationESt6vectorIS2_SaIS2_EEE4baseEv = comdat any

$_ZNSt6vectorIiSaIiEE12emplace_backIJiEEERiDpOT_ = comdat any

$_ZNSt16allocator_traitsISaIiEE9constructIiJiEEEvRS0_PT_DpOT0_ = comdat any

$_ZNSt6vectorIiSaIiEE17_M_realloc_insertIJiEEEvN9__gnu_cxx17__normal_iteratorIPiS1_EEDpOT_ = comdat any

$_ZNSt6vectorIiSaIiEE4backEv = comdat any

$_ZNSt15__new_allocatorIiE9constructIiJiEEEvPT_DpOT0_ = comdat any

$_ZNK9__gnu_cxx17__normal_iteratorIPiSt6vectorIiSaIiEEEmiEl = comdat any

$_ZNK9__gnu_cxx17__normal_iteratorIPiSt6vectorIiSaIiEEEdeEv = comdat any

$_ZNKSt6vectorIdSaIdEE4dataEv = comdat any

$_ZN9__gnu_cxx17__normal_iteratorIPKN6openmc17ContinuousTabular7CTTableESt6vectorIS3_SaIS3_EEEC2ERKS5_ = comdat any

$_ZNK9__gnu_cxx17__normal_iteratorIPKN6openmc17ContinuousTabular7CTTableESt6vectorIS3_SaIS3_EEE4baseEv = comdat any

$_ZNK2xt10xcontainerINS_17xtensor_containerINS_7uvectorIdSaIdEEELm1ELNS_11layout_typeE1ENS_22xtensor_expression_tagEEEE4dataEv = comdat any

$_ZNK2xt7uvectorIdSaIdEE4dataEv = comdat any

$_ZN3gsl4spanIKdEC2EPS1_m = comdat any

$_ZNK3gsl4spanIKdE4sizeEv = comdat any

$_ZNK3gsl4spanIKdEixEm = comdat any

$_ZN6openmc17lower_bound_indexIPKddEENSt15iterator_traitsIT_E15difference_typeES4_S4_RKT0_ = comdat any

$_ZNK3gsl4spanIKdE5beginEv = comdat any

$_ZNK3gsl4spanIKdE3endEv = comdat any

$_ZN3gsl11narrow_castImlEET_OT0_ = comdat any

$_ZSt11lower_boundIPKddET_S2_S2_RKT0_ = comdat any

$_ZSt13__lower_boundIPKddN9__gnu_cxx5__ops14_Iter_less_valEET_S5_S5_RKT0_T1_ = comdat any

$_ZSt8distanceIPKdENSt15iterator_traitsIT_E15difference_typeES3_S3_ = comdat any

$_ZSt7advanceIPKdlEvRT_T0_ = comdat any

$_ZNK9__gnu_cxx5__ops14_Iter_less_valclIPKdS3_EEbT_RT0_ = comdat any

$_ZSt10__distanceIPKdENSt15iterator_traitsIT_E15difference_typeES3_S3_St26random_access_iterator_tag = comdat any

$_ZSt19__iterator_categoryIPKdENSt15iterator_traitsIT_E17iterator_categoryERKS3_ = comdat any

$_ZSt9__advanceIPKdlEvRT_T0_St26random_access_iterator_tag = comdat any

$_ZN3gsl4spanIKiEC2EPS1_m = comdat any

$_ZN6openmc11Tabulated1DC2Ev = comdat any

$_ZN6openmc11Tabulated1DaSEOS0_ = comdat any

$_ZN6openmc11Tabulated1DD2Ev = comdat any

$_ZN6openmc10Function1DC2Ev = comdat any

$_ZN6openmc10Function1DD2Ev = comdat any

$_ZN6openmc10Function1DD0Ev = comdat any

$_ZN6openmc10Function1DaSERKS0_ = comdat any

$_ZNSt6vectorIiSaIiEEaSEOS1_ = comdat any

$_ZNSt6vectorIN6openmc13InterpolationESaIS1_EEaSEOS3_ = comdat any

$_ZNSt6vectorIdSaIdEEaSEOS1_ = comdat any

$_ZNSt6vectorIiSaIiEE14_M_move_assignEOS1_St17integral_constantIbLb1EE = comdat any

$_ZNKSt12_Vector_baseIiSaIiEE13get_allocatorEv = comdat any

$_ZNSt6vectorIiSaIiEEC2ERKS0_ = comdat any

$_ZNSt12_Vector_baseIiSaIiEE17_Vector_impl_data12_M_swap_dataERS2_ = comdat any

$_ZSt15__alloc_on_moveISaIiEEvRT_S2_ = comdat any

$_ZNSt12_Vector_baseIiSaIiEEC2ERKS0_ = comdat any

$_ZNSt12_Vector_baseIiSaIiEE17_Vector_impl_dataC2Ev = comdat any

$_ZNSt12_Vector_baseIiSaIiEE17_Vector_impl_data12_M_copy_dataERKS2_ = comdat any

$_ZNSt6vectorIN6openmc13InterpolationESaIS1_EE14_M_move_assignEOS3_St17integral_constantIbLb1EE = comdat any

$_ZNKSt12_Vector_baseIN6openmc13InterpolationESaIS1_EE13get_allocatorEv = comdat any

$_ZNSt6vectorIN6openmc13InterpolationESaIS1_EEC2ERKS2_ = comdat any

$_ZNSt15__new_allocatorIN6openmc13InterpolationEED2Ev = comdat any

$_ZNSt12_Vector_baseIN6openmc13InterpolationESaIS1_EE17_Vector_impl_data12_M_swap_dataERS4_ = comdat any

$_ZSt15__alloc_on_moveISaIN6openmc13InterpolationEEEvRT_S4_ = comdat any

$_ZNSaIN6openmc13InterpolationEEC2ERKS1_ = comdat any

$_ZNSt15__new_allocatorIN6openmc13InterpolationEEC2ERKS2_ = comdat any

$_ZNSt12_Vector_baseIN6openmc13InterpolationESaIS1_EEC2ERKS2_ = comdat any

$_ZNSt12_Vector_baseIN6openmc13InterpolationESaIS1_EE12_Vector_implC2ERKS2_ = comdat any

$_ZNSt12_Vector_baseIN6openmc13InterpolationESaIS1_EE17_Vector_impl_dataC2Ev = comdat any

$_ZNSt12_Vector_baseIN6openmc13InterpolationESaIS1_EE17_Vector_impl_data12_M_copy_dataERKS4_ = comdat any

$_ZNSt6vectorIdSaIdEE14_M_move_assignEOS1_St17integral_constantIbLb1EE = comdat any

$_ZNKSt12_Vector_baseIdSaIdEE13get_allocatorEv = comdat any

$_ZNSt6vectorIdSaIdEEC2ERKS0_ = comdat any

$_ZNSt12_Vector_baseIdSaIdEE17_Vector_impl_data12_M_swap_dataERS2_ = comdat any

$_ZSt15__alloc_on_moveISaIdEEvRT_S2_ = comdat any

$_ZNSt12_Vector_baseIdSaIdEEC2ERKS0_ = comdat any

$_ZNSt12_Vector_baseIdSaIdEE12_Vector_implC2ERKS0_ = comdat any

$_ZNSt12_Vector_baseIdSaIdEE17_Vector_impl_dataC2Ev = comdat any

$_ZNSt12_Vector_baseIdSaIdEE17_Vector_impl_data12_M_copy_dataERKS2_ = comdat any

$_ZN6openmc13buffer_nbytesINS_11Tabulated1DEEEmRKT_ = comdat any

$_ZN6openmc10DataBufferC2Ev = comdat any

$_ZNK6openmc10DataBuffer4sizeEv = comdat any

$_ZTIN6openmc18EnergyDistributionE = comdat any

$_ZTSN6openmc18EnergyDistributionE = comdat any

$_ZTVN6openmc18EnergyDistributionE = comdat any

$_ZZN2xt6detail5applyImRZNKS_5xviewIRNS_16xarray_containerINS_7uvectorIdSaIdEEELNS_11layout_typeE1ENS_7svectorImLm4ESaImELb1EEENS_22xtensor_expression_tagEEEJiNS_6xrangeIlEEEE13compute_shapeESt17integral_constantIbLb0EEEUlRKT_E_JLm0ELm1EEJiSF_EEESJ_mOT0_St16integer_sequenceImJXspT1_EEERKSt5tupleIJDpT2_EEE2ar = comdat any

$_ZTVN6openmc10Function1DE = comdat any

$_ZTIN6openmc10Function1DE = comdat any

$_ZTSN6openmc10Function1DE = comdat any

@dagmc = external global i8, align 1
@run_CE = external global i8, align 1
@max_lost_particles = external global i32, align 4
@gen_per_batch = external global i32, align 4
@n_particles = external global i64, align 8
@_ZTVN6openmc14DiscretePhotonE = unnamed_addr constant { [6 x ptr] } { [6 x ptr] [ptr null, ptr @_ZTIN6openmc14DiscretePhotonE, ptr @_ZNK6openmc14DiscretePhoton6sampleEdPm, ptr @_ZNK6openmc14DiscretePhoton9serializeERNS_10DataBufferE, ptr @_ZN6openmc18EnergyDistributionD2Ev, ptr @_ZN6openmc14DiscretePhotonD0Ev] }, align 8
@_ZTIN6openmc14DiscretePhotonE = constant { ptr, ptr, ptr } { ptr getelementptr inbounds (ptr, ptr @_ZTVN10__cxxabiv120__si_class_type_infoE, i64 2), ptr @_ZTSN6openmc14DiscretePhotonE, ptr @_ZTIN6openmc18EnergyDistributionE }, align 8
@_ZTVN10__cxxabiv120__si_class_type_infoE = external global [0 x ptr]
@_ZTSN6openmc14DiscretePhotonE = constant [26 x i8] c"N6openmc14DiscretePhotonE\00", align 1
@_ZTIN6openmc18EnergyDistributionE = linkonce_odr constant { ptr, ptr } { ptr getelementptr inbounds (ptr, ptr @_ZTVN10__cxxabiv117__class_type_infoE, i64 2), ptr @_ZTSN6openmc18EnergyDistributionE }, comdat, align 8
@_ZTVN10__cxxabiv117__class_type_infoE = external global [0 x ptr]
@_ZTSN6openmc18EnergyDistributionE = linkonce_odr constant [30 x i8] c"N6openmc18EnergyDistributionE\00", comdat, align 1
@_ZTVN6openmc14LevelInelasticE = unnamed_addr constant { [6 x ptr] } { [6 x ptr] [ptr null, ptr @_ZTIN6openmc14LevelInelasticE, ptr @_ZNK6openmc14LevelInelastic6sampleEdPm, ptr @_ZNK6openmc14LevelInelastic9serializeERNS_10DataBufferE, ptr @_ZN6openmc18EnergyDistributionD2Ev, ptr @_ZN6openmc14LevelInelasticD0Ev] }, align 8
@_ZTIN6openmc14LevelInelasticE = constant { ptr, ptr, ptr } { ptr getelementptr inbounds (ptr, ptr @_ZTVN10__cxxabiv120__si_class_type_infoE, i64 2), ptr @_ZTSN6openmc14LevelInelasticE, ptr @_ZTIN6openmc18EnergyDistributionE }, align 8
@_ZTSN6openmc14LevelInelasticE = constant [26 x i8] c"N6openmc14LevelInelasticE\00", align 1
@_ZTVN6openmc17ContinuousTabularE = unnamed_addr constant { [6 x ptr] } { [6 x ptr] [ptr null, ptr @_ZTIN6openmc17ContinuousTabularE, ptr @_ZNK6openmc17ContinuousTabular6sampleEdPm, ptr @_ZNK6openmc17ContinuousTabular9serializeERNS_10DataBufferE, ptr @_ZN6openmc17ContinuousTabularD2Ev, ptr @_ZN6openmc17ContinuousTabularD0Ev] }, align 8
@_ZTIN6openmc17ContinuousTabularE = constant { ptr, ptr, ptr } { ptr getelementptr inbounds (ptr, ptr @_ZTVN10__cxxabiv120__si_class_type_infoE, i64 2), ptr @_ZTSN6openmc17ContinuousTabularE, ptr @_ZTIN6openmc18EnergyDistributionE }, align 8
@_ZTSN6openmc17ContinuousTabularE = constant [29 x i8] c"N6openmc17ContinuousTabularE\00", align 1
@_ZTVN6openmc13MaxwellEnergyE = unnamed_addr constant { [6 x ptr] } { [6 x ptr] [ptr null, ptr @_ZTIN6openmc13MaxwellEnergyE, ptr @_ZNK6openmc13MaxwellEnergy6sampleEdPm, ptr @_ZNK6openmc13MaxwellEnergy9serializeERNS_10DataBufferE, ptr @_ZN6openmc13MaxwellEnergyD2Ev, ptr @_ZN6openmc13MaxwellEnergyD0Ev] }, align 8
@_ZTIN6openmc13MaxwellEnergyE = constant { ptr, ptr, ptr } { ptr getelementptr inbounds (ptr, ptr @_ZTVN10__cxxabiv120__si_class_type_infoE, i64 2), ptr @_ZTSN6openmc13MaxwellEnergyE, ptr @_ZTIN6openmc18EnergyDistributionE }, align 8
@_ZTSN6openmc13MaxwellEnergyE = constant [25 x i8] c"N6openmc13MaxwellEnergyE\00", align 1
@_ZTVN6openmc11EvaporationE = unnamed_addr constant { [6 x ptr] } { [6 x ptr] [ptr null, ptr @_ZTIN6openmc11EvaporationE, ptr @_ZNK6openmc11Evaporation6sampleEdPm, ptr @_ZNK6openmc11Evaporation9serializeERNS_10DataBufferE, ptr @_ZN6openmc11EvaporationD2Ev, ptr @_ZN6openmc11EvaporationD0Ev] }, align 8
@_ZTIN6openmc11EvaporationE = constant { ptr, ptr, ptr } { ptr getelementptr inbounds (ptr, ptr @_ZTVN10__cxxabiv120__si_class_type_infoE, i64 2), ptr @_ZTSN6openmc11EvaporationE, ptr @_ZTIN6openmc18EnergyDistributionE }, align 8
@_ZTSN6openmc11EvaporationE = constant [23 x i8] c"N6openmc11EvaporationE\00", align 1
@_ZTVN6openmc10WattEnergyE = unnamed_addr constant { [6 x ptr] } { [6 x ptr] [ptr null, ptr @_ZTIN6openmc10WattEnergyE, ptr @_ZNK6openmc10WattEnergy6sampleEdPm, ptr @_ZNK6openmc10WattEnergy9serializeERNS_10DataBufferE, ptr @_ZN6openmc10WattEnergyD2Ev, ptr @_ZN6openmc10WattEnergyD0Ev] }, align 8
@_ZTIN6openmc10WattEnergyE = constant { ptr, ptr, ptr } { ptr getelementptr inbounds (ptr, ptr @_ZTVN10__cxxabiv120__si_class_type_infoE, i64 2), ptr @_ZTSN6openmc10WattEnergyE, ptr @_ZTIN6openmc18EnergyDistributionE }, align 8
@_ZTSN6openmc10WattEnergyE = constant [22 x i8] c"N6openmc10WattEnergyE\00", align 1
@_ZStL8__ioinit = internal global %"class.std::ios_base::Init" zeroinitializer, align 1
@__dso_handle = external hidden global i8
@_ZN6openmcL12DEPLETION_RXE = internal constant %"struct.std::array" { [6 x i32] [i32 102, i32 103, i32 107, i32 16, i32 17, i32 37] }, align 4
@.str = private unnamed_addr constant [13 x i8] c"primary_flag\00", align 1
@.str.1 = private unnamed_addr constant [7 x i8] c"energy\00", align 1
@.str.2 = private unnamed_addr constant [20 x i8] c"atomic_weight_ratio\00", align 1
@_ZTVN6openmc18EnergyDistributionE = linkonce_odr unnamed_addr constant { [6 x ptr] } { [6 x ptr] [ptr null, ptr @_ZTIN6openmc18EnergyDistributionE, ptr @__cxa_pure_virtual, ptr @__cxa_pure_virtual, ptr @_ZN6openmc18EnergyDistributionD2Ev, ptr @_ZN6openmc18EnergyDistributionD0Ev] }, comdat, align 8
@_ZN6openmc9H5TypeMapIiE7type_idE = external constant i64, align 8
@_ZN6openmc9H5TypeMapIdE7type_idE = external constant i64, align 8
@.str.3 = private unnamed_addr constant [10 x i8] c"threshold\00", align 1
@.str.4 = private unnamed_addr constant [11 x i8] c"mass_ratio\00", align 1
@.str.5 = private unnamed_addr constant [14 x i8] c"interpolation\00", align 1
@.str.6 = private unnamed_addr constant [13 x i8] c"distribution\00", align 1
@.str.7 = private unnamed_addr constant [8 x i8] c"offsets\00", align 1
@.str.8 = private unnamed_addr constant [17 x i8] c"n_discrete_lines\00", align 1
@_ZZL18__gthread_active_pvE20__gthread_active_ptr = internal constant ptr @__pthread_key_create, align 8
@.str.9 = private unnamed_addr constant [49 x i8] c"cannot create std::vector larger than max_size()\00", align 1
@.str.10 = private unnamed_addr constant [74 x i8] c"Cannot change layout_type if template parameter not layout_type::dynamic.\00", align 1
@_ZTISt13runtime_error = external constant ptr
@.str.11 = private unnamed_addr constant [26 x i8] c"vector::_M_default_append\00", align 1
@.str.12 = private unnamed_addr constant [26 x i8] c"vector::_M_realloc_insert\00", align 1
@_ZZN2xt6detail5applyImRZNKS_5xviewIRNS_16xarray_containerINS_7uvectorIdSaIdEEELNS_11layout_typeE1ENS_7svectorImLm4ESaImELb1EEENS_22xtensor_expression_tagEEEJiNS_6xrangeIlEEEE13compute_shapeESt17integral_constantIbLb0EEEUlRKT_E_JLm0ELm1EEJiSF_EEESJ_mOT0_St16integer_sequenceImJXspT1_EEERKSt5tupleIJDpT2_EEE2ar = linkonce_odr constant %"struct.std::array.126" { [2 x ptr] [ptr @_ZN2xt6detail9apply_oneImRZNKS_5xviewIRNS_16xarray_containerINS_7uvectorIdSaIdEEELNS_11layout_typeE1ENS_7svectorImLm4ESaImELb1EEENS_22xtensor_expression_tagEEEJiNS_6xrangeIlEEEE13compute_shapeESt17integral_constantIbLb0EEEUlRKT_E_Lm0EJiSF_EEESJ_OT0_RKSt5tupleIJDpT2_EE, ptr @_ZN2xt6detail9apply_oneImRZNKS_5xviewIRNS_16xarray_containerINS_7uvectorIdSaIdEEELNS_11layout_typeE1ENS_7svectorImLm4ESaImELb1EEENS_22xtensor_expression_tagEEEJiNS_6xrangeIlEEEE13compute_shapeESt17integral_constantIbLb0EEEUlRKT_E_Lm1EJiSF_EEESJ_OT0_RKSt5tupleIJDpT2_EE] }, comdat, align 8
@.str.13 = private unnamed_addr constant [61 x i8] c"Unexpected interpolation for continuous energy distribution.\00", align 1
@.str.14 = private unnamed_addr constant [2 x i8] c"u\00", align 1
@.str.15 = private unnamed_addr constant [6 x i8] c"theta\00", align 1
@_ZTVN6openmc11Tabulated1DE = external unnamed_addr constant { [6 x ptr] }, align 8
@_ZTVN6openmc10Function1DE = linkonce_odr unnamed_addr constant { [6 x ptr] } { [6 x ptr] [ptr null, ptr @_ZTIN6openmc10Function1DE, ptr @__cxa_pure_virtual, ptr @_ZN6openmc10Function1DD2Ev, ptr @_ZN6openmc10Function1DD0Ev, ptr @__cxa_pure_virtual] }, comdat, align 8
@_ZTIN6openmc10Function1DE = linkonce_odr constant { ptr, ptr } { ptr getelementptr inbounds (ptr, ptr @_ZTVN10__cxxabiv117__class_type_infoE, i64 2), ptr @_ZTSN6openmc10Function1DE }, comdat, align 8
@_ZTSN6openmc10Function1DE = linkonce_odr constant [22 x i8] c"N6openmc10Function1DE\00", comdat, align 1
@.str.16 = private unnamed_addr constant [2 x i8] c"a\00", align 1
@.str.17 = private unnamed_addr constant [2 x i8] c"b\00", align 1
@llvm.global_ctors = appending global [1 x { i32, ptr, ptr }] [{ i32, ptr, ptr } { i32 65535, ptr @_GLOBAL__sub_I_distribution_energy.cpp, ptr null }]

@_ZN6openmc22EnergyDistributionFlatC1EPKh = unnamed_addr alias void (ptr, ptr), ptr @_ZN6openmc22EnergyDistributionFlatC2EPKh
@_ZN6openmc14DiscretePhotonC1El = unnamed_addr alias void (ptr, i64), ptr @_ZN6openmc14DiscretePhotonC2El
@_ZN6openmc14LevelInelasticC1El = unnamed_addr alias void (ptr, i64), ptr @_ZN6openmc14LevelInelasticC2El
@_ZN6openmc17ContinuousTabularC1El = unnamed_addr alias void (ptr, i64), ptr @_ZN6openmc17ContinuousTabularC2El
@_ZN6openmc11CTTableFlatC1EPKh = unnamed_addr alias void (ptr, ptr), ptr @_ZN6openmc11CTTableFlatC2EPKh
@_ZN6openmc21ContinuousTabularFlatC1EPKh = unnamed_addr alias void (ptr, ptr), ptr @_ZN6openmc21ContinuousTabularFlatC2EPKh
@_ZN6openmc13MaxwellEnergyC1El = unnamed_addr alias void (ptr, i64), ptr @_ZN6openmc13MaxwellEnergyC2El
@_ZN6openmc11EvaporationC1El = unnamed_addr alias void (ptr, i64), ptr @_ZN6openmc11EvaporationC2El
@_ZN6openmc10WattEnergyC1El = unnamed_addr alias void (ptr, i64), ptr @_ZN6openmc10WattEnergyC2El

; Function Attrs: mustprogress nounwind uwtable
define noundef double @_ZNK6openmc14DiscretePhoton6sampleEdPm(ptr noundef nonnull align 8 dereferenceable(32) %this, double noundef %E, ptr noundef %seed) unnamed_addr #0 align 2 {
entry:
  %retval = alloca double, align 8
  %this.addr = alloca ptr, align 8
  %E.addr = alloca double, align 8
  %seed.addr = alloca ptr, align 8
  store ptr %this, ptr %this.addr, align 8, !tbaa !11
  store double %E, ptr %E.addr, align 8, !tbaa !16
  store ptr %seed, ptr %seed.addr, align 8, !tbaa !18
  %this1 = load ptr, ptr %this.addr, align 8
  %primary_flag_ = getelementptr inbounds nuw %"class.openmc::DiscretePhoton", ptr %this1, i32 0, i32 1
  %0 = load i32, ptr %primary_flag_, align 8, !tbaa !20
  %cmp = icmp eq i32 %0, 2
  br i1 %cmp, label %if.then, label %if.else

if.then:                                          ; preds = %entry
  %energy_ = getelementptr inbounds nuw %"class.openmc::DiscretePhoton", ptr %this1, i32 0, i32 2
  %1 = load double, ptr %energy_, align 8, !tbaa !24
  %A_ = getelementptr inbounds nuw %"class.openmc::DiscretePhoton", ptr %this1, i32 0, i32 3
  %2 = load double, ptr %A_, align 8, !tbaa !25
  %A_2 = getelementptr inbounds nuw %"class.openmc::DiscretePhoton", ptr %this1, i32 0, i32 3
  %3 = load double, ptr %A_2, align 8, !tbaa !25
  %add = fadd double %3, 1.000000e+00
  %div = fdiv double %2, %add
  %4 = load double, ptr %E.addr, align 8, !tbaa !16
  %5 = call double @llvm.fmuladd.f64(double %div, double %4, double %1)
  store double %5, ptr %retval, align 8
  br label %return

if.else:                                          ; preds = %entry
  %energy_3 = getelementptr inbounds nuw %"class.openmc::DiscretePhoton", ptr %this1, i32 0, i32 2
  %6 = load double, ptr %energy_3, align 8, !tbaa !24
  store double %6, ptr %retval, align 8
  br label %return

return:                                           ; preds = %if.else, %if.then
  %7 = load double, ptr %retval, align 8
  ret double %7
}

; Function Attrs: mustprogress uwtable
define void @_ZNK6openmc14DiscretePhoton9serializeERNS_10DataBufferE(ptr noundef nonnull align 8 dereferenceable(32) %this, ptr noundef nonnull align 8 dereferenceable(28) %buffer) unnamed_addr #1 align 2 {
entry:
  %this.addr = alloca ptr, align 8
  %buffer.addr = alloca ptr, align 8
  store ptr %this, ptr %this.addr, align 8, !tbaa !11
  store ptr %buffer, ptr %buffer.addr, align 8, !tbaa !26
  %this1 = load ptr, ptr %this.addr, align 8
  %0 = load ptr, ptr %buffer.addr, align 8, !tbaa !26
  call void @_ZN6openmc10DataBuffer3addIiEENSt9enable_ifIXsr3std9is_scalarINSt5decayIT_E4typeEEE5valueEvE4typeES4_(ptr noundef nonnull align 8 dereferenceable(28) %0, i32 noundef 0)
  %1 = load ptr, ptr %buffer.addr, align 8, !tbaa !26
  %primary_flag_ = getelementptr inbounds nuw %"class.openmc::DiscretePhoton", ptr %this1, i32 0, i32 1
  %2 = load i32, ptr %primary_flag_, align 8, !tbaa !20
  call void @_ZN6openmc10DataBuffer3addIiEENSt9enable_ifIXsr3std9is_scalarINSt5decayIT_E4typeEEE5valueEvE4typeES4_(ptr noundef nonnull align 8 dereferenceable(28) %1, i32 noundef %2)
  %3 = load ptr, ptr %buffer.addr, align 8, !tbaa !26
  %energy_ = getelementptr inbounds nuw %"class.openmc::DiscretePhoton", ptr %this1, i32 0, i32 2
  %4 = load double, ptr %energy_, align 8, !tbaa !24
  call void @_ZN6openmc10DataBuffer3addIdEENSt9enable_ifIXsr3std9is_scalarINSt5decayIT_E4typeEEE5valueEvE4typeES4_(ptr noundef nonnull align 8 dereferenceable(28) %3, double noundef %4)
  %5 = load ptr, ptr %buffer.addr, align 8, !tbaa !26
  %A_ = getelementptr inbounds nuw %"class.openmc::DiscretePhoton", ptr %this1, i32 0, i32 3
  %6 = load double, ptr %A_, align 8, !tbaa !25
  call void @_ZN6openmc10DataBuffer3addIdEENSt9enable_ifIXsr3std9is_scalarINSt5decayIT_E4typeEEE5valueEvE4typeES4_(ptr noundef nonnull align 8 dereferenceable(28) %5, double noundef %6)
  ret void
}

; Function Attrs: inlinehint mustprogress nounwind uwtable
define linkonce_odr void @_ZN6openmc14DiscretePhotonD0Ev(ptr noundef nonnull align 8 dereferenceable(32) %this) unnamed_addr #2 comdat align 2 {
entry:
  %this.addr = alloca ptr, align 8
  store ptr %this, ptr %this.addr, align 8, !tbaa !11
  %this1 = load ptr, ptr %this.addr, align 8
  call void @_ZN6openmc18EnergyDistributionD2Ev(ptr noundef nonnull align 8 dereferenceable(32) %this1) #6
  call void @_ZdlPvm(ptr noundef %this1, i64 noundef 32) #22
  ret void
}

; Function Attrs: mustprogress nounwind uwtable
define noundef double @_ZNK6openmc14LevelInelastic6sampleEdPm(ptr noundef nonnull align 8 dereferenceable(24) %this, double noundef %E, ptr noundef %seed) unnamed_addr #0 align 2 {
entry:
  %this.addr = alloca ptr, align 8
  %E.addr = alloca double, align 8
  %seed.addr = alloca ptr, align 8
  store ptr %this, ptr %this.addr, align 8, !tbaa !28
  store double %E, ptr %E.addr, align 8, !tbaa !16
  store ptr %seed, ptr %seed.addr, align 8, !tbaa !18
  %this1 = load ptr, ptr %this.addr, align 8
  %mass_ratio_ = getelementptr inbounds nuw %"class.openmc::LevelInelastic", ptr %this1, i32 0, i32 2
  %0 = load double, ptr %mass_ratio_, align 8, !tbaa !30
  %1 = load double, ptr %E.addr, align 8, !tbaa !16
  %threshold_ = getelementptr inbounds nuw %"class.openmc::LevelInelastic", ptr %this1, i32 0, i32 1
  %2 = load double, ptr %threshold_, align 8, !tbaa !32
  %sub = fsub double %1, %2
  %mul = fmul double %0, %sub
  ret double %mul
}

; Function Attrs: mustprogress uwtable
define void @_ZNK6openmc14LevelInelastic9serializeERNS_10DataBufferE(ptr noundef nonnull align 8 dereferenceable(24) %this, ptr noundef nonnull align 8 dereferenceable(28) %buffer) unnamed_addr #1 align 2 {
entry:
  %this.addr = alloca ptr, align 8
  %buffer.addr = alloca ptr, align 8
  store ptr %this, ptr %this.addr, align 8, !tbaa !28
  store ptr %buffer, ptr %buffer.addr, align 8, !tbaa !26
  %this1 = load ptr, ptr %this.addr, align 8
  %0 = load ptr, ptr %buffer.addr, align 8, !tbaa !26
  call void @_ZN6openmc10DataBuffer3addIiEENSt9enable_ifIXsr3std9is_scalarINSt5decayIT_E4typeEEE5valueEvE4typeES4_(ptr noundef nonnull align 8 dereferenceable(28) %0, i32 noundef 1)
  %1 = load ptr, ptr %buffer.addr, align 8, !tbaa !26
  call void @_ZN6openmc10DataBuffer5alignEi(ptr noundef nonnull align 8 dereferenceable(28) %1, i32 noundef 8)
  %2 = load ptr, ptr %buffer.addr, align 8, !tbaa !26
  %threshold_ = getelementptr inbounds nuw %"class.openmc::LevelInelastic", ptr %this1, i32 0, i32 1
  %3 = load double, ptr %threshold_, align 8, !tbaa !32
  call void @_ZN6openmc10DataBuffer3addIdEENSt9enable_ifIXsr3std9is_scalarINSt5decayIT_E4typeEEE5valueEvE4typeES4_(ptr noundef nonnull align 8 dereferenceable(28) %2, double noundef %3)
  %4 = load ptr, ptr %buffer.addr, align 8, !tbaa !26
  %mass_ratio_ = getelementptr inbounds nuw %"class.openmc::LevelInelastic", ptr %this1, i32 0, i32 2
  %5 = load double, ptr %mass_ratio_, align 8, !tbaa !30
  call void @_ZN6openmc10DataBuffer3addIdEENSt9enable_ifIXsr3std9is_scalarINSt5decayIT_E4typeEEE5valueEvE4typeES4_(ptr noundef nonnull align 8 dereferenceable(28) %4, double noundef %5)
  ret void
}

; Function Attrs: mustprogress nounwind uwtable
define linkonce_odr void @_ZN6openmc18EnergyDistributionD2Ev(ptr noundef nonnull align 8 dereferenceable(8) %this) unnamed_addr #0 comdat align 2 {
entry:
  %this.addr = alloca ptr, align 8
  store ptr %this, ptr %this.addr, align 8, !tbaa !33
  %this1 = load ptr, ptr %this.addr, align 8
  ret void
}

; Function Attrs: inlinehint mustprogress nounwind uwtable
define linkonce_odr void @_ZN6openmc14LevelInelasticD0Ev(ptr noundef nonnull align 8 dereferenceable(24) %this) unnamed_addr #2 comdat align 2 {
entry:
  %this.addr = alloca ptr, align 8
  store ptr %this, ptr %this.addr, align 8, !tbaa !28
  %this1 = load ptr, ptr %this.addr, align 8
  call void @_ZN6openmc18EnergyDistributionD2Ev(ptr noundef nonnull align 8 dereferenceable(24) %this1) #6
  call void @_ZdlPvm(ptr noundef %this1, i64 noundef 24) #22
  ret void
}

; Function Attrs: mustprogress uwtable
define noundef double @_ZNK6openmc17ContinuousTabular6sampleEdPm(ptr noundef nonnull align 8 dereferenceable(112) %this, double noundef %E, ptr noundef %seed) unnamed_addr #1 align 2 personality ptr @__gxx_personality_v0 {
entry:
  %retval = alloca double, align 8
  %this.addr = alloca ptr, align 8
  %E.addr = alloca double, align 8
  %seed.addr = alloca ptr, align 8
  %histogram_interp = alloca i8, align 1
  %n_energy_in = alloca i64, align 8
  %i = alloca i32, align 4
  %r = alloca double, align 8
  %agg.tmp = alloca %"class.__gnu_cxx::__normal_iterator.140", align 8
  %agg.tmp17 = alloca %"class.__gnu_cxx::__normal_iterator.140", align 8
  %l = alloca i32, align 4
  %n_energy_out = alloca i32, align 4
  %n_discrete = alloca i32, align 4
  %r1 = alloca double, align 8
  %c_k = alloca double, align 8
  %k = alloca i32, align 4
  %end = alloca i32, align 4
  %j = alloca i32, align 4
  %cleanup.dest.slot = alloca i32, align 4
  %c_k1 = alloca double, align 8
  %j68 = alloca i32, align 4
  %E_l_k = alloca double, align 8
  %p_l_k = alloca double, align 8
  %E_out = alloca double, align 8
  %E_l_k1 = alloca double, align 8
  %p_l_k1 = alloca double, align 8
  %frac = alloca double, align 8
  %ref.tmp = alloca double, align 8
  %ref.tmp143 = alloca double, align 8
  %exn.slot = alloca ptr, align 8
  %ehselector.slot = alloca i32, align 4
  %E_i_1 = alloca double, align 8
  %E_i_K = alloca double, align 8
  %E_i1_1 = alloca double, align 8
  %E_i1_K = alloca double, align 8
  %E_1 = alloca double, align 8
  %E_K = alloca double, align 8
  store ptr %this, ptr %this.addr, align 8, !tbaa !35
  store double %E, ptr %E.addr, align 8, !tbaa !16
  store ptr %seed, ptr %seed.addr, align 8, !tbaa !18
  %this1 = load ptr, ptr %this.addr, align 8
  call void @llvm.lifetime.start.p0(i64 1, ptr %histogram_interp) #6
  %n_region_ = getelementptr inbounds nuw %"class.openmc::ContinuousTabular", ptr %this1, i32 0, i32 1
  %0 = load i32, ptr %n_region_, align 8, !tbaa !37
  %cmp = icmp eq i32 %0, 1
  br i1 %cmp, label %if.then, label %if.else

if.then:                                          ; preds = %entry
  %interpolation_ = getelementptr inbounds nuw %"class.openmc::ContinuousTabular", ptr %this1, i32 0, i32 3
  %call = call noundef nonnull align 4 dereferenceable(4) ptr @_ZNKSt6vectorIN6openmc13InterpolationESaIS1_EEixEm(ptr noundef nonnull align 8 dereferenceable(24) %interpolation_, i64 noundef 0) #6
  %1 = load i32, ptr %call, align 4, !tbaa !58
  %cmp2 = icmp eq i32 %1, 1
  %storedv = zext i1 %cmp2 to i8
  store i8 %storedv, ptr %histogram_interp, align 1, !tbaa !60
  br label %if.end

if.else:                                          ; preds = %entry
  store i8 0, ptr %histogram_interp, align 1, !tbaa !60
  br label %if.end

if.end:                                           ; preds = %if.else, %if.then
  call void @llvm.lifetime.start.p0(i64 8, ptr %n_energy_in) #6
  %energy_ = getelementptr inbounds nuw %"class.openmc::ContinuousTabular", ptr %this1, i32 0, i32 4
  %call3 = call noundef i64 @_ZNKSt6vectorIdSaIdEE4sizeEv(ptr noundef nonnull align 8 dereferenceable(24) %energy_) #6
  store i64 %call3, ptr %n_energy_in, align 8, !tbaa !62
  call void @llvm.lifetime.start.p0(i64 4, ptr %i) #6
  call void @llvm.lifetime.start.p0(i64 8, ptr %r) #6
  %2 = load double, ptr %E.addr, align 8, !tbaa !16
  %energy_4 = getelementptr inbounds nuw %"class.openmc::ContinuousTabular", ptr %this1, i32 0, i32 4
  %call5 = call noundef nonnull align 8 dereferenceable(8) ptr @_ZNKSt6vectorIdSaIdEEixEm(ptr noundef nonnull align 8 dereferenceable(24) %energy_4, i64 noundef 0) #6
  %3 = load double, ptr %call5, align 8, !tbaa !16
  %cmp6 = fcmp olt double %2, %3
  br i1 %cmp6, label %if.then7, label %if.else8

if.then7:                                         ; preds = %if.end
  store i32 0, ptr %i, align 4, !tbaa !64
  store double 0.000000e+00, ptr %r, align 8, !tbaa !16
  br label %if.end37

if.else8:                                         ; preds = %if.end
  %4 = load double, ptr %E.addr, align 8, !tbaa !16
  %energy_9 = getelementptr inbounds nuw %"class.openmc::ContinuousTabular", ptr %this1, i32 0, i32 4
  %5 = load i64, ptr %n_energy_in, align 8, !tbaa !62
  %sub = sub i64 %5, 1
  %call10 = call noundef nonnull align 8 dereferenceable(8) ptr @_ZNKSt6vectorIdSaIdEEixEm(ptr noundef nonnull align 8 dereferenceable(24) %energy_9, i64 noundef %sub) #6
  %6 = load double, ptr %call10, align 8, !tbaa !16
  %cmp11 = fcmp ogt double %4, %6
  br i1 %cmp11, label %if.then12, label %if.else14

if.then12:                                        ; preds = %if.else8
  %7 = load i64, ptr %n_energy_in, align 8, !tbaa !62
  %sub13 = sub i64 %7, 2
  %conv = trunc i64 %sub13 to i32
  store i32 %conv, ptr %i, align 4, !tbaa !64
  store double 1.000000e+00, ptr %r, align 8, !tbaa !16
  br label %if.end36

if.else14:                                        ; preds = %if.else8
  %energy_15 = getelementptr inbounds nuw %"class.openmc::ContinuousTabular", ptr %this1, i32 0, i32 4
  %call16 = call ptr @_ZNKSt6vectorIdSaIdEE5beginEv(ptr noundef nonnull align 8 dereferenceable(24) %energy_15) #6
  %coerce.dive = getelementptr inbounds nuw %"class.__gnu_cxx::__normal_iterator.140", ptr %agg.tmp, i32 0, i32 0
  store ptr %call16, ptr %coerce.dive, align 8
  %energy_18 = getelementptr inbounds nuw %"class.openmc::ContinuousTabular", ptr %this1, i32 0, i32 4
  %call19 = call ptr @_ZNKSt6vectorIdSaIdEE3endEv(ptr noundef nonnull align 8 dereferenceable(24) %energy_18) #6
  %coerce.dive20 = getelementptr inbounds nuw %"class.__gnu_cxx::__normal_iterator.140", ptr %agg.tmp17, i32 0, i32 0
  store ptr %call19, ptr %coerce.dive20, align 8
  %coerce.dive21 = getelementptr inbounds nuw %"class.__gnu_cxx::__normal_iterator.140", ptr %agg.tmp, i32 0, i32 0
  %8 = load ptr, ptr %coerce.dive21, align 8
  %coerce.dive22 = getelementptr inbounds nuw %"class.__gnu_cxx::__normal_iterator.140", ptr %agg.tmp17, i32 0, i32 0
  %9 = load ptr, ptr %coerce.dive22, align 8
  %call23 = call noundef i64 @_ZN6openmc17lower_bound_indexIN9__gnu_cxx17__normal_iteratorIPKdSt6vectorIdSaIdEEEEdEENSt15iterator_traitsIT_E15difference_typeESA_SA_RKT0_(ptr %8, ptr %9, ptr noundef nonnull align 8 dereferenceable(8) %E.addr)
  %conv24 = trunc i64 %call23 to i32
  store i32 %conv24, ptr %i, align 4, !tbaa !64
  %10 = load double, ptr %E.addr, align 8, !tbaa !16
  %energy_25 = getelementptr inbounds nuw %"class.openmc::ContinuousTabular", ptr %this1, i32 0, i32 4
  %11 = load i32, ptr %i, align 4, !tbaa !64
  %conv26 = sext i32 %11 to i64
  %call27 = call noundef nonnull align 8 dereferenceable(8) ptr @_ZNKSt6vectorIdSaIdEEixEm(ptr noundef nonnull align 8 dereferenceable(24) %energy_25, i64 noundef %conv26) #6
  %12 = load double, ptr %call27, align 8, !tbaa !16
  %sub28 = fsub double %10, %12
  %energy_29 = getelementptr inbounds nuw %"class.openmc::ContinuousTabular", ptr %this1, i32 0, i32 4
  %13 = load i32, ptr %i, align 4, !tbaa !64
  %add = add nsw i32 %13, 1
  %conv30 = sext i32 %add to i64
  %call31 = call noundef nonnull align 8 dereferenceable(8) ptr @_ZNKSt6vectorIdSaIdEEixEm(ptr noundef nonnull align 8 dereferenceable(24) %energy_29, i64 noundef %conv30) #6
  %14 = load double, ptr %call31, align 8, !tbaa !16
  %energy_32 = getelementptr inbounds nuw %"class.openmc::ContinuousTabular", ptr %this1, i32 0, i32 4
  %15 = load i32, ptr %i, align 4, !tbaa !64
  %conv33 = sext i32 %15 to i64
  %call34 = call noundef nonnull align 8 dereferenceable(8) ptr @_ZNKSt6vectorIdSaIdEEixEm(ptr noundef nonnull align 8 dereferenceable(24) %energy_32, i64 noundef %conv33) #6
  %16 = load double, ptr %call34, align 8, !tbaa !16
  %sub35 = fsub double %14, %16
  %div = fdiv double %sub28, %sub35
  store double %div, ptr %r, align 8, !tbaa !16
  br label %if.end36

if.end36:                                         ; preds = %if.else14, %if.then12
  br label %if.end37

if.end37:                                         ; preds = %if.end36, %if.then7
  call void @llvm.lifetime.start.p0(i64 4, ptr %l) #6
  %17 = load i8, ptr %histogram_interp, align 1, !tbaa !60, !range !65, !noundef !66
  %loadedv = trunc i8 %17 to i1
  br i1 %loadedv, label %if.then38, label %if.else39

if.then38:                                        ; preds = %if.end37
  %18 = load i32, ptr %i, align 4, !tbaa !64
  store i32 %18, ptr %l, align 4, !tbaa !64
  br label %if.end43

if.else39:                                        ; preds = %if.end37
  %19 = load double, ptr %r, align 8, !tbaa !16
  %20 = load ptr, ptr %seed.addr, align 8, !tbaa !18
  %call40 = call noundef double @_ZN6openmc3prnEPm(ptr noundef %20)
  %cmp41 = fcmp ogt double %19, %call40
  br i1 %cmp41, label %cond.true, label %cond.false

cond.true:                                        ; preds = %if.else39
  %21 = load i32, ptr %i, align 4, !tbaa !64
  %add42 = add nsw i32 %21, 1
  br label %cond.end

cond.false:                                       ; preds = %if.else39
  %22 = load i32, ptr %i, align 4, !tbaa !64
  br label %cond.end

cond.end:                                         ; preds = %cond.false, %cond.true
  %cond = phi i32 [ %add42, %cond.true ], [ %22, %cond.false ]
  store i32 %cond, ptr %l, align 4, !tbaa !64
  br label %if.end43

if.end43:                                         ; preds = %cond.end, %if.then38
  call void @llvm.lifetime.start.p0(i64 4, ptr %n_energy_out) #6
  %distribution_ = getelementptr inbounds nuw %"class.openmc::ContinuousTabular", ptr %this1, i32 0, i32 5
  %23 = load i32, ptr %l, align 4, !tbaa !64
  %conv44 = sext i32 %23 to i64
  %call45 = call noundef nonnull align 8 dereferenceable(224) ptr @_ZNKSt6vectorIN6openmc17ContinuousTabular7CTTableESaIS2_EEixEm(ptr noundef nonnull align 8 dereferenceable(24) %distribution_, i64 noundef %conv44) #6
  %e_out = getelementptr inbounds nuw %"struct.openmc::ContinuousTabular::CTTable", ptr %call45, i32 0, i32 2
  %call46 = call noundef i64 @_ZNK2xt10xcontainerINS_17xtensor_containerINS_7uvectorIdSaIdEEELm1ELNS_11layout_typeE1ENS_22xtensor_expression_tagEEEE4sizeEv(ptr noundef nonnull align 1 dereferenceable(1) %e_out) #6
  %conv47 = trunc i64 %call46 to i32
  store i32 %conv47, ptr %n_energy_out, align 4, !tbaa !64
  call void @llvm.lifetime.start.p0(i64 4, ptr %n_discrete) #6
  %distribution_48 = getelementptr inbounds nuw %"class.openmc::ContinuousTabular", ptr %this1, i32 0, i32 5
  %24 = load i32, ptr %l, align 4, !tbaa !64
  %conv49 = sext i32 %24 to i64
  %call50 = call noundef nonnull align 8 dereferenceable(224) ptr @_ZNKSt6vectorIN6openmc17ContinuousTabular7CTTableESaIS2_EEixEm(ptr noundef nonnull align 8 dereferenceable(24) %distribution_48, i64 noundef %conv49) #6
  %n_discrete51 = getelementptr inbounds nuw %"struct.openmc::ContinuousTabular::CTTable", ptr %call50, i32 0, i32 1
  %25 = load i32, ptr %n_discrete51, align 4, !tbaa !67
  store i32 %25, ptr %n_discrete, align 4, !tbaa !64
  call void @llvm.lifetime.start.p0(i64 8, ptr %r1) #6
  %26 = load ptr, ptr %seed.addr, align 8, !tbaa !18
  %call52 = call noundef double @_ZN6openmc3prnEPm(ptr noundef %26)
  store double %call52, ptr %r1, align 8, !tbaa !16
  call void @llvm.lifetime.start.p0(i64 8, ptr %c_k) #6
  %distribution_53 = getelementptr inbounds nuw %"class.openmc::ContinuousTabular", ptr %this1, i32 0, i32 5
  %27 = load i32, ptr %l, align 4, !tbaa !64
  %conv54 = sext i32 %27 to i64
  %call55 = call noundef nonnull align 8 dereferenceable(224) ptr @_ZNKSt6vectorIN6openmc17ContinuousTabular7CTTableESaIS2_EEixEm(ptr noundef nonnull align 8 dereferenceable(24) %distribution_53, i64 noundef %conv54) #6
  %c = getelementptr inbounds nuw %"struct.openmc::ContinuousTabular::CTTable", ptr %call55, i32 0, i32 4
  %call56 = call noundef nonnull align 8 dereferenceable(8) ptr @_ZNK2xt17xconst_accessibleINS_17xtensor_containerINS_7uvectorIdSaIdEEELm1ELNS_11layout_typeE1ENS_22xtensor_expression_tagEEEEixEm(ptr noundef nonnull align 1 dereferenceable(1) %c, i64 noundef 0)
  %28 = load double, ptr %call56, align 8, !tbaa !16
  store double %28, ptr %c_k, align 8, !tbaa !16
  call void @llvm.lifetime.start.p0(i64 4, ptr %k) #6
  store i32 0, ptr %k, align 4, !tbaa !64
  call void @llvm.lifetime.start.p0(i64 4, ptr %end) #6
  %29 = load i32, ptr %n_energy_out, align 4, !tbaa !64
  %sub57 = sub nsw i32 %29, 2
  store i32 %sub57, ptr %end, align 4, !tbaa !64
  call void @llvm.lifetime.start.p0(i64 4, ptr %j) #6
  store i32 0, ptr %j, align 4, !tbaa !64
  br label %for.cond

for.cond:                                         ; preds = %for.inc, %if.end43
  %30 = load i32, ptr %j, align 4, !tbaa !64
  %31 = load i32, ptr %n_discrete, align 4, !tbaa !64
  %cmp58 = icmp slt i32 %30, %31
  br i1 %cmp58, label %for.body, label %for.cond.cleanup

for.cond.cleanup:                                 ; preds = %for.cond
  store i32 2, ptr %cleanup.dest.slot, align 4
  br label %cleanup

for.body:                                         ; preds = %for.cond
  %32 = load i32, ptr %j, align 4, !tbaa !64
  store i32 %32, ptr %k, align 4, !tbaa !64
  %distribution_59 = getelementptr inbounds nuw %"class.openmc::ContinuousTabular", ptr %this1, i32 0, i32 5
  %33 = load i32, ptr %l, align 4, !tbaa !64
  %conv60 = sext i32 %33 to i64
  %call61 = call noundef nonnull align 8 dereferenceable(224) ptr @_ZNKSt6vectorIN6openmc17ContinuousTabular7CTTableESaIS2_EEixEm(ptr noundef nonnull align 8 dereferenceable(24) %distribution_59, i64 noundef %conv60) #6
  %c62 = getelementptr inbounds nuw %"struct.openmc::ContinuousTabular::CTTable", ptr %call61, i32 0, i32 4
  %34 = load i32, ptr %k, align 4, !tbaa !64
  %conv63 = sext i32 %34 to i64
  %call64 = call noundef nonnull align 8 dereferenceable(8) ptr @_ZNK2xt17xconst_accessibleINS_17xtensor_containerINS_7uvectorIdSaIdEEELm1ELNS_11layout_typeE1ENS_22xtensor_expression_tagEEEEixEm(ptr noundef nonnull align 1 dereferenceable(1) %c62, i64 noundef %conv63)
  %35 = load double, ptr %call64, align 8, !tbaa !16
  store double %35, ptr %c_k, align 8, !tbaa !16
  %36 = load double, ptr %r1, align 8, !tbaa !16
  %37 = load double, ptr %c_k, align 8, !tbaa !16
  %cmp65 = fcmp olt double %36, %37
  br i1 %cmp65, label %if.then66, label %if.end67

if.then66:                                        ; preds = %for.body
  %38 = load i32, ptr %j, align 4, !tbaa !64
  store i32 %38, ptr %end, align 4, !tbaa !64
  store i32 2, ptr %cleanup.dest.slot, align 4
  br label %cleanup

if.end67:                                         ; preds = %for.body
  br label %for.inc

for.inc:                                          ; preds = %if.end67
  %39 = load i32, ptr %j, align 4, !tbaa !64
  %inc = add nsw i32 %39, 1
  store i32 %inc, ptr %j, align 4, !tbaa !64
  br label %for.cond, !llvm.loop !84

cleanup:                                          ; preds = %if.then66, %for.cond.cleanup
  call void @llvm.lifetime.end.p0(i64 4, ptr %j) #6
  br label %for.end

for.end:                                          ; preds = %cleanup
  call void @llvm.lifetime.start.p0(i64 8, ptr %c_k1) #6
  call void @llvm.lifetime.start.p0(i64 4, ptr %j68) #6
  %40 = load i32, ptr %n_discrete, align 4, !tbaa !64
  store i32 %40, ptr %j68, align 4, !tbaa !64
  br label %for.cond69

for.cond69:                                       ; preds = %for.inc84, %for.end
  %41 = load i32, ptr %j68, align 4, !tbaa !64
  %42 = load i32, ptr %end, align 4, !tbaa !64
  %cmp70 = icmp slt i32 %41, %42
  br i1 %cmp70, label %for.body72, label %for.cond.cleanup71

for.cond.cleanup71:                               ; preds = %for.cond69
  store i32 5, ptr %cleanup.dest.slot, align 4
  br label %cleanup86

for.body72:                                       ; preds = %for.cond69
  %43 = load i32, ptr %j68, align 4, !tbaa !64
  store i32 %43, ptr %k, align 4, !tbaa !64
  %distribution_73 = getelementptr inbounds nuw %"class.openmc::ContinuousTabular", ptr %this1, i32 0, i32 5
  %44 = load i32, ptr %l, align 4, !tbaa !64
  %conv74 = sext i32 %44 to i64
  %call75 = call noundef nonnull align 8 dereferenceable(224) ptr @_ZNKSt6vectorIN6openmc17ContinuousTabular7CTTableESaIS2_EEixEm(ptr noundef nonnull align 8 dereferenceable(24) %distribution_73, i64 noundef %conv74) #6
  %c76 = getelementptr inbounds nuw %"struct.openmc::ContinuousTabular::CTTable", ptr %call75, i32 0, i32 4
  %45 = load i32, ptr %k, align 4, !tbaa !64
  %add77 = add nsw i32 %45, 1
  %conv78 = sext i32 %add77 to i64
  %call79 = call noundef nonnull align 8 dereferenceable(8) ptr @_ZNK2xt17xconst_accessibleINS_17xtensor_containerINS_7uvectorIdSaIdEEELm1ELNS_11layout_typeE1ENS_22xtensor_expression_tagEEEEixEm(ptr noundef nonnull align 1 dereferenceable(1) %c76, i64 noundef %conv78)
  %46 = load double, ptr %call79, align 8, !tbaa !16
  store double %46, ptr %c_k1, align 8, !tbaa !16
  %47 = load double, ptr %r1, align 8, !tbaa !16
  %48 = load double, ptr %c_k1, align 8, !tbaa !16
  %cmp80 = fcmp olt double %47, %48
  br i1 %cmp80, label %if.then81, label %if.end82

if.then81:                                        ; preds = %for.body72
  store i32 5, ptr %cleanup.dest.slot, align 4
  br label %cleanup86

if.end82:                                         ; preds = %for.body72
  %49 = load i32, ptr %j68, align 4, !tbaa !64
  %add83 = add nsw i32 %49, 1
  store i32 %add83, ptr %k, align 4, !tbaa !64
  %50 = load double, ptr %c_k1, align 8, !tbaa !16
  store double %50, ptr %c_k, align 8, !tbaa !16
  br label %for.inc84

for.inc84:                                        ; preds = %if.end82
  %51 = load i32, ptr %j68, align 4, !tbaa !64
  %inc85 = add nsw i32 %51, 1
  store i32 %inc85, ptr %j68, align 4, !tbaa !64
  br label %for.cond69, !llvm.loop !86

cleanup86:                                        ; preds = %if.then81, %for.cond.cleanup71
  call void @llvm.lifetime.end.p0(i64 4, ptr %j68) #6
  br label %for.end87

for.end87:                                        ; preds = %cleanup86
  call void @llvm.lifetime.start.p0(i64 8, ptr %E_l_k) #6
  %distribution_88 = getelementptr inbounds nuw %"class.openmc::ContinuousTabular", ptr %this1, i32 0, i32 5
  %52 = load i32, ptr %l, align 4, !tbaa !64
  %conv89 = sext i32 %52 to i64
  %call90 = call noundef nonnull align 8 dereferenceable(224) ptr @_ZNKSt6vectorIN6openmc17ContinuousTabular7CTTableESaIS2_EEixEm(ptr noundef nonnull align 8 dereferenceable(24) %distribution_88, i64 noundef %conv89) #6
  %e_out91 = getelementptr inbounds nuw %"struct.openmc::ContinuousTabular::CTTable", ptr %call90, i32 0, i32 2
  %53 = load i32, ptr %k, align 4, !tbaa !64
  %conv92 = sext i32 %53 to i64
  %call93 = call noundef nonnull align 8 dereferenceable(8) ptr @_ZNK2xt17xconst_accessibleINS_17xtensor_containerINS_7uvectorIdSaIdEEELm1ELNS_11layout_typeE1ENS_22xtensor_expression_tagEEEEixEm(ptr noundef nonnull align 1 dereferenceable(1) %e_out91, i64 noundef %conv92)
  %54 = load double, ptr %call93, align 8, !tbaa !16
  store double %54, ptr %E_l_k, align 8, !tbaa !16
  call void @llvm.lifetime.start.p0(i64 8, ptr %p_l_k) #6
  %distribution_94 = getelementptr inbounds nuw %"class.openmc::ContinuousTabular", ptr %this1, i32 0, i32 5
  %55 = load i32, ptr %l, align 4, !tbaa !64
  %conv95 = sext i32 %55 to i64
  %call96 = call noundef nonnull align 8 dereferenceable(224) ptr @_ZNKSt6vectorIN6openmc17ContinuousTabular7CTTableESaIS2_EEixEm(ptr noundef nonnull align 8 dereferenceable(24) %distribution_94, i64 noundef %conv95) #6
  %p = getelementptr inbounds nuw %"struct.openmc::ContinuousTabular::CTTable", ptr %call96, i32 0, i32 3
  %56 = load i32, ptr %k, align 4, !tbaa !64
  %conv97 = sext i32 %56 to i64
  %call98 = call noundef nonnull align 8 dereferenceable(8) ptr @_ZNK2xt17xconst_accessibleINS_17xtensor_containerINS_7uvectorIdSaIdEEELm1ELNS_11layout_typeE1ENS_22xtensor_expression_tagEEEEixEm(ptr noundef nonnull align 1 dereferenceable(1) %p, i64 noundef %conv97)
  %57 = load double, ptr %call98, align 8, !tbaa !16
  store double %57, ptr %p_l_k, align 8, !tbaa !16
  call void @llvm.lifetime.start.p0(i64 8, ptr %E_out) #6
  %58 = load double, ptr %E_l_k, align 8, !tbaa !16
  store double %58, ptr %E_out, align 8, !tbaa !16
  %distribution_99 = getelementptr inbounds nuw %"class.openmc::ContinuousTabular", ptr %this1, i32 0, i32 5
  %59 = load i32, ptr %l, align 4, !tbaa !64
  %conv100 = sext i32 %59 to i64
  %call101 = call noundef nonnull align 8 dereferenceable(224) ptr @_ZNKSt6vectorIN6openmc17ContinuousTabular7CTTableESaIS2_EEixEm(ptr noundef nonnull align 8 dereferenceable(24) %distribution_99, i64 noundef %conv100) #6
  %interpolation = getelementptr inbounds nuw %"struct.openmc::ContinuousTabular::CTTable", ptr %call101, i32 0, i32 0
  %60 = load i32, ptr %interpolation, align 8, !tbaa !87
  %cmp102 = icmp eq i32 %60, 1
  br i1 %cmp102, label %if.then103, label %if.else111

if.then103:                                       ; preds = %for.end87
  %61 = load double, ptr %p_l_k, align 8, !tbaa !16
  %cmp104 = fcmp ogt double %61, 0.000000e+00
  br i1 %cmp104, label %land.lhs.true, label %if.end110

land.lhs.true:                                    ; preds = %if.then103
  %62 = load i32, ptr %k, align 4, !tbaa !64
  %63 = load i32, ptr %n_discrete, align 4, !tbaa !64
  %cmp105 = icmp sge i32 %62, %63
  br i1 %cmp105, label %if.then106, label %if.end110

if.then106:                                       ; preds = %land.lhs.true
  %64 = load double, ptr %E_l_k, align 8, !tbaa !16
  %65 = load double, ptr %r1, align 8, !tbaa !16
  %66 = load double, ptr %c_k, align 8, !tbaa !16
  %sub107 = fsub double %65, %66
  %67 = load double, ptr %p_l_k, align 8, !tbaa !16
  %div108 = fdiv double %sub107, %67
  %add109 = fadd double %64, %div108
  store double %add109, ptr %E_out, align 8, !tbaa !16
  br label %if.end110

if.end110:                                        ; preds = %if.then106, %land.lhs.true, %if.then103
  br label %if.end156

if.else111:                                       ; preds = %for.end87
  %distribution_112 = getelementptr inbounds nuw %"class.openmc::ContinuousTabular", ptr %this1, i32 0, i32 5
  %68 = load i32, ptr %l, align 4, !tbaa !64
  %conv113 = sext i32 %68 to i64
  %call114 = call noundef nonnull align 8 dereferenceable(224) ptr @_ZNKSt6vectorIN6openmc17ContinuousTabular7CTTableESaIS2_EEixEm(ptr noundef nonnull align 8 dereferenceable(24) %distribution_112, i64 noundef %conv113) #6
  %interpolation115 = getelementptr inbounds nuw %"struct.openmc::ContinuousTabular::CTTable", ptr %call114, i32 0, i32 0
  %69 = load i32, ptr %interpolation115, align 8, !tbaa !87
  %cmp116 = icmp eq i32 %69, 2
  br i1 %cmp116, label %if.then117, label %if.else154

if.then117:                                       ; preds = %if.else111
  call void @llvm.lifetime.start.p0(i64 8, ptr %E_l_k1) #6
  %distribution_118 = getelementptr inbounds nuw %"class.openmc::ContinuousTabular", ptr %this1, i32 0, i32 5
  %70 = load i32, ptr %l, align 4, !tbaa !64
  %conv119 = sext i32 %70 to i64
  %call120 = call noundef nonnull align 8 dereferenceable(224) ptr @_ZNKSt6vectorIN6openmc17ContinuousTabular7CTTableESaIS2_EEixEm(ptr noundef nonnull align 8 dereferenceable(24) %distribution_118, i64 noundef %conv119) #6
  %e_out121 = getelementptr inbounds nuw %"struct.openmc::ContinuousTabular::CTTable", ptr %call120, i32 0, i32 2
  %71 = load i32, ptr %k, align 4, !tbaa !64
  %add122 = add nsw i32 %71, 1
  %conv123 = sext i32 %add122 to i64
  %call124 = call noundef nonnull align 8 dereferenceable(8) ptr @_ZNK2xt17xconst_accessibleINS_17xtensor_containerINS_7uvectorIdSaIdEEELm1ELNS_11layout_typeE1ENS_22xtensor_expression_tagEEEEixEm(ptr noundef nonnull align 1 dereferenceable(1) %e_out121, i64 noundef %conv123)
  %72 = load double, ptr %call124, align 8, !tbaa !16
  store double %72, ptr %E_l_k1, align 8, !tbaa !16
  call void @llvm.lifetime.start.p0(i64 8, ptr %p_l_k1) #6
  %distribution_125 = getelementptr inbounds nuw %"class.openmc::ContinuousTabular", ptr %this1, i32 0, i32 5
  %73 = load i32, ptr %l, align 4, !tbaa !64
  %conv126 = sext i32 %73 to i64
  %call127 = call noundef nonnull align 8 dereferenceable(224) ptr @_ZNKSt6vectorIN6openmc17ContinuousTabular7CTTableESaIS2_EEixEm(ptr noundef nonnull align 8 dereferenceable(24) %distribution_125, i64 noundef %conv126) #6
  %p128 = getelementptr inbounds nuw %"struct.openmc::ContinuousTabular::CTTable", ptr %call127, i32 0, i32 3
  %74 = load i32, ptr %k, align 4, !tbaa !64
  %add129 = add nsw i32 %74, 1
  %conv130 = sext i32 %add129 to i64
  %call131 = call noundef nonnull align 8 dereferenceable(8) ptr @_ZNK2xt17xconst_accessibleINS_17xtensor_containerINS_7uvectorIdSaIdEEELm1ELNS_11layout_typeE1ENS_22xtensor_expression_tagEEEEixEm(ptr noundef nonnull align 1 dereferenceable(1) %p128, i64 noundef %conv130)
  %75 = load double, ptr %call131, align 8, !tbaa !16
  store double %75, ptr %p_l_k1, align 8, !tbaa !16
  %76 = load double, ptr %E_l_k, align 8, !tbaa !16
  %77 = load double, ptr %E_l_k1, align 8, !tbaa !16
  %cmp132 = fcmp une double %76, %77
  br i1 %cmp132, label %if.then133, label %if.end153

if.then133:                                       ; preds = %if.then117
  call void @llvm.lifetime.start.p0(i64 8, ptr %frac) #6
  %78 = load double, ptr %p_l_k1, align 8, !tbaa !16
  %79 = load double, ptr %p_l_k, align 8, !tbaa !16
  %sub134 = fsub double %78, %79
  %80 = load double, ptr %E_l_k1, align 8, !tbaa !16
  %81 = load double, ptr %E_l_k, align 8, !tbaa !16
  %sub135 = fsub double %80, %81
  %div136 = fdiv double %sub134, %sub135
  store double %div136, ptr %frac, align 8, !tbaa !16
  %82 = load double, ptr %frac, align 8, !tbaa !16
  %cmp137 = fcmp oeq double %82, 0.000000e+00
  br i1 %cmp137, label %if.then138, label %if.else142

if.then138:                                       ; preds = %if.then133
  %83 = load double, ptr %E_l_k, align 8, !tbaa !16
  %84 = load double, ptr %r1, align 8, !tbaa !16
  %85 = load double, ptr %c_k, align 8, !tbaa !16
  %sub139 = fsub double %84, %85
  %86 = load double, ptr %p_l_k, align 8, !tbaa !16
  %div140 = fdiv double %sub139, %86
  %add141 = fadd double %83, %div140
  store double %add141, ptr %E_out, align 8, !tbaa !16
  br label %if.end152

if.else142:                                       ; preds = %if.then133
  %87 = load double, ptr %E_l_k, align 8, !tbaa !16
  call void @llvm.lifetime.start.p0(i64 8, ptr %ref.tmp) #6
  store double 0.000000e+00, ptr %ref.tmp, align 8, !tbaa !16
  call void @llvm.lifetime.start.p0(i64 8, ptr %ref.tmp143) #6
  %88 = load double, ptr %p_l_k, align 8, !tbaa !16
  %89 = load double, ptr %p_l_k, align 8, !tbaa !16
  %90 = load double, ptr %frac, align 8, !tbaa !16
  %mul144 = fmul double 2.000000e+00, %90
  %91 = load double, ptr %r1, align 8, !tbaa !16
  %92 = load double, ptr %c_k, align 8, !tbaa !16
  %sub145 = fsub double %91, %92
  %mul146 = fmul double %mul144, %sub145
  %93 = call double @llvm.fmuladd.f64(double %88, double %89, double %mul146)
  store double %93, ptr %ref.tmp143, align 8, !tbaa !16
  %call147 = call noundef nonnull align 8 dereferenceable(8) ptr @_ZSt3maxIdERKT_S2_S2_(ptr noundef nonnull align 8 dereferenceable(8) %ref.tmp, ptr noundef nonnull align 8 dereferenceable(8) %ref.tmp143)
  %94 = load double, ptr %call147, align 8, !tbaa !16
  %call148 = call double @sqrt(double noundef %94) #6, !tbaa !64
  %95 = load double, ptr %p_l_k, align 8, !tbaa !16
  %sub149 = fsub double %call148, %95
  %96 = load double, ptr %frac, align 8, !tbaa !16
  %div150 = fdiv double %sub149, %96
  %add151 = fadd double %87, %div150
  store double %add151, ptr %E_out, align 8, !tbaa !16
  call void @llvm.lifetime.end.p0(i64 8, ptr %ref.tmp143) #6
  call void @llvm.lifetime.end.p0(i64 8, ptr %ref.tmp) #6
  br label %if.end152

if.end152:                                        ; preds = %if.else142, %if.then138
  call void @llvm.lifetime.end.p0(i64 8, ptr %frac) #6
  br label %if.end153

if.end153:                                        ; preds = %if.end152, %if.then117
  call void @llvm.lifetime.end.p0(i64 8, ptr %p_l_k1) #6
  call void @llvm.lifetime.end.p0(i64 8, ptr %E_l_k1) #6
  br label %if.end155

if.else154:                                       ; preds = %if.else111
  %exception = call ptr @__cxa_allocate_exception(i64 16) #6
  invoke void @_ZNSt13runtime_errorC1EPKc(ptr noundef nonnull align 8 dereferenceable(16) %exception, ptr noundef @.str.13)
          to label %invoke.cont unwind label %lpad

invoke.cont:                                      ; preds = %if.else154
  call void @__cxa_throw(ptr %exception, ptr @_ZTISt13runtime_error, ptr @_ZNSt13runtime_errorD1Ev) #23
  unreachable

lpad:                                             ; preds = %if.else154
  %97 = landingpad { ptr, i32 }
          cleanup
  %98 = extractvalue { ptr, i32 } %97, 0
  store ptr %98, ptr %exn.slot, align 8
  %99 = extractvalue { ptr, i32 } %97, 1
  store i32 %99, ptr %ehselector.slot, align 4
  call void @__cxa_free_exception(ptr %exception) #6
  call void @llvm.lifetime.end.p0(i64 8, ptr %E_out) #6
  call void @llvm.lifetime.end.p0(i64 8, ptr %p_l_k) #6
  call void @llvm.lifetime.end.p0(i64 8, ptr %E_l_k) #6
  call void @llvm.lifetime.end.p0(i64 8, ptr %c_k1) #6
  call void @llvm.lifetime.end.p0(i64 4, ptr %end) #6
  call void @llvm.lifetime.end.p0(i64 4, ptr %k) #6
  call void @llvm.lifetime.end.p0(i64 8, ptr %c_k) #6
  call void @llvm.lifetime.end.p0(i64 8, ptr %r1) #6
  call void @llvm.lifetime.end.p0(i64 4, ptr %n_discrete) #6
  call void @llvm.lifetime.end.p0(i64 4, ptr %n_energy_out) #6
  call void @llvm.lifetime.end.p0(i64 4, ptr %l) #6
  call void @llvm.lifetime.end.p0(i64 8, ptr %r) #6
  call void @llvm.lifetime.end.p0(i64 4, ptr %i) #6
  call void @llvm.lifetime.end.p0(i64 8, ptr %n_energy_in) #6
  call void @llvm.lifetime.end.p0(i64 1, ptr %histogram_interp) #6
  br label %eh.resume

if.end155:                                        ; preds = %if.end153
  br label %if.end156

if.end156:                                        ; preds = %if.end155, %if.end110
  %100 = load i8, ptr %histogram_interp, align 1, !tbaa !60, !range !65, !noundef !66
  %loadedv157 = trunc i8 %100 to i1
  br i1 %loadedv157, label %if.else235, label %land.lhs.true158

land.lhs.true158:                                 ; preds = %if.end156
  %101 = load i32, ptr %n_energy_out, align 4, !tbaa !64
  %cmp159 = icmp sgt i32 %101, 1
  br i1 %cmp159, label %land.lhs.true160, label %if.else235

land.lhs.true160:                                 ; preds = %land.lhs.true158
  %102 = load i32, ptr %k, align 4, !tbaa !64
  %103 = load i32, ptr %n_discrete, align 4, !tbaa !64
  %cmp161 = icmp sge i32 %102, %103
  br i1 %cmp161, label %if.then162, label %if.else235

if.then162:                                       ; preds = %land.lhs.true160
  %distribution_163 = getelementptr inbounds nuw %"class.openmc::ContinuousTabular", ptr %this1, i32 0, i32 5
  %104 = load i32, ptr %i, align 4, !tbaa !64
  %conv164 = sext i32 %104 to i64
  %call165 = call noundef nonnull align 8 dereferenceable(224) ptr @_ZNKSt6vectorIN6openmc17ContinuousTabular7CTTableESaIS2_EEixEm(ptr noundef nonnull align 8 dereferenceable(24) %distribution_163, i64 noundef %conv164) #6
  %e_out166 = getelementptr inbounds nuw %"struct.openmc::ContinuousTabular::CTTable", ptr %call165, i32 0, i32 2
  %call167 = call noundef i64 @_ZNK2xt10xcontainerINS_17xtensor_containerINS_7uvectorIdSaIdEEELm1ELNS_11layout_typeE1ENS_22xtensor_expression_tagEEEE4sizeEv(ptr noundef nonnull align 1 dereferenceable(1) %e_out166) #6
  %conv168 = trunc i64 %call167 to i32
  store i32 %conv168, ptr %n_energy_out, align 4, !tbaa !64
  %distribution_169 = getelementptr inbounds nuw %"class.openmc::ContinuousTabular", ptr %this1, i32 0, i32 5
  %105 = load i32, ptr %i, align 4, !tbaa !64
  %conv170 = sext i32 %105 to i64
  %call171 = call noundef nonnull align 8 dereferenceable(224) ptr @_ZNKSt6vectorIN6openmc17ContinuousTabular7CTTableESaIS2_EEixEm(ptr noundef nonnull align 8 dereferenceable(24) %distribution_169, i64 noundef %conv170) #6
  %n_discrete172 = getelementptr inbounds nuw %"struct.openmc::ContinuousTabular::CTTable", ptr %call171, i32 0, i32 1
  %106 = load i32, ptr %n_discrete172, align 4, !tbaa !67
  store i32 %106, ptr %n_discrete, align 4, !tbaa !64
  call void @llvm.lifetime.start.p0(i64 8, ptr %E_i_1) #6
  %distribution_173 = getelementptr inbounds nuw %"class.openmc::ContinuousTabular", ptr %this1, i32 0, i32 5
  %107 = load i32, ptr %i, align 4, !tbaa !64
  %conv174 = sext i32 %107 to i64
  %call175 = call noundef nonnull align 8 dereferenceable(224) ptr @_ZNKSt6vectorIN6openmc17ContinuousTabular7CTTableESaIS2_EEixEm(ptr noundef nonnull align 8 dereferenceable(24) %distribution_173, i64 noundef %conv174) #6
  %e_out176 = getelementptr inbounds nuw %"struct.openmc::ContinuousTabular::CTTable", ptr %call175, i32 0, i32 2
  %108 = load i32, ptr %n_discrete, align 4, !tbaa !64
  %conv177 = sext i32 %108 to i64
  %call178 = call noundef nonnull align 8 dereferenceable(8) ptr @_ZNK2xt17xconst_accessibleINS_17xtensor_containerINS_7uvectorIdSaIdEEELm1ELNS_11layout_typeE1ENS_22xtensor_expression_tagEEEEixEm(ptr noundef nonnull align 1 dereferenceable(1) %e_out176, i64 noundef %conv177)
  %109 = load double, ptr %call178, align 8, !tbaa !16
  store double %109, ptr %E_i_1, align 8, !tbaa !16
  call void @llvm.lifetime.start.p0(i64 8, ptr %E_i_K) #6
  %distribution_179 = getelementptr inbounds nuw %"class.openmc::ContinuousTabular", ptr %this1, i32 0, i32 5
  %110 = load i32, ptr %i, align 4, !tbaa !64
  %conv180 = sext i32 %110 to i64
  %call181 = call noundef nonnull align 8 dereferenceable(224) ptr @_ZNKSt6vectorIN6openmc17ContinuousTabular7CTTableESaIS2_EEixEm(ptr noundef nonnull align 8 dereferenceable(24) %distribution_179, i64 noundef %conv180) #6
  %e_out182 = getelementptr inbounds nuw %"struct.openmc::ContinuousTabular::CTTable", ptr %call181, i32 0, i32 2
  %111 = load i32, ptr %n_energy_out, align 4, !tbaa !64
  %sub183 = sub nsw i32 %111, 1
  %conv184 = sext i32 %sub183 to i64
  %call185 = call noundef nonnull align 8 dereferenceable(8) ptr @_ZNK2xt17xconst_accessibleINS_17xtensor_containerINS_7uvectorIdSaIdEEELm1ELNS_11layout_typeE1ENS_22xtensor_expression_tagEEEEixEm(ptr noundef nonnull align 1 dereferenceable(1) %e_out182, i64 noundef %conv184)
  %112 = load double, ptr %call185, align 8, !tbaa !16
  store double %112, ptr %E_i_K, align 8, !tbaa !16
  %distribution_186 = getelementptr inbounds nuw %"class.openmc::ContinuousTabular", ptr %this1, i32 0, i32 5
  %113 = load i32, ptr %i, align 4, !tbaa !64
  %add187 = add nsw i32 %113, 1
  %conv188 = sext i32 %add187 to i64
  %call189 = call noundef nonnull align 8 dereferenceable(224) ptr @_ZNKSt6vectorIN6openmc17ContinuousTabular7CTTableESaIS2_EEixEm(ptr noundef nonnull align 8 dereferenceable(24) %distribution_186, i64 noundef %conv188) #6
  %e_out190 = getelementptr inbounds nuw %"struct.openmc::ContinuousTabular::CTTable", ptr %call189, i32 0, i32 2
  %call191 = call noundef i64 @_ZNK2xt10xcontainerINS_17xtensor_containerINS_7uvectorIdSaIdEEELm1ELNS_11layout_typeE1ENS_22xtensor_expression_tagEEEE4sizeEv(ptr noundef nonnull align 1 dereferenceable(1) %e_out190) #6
  %conv192 = trunc i64 %call191 to i32
  store i32 %conv192, ptr %n_energy_out, align 4, !tbaa !64
  %distribution_193 = getelementptr inbounds nuw %"class.openmc::ContinuousTabular", ptr %this1, i32 0, i32 5
  %114 = load i32, ptr %i, align 4, !tbaa !64
  %add194 = add nsw i32 %114, 1
  %conv195 = sext i32 %add194 to i64
  %call196 = call noundef nonnull align 8 dereferenceable(224) ptr @_ZNKSt6vectorIN6openmc17ContinuousTabular7CTTableESaIS2_EEixEm(ptr noundef nonnull align 8 dereferenceable(24) %distribution_193, i64 noundef %conv195) #6
  %n_discrete197 = getelementptr inbounds nuw %"struct.openmc::ContinuousTabular::CTTable", ptr %call196, i32 0, i32 1
  %115 = load i32, ptr %n_discrete197, align 4, !tbaa !67
  store i32 %115, ptr %n_discrete, align 4, !tbaa !64
  call void @llvm.lifetime.start.p0(i64 8, ptr %E_i1_1) #6
  %distribution_198 = getelementptr inbounds nuw %"class.openmc::ContinuousTabular", ptr %this1, i32 0, i32 5
  %116 = load i32, ptr %i, align 4, !tbaa !64
  %add199 = add nsw i32 %116, 1
  %conv200 = sext i32 %add199 to i64
  %call201 = call noundef nonnull align 8 dereferenceable(224) ptr @_ZNKSt6vectorIN6openmc17ContinuousTabular7CTTableESaIS2_EEixEm(ptr noundef nonnull align 8 dereferenceable(24) %distribution_198, i64 noundef %conv200) #6
  %e_out202 = getelementptr inbounds nuw %"struct.openmc::ContinuousTabular::CTTable", ptr %call201, i32 0, i32 2
  %117 = load i32, ptr %n_discrete, align 4, !tbaa !64
  %conv203 = sext i32 %117 to i64
  %call204 = call noundef nonnull align 8 dereferenceable(8) ptr @_ZNK2xt17xconst_accessibleINS_17xtensor_containerINS_7uvectorIdSaIdEEELm1ELNS_11layout_typeE1ENS_22xtensor_expression_tagEEEEixEm(ptr noundef nonnull align 1 dereferenceable(1) %e_out202, i64 noundef %conv203)
  %118 = load double, ptr %call204, align 8, !tbaa !16
  store double %118, ptr %E_i1_1, align 8, !tbaa !16
  call void @llvm.lifetime.start.p0(i64 8, ptr %E_i1_K) #6
  %distribution_205 = getelementptr inbounds nuw %"class.openmc::ContinuousTabular", ptr %this1, i32 0, i32 5
  %119 = load i32, ptr %i, align 4, !tbaa !64
  %add206 = add nsw i32 %119, 1
  %conv207 = sext i32 %add206 to i64
  %call208 = call noundef nonnull align 8 dereferenceable(224) ptr @_ZNKSt6vectorIN6openmc17ContinuousTabular7CTTableESaIS2_EEixEm(ptr noundef nonnull align 8 dereferenceable(24) %distribution_205, i64 noundef %conv207) #6
  %e_out209 = getelementptr inbounds nuw %"struct.openmc::ContinuousTabular::CTTable", ptr %call208, i32 0, i32 2
  %120 = load i32, ptr %n_energy_out, align 4, !tbaa !64
  %sub210 = sub nsw i32 %120, 1
  %conv211 = sext i32 %sub210 to i64
  %call212 = call noundef nonnull align 8 dereferenceable(8) ptr @_ZNK2xt17xconst_accessibleINS_17xtensor_containerINS_7uvectorIdSaIdEEELm1ELNS_11layout_typeE1ENS_22xtensor_expression_tagEEEEixEm(ptr noundef nonnull align 1 dereferenceable(1) %e_out209, i64 noundef %conv211)
  %121 = load double, ptr %call212, align 8, !tbaa !16
  store double %121, ptr %E_i1_K, align 8, !tbaa !16
  call void @llvm.lifetime.start.p0(i64 8, ptr %E_1) #6
  %122 = load double, ptr %E_i_1, align 8, !tbaa !16
  %123 = load double, ptr %r, align 8, !tbaa !16
  %124 = load double, ptr %E_i1_1, align 8, !tbaa !16
  %125 = load double, ptr %E_i_1, align 8, !tbaa !16
  %sub213 = fsub double %124, %125
  %126 = call double @llvm.fmuladd.f64(double %123, double %sub213, double %122)
  store double %126, ptr %E_1, align 8, !tbaa !16
  call void @llvm.lifetime.start.p0(i64 8, ptr %E_K) #6
  %127 = load double, ptr %E_i_K, align 8, !tbaa !16
  %128 = load double, ptr %r, align 8, !tbaa !16
  %129 = load double, ptr %E_i1_K, align 8, !tbaa !16
  %130 = load double, ptr %E_i_K, align 8, !tbaa !16
  %sub214 = fsub double %129, %130
  %131 = call double @llvm.fmuladd.f64(double %128, double %sub214, double %127)
  store double %131, ptr %E_K, align 8, !tbaa !16
  %132 = load i32, ptr %l, align 4, !tbaa !64
  %133 = load i32, ptr %i, align 4, !tbaa !64
  %cmp215 = icmp eq i32 %132, %133
  br i1 %cmp215, label %if.then216, label %if.else222

if.then216:                                       ; preds = %if.then162
  %134 = load double, ptr %E_1, align 8, !tbaa !16
  %135 = load double, ptr %E_out, align 8, !tbaa !16
  %136 = load double, ptr %E_i_1, align 8, !tbaa !16
  %sub217 = fsub double %135, %136
  %137 = load double, ptr %E_K, align 8, !tbaa !16
  %138 = load double, ptr %E_1, align 8, !tbaa !16
  %sub218 = fsub double %137, %138
  %mul = fmul double %sub217, %sub218
  %139 = load double, ptr %E_i_K, align 8, !tbaa !16
  %140 = load double, ptr %E_i_1, align 8, !tbaa !16
  %sub219 = fsub double %139, %140
  %div220 = fdiv double %mul, %sub219
  %add221 = fadd double %134, %div220
  store double %add221, ptr %retval, align 8
  store i32 1, ptr %cleanup.dest.slot, align 4
  br label %cleanup229

if.else222:                                       ; preds = %if.then162
  %141 = load double, ptr %E_1, align 8, !tbaa !16
  %142 = load double, ptr %E_out, align 8, !tbaa !16
  %143 = load double, ptr %E_i1_1, align 8, !tbaa !16
  %sub223 = fsub double %142, %143
  %144 = load double, ptr %E_K, align 8, !tbaa !16
  %145 = load double, ptr %E_1, align 8, !tbaa !16
  %sub224 = fsub double %144, %145
  %mul225 = fmul double %sub223, %sub224
  %146 = load double, ptr %E_i1_K, align 8, !tbaa !16
  %147 = load double, ptr %E_i1_1, align 8, !tbaa !16
  %sub226 = fsub double %146, %147
  %div227 = fdiv double %mul225, %sub226
  %add228 = fadd double %141, %div227
  store double %add228, ptr %retval, align 8
  store i32 1, ptr %cleanup.dest.slot, align 4
  br label %cleanup229

cleanup229:                                       ; preds = %if.else222, %if.then216
  call void @llvm.lifetime.end.p0(i64 8, ptr %E_K) #6
  call void @llvm.lifetime.end.p0(i64 8, ptr %E_1) #6
  call void @llvm.lifetime.end.p0(i64 8, ptr %E_i1_K) #6
  call void @llvm.lifetime.end.p0(i64 8, ptr %E_i1_1) #6
  call void @llvm.lifetime.end.p0(i64 8, ptr %E_i_K) #6
  call void @llvm.lifetime.end.p0(i64 8, ptr %E_i_1) #6
  br label %cleanup236

if.else235:                                       ; preds = %land.lhs.true160, %land.lhs.true158, %if.end156
  %148 = load double, ptr %E_out, align 8, !tbaa !16
  store double %148, ptr %retval, align 8
  store i32 1, ptr %cleanup.dest.slot, align 4
  br label %cleanup236

cleanup236:                                       ; preds = %if.else235, %cleanup229
  call void @llvm.lifetime.end.p0(i64 8, ptr %E_out) #6
  call void @llvm.lifetime.end.p0(i64 8, ptr %p_l_k) #6
  call void @llvm.lifetime.end.p0(i64 8, ptr %E_l_k) #6
  call void @llvm.lifetime.end.p0(i64 8, ptr %c_k1) #6
  call void @llvm.lifetime.end.p0(i64 4, ptr %end) #6
  call void @llvm.lifetime.end.p0(i64 4, ptr %k) #6
  call void @llvm.lifetime.end.p0(i64 8, ptr %c_k) #6
  call void @llvm.lifetime.end.p0(i64 8, ptr %r1) #6
  call void @llvm.lifetime.end.p0(i64 4, ptr %n_discrete) #6
  call void @llvm.lifetime.end.p0(i64 4, ptr %n_energy_out) #6
  call void @llvm.lifetime.end.p0(i64 4, ptr %l) #6
  call void @llvm.lifetime.end.p0(i64 8, ptr %r) #6
  call void @llvm.lifetime.end.p0(i64 4, ptr %i) #6
  call void @llvm.lifetime.end.p0(i64 8, ptr %n_energy_in) #6
  call void @llvm.lifetime.end.p0(i64 1, ptr %histogram_interp) #6
  %149 = load double, ptr %retval, align 8
  ret double %149

eh.resume:                                        ; preds = %lpad
  %exn = load ptr, ptr %exn.slot, align 8
  %sel = load i32, ptr %ehselector.slot, align 4
  %lpad.val = insertvalue { ptr, i32 } poison, ptr %exn, 0
  %lpad.val251 = insertvalue { ptr, i32 } %lpad.val, i32 %sel, 1
  resume { ptr, i32 } %lpad.val251
}

; Function Attrs: mustprogress uwtable
define void @_ZNK6openmc17ContinuousTabular9serializeERNS_10DataBufferE(ptr noundef nonnull align 8 dereferenceable(112) %this, ptr noundef nonnull align 8 dereferenceable(28) %buffer) unnamed_addr #1 align 2 personality ptr @__gxx_personality_v0 {
entry:
  %this.addr = alloca ptr, align 8
  %buffer.addr = alloca ptr, align 8
  %interp = alloca %"class.std::vector", align 8
  %__range1 = alloca ptr, align 8
  %__begin1 = alloca %"class.__gnu_cxx::__normal_iterator.141", align 8
  %__end1 = alloca %"class.__gnu_cxx::__normal_iterator.141", align 8
  %v = alloca ptr, align 8
  %ref.tmp = alloca i32, align 4
  %exn.slot = alloca ptr, align 8
  %ehselector.slot = alloca i32, align 4
  %locators = alloca %"class.std::vector", align 8
  %offset = alloca i32, align 4
  %__range123 = alloca ptr, align 8
  %__begin124 = alloca %"class.__gnu_cxx::__normal_iterator.142", align 8
  %__end127 = alloca %"class.__gnu_cxx::__normal_iterator.142", align 8
  %dist = alloca ptr, align 8
  %n_eout = alloca i64, align 8
  %__range148 = alloca ptr, align 8
  %__begin150 = alloca %"class.__gnu_cxx::__normal_iterator.142", align 8
  %__end153 = alloca %"class.__gnu_cxx::__normal_iterator.142", align 8
  %dist60 = alloca ptr, align 8
  store ptr %this, ptr %this.addr, align 8, !tbaa !35
  store ptr %buffer, ptr %buffer.addr, align 8, !tbaa !26
  %this1 = load ptr, ptr %this.addr, align 8
  %0 = load ptr, ptr %buffer.addr, align 8, !tbaa !26
  call void @_ZN6openmc10DataBuffer3addIiEENSt9enable_ifIXsr3std9is_scalarINSt5decayIT_E4typeEEE5valueEvE4typeES4_(ptr noundef nonnull align 8 dereferenceable(28) %0, i32 noundef 2)
  %1 = load ptr, ptr %buffer.addr, align 8, !tbaa !26
  %n_region_ = getelementptr inbounds nuw %"class.openmc::ContinuousTabular", ptr %this1, i32 0, i32 1
  %2 = load i32, ptr %n_region_, align 8, !tbaa !37
  call void @_ZN6openmc10DataBuffer3addIiEENSt9enable_ifIXsr3std9is_scalarINSt5decayIT_E4typeEEE5valueEvE4typeES4_(ptr noundef nonnull align 8 dereferenceable(28) %1, i32 noundef %2)
  %3 = load ptr, ptr %buffer.addr, align 8, !tbaa !26
  %breakpoints_ = getelementptr inbounds nuw %"class.openmc::ContinuousTabular", ptr %this1, i32 0, i32 2
  call void @_ZN6openmc10DataBuffer3addIiEEvRKSt6vectorIT_SaIS3_EE(ptr noundef nonnull align 8 dereferenceable(28) %3, ptr noundef nonnull align 8 dereferenceable(24) %breakpoints_)
  call void @llvm.lifetime.start.p0(i64 24, ptr %interp) #6
  call void @_ZNSt6vectorIiSaIiEEC2Ev(ptr noundef nonnull align 8 dereferenceable(24) %interp) #6
  call void @llvm.lifetime.start.p0(i64 8, ptr %__range1) #6
  %interpolation_ = getelementptr inbounds nuw %"class.openmc::ContinuousTabular", ptr %this1, i32 0, i32 3
  store ptr %interpolation_, ptr %__range1, align 8, !tbaa !88
  call void @llvm.lifetime.start.p0(i64 8, ptr %__begin1) #6
  %4 = load ptr, ptr %__range1, align 8, !tbaa !88
  %call = call ptr @_ZNKSt6vectorIN6openmc13InterpolationESaIS1_EE5beginEv(ptr noundef nonnull align 8 dereferenceable(24) %4) #6
  %coerce.dive = getelementptr inbounds nuw %"class.__gnu_cxx::__normal_iterator.141", ptr %__begin1, i32 0, i32 0
  store ptr %call, ptr %coerce.dive, align 8
  call void @llvm.lifetime.start.p0(i64 8, ptr %__end1) #6
  %5 = load ptr, ptr %__range1, align 8, !tbaa !88
  %call2 = call ptr @_ZNKSt6vectorIN6openmc13InterpolationESaIS1_EE3endEv(ptr noundef nonnull align 8 dereferenceable(24) %5) #6
  %coerce.dive3 = getelementptr inbounds nuw %"class.__gnu_cxx::__normal_iterator.141", ptr %__end1, i32 0, i32 0
  store ptr %call2, ptr %coerce.dive3, align 8
  br label %for.cond

for.cond:                                         ; preds = %for.inc, %entry
  %call4 = call noundef zeroext i1 @_ZN9__gnu_cxxneIPKN6openmc13InterpolationESt6vectorIS2_SaIS2_EEEEbRKNS_17__normal_iteratorIT_T0_EESD_(ptr noundef nonnull align 8 dereferenceable(8) %__begin1, ptr noundef nonnull align 8 dereferenceable(8) %__end1) #6
  br i1 %call4, label %for.body, label %for.cond.cleanup

for.cond.cleanup:                                 ; preds = %for.cond
  call void @llvm.lifetime.end.p0(i64 8, ptr %__end1) #6
  call void @llvm.lifetime.end.p0(i64 8, ptr %__begin1) #6
  call void @llvm.lifetime.end.p0(i64 8, ptr %__range1) #6
  br label %for.end

for.body:                                         ; preds = %for.cond
  call void @llvm.lifetime.start.p0(i64 8, ptr %v) #6
  %call5 = call noundef nonnull align 4 dereferenceable(4) ptr @_ZNK9__gnu_cxx17__normal_iteratorIPKN6openmc13InterpolationESt6vectorIS2_SaIS2_EEEdeEv(ptr noundef nonnull align 8 dereferenceable(8) %__begin1) #6
  store ptr %call5, ptr %v, align 8, !tbaa !90
  call void @llvm.lifetime.start.p0(i64 4, ptr %ref.tmp) #6
  %6 = load ptr, ptr %v, align 8, !tbaa !90
  %7 = load i32, ptr %6, align 4, !tbaa !58
  store i32 %7, ptr %ref.tmp, align 4, !tbaa !64
  invoke void @_ZNSt6vectorIiSaIiEE9push_backEOi(ptr noundef nonnull align 8 dereferenceable(24) %interp, ptr noundef nonnull align 4 dereferenceable(4) %ref.tmp)
          to label %invoke.cont unwind label %lpad

invoke.cont:                                      ; preds = %for.body
  call void @llvm.lifetime.end.p0(i64 4, ptr %ref.tmp) #6
  call void @llvm.lifetime.end.p0(i64 8, ptr %v) #6
  br label %for.inc

for.inc:                                          ; preds = %invoke.cont
  %call6 = call noundef nonnull align 8 dereferenceable(8) ptr @_ZN9__gnu_cxx17__normal_iteratorIPKN6openmc13InterpolationESt6vectorIS2_SaIS2_EEEppEv(ptr noundef nonnull align 8 dereferenceable(8) %__begin1) #6
  br label %for.cond

lpad:                                             ; preds = %for.body
  %8 = landingpad { ptr, i32 }
          cleanup
  %9 = extractvalue { ptr, i32 } %8, 0
  store ptr %9, ptr %exn.slot, align 8
  %10 = extractvalue { ptr, i32 } %8, 1
  store i32 %10, ptr %ehselector.slot, align 4
  call void @llvm.lifetime.end.p0(i64 4, ptr %ref.tmp) #6
  call void @llvm.lifetime.end.p0(i64 8, ptr %v) #6
  call void @llvm.lifetime.end.p0(i64 8, ptr %__end1) #6
  call void @llvm.lifetime.end.p0(i64 8, ptr %__begin1) #6
  call void @llvm.lifetime.end.p0(i64 8, ptr %__range1) #6
  br label %ehcleanup75

for.end:                                          ; preds = %for.cond.cleanup
  %11 = load ptr, ptr %buffer.addr, align 8, !tbaa !26
  invoke void @_ZN6openmc10DataBuffer3addIiEEvRKSt6vectorIT_SaIS3_EE(ptr noundef nonnull align 8 dereferenceable(28) %11, ptr noundef nonnull align 8 dereferenceable(24) %interp)
          to label %invoke.cont8 unwind label %lpad7

invoke.cont8:                                     ; preds = %for.end
  %12 = load ptr, ptr %buffer.addr, align 8, !tbaa !26
  %energy_ = getelementptr inbounds nuw %"class.openmc::ContinuousTabular", ptr %this1, i32 0, i32 4
  %call9 = call noundef i64 @_ZNKSt6vectorIdSaIdEE4sizeEv(ptr noundef nonnull align 8 dereferenceable(24) %energy_) #6
  invoke void @_ZN6openmc10DataBuffer3addImEENSt9enable_ifIXsr3std9is_scalarINSt5decayIT_E4typeEEE5valueEvE4typeES4_(ptr noundef nonnull align 8 dereferenceable(28) %12, i64 noundef %call9)
          to label %invoke.cont10 unwind label %lpad7

invoke.cont10:                                    ; preds = %invoke.cont8
  %13 = load ptr, ptr %buffer.addr, align 8, !tbaa !26
  %energy_11 = getelementptr inbounds nuw %"class.openmc::ContinuousTabular", ptr %this1, i32 0, i32 4
  invoke void @_ZN6openmc10DataBuffer3addIdEEvRKSt6vectorIT_SaIS3_EE(ptr noundef nonnull align 8 dereferenceable(28) %13, ptr noundef nonnull align 8 dereferenceable(24) %energy_11)
          to label %invoke.cont12 unwind label %lpad7

invoke.cont12:                                    ; preds = %invoke.cont10
  call void @llvm.lifetime.start.p0(i64 24, ptr %locators) #6
  call void @_ZNSt6vectorIiSaIiEEC2Ev(ptr noundef nonnull align 8 dereferenceable(24) %locators) #6
  call void @llvm.lifetime.start.p0(i64 4, ptr %offset) #6
  %n_region_13 = getelementptr inbounds nuw %"class.openmc::ContinuousTabular", ptr %this1, i32 0, i32 1
  %14 = load i32, ptr %n_region_13, align 8, !tbaa !37
  %mul = mul nsw i32 8, %14
  %add = add nsw i32 8, %mul
  %add14 = add nsw i32 %add, 8
  %conv = sext i32 %add14 to i64
  %energy_15 = getelementptr inbounds nuw %"class.openmc::ContinuousTabular", ptr %this1, i32 0, i32 4
  %call16 = call noundef i64 @_ZNKSt6vectorIdSaIdEE4sizeEv(ptr noundef nonnull align 8 dereferenceable(24) %energy_15) #6
  %mul17 = mul i64 12, %call16
  %call20 = invoke noundef i64 @_ZN6openmc7alignedEmi(i64 noundef %mul17, i32 noundef 8)
          to label %invoke.cont19 unwind label %lpad18

invoke.cont19:                                    ; preds = %invoke.cont12
  %add21 = add i64 %conv, %call20
  %conv22 = trunc i64 %add21 to i32
  store i32 %conv22, ptr %offset, align 4, !tbaa !64
  call void @llvm.lifetime.start.p0(i64 8, ptr %__range123) #6
  %distribution_ = getelementptr inbounds nuw %"class.openmc::ContinuousTabular", ptr %this1, i32 0, i32 5
  store ptr %distribution_, ptr %__range123, align 8, !tbaa !91
  call void @llvm.lifetime.start.p0(i64 8, ptr %__begin124) #6
  %15 = load ptr, ptr %__range123, align 8, !tbaa !91
  %call25 = call ptr @_ZNKSt6vectorIN6openmc17ContinuousTabular7CTTableESaIS2_EE5beginEv(ptr noundef nonnull align 8 dereferenceable(24) %15) #6
  %coerce.dive26 = getelementptr inbounds nuw %"class.__gnu_cxx::__normal_iterator.142", ptr %__begin124, i32 0, i32 0
  store ptr %call25, ptr %coerce.dive26, align 8
  call void @llvm.lifetime.start.p0(i64 8, ptr %__end127) #6
  %16 = load ptr, ptr %__range123, align 8, !tbaa !91
  %call28 = call ptr @_ZNKSt6vectorIN6openmc17ContinuousTabular7CTTableESaIS2_EE3endEv(ptr noundef nonnull align 8 dereferenceable(24) %16) #6
  %coerce.dive29 = getelementptr inbounds nuw %"class.__gnu_cxx::__normal_iterator.142", ptr %__end127, i32 0, i32 0
  store ptr %call28, ptr %coerce.dive29, align 8
  br label %for.cond30

for.cond30:                                       ; preds = %for.inc43, %invoke.cont19
  %call31 = call noundef zeroext i1 @_ZN9__gnu_cxxneIPKN6openmc17ContinuousTabular7CTTableESt6vectorIS3_SaIS3_EEEEbRKNS_17__normal_iteratorIT_T0_EESE_(ptr noundef nonnull align 8 dereferenceable(8) %__begin124, ptr noundef nonnull align 8 dereferenceable(8) %__end127) #6
  br i1 %call31, label %for.body33, label %for.cond.cleanup32

for.cond.cleanup32:                               ; preds = %for.cond30
  call void @llvm.lifetime.end.p0(i64 8, ptr %__end127) #6
  call void @llvm.lifetime.end.p0(i64 8, ptr %__begin124) #6
  call void @llvm.lifetime.end.p0(i64 8, ptr %__range123) #6
  br label %for.end45

lpad7:                                            ; preds = %invoke.cont10, %invoke.cont8, %for.end
  %17 = landingpad { ptr, i32 }
          cleanup
  %18 = extractvalue { ptr, i32 } %17, 0
  store ptr %18, ptr %exn.slot, align 8
  %19 = extractvalue { ptr, i32 } %17, 1
  store i32 %19, ptr %ehselector.slot, align 4
  br label %ehcleanup75

lpad18:                                           ; preds = %invoke.cont46, %for.end45, %invoke.cont12
  %20 = landingpad { ptr, i32 }
          cleanup
  %21 = extractvalue { ptr, i32 } %20, 0
  store ptr %21, ptr %exn.slot, align 8
  %22 = extractvalue { ptr, i32 } %20, 1
  store i32 %22, ptr %ehselector.slot, align 4
  br label %ehcleanup

for.body33:                                       ; preds = %for.cond30
  call void @llvm.lifetime.start.p0(i64 8, ptr %dist) #6
  %call34 = call noundef nonnull align 8 dereferenceable(224) ptr @_ZNK9__gnu_cxx17__normal_iteratorIPKN6openmc17ContinuousTabular7CTTableESt6vectorIS3_SaIS3_EEEdeEv(ptr noundef nonnull align 8 dereferenceable(8) %__begin124) #6
  store ptr %call34, ptr %dist, align 8, !tbaa !93
  invoke void @_ZNSt6vectorIiSaIiEE9push_backERKi(ptr noundef nonnull align 8 dereferenceable(24) %locators, ptr noundef nonnull align 4 dereferenceable(4) %offset)
          to label %invoke.cont36 unwind label %lpad35

invoke.cont36:                                    ; preds = %for.body33
  call void @llvm.lifetime.start.p0(i64 8, ptr %n_eout) #6
  %23 = load ptr, ptr %dist, align 8, !tbaa !93
  %e_out = getelementptr inbounds nuw %"struct.openmc::ContinuousTabular::CTTable", ptr %23, i32 0, i32 2
  %call37 = call noundef i64 @_ZNK2xt10xcontainerINS_17xtensor_containerINS_7uvectorIdSaIdEEELm1ELNS_11layout_typeE1ENS_22xtensor_expression_tagEEEE4sizeEv(ptr noundef nonnull align 1 dereferenceable(1) %e_out) #6
  store i64 %call37, ptr %n_eout, align 8, !tbaa !62
  %24 = load i64, ptr %n_eout, align 8, !tbaa !62
  %mul38 = mul i64 24, %24
  %add39 = add i64 16, %mul38
  %25 = load i32, ptr %offset, align 4, !tbaa !64
  %conv40 = sext i32 %25 to i64
  %add41 = add i64 %conv40, %add39
  %conv42 = trunc i64 %add41 to i32
  store i32 %conv42, ptr %offset, align 4, !tbaa !64
  call void @llvm.lifetime.end.p0(i64 8, ptr %n_eout) #6
  call void @llvm.lifetime.end.p0(i64 8, ptr %dist) #6
  br label %for.inc43

for.inc43:                                        ; preds = %invoke.cont36
  %call44 = call noundef nonnull align 8 dereferenceable(8) ptr @_ZN9__gnu_cxx17__normal_iteratorIPKN6openmc17ContinuousTabular7CTTableESt6vectorIS3_SaIS3_EEEppEv(ptr noundef nonnull align 8 dereferenceable(8) %__begin124) #6
  br label %for.cond30

lpad35:                                           ; preds = %for.body33
  %26 = landingpad { ptr, i32 }
          cleanup
  %27 = extractvalue { ptr, i32 } %26, 0
  store ptr %27, ptr %exn.slot, align 8
  %28 = extractvalue { ptr, i32 } %26, 1
  store i32 %28, ptr %ehselector.slot, align 4
  call void @llvm.lifetime.end.p0(i64 8, ptr %dist) #6
  call void @llvm.lifetime.end.p0(i64 8, ptr %__end127) #6
  call void @llvm.lifetime.end.p0(i64 8, ptr %__begin124) #6
  call void @llvm.lifetime.end.p0(i64 8, ptr %__range123) #6
  br label %ehcleanup

for.end45:                                        ; preds = %for.cond.cleanup32
  %29 = load ptr, ptr %buffer.addr, align 8, !tbaa !26
  invoke void @_ZN6openmc10DataBuffer3addIiEEvRKSt6vectorIT_SaIS3_EE(ptr noundef nonnull align 8 dereferenceable(28) %29, ptr noundef nonnull align 8 dereferenceable(24) %locators)
          to label %invoke.cont46 unwind label %lpad18

invoke.cont46:                                    ; preds = %for.end45
  %30 = load ptr, ptr %buffer.addr, align 8, !tbaa !26
  invoke void @_ZN6openmc10DataBuffer5alignEi(ptr noundef nonnull align 8 dereferenceable(28) %30, i32 noundef 8)
          to label %invoke.cont47 unwind label %lpad18

invoke.cont47:                                    ; preds = %invoke.cont46
  call void @llvm.lifetime.start.p0(i64 8, ptr %__range148) #6
  %distribution_49 = getelementptr inbounds nuw %"class.openmc::ContinuousTabular", ptr %this1, i32 0, i32 5
  store ptr %distribution_49, ptr %__range148, align 8, !tbaa !91
  call void @llvm.lifetime.start.p0(i64 8, ptr %__begin150) #6
  %31 = load ptr, ptr %__range148, align 8, !tbaa !91
  %call51 = call ptr @_ZNKSt6vectorIN6openmc17ContinuousTabular7CTTableESaIS2_EE5beginEv(ptr noundef nonnull align 8 dereferenceable(24) %31) #6
  %coerce.dive52 = getelementptr inbounds nuw %"class.__gnu_cxx::__normal_iterator.142", ptr %__begin150, i32 0, i32 0
  store ptr %call51, ptr %coerce.dive52, align 8
  call void @llvm.lifetime.start.p0(i64 8, ptr %__end153) #6
  %32 = load ptr, ptr %__range148, align 8, !tbaa !91
  %call54 = call ptr @_ZNKSt6vectorIN6openmc17ContinuousTabular7CTTableESaIS2_EE3endEv(ptr noundef nonnull align 8 dereferenceable(24) %32) #6
  %coerce.dive55 = getelementptr inbounds nuw %"class.__gnu_cxx::__normal_iterator.142", ptr %__end153, i32 0, i32 0
  store ptr %call54, ptr %coerce.dive55, align 8
  br label %for.cond56

for.cond56:                                       ; preds = %for.inc70, %invoke.cont47
  %call57 = call noundef zeroext i1 @_ZN9__gnu_cxxneIPKN6openmc17ContinuousTabular7CTTableESt6vectorIS3_SaIS3_EEEEbRKNS_17__normal_iteratorIT_T0_EESE_(ptr noundef nonnull align 8 dereferenceable(8) %__begin150, ptr noundef nonnull align 8 dereferenceable(8) %__end153) #6
  br i1 %call57, label %for.body59, label %for.cond.cleanup58

for.cond.cleanup58:                               ; preds = %for.cond56
  call void @llvm.lifetime.end.p0(i64 8, ptr %__end153) #6
  call void @llvm.lifetime.end.p0(i64 8, ptr %__begin150) #6
  call void @llvm.lifetime.end.p0(i64 8, ptr %__range148) #6
  br label %for.end72

for.body59:                                       ; preds = %for.cond56
  call void @llvm.lifetime.start.p0(i64 8, ptr %dist60) #6
  %call61 = call noundef nonnull align 8 dereferenceable(224) ptr @_ZNK9__gnu_cxx17__normal_iteratorIPKN6openmc17ContinuousTabular7CTTableESt6vectorIS3_SaIS3_EEEdeEv(ptr noundef nonnull align 8 dereferenceable(8) %__begin150) #6
  store ptr %call61, ptr %dist60, align 8, !tbaa !93
  %33 = load ptr, ptr %buffer.addr, align 8, !tbaa !26
  %34 = load ptr, ptr %dist60, align 8, !tbaa !93
  %interpolation = getelementptr inbounds nuw %"struct.openmc::ContinuousTabular::CTTable", ptr %34, i32 0, i32 0
  %35 = load i32, ptr %interpolation, align 8, !tbaa !87
  call void @_ZN6openmc10DataBuffer3addIiEENSt9enable_ifIXsr3std9is_scalarINSt5decayIT_E4typeEEE5valueEvE4typeES4_(ptr noundef nonnull align 8 dereferenceable(28) %33, i32 noundef %35)
  %36 = load ptr, ptr %buffer.addr, align 8, !tbaa !26
  %37 = load ptr, ptr %dist60, align 8, !tbaa !93
  %n_discrete = getelementptr inbounds nuw %"struct.openmc::ContinuousTabular::CTTable", ptr %37, i32 0, i32 1
  %38 = load i32, ptr %n_discrete, align 4, !tbaa !67
  call void @_ZN6openmc10DataBuffer3addIiEENSt9enable_ifIXsr3std9is_scalarINSt5decayIT_E4typeEEE5valueEvE4typeES4_(ptr noundef nonnull align 8 dereferenceable(28) %36, i32 noundef %38)
  %39 = load ptr, ptr %buffer.addr, align 8, !tbaa !26
  %40 = load ptr, ptr %dist60, align 8, !tbaa !93
  %e_out62 = getelementptr inbounds nuw %"struct.openmc::ContinuousTabular::CTTable", ptr %40, i32 0, i32 2
  %call63 = call noundef i64 @_ZNK2xt10xcontainerINS_17xtensor_containerINS_7uvectorIdSaIdEEELm1ELNS_11layout_typeE1ENS_22xtensor_expression_tagEEEE4sizeEv(ptr noundef nonnull align 1 dereferenceable(1) %e_out62) #6
  invoke void @_ZN6openmc10DataBuffer3addImEENSt9enable_ifIXsr3std9is_scalarINSt5decayIT_E4typeEEE5valueEvE4typeES4_(ptr noundef nonnull align 8 dereferenceable(28) %39, i64 noundef %call63)
          to label %invoke.cont65 unwind label %lpad64

invoke.cont65:                                    ; preds = %for.body59
  %41 = load ptr, ptr %buffer.addr, align 8, !tbaa !26
  %42 = load ptr, ptr %dist60, align 8, !tbaa !93
  %e_out66 = getelementptr inbounds nuw %"struct.openmc::ContinuousTabular::CTTable", ptr %42, i32 0, i32 2
  invoke void @_ZN6openmc10DataBuffer3addIdLm1EEEvRKN2xt17xtensor_containerINS2_7uvectorIT_SaIS5_EEEXT0_ELNS2_11layout_typeE1ENS2_22xtensor_expression_tagEEE(ptr noundef nonnull align 8 dereferenceable(28) %41, ptr noundef nonnull align 8 dereferenceable(72) %e_out66)
          to label %invoke.cont67 unwind label %lpad64

invoke.cont67:                                    ; preds = %invoke.cont65
  %43 = load ptr, ptr %buffer.addr, align 8, !tbaa !26
  %44 = load ptr, ptr %dist60, align 8, !tbaa !93
  %p = getelementptr inbounds nuw %"struct.openmc::ContinuousTabular::CTTable", ptr %44, i32 0, i32 3
  invoke void @_ZN6openmc10DataBuffer3addIdLm1EEEvRKN2xt17xtensor_containerINS2_7uvectorIT_SaIS5_EEEXT0_ELNS2_11layout_typeE1ENS2_22xtensor_expression_tagEEE(ptr noundef nonnull align 8 dereferenceable(28) %43, ptr noundef nonnull align 8 dereferenceable(72) %p)
          to label %invoke.cont68 unwind label %lpad64

invoke.cont68:                                    ; preds = %invoke.cont67
  %45 = load ptr, ptr %buffer.addr, align 8, !tbaa !26
  %46 = load ptr, ptr %dist60, align 8, !tbaa !93
  %c = getelementptr inbounds nuw %"struct.openmc::ContinuousTabular::CTTable", ptr %46, i32 0, i32 4
  invoke void @_ZN6openmc10DataBuffer3addIdLm1EEEvRKN2xt17xtensor_containerINS2_7uvectorIT_SaIS5_EEEXT0_ELNS2_11layout_typeE1ENS2_22xtensor_expression_tagEEE(ptr noundef nonnull align 8 dereferenceable(28) %45, ptr noundef nonnull align 8 dereferenceable(72) %c)
          to label %invoke.cont69 unwind label %lpad64

invoke.cont69:                                    ; preds = %invoke.cont68
  call void @llvm.lifetime.end.p0(i64 8, ptr %dist60) #6
  br label %for.inc70

for.inc70:                                        ; preds = %invoke.cont69
  %call71 = call noundef nonnull align 8 dereferenceable(8) ptr @_ZN9__gnu_cxx17__normal_iteratorIPKN6openmc17ContinuousTabular7CTTableESt6vectorIS3_SaIS3_EEEppEv(ptr noundef nonnull align 8 dereferenceable(8) %__begin150) #6
  br label %for.cond56

lpad64:                                           ; preds = %invoke.cont68, %invoke.cont67, %invoke.cont65, %for.body59
  %47 = landingpad { ptr, i32 }
          cleanup
  %48 = extractvalue { ptr, i32 } %47, 0
  store ptr %48, ptr %exn.slot, align 8
  %49 = extractvalue { ptr, i32 } %47, 1
  store i32 %49, ptr %ehselector.slot, align 4
  call void @llvm.lifetime.end.p0(i64 8, ptr %dist60) #6
  call void @llvm.lifetime.end.p0(i64 8, ptr %__end153) #6
  call void @llvm.lifetime.end.p0(i64 8, ptr %__begin150) #6
  call void @llvm.lifetime.end.p0(i64 8, ptr %__range148) #6
  br label %ehcleanup

for.end72:                                        ; preds = %for.cond.cleanup58
  call void @llvm.lifetime.end.p0(i64 4, ptr %offset) #6
  call void @_ZNSt6vectorIiSaIiEED2Ev(ptr noundef nonnull align 8 dereferenceable(24) %locators) #6
  call void @llvm.lifetime.end.p0(i64 24, ptr %locators) #6
  call void @_ZNSt6vectorIiSaIiEED2Ev(ptr noundef nonnull align 8 dereferenceable(24) %interp) #6
  call void @llvm.lifetime.end.p0(i64 24, ptr %interp) #6
  ret void

ehcleanup:                                        ; preds = %lpad64, %lpad35, %lpad18
  call void @llvm.lifetime.end.p0(i64 4, ptr %offset) #6
  call void @_ZNSt6vectorIiSaIiEED2Ev(ptr noundef nonnull align 8 dereferenceable(24) %locators) #6
  call void @llvm.lifetime.end.p0(i64 24, ptr %locators) #6
  br label %ehcleanup75

ehcleanup75:                                      ; preds = %ehcleanup, %lpad7, %lpad
  call void @_ZNSt6vectorIiSaIiEED2Ev(ptr noundef nonnull align 8 dereferenceable(24) %interp) #6
  call void @llvm.lifetime.end.p0(i64 24, ptr %interp) #6
  br label %eh.resume

eh.resume:                                        ; preds = %ehcleanup75
  %exn = load ptr, ptr %exn.slot, align 8
  %sel = load i32, ptr %ehselector.slot, align 4
  %lpad.val = insertvalue { ptr, i32 } poison, ptr %exn, 0
  %lpad.val77 = insertvalue { ptr, i32 } %lpad.val, i32 %sel, 1
  resume { ptr, i32 } %lpad.val77
}

; Function Attrs: inlinehint mustprogress nounwind uwtable
define linkonce_odr void @_ZN6openmc17ContinuousTabularD2Ev(ptr noundef nonnull align 8 dereferenceable(112) %this) unnamed_addr #2 comdat align 2 {
entry:
  %this.addr = alloca ptr, align 8
  store ptr %this, ptr %this.addr, align 8, !tbaa !35
  %this1 = load ptr, ptr %this.addr, align 8
  store ptr getelementptr inbounds inrange(-16, 32) ({ [6 x ptr] }, ptr @_ZTVN6openmc17ContinuousTabularE, i32 0, i32 0, i32 2), ptr %this1, align 8, !tbaa !94
  %distribution_ = getelementptr inbounds nuw %"class.openmc::ContinuousTabular", ptr %this1, i32 0, i32 5
  call void @_ZNSt6vectorIN6openmc17ContinuousTabular7CTTableESaIS2_EED2Ev(ptr noundef nonnull align 8 dereferenceable(24) %distribution_) #6
  %energy_ = getelementptr inbounds nuw %"class.openmc::ContinuousTabular", ptr %this1, i32 0, i32 4
  call void @_ZNSt6vectorIdSaIdEED2Ev(ptr noundef nonnull align 8 dereferenceable(24) %energy_) #6
  %interpolation_ = getelementptr inbounds nuw %"class.openmc::ContinuousTabular", ptr %this1, i32 0, i32 3
  call void @_ZNSt6vectorIN6openmc13InterpolationESaIS1_EED2Ev(ptr noundef nonnull align 8 dereferenceable(24) %interpolation_) #6
  %breakpoints_ = getelementptr inbounds nuw %"class.openmc::ContinuousTabular", ptr %this1, i32 0, i32 2
  call void @_ZNSt6vectorIiSaIiEED2Ev(ptr noundef nonnull align 8 dereferenceable(24) %breakpoints_) #6
  call void @_ZN6openmc18EnergyDistributionD2Ev(ptr noundef nonnull align 8 dereferenceable(8) %this1) #6
  ret void
}

; Function Attrs: inlinehint mustprogress nounwind uwtable
define linkonce_odr void @_ZN6openmc17ContinuousTabularD0Ev(ptr noundef nonnull align 8 dereferenceable(112) %this) unnamed_addr #2 comdat align 2 {
entry:
  %this.addr = alloca ptr, align 8
  store ptr %this, ptr %this.addr, align 8, !tbaa !35
  %this1 = load ptr, ptr %this.addr, align 8
  call void @_ZN6openmc17ContinuousTabularD2Ev(ptr noundef nonnull align 8 dereferenceable(112) %this1) #6
  call void @_ZdlPvm(ptr noundef %this1, i64 noundef 112) #22
  ret void
}

; Function Attrs: mustprogress uwtable
define noundef double @_ZNK6openmc13MaxwellEnergy6sampleEdPm(ptr noundef nonnull align 8 dereferenceable(136) %this, double noundef %E, ptr noundef %seed) unnamed_addr #1 align 2 {
entry:
  %retval = alloca double, align 8
  %this.addr = alloca ptr, align 8
  %E.addr = alloca double, align 8
  %seed.addr = alloca ptr, align 8
  %theta = alloca double, align 8
  %E_out = alloca double, align 8
  %cleanup.dest.slot = alloca i32, align 4
  store ptr %this, ptr %this.addr, align 8, !tbaa !96
  store double %E, ptr %E.addr, align 8, !tbaa !16
  store ptr %seed, ptr %seed.addr, align 8, !tbaa !18
  %this1 = load ptr, ptr %this.addr, align 8
  call void @llvm.lifetime.start.p0(i64 8, ptr %theta) #6
  %theta_ = getelementptr inbounds nuw %"class.openmc::MaxwellEnergy", ptr %this1, i32 0, i32 1
  %0 = load double, ptr %E.addr, align 8, !tbaa !16
  %call = call noundef double @_ZNK6openmc11Tabulated1DclEd(ptr noundef nonnull align 8 dereferenceable(120) %theta_, double noundef %0)
  store double %call, ptr %theta, align 8, !tbaa !16
  br label %while.cond

while.cond:                                       ; preds = %cleanup.cont, %entry
  br label %while.body

while.body:                                       ; preds = %while.cond
  call void @llvm.lifetime.start.p0(i64 8, ptr %E_out) #6
  %1 = load double, ptr %theta, align 8, !tbaa !16
  %2 = load ptr, ptr %seed.addr, align 8, !tbaa !18
  %call2 = call double @maxwell_spectrum(double noundef %1, ptr noundef %2)
  store double %call2, ptr %E_out, align 8, !tbaa !16
  %3 = load double, ptr %E_out, align 8, !tbaa !16
  %4 = load double, ptr %E.addr, align 8, !tbaa !16
  %u_ = getelementptr inbounds nuw %"class.openmc::MaxwellEnergy", ptr %this1, i32 0, i32 2
  %5 = load double, ptr %u_, align 8, !tbaa !98
  %sub = fsub double %4, %5
  %cmp = fcmp ole double %3, %sub
  br i1 %cmp, label %if.then, label %if.end

if.then:                                          ; preds = %while.body
  %6 = load double, ptr %E_out, align 8, !tbaa !16
  store double %6, ptr %retval, align 8
  store i32 1, ptr %cleanup.dest.slot, align 4
  br label %cleanup

if.end:                                           ; preds = %while.body
  store i32 0, ptr %cleanup.dest.slot, align 4
  br label %cleanup

cleanup:                                          ; preds = %if.end, %if.then
  call void @llvm.lifetime.end.p0(i64 8, ptr %E_out) #6
  %cleanup.dest = load i32, ptr %cleanup.dest.slot, align 4
  switch i32 %cleanup.dest, label %cleanup3 [
    i32 0, label %cleanup.cont
  ]

cleanup.cont:                                     ; preds = %cleanup
  br label %while.cond, !llvm.loop !102

cleanup3:                                         ; preds = %cleanup
  call void @llvm.lifetime.end.p0(i64 8, ptr %theta) #6
  %7 = load double, ptr %retval, align 8
  ret double %7
}

; Function Attrs: mustprogress uwtable
define void @_ZNK6openmc13MaxwellEnergy9serializeERNS_10DataBufferE(ptr noundef nonnull align 8 dereferenceable(136) %this, ptr noundef nonnull align 8 dereferenceable(28) %buffer) unnamed_addr #1 align 2 {
entry:
  %this.addr = alloca ptr, align 8
  %buffer.addr = alloca ptr, align 8
  store ptr %this, ptr %this.addr, align 8, !tbaa !96
  store ptr %buffer, ptr %buffer.addr, align 8, !tbaa !26
  %this1 = load ptr, ptr %this.addr, align 8
  %0 = load ptr, ptr %buffer.addr, align 8, !tbaa !26
  call void @_ZN6openmc10DataBuffer3addIiEENSt9enable_ifIXsr3std9is_scalarINSt5decayIT_E4typeEEE5valueEvE4typeES4_(ptr noundef nonnull align 8 dereferenceable(28) %0, i32 noundef 4)
  %1 = load ptr, ptr %buffer.addr, align 8, !tbaa !26
  call void @_ZN6openmc10DataBuffer5alignEi(ptr noundef nonnull align 8 dereferenceable(28) %1, i32 noundef 8)
  %2 = load ptr, ptr %buffer.addr, align 8, !tbaa !26
  %u_ = getelementptr inbounds nuw %"class.openmc::MaxwellEnergy", ptr %this1, i32 0, i32 2
  %3 = load double, ptr %u_, align 8, !tbaa !98
  call void @_ZN6openmc10DataBuffer3addIdEENSt9enable_ifIXsr3std9is_scalarINSt5decayIT_E4typeEEE5valueEvE4typeES4_(ptr noundef nonnull align 8 dereferenceable(28) %2, double noundef %3)
  %theta_ = getelementptr inbounds nuw %"class.openmc::MaxwellEnergy", ptr %this1, i32 0, i32 1
  %4 = load ptr, ptr %buffer.addr, align 8, !tbaa !26
  call void @_ZNK6openmc11Tabulated1D9serializeERNS_10DataBufferE(ptr noundef nonnull align 8 dereferenceable(120) %theta_, ptr noundef nonnull align 8 dereferenceable(28) %4)
  ret void
}

; Function Attrs: inlinehint mustprogress nounwind uwtable
define linkonce_odr void @_ZN6openmc13MaxwellEnergyD2Ev(ptr noundef nonnull align 8 dereferenceable(136) %this) unnamed_addr #2 comdat align 2 {
entry:
  %this.addr = alloca ptr, align 8
  store ptr %this, ptr %this.addr, align 8, !tbaa !96
  %this1 = load ptr, ptr %this.addr, align 8
  store ptr getelementptr inbounds inrange(-16, 32) ({ [6 x ptr] }, ptr @_ZTVN6openmc13MaxwellEnergyE, i32 0, i32 0, i32 2), ptr %this1, align 8, !tbaa !94
  %theta_ = getelementptr inbounds nuw %"class.openmc::MaxwellEnergy", ptr %this1, i32 0, i32 1
  call void @_ZN6openmc11Tabulated1DD2Ev(ptr noundef nonnull align 8 dereferenceable(120) %theta_) #6
  call void @_ZN6openmc18EnergyDistributionD2Ev(ptr noundef nonnull align 8 dereferenceable(8) %this1) #6
  ret void
}

; Function Attrs: inlinehint mustprogress nounwind uwtable
define linkonce_odr void @_ZN6openmc13MaxwellEnergyD0Ev(ptr noundef nonnull align 8 dereferenceable(136) %this) unnamed_addr #2 comdat align 2 {
entry:
  %this.addr = alloca ptr, align 8
  store ptr %this, ptr %this.addr, align 8, !tbaa !96
  %this1 = load ptr, ptr %this.addr, align 8
  call void @_ZN6openmc13MaxwellEnergyD2Ev(ptr noundef nonnull align 8 dereferenceable(136) %this1) #6
  call void @_ZdlPvm(ptr noundef %this1, i64 noundef 136) #22
  ret void
}

; Function Attrs: mustprogress uwtable
define noundef double @_ZNK6openmc11Evaporation6sampleEdPm(ptr noundef nonnull align 8 dereferenceable(136) %this, double noundef %E, ptr noundef %seed) unnamed_addr #1 align 2 {
entry:
  %this.addr = alloca ptr, align 8
  %E.addr = alloca double, align 8
  %seed.addr = alloca ptr, align 8
  %theta = alloca double, align 8
  %y = alloca double, align 8
  %v = alloca double, align 8
  %x = alloca double, align 8
  store ptr %this, ptr %this.addr, align 8, !tbaa !103
  store double %E, ptr %E.addr, align 8, !tbaa !16
  store ptr %seed, ptr %seed.addr, align 8, !tbaa !18
  %this1 = load ptr, ptr %this.addr, align 8
  call void @llvm.lifetime.start.p0(i64 8, ptr %theta) #6
  %theta_ = getelementptr inbounds nuw %"class.openmc::Evaporation", ptr %this1, i32 0, i32 1
  %0 = load double, ptr %E.addr, align 8, !tbaa !16
  %call = call noundef double @_ZNK6openmc11Tabulated1DclEd(ptr noundef nonnull align 8 dereferenceable(120) %theta_, double noundef %0)
  store double %call, ptr %theta, align 8, !tbaa !16
  call void @llvm.lifetime.start.p0(i64 8, ptr %y) #6
  %1 = load double, ptr %E.addr, align 8, !tbaa !16
  %u_ = getelementptr inbounds nuw %"class.openmc::Evaporation", ptr %this1, i32 0, i32 2
  %2 = load double, ptr %u_, align 8, !tbaa !105
  %sub = fsub double %1, %2
  %3 = load double, ptr %theta, align 8, !tbaa !16
  %div = fdiv double %sub, %3
  store double %div, ptr %y, align 8, !tbaa !16
  call void @llvm.lifetime.start.p0(i64 8, ptr %v) #6
  %4 = load double, ptr %y, align 8, !tbaa !16
  %fneg = fneg double %4
  %call2 = call double @exp(double noundef %fneg) #6, !tbaa !64
  %sub3 = fsub double 1.000000e+00, %call2
  store double %sub3, ptr %v, align 8, !tbaa !16
  call void @llvm.lifetime.start.p0(i64 8, ptr %x) #6
  br label %while.cond

while.cond:                                       ; preds = %if.end, %entry
  br label %while.body

while.body:                                       ; preds = %while.cond
  %5 = load double, ptr %v, align 8, !tbaa !16
  %6 = load ptr, ptr %seed.addr, align 8, !tbaa !18
  %call4 = call noundef double @_ZN6openmc3prnEPm(ptr noundef %6)
  %neg = fneg double %5
  %7 = call double @llvm.fmuladd.f64(double %neg, double %call4, double 1.000000e+00)
  %8 = load double, ptr %v, align 8, !tbaa !16
  %9 = load ptr, ptr %seed.addr, align 8, !tbaa !18
  %call5 = call noundef double @_ZN6openmc3prnEPm(ptr noundef %9)
  %neg6 = fneg double %8
  %10 = call double @llvm.fmuladd.f64(double %neg6, double %call5, double 1.000000e+00)
  %mul = fmul double %7, %10
  %call7 = call double @log(double noundef %mul) #6, !tbaa !64
  %fneg8 = fneg double %call7
  store double %fneg8, ptr %x, align 8, !tbaa !16
  %11 = load double, ptr %x, align 8, !tbaa !16
  %12 = load double, ptr %y, align 8, !tbaa !16
  %cmp = fcmp ole double %11, %12
  br i1 %cmp, label %if.then, label %if.end

if.then:                                          ; preds = %while.body
  br label %while.end

if.end:                                           ; preds = %while.body
  br label %while.cond, !llvm.loop !107

while.end:                                        ; preds = %if.then
  %13 = load double, ptr %x, align 8, !tbaa !16
  %14 = load double, ptr %theta, align 8, !tbaa !16
  %mul9 = fmul double %13, %14
  call void @llvm.lifetime.end.p0(i64 8, ptr %x) #6
  call void @llvm.lifetime.end.p0(i64 8, ptr %v) #6
  call void @llvm.lifetime.end.p0(i64 8, ptr %y) #6
  call void @llvm.lifetime.end.p0(i64 8, ptr %theta) #6
  ret double %mul9
}

; Function Attrs: mustprogress uwtable
define void @_ZNK6openmc11Evaporation9serializeERNS_10DataBufferE(ptr noundef nonnull align 8 dereferenceable(136) %this, ptr noundef nonnull align 8 dereferenceable(28) %buffer) unnamed_addr #1 align 2 {
entry:
  %this.addr = alloca ptr, align 8
  %buffer.addr = alloca ptr, align 8
  store ptr %this, ptr %this.addr, align 8, !tbaa !103
  store ptr %buffer, ptr %buffer.addr, align 8, !tbaa !26
  %this1 = load ptr, ptr %this.addr, align 8
  %0 = load ptr, ptr %buffer.addr, align 8, !tbaa !26
  call void @_ZN6openmc10DataBuffer3addIiEENSt9enable_ifIXsr3std9is_scalarINSt5decayIT_E4typeEEE5valueEvE4typeES4_(ptr noundef nonnull align 8 dereferenceable(28) %0, i32 noundef 3)
  %1 = load ptr, ptr %buffer.addr, align 8, !tbaa !26
  call void @_ZN6openmc10DataBuffer5alignEi(ptr noundef nonnull align 8 dereferenceable(28) %1, i32 noundef 8)
  %2 = load ptr, ptr %buffer.addr, align 8, !tbaa !26
  %u_ = getelementptr inbounds nuw %"class.openmc::Evaporation", ptr %this1, i32 0, i32 2
  %3 = load double, ptr %u_, align 8, !tbaa !105
  call void @_ZN6openmc10DataBuffer3addIdEENSt9enable_ifIXsr3std9is_scalarINSt5decayIT_E4typeEEE5valueEvE4typeES4_(ptr noundef nonnull align 8 dereferenceable(28) %2, double noundef %3)
  %theta_ = getelementptr inbounds nuw %"class.openmc::Evaporation", ptr %this1, i32 0, i32 1
  %4 = load ptr, ptr %buffer.addr, align 8, !tbaa !26
  call void @_ZNK6openmc11Tabulated1D9serializeERNS_10DataBufferE(ptr noundef nonnull align 8 dereferenceable(120) %theta_, ptr noundef nonnull align 8 dereferenceable(28) %4)
  ret void
}

; Function Attrs: inlinehint mustprogress nounwind uwtable
define linkonce_odr void @_ZN6openmc11EvaporationD2Ev(ptr noundef nonnull align 8 dereferenceable(136) %this) unnamed_addr #2 comdat align 2 {
entry:
  %this.addr = alloca ptr, align 8
  store ptr %this, ptr %this.addr, align 8, !tbaa !103
  %this1 = load ptr, ptr %this.addr, align 8
  store ptr getelementptr inbounds inrange(-16, 32) ({ [6 x ptr] }, ptr @_ZTVN6openmc11EvaporationE, i32 0, i32 0, i32 2), ptr %this1, align 8, !tbaa !94
  %theta_ = getelementptr inbounds nuw %"class.openmc::Evaporation", ptr %this1, i32 0, i32 1
  call void @_ZN6openmc11Tabulated1DD2Ev(ptr noundef nonnull align 8 dereferenceable(120) %theta_) #6
  call void @_ZN6openmc18EnergyDistributionD2Ev(ptr noundef nonnull align 8 dereferenceable(8) %this1) #6
  ret void
}

; Function Attrs: inlinehint mustprogress nounwind uwtable
define linkonce_odr void @_ZN6openmc11EvaporationD0Ev(ptr noundef nonnull align 8 dereferenceable(136) %this) unnamed_addr #2 comdat align 2 {
entry:
  %this.addr = alloca ptr, align 8
  store ptr %this, ptr %this.addr, align 8, !tbaa !103
  %this1 = load ptr, ptr %this.addr, align 8
  call void @_ZN6openmc11EvaporationD2Ev(ptr noundef nonnull align 8 dereferenceable(136) %this1) #6
  call void @_ZdlPvm(ptr noundef %this1, i64 noundef 136) #22
  ret void
}

; Function Attrs: mustprogress uwtable
define noundef double @_ZNK6openmc10WattEnergy6sampleEdPm(ptr noundef nonnull align 8 dereferenceable(256) %this, double noundef %E, ptr noundef %seed) unnamed_addr #1 align 2 {
entry:
  %retval = alloca double, align 8
  %this.addr = alloca ptr, align 8
  %E.addr = alloca double, align 8
  %seed.addr = alloca ptr, align 8
  %a = alloca double, align 8
  %b = alloca double, align 8
  %E_out = alloca double, align 8
  %cleanup.dest.slot = alloca i32, align 4
  store ptr %this, ptr %this.addr, align 8, !tbaa !108
  store double %E, ptr %E.addr, align 8, !tbaa !16
  store ptr %seed, ptr %seed.addr, align 8, !tbaa !18
  %this1 = load ptr, ptr %this.addr, align 8
  call void @llvm.lifetime.start.p0(i64 8, ptr %a) #6
  %a_ = getelementptr inbounds nuw %"class.openmc::WattEnergy", ptr %this1, i32 0, i32 1
  %0 = load double, ptr %E.addr, align 8, !tbaa !16
  %call = call noundef double @_ZNK6openmc11Tabulated1DclEd(ptr noundef nonnull align 8 dereferenceable(120) %a_, double noundef %0)
  store double %call, ptr %a, align 8, !tbaa !16
  call void @llvm.lifetime.start.p0(i64 8, ptr %b) #6
  %b_ = getelementptr inbounds nuw %"class.openmc::WattEnergy", ptr %this1, i32 0, i32 2
  %1 = load double, ptr %E.addr, align 8, !tbaa !16
  %call2 = call noundef double @_ZNK6openmc11Tabulated1DclEd(ptr noundef nonnull align 8 dereferenceable(120) %b_, double noundef %1)
  store double %call2, ptr %b, align 8, !tbaa !16
  br label %while.cond

while.cond:                                       ; preds = %cleanup.cont, %entry
  br label %while.body

while.body:                                       ; preds = %while.cond
  call void @llvm.lifetime.start.p0(i64 8, ptr %E_out) #6
  %2 = load double, ptr %a, align 8, !tbaa !16
  %3 = load double, ptr %b, align 8, !tbaa !16
  %4 = load ptr, ptr %seed.addr, align 8, !tbaa !18
  %call3 = call double @watt_spectrum(double noundef %2, double noundef %3, ptr noundef %4)
  store double %call3, ptr %E_out, align 8, !tbaa !16
  %5 = load double, ptr %E_out, align 8, !tbaa !16
  %6 = load double, ptr %E.addr, align 8, !tbaa !16
  %u_ = getelementptr inbounds nuw %"class.openmc::WattEnergy", ptr %this1, i32 0, i32 3
  %7 = load double, ptr %u_, align 8, !tbaa !110
  %sub = fsub double %6, %7
  %cmp = fcmp ole double %5, %sub
  br i1 %cmp, label %if.then, label %if.end

if.then:                                          ; preds = %while.body
  %8 = load double, ptr %E_out, align 8, !tbaa !16
  store double %8, ptr %retval, align 8
  store i32 1, ptr %cleanup.dest.slot, align 4
  br label %cleanup

if.end:                                           ; preds = %while.body
  store i32 0, ptr %cleanup.dest.slot, align 4
  br label %cleanup

cleanup:                                          ; preds = %if.end, %if.then
  call void @llvm.lifetime.end.p0(i64 8, ptr %E_out) #6
  %cleanup.dest = load i32, ptr %cleanup.dest.slot, align 4
  switch i32 %cleanup.dest, label %cleanup4 [
    i32 0, label %cleanup.cont
  ]

cleanup.cont:                                     ; preds = %cleanup
  br label %while.cond, !llvm.loop !112

cleanup4:                                         ; preds = %cleanup
  call void @llvm.lifetime.end.p0(i64 8, ptr %b) #6
  call void @llvm.lifetime.end.p0(i64 8, ptr %a) #6
  %9 = load double, ptr %retval, align 8
  ret double %9
}

; Function Attrs: mustprogress uwtable
define void @_ZNK6openmc10WattEnergy9serializeERNS_10DataBufferE(ptr noundef nonnull align 8 dereferenceable(256) %this, ptr noundef nonnull align 8 dereferenceable(28) %buffer) unnamed_addr #1 align 2 {
entry:
  %this.addr = alloca ptr, align 8
  %buffer.addr = alloca ptr, align 8
  %n = alloca i64, align 8
  store ptr %this, ptr %this.addr, align 8, !tbaa !108
  store ptr %buffer, ptr %buffer.addr, align 8, !tbaa !26
  %this1 = load ptr, ptr %this.addr, align 8
  %0 = load ptr, ptr %buffer.addr, align 8, !tbaa !26
  call void @_ZN6openmc10DataBuffer3addIiEENSt9enable_ifIXsr3std9is_scalarINSt5decayIT_E4typeEEE5valueEvE4typeES4_(ptr noundef nonnull align 8 dereferenceable(28) %0, i32 noundef 5)
  %1 = load ptr, ptr %buffer.addr, align 8, !tbaa !26
  call void @_ZN6openmc10DataBuffer5alignEi(ptr noundef nonnull align 8 dereferenceable(28) %1, i32 noundef 8)
  %2 = load ptr, ptr %buffer.addr, align 8, !tbaa !26
  %u_ = getelementptr inbounds nuw %"class.openmc::WattEnergy", ptr %this1, i32 0, i32 3
  %3 = load double, ptr %u_, align 8, !tbaa !110
  call void @_ZN6openmc10DataBuffer3addIdEENSt9enable_ifIXsr3std9is_scalarINSt5decayIT_E4typeEEE5valueEvE4typeES4_(ptr noundef nonnull align 8 dereferenceable(28) %2, double noundef %3)
  call void @llvm.lifetime.start.p0(i64 8, ptr %n) #6
  %a_ = getelementptr inbounds nuw %"class.openmc::WattEnergy", ptr %this1, i32 0, i32 1
  %call = call noundef i64 @_ZN6openmc13buffer_nbytesINS_11Tabulated1DEEEmRKT_(ptr noundef nonnull align 8 dereferenceable(120) %a_)
  store i64 %call, ptr %n, align 8, !tbaa !62
  %4 = load ptr, ptr %buffer.addr, align 8, !tbaa !26
  %5 = load i64, ptr %n, align 8, !tbaa !62
  %add = add i64 24, %5
  call void @_ZN6openmc10DataBuffer3addImEENSt9enable_ifIXsr3std9is_scalarINSt5decayIT_E4typeEEE5valueEvE4typeES4_(ptr noundef nonnull align 8 dereferenceable(28) %4, i64 noundef %add)
  %a_2 = getelementptr inbounds nuw %"class.openmc::WattEnergy", ptr %this1, i32 0, i32 1
  %6 = load ptr, ptr %buffer.addr, align 8, !tbaa !26
  call void @_ZNK6openmc11Tabulated1D9serializeERNS_10DataBufferE(ptr noundef nonnull align 8 dereferenceable(120) %a_2, ptr noundef nonnull align 8 dereferenceable(28) %6)
  %b_ = getelementptr inbounds nuw %"class.openmc::WattEnergy", ptr %this1, i32 0, i32 2
  %7 = load ptr, ptr %buffer.addr, align 8, !tbaa !26
  call void @_ZNK6openmc11Tabulated1D9serializeERNS_10DataBufferE(ptr noundef nonnull align 8 dereferenceable(120) %b_, ptr noundef nonnull align 8 dereferenceable(28) %7)
  call void @llvm.lifetime.end.p0(i64 8, ptr %n) #6
  ret void
}

; Function Attrs: inlinehint mustprogress nounwind uwtable
define linkonce_odr void @_ZN6openmc10WattEnergyD2Ev(ptr noundef nonnull align 8 dereferenceable(256) %this) unnamed_addr #2 comdat align 2 {
entry:
  %this.addr = alloca ptr, align 8
  store ptr %this, ptr %this.addr, align 8, !tbaa !108
  %this1 = load ptr, ptr %this.addr, align 8
  store ptr getelementptr inbounds inrange(-16, 32) ({ [6 x ptr] }, ptr @_ZTVN6openmc10WattEnergyE, i32 0, i32 0, i32 2), ptr %this1, align 8, !tbaa !94
  %b_ = getelementptr inbounds nuw %"class.openmc::WattEnergy", ptr %this1, i32 0, i32 2
  call void @_ZN6openmc11Tabulated1DD2Ev(ptr noundef nonnull align 8 dereferenceable(120) %b_) #6
  %a_ = getelementptr inbounds nuw %"class.openmc::WattEnergy", ptr %this1, i32 0, i32 1
  call void @_ZN6openmc11Tabulated1DD2Ev(ptr noundef nonnull align 8 dereferenceable(120) %a_) #6
  call void @_ZN6openmc18EnergyDistributionD2Ev(ptr noundef nonnull align 8 dereferenceable(8) %this1) #6
  ret void
}

; Function Attrs: inlinehint mustprogress nounwind uwtable
define linkonce_odr void @_ZN6openmc10WattEnergyD0Ev(ptr noundef nonnull align 8 dereferenceable(256) %this) unnamed_addr #2 comdat align 2 {
entry:
  %this.addr = alloca ptr, align 8
  store ptr %this, ptr %this.addr, align 8, !tbaa !108
  %this1 = load ptr, ptr %this.addr, align 8
  call void @_ZN6openmc10WattEnergyD2Ev(ptr noundef nonnull align 8 dereferenceable(256) %this1) #6
  call void @_ZdlPvm(ptr noundef %this1, i64 noundef 256) #22
  ret void
}

; Function Attrs: uwtable
define internal void @__cxx_global_var_init() #3 section ".text.startup" {
entry:
  call void @_ZNSt8ios_base4InitC1Ev(ptr noundef nonnull align 1 dereferenceable(1) @_ZStL8__ioinit)
  %0 = call i32 @__cxa_atexit(ptr @_ZNSt8ios_base4InitD1Ev, ptr @_ZStL8__ioinit, ptr @__dso_handle) #6
  ret void
}

declare void @_ZNSt8ios_base4InitC1Ev(ptr noundef nonnull align 1 dereferenceable(1)) unnamed_addr #4

; Function Attrs: nounwind
declare void @_ZNSt8ios_base4InitD1Ev(ptr noundef nonnull align 1 dereferenceable(1)) unnamed_addr #5

; Function Attrs: nounwind
declare i32 @__cxa_atexit(ptr, ptr, ptr) #6

; Function Attrs: mustprogress nounwind uwtable
define void @_ZN6openmc22EnergyDistributionFlatC2EPKh(ptr noundef nonnull align 8 dereferenceable(16) %this, ptr noundef %data) unnamed_addr #0 align 2 {
entry:
  %this.addr = alloca ptr, align 8
  %data.addr = alloca ptr, align 8
  store ptr %this, ptr %this.addr, align 8, !tbaa !113
  store ptr %data, ptr %data.addr, align 8, !tbaa !115
  %this1 = load ptr, ptr %this.addr, align 8
  %data_ = getelementptr inbounds nuw %"class.openmc::EnergyDistributionFlat", ptr %this1, i32 0, i32 1
  %0 = load ptr, ptr %data.addr, align 8, !tbaa !115
  store ptr %0, ptr %data_, align 8, !tbaa !117
  %data_2 = getelementptr inbounds nuw %"class.openmc::EnergyDistributionFlat", ptr %this1, i32 0, i32 1
  %1 = load ptr, ptr %data_2, align 8, !tbaa !117
  %2 = load i32, ptr %1, align 4, !tbaa !64
  %type_ = getelementptr inbounds nuw %"class.openmc::EnergyDistributionFlat", ptr %this1, i32 0, i32 0
  store i32 %2, ptr %type_, align 8, !tbaa !120
  ret void
}

; Function Attrs: mustprogress uwtable
define noundef double @_ZNK6openmc22EnergyDistributionFlat6sampleEdPm(ptr noundef nonnull align 8 dereferenceable(16) %this, double noundef %E, ptr noundef %seed) #1 align 2 {
entry:
  %retval = alloca double, align 8
  %this.addr = alloca ptr, align 8
  %E.addr = alloca double, align 8
  %seed.addr = alloca ptr, align 8
  %dist = alloca %"class.openmc::DiscretePhotonFlat", align 8
  %dist3 = alloca %"class.openmc::LevelInelasticFlat", align 8
  %dist7 = alloca %"class.openmc::ContinuousTabularFlat", align 8
  %dist11 = alloca %"class.openmc::EvaporationFlat", align 8
  %dist15 = alloca %"class.openmc::MaxwellFlat", align 8
  %dist19 = alloca %"class.openmc::WattFlat", align 8
  store ptr %this, ptr %this.addr, align 8, !tbaa !113
  store double %E, ptr %E.addr, align 8, !tbaa !16
  store ptr %seed, ptr %seed.addr, align 8, !tbaa !18
  %this1 = load ptr, ptr %this.addr, align 8
  %type_ = getelementptr inbounds nuw %"class.openmc::EnergyDistributionFlat", ptr %this1, i32 0, i32 0
  %0 = load i32, ptr %type_, align 8, !tbaa !120
  switch i32 %0, label %sw.default [
    i32 0, label %sw.bb
    i32 1, label %sw.bb2
    i32 2, label %sw.bb6
    i32 3, label %sw.bb10
    i32 4, label %sw.bb14
    i32 5, label %sw.bb18
  ]

sw.bb:                                            ; preds = %entry
  call void @llvm.lifetime.start.p0(i64 8, ptr %dist) #6
  %data_ = getelementptr inbounds nuw %"class.openmc::EnergyDistributionFlat", ptr %this1, i32 0, i32 1
  %1 = load ptr, ptr %data_, align 8, !tbaa !117
  call void @_ZN6openmc18DiscretePhotonFlatC2EPKh(ptr noundef nonnull align 8 dereferenceable(8) %dist, ptr noundef %1)
  %2 = load double, ptr %E.addr, align 8, !tbaa !16
  %3 = load ptr, ptr %seed.addr, align 8, !tbaa !18
  %call = call noundef double @_ZNK6openmc18DiscretePhotonFlat6sampleEdPm(ptr noundef nonnull align 8 dereferenceable(8) %dist, double noundef %2, ptr noundef %3)
  store double %call, ptr %retval, align 8
  call void @llvm.lifetime.end.p0(i64 8, ptr %dist) #6
  br label %return

sw.bb2:                                           ; preds = %entry
  call void @llvm.lifetime.start.p0(i64 8, ptr %dist3) #6
  %data_4 = getelementptr inbounds nuw %"class.openmc::EnergyDistributionFlat", ptr %this1, i32 0, i32 1
  %4 = load ptr, ptr %data_4, align 8, !tbaa !117
  call void @_ZN6openmc18LevelInelasticFlatC2EPKh(ptr noundef nonnull align 8 dereferenceable(8) %dist3, ptr noundef %4)
  %5 = load double, ptr %E.addr, align 8, !tbaa !16
  %6 = load ptr, ptr %seed.addr, align 8, !tbaa !18
  %call5 = call noundef double @_ZNK6openmc18LevelInelasticFlat6sampleEdPm(ptr noundef nonnull align 8 dereferenceable(8) %dist3, double noundef %5, ptr noundef %6)
  store double %call5, ptr %retval, align 8
  call void @llvm.lifetime.end.p0(i64 8, ptr %dist3) #6
  br label %return

sw.bb6:                                           ; preds = %entry
  call void @llvm.lifetime.start.p0(i64 24, ptr %dist7) #6
  %data_8 = getelementptr inbounds nuw %"class.openmc::EnergyDistributionFlat", ptr %this1, i32 0, i32 1
  %7 = load ptr, ptr %data_8, align 8, !tbaa !117
  call void @_ZN6openmc21ContinuousTabularFlatC1EPKh(ptr noundef nonnull align 8 dereferenceable(24) %dist7, ptr noundef %7)
  %8 = load double, ptr %E.addr, align 8, !tbaa !16
  %9 = load ptr, ptr %seed.addr, align 8, !tbaa !18
  %call9 = call noundef double @_ZNK6openmc21ContinuousTabularFlat6sampleEdPm(ptr noundef nonnull align 8 dereferenceable(24) %dist7, double noundef %8, ptr noundef %9)
  store double %call9, ptr %retval, align 8
  call void @llvm.lifetime.end.p0(i64 24, ptr %dist7) #6
  br label %return

sw.bb10:                                          ; preds = %entry
  call void @llvm.lifetime.start.p0(i64 8, ptr %dist11) #6
  %data_12 = getelementptr inbounds nuw %"class.openmc::EnergyDistributionFlat", ptr %this1, i32 0, i32 1
  %10 = load ptr, ptr %data_12, align 8, !tbaa !117
  call void @_ZN6openmc15EvaporationFlatC2EPKh(ptr noundef nonnull align 8 dereferenceable(8) %dist11, ptr noundef %10)
  %11 = load double, ptr %E.addr, align 8, !tbaa !16
  %12 = load ptr, ptr %seed.addr, align 8, !tbaa !18
  %call13 = call noundef double @_ZNK6openmc15EvaporationFlat6sampleEdPm(ptr noundef nonnull align 8 dereferenceable(8) %dist11, double noundef %11, ptr noundef %12)
  store double %call13, ptr %retval, align 8
  call void @llvm.lifetime.end.p0(i64 8, ptr %dist11) #6
  br label %return

sw.bb14:                                          ; preds = %entry
  call void @llvm.lifetime.start.p0(i64 8, ptr %dist15) #6
  %data_16 = getelementptr inbounds nuw %"class.openmc::EnergyDistributionFlat", ptr %this1, i32 0, i32 1
  %13 = load ptr, ptr %data_16, align 8, !tbaa !117
  call void @_ZN6openmc11MaxwellFlatC2EPKh(ptr noundef nonnull align 8 dereferenceable(8) %dist15, ptr noundef %13)
  %14 = load double, ptr %E.addr, align 8, !tbaa !16
  %15 = load ptr, ptr %seed.addr, align 8, !tbaa !18
  %call17 = call noundef double @_ZNK6openmc11MaxwellFlat6sampleEdPm(ptr noundef nonnull align 8 dereferenceable(8) %dist15, double noundef %14, ptr noundef %15)
  store double %call17, ptr %retval, align 8
  call void @llvm.lifetime.end.p0(i64 8, ptr %dist15) #6
  br label %return

sw.bb18:                                          ; preds = %entry
  call void @llvm.lifetime.start.p0(i64 8, ptr %dist19) #6
  %data_20 = getelementptr inbounds nuw %"class.openmc::EnergyDistributionFlat", ptr %this1, i32 0, i32 1
  %16 = load ptr, ptr %data_20, align 8, !tbaa !117
  call void @_ZN6openmc8WattFlatC2EPKh(ptr noundef nonnull align 8 dereferenceable(8) %dist19, ptr noundef %16)
  %17 = load double, ptr %E.addr, align 8, !tbaa !16
  %18 = load ptr, ptr %seed.addr, align 8, !tbaa !18
  %call21 = call noundef double @_ZNK6openmc8WattFlat6sampleEdPm(ptr noundef nonnull align 8 dereferenceable(8) %dist19, double noundef %17, ptr noundef %18)
  store double %call21, ptr %retval, align 8
  call void @llvm.lifetime.end.p0(i64 8, ptr %dist19) #6
  br label %return

sw.default:                                       ; preds = %entry
  unreachable

return:                                           ; preds = %sw.bb18, %sw.bb14, %sw.bb10, %sw.bb6, %sw.bb2, %sw.bb
  %19 = load double, ptr %retval, align 8
  ret double %19
}

; Function Attrs: nocallback nofree nosync nounwind willreturn memory(argmem: readwrite)
declare void @llvm.lifetime.start.p0(i64 immarg, ptr captures(none)) #7

; Function Attrs: mustprogress nounwind uwtable
define linkonce_odr void @_ZN6openmc18DiscretePhotonFlatC2EPKh(ptr noundef nonnull align 8 dereferenceable(8) %this, ptr noundef %data) unnamed_addr #0 comdat align 2 {
entry:
  %this.addr = alloca ptr, align 8
  %data.addr = alloca ptr, align 8
  store ptr %this, ptr %this.addr, align 8, !tbaa !121
  store ptr %data, ptr %data.addr, align 8, !tbaa !115
  %this1 = load ptr, ptr %this.addr, align 8
  %data_ = getelementptr inbounds nuw %"class.openmc::DiscretePhotonFlat", ptr %this1, i32 0, i32 0
  %0 = load ptr, ptr %data.addr, align 8, !tbaa !115
  store ptr %0, ptr %data_, align 8, !tbaa !123
  ret void
}

; Function Attrs: mustprogress uwtable
define noundef double @_ZNK6openmc18DiscretePhotonFlat6sampleEdPm(ptr noundef nonnull align 8 dereferenceable(8) %this, double noundef %E, ptr noundef %seed) #1 align 2 {
entry:
  %retval = alloca double, align 8
  %this.addr = alloca ptr, align 8
  %E.addr = alloca double, align 8
  %seed.addr = alloca ptr, align 8
  %A = alloca double, align 8
  store ptr %this, ptr %this.addr, align 8, !tbaa !121
  store double %E, ptr %E.addr, align 8, !tbaa !16
  store ptr %seed, ptr %seed.addr, align 8, !tbaa !18
  %this1 = load ptr, ptr %this.addr, align 8
  %call = call noundef i32 @_ZNK6openmc18DiscretePhotonFlat12primary_flagEv(ptr noundef nonnull align 8 dereferenceable(8) %this1)
  %cmp = icmp eq i32 %call, 2
  br i1 %cmp, label %if.then, label %if.else

if.then:                                          ; preds = %entry
  call void @llvm.lifetime.start.p0(i64 8, ptr %A) #6
  %call2 = call noundef double @_ZNK6openmc18DiscretePhotonFlat1AEv(ptr noundef nonnull align 8 dereferenceable(8) %this1)
  store double %call2, ptr %A, align 8, !tbaa !16
  %call3 = call noundef double @_ZNK6openmc18DiscretePhotonFlat6energyEv(ptr noundef nonnull align 8 dereferenceable(8) %this1)
  %0 = load double, ptr %A, align 8, !tbaa !16
  %1 = load double, ptr %A, align 8, !tbaa !16
  %add = fadd double %1, 1.000000e+00
  %div = fdiv double %0, %add
  %2 = load double, ptr %E.addr, align 8, !tbaa !16
  %3 = call double @llvm.fmuladd.f64(double %div, double %2, double %call3)
  store double %3, ptr %retval, align 8
  call void @llvm.lifetime.end.p0(i64 8, ptr %A) #6
  br label %return

if.else:                                          ; preds = %entry
  %call4 = call noundef double @_ZNK6openmc18DiscretePhotonFlat6energyEv(ptr noundef nonnull align 8 dereferenceable(8) %this1)
  store double %call4, ptr %retval, align 8
  br label %return

return:                                           ; preds = %if.else, %if.then
  %4 = load double, ptr %retval, align 8
  ret double %4
}

; Function Attrs: nocallback nofree nosync nounwind willreturn memory(argmem: readwrite)
declare void @llvm.lifetime.end.p0(i64 immarg, ptr captures(none)) #7

; Function Attrs: mustprogress nounwind uwtable
define linkonce_odr void @_ZN6openmc18LevelInelasticFlatC2EPKh(ptr noundef nonnull align 8 dereferenceable(8) %this, ptr noundef %data) unnamed_addr #0 comdat align 2 {
entry:
  %this.addr = alloca ptr, align 8
  %data.addr = alloca ptr, align 8
  store ptr %this, ptr %this.addr, align 8, !tbaa !125
  store ptr %data, ptr %data.addr, align 8, !tbaa !115
  %this1 = load ptr, ptr %this.addr, align 8
  %data_ = getelementptr inbounds nuw %"class.openmc::LevelInelasticFlat", ptr %this1, i32 0, i32 0
  %0 = load ptr, ptr %data.addr, align 8, !tbaa !115
  store ptr %0, ptr %data_, align 8, !tbaa !127
  ret void
}

; Function Attrs: mustprogress uwtable
define noundef double @_ZNK6openmc18LevelInelasticFlat6sampleEdPm(ptr noundef nonnull align 8 dereferenceable(8) %this, double noundef %E, ptr noundef %seed) #1 align 2 {
entry:
  %this.addr = alloca ptr, align 8
  %E.addr = alloca double, align 8
  %seed.addr = alloca ptr, align 8
  store ptr %this, ptr %this.addr, align 8, !tbaa !125
  store double %E, ptr %E.addr, align 8, !tbaa !16
  store ptr %seed, ptr %seed.addr, align 8, !tbaa !18
  %this1 = load ptr, ptr %this.addr, align 8
  %call = call noundef double @_ZNK6openmc18LevelInelasticFlat10mass_ratioEv(ptr noundef nonnull align 8 dereferenceable(8) %this1)
  %0 = load double, ptr %E.addr, align 8, !tbaa !16
  %call2 = call noundef double @_ZNK6openmc18LevelInelasticFlat9thresholdEv(ptr noundef nonnull align 8 dereferenceable(8) %this1)
  %sub = fsub double %0, %call2
  %mul = fmul double %call, %sub
  ret double %mul
}

; Function Attrs: mustprogress uwtable
define noundef double @_ZNK6openmc21ContinuousTabularFlat6sampleEdPm(ptr noundef nonnull align 8 dereferenceable(24) %this, double noundef %E, ptr noundef %seed) #1 align 2 {
entry:
  %retval = alloca double, align 8
  %this.addr = alloca ptr, align 8
  %E.addr = alloca double, align 8
  %seed.addr = alloca ptr, align 8
  %histogram_interp = alloca i8, align 1
  %energy_ = alloca %"class.gsl::span", align 8
  %n_energy_in = alloca i64, align 8
  %i = alloca i32, align 4
  %r = alloca double, align 8
  %l = alloca i32, align 4
  %dist_i = alloca %"class.openmc::CTTableFlat", align 8
  %n_discrete = alloca i32, align 4
  %e_out_i = alloca %"class.gsl::span", align 8
  %n_energy_out = alloca i32, align 4
  %E_i_1 = alloca double, align 8
  %E_i_K = alloca double, align 8
  %dist_i1 = alloca %"class.openmc::CTTableFlat", align 8
  %e_out_i1 = alloca %"class.gsl::span", align 8
  %E_i1_1 = alloca double, align 8
  %E_i1_K = alloca double, align 8
  %E_1 = alloca double, align 8
  %E_K = alloca double, align 8
  %dist_l = alloca ptr, align 8
  %e_out = alloca %"class.gsl::span", align 8
  %pdf = alloca %"class.gsl::span", align 8
  %cdf = alloca %"class.gsl::span", align 8
  %r1 = alloca double, align 8
  %c_k = alloca double, align 8
  %k = alloca i32, align 4
  %end = alloca i32, align 4
  %j = alloca i32, align 4
  %cleanup.dest.slot = alloca i32, align 4
  %c_k1 = alloca double, align 8
  %j99 = alloca i32, align 4
  %E_l_k = alloca double, align 8
  %p_l_k = alloca double, align 8
  %E_out = alloca double, align 8
  %E_l_k1 = alloca double, align 8
  %p_l_k1 = alloca double, align 8
  %frac = alloca double, align 8
  %ref.tmp = alloca double, align 8
  %ref.tmp150 = alloca double, align 8
  store ptr %this, ptr %this.addr, align 8, !tbaa !129
  store double %E, ptr %E.addr, align 8, !tbaa !16
  store ptr %seed, ptr %seed.addr, align 8, !tbaa !18
  %this1 = load ptr, ptr %this.addr, align 8
  call void @llvm.lifetime.start.p0(i64 1, ptr %histogram_interp) #6
  %n_region_ = getelementptr inbounds nuw %"class.openmc::ContinuousTabularFlat", ptr %this1, i32 0, i32 1
  %0 = load i64, ptr %n_region_, align 8, !tbaa !131
  %cmp = icmp eq i64 %0, 1
  br i1 %cmp, label %if.then, label %if.else

if.then:                                          ; preds = %entry
  %call = call noundef i32 @_ZNK6openmc21ContinuousTabularFlat13interpolationEl(ptr noundef nonnull align 8 dereferenceable(24) %this1, i64 noundef 0)
  %cmp2 = icmp eq i32 %call, 1
  %storedv = zext i1 %cmp2 to i8
  store i8 %storedv, ptr %histogram_interp, align 1, !tbaa !60
  br label %if.end

if.else:                                          ; preds = %entry
  store i8 0, ptr %histogram_interp, align 1, !tbaa !60
  br label %if.end

if.end:                                           ; preds = %if.else, %if.then
  call void @llvm.lifetime.start.p0(i64 16, ptr %energy_) #6
  %call3 = call { ptr, ptr } @_ZNK6openmc21ContinuousTabularFlat6energyEv(ptr noundef nonnull align 8 dereferenceable(24) %this1)
  %1 = getelementptr inbounds nuw { ptr, ptr }, ptr %energy_, i32 0, i32 0
  %2 = extractvalue { ptr, ptr } %call3, 0
  store ptr %2, ptr %1, align 8
  %3 = getelementptr inbounds nuw { ptr, ptr }, ptr %energy_, i32 0, i32 1
  %4 = extractvalue { ptr, ptr } %call3, 1
  store ptr %4, ptr %3, align 8
  call void @llvm.lifetime.start.p0(i64 8, ptr %n_energy_in) #6
  %call4 = call noundef i64 @_ZNK3gsl4spanIKdE4sizeEv(ptr noundef nonnull align 8 dereferenceable(16) %energy_) #6
  store i64 %call4, ptr %n_energy_in, align 8, !tbaa !62
  call void @llvm.lifetime.start.p0(i64 4, ptr %i) #6
  call void @llvm.lifetime.start.p0(i64 8, ptr %r) #6
  %5 = load double, ptr %E.addr, align 8, !tbaa !16
  %call5 = call noundef nonnull align 8 dereferenceable(8) ptr @_ZNK3gsl4spanIKdEixEm(ptr noundef nonnull align 8 dereferenceable(16) %energy_, i64 noundef 0)
  %6 = load double, ptr %call5, align 8, !tbaa !16
  %cmp6 = fcmp olt double %5, %6
  br i1 %cmp6, label %if.then7, label %if.else8

if.then7:                                         ; preds = %if.end
  store i32 0, ptr %i, align 4, !tbaa !64
  store double 0.000000e+00, ptr %r, align 8, !tbaa !16
  br label %if.end27

if.else8:                                         ; preds = %if.end
  %7 = load double, ptr %E.addr, align 8, !tbaa !16
  %8 = load i64, ptr %n_energy_in, align 8, !tbaa !62
  %sub = sub i64 %8, 1
  %call9 = call noundef nonnull align 8 dereferenceable(8) ptr @_ZNK3gsl4spanIKdEixEm(ptr noundef nonnull align 8 dereferenceable(16) %energy_, i64 noundef %sub)
  %9 = load double, ptr %call9, align 8, !tbaa !16
  %cmp10 = fcmp ogt double %7, %9
  br i1 %cmp10, label %if.then11, label %if.else13

if.then11:                                        ; preds = %if.else8
  %10 = load i64, ptr %n_energy_in, align 8, !tbaa !62
  %sub12 = sub i64 %10, 2
  %conv = trunc i64 %sub12 to i32
  store i32 %conv, ptr %i, align 4, !tbaa !64
  store double 1.000000e+00, ptr %r, align 8, !tbaa !16
  br label %if.end26

if.else13:                                        ; preds = %if.else8
  %call14 = call noundef ptr @_ZNK3gsl4spanIKdE5beginEv(ptr noundef nonnull align 8 dereferenceable(16) %energy_) #6
  %call15 = call noundef ptr @_ZNK3gsl4spanIKdE3endEv(ptr noundef nonnull align 8 dereferenceable(16) %energy_) #6
  %call16 = call noundef i64 @_ZN6openmc17lower_bound_indexIPKddEENSt15iterator_traitsIT_E15difference_typeES4_S4_RKT0_(ptr noundef %call14, ptr noundef %call15, ptr noundef nonnull align 8 dereferenceable(8) %E.addr)
  %conv17 = trunc i64 %call16 to i32
  store i32 %conv17, ptr %i, align 4, !tbaa !64
  %11 = load double, ptr %E.addr, align 8, !tbaa !16
  %12 = load i32, ptr %i, align 4, !tbaa !64
  %conv18 = sext i32 %12 to i64
  %call19 = call noundef nonnull align 8 dereferenceable(8) ptr @_ZNK3gsl4spanIKdEixEm(ptr noundef nonnull align 8 dereferenceable(16) %energy_, i64 noundef %conv18)
  %13 = load double, ptr %call19, align 8, !tbaa !16
  %sub20 = fsub double %11, %13
  %14 = load i32, ptr %i, align 4, !tbaa !64
  %add = add nsw i32 %14, 1
  %conv21 = sext i32 %add to i64
  %call22 = call noundef nonnull align 8 dereferenceable(8) ptr @_ZNK3gsl4spanIKdEixEm(ptr noundef nonnull align 8 dereferenceable(16) %energy_, i64 noundef %conv21)
  %15 = load double, ptr %call22, align 8, !tbaa !16
  %16 = load i32, ptr %i, align 4, !tbaa !64
  %conv23 = sext i32 %16 to i64
  %call24 = call noundef nonnull align 8 dereferenceable(8) ptr @_ZNK3gsl4spanIKdEixEm(ptr noundef nonnull align 8 dereferenceable(16) %energy_, i64 noundef %conv23)
  %17 = load double, ptr %call24, align 8, !tbaa !16
  %sub25 = fsub double %15, %17
  %div = fdiv double %sub20, %sub25
  store double %div, ptr %r, align 8, !tbaa !16
  br label %if.end26

if.end26:                                         ; preds = %if.else13, %if.then11
  br label %if.end27

if.end27:                                         ; preds = %if.end26, %if.then7
  call void @llvm.lifetime.start.p0(i64 4, ptr %l) #6
  %18 = load i8, ptr %histogram_interp, align 1, !tbaa !60, !range !65, !noundef !66
  %loadedv = trunc i8 %18 to i1
  br i1 %loadedv, label %if.then28, label %if.else29

if.then28:                                        ; preds = %if.end27
  %19 = load i32, ptr %i, align 4, !tbaa !64
  store i32 %19, ptr %l, align 4, !tbaa !64
  br label %if.end33

if.else29:                                        ; preds = %if.end27
  %20 = load double, ptr %r, align 8, !tbaa !16
  %21 = load ptr, ptr %seed.addr, align 8, !tbaa !18
  %call30 = call noundef double @_ZN6openmc3prnEPm(ptr noundef %21)
  %cmp31 = fcmp ogt double %20, %call30
  br i1 %cmp31, label %cond.true, label %cond.false

cond.true:                                        ; preds = %if.else29
  %22 = load i32, ptr %i, align 4, !tbaa !64
  %add32 = add nsw i32 %22, 1
  br label %cond.end

cond.false:                                       ; preds = %if.else29
  %23 = load i32, ptr %i, align 4, !tbaa !64
  br label %cond.end

cond.end:                                         ; preds = %cond.false, %cond.true
  %cond = phi i32 [ %add32, %cond.true ], [ %23, %cond.false ]
  store i32 %cond, ptr %l, align 4, !tbaa !64
  br label %if.end33

if.end33:                                         ; preds = %cond.end, %if.then28
  call void @llvm.lifetime.start.p0(i64 16, ptr %dist_i) #6
  %24 = load i32, ptr %i, align 4, !tbaa !64
  %conv34 = sext i32 %24 to i64
  %call35 = call { ptr, i64 } @_ZNK6openmc21ContinuousTabularFlat12distributionEl(ptr noundef nonnull align 8 dereferenceable(24) %this1, i64 noundef %conv34)
  %25 = getelementptr inbounds nuw { ptr, i64 }, ptr %dist_i, i32 0, i32 0
  %26 = extractvalue { ptr, i64 } %call35, 0
  store ptr %26, ptr %25, align 8
  %27 = getelementptr inbounds nuw { ptr, i64 }, ptr %dist_i, i32 0, i32 1
  %28 = extractvalue { ptr, i64 } %call35, 1
  store i64 %28, ptr %27, align 8
  call void @llvm.lifetime.start.p0(i64 4, ptr %n_discrete) #6
  %call36 = call noundef i32 @_ZNK6openmc11CTTableFlat10n_discreteEv(ptr noundef nonnull align 8 dereferenceable(16) %dist_i)
  store i32 %call36, ptr %n_discrete, align 4, !tbaa !64
  call void @llvm.lifetime.start.p0(i64 16, ptr %e_out_i) #6
  %call37 = call { ptr, ptr } @_ZNK6openmc11CTTableFlat5e_outEv(ptr noundef nonnull align 8 dereferenceable(16) %dist_i)
  %29 = getelementptr inbounds nuw { ptr, ptr }, ptr %e_out_i, i32 0, i32 0
  %30 = extractvalue { ptr, ptr } %call37, 0
  store ptr %30, ptr %29, align 8
  %31 = getelementptr inbounds nuw { ptr, ptr }, ptr %e_out_i, i32 0, i32 1
  %32 = extractvalue { ptr, ptr } %call37, 1
  store ptr %32, ptr %31, align 8
  call void @llvm.lifetime.start.p0(i64 4, ptr %n_energy_out) #6
  %call38 = call noundef i64 @_ZNK3gsl4spanIKdE4sizeEv(ptr noundef nonnull align 8 dereferenceable(16) %e_out_i) #6
  %conv39 = trunc i64 %call38 to i32
  store i32 %conv39, ptr %n_energy_out, align 4, !tbaa !64
  call void @llvm.lifetime.start.p0(i64 8, ptr %E_i_1) #6
  %33 = load i32, ptr %n_energy_out, align 4, !tbaa !64
  %34 = load i32, ptr %n_discrete, align 4, !tbaa !64
  %cmp40 = icmp sgt i32 %33, %34
  br i1 %cmp40, label %cond.true41, label %cond.false44

cond.true41:                                      ; preds = %if.end33
  %35 = load i32, ptr %n_discrete, align 4, !tbaa !64
  %conv42 = sext i32 %35 to i64
  %call43 = call noundef nonnull align 8 dereferenceable(8) ptr @_ZNK3gsl4spanIKdEixEm(ptr noundef nonnull align 8 dereferenceable(16) %e_out_i, i64 noundef %conv42)
  %36 = load double, ptr %call43, align 8, !tbaa !16
  br label %cond.end45

cond.false44:                                     ; preds = %if.end33
  br label %cond.end45

cond.end45:                                       ; preds = %cond.false44, %cond.true41
  %cond46 = phi double [ %36, %cond.true41 ], [ 0.000000e+00, %cond.false44 ]
  store double %cond46, ptr %E_i_1, align 8, !tbaa !16
  call void @llvm.lifetime.start.p0(i64 8, ptr %E_i_K) #6
  %37 = load i32, ptr %n_energy_out, align 4, !tbaa !64
  %38 = load i32, ptr %n_discrete, align 4, !tbaa !64
  %cmp47 = icmp sgt i32 %37, %38
  br i1 %cmp47, label %cond.true48, label %cond.false52

cond.true48:                                      ; preds = %cond.end45
  %39 = load i32, ptr %n_energy_out, align 4, !tbaa !64
  %sub49 = sub nsw i32 %39, 1
  %conv50 = sext i32 %sub49 to i64
  %call51 = call noundef nonnull align 8 dereferenceable(8) ptr @_ZNK3gsl4spanIKdEixEm(ptr noundef nonnull align 8 dereferenceable(16) %e_out_i, i64 noundef %conv50)
  %40 = load double, ptr %call51, align 8, !tbaa !16
  br label %cond.end53

cond.false52:                                     ; preds = %cond.end45
  br label %cond.end53

cond.end53:                                       ; preds = %cond.false52, %cond.true48
  %cond54 = phi double [ %40, %cond.true48 ], [ 0.000000e+00, %cond.false52 ]
  store double %cond54, ptr %E_i_K, align 8, !tbaa !16
  call void @llvm.lifetime.start.p0(i64 16, ptr %dist_i1) #6
  %41 = load i32, ptr %i, align 4, !tbaa !64
  %add55 = add nsw i32 %41, 1
  %conv56 = sext i32 %add55 to i64
  %call57 = call { ptr, i64 } @_ZNK6openmc21ContinuousTabularFlat12distributionEl(ptr noundef nonnull align 8 dereferenceable(24) %this1, i64 noundef %conv56)
  %42 = getelementptr inbounds nuw { ptr, i64 }, ptr %dist_i1, i32 0, i32 0
  %43 = extractvalue { ptr, i64 } %call57, 0
  store ptr %43, ptr %42, align 8
  %44 = getelementptr inbounds nuw { ptr, i64 }, ptr %dist_i1, i32 0, i32 1
  %45 = extractvalue { ptr, i64 } %call57, 1
  store i64 %45, ptr %44, align 8
  %call58 = call noundef i32 @_ZNK6openmc11CTTableFlat10n_discreteEv(ptr noundef nonnull align 8 dereferenceable(16) %dist_i1)
  store i32 %call58, ptr %n_discrete, align 4, !tbaa !64
  call void @llvm.lifetime.start.p0(i64 16, ptr %e_out_i1) #6
  %call59 = call { ptr, ptr } @_ZNK6openmc11CTTableFlat5e_outEv(ptr noundef nonnull align 8 dereferenceable(16) %dist_i1)
  %46 = getelementptr inbounds nuw { ptr, ptr }, ptr %e_out_i1, i32 0, i32 0
  %47 = extractvalue { ptr, ptr } %call59, 0
  store ptr %47, ptr %46, align 8
  %48 = getelementptr inbounds nuw { ptr, ptr }, ptr %e_out_i1, i32 0, i32 1
  %49 = extractvalue { ptr, ptr } %call59, 1
  store ptr %49, ptr %48, align 8
  %call60 = call noundef i64 @_ZNK3gsl4spanIKdE4sizeEv(ptr noundef nonnull align 8 dereferenceable(16) %e_out_i1) #6
  %conv61 = trunc i64 %call60 to i32
  store i32 %conv61, ptr %n_energy_out, align 4, !tbaa !64
  call void @llvm.lifetime.start.p0(i64 8, ptr %E_i1_1) #6
  %50 = load i32, ptr %n_energy_out, align 4, !tbaa !64
  %51 = load i32, ptr %n_discrete, align 4, !tbaa !64
  %cmp62 = icmp sgt i32 %50, %51
  br i1 %cmp62, label %cond.true63, label %cond.false66

cond.true63:                                      ; preds = %cond.end53
  %52 = load i32, ptr %n_discrete, align 4, !tbaa !64
  %conv64 = sext i32 %52 to i64
  %call65 = call noundef nonnull align 8 dereferenceable(8) ptr @_ZNK3gsl4spanIKdEixEm(ptr noundef nonnull align 8 dereferenceable(16) %e_out_i1, i64 noundef %conv64)
  %53 = load double, ptr %call65, align 8, !tbaa !16
  br label %cond.end67

cond.false66:                                     ; preds = %cond.end53
  br label %cond.end67

cond.end67:                                       ; preds = %cond.false66, %cond.true63
  %cond68 = phi double [ %53, %cond.true63 ], [ 0.000000e+00, %cond.false66 ]
  store double %cond68, ptr %E_i1_1, align 8, !tbaa !16
  call void @llvm.lifetime.start.p0(i64 8, ptr %E_i1_K) #6
  %54 = load i32, ptr %n_energy_out, align 4, !tbaa !64
  %55 = load i32, ptr %n_discrete, align 4, !tbaa !64
  %cmp69 = icmp sgt i32 %54, %55
  br i1 %cmp69, label %cond.true70, label %cond.false74

cond.true70:                                      ; preds = %cond.end67
  %56 = load i32, ptr %n_energy_out, align 4, !tbaa !64
  %sub71 = sub nsw i32 %56, 1
  %conv72 = sext i32 %sub71 to i64
  %call73 = call noundef nonnull align 8 dereferenceable(8) ptr @_ZNK3gsl4spanIKdEixEm(ptr noundef nonnull align 8 dereferenceable(16) %e_out_i1, i64 noundef %conv72)
  %57 = load double, ptr %call73, align 8, !tbaa !16
  br label %cond.end75

cond.false74:                                     ; preds = %cond.end67
  br label %cond.end75

cond.end75:                                       ; preds = %cond.false74, %cond.true70
  %cond76 = phi double [ %57, %cond.true70 ], [ 0.000000e+00, %cond.false74 ]
  store double %cond76, ptr %E_i1_K, align 8, !tbaa !16
  call void @llvm.lifetime.start.p0(i64 8, ptr %E_1) #6
  %58 = load double, ptr %E_i_1, align 8, !tbaa !16
  %59 = load double, ptr %r, align 8, !tbaa !16
  %60 = load double, ptr %E_i1_1, align 8, !tbaa !16
  %61 = load double, ptr %E_i_1, align 8, !tbaa !16
  %sub77 = fsub double %60, %61
  %62 = call double @llvm.fmuladd.f64(double %59, double %sub77, double %58)
  store double %62, ptr %E_1, align 8, !tbaa !16
  call void @llvm.lifetime.start.p0(i64 8, ptr %E_K) #6
  %63 = load double, ptr %E_i_K, align 8, !tbaa !16
  %64 = load double, ptr %r, align 8, !tbaa !16
  %65 = load double, ptr %E_i1_K, align 8, !tbaa !16
  %66 = load double, ptr %E_i_K, align 8, !tbaa !16
  %sub78 = fsub double %65, %66
  %67 = call double @llvm.fmuladd.f64(double %64, double %sub78, double %63)
  store double %67, ptr %E_K, align 8, !tbaa !16
  call void @llvm.lifetime.start.p0(i64 8, ptr %dist_l) #6
  %68 = load i32, ptr %l, align 4, !tbaa !64
  %69 = load i32, ptr %i, align 4, !tbaa !64
  %cmp79 = icmp eq i32 %68, %69
  br i1 %cmp79, label %cond.true80, label %cond.false81

cond.true80:                                      ; preds = %cond.end75
  br label %cond.end82

cond.false81:                                     ; preds = %cond.end75
  br label %cond.end82

cond.end82:                                       ; preds = %cond.false81, %cond.true80
  %cond83 = phi ptr [ %dist_i, %cond.true80 ], [ %dist_i1, %cond.false81 ]
  store ptr %cond83, ptr %dist_l, align 8, !tbaa !133
  call void @llvm.lifetime.start.p0(i64 16, ptr %e_out) #6
  %70 = load ptr, ptr %dist_l, align 8, !tbaa !133
  %call84 = call { ptr, ptr } @_ZNK6openmc11CTTableFlat5e_outEv(ptr noundef nonnull align 8 dereferenceable(16) %70)
  %71 = getelementptr inbounds nuw { ptr, ptr }, ptr %e_out, i32 0, i32 0
  %72 = extractvalue { ptr, ptr } %call84, 0
  store ptr %72, ptr %71, align 8
  %73 = getelementptr inbounds nuw { ptr, ptr }, ptr %e_out, i32 0, i32 1
  %74 = extractvalue { ptr, ptr } %call84, 1
  store ptr %74, ptr %73, align 8
  call void @llvm.lifetime.start.p0(i64 16, ptr %pdf) #6
  %75 = load ptr, ptr %dist_l, align 8, !tbaa !133
  %call85 = call { ptr, ptr } @_ZNK6openmc11CTTableFlat1pEv(ptr noundef nonnull align 8 dereferenceable(16) %75)
  %76 = getelementptr inbounds nuw { ptr, ptr }, ptr %pdf, i32 0, i32 0
  %77 = extractvalue { ptr, ptr } %call85, 0
  store ptr %77, ptr %76, align 8
  %78 = getelementptr inbounds nuw { ptr, ptr }, ptr %pdf, i32 0, i32 1
  %79 = extractvalue { ptr, ptr } %call85, 1
  store ptr %79, ptr %78, align 8
  call void @llvm.lifetime.start.p0(i64 16, ptr %cdf) #6
  %80 = load ptr, ptr %dist_l, align 8, !tbaa !133
  %call86 = call { ptr, ptr } @_ZNK6openmc11CTTableFlat1cEv(ptr noundef nonnull align 8 dereferenceable(16) %80)
  %81 = getelementptr inbounds nuw { ptr, ptr }, ptr %cdf, i32 0, i32 0
  %82 = extractvalue { ptr, ptr } %call86, 0
  store ptr %82, ptr %81, align 8
  %83 = getelementptr inbounds nuw { ptr, ptr }, ptr %cdf, i32 0, i32 1
  %84 = extractvalue { ptr, ptr } %call86, 1
  store ptr %84, ptr %83, align 8
  %call87 = call noundef i64 @_ZNK3gsl4spanIKdE4sizeEv(ptr noundef nonnull align 8 dereferenceable(16) %e_out) #6
  %conv88 = trunc i64 %call87 to i32
  store i32 %conv88, ptr %n_energy_out, align 4, !tbaa !64
  %85 = load ptr, ptr %dist_l, align 8, !tbaa !133
  %call89 = call noundef i32 @_ZNK6openmc11CTTableFlat10n_discreteEv(ptr noundef nonnull align 8 dereferenceable(16) %85)
  store i32 %call89, ptr %n_discrete, align 4, !tbaa !64
  call void @llvm.lifetime.start.p0(i64 8, ptr %r1) #6
  %86 = load ptr, ptr %seed.addr, align 8, !tbaa !18
  %call90 = call noundef double @_ZN6openmc3prnEPm(ptr noundef %86)
  store double %call90, ptr %r1, align 8, !tbaa !16
  call void @llvm.lifetime.start.p0(i64 8, ptr %c_k) #6
  %call91 = call noundef nonnull align 8 dereferenceable(8) ptr @_ZNK3gsl4spanIKdEixEm(ptr noundef nonnull align 8 dereferenceable(16) %cdf, i64 noundef 0)
  %87 = load double, ptr %call91, align 8, !tbaa !16
  store double %87, ptr %c_k, align 8, !tbaa !16
  call void @llvm.lifetime.start.p0(i64 4, ptr %k) #6
  store i32 0, ptr %k, align 4, !tbaa !64
  call void @llvm.lifetime.start.p0(i64 4, ptr %end) #6
  %88 = load i32, ptr %n_energy_out, align 4, !tbaa !64
  %sub92 = sub nsw i32 %88, 2
  store i32 %sub92, ptr %end, align 4, !tbaa !64
  call void @llvm.lifetime.start.p0(i64 4, ptr %j) #6
  store i32 0, ptr %j, align 4, !tbaa !64
  br label %for.cond

for.cond:                                         ; preds = %for.inc, %cond.end82
  %89 = load i32, ptr %j, align 4, !tbaa !64
  %90 = load i32, ptr %n_discrete, align 4, !tbaa !64
  %cmp93 = icmp slt i32 %89, %90
  br i1 %cmp93, label %for.body, label %for.cond.cleanup

for.cond.cleanup:                                 ; preds = %for.cond
  store i32 2, ptr %cleanup.dest.slot, align 4
  br label %cleanup

for.body:                                         ; preds = %for.cond
  %91 = load i32, ptr %j, align 4, !tbaa !64
  store i32 %91, ptr %k, align 4, !tbaa !64
  %92 = load i32, ptr %k, align 4, !tbaa !64
  %conv94 = sext i32 %92 to i64
  %call95 = call noundef nonnull align 8 dereferenceable(8) ptr @_ZNK3gsl4spanIKdEixEm(ptr noundef nonnull align 8 dereferenceable(16) %cdf, i64 noundef %conv94)
  %93 = load double, ptr %call95, align 8, !tbaa !16
  store double %93, ptr %c_k, align 8, !tbaa !16
  %94 = load double, ptr %r1, align 8, !tbaa !16
  %95 = load double, ptr %c_k, align 8, !tbaa !16
  %cmp96 = fcmp olt double %94, %95
  br i1 %cmp96, label %if.then97, label %if.end98

if.then97:                                        ; preds = %for.body
  %96 = load i32, ptr %j, align 4, !tbaa !64
  store i32 %96, ptr %end, align 4, !tbaa !64
  store i32 2, ptr %cleanup.dest.slot, align 4
  br label %cleanup

if.end98:                                         ; preds = %for.body
  br label %for.inc

for.inc:                                          ; preds = %if.end98
  %97 = load i32, ptr %j, align 4, !tbaa !64
  %inc = add nsw i32 %97, 1
  store i32 %inc, ptr %j, align 4, !tbaa !64
  br label %for.cond, !llvm.loop !135

cleanup:                                          ; preds = %if.then97, %for.cond.cleanup
  call void @llvm.lifetime.end.p0(i64 4, ptr %j) #6
  br label %for.end

for.end:                                          ; preds = %cleanup
  call void @llvm.lifetime.start.p0(i64 8, ptr %c_k1) #6
  call void @llvm.lifetime.start.p0(i64 4, ptr %j99) #6
  %98 = load i32, ptr %n_discrete, align 4, !tbaa !64
  store i32 %98, ptr %j99, align 4, !tbaa !64
  br label %for.cond100

for.cond100:                                      ; preds = %for.inc111, %for.end
  %99 = load i32, ptr %j99, align 4, !tbaa !64
  %100 = load i32, ptr %end, align 4, !tbaa !64
  %cmp101 = icmp slt i32 %99, %100
  br i1 %cmp101, label %for.body103, label %for.cond.cleanup102

for.cond.cleanup102:                              ; preds = %for.cond100
  store i32 5, ptr %cleanup.dest.slot, align 4
  br label %cleanup113

for.body103:                                      ; preds = %for.cond100
  %101 = load i32, ptr %j99, align 4, !tbaa !64
  store i32 %101, ptr %k, align 4, !tbaa !64
  %102 = load i32, ptr %k, align 4, !tbaa !64
  %add104 = add nsw i32 %102, 1
  %conv105 = sext i32 %add104 to i64
  %call106 = call noundef nonnull align 8 dereferenceable(8) ptr @_ZNK3gsl4spanIKdEixEm(ptr noundef nonnull align 8 dereferenceable(16) %cdf, i64 noundef %conv105)
  %103 = load double, ptr %call106, align 8, !tbaa !16
  store double %103, ptr %c_k1, align 8, !tbaa !16
  %104 = load double, ptr %r1, align 8, !tbaa !16
  %105 = load double, ptr %c_k1, align 8, !tbaa !16
  %cmp107 = fcmp olt double %104, %105
  br i1 %cmp107, label %if.then108, label %if.end109

if.then108:                                       ; preds = %for.body103
  store i32 5, ptr %cleanup.dest.slot, align 4
  br label %cleanup113

if.end109:                                        ; preds = %for.body103
  %106 = load i32, ptr %j99, align 4, !tbaa !64
  %add110 = add nsw i32 %106, 1
  store i32 %add110, ptr %k, align 4, !tbaa !64
  %107 = load double, ptr %c_k1, align 8, !tbaa !16
  store double %107, ptr %c_k, align 8, !tbaa !16
  br label %for.inc111

for.inc111:                                       ; preds = %if.end109
  %108 = load i32, ptr %j99, align 4, !tbaa !64
  %inc112 = add nsw i32 %108, 1
  store i32 %inc112, ptr %j99, align 4, !tbaa !64
  br label %for.cond100, !llvm.loop !136

cleanup113:                                       ; preds = %if.then108, %for.cond.cleanup102
  call void @llvm.lifetime.end.p0(i64 4, ptr %j99) #6
  br label %for.end114

for.end114:                                       ; preds = %cleanup113
  call void @llvm.lifetime.start.p0(i64 8, ptr %E_l_k) #6
  %109 = load i32, ptr %k, align 4, !tbaa !64
  %conv115 = sext i32 %109 to i64
  %call116 = call noundef nonnull align 8 dereferenceable(8) ptr @_ZNK3gsl4spanIKdEixEm(ptr noundef nonnull align 8 dereferenceable(16) %e_out, i64 noundef %conv115)
  %110 = load double, ptr %call116, align 8, !tbaa !16
  store double %110, ptr %E_l_k, align 8, !tbaa !16
  call void @llvm.lifetime.start.p0(i64 8, ptr %p_l_k) #6
  %111 = load i32, ptr %k, align 4, !tbaa !64
  %conv117 = sext i32 %111 to i64
  %call118 = call noundef nonnull align 8 dereferenceable(8) ptr @_ZNK3gsl4spanIKdEixEm(ptr noundef nonnull align 8 dereferenceable(16) %pdf, i64 noundef %conv117)
  %112 = load double, ptr %call118, align 8, !tbaa !16
  store double %112, ptr %p_l_k, align 8, !tbaa !16
  call void @llvm.lifetime.start.p0(i64 8, ptr %E_out) #6
  %113 = load double, ptr %E_l_k, align 8, !tbaa !16
  store double %113, ptr %E_out, align 8, !tbaa !16
  %114 = load ptr, ptr %dist_l, align 8, !tbaa !133
  %call119 = call noundef i32 @_ZNK6openmc11CTTableFlat13interpolationEv(ptr noundef nonnull align 8 dereferenceable(16) %114)
  %cmp120 = icmp eq i32 %call119, 1
  br i1 %cmp120, label %if.then121, label %if.else129

if.then121:                                       ; preds = %for.end114
  %115 = load double, ptr %p_l_k, align 8, !tbaa !16
  %cmp122 = fcmp ogt double %115, 0.000000e+00
  br i1 %cmp122, label %land.lhs.true, label %if.end128

land.lhs.true:                                    ; preds = %if.then121
  %116 = load i32, ptr %k, align 4, !tbaa !64
  %117 = load i32, ptr %n_discrete, align 4, !tbaa !64
  %cmp123 = icmp sge i32 %116, %117
  br i1 %cmp123, label %if.then124, label %if.end128

if.then124:                                       ; preds = %land.lhs.true
  %118 = load double, ptr %E_l_k, align 8, !tbaa !16
  %119 = load double, ptr %r1, align 8, !tbaa !16
  %120 = load double, ptr %c_k, align 8, !tbaa !16
  %sub125 = fsub double %119, %120
  %121 = load double, ptr %p_l_k, align 8, !tbaa !16
  %div126 = fdiv double %sub125, %121
  %add127 = fadd double %118, %div126
  store double %add127, ptr %E_out, align 8, !tbaa !16
  br label %if.end128

if.end128:                                        ; preds = %if.then124, %land.lhs.true, %if.then121
  br label %if.end163

if.else129:                                       ; preds = %for.end114
  %122 = load ptr, ptr %dist_l, align 8, !tbaa !133
  %call130 = call noundef i32 @_ZNK6openmc11CTTableFlat13interpolationEv(ptr noundef nonnull align 8 dereferenceable(16) %122)
  %cmp131 = icmp eq i32 %call130, 2
  br i1 %cmp131, label %if.then132, label %if.else161

if.then132:                                       ; preds = %if.else129
  call void @llvm.lifetime.start.p0(i64 8, ptr %E_l_k1) #6
  %123 = load i32, ptr %k, align 4, !tbaa !64
  %add133 = add nsw i32 %123, 1
  %conv134 = sext i32 %add133 to i64
  %call135 = call noundef nonnull align 8 dereferenceable(8) ptr @_ZNK3gsl4spanIKdEixEm(ptr noundef nonnull align 8 dereferenceable(16) %e_out, i64 noundef %conv134)
  %124 = load double, ptr %call135, align 8, !tbaa !16
  store double %124, ptr %E_l_k1, align 8, !tbaa !16
  call void @llvm.lifetime.start.p0(i64 8, ptr %p_l_k1) #6
  %125 = load i32, ptr %k, align 4, !tbaa !64
  %add136 = add nsw i32 %125, 1
  %conv137 = sext i32 %add136 to i64
  %call138 = call noundef nonnull align 8 dereferenceable(8) ptr @_ZNK3gsl4spanIKdEixEm(ptr noundef nonnull align 8 dereferenceable(16) %pdf, i64 noundef %conv137)
  %126 = load double, ptr %call138, align 8, !tbaa !16
  store double %126, ptr %p_l_k1, align 8, !tbaa !16
  %127 = load double, ptr %E_l_k, align 8, !tbaa !16
  %128 = load double, ptr %E_l_k1, align 8, !tbaa !16
  %cmp139 = fcmp une double %127, %128
  br i1 %cmp139, label %if.then140, label %if.end160

if.then140:                                       ; preds = %if.then132
  call void @llvm.lifetime.start.p0(i64 8, ptr %frac) #6
  %129 = load double, ptr %p_l_k1, align 8, !tbaa !16
  %130 = load double, ptr %p_l_k, align 8, !tbaa !16
  %sub141 = fsub double %129, %130
  %131 = load double, ptr %E_l_k1, align 8, !tbaa !16
  %132 = load double, ptr %E_l_k, align 8, !tbaa !16
  %sub142 = fsub double %131, %132
  %div143 = fdiv double %sub141, %sub142
  store double %div143, ptr %frac, align 8, !tbaa !16
  %133 = load double, ptr %frac, align 8, !tbaa !16
  %cmp144 = fcmp oeq double %133, 0.000000e+00
  br i1 %cmp144, label %if.then145, label %if.else149

if.then145:                                       ; preds = %if.then140
  %134 = load double, ptr %E_l_k, align 8, !tbaa !16
  %135 = load double, ptr %r1, align 8, !tbaa !16
  %136 = load double, ptr %c_k, align 8, !tbaa !16
  %sub146 = fsub double %135, %136
  %137 = load double, ptr %p_l_k, align 8, !tbaa !16
  %div147 = fdiv double %sub146, %137
  %add148 = fadd double %134, %div147
  store double %add148, ptr %E_out, align 8, !tbaa !16
  br label %if.end159

if.else149:                                       ; preds = %if.then140
  %138 = load double, ptr %E_l_k, align 8, !tbaa !16
  call void @llvm.lifetime.start.p0(i64 8, ptr %ref.tmp) #6
  store double 0.000000e+00, ptr %ref.tmp, align 8, !tbaa !16
  call void @llvm.lifetime.start.p0(i64 8, ptr %ref.tmp150) #6
  %139 = load double, ptr %p_l_k, align 8, !tbaa !16
  %140 = load double, ptr %p_l_k, align 8, !tbaa !16
  %141 = load double, ptr %frac, align 8, !tbaa !16
  %mul151 = fmul double 2.000000e+00, %141
  %142 = load double, ptr %r1, align 8, !tbaa !16
  %143 = load double, ptr %c_k, align 8, !tbaa !16
  %sub152 = fsub double %142, %143
  %mul153 = fmul double %mul151, %sub152
  %144 = call double @llvm.fmuladd.f64(double %139, double %140, double %mul153)
  store double %144, ptr %ref.tmp150, align 8, !tbaa !16
  %call154 = call noundef nonnull align 8 dereferenceable(8) ptr @_ZSt3maxIdERKT_S2_S2_(ptr noundef nonnull align 8 dereferenceable(8) %ref.tmp, ptr noundef nonnull align 8 dereferenceable(8) %ref.tmp150)
  %145 = load double, ptr %call154, align 8, !tbaa !16
  %call155 = call double @sqrt(double noundef %145) #6, !tbaa !64
  %146 = load double, ptr %p_l_k, align 8, !tbaa !16
  %sub156 = fsub double %call155, %146
  %147 = load double, ptr %frac, align 8, !tbaa !16
  %div157 = fdiv double %sub156, %147
  %add158 = fadd double %138, %div157
  store double %add158, ptr %E_out, align 8, !tbaa !16
  call void @llvm.lifetime.end.p0(i64 8, ptr %ref.tmp150) #6
  call void @llvm.lifetime.end.p0(i64 8, ptr %ref.tmp) #6
  br label %if.end159

if.end159:                                        ; preds = %if.else149, %if.then145
  call void @llvm.lifetime.end.p0(i64 8, ptr %frac) #6
  br label %if.end160

if.end160:                                        ; preds = %if.end159, %if.then132
  call void @llvm.lifetime.end.p0(i64 8, ptr %p_l_k1) #6
  call void @llvm.lifetime.end.p0(i64 8, ptr %E_l_k1) #6
  br label %if.end162

if.else161:                                       ; preds = %if.else129
  br label %if.end162

if.end162:                                        ; preds = %if.else161, %if.end160
  br label %if.end163

if.end163:                                        ; preds = %if.end162, %if.end128
  %148 = load i8, ptr %histogram_interp, align 1, !tbaa !60, !range !65, !noundef !66
  %loadedv164 = trunc i8 %148 to i1
  br i1 %loadedv164, label %if.else184, label %land.lhs.true165

land.lhs.true165:                                 ; preds = %if.end163
  %149 = load i32, ptr %n_energy_out, align 4, !tbaa !64
  %cmp166 = icmp sgt i32 %149, 1
  br i1 %cmp166, label %land.lhs.true167, label %if.else184

land.lhs.true167:                                 ; preds = %land.lhs.true165
  %150 = load i32, ptr %k, align 4, !tbaa !64
  %151 = load i32, ptr %n_discrete, align 4, !tbaa !64
  %cmp168 = icmp sge i32 %150, %151
  br i1 %cmp168, label %if.then169, label %if.else184

if.then169:                                       ; preds = %land.lhs.true167
  %152 = load i32, ptr %l, align 4, !tbaa !64
  %153 = load i32, ptr %i, align 4, !tbaa !64
  %cmp170 = icmp eq i32 %152, %153
  br i1 %cmp170, label %if.then171, label %if.else177

if.then171:                                       ; preds = %if.then169
  %154 = load double, ptr %E_1, align 8, !tbaa !16
  %155 = load double, ptr %E_out, align 8, !tbaa !16
  %156 = load double, ptr %E_i_1, align 8, !tbaa !16
  %sub172 = fsub double %155, %156
  %157 = load double, ptr %E_K, align 8, !tbaa !16
  %158 = load double, ptr %E_1, align 8, !tbaa !16
  %sub173 = fsub double %157, %158
  %mul = fmul double %sub172, %sub173
  %159 = load double, ptr %E_i_K, align 8, !tbaa !16
  %160 = load double, ptr %E_i_1, align 8, !tbaa !16
  %sub174 = fsub double %159, %160
  %div175 = fdiv double %mul, %sub174
  %add176 = fadd double %154, %div175
  store double %add176, ptr %retval, align 8
  store i32 1, ptr %cleanup.dest.slot, align 4
  br label %cleanup185

if.else177:                                       ; preds = %if.then169
  %161 = load double, ptr %E_1, align 8, !tbaa !16
  %162 = load double, ptr %E_out, align 8, !tbaa !16
  %163 = load double, ptr %E_i1_1, align 8, !tbaa !16
  %sub178 = fsub double %162, %163
  %164 = load double, ptr %E_K, align 8, !tbaa !16
  %165 = load double, ptr %E_1, align 8, !tbaa !16
  %sub179 = fsub double %164, %165
  %mul180 = fmul double %sub178, %sub179
  %166 = load double, ptr %E_i1_K, align 8, !tbaa !16
  %167 = load double, ptr %E_i1_1, align 8, !tbaa !16
  %sub181 = fsub double %166, %167
  %div182 = fdiv double %mul180, %sub181
  %add183 = fadd double %161, %div182
  store double %add183, ptr %retval, align 8
  store i32 1, ptr %cleanup.dest.slot, align 4
  br label %cleanup185

if.else184:                                       ; preds = %land.lhs.true167, %land.lhs.true165, %if.end163
  %168 = load double, ptr %E_out, align 8, !tbaa !16
  store double %168, ptr %retval, align 8
  store i32 1, ptr %cleanup.dest.slot, align 4
  br label %cleanup185

cleanup185:                                       ; preds = %if.else184, %if.else177, %if.then171
  call void @llvm.lifetime.end.p0(i64 8, ptr %E_out) #6
  call void @llvm.lifetime.end.p0(i64 8, ptr %p_l_k) #6
  call void @llvm.lifetime.end.p0(i64 8, ptr %E_l_k) #6
  call void @llvm.lifetime.end.p0(i64 8, ptr %c_k1) #6
  call void @llvm.lifetime.end.p0(i64 4, ptr %end) #6
  call void @llvm.lifetime.end.p0(i64 4, ptr %k) #6
  call void @llvm.lifetime.end.p0(i64 8, ptr %c_k) #6
  call void @llvm.lifetime.end.p0(i64 8, ptr %r1) #6
  call void @llvm.lifetime.end.p0(i64 16, ptr %cdf) #6
  call void @llvm.lifetime.end.p0(i64 16, ptr %pdf) #6
  call void @llvm.lifetime.end.p0(i64 16, ptr %e_out) #6
  call void @llvm.lifetime.end.p0(i64 8, ptr %dist_l) #6
  call void @llvm.lifetime.end.p0(i64 8, ptr %E_K) #6
  call void @llvm.lifetime.end.p0(i64 8, ptr %E_1) #6
  call void @llvm.lifetime.end.p0(i64 8, ptr %E_i1_K) #6
  call void @llvm.lifetime.end.p0(i64 8, ptr %E_i1_1) #6
  call void @llvm.lifetime.end.p0(i64 16, ptr %e_out_i1) #6
  call void @llvm.lifetime.end.p0(i64 16, ptr %dist_i1) #6
  call void @llvm.lifetime.end.p0(i64 8, ptr %E_i_K) #6
  call void @llvm.lifetime.end.p0(i64 8, ptr %E_i_1) #6
  call void @llvm.lifetime.end.p0(i64 4, ptr %n_energy_out) #6
  call void @llvm.lifetime.end.p0(i64 16, ptr %e_out_i) #6
  call void @llvm.lifetime.end.p0(i64 4, ptr %n_discrete) #6
  call void @llvm.lifetime.end.p0(i64 16, ptr %dist_i) #6
  call void @llvm.lifetime.end.p0(i64 4, ptr %l) #6
  call void @llvm.lifetime.end.p0(i64 8, ptr %r) #6
  call void @llvm.lifetime.end.p0(i64 4, ptr %i) #6
  call void @llvm.lifetime.end.p0(i64 8, ptr %n_energy_in) #6
  call void @llvm.lifetime.end.p0(i64 16, ptr %energy_) #6
  call void @llvm.lifetime.end.p0(i64 1, ptr %histogram_interp) #6
  %169 = load double, ptr %retval, align 8
  ret double %169
}

; Function Attrs: mustprogress nounwind uwtable
define linkonce_odr void @_ZN6openmc15EvaporationFlatC2EPKh(ptr noundef nonnull align 8 dereferenceable(8) %this, ptr noundef %data) unnamed_addr #0 comdat align 2 {
entry:
  %this.addr = alloca ptr, align 8
  %data.addr = alloca ptr, align 8
  store ptr %this, ptr %this.addr, align 8, !tbaa !137
  store ptr %data, ptr %data.addr, align 8, !tbaa !115
  %this1 = load ptr, ptr %this.addr, align 8
  %data_ = getelementptr inbounds nuw %"class.openmc::EvaporationFlat", ptr %this1, i32 0, i32 0
  %0 = load ptr, ptr %data.addr, align 8, !tbaa !115
  store ptr %0, ptr %data_, align 8, !tbaa !139
  ret void
}

; Function Attrs: mustprogress uwtable
define noundef double @_ZNK6openmc15EvaporationFlat6sampleEdPm(ptr noundef nonnull align 8 dereferenceable(8) %this, double noundef %E, ptr noundef %seed) #1 align 2 {
entry:
  %this.addr = alloca ptr, align 8
  %E.addr = alloca double, align 8
  %seed.addr = alloca ptr, align 8
  %theta = alloca double, align 8
  %ref.tmp = alloca %"class.openmc::Tabulated1DFlat", align 8
  %y = alloca double, align 8
  %v = alloca double, align 8
  %x = alloca double, align 8
  store ptr %this, ptr %this.addr, align 8, !tbaa !137
  store double %E, ptr %E.addr, align 8, !tbaa !16
  store ptr %seed, ptr %seed.addr, align 8, !tbaa !18
  %this1 = load ptr, ptr %this.addr, align 8
  call void @llvm.lifetime.start.p0(i64 8, ptr %theta) #6
  call void @llvm.lifetime.start.p0(i64 24, ptr %ref.tmp) #6
  call void @_ZNK6openmc15EvaporationFlat5thetaEv(ptr dead_on_unwind writable sret(%"class.openmc::Tabulated1DFlat") align 8 %ref.tmp, ptr noundef nonnull align 8 dereferenceable(8) %this1)
  %0 = load double, ptr %E.addr, align 8, !tbaa !16
  %call = call noundef double @_ZNK6openmc15Tabulated1DFlatclEd(ptr noundef nonnull align 8 dereferenceable(24) %ref.tmp, double noundef %0)
  call void @llvm.lifetime.end.p0(i64 24, ptr %ref.tmp) #6
  store double %call, ptr %theta, align 8, !tbaa !16
  call void @llvm.lifetime.start.p0(i64 8, ptr %y) #6
  %1 = load double, ptr %E.addr, align 8, !tbaa !16
  %call2 = call noundef double @_ZNK6openmc15EvaporationFlat1uEv(ptr noundef nonnull align 8 dereferenceable(8) %this1)
  %sub = fsub double %1, %call2
  %2 = load double, ptr %theta, align 8, !tbaa !16
  %div = fdiv double %sub, %2
  store double %div, ptr %y, align 8, !tbaa !16
  call void @llvm.lifetime.start.p0(i64 8, ptr %v) #6
  %3 = load double, ptr %y, align 8, !tbaa !16
  %fneg = fneg double %3
  %call3 = call double @exp(double noundef %fneg) #6, !tbaa !64
  %sub4 = fsub double 1.000000e+00, %call3
  store double %sub4, ptr %v, align 8, !tbaa !16
  call void @llvm.lifetime.start.p0(i64 8, ptr %x) #6
  br label %while.cond

while.cond:                                       ; preds = %if.end, %entry
  br label %while.body

while.body:                                       ; preds = %while.cond
  %4 = load double, ptr %v, align 8, !tbaa !16
  %5 = load ptr, ptr %seed.addr, align 8, !tbaa !18
  %call5 = call noundef double @_ZN6openmc3prnEPm(ptr noundef %5)
  %neg = fneg double %4
  %6 = call double @llvm.fmuladd.f64(double %neg, double %call5, double 1.000000e+00)
  %7 = load double, ptr %v, align 8, !tbaa !16
  %8 = load ptr, ptr %seed.addr, align 8, !tbaa !18
  %call6 = call noundef double @_ZN6openmc3prnEPm(ptr noundef %8)
  %neg7 = fneg double %7
  %9 = call double @llvm.fmuladd.f64(double %neg7, double %call6, double 1.000000e+00)
  %mul = fmul double %6, %9
  %call8 = call double @log(double noundef %mul) #6, !tbaa !64
  %fneg9 = fneg double %call8
  store double %fneg9, ptr %x, align 8, !tbaa !16
  %10 = load double, ptr %x, align 8, !tbaa !16
  %11 = load double, ptr %y, align 8, !tbaa !16
  %cmp = fcmp ole double %10, %11
  br i1 %cmp, label %if.then, label %if.end

if.then:                                          ; preds = %while.body
  br label %while.end

if.end:                                           ; preds = %while.body
  br label %while.cond, !llvm.loop !141

while.end:                                        ; preds = %if.then
  %12 = load double, ptr %x, align 8, !tbaa !16
  %13 = load double, ptr %theta, align 8, !tbaa !16
  %mul10 = fmul double %12, %13
  call void @llvm.lifetime.end.p0(i64 8, ptr %x) #6
  call void @llvm.lifetime.end.p0(i64 8, ptr %v) #6
  call void @llvm.lifetime.end.p0(i64 8, ptr %y) #6
  call void @llvm.lifetime.end.p0(i64 8, ptr %theta) #6
  ret double %mul10
}

; Function Attrs: mustprogress nounwind uwtable
define linkonce_odr void @_ZN6openmc11MaxwellFlatC2EPKh(ptr noundef nonnull align 8 dereferenceable(8) %this, ptr noundef %data) unnamed_addr #0 comdat align 2 {
entry:
  %this.addr = alloca ptr, align 8
  %data.addr = alloca ptr, align 8
  store ptr %this, ptr %this.addr, align 8, !tbaa !142
  store ptr %data, ptr %data.addr, align 8, !tbaa !115
  %this1 = load ptr, ptr %this.addr, align 8
  %data_ = getelementptr inbounds nuw %"class.openmc::MaxwellFlat", ptr %this1, i32 0, i32 0
  %0 = load ptr, ptr %data.addr, align 8, !tbaa !115
  store ptr %0, ptr %data_, align 8, !tbaa !144
  ret void
}

; Function Attrs: mustprogress uwtable
define noundef double @_ZNK6openmc11MaxwellFlat6sampleEdPm(ptr noundef nonnull align 8 dereferenceable(8) %this, double noundef %E, ptr noundef %seed) #1 align 2 {
entry:
  %retval = alloca double, align 8
  %this.addr = alloca ptr, align 8
  %E.addr = alloca double, align 8
  %seed.addr = alloca ptr, align 8
  %theta = alloca double, align 8
  %ref.tmp = alloca %"class.openmc::Tabulated1DFlat", align 8
  %E_out = alloca double, align 8
  %cleanup.dest.slot = alloca i32, align 4
  store ptr %this, ptr %this.addr, align 8, !tbaa !142
  store double %E, ptr %E.addr, align 8, !tbaa !16
  store ptr %seed, ptr %seed.addr, align 8, !tbaa !18
  %this1 = load ptr, ptr %this.addr, align 8
  call void @llvm.lifetime.start.p0(i64 8, ptr %theta) #6
  call void @llvm.lifetime.start.p0(i64 24, ptr %ref.tmp) #6
  call void @_ZNK6openmc11MaxwellFlat5thetaEv(ptr dead_on_unwind writable sret(%"class.openmc::Tabulated1DFlat") align 8 %ref.tmp, ptr noundef nonnull align 8 dereferenceable(8) %this1)
  %0 = load double, ptr %E.addr, align 8, !tbaa !16
  %call = call noundef double @_ZNK6openmc15Tabulated1DFlatclEd(ptr noundef nonnull align 8 dereferenceable(24) %ref.tmp, double noundef %0)
  call void @llvm.lifetime.end.p0(i64 24, ptr %ref.tmp) #6
  store double %call, ptr %theta, align 8, !tbaa !16
  br label %while.cond

while.cond:                                       ; preds = %cleanup.cont, %entry
  br label %while.body

while.body:                                       ; preds = %while.cond
  call void @llvm.lifetime.start.p0(i64 8, ptr %E_out) #6
  %1 = load double, ptr %theta, align 8, !tbaa !16
  %2 = load ptr, ptr %seed.addr, align 8, !tbaa !18
  %call2 = call double @maxwell_spectrum(double noundef %1, ptr noundef %2)
  store double %call2, ptr %E_out, align 8, !tbaa !16
  %3 = load double, ptr %E_out, align 8, !tbaa !16
  %4 = load double, ptr %E.addr, align 8, !tbaa !16
  %call3 = call noundef double @_ZNK6openmc11MaxwellFlat1uEv(ptr noundef nonnull align 8 dereferenceable(8) %this1)
  %sub = fsub double %4, %call3
  %cmp = fcmp ole double %3, %sub
  br i1 %cmp, label %if.then, label %if.end

if.then:                                          ; preds = %while.body
  %5 = load double, ptr %E_out, align 8, !tbaa !16
  store double %5, ptr %retval, align 8
  store i32 1, ptr %cleanup.dest.slot, align 4
  br label %cleanup

if.end:                                           ; preds = %while.body
  store i32 0, ptr %cleanup.dest.slot, align 4
  br label %cleanup

cleanup:                                          ; preds = %if.end, %if.then
  call void @llvm.lifetime.end.p0(i64 8, ptr %E_out) #6
  %cleanup.dest = load i32, ptr %cleanup.dest.slot, align 4
  switch i32 %cleanup.dest, label %cleanup4 [
    i32 0, label %cleanup.cont
  ]

cleanup.cont:                                     ; preds = %cleanup
  br label %while.cond, !llvm.loop !146

cleanup4:                                         ; preds = %cleanup
  call void @llvm.lifetime.end.p0(i64 8, ptr %theta) #6
  %6 = load double, ptr %retval, align 8
  ret double %6
}

; Function Attrs: mustprogress nounwind uwtable
define linkonce_odr void @_ZN6openmc8WattFlatC2EPKh(ptr noundef nonnull align 8 dereferenceable(8) %this, ptr noundef %data) unnamed_addr #0 comdat align 2 {
entry:
  %this.addr = alloca ptr, align 8
  %data.addr = alloca ptr, align 8
  store ptr %this, ptr %this.addr, align 8, !tbaa !147
  store ptr %data, ptr %data.addr, align 8, !tbaa !115
  %this1 = load ptr, ptr %this.addr, align 8
  %data_ = getelementptr inbounds nuw %"class.openmc::WattFlat", ptr %this1, i32 0, i32 0
  %0 = load ptr, ptr %data.addr, align 8, !tbaa !115
  store ptr %0, ptr %data_, align 8, !tbaa !149
  ret void
}

; Function Attrs: mustprogress uwtable
define noundef double @_ZNK6openmc8WattFlat6sampleEdPm(ptr noundef nonnull align 8 dereferenceable(8) %this, double noundef %E, ptr noundef %seed) #1 align 2 {
entry:
  %retval = alloca double, align 8
  %this.addr = alloca ptr, align 8
  %E.addr = alloca double, align 8
  %seed.addr = alloca ptr, align 8
  %a = alloca double, align 8
  %ref.tmp = alloca %"class.openmc::Tabulated1DFlat", align 8
  %b = alloca double, align 8
  %ref.tmp2 = alloca %"class.openmc::Tabulated1DFlat", align 8
  %u = alloca double, align 8
  %E_out = alloca double, align 8
  %cleanup.dest.slot = alloca i32, align 4
  store ptr %this, ptr %this.addr, align 8, !tbaa !147
  store double %E, ptr %E.addr, align 8, !tbaa !16
  store ptr %seed, ptr %seed.addr, align 8, !tbaa !18
  %this1 = load ptr, ptr %this.addr, align 8
  call void @llvm.lifetime.start.p0(i64 8, ptr %a) #6
  call void @llvm.lifetime.start.p0(i64 24, ptr %ref.tmp) #6
  call void @_ZNK6openmc8WattFlat1aEv(ptr dead_on_unwind writable sret(%"class.openmc::Tabulated1DFlat") align 8 %ref.tmp, ptr noundef nonnull align 8 dereferenceable(8) %this1)
  %0 = load double, ptr %E.addr, align 8, !tbaa !16
  %call = call noundef double @_ZNK6openmc15Tabulated1DFlatclEd(ptr noundef nonnull align 8 dereferenceable(24) %ref.tmp, double noundef %0)
  call void @llvm.lifetime.end.p0(i64 24, ptr %ref.tmp) #6
  store double %call, ptr %a, align 8, !tbaa !16
  call void @llvm.lifetime.start.p0(i64 8, ptr %b) #6
  call void @llvm.lifetime.start.p0(i64 24, ptr %ref.tmp2) #6
  call void @_ZNK6openmc8WattFlat1bEv(ptr dead_on_unwind writable sret(%"class.openmc::Tabulated1DFlat") align 8 %ref.tmp2, ptr noundef nonnull align 8 dereferenceable(8) %this1)
  %1 = load double, ptr %E.addr, align 8, !tbaa !16
  %call3 = call noundef double @_ZNK6openmc15Tabulated1DFlatclEd(ptr noundef nonnull align 8 dereferenceable(24) %ref.tmp2, double noundef %1)
  call void @llvm.lifetime.end.p0(i64 24, ptr %ref.tmp2) #6
  store double %call3, ptr %b, align 8, !tbaa !16
  call void @llvm.lifetime.start.p0(i64 8, ptr %u) #6
  %call4 = call noundef double @_ZNK6openmc8WattFlat1uEv(ptr noundef nonnull align 8 dereferenceable(8) %this1)
  store double %call4, ptr %u, align 8, !tbaa !16
  br label %while.cond

while.cond:                                       ; preds = %cleanup.cont, %entry
  br label %while.body

while.body:                                       ; preds = %while.cond
  call void @llvm.lifetime.start.p0(i64 8, ptr %E_out) #6
  %2 = load double, ptr %a, align 8, !tbaa !16
  %3 = load double, ptr %b, align 8, !tbaa !16
  %4 = load ptr, ptr %seed.addr, align 8, !tbaa !18
  %call5 = call double @watt_spectrum(double noundef %2, double noundef %3, ptr noundef %4)
  store double %call5, ptr %E_out, align 8, !tbaa !16
  %5 = load double, ptr %E_out, align 8, !tbaa !16
  %6 = load double, ptr %E.addr, align 8, !tbaa !16
  %7 = load double, ptr %u, align 8, !tbaa !16
  %sub = fsub double %6, %7
  %cmp = fcmp ole double %5, %sub
  br i1 %cmp, label %if.then, label %if.end

if.then:                                          ; preds = %while.body
  %8 = load double, ptr %E_out, align 8, !tbaa !16
  store double %8, ptr %retval, align 8
  store i32 1, ptr %cleanup.dest.slot, align 4
  br label %cleanup

if.end:                                           ; preds = %while.body
  store i32 0, ptr %cleanup.dest.slot, align 4
  br label %cleanup

cleanup:                                          ; preds = %if.end, %if.then
  call void @llvm.lifetime.end.p0(i64 8, ptr %E_out) #6
  %cleanup.dest = load i32, ptr %cleanup.dest.slot, align 4
  switch i32 %cleanup.dest, label %cleanup6 [
    i32 0, label %cleanup.cont
  ]

cleanup.cont:                                     ; preds = %cleanup
  br label %while.cond, !llvm.loop !151

cleanup6:                                         ; preds = %cleanup
  call void @llvm.lifetime.end.p0(i64 8, ptr %u) #6
  call void @llvm.lifetime.end.p0(i64 8, ptr %b) #6
  call void @llvm.lifetime.end.p0(i64 8, ptr %a) #6
  %9 = load double, ptr %retval, align 8
  ret double %9
}

; Function Attrs: mustprogress uwtable
define void @_ZN6openmc14DiscretePhotonC2El(ptr noundef nonnull align 8 dereferenceable(32) %this, i64 noundef %group) unnamed_addr #1 align 2 personality ptr @__gxx_personality_v0 {
entry:
  %this.addr = alloca ptr, align 8
  %group.addr = alloca i64, align 8
  %exn.slot = alloca ptr, align 8
  %ehselector.slot = alloca i32, align 4
  store ptr %this, ptr %this.addr, align 8, !tbaa !11
  store i64 %group, ptr %group.addr, align 8, !tbaa !62
  %this1 = load ptr, ptr %this.addr, align 8
  call void @_ZN6openmc18EnergyDistributionC2Ev(ptr noundef nonnull align 8 dereferenceable(8) %this1) #6
  store ptr getelementptr inbounds inrange(-16, 32) ({ [6 x ptr] }, ptr @_ZTVN6openmc14DiscretePhotonE, i32 0, i32 0, i32 2), ptr %this1, align 8, !tbaa !94
  %0 = load i64, ptr %group.addr, align 8, !tbaa !62
  %primary_flag_ = getelementptr inbounds nuw %"class.openmc::DiscretePhoton", ptr %this1, i32 0, i32 1
  invoke void @_ZN6openmc14read_attributeIiEEvlPKcRT_(i64 noundef %0, ptr noundef @.str, ptr noundef nonnull align 4 dereferenceable(4) %primary_flag_)
          to label %invoke.cont unwind label %lpad

invoke.cont:                                      ; preds = %entry
  %1 = load i64, ptr %group.addr, align 8, !tbaa !62
  %energy_ = getelementptr inbounds nuw %"class.openmc::DiscretePhoton", ptr %this1, i32 0, i32 2
  invoke void @_ZN6openmc14read_attributeIdEEvlPKcRT_(i64 noundef %1, ptr noundef @.str.1, ptr noundef nonnull align 8 dereferenceable(8) %energy_)
          to label %invoke.cont2 unwind label %lpad

invoke.cont2:                                     ; preds = %invoke.cont
  %2 = load i64, ptr %group.addr, align 8, !tbaa !62
  %A_ = getelementptr inbounds nuw %"class.openmc::DiscretePhoton", ptr %this1, i32 0, i32 3
  invoke void @_ZN6openmc14read_attributeIdEEvlPKcRT_(i64 noundef %2, ptr noundef @.str.2, ptr noundef nonnull align 8 dereferenceable(8) %A_)
          to label %invoke.cont3 unwind label %lpad

invoke.cont3:                                     ; preds = %invoke.cont2
  ret void

lpad:                                             ; preds = %invoke.cont2, %invoke.cont, %entry
  %3 = landingpad { ptr, i32 }
          cleanup
  %4 = extractvalue { ptr, i32 } %3, 0
  store ptr %4, ptr %exn.slot, align 8
  %5 = extractvalue { ptr, i32 } %3, 1
  store i32 %5, ptr %ehselector.slot, align 4
  call void @_ZN6openmc18EnergyDistributionD2Ev(ptr noundef nonnull align 8 dereferenceable(8) %this1) #6
  br label %eh.resume

eh.resume:                                        ; preds = %lpad
  %exn = load ptr, ptr %exn.slot, align 8
  %sel = load i32, ptr %ehselector.slot, align 4
  %lpad.val = insertvalue { ptr, i32 } poison, ptr %exn, 0
  %lpad.val4 = insertvalue { ptr, i32 } %lpad.val, i32 %sel, 1
  resume { ptr, i32 } %lpad.val4
}

; Function Attrs: inlinehint mustprogress nounwind uwtable
define linkonce_odr void @_ZN6openmc18EnergyDistributionC2Ev(ptr noundef nonnull align 8 dereferenceable(8) %this) unnamed_addr #2 comdat align 2 {
entry:
  %this.addr = alloca ptr, align 8
  store ptr %this, ptr %this.addr, align 8, !tbaa !33
  %this1 = load ptr, ptr %this.addr, align 8
  store ptr getelementptr inbounds inrange(-16, 32) ({ [6 x ptr] }, ptr @_ZTVN6openmc18EnergyDistributionE, i32 0, i32 0, i32 2), ptr %this1, align 8, !tbaa !94
  ret void
}

; Function Attrs: mustprogress uwtable
define linkonce_odr void @_ZN6openmc14read_attributeIiEEvlPKcRT_(i64 noundef %obj_id, ptr noundef %name, ptr noundef nonnull align 4 dereferenceable(4) %buffer) #1 comdat {
entry:
  %obj_id.addr = alloca i64, align 8
  %name.addr = alloca ptr, align 8
  %buffer.addr = alloca ptr, align 8
  store i64 %obj_id, ptr %obj_id.addr, align 8, !tbaa !62
  store ptr %name, ptr %name.addr, align 8, !tbaa !115
  store ptr %buffer, ptr %buffer.addr, align 8, !tbaa !152
  %0 = load i64, ptr %obj_id.addr, align 8, !tbaa !62
  %1 = load ptr, ptr %name.addr, align 8, !tbaa !115
  %2 = load i64, ptr @_ZN6openmc9H5TypeMapIiE7type_idE, align 8, !tbaa !62
  %3 = load ptr, ptr %buffer.addr, align 8, !tbaa !152
  call void @_ZN6openmc9read_attrElPKclPv(i64 noundef %0, ptr noundef %1, i64 noundef %2, ptr noundef %3)
  ret void
}

declare i32 @__gxx_personality_v0(...)

; Function Attrs: mustprogress uwtable
define linkonce_odr void @_ZN6openmc14read_attributeIdEEvlPKcRT_(i64 noundef %obj_id, ptr noundef %name, ptr noundef nonnull align 8 dereferenceable(8) %buffer) #1 comdat {
entry:
  %obj_id.addr = alloca i64, align 8
  %name.addr = alloca ptr, align 8
  %buffer.addr = alloca ptr, align 8
  store i64 %obj_id, ptr %obj_id.addr, align 8, !tbaa !62
  store ptr %name, ptr %name.addr, align 8, !tbaa !115
  store ptr %buffer, ptr %buffer.addr, align 8, !tbaa !153
  %0 = load i64, ptr %obj_id.addr, align 8, !tbaa !62
  %1 = load ptr, ptr %name.addr, align 8, !tbaa !115
  %2 = load i64, ptr @_ZN6openmc9H5TypeMapIdE7type_idE, align 8, !tbaa !62
  %3 = load ptr, ptr %buffer.addr, align 8, !tbaa !153
  call void @_ZN6openmc9read_attrElPKclPv(i64 noundef %0, ptr noundef %1, i64 noundef %2, ptr noundef %3)
  ret void
}

declare void @__cxa_pure_virtual() unnamed_addr

; Function Attrs: mustprogress nounwind uwtable
define linkonce_odr void @_ZN6openmc18EnergyDistributionD0Ev(ptr noundef nonnull align 8 dereferenceable(8) %this) unnamed_addr #0 comdat align 2 {
entry:
  %this.addr = alloca ptr, align 8
  store ptr %this, ptr %this.addr, align 8, !tbaa !33
  %this1 = load ptr, ptr %this.addr, align 8
  call void @llvm.trap() #24
  unreachable
}

; Function Attrs: cold noreturn nounwind memory(inaccessiblemem: write)
declare void @llvm.trap() #8

declare void @_ZN6openmc9read_attrElPKclPv(i64 noundef, ptr noundef, i64 noundef, ptr noundef) #4

; Function Attrs: nocallback nofree nosync nounwind speculatable willreturn memory(none)
declare double @llvm.fmuladd.f64(double, double, double) #9

; Function Attrs: inlinehint mustprogress nounwind uwtable
define linkonce_odr void @_ZN6openmc10DataBuffer3addIiEENSt9enable_ifIXsr3std9is_scalarINSt5decayIT_E4typeEEE5valueEvE4typeES4_(ptr noundef nonnull align 8 dereferenceable(28) %this, i32 noundef %value) #2 comdat align 2 {
entry:
  %this.addr = alloca ptr, align 8
  %value.addr = alloca i32, align 4
  %ptr = alloca ptr, align 8
  store ptr %this, ptr %this.addr, align 8, !tbaa !26
  store i32 %value, ptr %value.addr, align 4, !tbaa !64
  %this1 = load ptr, ptr %this.addr, align 8
  %mode_ = getelementptr inbounds nuw %"class.openmc::DataBuffer", ptr %this1, i32 0, i32 3
  %0 = load i32, ptr %mode_, align 8, !tbaa !154
  %cmp = icmp eq i32 %0, 1
  br i1 %cmp, label %if.then, label %if.end

if.then:                                          ; preds = %entry
  call void @llvm.lifetime.start.p0(i64 8, ptr %ptr) #6
  %data_ = getelementptr inbounds nuw %"class.openmc::DataBuffer", ptr %this1, i32 0, i32 0
  %1 = load ptr, ptr %data_, align 8, !tbaa !157
  %offset_ = getelementptr inbounds nuw %"class.openmc::DataBuffer", ptr %this1, i32 0, i32 2
  %2 = load i64, ptr %offset_, align 8, !tbaa !158
  %add.ptr = getelementptr inbounds nuw i8, ptr %1, i64 %2
  store ptr %add.ptr, ptr %ptr, align 8, !tbaa !152
  %3 = load i32, ptr %value.addr, align 4, !tbaa !64
  %4 = load ptr, ptr %ptr, align 8, !tbaa !152
  store i32 %3, ptr %4, align 4, !tbaa !64
  call void @llvm.lifetime.end.p0(i64 8, ptr %ptr) #6
  br label %if.end

if.end:                                           ; preds = %if.then, %entry
  %offset_2 = getelementptr inbounds nuw %"class.openmc::DataBuffer", ptr %this1, i32 0, i32 2
  %5 = load i64, ptr %offset_2, align 8, !tbaa !158
  %add = add i64 %5, 4
  store i64 %add, ptr %offset_2, align 8, !tbaa !158
  ret void
}

; Function Attrs: inlinehint mustprogress nounwind uwtable
define linkonce_odr void @_ZN6openmc10DataBuffer3addIdEENSt9enable_ifIXsr3std9is_scalarINSt5decayIT_E4typeEEE5valueEvE4typeES4_(ptr noundef nonnull align 8 dereferenceable(28) %this, double noundef %value) #2 comdat align 2 {
entry:
  %this.addr = alloca ptr, align 8
  %value.addr = alloca double, align 8
  %ptr = alloca ptr, align 8
  store ptr %this, ptr %this.addr, align 8, !tbaa !26
  store double %value, ptr %value.addr, align 8, !tbaa !16
  %this1 = load ptr, ptr %this.addr, align 8
  %mode_ = getelementptr inbounds nuw %"class.openmc::DataBuffer", ptr %this1, i32 0, i32 3
  %0 = load i32, ptr %mode_, align 8, !tbaa !154
  %cmp = icmp eq i32 %0, 1
  br i1 %cmp, label %if.then, label %if.end

if.then:                                          ; preds = %entry
  call void @llvm.lifetime.start.p0(i64 8, ptr %ptr) #6
  %data_ = getelementptr inbounds nuw %"class.openmc::DataBuffer", ptr %this1, i32 0, i32 0
  %1 = load ptr, ptr %data_, align 8, !tbaa !157
  %offset_ = getelementptr inbounds nuw %"class.openmc::DataBuffer", ptr %this1, i32 0, i32 2
  %2 = load i64, ptr %offset_, align 8, !tbaa !158
  %add.ptr = getelementptr inbounds nuw i8, ptr %1, i64 %2
  store ptr %add.ptr, ptr %ptr, align 8, !tbaa !153
  %3 = load double, ptr %value.addr, align 8, !tbaa !16
  %4 = load ptr, ptr %ptr, align 8, !tbaa !153
  store double %3, ptr %4, align 8, !tbaa !16
  call void @llvm.lifetime.end.p0(i64 8, ptr %ptr) #6
  br label %if.end

if.end:                                           ; preds = %if.then, %entry
  %offset_2 = getelementptr inbounds nuw %"class.openmc::DataBuffer", ptr %this1, i32 0, i32 2
  %5 = load i64, ptr %offset_2, align 8, !tbaa !158
  %add = add i64 %5, 8
  store i64 %add, ptr %offset_2, align 8, !tbaa !158
  ret void
}

; Function Attrs: mustprogress nounwind uwtable
define linkonce_odr noundef i32 @_ZNK6openmc18DiscretePhotonFlat12primary_flagEv(ptr noundef nonnull align 8 dereferenceable(8) %this) #0 comdat align 2 {
entry:
  %this.addr = alloca ptr, align 8
  store ptr %this, ptr %this.addr, align 8, !tbaa !121
  %this1 = load ptr, ptr %this.addr, align 8
  %data_ = getelementptr inbounds nuw %"class.openmc::DiscretePhotonFlat", ptr %this1, i32 0, i32 0
  %0 = load ptr, ptr %data_, align 8, !tbaa !123
  %add.ptr = getelementptr inbounds i8, ptr %0, i64 4
  %1 = load i32, ptr %add.ptr, align 4, !tbaa !64
  ret i32 %1
}

; Function Attrs: mustprogress nounwind uwtable
define linkonce_odr noundef double @_ZNK6openmc18DiscretePhotonFlat1AEv(ptr noundef nonnull align 8 dereferenceable(8) %this) #0 comdat align 2 {
entry:
  %this.addr = alloca ptr, align 8
  store ptr %this, ptr %this.addr, align 8, !tbaa !121
  %this1 = load ptr, ptr %this.addr, align 8
  %data_ = getelementptr inbounds nuw %"class.openmc::DiscretePhotonFlat", ptr %this1, i32 0, i32 0
  %0 = load ptr, ptr %data_, align 8, !tbaa !123
  %add.ptr = getelementptr inbounds i8, ptr %0, i64 16
  %1 = load double, ptr %add.ptr, align 8, !tbaa !16
  ret double %1
}

; Function Attrs: mustprogress nounwind uwtable
define linkonce_odr noundef double @_ZNK6openmc18DiscretePhotonFlat6energyEv(ptr noundef nonnull align 8 dereferenceable(8) %this) #0 comdat align 2 {
entry:
  %this.addr = alloca ptr, align 8
  store ptr %this, ptr %this.addr, align 8, !tbaa !121
  %this1 = load ptr, ptr %this.addr, align 8
  %data_ = getelementptr inbounds nuw %"class.openmc::DiscretePhotonFlat", ptr %this1, i32 0, i32 0
  %0 = load ptr, ptr %data_, align 8, !tbaa !123
  %add.ptr = getelementptr inbounds i8, ptr %0, i64 8
  %1 = load double, ptr %add.ptr, align 8, !tbaa !16
  ret double %1
}

; Function Attrs: mustprogress uwtable
define void @_ZN6openmc14LevelInelasticC2El(ptr noundef nonnull align 8 dereferenceable(24) %this, i64 noundef %group) unnamed_addr #1 align 2 personality ptr @__gxx_personality_v0 {
entry:
  %this.addr = alloca ptr, align 8
  %group.addr = alloca i64, align 8
  %exn.slot = alloca ptr, align 8
  %ehselector.slot = alloca i32, align 4
  store ptr %this, ptr %this.addr, align 8, !tbaa !28
  store i64 %group, ptr %group.addr, align 8, !tbaa !62
  %this1 = load ptr, ptr %this.addr, align 8
  call void @_ZN6openmc18EnergyDistributionC2Ev(ptr noundef nonnull align 8 dereferenceable(8) %this1) #6
  store ptr getelementptr inbounds inrange(-16, 32) ({ [6 x ptr] }, ptr @_ZTVN6openmc14LevelInelasticE, i32 0, i32 0, i32 2), ptr %this1, align 8, !tbaa !94
  %0 = load i64, ptr %group.addr, align 8, !tbaa !62
  %threshold_ = getelementptr inbounds nuw %"class.openmc::LevelInelastic", ptr %this1, i32 0, i32 1
  invoke void @_ZN6openmc14read_attributeIdEEvlPKcRT_(i64 noundef %0, ptr noundef @.str.3, ptr noundef nonnull align 8 dereferenceable(8) %threshold_)
          to label %invoke.cont unwind label %lpad

invoke.cont:                                      ; preds = %entry
  %1 = load i64, ptr %group.addr, align 8, !tbaa !62
  %mass_ratio_ = getelementptr inbounds nuw %"class.openmc::LevelInelastic", ptr %this1, i32 0, i32 2
  invoke void @_ZN6openmc14read_attributeIdEEvlPKcRT_(i64 noundef %1, ptr noundef @.str.4, ptr noundef nonnull align 8 dereferenceable(8) %mass_ratio_)
          to label %invoke.cont2 unwind label %lpad

invoke.cont2:                                     ; preds = %invoke.cont
  ret void

lpad:                                             ; preds = %invoke.cont, %entry
  %2 = landingpad { ptr, i32 }
          cleanup
  %3 = extractvalue { ptr, i32 } %2, 0
  store ptr %3, ptr %exn.slot, align 8
  %4 = extractvalue { ptr, i32 } %2, 1
  store i32 %4, ptr %ehselector.slot, align 4
  call void @_ZN6openmc18EnergyDistributionD2Ev(ptr noundef nonnull align 8 dereferenceable(8) %this1) #6
  br label %eh.resume

eh.resume:                                        ; preds = %lpad
  %exn = load ptr, ptr %exn.slot, align 8
  %sel = load i32, ptr %ehselector.slot, align 4
  %lpad.val = insertvalue { ptr, i32 } poison, ptr %exn, 0
  %lpad.val3 = insertvalue { ptr, i32 } %lpad.val, i32 %sel, 1
  resume { ptr, i32 } %lpad.val3
}

declare void @_ZN6openmc10DataBuffer5alignEi(ptr noundef nonnull align 8 dereferenceable(28), i32 noundef) #4

; Function Attrs: mustprogress nounwind uwtable
define linkonce_odr noundef double @_ZNK6openmc18LevelInelasticFlat10mass_ratioEv(ptr noundef nonnull align 8 dereferenceable(8) %this) #0 comdat align 2 {
entry:
  %this.addr = alloca ptr, align 8
  store ptr %this, ptr %this.addr, align 8, !tbaa !125
  %this1 = load ptr, ptr %this.addr, align 8
  %data_ = getelementptr inbounds nuw %"class.openmc::LevelInelasticFlat", ptr %this1, i32 0, i32 0
  %0 = load ptr, ptr %data_, align 8, !tbaa !127
  %add.ptr = getelementptr inbounds i8, ptr %0, i64 16
  %1 = load double, ptr %add.ptr, align 8, !tbaa !16
  ret double %1
}

; Function Attrs: mustprogress nounwind uwtable
define linkonce_odr noundef double @_ZNK6openmc18LevelInelasticFlat9thresholdEv(ptr noundef nonnull align 8 dereferenceable(8) %this) #0 comdat align 2 {
entry:
  %this.addr = alloca ptr, align 8
  store ptr %this, ptr %this.addr, align 8, !tbaa !125
  %this1 = load ptr, ptr %this.addr, align 8
  %data_ = getelementptr inbounds nuw %"class.openmc::LevelInelasticFlat", ptr %this1, i32 0, i32 0
  %0 = load ptr, ptr %data_, align 8, !tbaa !127
  %add.ptr = getelementptr inbounds i8, ptr %0, i64 8
  %1 = load double, ptr %add.ptr, align 8, !tbaa !16
  ret double %1
}

; Function Attrs: mustprogress uwtable
define void @_ZN6openmc17ContinuousTabularC2El(ptr noundef nonnull align 8 dereferenceable(112) %this, i64 noundef %group) unnamed_addr #1 align 2 personality ptr @__gxx_personality_v0 {
entry:
  %this.addr = alloca ptr, align 8
  %group.addr = alloca i64, align 8
  %dset = alloca i64, align 8
  %exn.slot = alloca ptr, align 8
  %ehselector.slot = alloca i32, align 4
  %temp = alloca %"class.xt::xarray_container", align 8
  %temp_b = alloca %"class.xt::xview", align 8
  %ref.tmp = alloca i32, align 4
  %temp_i = alloca %"class.xt::xview", align 8
  %ref.tmp8 = alloca i32, align 4
  %agg.tmp = alloca %"class.std::back_insert_iterator", align 8
  %coerce = alloca %"class.std::back_insert_iterator", align 8
  %__range1 = alloca ptr, align 8
  %__begin1 = alloca ptr, align 8
  %__end1 = alloca ptr, align 8
  %i = alloca i32, align 4
  %ref.tmp24 = alloca i32, align 4
  %n_energy = alloca i64, align 8
  %offsets = alloca %"class.std::vector", align 8
  %interp = alloca %"class.std::vector", align 8
  %n_discrete = alloca %"class.std::vector", align 8
  %eout = alloca %"class.xt::xarray_container.28", align 8
  %i48 = alloca i32, align 4
  %j = alloca i32, align 4
  %n = alloca i32, align 4
  %d = alloca %"struct.openmc::ContinuousTabular::CTTable", align 8
  %ref.tmp78 = alloca %"class.xt::xview.62", align 8
  %ref.tmp79 = alloca i32, align 4
  %ref.tmp80 = alloca %"struct.xt::xrange_adaptor", align 8
  %ref.tmp90 = alloca %"class.xt::xview.62", align 8
  %ref.tmp91 = alloca i32, align 4
  %ref.tmp92 = alloca %"struct.xt::xrange_adaptor", align 8
  %ref.tmp104 = alloca %"class.xt::xview.62", align 8
  %ref.tmp105 = alloca i32, align 4
  %ref.tmp106 = alloca %"struct.xt::xrange_adaptor", align 8
  store ptr %this, ptr %this.addr, align 8, !tbaa !35
  store i64 %group, ptr %group.addr, align 8, !tbaa !62
  %this1 = load ptr, ptr %this.addr, align 8
  call void @_ZN6openmc18EnergyDistributionC2Ev(ptr noundef nonnull align 8 dereferenceable(8) %this1) #6
  store ptr getelementptr inbounds inrange(-16, 32) ({ [6 x ptr] }, ptr @_ZTVN6openmc17ContinuousTabularE, i32 0, i32 0, i32 2), ptr %this1, align 8, !tbaa !94
  %breakpoints_ = getelementptr inbounds nuw %"class.openmc::ContinuousTabular", ptr %this1, i32 0, i32 2
  call void @_ZNSt6vectorIiSaIiEEC2Ev(ptr noundef nonnull align 8 dereferenceable(24) %breakpoints_) #6
  %interpolation_ = getelementptr inbounds nuw %"class.openmc::ContinuousTabular", ptr %this1, i32 0, i32 3
  call void @_ZNSt6vectorIN6openmc13InterpolationESaIS1_EEC2Ev(ptr noundef nonnull align 8 dereferenceable(24) %interpolation_) #6
  %energy_ = getelementptr inbounds nuw %"class.openmc::ContinuousTabular", ptr %this1, i32 0, i32 4
  call void @_ZNSt6vectorIdSaIdEEC2Ev(ptr noundef nonnull align 8 dereferenceable(24) %energy_) #6
  %distribution_ = getelementptr inbounds nuw %"class.openmc::ContinuousTabular", ptr %this1, i32 0, i32 5
  call void @_ZNSt6vectorIN6openmc17ContinuousTabular7CTTableESaIS2_EEC2Ev(ptr noundef nonnull align 8 dereferenceable(24) %distribution_) #6
  call void @llvm.lifetime.start.p0(i64 8, ptr %dset) #6
  %0 = load i64, ptr %group.addr, align 8, !tbaa !62
  %call = invoke i64 @open_dataset(i64 noundef %0, ptr noundef @.str.1)
          to label %invoke.cont unwind label %lpad

invoke.cont:                                      ; preds = %entry
  store i64 %call, ptr %dset, align 8, !tbaa !62
  call void @llvm.lifetime.start.p0(i64 240, ptr %temp) #6
  invoke void @_ZN2xt16xarray_containerINS_7uvectorIiSaIiEEELNS_11layout_typeE1ENS_7svectorImLm4ESaImELb1EEENS_22xtensor_expression_tagEEC2Ev(ptr noundef nonnull align 8 dereferenceable(240) %temp)
          to label %invoke.cont3 unwind label %lpad2

invoke.cont3:                                     ; preds = %invoke.cont
  %1 = load i64, ptr %dset, align 8, !tbaa !62
  invoke void @_ZN6openmc14read_attributeIiEEvlPKcRN2xt16xarray_containerINS3_7uvectorIT_SaIS6_EEELNS3_11layout_typeE1ENS3_7svectorINS8_9size_typeELm4ESaINSt6vectorIS6_S7_E9size_typeEELb1EEENS3_22xtensor_expression_tagEEE(i64 noundef %1, ptr noundef @.str.5, ptr noundef nonnull align 8 dereferenceable(240) %temp)
          to label %invoke.cont5 unwind label %lpad4

invoke.cont5:                                     ; preds = %invoke.cont3
  call void @llvm.lifetime.start.p0(i64 72, ptr %temp_b) #6
  call void @llvm.lifetime.start.p0(i64 4, ptr %ref.tmp) #6
  store i32 0, ptr %ref.tmp, align 4, !tbaa !64
  invoke void @_ZN2xt4viewIRNS_16xarray_containerINS_7uvectorIiSaIiEEELNS_11layout_typeE1ENS_7svectorImLm4ESaImELb1EEENS_22xtensor_expression_tagEEEJiEEEDaOT_DpOT0_(ptr dead_on_unwind writable sret(%"class.xt::xview") align 8 %temp_b, ptr noundef nonnull align 8 dereferenceable(240) %temp, ptr noundef nonnull align 4 dereferenceable(4) %ref.tmp)
          to label %invoke.cont7 unwind label %lpad6

invoke.cont7:                                     ; preds = %invoke.cont5
  call void @llvm.lifetime.end.p0(i64 4, ptr %ref.tmp) #6
  call void @llvm.lifetime.start.p0(i64 72, ptr %temp_i) #6
  call void @llvm.lifetime.start.p0(i64 4, ptr %ref.tmp8) #6
  store i32 1, ptr %ref.tmp8, align 4, !tbaa !64
  invoke void @_ZN2xt4viewIRNS_16xarray_containerINS_7uvectorIiSaIiEEELNS_11layout_typeE1ENS_7svectorImLm4ESaImELb1EEENS_22xtensor_expression_tagEEEJiEEEDaOT_DpOT0_(ptr dead_on_unwind writable sret(%"class.xt::xview") align 8 %temp_i, ptr noundef nonnull align 8 dereferenceable(240) %temp, ptr noundef nonnull align 4 dereferenceable(4) %ref.tmp8)
          to label %invoke.cont10 unwind label %lpad9

invoke.cont10:                                    ; preds = %invoke.cont7
  call void @llvm.lifetime.end.p0(i64 4, ptr %ref.tmp8) #6
  %call11 = call noundef ptr @_ZN2xt20xcontiguous_iterableINS_5xviewIRNS_16xarray_containerINS_7uvectorIiSaIiEEELNS_11layout_typeE1ENS_7svectorImLm4ESaImELb1EEENS_22xtensor_expression_tagEEEJiEEEE5beginILS6_1EEENSt11conditionalIXeqT_L_ZNSE_13static_layoutEEEPiNS_9xiteratorINS_8xstepperISD_EEPNS_13sequence_viewIS9_Ll1ELln1EEEXT_EEEE4typeEv(ptr noundef nonnull align 1 dereferenceable(1) %temp_b) #6
  %call12 = call noundef ptr @_ZN2xt20xcontiguous_iterableINS_5xviewIRNS_16xarray_containerINS_7uvectorIiSaIiEEELNS_11layout_typeE1ENS_7svectorImLm4ESaImELb1EEENS_22xtensor_expression_tagEEEJiEEEE3endILS6_1EEENSt11conditionalIXeqT_L_ZNSE_13static_layoutEEEPiNS_9xiteratorINS_8xstepperISD_EEPNS_13sequence_viewIS9_Ll1ELln1EEEXT_EEEE4typeEv(ptr noundef nonnull align 1 dereferenceable(1) %temp_b) #6
  %breakpoints_13 = getelementptr inbounds nuw %"class.openmc::ContinuousTabular", ptr %this1, i32 0, i32 2
  %call16 = invoke ptr @_ZSt13back_inserterISt6vectorIiSaIiEEESt20back_insert_iteratorIT_ERS4_(ptr noundef nonnull align 8 dereferenceable(24) %breakpoints_13)
          to label %invoke.cont15 unwind label %lpad14

invoke.cont15:                                    ; preds = %invoke.cont10
  %coerce.dive = getelementptr inbounds nuw %"class.std::back_insert_iterator", ptr %agg.tmp, i32 0, i32 0
  store ptr %call16, ptr %coerce.dive, align 8
  %coerce.dive17 = getelementptr inbounds nuw %"class.std::back_insert_iterator", ptr %agg.tmp, i32 0, i32 0
  %2 = load ptr, ptr %coerce.dive17, align 8
  %call19 = invoke ptr @_ZSt4copyIPiSt20back_insert_iteratorISt6vectorIiSaIiEEEET0_T_S7_S6_(ptr noundef %call11, ptr noundef %call12, ptr %2)
          to label %invoke.cont18 unwind label %lpad14

invoke.cont18:                                    ; preds = %invoke.cont15
  %coerce.dive20 = getelementptr inbounds nuw %"class.std::back_insert_iterator", ptr %coerce, i32 0, i32 0
  store ptr %call19, ptr %coerce.dive20, align 8
  call void @llvm.lifetime.start.p0(i64 8, ptr %__range1) #6
  store ptr %temp_i, ptr %__range1, align 8, !tbaa !159
  call void @llvm.lifetime.start.p0(i64 8, ptr %__begin1) #6
  %3 = load ptr, ptr %__range1, align 8, !tbaa !159
  %call21 = call noundef ptr @_ZN2xt20xcontiguous_iterableINS_5xviewIRNS_16xarray_containerINS_7uvectorIiSaIiEEELNS_11layout_typeE1ENS_7svectorImLm4ESaImELb1EEENS_22xtensor_expression_tagEEEJiEEEE5beginILS6_1EEENSt11conditionalIXeqT_L_ZNSE_13static_layoutEEEPiNS_9xiteratorINS_8xstepperISD_EEPNS_13sequence_viewIS9_Ll1ELln1EEEXT_EEEE4typeEv(ptr noundef nonnull align 1 dereferenceable(1) %3) #6
  store ptr %call21, ptr %__begin1, align 8, !tbaa !152
  call void @llvm.lifetime.start.p0(i64 8, ptr %__end1) #6
  %4 = load ptr, ptr %__range1, align 8, !tbaa !159
  %call22 = call noundef ptr @_ZN2xt20xcontiguous_iterableINS_5xviewIRNS_16xarray_containerINS_7uvectorIiSaIiEEELNS_11layout_typeE1ENS_7svectorImLm4ESaImELb1EEENS_22xtensor_expression_tagEEEJiEEEE3endILS6_1EEENSt11conditionalIXeqT_L_ZNSE_13static_layoutEEEPiNS_9xiteratorINS_8xstepperISD_EEPNS_13sequence_viewIS9_Ll1ELln1EEEXT_EEEE4typeEv(ptr noundef nonnull align 1 dereferenceable(1) %4) #6
  store ptr %call22, ptr %__end1, align 8, !tbaa !152
  br label %for.cond

for.cond:                                         ; preds = %for.inc, %invoke.cont18
  %5 = load ptr, ptr %__begin1, align 8, !tbaa !152
  %6 = load ptr, ptr %__end1, align 8, !tbaa !152
  %cmp = icmp ne ptr %5, %6
  br i1 %cmp, label %for.body, label %for.cond.cleanup

for.cond.cleanup:                                 ; preds = %for.cond
  call void @llvm.lifetime.end.p0(i64 8, ptr %__end1) #6
  call void @llvm.lifetime.end.p0(i64 8, ptr %__begin1) #6
  call void @llvm.lifetime.end.p0(i64 8, ptr %__range1) #6
  br label %for.end

lpad:                                             ; preds = %entry
  %7 = landingpad { ptr, i32 }
          cleanup
  %8 = extractvalue { ptr, i32 } %7, 0
  store ptr %8, ptr %exn.slot, align 8
  %9 = extractvalue { ptr, i32 } %7, 1
  store i32 %9, ptr %ehselector.slot, align 4
  br label %ehcleanup142

lpad2:                                            ; preds = %invoke.cont
  %10 = landingpad { ptr, i32 }
          cleanup
  %11 = extractvalue { ptr, i32 } %10, 0
  store ptr %11, ptr %exn.slot, align 8
  %12 = extractvalue { ptr, i32 } %10, 1
  store i32 %12, ptr %ehselector.slot, align 4
  br label %ehcleanup141

lpad4:                                            ; preds = %invoke.cont3
  %13 = landingpad { ptr, i32 }
          cleanup
  %14 = extractvalue { ptr, i32 } %13, 0
  store ptr %14, ptr %exn.slot, align 8
  %15 = extractvalue { ptr, i32 } %13, 1
  store i32 %15, ptr %ehselector.slot, align 4
  br label %ehcleanup140

lpad6:                                            ; preds = %invoke.cont5
  %16 = landingpad { ptr, i32 }
          cleanup
  %17 = extractvalue { ptr, i32 } %16, 0
  store ptr %17, ptr %exn.slot, align 8
  %18 = extractvalue { ptr, i32 } %16, 1
  store i32 %18, ptr %ehselector.slot, align 4
  call void @llvm.lifetime.end.p0(i64 4, ptr %ref.tmp) #6
  br label %ehcleanup139

lpad9:                                            ; preds = %invoke.cont7
  %19 = landingpad { ptr, i32 }
          cleanup
  %20 = extractvalue { ptr, i32 } %19, 0
  store ptr %20, ptr %exn.slot, align 8
  %21 = extractvalue { ptr, i32 } %19, 1
  store i32 %21, ptr %ehselector.slot, align 4
  call void @llvm.lifetime.end.p0(i64 4, ptr %ref.tmp8) #6
  br label %ehcleanup137

lpad14:                                           ; preds = %for.end, %invoke.cont15, %invoke.cont10
  %22 = landingpad { ptr, i32 }
          cleanup
  %23 = extractvalue { ptr, i32 } %22, 0
  store ptr %23, ptr %exn.slot, align 8
  %24 = extractvalue { ptr, i32 } %22, 1
  store i32 %24, ptr %ehselector.slot, align 4
  br label %ehcleanup136

for.body:                                         ; preds = %for.cond
  call void @llvm.lifetime.start.p0(i64 4, ptr %i) #6
  %25 = load ptr, ptr %__begin1, align 8, !tbaa !152
  %26 = load i32, ptr %25, align 4, !tbaa !64
  store i32 %26, ptr %i, align 4, !tbaa !64
  %interpolation_23 = getelementptr inbounds nuw %"class.openmc::ContinuousTabular", ptr %this1, i32 0, i32 3
  call void @llvm.lifetime.start.p0(i64 4, ptr %ref.tmp24) #6
  %27 = load i32, ptr %i, align 4, !tbaa !64
  %call27 = invoke noundef i32 @_ZN6openmc10int2interpEi(i32 noundef %27)
          to label %invoke.cont26 unwind label %lpad25

invoke.cont26:                                    ; preds = %for.body
  store i32 %call27, ptr %ref.tmp24, align 4, !tbaa !58
  invoke void @_ZNSt6vectorIN6openmc13InterpolationESaIS1_EE9push_backEOS1_(ptr noundef nonnull align 8 dereferenceable(24) %interpolation_23, ptr noundef nonnull align 4 dereferenceable(4) %ref.tmp24)
          to label %invoke.cont28 unwind label %lpad25

invoke.cont28:                                    ; preds = %invoke.cont26
  call void @llvm.lifetime.end.p0(i64 4, ptr %ref.tmp24) #6
  call void @llvm.lifetime.end.p0(i64 4, ptr %i) #6
  br label %for.inc

for.inc:                                          ; preds = %invoke.cont28
  %28 = load ptr, ptr %__begin1, align 8, !tbaa !152
  %incdec.ptr = getelementptr inbounds nuw i32, ptr %28, i32 1
  store ptr %incdec.ptr, ptr %__begin1, align 8, !tbaa !152
  br label %for.cond

lpad25:                                           ; preds = %invoke.cont26, %for.body
  %29 = landingpad { ptr, i32 }
          cleanup
  %30 = extractvalue { ptr, i32 } %29, 0
  store ptr %30, ptr %exn.slot, align 8
  %31 = extractvalue { ptr, i32 } %29, 1
  store i32 %31, ptr %ehselector.slot, align 4
  call void @llvm.lifetime.end.p0(i64 4, ptr %ref.tmp24) #6
  call void @llvm.lifetime.end.p0(i64 4, ptr %i) #6
  call void @llvm.lifetime.end.p0(i64 8, ptr %__end1) #6
  call void @llvm.lifetime.end.p0(i64 8, ptr %__begin1) #6
  call void @llvm.lifetime.end.p0(i64 8, ptr %__range1) #6
  br label %ehcleanup136

for.end:                                          ; preds = %for.cond.cleanup
  %breakpoints_29 = getelementptr inbounds nuw %"class.openmc::ContinuousTabular", ptr %this1, i32 0, i32 2
  %call30 = call noundef i64 @_ZNKSt6vectorIiSaIiEE4sizeEv(ptr noundef nonnull align 8 dereferenceable(24) %breakpoints_29) #6
  %conv = trunc i64 %call30 to i32
  %n_region_ = getelementptr inbounds nuw %"class.openmc::ContinuousTabular", ptr %this1, i32 0, i32 1
  store i32 %conv, ptr %n_region_, align 8, !tbaa !37
  %32 = load i64, ptr %dset, align 8, !tbaa !62
  %energy_31 = getelementptr inbounds nuw %"class.openmc::ContinuousTabular", ptr %this1, i32 0, i32 4
  invoke void @_ZN6openmc12read_datasetIdEEvlRSt6vectorIT_SaIS2_EEb(i64 noundef %32, ptr noundef nonnull align 8 dereferenceable(24) %energy_31, i1 noundef zeroext false)
          to label %invoke.cont32 unwind label %lpad14

invoke.cont32:                                    ; preds = %for.end
  call void @llvm.lifetime.start.p0(i64 8, ptr %n_energy) #6
  %energy_33 = getelementptr inbounds nuw %"class.openmc::ContinuousTabular", ptr %this1, i32 0, i32 4
  %call34 = call noundef i64 @_ZNKSt6vectorIdSaIdEE4sizeEv(ptr noundef nonnull align 8 dereferenceable(24) %energy_33) #6
  store i64 %call34, ptr %n_energy, align 8, !tbaa !62
  %33 = load i64, ptr %dset, align 8, !tbaa !62
  invoke void @close_dataset(i64 noundef %33)
          to label %invoke.cont36 unwind label %lpad35

invoke.cont36:                                    ; preds = %invoke.cont32
  %34 = load i64, ptr %group.addr, align 8, !tbaa !62
  %call38 = invoke i64 @open_dataset(i64 noundef %34, ptr noundef @.str.6)
          to label %invoke.cont37 unwind label %lpad35

invoke.cont37:                                    ; preds = %invoke.cont36
  store i64 %call38, ptr %dset, align 8, !tbaa !62
  call void @llvm.lifetime.start.p0(i64 24, ptr %offsets) #6
  call void @_ZNSt6vectorIiSaIiEEC2Ev(ptr noundef nonnull align 8 dereferenceable(24) %offsets) #6
  call void @llvm.lifetime.start.p0(i64 24, ptr %interp) #6
  call void @_ZNSt6vectorIiSaIiEEC2Ev(ptr noundef nonnull align 8 dereferenceable(24) %interp) #6
  call void @llvm.lifetime.start.p0(i64 24, ptr %n_discrete) #6
  call void @_ZNSt6vectorIiSaIiEEC2Ev(ptr noundef nonnull align 8 dereferenceable(24) %n_discrete) #6
  %35 = load i64, ptr %dset, align 8, !tbaa !62
  invoke void @_ZN6openmc14read_attributeIiEEvlPKcRSt6vectorIT_SaIS4_EE(i64 noundef %35, ptr noundef @.str.7, ptr noundef nonnull align 8 dereferenceable(24) %offsets)
          to label %invoke.cont40 unwind label %lpad39

invoke.cont40:                                    ; preds = %invoke.cont37
  %36 = load i64, ptr %dset, align 8, !tbaa !62
  invoke void @_ZN6openmc14read_attributeIiEEvlPKcRSt6vectorIT_SaIS4_EE(i64 noundef %36, ptr noundef @.str.5, ptr noundef nonnull align 8 dereferenceable(24) %interp)
          to label %invoke.cont41 unwind label %lpad39

invoke.cont41:                                    ; preds = %invoke.cont40
  %37 = load i64, ptr %dset, align 8, !tbaa !62
  invoke void @_ZN6openmc14read_attributeIiEEvlPKcRSt6vectorIT_SaIS4_EE(i64 noundef %37, ptr noundef @.str.8, ptr noundef nonnull align 8 dereferenceable(24) %n_discrete)
          to label %invoke.cont42 unwind label %lpad39

invoke.cont42:                                    ; preds = %invoke.cont41
  call void @llvm.lifetime.start.p0(i64 240, ptr %eout) #6
  invoke void @_ZN2xt16xarray_containerINS_7uvectorIdSaIdEEELNS_11layout_typeE1ENS_7svectorImLm4ESaImELb1EEENS_22xtensor_expression_tagEEC2Ev(ptr noundef nonnull align 8 dereferenceable(240) %eout)
          to label %invoke.cont44 unwind label %lpad43

invoke.cont44:                                    ; preds = %invoke.cont42
  %38 = load i64, ptr %dset, align 8, !tbaa !62
  invoke void @_ZN6openmc12read_datasetIdEEvlRN2xt16xarray_containerINS1_7uvectorIT_SaIS4_EEELNS1_11layout_typeE1ENS1_7svectorINS6_9size_typeELm4ESaINSt6vectorIS4_S5_E9size_typeEELb1EEENS1_22xtensor_expression_tagEEEb(i64 noundef %38, ptr noundef nonnull align 8 dereferenceable(240) %eout, i1 noundef zeroext false)
          to label %invoke.cont46 unwind label %lpad45

invoke.cont46:                                    ; preds = %invoke.cont44
  %39 = load i64, ptr %dset, align 8, !tbaa !62
  invoke void @close_dataset(i64 noundef %39)
          to label %invoke.cont47 unwind label %lpad45

invoke.cont47:                                    ; preds = %invoke.cont46
  call void @llvm.lifetime.start.p0(i64 4, ptr %i48) #6
  store i32 0, ptr %i48, align 4, !tbaa !64
  br label %for.cond49

for.cond49:                                       ; preds = %for.inc124, %invoke.cont47
  %40 = load i32, ptr %i48, align 4, !tbaa !64
  %conv50 = sext i32 %40 to i64
  %41 = load i64, ptr %n_energy, align 8, !tbaa !62
  %cmp51 = icmp ult i64 %conv50, %41
  br i1 %cmp51, label %for.body53, label %for.cond.cleanup52

for.cond.cleanup52:                               ; preds = %for.cond49
  call void @llvm.lifetime.end.p0(i64 4, ptr %i48) #6
  br label %for.end126

lpad35:                                           ; preds = %invoke.cont36, %invoke.cont32
  %42 = landingpad { ptr, i32 }
          cleanup
  %43 = extractvalue { ptr, i32 } %42, 0
  store ptr %43, ptr %exn.slot, align 8
  %44 = extractvalue { ptr, i32 } %42, 1
  store i32 %44, ptr %ehselector.slot, align 4
  br label %ehcleanup135

lpad39:                                           ; preds = %invoke.cont41, %invoke.cont40, %invoke.cont37
  %45 = landingpad { ptr, i32 }
          cleanup
  %46 = extractvalue { ptr, i32 } %45, 0
  store ptr %46, ptr %exn.slot, align 8
  %47 = extractvalue { ptr, i32 } %45, 1
  store i32 %47, ptr %ehselector.slot, align 4
  br label %ehcleanup129

lpad43:                                           ; preds = %invoke.cont42
  %48 = landingpad { ptr, i32 }
          cleanup
  %49 = extractvalue { ptr, i32 } %48, 0
  store ptr %49, ptr %exn.slot, align 8
  %50 = extractvalue { ptr, i32 } %48, 1
  store i32 %50, ptr %ehselector.slot, align 4
  br label %ehcleanup128

lpad45:                                           ; preds = %invoke.cont46, %invoke.cont44
  %51 = landingpad { ptr, i32 }
          cleanup
  %52 = extractvalue { ptr, i32 } %51, 0
  store ptr %52, ptr %exn.slot, align 8
  %53 = extractvalue { ptr, i32 } %51, 1
  store i32 %53, ptr %ehselector.slot, align 4
  br label %ehcleanup127

for.body53:                                       ; preds = %for.cond49
  call void @llvm.lifetime.start.p0(i64 4, ptr %j) #6
  %54 = load i32, ptr %i48, align 4, !tbaa !64
  %conv54 = sext i32 %54 to i64
  %call55 = call noundef nonnull align 4 dereferenceable(4) ptr @_ZNSt6vectorIiSaIiEEixEm(ptr noundef nonnull align 8 dereferenceable(24) %offsets, i64 noundef %conv54) #6
  %55 = load i32, ptr %call55, align 4, !tbaa !64
  store i32 %55, ptr %j, align 4, !tbaa !64
  call void @llvm.lifetime.start.p0(i64 4, ptr %n) #6
  %56 = load i32, ptr %i48, align 4, !tbaa !64
  %conv56 = sext i32 %56 to i64
  %57 = load i64, ptr %n_energy, align 8, !tbaa !62
  %sub = sub i64 %57, 1
  %cmp57 = icmp ult i64 %conv56, %sub
  br i1 %cmp57, label %if.then, label %if.else

if.then:                                          ; preds = %for.body53
  %58 = load i32, ptr %i48, align 4, !tbaa !64
  %add = add nsw i32 %58, 1
  %conv58 = sext i32 %add to i64
  %call59 = call noundef nonnull align 4 dereferenceable(4) ptr @_ZNSt6vectorIiSaIiEEixEm(ptr noundef nonnull align 8 dereferenceable(24) %offsets, i64 noundef %conv58) #6
  %59 = load i32, ptr %call59, align 4, !tbaa !64
  %60 = load i32, ptr %j, align 4, !tbaa !64
  %sub60 = sub nsw i32 %59, %60
  store i32 %sub60, ptr %n, align 4, !tbaa !64
  br label %if.end

if.else:                                          ; preds = %for.body53
  %call61 = call noundef nonnull align 8 dereferenceable(64) ptr @_ZNK2xt10xcontainerINS_16xarray_containerINS_7uvectorIdSaIdEEELNS_11layout_typeE1ENS_7svectorImLm4ESaImELb1EEENS_22xtensor_expression_tagEEEE5shapeEv(ptr noundef nonnull align 1 dereferenceable(1) %eout) #6
  %call64 = invoke noundef nonnull align 8 dereferenceable(8) ptr @_ZNK2xt7svectorImLm4ESaImELb1EEixEm(ptr noundef nonnull align 8 dereferenceable(64) %call61, i64 noundef 1)
          to label %invoke.cont63 unwind label %lpad62

invoke.cont63:                                    ; preds = %if.else
  %61 = load i64, ptr %call64, align 8, !tbaa !62
  %62 = load i32, ptr %j, align 4, !tbaa !64
  %conv65 = sext i32 %62 to i64
  %sub66 = sub i64 %61, %conv65
  %conv67 = trunc i64 %sub66 to i32
  store i32 %conv67, ptr %n, align 4, !tbaa !64
  br label %if.end

lpad62:                                           ; preds = %if.else
  %63 = landingpad { ptr, i32 }
          cleanup
  %64 = extractvalue { ptr, i32 } %63, 0
  store ptr %64, ptr %exn.slot, align 8
  %65 = extractvalue { ptr, i32 } %63, 1
  store i32 %65, ptr %ehselector.slot, align 4
  br label %ehcleanup122

if.end:                                           ; preds = %invoke.cont63, %if.then
  call void @llvm.lifetime.start.p0(i64 224, ptr %d) #6
  invoke void @_ZN6openmc17ContinuousTabular7CTTableC2Ev(ptr noundef nonnull align 8 dereferenceable(224) %d)
          to label %invoke.cont69 unwind label %lpad68

invoke.cont69:                                    ; preds = %if.end
  %66 = load i32, ptr %i48, align 4, !tbaa !64
  %conv70 = sext i32 %66 to i64
  %call71 = call noundef nonnull align 4 dereferenceable(4) ptr @_ZNSt6vectorIiSaIiEEixEm(ptr noundef nonnull align 8 dereferenceable(24) %interp, i64 noundef %conv70) #6
  %67 = load i32, ptr %call71, align 4, !tbaa !64
  %call74 = invoke noundef i32 @_ZN6openmc10int2interpEi(i32 noundef %67)
          to label %invoke.cont73 unwind label %lpad72

invoke.cont73:                                    ; preds = %invoke.cont69
  %interpolation = getelementptr inbounds nuw %"struct.openmc::ContinuousTabular::CTTable", ptr %d, i32 0, i32 0
  store i32 %call74, ptr %interpolation, align 8, !tbaa !87
  %68 = load i32, ptr %i48, align 4, !tbaa !64
  %conv75 = sext i32 %68 to i64
  %call76 = call noundef nonnull align 4 dereferenceable(4) ptr @_ZNSt6vectorIiSaIiEEixEm(ptr noundef nonnull align 8 dereferenceable(24) %n_discrete, i64 noundef %conv75) #6
  %69 = load i32, ptr %call76, align 4, !tbaa !64
  %n_discrete77 = getelementptr inbounds nuw %"struct.openmc::ContinuousTabular::CTTable", ptr %d, i32 0, i32 1
  store i32 %69, ptr %n_discrete77, align 4, !tbaa !67
  call void @llvm.lifetime.start.p0(i64 256, ptr %ref.tmp78) #6
  call void @llvm.lifetime.start.p0(i64 4, ptr %ref.tmp79) #6
  store i32 0, ptr %ref.tmp79, align 4, !tbaa !64
  call void @llvm.lifetime.start.p0(i64 24, ptr %ref.tmp80) #6
  %70 = load i32, ptr %j, align 4, !tbaa !64
  %71 = load i32, ptr %j, align 4, !tbaa !64
  %72 = load i32, ptr %n, align 4, !tbaa !64
  %add81 = add nsw i32 %71, %72
  invoke void @_ZN2xt5rangeIiiEEDaT_T0_(ptr dead_on_unwind writable sret(%"struct.xt::xrange_adaptor") align 8 %ref.tmp80, i32 noundef %70, i32 noundef %add81)
          to label %invoke.cont83 unwind label %lpad82

invoke.cont83:                                    ; preds = %invoke.cont73
  invoke void @_ZN2xt4viewIRNS_16xarray_containerINS_7uvectorIdSaIdEEELNS_11layout_typeE1ENS_7svectorImLm4ESaImELb1EEENS_22xtensor_expression_tagEEEJiNS_14xrange_adaptorIllNS_12placeholders5xtuphEEEEEEDaOT_DpOT0_(ptr dead_on_unwind writable sret(%"class.xt::xview.62") align 8 %ref.tmp78, ptr noundef nonnull align 8 dereferenceable(240) %eout, ptr noundef nonnull align 4 dereferenceable(4) %ref.tmp79, ptr noundef nonnull align 8 dereferenceable(17) %ref.tmp80)
          to label %invoke.cont84 unwind label %lpad82

invoke.cont84:                                    ; preds = %invoke.cont83
  %e_out = getelementptr inbounds nuw %"struct.openmc::ContinuousTabular::CTTable", ptr %d, i32 0, i32 2
  %call87 = invoke noundef nonnull align 8 dereferenceable(72) ptr @_ZN2xt17xtensor_containerINS_7uvectorIdSaIdEEELm1ELNS_11layout_typeE1ENS_22xtensor_expression_tagEEaSINS_5xviewIRNS_16xarray_containerIS3_LS4_1ENS_7svectorImLm4ESaImELb1EEES5_EEJiNS_6xrangeIlEEEEEEERS6_RKNS_11xexpressionIT_EE(ptr noundef nonnull align 8 dereferenceable(72) %e_out, ptr noundef nonnull align 1 dereferenceable(1) %ref.tmp78)
          to label %invoke.cont86 unwind label %lpad85

invoke.cont86:                                    ; preds = %invoke.cont84
  call void @_ZN2xt5xviewIRNS_16xarray_containerINS_7uvectorIdSaIdEEELNS_11layout_typeE1ENS_7svectorImLm4ESaImELb1EEENS_22xtensor_expression_tagEEEJiNS_6xrangeIlEEEED2Ev(ptr noundef nonnull align 8 dereferenceable(249) %ref.tmp78) #6
  call void @llvm.lifetime.end.p0(i64 24, ptr %ref.tmp80) #6
  call void @llvm.lifetime.end.p0(i64 4, ptr %ref.tmp79) #6
  call void @llvm.lifetime.end.p0(i64 256, ptr %ref.tmp78) #6
  call void @llvm.lifetime.start.p0(i64 256, ptr %ref.tmp90) #6
  call void @llvm.lifetime.start.p0(i64 4, ptr %ref.tmp91) #6
  store i32 1, ptr %ref.tmp91, align 4, !tbaa !64
  call void @llvm.lifetime.start.p0(i64 24, ptr %ref.tmp92) #6
  %73 = load i32, ptr %j, align 4, !tbaa !64
  %74 = load i32, ptr %j, align 4, !tbaa !64
  %75 = load i32, ptr %n, align 4, !tbaa !64
  %add93 = add nsw i32 %74, %75
  invoke void @_ZN2xt5rangeIiiEEDaT_T0_(ptr dead_on_unwind writable sret(%"struct.xt::xrange_adaptor") align 8 %ref.tmp92, i32 noundef %73, i32 noundef %add93)
          to label %invoke.cont95 unwind label %lpad94

invoke.cont95:                                    ; preds = %invoke.cont86
  invoke void @_ZN2xt4viewIRNS_16xarray_containerINS_7uvectorIdSaIdEEELNS_11layout_typeE1ENS_7svectorImLm4ESaImELb1EEENS_22xtensor_expression_tagEEEJiNS_14xrange_adaptorIllNS_12placeholders5xtuphEEEEEEDaOT_DpOT0_(ptr dead_on_unwind writable sret(%"class.xt::xview.62") align 8 %ref.tmp90, ptr noundef nonnull align 8 dereferenceable(240) %eout, ptr noundef nonnull align 4 dereferenceable(4) %ref.tmp91, ptr noundef nonnull align 8 dereferenceable(17) %ref.tmp92)
          to label %invoke.cont96 unwind label %lpad94

invoke.cont96:                                    ; preds = %invoke.cont95
  %p = getelementptr inbounds nuw %"struct.openmc::ContinuousTabular::CTTable", ptr %d, i32 0, i32 3
  %call99 = invoke noundef nonnull align 8 dereferenceable(72) ptr @_ZN2xt17xtensor_containerINS_7uvectorIdSaIdEEELm1ELNS_11layout_typeE1ENS_22xtensor_expression_tagEEaSINS_5xviewIRNS_16xarray_containerIS3_LS4_1ENS_7svectorImLm4ESaImELb1EEES5_EEJiNS_6xrangeIlEEEEEEERS6_RKNS_11xexpressionIT_EE(ptr noundef nonnull align 8 dereferenceable(72) %p, ptr noundef nonnull align 1 dereferenceable(1) %ref.tmp90)
          to label %invoke.cont98 unwind label %lpad97

invoke.cont98:                                    ; preds = %invoke.cont96
  call void @_ZN2xt5xviewIRNS_16xarray_containerINS_7uvectorIdSaIdEEELNS_11layout_typeE1ENS_7svectorImLm4ESaImELb1EEENS_22xtensor_expression_tagEEEJiNS_6xrangeIlEEEED2Ev(ptr noundef nonnull align 8 dereferenceable(249) %ref.tmp90) #6
  call void @llvm.lifetime.end.p0(i64 24, ptr %ref.tmp92) #6
  call void @llvm.lifetime.end.p0(i64 4, ptr %ref.tmp91) #6
  call void @llvm.lifetime.end.p0(i64 256, ptr %ref.tmp90) #6
  call void @llvm.lifetime.start.p0(i64 256, ptr %ref.tmp104) #6
  call void @llvm.lifetime.start.p0(i64 4, ptr %ref.tmp105) #6
  store i32 2, ptr %ref.tmp105, align 4, !tbaa !64
  call void @llvm.lifetime.start.p0(i64 24, ptr %ref.tmp106) #6
  %76 = load i32, ptr %j, align 4, !tbaa !64
  %77 = load i32, ptr %j, align 4, !tbaa !64
  %78 = load i32, ptr %n, align 4, !tbaa !64
  %add107 = add nsw i32 %77, %78
  invoke void @_ZN2xt5rangeIiiEEDaT_T0_(ptr dead_on_unwind writable sret(%"struct.xt::xrange_adaptor") align 8 %ref.tmp106, i32 noundef %76, i32 noundef %add107)
          to label %invoke.cont109 unwind label %lpad108

invoke.cont109:                                   ; preds = %invoke.cont98
  invoke void @_ZN2xt4viewIRNS_16xarray_containerINS_7uvectorIdSaIdEEELNS_11layout_typeE1ENS_7svectorImLm4ESaImELb1EEENS_22xtensor_expression_tagEEEJiNS_14xrange_adaptorIllNS_12placeholders5xtuphEEEEEEDaOT_DpOT0_(ptr dead_on_unwind writable sret(%"class.xt::xview.62") align 8 %ref.tmp104, ptr noundef nonnull align 8 dereferenceable(240) %eout, ptr noundef nonnull align 4 dereferenceable(4) %ref.tmp105, ptr noundef nonnull align 8 dereferenceable(17) %ref.tmp106)
          to label %invoke.cont110 unwind label %lpad108

invoke.cont110:                                   ; preds = %invoke.cont109
  %c = getelementptr inbounds nuw %"struct.openmc::ContinuousTabular::CTTable", ptr %d, i32 0, i32 4
  %call113 = invoke noundef nonnull align 8 dereferenceable(72) ptr @_ZN2xt17xtensor_containerINS_7uvectorIdSaIdEEELm1ELNS_11layout_typeE1ENS_22xtensor_expression_tagEEaSINS_5xviewIRNS_16xarray_containerIS3_LS4_1ENS_7svectorImLm4ESaImELb1EEES5_EEJiNS_6xrangeIlEEEEEEERS6_RKNS_11xexpressionIT_EE(ptr noundef nonnull align 8 dereferenceable(72) %c, ptr noundef nonnull align 1 dereferenceable(1) %ref.tmp104)
          to label %invoke.cont112 unwind label %lpad111

invoke.cont112:                                   ; preds = %invoke.cont110
  call void @_ZN2xt5xviewIRNS_16xarray_containerINS_7uvectorIdSaIdEEELNS_11layout_typeE1ENS_7svectorImLm4ESaImELb1EEENS_22xtensor_expression_tagEEEJiNS_6xrangeIlEEEED2Ev(ptr noundef nonnull align 8 dereferenceable(249) %ref.tmp104) #6
  call void @llvm.lifetime.end.p0(i64 24, ptr %ref.tmp106) #6
  call void @llvm.lifetime.end.p0(i64 4, ptr %ref.tmp105) #6
  call void @llvm.lifetime.end.p0(i64 256, ptr %ref.tmp104) #6
  %distribution_118 = getelementptr inbounds nuw %"class.openmc::ContinuousTabular", ptr %this1, i32 0, i32 5
  invoke void @_ZNSt6vectorIN6openmc17ContinuousTabular7CTTableESaIS2_EE9push_backEOS2_(ptr noundef nonnull align 8 dereferenceable(24) %distribution_118, ptr noundef nonnull align 8 dereferenceable(224) %d)
          to label %invoke.cont119 unwind label %lpad72

invoke.cont119:                                   ; preds = %invoke.cont112
  call void @_ZN6openmc17ContinuousTabular7CTTableD2Ev(ptr noundef nonnull align 8 dereferenceable(224) %d) #6
  call void @llvm.lifetime.end.p0(i64 224, ptr %d) #6
  call void @llvm.lifetime.end.p0(i64 4, ptr %n) #6
  call void @llvm.lifetime.end.p0(i64 4, ptr %j) #6
  br label %for.inc124

for.inc124:                                       ; preds = %invoke.cont119
  %79 = load i32, ptr %i48, align 4, !tbaa !64
  %inc = add nsw i32 %79, 1
  store i32 %inc, ptr %i48, align 4, !tbaa !64
  br label %for.cond49, !llvm.loop !161

lpad68:                                           ; preds = %if.end
  %80 = landingpad { ptr, i32 }
          cleanup
  %81 = extractvalue { ptr, i32 } %80, 0
  store ptr %81, ptr %exn.slot, align 8
  %82 = extractvalue { ptr, i32 } %80, 1
  store i32 %82, ptr %ehselector.slot, align 4
  br label %ehcleanup121

lpad72:                                           ; preds = %invoke.cont112, %invoke.cont69
  %83 = landingpad { ptr, i32 }
          cleanup
  %84 = extractvalue { ptr, i32 } %83, 0
  store ptr %84, ptr %exn.slot, align 8
  %85 = extractvalue { ptr, i32 } %83, 1
  store i32 %85, ptr %ehselector.slot, align 4
  br label %ehcleanup120

lpad82:                                           ; preds = %invoke.cont83, %invoke.cont73
  %86 = landingpad { ptr, i32 }
          cleanup
  %87 = extractvalue { ptr, i32 } %86, 0
  store ptr %87, ptr %exn.slot, align 8
  %88 = extractvalue { ptr, i32 } %86, 1
  store i32 %88, ptr %ehselector.slot, align 4
  br label %ehcleanup

lpad85:                                           ; preds = %invoke.cont84
  %89 = landingpad { ptr, i32 }
          cleanup
  %90 = extractvalue { ptr, i32 } %89, 0
  store ptr %90, ptr %exn.slot, align 8
  %91 = extractvalue { ptr, i32 } %89, 1
  store i32 %91, ptr %ehselector.slot, align 4
  call void @_ZN2xt5xviewIRNS_16xarray_containerINS_7uvectorIdSaIdEEELNS_11layout_typeE1ENS_7svectorImLm4ESaImELb1EEENS_22xtensor_expression_tagEEEJiNS_6xrangeIlEEEED2Ev(ptr noundef nonnull align 8 dereferenceable(249) %ref.tmp78) #6
  br label %ehcleanup

ehcleanup:                                        ; preds = %lpad85, %lpad82
  call void @llvm.lifetime.end.p0(i64 24, ptr %ref.tmp80) #6
  call void @llvm.lifetime.end.p0(i64 4, ptr %ref.tmp79) #6
  call void @llvm.lifetime.end.p0(i64 256, ptr %ref.tmp78) #6
  br label %ehcleanup120

lpad94:                                           ; preds = %invoke.cont95, %invoke.cont86
  %92 = landingpad { ptr, i32 }
          cleanup
  %93 = extractvalue { ptr, i32 } %92, 0
  store ptr %93, ptr %exn.slot, align 8
  %94 = extractvalue { ptr, i32 } %92, 1
  store i32 %94, ptr %ehselector.slot, align 4
  br label %ehcleanup101

lpad97:                                           ; preds = %invoke.cont96
  %95 = landingpad { ptr, i32 }
          cleanup
  %96 = extractvalue { ptr, i32 } %95, 0
  store ptr %96, ptr %exn.slot, align 8
  %97 = extractvalue { ptr, i32 } %95, 1
  store i32 %97, ptr %ehselector.slot, align 4
  call void @_ZN2xt5xviewIRNS_16xarray_containerINS_7uvectorIdSaIdEEELNS_11layout_typeE1ENS_7svectorImLm4ESaImELb1EEENS_22xtensor_expression_tagEEEJiNS_6xrangeIlEEEED2Ev(ptr noundef nonnull align 8 dereferenceable(249) %ref.tmp90) #6
  br label %ehcleanup101

ehcleanup101:                                     ; preds = %lpad97, %lpad94
  call void @llvm.lifetime.end.p0(i64 24, ptr %ref.tmp92) #6
  call void @llvm.lifetime.end.p0(i64 4, ptr %ref.tmp91) #6
  call void @llvm.lifetime.end.p0(i64 256, ptr %ref.tmp90) #6
  br label %ehcleanup120

lpad108:                                          ; preds = %invoke.cont109, %invoke.cont98
  %98 = landingpad { ptr, i32 }
          cleanup
  %99 = extractvalue { ptr, i32 } %98, 0
  store ptr %99, ptr %exn.slot, align 8
  %100 = extractvalue { ptr, i32 } %98, 1
  store i32 %100, ptr %ehselector.slot, align 4
  br label %ehcleanup115

lpad111:                                          ; preds = %invoke.cont110
  %101 = landingpad { ptr, i32 }
          cleanup
  %102 = extractvalue { ptr, i32 } %101, 0
  store ptr %102, ptr %exn.slot, align 8
  %103 = extractvalue { ptr, i32 } %101, 1
  store i32 %103, ptr %ehselector.slot, align 4
  call void @_ZN2xt5xviewIRNS_16xarray_containerINS_7uvectorIdSaIdEEELNS_11layout_typeE1ENS_7svectorImLm4ESaImELb1EEENS_22xtensor_expression_tagEEEJiNS_6xrangeIlEEEED2Ev(ptr noundef nonnull align 8 dereferenceable(249) %ref.tmp104) #6
  br label %ehcleanup115

ehcleanup115:                                     ; preds = %lpad111, %lpad108
  call void @llvm.lifetime.end.p0(i64 24, ptr %ref.tmp106) #6
  call void @llvm.lifetime.end.p0(i64 4, ptr %ref.tmp105) #6
  call void @llvm.lifetime.end.p0(i64 256, ptr %ref.tmp104) #6
  br label %ehcleanup120

ehcleanup120:                                     ; preds = %ehcleanup115, %ehcleanup101, %ehcleanup, %lpad72
  call void @_ZN6openmc17ContinuousTabular7CTTableD2Ev(ptr noundef nonnull align 8 dereferenceable(224) %d) #6
  br label %ehcleanup121

ehcleanup121:                                     ; preds = %ehcleanup120, %lpad68
  call void @llvm.lifetime.end.p0(i64 224, ptr %d) #6
  br label %ehcleanup122

ehcleanup122:                                     ; preds = %ehcleanup121, %lpad62
  call void @llvm.lifetime.end.p0(i64 4, ptr %n) #6
  call void @llvm.lifetime.end.p0(i64 4, ptr %j) #6
  call void @llvm.lifetime.end.p0(i64 4, ptr %i48) #6
  br label %ehcleanup127

for.end126:                                       ; preds = %for.cond.cleanup52
  call void @_ZN2xt16xarray_containerINS_7uvectorIdSaIdEEELNS_11layout_typeE1ENS_7svectorImLm4ESaImELb1EEENS_22xtensor_expression_tagEED2Ev(ptr noundef nonnull align 8 dereferenceable(240) %eout) #6
  call void @llvm.lifetime.end.p0(i64 240, ptr %eout) #6
  call void @_ZNSt6vectorIiSaIiEED2Ev(ptr noundef nonnull align 8 dereferenceable(24) %n_discrete) #6
  call void @llvm.lifetime.end.p0(i64 24, ptr %n_discrete) #6
  call void @_ZNSt6vectorIiSaIiEED2Ev(ptr noundef nonnull align 8 dereferenceable(24) %interp) #6
  call void @llvm.lifetime.end.p0(i64 24, ptr %interp) #6
  call void @_ZNSt6vectorIiSaIiEED2Ev(ptr noundef nonnull align 8 dereferenceable(24) %offsets) #6
  call void @llvm.lifetime.end.p0(i64 24, ptr %offsets) #6
  call void @llvm.lifetime.end.p0(i64 8, ptr %n_energy) #6
  call void @_ZN2xt20xsharable_expressionINS_5xviewIRNS_16xarray_containerINS_7uvectorIiSaIiEEELNS_11layout_typeE1ENS_7svectorImLm4ESaImELb1EEENS_22xtensor_expression_tagEEEJiEEEED2Ev(ptr noundef nonnull align 8 dereferenceable(65) %temp_i) #6
  call void @llvm.lifetime.end.p0(i64 72, ptr %temp_i) #6
  call void @_ZN2xt20xsharable_expressionINS_5xviewIRNS_16xarray_containerINS_7uvectorIiSaIiEEELNS_11layout_typeE1ENS_7svectorImLm4ESaImELb1EEENS_22xtensor_expression_tagEEEJiEEEED2Ev(ptr noundef nonnull align 8 dereferenceable(65) %temp_b) #6
  call void @llvm.lifetime.end.p0(i64 72, ptr %temp_b) #6
  call void @_ZN2xt16xarray_containerINS_7uvectorIiSaIiEEELNS_11layout_typeE1ENS_7svectorImLm4ESaImELb1EEENS_22xtensor_expression_tagEED2Ev(ptr noundef nonnull align 8 dereferenceable(240) %temp) #6
  call void @llvm.lifetime.end.p0(i64 240, ptr %temp) #6
  call void @llvm.lifetime.end.p0(i64 8, ptr %dset) #6
  ret void

ehcleanup127:                                     ; preds = %ehcleanup122, %lpad45
  call void @_ZN2xt16xarray_containerINS_7uvectorIdSaIdEEELNS_11layout_typeE1ENS_7svectorImLm4ESaImELb1EEENS_22xtensor_expression_tagEED2Ev(ptr noundef nonnull align 8 dereferenceable(240) %eout) #6
  br label %ehcleanup128

ehcleanup128:                                     ; preds = %ehcleanup127, %lpad43
  call void @llvm.lifetime.end.p0(i64 240, ptr %eout) #6
  br label %ehcleanup129

ehcleanup129:                                     ; preds = %ehcleanup128, %lpad39
  call void @_ZNSt6vectorIiSaIiEED2Ev(ptr noundef nonnull align 8 dereferenceable(24) %n_discrete) #6
  call void @llvm.lifetime.end.p0(i64 24, ptr %n_discrete) #6
  call void @_ZNSt6vectorIiSaIiEED2Ev(ptr noundef nonnull align 8 dereferenceable(24) %interp) #6
  call void @llvm.lifetime.end.p0(i64 24, ptr %interp) #6
  call void @_ZNSt6vectorIiSaIiEED2Ev(ptr noundef nonnull align 8 dereferenceable(24) %offsets) #6
  call void @llvm.lifetime.end.p0(i64 24, ptr %offsets) #6
  br label %ehcleanup135

ehcleanup135:                                     ; preds = %ehcleanup129, %lpad35
  call void @llvm.lifetime.end.p0(i64 8, ptr %n_energy) #6
  br label %ehcleanup136

ehcleanup136:                                     ; preds = %ehcleanup135, %lpad25, %lpad14
  call void @_ZN2xt20xsharable_expressionINS_5xviewIRNS_16xarray_containerINS_7uvectorIiSaIiEEELNS_11layout_typeE1ENS_7svectorImLm4ESaImELb1EEENS_22xtensor_expression_tagEEEJiEEEED2Ev(ptr noundef nonnull align 8 dereferenceable(65) %temp_i) #6
  br label %ehcleanup137

ehcleanup137:                                     ; preds = %ehcleanup136, %lpad9
  call void @llvm.lifetime.end.p0(i64 72, ptr %temp_i) #6
  call void @_ZN2xt20xsharable_expressionINS_5xviewIRNS_16xarray_containerINS_7uvectorIiSaIiEEELNS_11layout_typeE1ENS_7svectorImLm4ESaImELb1EEENS_22xtensor_expression_tagEEEJiEEEED2Ev(ptr noundef nonnull align 8 dereferenceable(65) %temp_b) #6
  br label %ehcleanup139

ehcleanup139:                                     ; preds = %ehcleanup137, %lpad6
  call void @llvm.lifetime.end.p0(i64 72, ptr %temp_b) #6
  br label %ehcleanup140

ehcleanup140:                                     ; preds = %ehcleanup139, %lpad4
  call void @_ZN2xt16xarray_containerINS_7uvectorIiSaIiEEELNS_11layout_typeE1ENS_7svectorImLm4ESaImELb1EEENS_22xtensor_expression_tagEED2Ev(ptr noundef nonnull align 8 dereferenceable(240) %temp) #6
  br label %ehcleanup141

ehcleanup141:                                     ; preds = %ehcleanup140, %lpad2
  call void @llvm.lifetime.end.p0(i64 240, ptr %temp) #6
  br label %ehcleanup142

ehcleanup142:                                     ; preds = %ehcleanup141, %lpad
  call void @llvm.lifetime.end.p0(i64 8, ptr %dset) #6
  call void @_ZNSt6vectorIN6openmc17ContinuousTabular7CTTableESaIS2_EED2Ev(ptr noundef nonnull align 8 dereferenceable(24) %distribution_) #6
  call void @_ZNSt6vectorIdSaIdEED2Ev(ptr noundef nonnull align 8 dereferenceable(24) %energy_) #6
  call void @_ZNSt6vectorIN6openmc13InterpolationESaIS1_EED2Ev(ptr noundef nonnull align 8 dereferenceable(24) %interpolation_) #6
  call void @_ZNSt6vectorIiSaIiEED2Ev(ptr noundef nonnull align 8 dereferenceable(24) %breakpoints_) #6
  call void @_ZN6openmc18EnergyDistributionD2Ev(ptr noundef nonnull align 8 dereferenceable(8) %this1) #6
  br label %eh.resume

eh.resume:                                        ; preds = %ehcleanup142
  %exn = load ptr, ptr %exn.slot, align 8
  %sel = load i32, ptr %ehselector.slot, align 4
  %lpad.val = insertvalue { ptr, i32 } poison, ptr %exn, 0
  %lpad.val148 = insertvalue { ptr, i32 } %lpad.val, i32 %sel, 1
  resume { ptr, i32 } %lpad.val148
}

; Function Attrs: mustprogress nounwind uwtable
define linkonce_odr void @_ZNSt6vectorIiSaIiEEC2Ev(ptr noundef nonnull align 8 dereferenceable(24) %this) unnamed_addr #0 comdat align 2 {
entry:
  %this.addr = alloca ptr, align 8
  store ptr %this, ptr %this.addr, align 8, !tbaa !162
  %this1 = load ptr, ptr %this.addr, align 8
  call void @_ZNSt12_Vector_baseIiSaIiEEC2Ev(ptr noundef nonnull align 8 dereferenceable(24) %this1) #6
  ret void
}

; Function Attrs: mustprogress nounwind uwtable
define linkonce_odr void @_ZNSt6vectorIN6openmc13InterpolationESaIS1_EEC2Ev(ptr noundef nonnull align 8 dereferenceable(24) %this) unnamed_addr #0 comdat align 2 {
entry:
  %this.addr = alloca ptr, align 8
  store ptr %this, ptr %this.addr, align 8, !tbaa !88
  %this1 = load ptr, ptr %this.addr, align 8
  call void @_ZNSt12_Vector_baseIN6openmc13InterpolationESaIS1_EEC2Ev(ptr noundef nonnull align 8 dereferenceable(24) %this1) #6
  ret void
}

; Function Attrs: mustprogress nounwind uwtable
define linkonce_odr void @_ZNSt6vectorIdSaIdEEC2Ev(ptr noundef nonnull align 8 dereferenceable(24) %this) unnamed_addr #0 comdat align 2 {
entry:
  %this.addr = alloca ptr, align 8
  store ptr %this, ptr %this.addr, align 8, !tbaa !164
  %this1 = load ptr, ptr %this.addr, align 8
  call void @_ZNSt12_Vector_baseIdSaIdEEC2Ev(ptr noundef nonnull align 8 dereferenceable(24) %this1) #6
  ret void
}

; Function Attrs: mustprogress nounwind uwtable
define linkonce_odr void @_ZNSt6vectorIN6openmc17ContinuousTabular7CTTableESaIS2_EEC2Ev(ptr noundef nonnull align 8 dereferenceable(24) %this) unnamed_addr #0 comdat align 2 {
entry:
  %this.addr = alloca ptr, align 8
  store ptr %this, ptr %this.addr, align 8, !tbaa !91
  %this1 = load ptr, ptr %this.addr, align 8
  call void @_ZNSt12_Vector_baseIN6openmc17ContinuousTabular7CTTableESaIS2_EEC2Ev(ptr noundef nonnull align 8 dereferenceable(24) %this1) #6
  ret void
}

declare i64 @open_dataset(i64 noundef, ptr noundef) #4

; Function Attrs: inlinehint mustprogress uwtable
define linkonce_odr void @_ZN2xt16xarray_containerINS_7uvectorIiSaIiEEELNS_11layout_typeE1ENS_7svectorImLm4ESaImELb1EEENS_22xtensor_expression_tagEEC2Ev(ptr noundef nonnull align 8 dereferenceable(240) %this) unnamed_addr #10 comdat align 2 personality ptr @__gxx_personality_v0 {
entry:
  %this.addr = alloca ptr, align 8
  %exn.slot = alloca ptr, align 8
  %ehselector.slot = alloca i32, align 4
  %ref.tmp = alloca i32, align 4
  %ref.tmp2 = alloca %"class.std::allocator", align 1
  store ptr %this, ptr %this.addr, align 8, !tbaa !166
  %this1 = load ptr, ptr %this.addr, align 8
  call void @_ZN2xt18xstrided_containerINS_16xarray_containerINS_7uvectorIiSaIiEEELNS_11layout_typeE1ENS_7svectorImLm4ESaImELb1EEENS_22xtensor_expression_tagEEEEC2Ev(ptr noundef nonnull align 8 dereferenceable(196) %this1) #6
  %0 = getelementptr inbounds i8, ptr %this1, i64 200
  invoke void @_ZN2xt19xcontainer_semanticINS_16xarray_containerINS_7uvectorIiSaIiEEELNS_11layout_typeE1ENS_7svectorImLm4ESaImELb1EEENS_22xtensor_expression_tagEEEEC2Ev(ptr noundef nonnull align 8 dereferenceable(16) %0)
          to label %invoke.cont unwind label %lpad

invoke.cont:                                      ; preds = %entry
  %m_storage = getelementptr inbounds nuw %"class.xt::xarray_container", ptr %this1, i32 0, i32 2
  call void @llvm.lifetime.start.p0(i64 4, ptr %ref.tmp) #6
  store i32 0, ptr %ref.tmp, align 4, !tbaa !64
  call void @llvm.lifetime.start.p0(i64 1, ptr %ref.tmp2) #6
  call void @_ZNSaIiEC2Ev(ptr noundef nonnull align 1 dereferenceable(1) %ref.tmp2) #6
  invoke void @_ZN2xt7uvectorIiSaIiEEC2EmRKiRKS1_(ptr noundef nonnull align 8 dereferenceable(24) %m_storage, i64 noundef 1, ptr noundef nonnull align 4 dereferenceable(4) %ref.tmp, ptr noundef nonnull align 1 dereferenceable(1) %ref.tmp2)
          to label %invoke.cont4 unwind label %lpad3

invoke.cont4:                                     ; preds = %invoke.cont
  call void @_ZNSt15__new_allocatorIiED2Ev(ptr noundef nonnull align 1 dereferenceable(1) %ref.tmp2) #6
  call void @llvm.lifetime.end.p0(i64 1, ptr %ref.tmp2) #6
  call void @llvm.lifetime.end.p0(i64 4, ptr %ref.tmp) #6
  ret void

lpad:                                             ; preds = %entry
  %1 = landingpad { ptr, i32 }
          cleanup
  %2 = extractvalue { ptr, i32 } %1, 0
  store ptr %2, ptr %exn.slot, align 8
  %3 = extractvalue { ptr, i32 } %1, 1
  store i32 %3, ptr %ehselector.slot, align 4
  br label %ehcleanup

lpad3:                                            ; preds = %invoke.cont
  %4 = landingpad { ptr, i32 }
          cleanup
  %5 = extractvalue { ptr, i32 } %4, 0
  store ptr %5, ptr %exn.slot, align 8
  %6 = extractvalue { ptr, i32 } %4, 1
  store i32 %6, ptr %ehselector.slot, align 4
  call void @_ZNSt15__new_allocatorIiED2Ev(ptr noundef nonnull align 1 dereferenceable(1) %ref.tmp2) #6
  call void @llvm.lifetime.end.p0(i64 1, ptr %ref.tmp2) #6
  call void @llvm.lifetime.end.p0(i64 4, ptr %ref.tmp) #6
  %7 = getelementptr inbounds i8, ptr %this1, i64 200
  call void @_ZN2xt20xsharable_expressionINS_16xarray_containerINS_7uvectorIiSaIiEEELNS_11layout_typeE1ENS_7svectorImLm4ESaImELb1EEENS_22xtensor_expression_tagEEEED2Ev(ptr noundef nonnull align 8 dereferenceable(16) %7) #6
  br label %ehcleanup

ehcleanup:                                        ; preds = %lpad3, %lpad
  call void @_ZN2xt18xstrided_containerINS_16xarray_containerINS_7uvectorIiSaIiEEELNS_11layout_typeE1ENS_7svectorImLm4ESaImELb1EEENS_22xtensor_expression_tagEEEED2Ev(ptr noundef nonnull align 8 dereferenceable(196) %this1) #6
  br label %eh.resume

eh.resume:                                        ; preds = %ehcleanup
  %exn = load ptr, ptr %exn.slot, align 8
  %sel = load i32, ptr %ehselector.slot, align 4
  %lpad.val = insertvalue { ptr, i32 } poison, ptr %exn, 0
  %lpad.val5 = insertvalue { ptr, i32 } %lpad.val, i32 %sel, 1
  resume { ptr, i32 } %lpad.val5
}

; Function Attrs: mustprogress uwtable
define linkonce_odr void @_ZN6openmc14read_attributeIiEEvlPKcRN2xt16xarray_containerINS3_7uvectorIT_SaIS6_EEELNS3_11layout_typeE1ENS3_7svectorINS8_9size_typeELm4ESaINSt6vectorIS6_S7_E9size_typeEELb1EEENS3_22xtensor_expression_tagEEE(i64 noundef %obj_id, ptr noundef %name, ptr noundef nonnull align 8 dereferenceable(240) %arr) #1 comdat personality ptr @__gxx_personality_v0 {
entry:
  %obj_id.addr = alloca i64, align 8
  %name.addr = alloca ptr, align 8
  %arr.addr = alloca ptr, align 8
  %shape = alloca %"class.std::vector.86", align 8
  %size = alloca i64, align 8
  %__range2 = alloca ptr, align 8
  %__begin2 = alloca %"class.__gnu_cxx::__normal_iterator", align 8
  %__end2 = alloca %"class.__gnu_cxx::__normal_iterator", align 8
  %x = alloca i64, align 8
  %buffer = alloca %"class.std::vector", align 8
  %ref.tmp = alloca %"class.std::allocator", align 1
  %exn.slot = alloca ptr, align 8
  %ehselector.slot = alloca i32, align 4
  %ref.tmp9 = alloca %"class.xt::xarray_adaptor", align 8
  store i64 %obj_id, ptr %obj_id.addr, align 8, !tbaa !62
  store ptr %name, ptr %name.addr, align 8, !tbaa !115
  store ptr %arr, ptr %arr.addr, align 8, !tbaa !166
  call void @llvm.lifetime.start.p0(i64 24, ptr %shape) #6
  %0 = load i64, ptr %obj_id.addr, align 8, !tbaa !62
  %1 = load ptr, ptr %name.addr, align 8, !tbaa !115
  call void @_ZN6openmc15attribute_shapeElPKc(ptr dead_on_unwind writable sret(%"class.std::vector.86") align 8 %shape, i64 noundef %0, ptr noundef %1)
  call void @llvm.lifetime.start.p0(i64 8, ptr %size) #6
  store i64 1, ptr %size, align 8, !tbaa !62
  call void @llvm.lifetime.start.p0(i64 8, ptr %__range2) #6
  store ptr %shape, ptr %__range2, align 8, !tbaa !168
  call void @llvm.lifetime.start.p0(i64 8, ptr %__begin2) #6
  %2 = load ptr, ptr %__range2, align 8, !tbaa !168
  %call = call ptr @_ZNSt6vectorImSaImEE5beginEv(ptr noundef nonnull align 8 dereferenceable(24) %2) #6
  %coerce.dive = getelementptr inbounds nuw %"class.__gnu_cxx::__normal_iterator", ptr %__begin2, i32 0, i32 0
  store ptr %call, ptr %coerce.dive, align 8
  call void @llvm.lifetime.start.p0(i64 8, ptr %__end2) #6
  %3 = load ptr, ptr %__range2, align 8, !tbaa !168
  %call1 = call ptr @_ZNSt6vectorImSaImEE3endEv(ptr noundef nonnull align 8 dereferenceable(24) %3) #6
  %coerce.dive2 = getelementptr inbounds nuw %"class.__gnu_cxx::__normal_iterator", ptr %__end2, i32 0, i32 0
  store ptr %call1, ptr %coerce.dive2, align 8
  br label %for.cond

for.cond:                                         ; preds = %for.inc, %entry
  %call3 = call noundef zeroext i1 @_ZN9__gnu_cxxneIPmSt6vectorImSaImEEEEbRKNS_17__normal_iteratorIT_T0_EESA_(ptr noundef nonnull align 8 dereferenceable(8) %__begin2, ptr noundef nonnull align 8 dereferenceable(8) %__end2) #6
  br i1 %call3, label %for.body, label %for.cond.cleanup

for.cond.cleanup:                                 ; preds = %for.cond
  call void @llvm.lifetime.end.p0(i64 8, ptr %__end2) #6
  call void @llvm.lifetime.end.p0(i64 8, ptr %__begin2) #6
  call void @llvm.lifetime.end.p0(i64 8, ptr %__range2) #6
  br label %for.end

for.body:                                         ; preds = %for.cond
  call void @llvm.lifetime.start.p0(i64 8, ptr %x) #6
  %call4 = call noundef nonnull align 8 dereferenceable(8) ptr @_ZNK9__gnu_cxx17__normal_iteratorIPmSt6vectorImSaImEEEdeEv(ptr noundef nonnull align 8 dereferenceable(8) %__begin2) #6
  %4 = load i64, ptr %call4, align 8, !tbaa !62
  store i64 %4, ptr %x, align 8, !tbaa !62
  %5 = load i64, ptr %x, align 8, !tbaa !62
  %6 = load i64, ptr %size, align 8, !tbaa !62
  %mul = mul i64 %6, %5
  store i64 %mul, ptr %size, align 8, !tbaa !62
  call void @llvm.lifetime.end.p0(i64 8, ptr %x) #6
  br label %for.inc

for.inc:                                          ; preds = %for.body
  %call5 = call noundef nonnull align 8 dereferenceable(8) ptr @_ZN9__gnu_cxx17__normal_iteratorIPmSt6vectorImSaImEEEppEv(ptr noundef nonnull align 8 dereferenceable(8) %__begin2) #6
  br label %for.cond

for.end:                                          ; preds = %for.cond.cleanup
  call void @llvm.lifetime.start.p0(i64 24, ptr %buffer) #6
  %7 = load i64, ptr %size, align 8, !tbaa !62
  call void @llvm.lifetime.start.p0(i64 1, ptr %ref.tmp) #6
  call void @_ZNSaIiEC2Ev(ptr noundef nonnull align 1 dereferenceable(1) %ref.tmp) #6
  invoke void @_ZNSt6vectorIiSaIiEEC2EmRKS0_(ptr noundef nonnull align 8 dereferenceable(24) %buffer, i64 noundef %7, ptr noundef nonnull align 1 dereferenceable(1) %ref.tmp)
          to label %invoke.cont unwind label %lpad

invoke.cont:                                      ; preds = %for.end
  call void @_ZNSt15__new_allocatorIiED2Ev(ptr noundef nonnull align 1 dereferenceable(1) %ref.tmp) #6
  call void @llvm.lifetime.end.p0(i64 1, ptr %ref.tmp) #6
  %8 = load i64, ptr %obj_id.addr, align 8, !tbaa !62
  %9 = load ptr, ptr %name.addr, align 8, !tbaa !115
  %10 = load i64, ptr @_ZN6openmc9H5TypeMapIiE7type_idE, align 8, !tbaa !62
  %call6 = call noundef ptr @_ZNSt6vectorIiSaIiEE4dataEv(ptr noundef nonnull align 8 dereferenceable(24) %buffer) #6
  invoke void @_ZN6openmc9read_attrElPKclPv(i64 noundef %8, ptr noundef %9, i64 noundef %10, ptr noundef %call6)
          to label %invoke.cont8 unwind label %lpad7

invoke.cont8:                                     ; preds = %invoke.cont
  call void @llvm.lifetime.start.p0(i64 104, ptr %ref.tmp9) #6
  invoke void @_ZN2xt5adaptILNS_11layout_typeE1ERSt6vectorIiSaIiEES2_ImSaImEETnNSt9enable_ifIXsr11conjunctionIN3xtl8negationINS_6detail8is_arrayINSt5decayIT1_E4typeEEEEENSA_ISt10is_pointerIT0_EEEEE5valueEiE4typeELi0EEENS_14xarray_adaptorINS9_12closure_typeISK_E4typeEXT_ESG_NS_22xtensor_expression_tagEEEOSK_RKSE_S1_(ptr dead_on_unwind writable sret(%"class.xt::xarray_adaptor") align 8 %ref.tmp9, ptr noundef nonnull align 8 dereferenceable(24) %buffer, ptr noundef nonnull align 8 dereferenceable(24) %shape, i32 noundef 1)
          to label %invoke.cont11 unwind label %lpad10

invoke.cont11:                                    ; preds = %invoke.cont8
  %add.ptr = getelementptr inbounds i8, ptr %ref.tmp9, i64 80
  %11 = load ptr, ptr %arr.addr, align 8, !tbaa !166
  %call14 = invoke noundef nonnull align 8 dereferenceable(240) ptr @_ZN2xt16xarray_containerINS_7uvectorIiSaIiEEELNS_11layout_typeE1ENS_7svectorImLm4ESaImELb1EEENS_22xtensor_expression_tagEEaSINS_14xarray_adaptorIRSt6vectorIiS2_ELS4_1ESC_ImS6_ES8_EEEERS9_RKNS_11xexpressionIT_EE(ptr noundef nonnull align 8 dereferenceable(240) %11, ptr noundef nonnull align 1 dereferenceable(1) %add.ptr)
          to label %invoke.cont13 unwind label %lpad12

invoke.cont13:                                    ; preds = %invoke.cont11
  call void @_ZN2xt14xarray_adaptorIRSt6vectorIiSaIiEELNS_11layout_typeE1ES1_ImSaImEENS_22xtensor_expression_tagEED2Ev(ptr noundef nonnull align 8 dereferenceable(104) %ref.tmp9) #6
  call void @llvm.lifetime.end.p0(i64 104, ptr %ref.tmp9) #6
  call void @_ZNSt6vectorIiSaIiEED2Ev(ptr noundef nonnull align 8 dereferenceable(24) %buffer) #6
  call void @llvm.lifetime.end.p0(i64 24, ptr %buffer) #6
  call void @llvm.lifetime.end.p0(i64 8, ptr %size) #6
  call void @_ZNSt6vectorImSaImEED2Ev(ptr noundef nonnull align 8 dereferenceable(24) %shape) #6
  call void @llvm.lifetime.end.p0(i64 24, ptr %shape) #6
  ret void

lpad:                                             ; preds = %for.end
  %12 = landingpad { ptr, i32 }
          cleanup
  %13 = extractvalue { ptr, i32 } %12, 0
  store ptr %13, ptr %exn.slot, align 8
  %14 = extractvalue { ptr, i32 } %12, 1
  store i32 %14, ptr %ehselector.slot, align 4
  call void @_ZNSt15__new_allocatorIiED2Ev(ptr noundef nonnull align 1 dereferenceable(1) %ref.tmp) #6
  call void @llvm.lifetime.end.p0(i64 1, ptr %ref.tmp) #6
  br label %ehcleanup16

lpad7:                                            ; preds = %invoke.cont
  %15 = landingpad { ptr, i32 }
          cleanup
  %16 = extractvalue { ptr, i32 } %15, 0
  store ptr %16, ptr %exn.slot, align 8
  %17 = extractvalue { ptr, i32 } %15, 1
  store i32 %17, ptr %ehselector.slot, align 4
  br label %ehcleanup15

lpad10:                                           ; preds = %invoke.cont8
  %18 = landingpad { ptr, i32 }
          cleanup
  %19 = extractvalue { ptr, i32 } %18, 0
  store ptr %19, ptr %exn.slot, align 8
  %20 = extractvalue { ptr, i32 } %18, 1
  store i32 %20, ptr %ehselector.slot, align 4
  br label %ehcleanup

lpad12:                                           ; preds = %invoke.cont11
  %21 = landingpad { ptr, i32 }
          cleanup
  %22 = extractvalue { ptr, i32 } %21, 0
  store ptr %22, ptr %exn.slot, align 8
  %23 = extractvalue { ptr, i32 } %21, 1
  store i32 %23, ptr %ehselector.slot, align 4
  call void @_ZN2xt14xarray_adaptorIRSt6vectorIiSaIiEELNS_11layout_typeE1ES1_ImSaImEENS_22xtensor_expression_tagEED2Ev(ptr noundef nonnull align 8 dereferenceable(104) %ref.tmp9) #6
  br label %ehcleanup

ehcleanup:                                        ; preds = %lpad12, %lpad10
  call void @llvm.lifetime.end.p0(i64 104, ptr %ref.tmp9) #6
  br label %ehcleanup15

ehcleanup15:                                      ; preds = %ehcleanup, %lpad7
  call void @_ZNSt6vectorIiSaIiEED2Ev(ptr noundef nonnull align 8 dereferenceable(24) %buffer) #6
  br label %ehcleanup16

ehcleanup16:                                      ; preds = %ehcleanup15, %lpad
  call void @llvm.lifetime.end.p0(i64 24, ptr %buffer) #6
  call void @llvm.lifetime.end.p0(i64 8, ptr %size) #6
  call void @_ZNSt6vectorImSaImEED2Ev(ptr noundef nonnull align 8 dereferenceable(24) %shape) #6
  call void @llvm.lifetime.end.p0(i64 24, ptr %shape) #6
  br label %eh.resume

eh.resume:                                        ; preds = %ehcleanup16
  %exn = load ptr, ptr %exn.slot, align 8
  %sel = load i32, ptr %ehselector.slot, align 4
  %lpad.val = insertvalue { ptr, i32 } poison, ptr %exn, 0
  %lpad.val20 = insertvalue { ptr, i32 } %lpad.val, i32 %sel, 1
  resume { ptr, i32 } %lpad.val20
}

; Function Attrs: inlinehint mustprogress uwtable
define linkonce_odr void @_ZN2xt4viewIRNS_16xarray_containerINS_7uvectorIiSaIiEEELNS_11layout_typeE1ENS_7svectorImLm4ESaImELb1EEENS_22xtensor_expression_tagEEEJiEEEDaOT_DpOT0_(ptr dead_on_unwind noalias writable sret(%"class.xt::xview") align 8 %agg.result, ptr noundef nonnull align 8 dereferenceable(240) %e, ptr noundef nonnull align 4 dereferenceable(4) %slices) #10 comdat {
entry:
  %result.ptr = alloca ptr, align 8
  %e.addr = alloca ptr, align 8
  %slices.addr = alloca ptr, align 8
  %agg.tmp = alloca %"struct.std::integer_sequence", align 1
  store ptr %agg.result, ptr %result.ptr, align 8
  store ptr %e, ptr %e.addr, align 8, !tbaa !166
  store ptr %slices, ptr %slices.addr, align 8, !tbaa !152
  %0 = load ptr, ptr %e.addr, align 8, !tbaa !166
  %1 = load ptr, ptr %slices.addr, align 8, !tbaa !152
  call void @_ZN2xt6detail14make_view_implIRNS_16xarray_containerINS_7uvectorIiSaIiEEELNS_11layout_typeE1ENS_7svectorImLm4ESaImELb1EEENS_22xtensor_expression_tagEEEJLm0EEJiEEEDaOT_St16integer_sequenceImJXspT0_EEEDpOT1_(ptr dead_on_unwind writable sret(%"class.xt::xview") align 8 %agg.result, ptr noundef nonnull align 8 dereferenceable(240) %0, ptr noundef nonnull align 4 dereferenceable(4) %1)
  ret void
}

; Function Attrs: inlinehint mustprogress uwtable
define linkonce_odr ptr @_ZSt4copyIPiSt20back_insert_iteratorISt6vectorIiSaIiEEEET0_T_S7_S6_(ptr noundef %__first, ptr noundef %__last, ptr %__result.coerce) #10 comdat {
entry:
  %retval = alloca %"class.std::back_insert_iterator", align 8
  %__result = alloca %"class.std::back_insert_iterator", align 8
  %__first.addr = alloca ptr, align 8
  %__last.addr = alloca ptr, align 8
  %agg.tmp = alloca %"class.std::back_insert_iterator", align 8
  %coerce.dive = getelementptr inbounds nuw %"class.std::back_insert_iterator", ptr %__result, i32 0, i32 0
  store ptr %__result.coerce, ptr %coerce.dive, align 8
  store ptr %__first, ptr %__first.addr, align 8, !tbaa !152
  store ptr %__last, ptr %__last.addr, align 8, !tbaa !152
  %0 = load ptr, ptr %__first.addr, align 8, !tbaa !152
  %call = call noundef ptr @_ZSt12__miter_baseIPiET_S1_(ptr noundef %0)
  %1 = load ptr, ptr %__last.addr, align 8, !tbaa !152
  %call1 = call noundef ptr @_ZSt12__miter_baseIPiET_S1_(ptr noundef %1)
  call void @llvm.memcpy.p0.p0.i64(ptr align 8 %agg.tmp, ptr align 8 %__result, i64 8, i1 false)
  %coerce.dive2 = getelementptr inbounds nuw %"class.std::back_insert_iterator", ptr %agg.tmp, i32 0, i32 0
  %2 = load ptr, ptr %coerce.dive2, align 8
  %call3 = call ptr @_ZSt13__copy_move_aILb0EPiSt20back_insert_iteratorISt6vectorIiSaIiEEEET1_T0_S7_S6_(ptr noundef %call, ptr noundef %call1, ptr %2)
  %coerce.dive4 = getelementptr inbounds nuw %"class.std::back_insert_iterator", ptr %retval, i32 0, i32 0
  store ptr %call3, ptr %coerce.dive4, align 8
  %coerce.dive5 = getelementptr inbounds nuw %"class.std::back_insert_iterator", ptr %retval, i32 0, i32 0
  %3 = load ptr, ptr %coerce.dive5, align 8
  ret ptr %3
}

; Function Attrs: inlinehint mustprogress nounwind uwtable
define linkonce_odr noundef ptr @_ZN2xt20xcontiguous_iterableINS_5xviewIRNS_16xarray_containerINS_7uvectorIiSaIiEEELNS_11layout_typeE1ENS_7svectorImLm4ESaImELb1EEENS_22xtensor_expression_tagEEEJiEEEE5beginILS6_1EEENSt11conditionalIXeqT_L_ZNSE_13static_layoutEEEPiNS_9xiteratorINS_8xstepperISD_EEPNS_13sequence_viewIS9_Ll1ELln1EEEXT_EEEE4typeEv(ptr noundef nonnull align 1 dereferenceable(1) %this) #2 comdat align 2 personality ptr @__gxx_personality_v0 {
entry:
  %this.addr = alloca ptr, align 8
  %ref.tmp = alloca %class.anon.116, align 8
  %ref.tmp2 = alloca %class.anon.117, align 8
  store ptr %this, ptr %this.addr, align 8, !tbaa !170
  %this1 = load ptr, ptr %this.addr, align 8
  call void @llvm.lifetime.start.p0(i64 8, ptr %ref.tmp) #6
  %0 = getelementptr inbounds nuw %class.anon.116, ptr %ref.tmp, i32 0, i32 0
  store ptr %this1, ptr %0, align 8, !tbaa !172
  call void @llvm.lifetime.start.p0(i64 8, ptr %ref.tmp2) #6
  %1 = getelementptr inbounds nuw %class.anon.117, ptr %ref.tmp2, i32 0, i32 0
  store ptr %this1, ptr %1, align 8, !tbaa !174
  %call = invoke noundef ptr @_ZN3xtl3mpl9static_ifILb1EZN2xt20xcontiguous_iterableINS2_5xviewIRNS2_16xarray_containerINS2_7uvectorIiSaIiEEELNS2_11layout_typeE1ENS2_7svectorImLm4ESaImELb1EEENS2_22xtensor_expression_tagEEEJiEEEE5beginILS9_1EEENSt11conditionalIXeqT_L_ZNSH_13static_layoutEEEPiNS2_9xiteratorINS2_8xstepperISG_EEPNS2_13sequence_viewISC_Ll1ELln1EEEXT_EEEE4typeEvEUlT_E_ZNSI_ILS9_1EEEST_vEUlSU_E0_EEDcRKT0_RKT1_(ptr noundef nonnull align 8 dereferenceable(8) %ref.tmp, ptr noundef nonnull align 8 dereferenceable(8) %ref.tmp2)
          to label %invoke.cont unwind label %terminate.lpad

invoke.cont:                                      ; preds = %entry
  call void @llvm.lifetime.end.p0(i64 8, ptr %ref.tmp2) #6
  call void @llvm.lifetime.end.p0(i64 8, ptr %ref.tmp) #6
  ret ptr %call

terminate.lpad:                                   ; preds = %entry
  %2 = landingpad { ptr, i32 }
          catch ptr null
  %3 = extractvalue { ptr, i32 } %2, 0
  call void @__clang_call_terminate(ptr %3) #24
  unreachable
}

; Function Attrs: inlinehint mustprogress nounwind uwtable
define linkonce_odr noundef ptr @_ZN2xt20xcontiguous_iterableINS_5xviewIRNS_16xarray_containerINS_7uvectorIiSaIiEEELNS_11layout_typeE1ENS_7svectorImLm4ESaImELb1EEENS_22xtensor_expression_tagEEEJiEEEE3endILS6_1EEENSt11conditionalIXeqT_L_ZNSE_13static_layoutEEEPiNS_9xiteratorINS_8xstepperISD_EEPNS_13sequence_viewIS9_Ll1ELln1EEEXT_EEEE4typeEv(ptr noundef nonnull align 1 dereferenceable(1) %this) #2 comdat align 2 personality ptr @__gxx_personality_v0 {
entry:
  %this.addr = alloca ptr, align 8
  %ref.tmp = alloca %class.anon.118, align 8
  %ref.tmp2 = alloca %class.anon.119, align 8
  store ptr %this, ptr %this.addr, align 8, !tbaa !170
  %this1 = load ptr, ptr %this.addr, align 8
  call void @llvm.lifetime.start.p0(i64 8, ptr %ref.tmp) #6
  %0 = getelementptr inbounds nuw %class.anon.118, ptr %ref.tmp, i32 0, i32 0
  store ptr %this1, ptr %0, align 8, !tbaa !176
  call void @llvm.lifetime.start.p0(i64 8, ptr %ref.tmp2) #6
  %1 = getelementptr inbounds nuw %class.anon.119, ptr %ref.tmp2, i32 0, i32 0
  store ptr %this1, ptr %1, align 8, !tbaa !178
  %call = invoke noundef ptr @_ZN3xtl3mpl9static_ifILb1EZN2xt20xcontiguous_iterableINS2_5xviewIRNS2_16xarray_containerINS2_7uvectorIiSaIiEEELNS2_11layout_typeE1ENS2_7svectorImLm4ESaImELb1EEENS2_22xtensor_expression_tagEEEJiEEEE3endILS9_1EEENSt11conditionalIXeqT_L_ZNSH_13static_layoutEEEPiNS2_9xiteratorINS2_8xstepperISG_EEPNS2_13sequence_viewISC_Ll1ELln1EEEXT_EEEE4typeEvEUlT_E_ZNSI_ILS9_1EEEST_vEUlSU_E0_EEDcRKT0_RKT1_(ptr noundef nonnull align 8 dereferenceable(8) %ref.tmp, ptr noundef nonnull align 8 dereferenceable(8) %ref.tmp2)
          to label %invoke.cont unwind label %terminate.lpad

invoke.cont:                                      ; preds = %entry
  call void @llvm.lifetime.end.p0(i64 8, ptr %ref.tmp2) #6
  call void @llvm.lifetime.end.p0(i64 8, ptr %ref.tmp) #6
  ret ptr %call

terminate.lpad:                                   ; preds = %entry
  %2 = landingpad { ptr, i32 }
          catch ptr null
  %3 = extractvalue { ptr, i32 } %2, 0
  call void @__clang_call_terminate(ptr %3) #24
  unreachable
}

; Function Attrs: inlinehint mustprogress uwtable
define linkonce_odr ptr @_ZSt13back_inserterISt6vectorIiSaIiEEESt20back_insert_iteratorIT_ERS4_(ptr noundef nonnull align 8 dereferenceable(24) %__x) #10 comdat {
entry:
  %retval = alloca %"class.std::back_insert_iterator", align 8
  %__x.addr = alloca ptr, align 8
  store ptr %__x, ptr %__x.addr, align 8, !tbaa !162
  %0 = load ptr, ptr %__x.addr, align 8, !tbaa !162
  call void @_ZNSt20back_insert_iteratorISt6vectorIiSaIiEEEC2ERS2_(ptr noundef nonnull align 8 dereferenceable(8) %retval, ptr noundef nonnull align 8 dereferenceable(24) %0)
  %coerce.dive = getelementptr inbounds nuw %"class.std::back_insert_iterator", ptr %retval, i32 0, i32 0
  %1 = load ptr, ptr %coerce.dive, align 8
  ret ptr %1
}

; Function Attrs: mustprogress uwtable
define linkonce_odr void @_ZNSt6vectorIN6openmc13InterpolationESaIS1_EE9push_backEOS1_(ptr noundef nonnull align 8 dereferenceable(24) %this, ptr noundef nonnull align 4 dereferenceable(4) %__x) #1 comdat align 2 {
entry:
  %this.addr = alloca ptr, align 8
  %__x.addr = alloca ptr, align 8
  store ptr %this, ptr %this.addr, align 8, !tbaa !88
  store ptr %__x, ptr %__x.addr, align 8, !tbaa !90
  %this1 = load ptr, ptr %this.addr, align 8
  %0 = load ptr, ptr %__x.addr, align 8, !tbaa !90
  %call = call noundef nonnull align 4 dereferenceable(4) ptr @_ZNSt6vectorIN6openmc13InterpolationESaIS1_EE12emplace_backIJS1_EEERS1_DpOT_(ptr noundef nonnull align 8 dereferenceable(24) %this1, ptr noundef nonnull align 4 dereferenceable(4) %0)
  ret void
}

declare noundef i32 @_ZN6openmc10int2interpEi(i32 noundef) #4

; Function Attrs: mustprogress nounwind uwtable
define linkonce_odr noundef i64 @_ZNKSt6vectorIiSaIiEE4sizeEv(ptr noundef nonnull align 8 dereferenceable(24) %this) #0 comdat align 2 {
entry:
  %this.addr = alloca ptr, align 8
  store ptr %this, ptr %this.addr, align 8, !tbaa !162
  %this1 = load ptr, ptr %this.addr, align 8
  %_M_impl = getelementptr inbounds nuw %"struct.std::_Vector_base", ptr %this1, i32 0, i32 0
  %_M_finish = getelementptr inbounds nuw %"struct.std::_Vector_base<int, std::allocator<int>>::_Vector_impl_data", ptr %_M_impl, i32 0, i32 1
  %0 = load ptr, ptr %_M_finish, align 8, !tbaa !180
  %_M_impl2 = getelementptr inbounds nuw %"struct.std::_Vector_base", ptr %this1, i32 0, i32 0
  %_M_start = getelementptr inbounds nuw %"struct.std::_Vector_base<int, std::allocator<int>>::_Vector_impl_data", ptr %_M_impl2, i32 0, i32 0
  %1 = load ptr, ptr %_M_start, align 8, !tbaa !181
  %sub.ptr.lhs.cast = ptrtoint ptr %0 to i64
  %sub.ptr.rhs.cast = ptrtoint ptr %1 to i64
  %sub.ptr.sub = sub i64 %sub.ptr.lhs.cast, %sub.ptr.rhs.cast
  %sub.ptr.div = sdiv exact i64 %sub.ptr.sub, 4
  ret i64 %sub.ptr.div
}

; Function Attrs: mustprogress uwtable
define linkonce_odr void @_ZN6openmc12read_datasetIdEEvlRSt6vectorIT_SaIS2_EEb(i64 noundef %dset, ptr noundef nonnull align 8 dereferenceable(24) %vec, i1 noundef zeroext %indep) #1 comdat personality ptr @__gxx_personality_v0 {
entry:
  %dset.addr = alloca i64, align 8
  %vec.addr = alloca ptr, align 8
  %indep.addr = alloca i8, align 1
  %shape = alloca %"class.std::vector.86", align 8
  %exn.slot = alloca ptr, align 8
  %ehselector.slot = alloca i32, align 4
  store i64 %dset, ptr %dset.addr, align 8, !tbaa !62
  store ptr %vec, ptr %vec.addr, align 8, !tbaa !164
  %storedv = zext i1 %indep to i8
  store i8 %storedv, ptr %indep.addr, align 1, !tbaa !60
  call void @llvm.lifetime.start.p0(i64 24, ptr %shape) #6
  %0 = load i64, ptr %dset.addr, align 8, !tbaa !62
  call void @_ZN6openmc12object_shapeEl(ptr dead_on_unwind writable sret(%"class.std::vector.86") align 8 %shape, i64 noundef %0)
  %1 = load ptr, ptr %vec.addr, align 8, !tbaa !164
  %call = call noundef nonnull align 8 dereferenceable(8) ptr @_ZNSt6vectorImSaImEEixEm(ptr noundef nonnull align 8 dereferenceable(24) %shape, i64 noundef 0) #6
  %2 = load i64, ptr %call, align 8, !tbaa !62
  invoke void @_ZNSt6vectorIdSaIdEE6resizeEm(ptr noundef nonnull align 8 dereferenceable(24) %1, i64 noundef %2)
          to label %invoke.cont unwind label %lpad

invoke.cont:                                      ; preds = %entry
  %3 = load i64, ptr %dset.addr, align 8, !tbaa !62
  %4 = load i64, ptr @_ZN6openmc9H5TypeMapIdE7type_idE, align 8, !tbaa !62
  %5 = load i8, ptr %indep.addr, align 1, !tbaa !60, !range !65, !noundef !66
  %loadedv = trunc i8 %5 to i1
  %6 = load ptr, ptr %vec.addr, align 8, !tbaa !164
  %call1 = call noundef ptr @_ZNSt6vectorIdSaIdEE4dataEv(ptr noundef nonnull align 8 dereferenceable(24) %6) #6
  invoke void @_ZN6openmc21read_dataset_lowlevelElPKcllbPv(i64 noundef %3, ptr noundef null, i64 noundef %4, i64 noundef 0, i1 noundef zeroext %loadedv, ptr noundef %call1)
          to label %invoke.cont2 unwind label %lpad

invoke.cont2:                                     ; preds = %invoke.cont
  call void @_ZNSt6vectorImSaImEED2Ev(ptr noundef nonnull align 8 dereferenceable(24) %shape) #6
  call void @llvm.lifetime.end.p0(i64 24, ptr %shape) #6
  ret void

lpad:                                             ; preds = %invoke.cont, %entry
  %7 = landingpad { ptr, i32 }
          cleanup
  %8 = extractvalue { ptr, i32 } %7, 0
  store ptr %8, ptr %exn.slot, align 8
  %9 = extractvalue { ptr, i32 } %7, 1
  store i32 %9, ptr %ehselector.slot, align 4
  call void @_ZNSt6vectorImSaImEED2Ev(ptr noundef nonnull align 8 dereferenceable(24) %shape) #6
  call void @llvm.lifetime.end.p0(i64 24, ptr %shape) #6
  br label %eh.resume

eh.resume:                                        ; preds = %lpad
  %exn = load ptr, ptr %exn.slot, align 8
  %sel = load i32, ptr %ehselector.slot, align 4
  %lpad.val = insertvalue { ptr, i32 } poison, ptr %exn, 0
  %lpad.val3 = insertvalue { ptr, i32 } %lpad.val, i32 %sel, 1
  resume { ptr, i32 } %lpad.val3
}

; Function Attrs: mustprogress nounwind uwtable
define linkonce_odr noundef i64 @_ZNKSt6vectorIdSaIdEE4sizeEv(ptr noundef nonnull align 8 dereferenceable(24) %this) #0 comdat align 2 {
entry:
  %this.addr = alloca ptr, align 8
  store ptr %this, ptr %this.addr, align 8, !tbaa !164
  %this1 = load ptr, ptr %this.addr, align 8
  %_M_impl = getelementptr inbounds nuw %"struct.std::_Vector_base.6", ptr %this1, i32 0, i32 0
  %_M_finish = getelementptr inbounds nuw %"struct.std::_Vector_base<double, std::allocator<double>>::_Vector_impl_data", ptr %_M_impl, i32 0, i32 1
  %0 = load ptr, ptr %_M_finish, align 8, !tbaa !182
  %_M_impl2 = getelementptr inbounds nuw %"struct.std::_Vector_base.6", ptr %this1, i32 0, i32 0
  %_M_start = getelementptr inbounds nuw %"struct.std::_Vector_base<double, std::allocator<double>>::_Vector_impl_data", ptr %_M_impl2, i32 0, i32 0
  %1 = load ptr, ptr %_M_start, align 8, !tbaa !183
  %sub.ptr.lhs.cast = ptrtoint ptr %0 to i64
  %sub.ptr.rhs.cast = ptrtoint ptr %1 to i64
  %sub.ptr.sub = sub i64 %sub.ptr.lhs.cast, %sub.ptr.rhs.cast
  %sub.ptr.div = sdiv exact i64 %sub.ptr.sub, 8
  ret i64 %sub.ptr.div
}

declare void @close_dataset(i64 noundef) #4

; Function Attrs: mustprogress uwtable
define linkonce_odr void @_ZN6openmc14read_attributeIiEEvlPKcRSt6vectorIT_SaIS4_EE(i64 noundef %obj_id, ptr noundef %name, ptr noundef nonnull align 8 dereferenceable(24) %vec) #1 comdat personality ptr @__gxx_personality_v0 {
entry:
  %obj_id.addr = alloca i64, align 8
  %name.addr = alloca ptr, align 8
  %vec.addr = alloca ptr, align 8
  %shape = alloca %"class.std::vector.86", align 8
  %size = alloca i64, align 8
  %__range2 = alloca ptr, align 8
  %__begin2 = alloca %"class.__gnu_cxx::__normal_iterator", align 8
  %__end2 = alloca %"class.__gnu_cxx::__normal_iterator", align 8
  %x = alloca i64, align 8
  %exn.slot = alloca ptr, align 8
  %ehselector.slot = alloca i32, align 4
  store i64 %obj_id, ptr %obj_id.addr, align 8, !tbaa !62
  store ptr %name, ptr %name.addr, align 8, !tbaa !115
  store ptr %vec, ptr %vec.addr, align 8, !tbaa !162
  call void @llvm.lifetime.start.p0(i64 24, ptr %shape) #6
  %0 = load i64, ptr %obj_id.addr, align 8, !tbaa !62
  %1 = load ptr, ptr %name.addr, align 8, !tbaa !115
  call void @_ZN6openmc15attribute_shapeElPKc(ptr dead_on_unwind writable sret(%"class.std::vector.86") align 8 %shape, i64 noundef %0, ptr noundef %1)
  call void @llvm.lifetime.start.p0(i64 8, ptr %size) #6
  store i64 1, ptr %size, align 8, !tbaa !62
  call void @llvm.lifetime.start.p0(i64 8, ptr %__range2) #6
  store ptr %shape, ptr %__range2, align 8, !tbaa !168
  call void @llvm.lifetime.start.p0(i64 8, ptr %__begin2) #6
  %2 = load ptr, ptr %__range2, align 8, !tbaa !168
  %call = call ptr @_ZNSt6vectorImSaImEE5beginEv(ptr noundef nonnull align 8 dereferenceable(24) %2) #6
  %coerce.dive = getelementptr inbounds nuw %"class.__gnu_cxx::__normal_iterator", ptr %__begin2, i32 0, i32 0
  store ptr %call, ptr %coerce.dive, align 8
  call void @llvm.lifetime.start.p0(i64 8, ptr %__end2) #6
  %3 = load ptr, ptr %__range2, align 8, !tbaa !168
  %call1 = call ptr @_ZNSt6vectorImSaImEE3endEv(ptr noundef nonnull align 8 dereferenceable(24) %3) #6
  %coerce.dive2 = getelementptr inbounds nuw %"class.__gnu_cxx::__normal_iterator", ptr %__end2, i32 0, i32 0
  store ptr %call1, ptr %coerce.dive2, align 8
  br label %for.cond

for.cond:                                         ; preds = %for.inc, %entry
  %call3 = call noundef zeroext i1 @_ZN9__gnu_cxxneIPmSt6vectorImSaImEEEEbRKNS_17__normal_iteratorIT_T0_EESA_(ptr noundef nonnull align 8 dereferenceable(8) %__begin2, ptr noundef nonnull align 8 dereferenceable(8) %__end2) #6
  br i1 %call3, label %for.body, label %for.cond.cleanup

for.cond.cleanup:                                 ; preds = %for.cond
  call void @llvm.lifetime.end.p0(i64 8, ptr %__end2) #6
  call void @llvm.lifetime.end.p0(i64 8, ptr %__begin2) #6
  call void @llvm.lifetime.end.p0(i64 8, ptr %__range2) #6
  br label %for.end

for.body:                                         ; preds = %for.cond
  call void @llvm.lifetime.start.p0(i64 8, ptr %x) #6
  %call4 = call noundef nonnull align 8 dereferenceable(8) ptr @_ZNK9__gnu_cxx17__normal_iteratorIPmSt6vectorImSaImEEEdeEv(ptr noundef nonnull align 8 dereferenceable(8) %__begin2) #6
  %4 = load i64, ptr %call4, align 8, !tbaa !62
  store i64 %4, ptr %x, align 8, !tbaa !62
  %5 = load i64, ptr %x, align 8, !tbaa !62
  %6 = load i64, ptr %size, align 8, !tbaa !62
  %mul = mul i64 %6, %5
  store i64 %mul, ptr %size, align 8, !tbaa !62
  call void @llvm.lifetime.end.p0(i64 8, ptr %x) #6
  br label %for.inc

for.inc:                                          ; preds = %for.body
  %call5 = call noundef nonnull align 8 dereferenceable(8) ptr @_ZN9__gnu_cxx17__normal_iteratorIPmSt6vectorImSaImEEEppEv(ptr noundef nonnull align 8 dereferenceable(8) %__begin2) #6
  br label %for.cond

for.end:                                          ; preds = %for.cond.cleanup
  %7 = load ptr, ptr %vec.addr, align 8, !tbaa !162
  %8 = load i64, ptr %size, align 8, !tbaa !62
  invoke void @_ZNSt6vectorIiSaIiEE6resizeEm(ptr noundef nonnull align 8 dereferenceable(24) %7, i64 noundef %8)
          to label %invoke.cont unwind label %lpad

invoke.cont:                                      ; preds = %for.end
  %9 = load i64, ptr %obj_id.addr, align 8, !tbaa !62
  %10 = load ptr, ptr %name.addr, align 8, !tbaa !115
  %11 = load i64, ptr @_ZN6openmc9H5TypeMapIiE7type_idE, align 8, !tbaa !62
  %12 = load ptr, ptr %vec.addr, align 8, !tbaa !162
  %call6 = call noundef ptr @_ZNSt6vectorIiSaIiEE4dataEv(ptr noundef nonnull align 8 dereferenceable(24) %12) #6
  invoke void @_ZN6openmc9read_attrElPKclPv(i64 noundef %9, ptr noundef %10, i64 noundef %11, ptr noundef %call6)
          to label %invoke.cont7 unwind label %lpad

invoke.cont7:                                     ; preds = %invoke.cont
  call void @llvm.lifetime.end.p0(i64 8, ptr %size) #6
  call void @_ZNSt6vectorImSaImEED2Ev(ptr noundef nonnull align 8 dereferenceable(24) %shape) #6
  call void @llvm.lifetime.end.p0(i64 24, ptr %shape) #6
  ret void

lpad:                                             ; preds = %invoke.cont, %for.end
  %13 = landingpad { ptr, i32 }
          cleanup
  %14 = extractvalue { ptr, i32 } %13, 0
  store ptr %14, ptr %exn.slot, align 8
  %15 = extractvalue { ptr, i32 } %13, 1
  store i32 %15, ptr %ehselector.slot, align 4
  call void @llvm.lifetime.end.p0(i64 8, ptr %size) #6
  call void @_ZNSt6vectorImSaImEED2Ev(ptr noundef nonnull align 8 dereferenceable(24) %shape) #6
  call void @llvm.lifetime.end.p0(i64 24, ptr %shape) #6
  br label %eh.resume

eh.resume:                                        ; preds = %lpad
  %exn = load ptr, ptr %exn.slot, align 8
  %sel = load i32, ptr %ehselector.slot, align 4
  %lpad.val = insertvalue { ptr, i32 } poison, ptr %exn, 0
  %lpad.val8 = insertvalue { ptr, i32 } %lpad.val, i32 %sel, 1
  resume { ptr, i32 } %lpad.val8
}

; Function Attrs: inlinehint mustprogress uwtable
define linkonce_odr void @_ZN2xt16xarray_containerINS_7uvectorIdSaIdEEELNS_11layout_typeE1ENS_7svectorImLm4ESaImELb1EEENS_22xtensor_expression_tagEEC2Ev(ptr noundef nonnull align 8 dereferenceable(240) %this) unnamed_addr #10 comdat align 2 personality ptr @__gxx_personality_v0 {
entry:
  %this.addr = alloca ptr, align 8
  %exn.slot = alloca ptr, align 8
  %ehselector.slot = alloca i32, align 4
  %ref.tmp = alloca double, align 8
  %ref.tmp2 = alloca %"class.std::allocator.7", align 1
  store ptr %this, ptr %this.addr, align 8, !tbaa !184
  %this1 = load ptr, ptr %this.addr, align 8
  call void @_ZN2xt18xstrided_containerINS_16xarray_containerINS_7uvectorIdSaIdEEELNS_11layout_typeE1ENS_7svectorImLm4ESaImELb1EEENS_22xtensor_expression_tagEEEEC2Ev(ptr noundef nonnull align 8 dereferenceable(196) %this1) #6
  %0 = getelementptr inbounds i8, ptr %this1, i64 200
  invoke void @_ZN2xt19xcontainer_semanticINS_16xarray_containerINS_7uvectorIdSaIdEEELNS_11layout_typeE1ENS_7svectorImLm4ESaImELb1EEENS_22xtensor_expression_tagEEEEC2Ev(ptr noundef nonnull align 8 dereferenceable(16) %0)
          to label %invoke.cont unwind label %lpad

invoke.cont:                                      ; preds = %entry
  %m_storage = getelementptr inbounds nuw %"class.xt::xarray_container.28", ptr %this1, i32 0, i32 2
  call void @llvm.lifetime.start.p0(i64 8, ptr %ref.tmp) #6
  store double 0.000000e+00, ptr %ref.tmp, align 8, !tbaa !16
  call void @llvm.lifetime.start.p0(i64 1, ptr %ref.tmp2) #6
  call void @_ZNSaIdEC2Ev(ptr noundef nonnull align 1 dereferenceable(1) %ref.tmp2) #6
  invoke void @_ZN2xt7uvectorIdSaIdEEC2EmRKdRKS1_(ptr noundef nonnull align 8 dereferenceable(24) %m_storage, i64 noundef 1, ptr noundef nonnull align 8 dereferenceable(8) %ref.tmp, ptr noundef nonnull align 1 dereferenceable(1) %ref.tmp2)
          to label %invoke.cont4 unwind label %lpad3

invoke.cont4:                                     ; preds = %invoke.cont
  call void @_ZNSt15__new_allocatorIdED2Ev(ptr noundef nonnull align 1 dereferenceable(1) %ref.tmp2) #6
  call void @llvm.lifetime.end.p0(i64 1, ptr %ref.tmp2) #6
  call void @llvm.lifetime.end.p0(i64 8, ptr %ref.tmp) #6
  ret void

lpad:                                             ; preds = %entry
  %1 = landingpad { ptr, i32 }
          cleanup
  %2 = extractvalue { ptr, i32 } %1, 0
  store ptr %2, ptr %exn.slot, align 8
  %3 = extractvalue { ptr, i32 } %1, 1
  store i32 %3, ptr %ehselector.slot, align 4
  br label %ehcleanup

lpad3:                                            ; preds = %invoke.cont
  %4 = landingpad { ptr, i32 }
          cleanup
  %5 = extractvalue { ptr, i32 } %4, 0
  store ptr %5, ptr %exn.slot, align 8
  %6 = extractvalue { ptr, i32 } %4, 1
  store i32 %6, ptr %ehselector.slot, align 4
  call void @_ZNSt15__new_allocatorIdED2Ev(ptr noundef nonnull align 1 dereferenceable(1) %ref.tmp2) #6
  call void @llvm.lifetime.end.p0(i64 1, ptr %ref.tmp2) #6
  call void @llvm.lifetime.end.p0(i64 8, ptr %ref.tmp) #6
  %7 = getelementptr inbounds i8, ptr %this1, i64 200
  call void @_ZN2xt20xsharable_expressionINS_16xarray_containerINS_7uvectorIdSaIdEEELNS_11layout_typeE1ENS_7svectorImLm4ESaImELb1EEENS_22xtensor_expression_tagEEEED2Ev(ptr noundef nonnull align 8 dereferenceable(16) %7) #6
  br label %ehcleanup

ehcleanup:                                        ; preds = %lpad3, %lpad
  call void @_ZN2xt18xstrided_containerINS_16xarray_containerINS_7uvectorIdSaIdEEELNS_11layout_typeE1ENS_7svectorImLm4ESaImELb1EEENS_22xtensor_expression_tagEEEED2Ev(ptr noundef nonnull align 8 dereferenceable(196) %this1) #6
  br label %eh.resume

eh.resume:                                        ; preds = %ehcleanup
  %exn = load ptr, ptr %exn.slot, align 8
  %sel = load i32, ptr %ehselector.slot, align 4
  %lpad.val = insertvalue { ptr, i32 } poison, ptr %exn, 0
  %lpad.val5 = insertvalue { ptr, i32 } %lpad.val, i32 %sel, 1
  resume { ptr, i32 } %lpad.val5
}

; Function Attrs: mustprogress uwtable
define linkonce_odr void @_ZN6openmc12read_datasetIdEEvlRN2xt16xarray_containerINS1_7uvectorIT_SaIS4_EEELNS1_11layout_typeE1ENS1_7svectorINS6_9size_typeELm4ESaINSt6vectorIS4_S5_E9size_typeEELb1EEENS1_22xtensor_expression_tagEEEb(i64 noundef %dset, ptr noundef nonnull align 8 dereferenceable(240) %arr, i1 noundef zeroext %indep) #1 comdat personality ptr @__gxx_personality_v0 {
entry:
  %dset.addr = alloca i64, align 8
  %arr.addr = alloca ptr, align 8
  %indep.addr = alloca i8, align 1
  %shape = alloca %"class.std::vector.86", align 8
  %size = alloca i64, align 8
  %__range2 = alloca ptr, align 8
  %__begin2 = alloca %"class.__gnu_cxx::__normal_iterator", align 8
  %__end2 = alloca %"class.__gnu_cxx::__normal_iterator", align 8
  %x = alloca i64, align 8
  %exn.slot = alloca ptr, align 8
  %ehselector.slot = alloca i32, align 4
  store i64 %dset, ptr %dset.addr, align 8, !tbaa !62
  store ptr %arr, ptr %arr.addr, align 8, !tbaa !184
  %storedv = zext i1 %indep to i8
  store i8 %storedv, ptr %indep.addr, align 1, !tbaa !60
  call void @llvm.lifetime.start.p0(i64 24, ptr %shape) #6
  %0 = load i64, ptr %dset.addr, align 8, !tbaa !62
  call void @_ZN6openmc12object_shapeEl(ptr dead_on_unwind writable sret(%"class.std::vector.86") align 8 %shape, i64 noundef %0)
  call void @llvm.lifetime.start.p0(i64 8, ptr %size) #6
  store i64 1, ptr %size, align 8, !tbaa !62
  call void @llvm.lifetime.start.p0(i64 8, ptr %__range2) #6
  store ptr %shape, ptr %__range2, align 8, !tbaa !168
  call void @llvm.lifetime.start.p0(i64 8, ptr %__begin2) #6
  %1 = load ptr, ptr %__range2, align 8, !tbaa !168
  %call = call ptr @_ZNSt6vectorImSaImEE5beginEv(ptr noundef nonnull align 8 dereferenceable(24) %1) #6
  %coerce.dive = getelementptr inbounds nuw %"class.__gnu_cxx::__normal_iterator", ptr %__begin2, i32 0, i32 0
  store ptr %call, ptr %coerce.dive, align 8
  call void @llvm.lifetime.start.p0(i64 8, ptr %__end2) #6
  %2 = load ptr, ptr %__range2, align 8, !tbaa !168
  %call1 = call ptr @_ZNSt6vectorImSaImEE3endEv(ptr noundef nonnull align 8 dereferenceable(24) %2) #6
  %coerce.dive2 = getelementptr inbounds nuw %"class.__gnu_cxx::__normal_iterator", ptr %__end2, i32 0, i32 0
  store ptr %call1, ptr %coerce.dive2, align 8
  br label %for.cond

for.cond:                                         ; preds = %for.inc, %entry
  %call3 = call noundef zeroext i1 @_ZN9__gnu_cxxneIPmSt6vectorImSaImEEEEbRKNS_17__normal_iteratorIT_T0_EESA_(ptr noundef nonnull align 8 dereferenceable(8) %__begin2, ptr noundef nonnull align 8 dereferenceable(8) %__end2) #6
  br i1 %call3, label %for.body, label %for.cond.cleanup

for.cond.cleanup:                                 ; preds = %for.cond
  call void @llvm.lifetime.end.p0(i64 8, ptr %__end2) #6
  call void @llvm.lifetime.end.p0(i64 8, ptr %__begin2) #6
  call void @llvm.lifetime.end.p0(i64 8, ptr %__range2) #6
  br label %for.end

for.body:                                         ; preds = %for.cond
  call void @llvm.lifetime.start.p0(i64 8, ptr %x) #6
  %call4 = call noundef nonnull align 8 dereferenceable(8) ptr @_ZNK9__gnu_cxx17__normal_iteratorIPmSt6vectorImSaImEEEdeEv(ptr noundef nonnull align 8 dereferenceable(8) %__begin2) #6
  %3 = load i64, ptr %call4, align 8, !tbaa !62
  store i64 %3, ptr %x, align 8, !tbaa !62
  %4 = load i64, ptr %x, align 8, !tbaa !62
  %5 = load i64, ptr %size, align 8, !tbaa !62
  %mul = mul i64 %5, %4
  store i64 %mul, ptr %size, align 8, !tbaa !62
  call void @llvm.lifetime.end.p0(i64 8, ptr %x) #6
  br label %for.inc

for.inc:                                          ; preds = %for.body
  %call5 = call noundef nonnull align 8 dereferenceable(8) ptr @_ZN9__gnu_cxx17__normal_iteratorIPmSt6vectorImSaImEEEppEv(ptr noundef nonnull align 8 dereferenceable(8) %__begin2) #6
  br label %for.cond

for.end:                                          ; preds = %for.cond.cleanup
  %6 = load ptr, ptr %arr.addr, align 8, !tbaa !184
  invoke void @_ZN2xt18xstrided_containerINS_16xarray_containerINS_7uvectorIdSaIdEEELNS_11layout_typeE1ENS_7svectorImLm4ESaImELb1EEENS_22xtensor_expression_tagEEEE6resizeIRSt6vectorImS7_EEEvOT_b(ptr noundef nonnull align 8 dereferenceable(196) %6, ptr noundef nonnull align 8 dereferenceable(24) %shape, i1 noundef zeroext false)
          to label %invoke.cont unwind label %lpad

invoke.cont:                                      ; preds = %for.end
  %7 = load i64, ptr %dset.addr, align 8, !tbaa !62
  %8 = load i64, ptr @_ZN6openmc9H5TypeMapIdE7type_idE, align 8, !tbaa !62
  %9 = load i8, ptr %indep.addr, align 1, !tbaa !60, !range !65, !noundef !66
  %loadedv = trunc i8 %9 to i1
  %10 = load ptr, ptr %arr.addr, align 8, !tbaa !184
  %call6 = call noundef ptr @_ZN2xt10xcontainerINS_16xarray_containerINS_7uvectorIdSaIdEEELNS_11layout_typeE1ENS_7svectorImLm4ESaImELb1EEENS_22xtensor_expression_tagEEEE4dataEv(ptr noundef nonnull align 1 dereferenceable(1) %10) #6
  invoke void @_ZN6openmc21read_dataset_lowlevelElPKcllbPv(i64 noundef %7, ptr noundef null, i64 noundef %8, i64 noundef 0, i1 noundef zeroext %loadedv, ptr noundef %call6)
          to label %invoke.cont7 unwind label %lpad

invoke.cont7:                                     ; preds = %invoke.cont
  call void @llvm.lifetime.end.p0(i64 8, ptr %size) #6
  call void @_ZNSt6vectorImSaImEED2Ev(ptr noundef nonnull align 8 dereferenceable(24) %shape) #6
  call void @llvm.lifetime.end.p0(i64 24, ptr %shape) #6
  ret void

lpad:                                             ; preds = %invoke.cont, %for.end
  %11 = landingpad { ptr, i32 }
          cleanup
  %12 = extractvalue { ptr, i32 } %11, 0
  store ptr %12, ptr %exn.slot, align 8
  %13 = extractvalue { ptr, i32 } %11, 1
  store i32 %13, ptr %ehselector.slot, align 4
  call void @llvm.lifetime.end.p0(i64 8, ptr %size) #6
  call void @_ZNSt6vectorImSaImEED2Ev(ptr noundef nonnull align 8 dereferenceable(24) %shape) #6
  call void @llvm.lifetime.end.p0(i64 24, ptr %shape) #6
  br label %eh.resume

eh.resume:                                        ; preds = %lpad
  %exn = load ptr, ptr %exn.slot, align 8
  %sel = load i32, ptr %ehselector.slot, align 4
  %lpad.val = insertvalue { ptr, i32 } poison, ptr %exn, 0
  %lpad.val8 = insertvalue { ptr, i32 } %lpad.val, i32 %sel, 1
  resume { ptr, i32 } %lpad.val8
}

; Function Attrs: mustprogress nounwind uwtable
define linkonce_odr noundef nonnull align 4 dereferenceable(4) ptr @_ZNSt6vectorIiSaIiEEixEm(ptr noundef nonnull align 8 dereferenceable(24) %this, i64 noundef %__n) #0 comdat align 2 {
entry:
  %this.addr = alloca ptr, align 8
  %__n.addr = alloca i64, align 8
  store ptr %this, ptr %this.addr, align 8, !tbaa !162
  store i64 %__n, ptr %__n.addr, align 8, !tbaa !62
  %this1 = load ptr, ptr %this.addr, align 8
  %_M_impl = getelementptr inbounds nuw %"struct.std::_Vector_base", ptr %this1, i32 0, i32 0
  %_M_start = getelementptr inbounds nuw %"struct.std::_Vector_base<int, std::allocator<int>>::_Vector_impl_data", ptr %_M_impl, i32 0, i32 0
  %0 = load ptr, ptr %_M_start, align 8, !tbaa !181
  %1 = load i64, ptr %__n.addr, align 8, !tbaa !62
  %add.ptr = getelementptr inbounds nuw i32, ptr %0, i64 %1
  ret ptr %add.ptr
}

; Function Attrs: mustprogress nounwind uwtable
define linkonce_odr noundef nonnull align 8 dereferenceable(64) ptr @_ZNK2xt10xcontainerINS_16xarray_containerINS_7uvectorIdSaIdEEELNS_11layout_typeE1ENS_7svectorImLm4ESaImELb1EEENS_22xtensor_expression_tagEEEE5shapeEv(ptr noundef nonnull align 1 dereferenceable(1) %this) #0 comdat align 2 {
entry:
  %this.addr = alloca ptr, align 8
  store ptr %this, ptr %this.addr, align 8, !tbaa !186
  %this1 = load ptr, ptr %this.addr, align 8
  %call = call noundef nonnull align 8 dereferenceable(240) ptr @_ZNKR2xt10xcontainerINS_16xarray_containerINS_7uvectorIdSaIdEEELNS_11layout_typeE1ENS_7svectorImLm4ESaImELb1EEENS_22xtensor_expression_tagEEEE12derived_castEv(ptr noundef nonnull align 1 dereferenceable(1) %this1) #6
  %call2 = call noundef nonnull align 8 dereferenceable(64) ptr @_ZNK2xt18xstrided_containerINS_16xarray_containerINS_7uvectorIdSaIdEEELNS_11layout_typeE1ENS_7svectorImLm4ESaImELb1EEENS_22xtensor_expression_tagEEEE10shape_implEv(ptr noundef nonnull align 8 dereferenceable(196) %call) #6
  ret ptr %call2
}

; Function Attrs: inlinehint mustprogress nounwind uwtable
define linkonce_odr noundef nonnull align 8 dereferenceable(8) ptr @_ZNK2xt7svectorImLm4ESaImELb1EEixEm(ptr noundef nonnull align 8 dereferenceable(64) %this, i64 noundef %idx) #2 comdat align 2 {
entry:
  %this.addr = alloca ptr, align 8
  %idx.addr = alloca i64, align 8
  store ptr %this, ptr %this.addr, align 8, !tbaa !188
  store i64 %idx, ptr %idx.addr, align 8, !tbaa !62
  %this1 = load ptr, ptr %this.addr, align 8
  %m_begin = getelementptr inbounds nuw %"class.xt::svector", ptr %this1, i32 0, i32 1
  %0 = load ptr, ptr %m_begin, align 8, !tbaa !190
  %1 = load i64, ptr %idx.addr, align 8, !tbaa !62
  %arrayidx = getelementptr inbounds nuw i64, ptr %0, i64 %1
  ret ptr %arrayidx
}

; Function Attrs: inlinehint mustprogress uwtable
define linkonce_odr void @_ZN6openmc17ContinuousTabular7CTTableC2Ev(ptr noundef nonnull align 8 dereferenceable(224) %this) unnamed_addr #10 comdat align 2 personality ptr @__gxx_personality_v0 {
entry:
  %this.addr = alloca ptr, align 8
  %exn.slot = alloca ptr, align 8
  %ehselector.slot = alloca i32, align 4
  store ptr %this, ptr %this.addr, align 8, !tbaa !93
  %this1 = load ptr, ptr %this.addr, align 8
  %e_out = getelementptr inbounds nuw %"struct.openmc::ContinuousTabular::CTTable", ptr %this1, i32 0, i32 2
  call void @_ZN2xt17xtensor_containerINS_7uvectorIdSaIdEEELm1ELNS_11layout_typeE1ENS_22xtensor_expression_tagEEC2Ev(ptr noundef nonnull align 8 dereferenceable(72) %e_out)
  %p = getelementptr inbounds nuw %"struct.openmc::ContinuousTabular::CTTable", ptr %this1, i32 0, i32 3
  invoke void @_ZN2xt17xtensor_containerINS_7uvectorIdSaIdEEELm1ELNS_11layout_typeE1ENS_22xtensor_expression_tagEEC2Ev(ptr noundef nonnull align 8 dereferenceable(72) %p)
          to label %invoke.cont unwind label %lpad

invoke.cont:                                      ; preds = %entry
  %c = getelementptr inbounds nuw %"struct.openmc::ContinuousTabular::CTTable", ptr %this1, i32 0, i32 4
  invoke void @_ZN2xt17xtensor_containerINS_7uvectorIdSaIdEEELm1ELNS_11layout_typeE1ENS_22xtensor_expression_tagEEC2Ev(ptr noundef nonnull align 8 dereferenceable(72) %c)
          to label %invoke.cont3 unwind label %lpad2

invoke.cont3:                                     ; preds = %invoke.cont
  ret void

lpad:                                             ; preds = %entry
  %0 = landingpad { ptr, i32 }
          cleanup
  %1 = extractvalue { ptr, i32 } %0, 0
  store ptr %1, ptr %exn.slot, align 8
  %2 = extractvalue { ptr, i32 } %0, 1
  store i32 %2, ptr %ehselector.slot, align 4
  br label %ehcleanup

lpad2:                                            ; preds = %invoke.cont
  %3 = landingpad { ptr, i32 }
          cleanup
  %4 = extractvalue { ptr, i32 } %3, 0
  store ptr %4, ptr %exn.slot, align 8
  %5 = extractvalue { ptr, i32 } %3, 1
  store i32 %5, ptr %ehselector.slot, align 4
  call void @_ZN2xt17xtensor_containerINS_7uvectorIdSaIdEEELm1ELNS_11layout_typeE1ENS_22xtensor_expression_tagEED2Ev(ptr noundef nonnull align 8 dereferenceable(72) %p) #6
  br label %ehcleanup

ehcleanup:                                        ; preds = %lpad2, %lpad
  call void @_ZN2xt17xtensor_containerINS_7uvectorIdSaIdEEELm1ELNS_11layout_typeE1ENS_22xtensor_expression_tagEED2Ev(ptr noundef nonnull align 8 dereferenceable(72) %e_out) #6
  br label %eh.resume

eh.resume:                                        ; preds = %ehcleanup
  %exn = load ptr, ptr %exn.slot, align 8
  %sel = load i32, ptr %ehselector.slot, align 4
  %lpad.val = insertvalue { ptr, i32 } poison, ptr %exn, 0
  %lpad.val4 = insertvalue { ptr, i32 } %lpad.val, i32 %sel, 1
  resume { ptr, i32 } %lpad.val4
}

; Function Attrs: inlinehint mustprogress uwtable
define linkonce_odr void @_ZN2xt4viewIRNS_16xarray_containerINS_7uvectorIdSaIdEEELNS_11layout_typeE1ENS_7svectorImLm4ESaImELb1EEENS_22xtensor_expression_tagEEEJiNS_14xrange_adaptorIllNS_12placeholders5xtuphEEEEEEDaOT_DpOT0_(ptr dead_on_unwind noalias writable sret(%"class.xt::xview.62") align 8 %agg.result, ptr noundef nonnull align 8 dereferenceable(240) %e, ptr noundef nonnull align 4 dereferenceable(4) %slices, ptr noundef nonnull align 8 dereferenceable(17) %slices1) #10 comdat {
entry:
  %result.ptr = alloca ptr, align 8
  %e.addr = alloca ptr, align 8
  %slices.addr = alloca ptr, align 8
  %slices.addr2 = alloca ptr, align 8
  %agg.tmp = alloca %"struct.std::integer_sequence.123", align 1
  store ptr %agg.result, ptr %result.ptr, align 8
  store ptr %e, ptr %e.addr, align 8, !tbaa !184
  store ptr %slices, ptr %slices.addr, align 8, !tbaa !152
  store ptr %slices1, ptr %slices.addr2, align 8, !tbaa !193
  %0 = load ptr, ptr %e.addr, align 8, !tbaa !184
  %1 = load ptr, ptr %slices.addr, align 8, !tbaa !152
  %2 = load ptr, ptr %slices.addr2, align 8, !tbaa !193
  call void @_ZN2xt6detail14make_view_implIRNS_16xarray_containerINS_7uvectorIdSaIdEEELNS_11layout_typeE1ENS_7svectorImLm4ESaImELb1EEENS_22xtensor_expression_tagEEEJLm0ELm1EEJiNS_14xrange_adaptorIllNS_12placeholders5xtuphEEEEEEDaOT_St16integer_sequenceImJXspT0_EEEDpOT1_(ptr dead_on_unwind writable sret(%"class.xt::xview.62") align 8 %agg.result, ptr noundef nonnull align 8 dereferenceable(240) %0, ptr noundef nonnull align 4 dereferenceable(4) %1, ptr noundef nonnull align 8 dereferenceable(17) %2)
  ret void
}

; Function Attrs: inlinehint mustprogress uwtable
define linkonce_odr void @_ZN2xt5rangeIiiEEDaT_T0_(ptr dead_on_unwind noalias writable sret(%"struct.xt::xrange_adaptor") align 8 %agg.result, i32 noundef %start_val, i32 noundef %stop_val) #10 comdat {
entry:
  %start_val.addr = alloca i32, align 4
  %stop_val.addr = alloca i32, align 4
  %ref.tmp = alloca %"struct.xt::detail::cast_if_integer", align 1
  %ref.tmp1 = alloca %"struct.xt::detail::cast_if_integer", align 1
  %agg.tmp = alloca %"struct.xt::placeholders::xtuph", align 1
  store i32 %start_val, ptr %start_val.addr, align 4, !tbaa !64
  store i32 %stop_val, ptr %stop_val.addr, align 4, !tbaa !64
  call void @llvm.lifetime.start.p0(i64 1, ptr %ref.tmp) #6
  %0 = load i32, ptr %start_val.addr, align 4, !tbaa !64
  %call = call noundef i64 @_ZN2xt6detail15cast_if_integerIivEclEi(ptr noundef nonnull align 1 dereferenceable(1) %ref.tmp, i32 noundef %0)
  call void @llvm.lifetime.start.p0(i64 1, ptr %ref.tmp1) #6
  %1 = load i32, ptr %stop_val.addr, align 4, !tbaa !64
  %call2 = call noundef i64 @_ZN2xt6detail15cast_if_integerIivEclEi(ptr noundef nonnull align 1 dereferenceable(1) %ref.tmp1, i32 noundef %1)
  call void @_ZN2xt14xrange_adaptorIllNS_12placeholders5xtuphEEC2EllS2_(ptr noundef nonnull align 8 dereferenceable(17) %agg.result, i64 noundef %call, i64 noundef %call2)
  call void @llvm.lifetime.end.p0(i64 1, ptr %ref.tmp1) #6
  call void @llvm.lifetime.end.p0(i64 1, ptr %ref.tmp) #6
  ret void
}

; Function Attrs: inlinehint mustprogress uwtable
define linkonce_odr noundef nonnull align 8 dereferenceable(72) ptr @_ZN2xt17xtensor_containerINS_7uvectorIdSaIdEEELm1ELNS_11layout_typeE1ENS_22xtensor_expression_tagEEaSINS_5xviewIRNS_16xarray_containerIS3_LS4_1ENS_7svectorImLm4ESaImELb1EEES5_EEJiNS_6xrangeIlEEEEEEERS6_RKNS_11xexpressionIT_EE(ptr noundef nonnull align 8 dereferenceable(72) %this, ptr noundef nonnull align 1 dereferenceable(1) %e) #10 comdat align 2 {
entry:
  %this.addr = alloca ptr, align 8
  %e.addr = alloca ptr, align 8
  store ptr %this, ptr %this.addr, align 8, !tbaa !195
  store ptr %e, ptr %e.addr, align 8, !tbaa !196
  %this1 = load ptr, ptr %this.addr, align 8
  %add.ptr = getelementptr inbounds i8, ptr %this1, i64 32
  %0 = load ptr, ptr %e.addr, align 8, !tbaa !196
  %call = call noundef nonnull align 8 dereferenceable(72) ptr @_ZN2xt19xcontainer_semanticINS_17xtensor_containerINS_7uvectorIdSaIdEEELm1ELNS_11layout_typeE1ENS_22xtensor_expression_tagEEEEaSINS_5xviewIRNS_16xarray_containerIS4_LS5_1ENS_7svectorImLm4ESaImELb1EEES6_EEJiNS_6xrangeIlEEEEEEERS7_RKNS_11xexpressionIT_EE(ptr noundef nonnull align 8 dereferenceable(16) %add.ptr, ptr noundef nonnull align 1 dereferenceable(1) %0)
  ret ptr %call
}

; Function Attrs: inlinehint mustprogress nounwind uwtable
define linkonce_odr void @_ZN2xt5xviewIRNS_16xarray_containerINS_7uvectorIdSaIdEEELNS_11layout_typeE1ENS_7svectorImLm4ESaImELb1EEENS_22xtensor_expression_tagEEEJiNS_6xrangeIlEEEED2Ev(ptr noundef nonnull align 8 dereferenceable(249) %this) unnamed_addr #2 comdat align 2 {
entry:
  %this.addr = alloca ptr, align 8
  store ptr %this, ptr %this.addr, align 8, !tbaa !198
  %this1 = load ptr, ptr %this.addr, align 8
  %m_backstrides = getelementptr inbounds nuw %"class.xt::xview.62", ptr %this1, i32 0, i32 5
  call void @_ZN2xt7svectorIlLm4ESaIlELb1EED2Ev(ptr noundef nonnull align 8 dereferenceable(64) %m_backstrides) #6
  %m_strides = getelementptr inbounds nuw %"class.xt::xview.62", ptr %this1, i32 0, i32 4
  call void @_ZN2xt7svectorIlLm4ESaIlELb1EED2Ev(ptr noundef nonnull align 8 dereferenceable(64) %m_strides) #6
  %m_shape = getelementptr inbounds nuw %"class.xt::xview.62", ptr %this1, i32 0, i32 3
  call void @_ZN2xt7svectorImLm4ESaImELb1EED2Ev(ptr noundef nonnull align 8 dereferenceable(64) %m_shape) #6
  call void @_ZN2xt20xsharable_expressionINS_5xviewIRNS_16xarray_containerINS_7uvectorIdSaIdEEELNS_11layout_typeE1ENS_7svectorImLm4ESaImELb1EEENS_22xtensor_expression_tagEEEJiNS_6xrangeIlEEEEEED2Ev(ptr noundef nonnull align 8 dereferenceable(16) %this1) #6
  ret void
}

; Function Attrs: mustprogress uwtable
define linkonce_odr void @_ZNSt6vectorIN6openmc17ContinuousTabular7CTTableESaIS2_EE9push_backEOS2_(ptr noundef nonnull align 8 dereferenceable(24) %this, ptr noundef nonnull align 8 dereferenceable(224) %__x) #1 comdat align 2 {
entry:
  %this.addr = alloca ptr, align 8
  %__x.addr = alloca ptr, align 8
  store ptr %this, ptr %this.addr, align 8, !tbaa !91
  store ptr %__x, ptr %__x.addr, align 8, !tbaa !93
  %this1 = load ptr, ptr %this.addr, align 8
  %0 = load ptr, ptr %__x.addr, align 8, !tbaa !93
  %call = call noundef nonnull align 8 dereferenceable(224) ptr @_ZNSt6vectorIN6openmc17ContinuousTabular7CTTableESaIS2_EE12emplace_backIJS2_EEERS2_DpOT_(ptr noundef nonnull align 8 dereferenceable(24) %this1, ptr noundef nonnull align 8 dereferenceable(224) %0)
  ret void
}

; Function Attrs: inlinehint mustprogress nounwind uwtable
define linkonce_odr void @_ZN6openmc17ContinuousTabular7CTTableD2Ev(ptr noundef nonnull align 8 dereferenceable(224) %this) unnamed_addr #2 comdat align 2 {
entry:
  %this.addr = alloca ptr, align 8
  store ptr %this, ptr %this.addr, align 8, !tbaa !93
  %this1 = load ptr, ptr %this.addr, align 8
  %c = getelementptr inbounds nuw %"struct.openmc::ContinuousTabular::CTTable", ptr %this1, i32 0, i32 4
  call void @_ZN2xt17xtensor_containerINS_7uvectorIdSaIdEEELm1ELNS_11layout_typeE1ENS_22xtensor_expression_tagEED2Ev(ptr noundef nonnull align 8 dereferenceable(72) %c) #6
  %p = getelementptr inbounds nuw %"struct.openmc::ContinuousTabular::CTTable", ptr %this1, i32 0, i32 3
  call void @_ZN2xt17xtensor_containerINS_7uvectorIdSaIdEEELm1ELNS_11layout_typeE1ENS_22xtensor_expression_tagEED2Ev(ptr noundef nonnull align 8 dereferenceable(72) %p) #6
  %e_out = getelementptr inbounds nuw %"struct.openmc::ContinuousTabular::CTTable", ptr %this1, i32 0, i32 2
  call void @_ZN2xt17xtensor_containerINS_7uvectorIdSaIdEEELm1ELNS_11layout_typeE1ENS_22xtensor_expression_tagEED2Ev(ptr noundef nonnull align 8 dereferenceable(72) %e_out) #6
  ret void
}

; Function Attrs: mustprogress nounwind uwtable
define linkonce_odr void @_ZN2xt16xarray_containerINS_7uvectorIdSaIdEEELNS_11layout_typeE1ENS_7svectorImLm4ESaImELb1EEENS_22xtensor_expression_tagEED2Ev(ptr noundef nonnull align 8 dereferenceable(240) %this) unnamed_addr #0 comdat align 2 {
entry:
  %this.addr = alloca ptr, align 8
  store ptr %this, ptr %this.addr, align 8, !tbaa !184
  %this1 = load ptr, ptr %this.addr, align 8
  %m_storage = getelementptr inbounds nuw %"class.xt::xarray_container.28", ptr %this1, i32 0, i32 2
  call void @_ZN2xt7uvectorIdSaIdEED2Ev(ptr noundef nonnull align 8 dereferenceable(24) %m_storage) #6
  %0 = getelementptr inbounds i8, ptr %this1, i64 200
  call void @_ZN2xt20xsharable_expressionINS_16xarray_containerINS_7uvectorIdSaIdEEELNS_11layout_typeE1ENS_7svectorImLm4ESaImELb1EEENS_22xtensor_expression_tagEEEED2Ev(ptr noundef nonnull align 8 dereferenceable(16) %0) #6
  call void @_ZN2xt18xstrided_containerINS_16xarray_containerINS_7uvectorIdSaIdEEELNS_11layout_typeE1ENS_7svectorImLm4ESaImELb1EEENS_22xtensor_expression_tagEEEED2Ev(ptr noundef nonnull align 8 dereferenceable(196) %this1) #6
  ret void
}

; Function Attrs: mustprogress nounwind uwtable
define linkonce_odr void @_ZNSt6vectorIiSaIiEED2Ev(ptr noundef nonnull align 8 dereferenceable(24) %this) unnamed_addr #0 comdat align 2 personality ptr @__gxx_personality_v0 {
entry:
  %this.addr = alloca ptr, align 8
  store ptr %this, ptr %this.addr, align 8, !tbaa !162
  %this1 = load ptr, ptr %this.addr, align 8
  %_M_impl = getelementptr inbounds nuw %"struct.std::_Vector_base", ptr %this1, i32 0, i32 0
  %_M_start = getelementptr inbounds nuw %"struct.std::_Vector_base<int, std::allocator<int>>::_Vector_impl_data", ptr %_M_impl, i32 0, i32 0
  %0 = load ptr, ptr %_M_start, align 8, !tbaa !181
  %_M_impl2 = getelementptr inbounds nuw %"struct.std::_Vector_base", ptr %this1, i32 0, i32 0
  %_M_finish = getelementptr inbounds nuw %"struct.std::_Vector_base<int, std::allocator<int>>::_Vector_impl_data", ptr %_M_impl2, i32 0, i32 1
  %1 = load ptr, ptr %_M_finish, align 8, !tbaa !180
  %call = call noundef nonnull align 1 dereferenceable(1) ptr @_ZNSt12_Vector_baseIiSaIiEE19_M_get_Tp_allocatorEv(ptr noundef nonnull align 8 dereferenceable(24) %this1) #6
  invoke void @_ZSt8_DestroyIPiiEvT_S1_RSaIT0_E(ptr noundef %0, ptr noundef %1, ptr noundef nonnull align 1 dereferenceable(1) %call)
          to label %invoke.cont unwind label %terminate.lpad

invoke.cont:                                      ; preds = %entry
  call void @_ZNSt12_Vector_baseIiSaIiEED2Ev(ptr noundef nonnull align 8 dereferenceable(24) %this1) #6
  ret void

terminate.lpad:                                   ; preds = %entry
  %2 = landingpad { ptr, i32 }
          catch ptr null
  %3 = extractvalue { ptr, i32 } %2, 0
  call void @__clang_call_terminate(ptr %3) #24
  unreachable
}

; Function Attrs: mustprogress nounwind uwtable
define linkonce_odr void @_ZN2xt20xsharable_expressionINS_5xviewIRNS_16xarray_containerINS_7uvectorIiSaIiEEELNS_11layout_typeE1ENS_7svectorImLm4ESaImELb1EEENS_22xtensor_expression_tagEEEJiEEEED2Ev(ptr noundef nonnull align 8 dereferenceable(16) %this) unnamed_addr #0 comdat align 2 {
entry:
  %this.addr = alloca ptr, align 8
  store ptr %this, ptr %this.addr, align 8, !tbaa !200
  %this1 = load ptr, ptr %this.addr, align 8
  %p_shared = getelementptr inbounds nuw %"class.xt::xsharable_expression.17", ptr %this1, i32 0, i32 0
  call void @_ZNSt12__shared_ptrIN2xt5xviewIRNS0_16xarray_containerINS0_7uvectorIiSaIiEEELNS0_11layout_typeE1ENS0_7svectorImLm4ESaImELb1EEENS0_22xtensor_expression_tagEEEJiEEELN9__gnu_cxx12_Lock_policyE2EED2Ev(ptr noundef nonnull align 8 dereferenceable(16) %p_shared) #6
  ret void
}

; Function Attrs: mustprogress nounwind uwtable
define linkonce_odr void @_ZN2xt16xarray_containerINS_7uvectorIiSaIiEEELNS_11layout_typeE1ENS_7svectorImLm4ESaImELb1EEENS_22xtensor_expression_tagEED2Ev(ptr noundef nonnull align 8 dereferenceable(240) %this) unnamed_addr #0 comdat align 2 {
entry:
  %this.addr = alloca ptr, align 8
  store ptr %this, ptr %this.addr, align 8, !tbaa !166
  %this1 = load ptr, ptr %this.addr, align 8
  %m_storage = getelementptr inbounds nuw %"class.xt::xarray_container", ptr %this1, i32 0, i32 2
  call void @_ZN2xt7uvectorIiSaIiEED2Ev(ptr noundef nonnull align 8 dereferenceable(24) %m_storage) #6
  %0 = getelementptr inbounds i8, ptr %this1, i64 200
  call void @_ZN2xt20xsharable_expressionINS_16xarray_containerINS_7uvectorIiSaIiEEELNS_11layout_typeE1ENS_7svectorImLm4ESaImELb1EEENS_22xtensor_expression_tagEEEED2Ev(ptr noundef nonnull align 8 dereferenceable(16) %0) #6
  call void @_ZN2xt18xstrided_containerINS_16xarray_containerINS_7uvectorIiSaIiEEELNS_11layout_typeE1ENS_7svectorImLm4ESaImELb1EEENS_22xtensor_expression_tagEEEED2Ev(ptr noundef nonnull align 8 dereferenceable(196) %this1) #6
  ret void
}

; Function Attrs: mustprogress nounwind uwtable
define linkonce_odr void @_ZNSt6vectorIN6openmc17ContinuousTabular7CTTableESaIS2_EED2Ev(ptr noundef nonnull align 8 dereferenceable(24) %this) unnamed_addr #0 comdat align 2 personality ptr @__gxx_personality_v0 {
entry:
  %this.addr = alloca ptr, align 8
  store ptr %this, ptr %this.addr, align 8, !tbaa !91
  %this1 = load ptr, ptr %this.addr, align 8
  %_M_impl = getelementptr inbounds nuw %"struct.std::_Vector_base.11", ptr %this1, i32 0, i32 0
  %_M_start = getelementptr inbounds nuw %"struct.std::_Vector_base<openmc::ContinuousTabular::CTTable, std::allocator<openmc::ContinuousTabular::CTTable>>::_Vector_impl_data", ptr %_M_impl, i32 0, i32 0
  %0 = load ptr, ptr %_M_start, align 8, !tbaa !202
  %_M_impl2 = getelementptr inbounds nuw %"struct.std::_Vector_base.11", ptr %this1, i32 0, i32 0
  %_M_finish = getelementptr inbounds nuw %"struct.std::_Vector_base<openmc::ContinuousTabular::CTTable, std::allocator<openmc::ContinuousTabular::CTTable>>::_Vector_impl_data", ptr %_M_impl2, i32 0, i32 1
  %1 = load ptr, ptr %_M_finish, align 8, !tbaa !203
  %call = call noundef nonnull align 1 dereferenceable(1) ptr @_ZNSt12_Vector_baseIN6openmc17ContinuousTabular7CTTableESaIS2_EE19_M_get_Tp_allocatorEv(ptr noundef nonnull align 8 dereferenceable(24) %this1) #6
  invoke void @_ZSt8_DestroyIPN6openmc17ContinuousTabular7CTTableES2_EvT_S4_RSaIT0_E(ptr noundef %0, ptr noundef %1, ptr noundef nonnull align 1 dereferenceable(1) %call)
          to label %invoke.cont unwind label %terminate.lpad

invoke.cont:                                      ; preds = %entry
  call void @_ZNSt12_Vector_baseIN6openmc17ContinuousTabular7CTTableESaIS2_EED2Ev(ptr noundef nonnull align 8 dereferenceable(24) %this1) #6
  ret void

terminate.lpad:                                   ; preds = %entry
  %2 = landingpad { ptr, i32 }
          catch ptr null
  %3 = extractvalue { ptr, i32 } %2, 0
  call void @__clang_call_terminate(ptr %3) #24
  unreachable
}

; Function Attrs: mustprogress nounwind uwtable
define linkonce_odr void @_ZNSt6vectorIdSaIdEED2Ev(ptr noundef nonnull align 8 dereferenceable(24) %this) unnamed_addr #0 comdat align 2 personality ptr @__gxx_personality_v0 {
entry:
  %this.addr = alloca ptr, align 8
  store ptr %this, ptr %this.addr, align 8, !tbaa !164
  %this1 = load ptr, ptr %this.addr, align 8
  %_M_impl = getelementptr inbounds nuw %"struct.std::_Vector_base.6", ptr %this1, i32 0, i32 0
  %_M_start = getelementptr inbounds nuw %"struct.std::_Vector_base<double, std::allocator<double>>::_Vector_impl_data", ptr %_M_impl, i32 0, i32 0
  %0 = load ptr, ptr %_M_start, align 8, !tbaa !183
  %_M_impl2 = getelementptr inbounds nuw %"struct.std::_Vector_base.6", ptr %this1, i32 0, i32 0
  %_M_finish = getelementptr inbounds nuw %"struct.std::_Vector_base<double, std::allocator<double>>::_Vector_impl_data", ptr %_M_impl2, i32 0, i32 1
  %1 = load ptr, ptr %_M_finish, align 8, !tbaa !182
  %call = call noundef nonnull align 1 dereferenceable(1) ptr @_ZNSt12_Vector_baseIdSaIdEE19_M_get_Tp_allocatorEv(ptr noundef nonnull align 8 dereferenceable(24) %this1) #6
  invoke void @_ZSt8_DestroyIPddEvT_S1_RSaIT0_E(ptr noundef %0, ptr noundef %1, ptr noundef nonnull align 1 dereferenceable(1) %call)
          to label %invoke.cont unwind label %terminate.lpad

invoke.cont:                                      ; preds = %entry
  call void @_ZNSt12_Vector_baseIdSaIdEED2Ev(ptr noundef nonnull align 8 dereferenceable(24) %this1) #6
  ret void

terminate.lpad:                                   ; preds = %entry
  %2 = landingpad { ptr, i32 }
          catch ptr null
  %3 = extractvalue { ptr, i32 } %2, 0
  call void @__clang_call_terminate(ptr %3) #24
  unreachable
}

; Function Attrs: mustprogress nounwind uwtable
define linkonce_odr void @_ZNSt6vectorIN6openmc13InterpolationESaIS1_EED2Ev(ptr noundef nonnull align 8 dereferenceable(24) %this) unnamed_addr #0 comdat align 2 personality ptr @__gxx_personality_v0 {
entry:
  %this.addr = alloca ptr, align 8
  store ptr %this, ptr %this.addr, align 8, !tbaa !88
  %this1 = load ptr, ptr %this.addr, align 8
  %_M_impl = getelementptr inbounds nuw %"struct.std::_Vector_base.1", ptr %this1, i32 0, i32 0
  %_M_start = getelementptr inbounds nuw %"struct.std::_Vector_base<openmc::Interpolation, std::allocator<openmc::Interpolation>>::_Vector_impl_data", ptr %_M_impl, i32 0, i32 0
  %0 = load ptr, ptr %_M_start, align 8, !tbaa !204
  %_M_impl2 = getelementptr inbounds nuw %"struct.std::_Vector_base.1", ptr %this1, i32 0, i32 0
  %_M_finish = getelementptr inbounds nuw %"struct.std::_Vector_base<openmc::Interpolation, std::allocator<openmc::Interpolation>>::_Vector_impl_data", ptr %_M_impl2, i32 0, i32 1
  %1 = load ptr, ptr %_M_finish, align 8, !tbaa !205
  %call = call noundef nonnull align 1 dereferenceable(1) ptr @_ZNSt12_Vector_baseIN6openmc13InterpolationESaIS1_EE19_M_get_Tp_allocatorEv(ptr noundef nonnull align 8 dereferenceable(24) %this1) #6
  invoke void @_ZSt8_DestroyIPN6openmc13InterpolationES1_EvT_S3_RSaIT0_E(ptr noundef %0, ptr noundef %1, ptr noundef nonnull align 1 dereferenceable(1) %call)
          to label %invoke.cont unwind label %terminate.lpad

invoke.cont:                                      ; preds = %entry
  call void @_ZNSt12_Vector_baseIN6openmc13InterpolationESaIS1_EED2Ev(ptr noundef nonnull align 8 dereferenceable(24) %this1) #6
  ret void

terminate.lpad:                                   ; preds = %entry
  %2 = landingpad { ptr, i32 }
          catch ptr null
  %3 = extractvalue { ptr, i32 } %2, 0
  call void @__clang_call_terminate(ptr %3) #24
  unreachable
}

; Function Attrs: mustprogress nounwind uwtable
define linkonce_odr void @_ZNSt12_Vector_baseIiSaIiEEC2Ev(ptr noundef nonnull align 8 dereferenceable(24) %this) unnamed_addr #0 comdat align 2 {
entry:
  %this.addr = alloca ptr, align 8
  store ptr %this, ptr %this.addr, align 8, !tbaa !206
  %this1 = load ptr, ptr %this.addr, align 8
  %_M_impl = getelementptr inbounds nuw %"struct.std::_Vector_base", ptr %this1, i32 0, i32 0
  call void @_ZNSt12_Vector_baseIiSaIiEE12_Vector_implC2Ev(ptr noundef nonnull align 8 dereferenceable(24) %_M_impl) #6
  ret void
}

; Function Attrs: mustprogress nounwind uwtable
define linkonce_odr void @_ZNSt12_Vector_baseIiSaIiEE12_Vector_implC2Ev(ptr noundef nonnull align 8 dereferenceable(24) %this) unnamed_addr #0 comdat align 2 {
entry:
  %this.addr = alloca ptr, align 8
  store ptr %this, ptr %this.addr, align 8, !tbaa !208
  %this1 = load ptr, ptr %this.addr, align 8
  call void @_ZNSaIiEC2Ev(ptr noundef nonnull align 1 dereferenceable(1) %this1) #6
  call void @_ZNSt12_Vector_baseIiSaIiEE17_Vector_impl_dataC2Ev(ptr noundef nonnull align 8 dereferenceable(24) %this1) #6
  ret void
}

; Function Attrs: mustprogress nounwind uwtable
define linkonce_odr void @_ZNSt15__new_allocatorIiEC2Ev(ptr noundef nonnull align 1 dereferenceable(1) %this) unnamed_addr #0 comdat align 2 {
entry:
  %this.addr = alloca ptr, align 8
  store ptr %this, ptr %this.addr, align 8, !tbaa !210
  %this1 = load ptr, ptr %this.addr, align 8
  ret void
}

; Function Attrs: mustprogress nounwind uwtable
define linkonce_odr void @_ZNSt12_Vector_baseIN6openmc13InterpolationESaIS1_EEC2Ev(ptr noundef nonnull align 8 dereferenceable(24) %this) unnamed_addr #0 comdat align 2 {
entry:
  %this.addr = alloca ptr, align 8
  store ptr %this, ptr %this.addr, align 8, !tbaa !212
  %this1 = load ptr, ptr %this.addr, align 8
  %_M_impl = getelementptr inbounds nuw %"struct.std::_Vector_base.1", ptr %this1, i32 0, i32 0
  call void @_ZNSt12_Vector_baseIN6openmc13InterpolationESaIS1_EE12_Vector_implC2Ev(ptr noundef nonnull align 8 dereferenceable(24) %_M_impl) #6
  ret void
}

; Function Attrs: mustprogress nounwind uwtable
define linkonce_odr void @_ZNSt12_Vector_baseIN6openmc13InterpolationESaIS1_EE12_Vector_implC2Ev(ptr noundef nonnull align 8 dereferenceable(24) %this) unnamed_addr #0 comdat align 2 {
entry:
  %this.addr = alloca ptr, align 8
  store ptr %this, ptr %this.addr, align 8, !tbaa !214
  %this1 = load ptr, ptr %this.addr, align 8
  call void @_ZNSaIN6openmc13InterpolationEEC2Ev(ptr noundef nonnull align 1 dereferenceable(1) %this1) #6
  call void @_ZNSt12_Vector_baseIN6openmc13InterpolationESaIS1_EE17_Vector_impl_dataC2Ev(ptr noundef nonnull align 8 dereferenceable(24) %this1) #6
  ret void
}

; Function Attrs: mustprogress nounwind uwtable
define linkonce_odr void @_ZNSaIN6openmc13InterpolationEEC2Ev(ptr noundef nonnull align 1 dereferenceable(1) %this) unnamed_addr #0 comdat align 2 {
entry:
  %this.addr = alloca ptr, align 8
  store ptr %this, ptr %this.addr, align 8, !tbaa !216
  %this1 = load ptr, ptr %this.addr, align 8
  call void @_ZNSt15__new_allocatorIN6openmc13InterpolationEEC2Ev(ptr noundef nonnull align 1 dereferenceable(1) %this1) #6
  ret void
}

; Function Attrs: mustprogress nounwind uwtable
define linkonce_odr void @_ZNSt15__new_allocatorIN6openmc13InterpolationEEC2Ev(ptr noundef nonnull align 1 dereferenceable(1) %this) unnamed_addr #0 comdat align 2 {
entry:
  %this.addr = alloca ptr, align 8
  store ptr %this, ptr %this.addr, align 8, !tbaa !218
  %this1 = load ptr, ptr %this.addr, align 8
  ret void
}

; Function Attrs: mustprogress nounwind uwtable
define linkonce_odr void @_ZNSt12_Vector_baseIdSaIdEEC2Ev(ptr noundef nonnull align 8 dereferenceable(24) %this) unnamed_addr #0 comdat align 2 {
entry:
  %this.addr = alloca ptr, align 8
  store ptr %this, ptr %this.addr, align 8, !tbaa !220
  %this1 = load ptr, ptr %this.addr, align 8
  %_M_impl = getelementptr inbounds nuw %"struct.std::_Vector_base.6", ptr %this1, i32 0, i32 0
  call void @_ZNSt12_Vector_baseIdSaIdEE12_Vector_implC2Ev(ptr noundef nonnull align 8 dereferenceable(24) %_M_impl) #6
  ret void
}

; Function Attrs: mustprogress nounwind uwtable
define linkonce_odr void @_ZNSt12_Vector_baseIdSaIdEE12_Vector_implC2Ev(ptr noundef nonnull align 8 dereferenceable(24) %this) unnamed_addr #0 comdat align 2 {
entry:
  %this.addr = alloca ptr, align 8
  store ptr %this, ptr %this.addr, align 8, !tbaa !222
  %this1 = load ptr, ptr %this.addr, align 8
  call void @_ZNSaIdEC2Ev(ptr noundef nonnull align 1 dereferenceable(1) %this1) #6
  call void @_ZNSt12_Vector_baseIdSaIdEE17_Vector_impl_dataC2Ev(ptr noundef nonnull align 8 dereferenceable(24) %this1) #6
  ret void
}

; Function Attrs: mustprogress nounwind uwtable
define linkonce_odr void @_ZNSt15__new_allocatorIdEC2Ev(ptr noundef nonnull align 1 dereferenceable(1) %this) unnamed_addr #0 comdat align 2 {
entry:
  %this.addr = alloca ptr, align 8
  store ptr %this, ptr %this.addr, align 8, !tbaa !224
  %this1 = load ptr, ptr %this.addr, align 8
  ret void
}

; Function Attrs: mustprogress nounwind uwtable
define linkonce_odr void @_ZNSt12_Vector_baseIN6openmc17ContinuousTabular7CTTableESaIS2_EEC2Ev(ptr noundef nonnull align 8 dereferenceable(24) %this) unnamed_addr #0 comdat align 2 {
entry:
  %this.addr = alloca ptr, align 8
  store ptr %this, ptr %this.addr, align 8, !tbaa !226
  %this1 = load ptr, ptr %this.addr, align 8
  %_M_impl = getelementptr inbounds nuw %"struct.std::_Vector_base.11", ptr %this1, i32 0, i32 0
  call void @_ZNSt12_Vector_baseIN6openmc17ContinuousTabular7CTTableESaIS2_EE12_Vector_implC2Ev(ptr noundef nonnull align 8 dereferenceable(24) %_M_impl) #6
  ret void
}

; Function Attrs: mustprogress nounwind uwtable
define linkonce_odr void @_ZNSt12_Vector_baseIN6openmc17ContinuousTabular7CTTableESaIS2_EE12_Vector_implC2Ev(ptr noundef nonnull align 8 dereferenceable(24) %this) unnamed_addr #0 comdat align 2 {
entry:
  %this.addr = alloca ptr, align 8
  store ptr %this, ptr %this.addr, align 8, !tbaa !228
  %this1 = load ptr, ptr %this.addr, align 8
  call void @_ZNSaIN6openmc17ContinuousTabular7CTTableEEC2Ev(ptr noundef nonnull align 1 dereferenceable(1) %this1) #6
  call void @_ZNSt12_Vector_baseIN6openmc17ContinuousTabular7CTTableESaIS2_EE17_Vector_impl_dataC2Ev(ptr noundef nonnull align 8 dereferenceable(24) %this1) #6
  ret void
}

; Function Attrs: mustprogress nounwind uwtable
define linkonce_odr void @_ZNSaIN6openmc17ContinuousTabular7CTTableEEC2Ev(ptr noundef nonnull align 1 dereferenceable(1) %this) unnamed_addr #0 comdat align 2 {
entry:
  %this.addr = alloca ptr, align 8
  store ptr %this, ptr %this.addr, align 8, !tbaa !230
  %this1 = load ptr, ptr %this.addr, align 8
  call void @_ZNSt15__new_allocatorIN6openmc17ContinuousTabular7CTTableEEC2Ev(ptr noundef nonnull align 1 dereferenceable(1) %this1) #6
  ret void
}

; Function Attrs: mustprogress nounwind uwtable
define linkonce_odr void @_ZNSt12_Vector_baseIN6openmc17ContinuousTabular7CTTableESaIS2_EE17_Vector_impl_dataC2Ev(ptr noundef nonnull align 8 dereferenceable(24) %this) unnamed_addr #0 comdat align 2 {
entry:
  %this.addr = alloca ptr, align 8
  store ptr %this, ptr %this.addr, align 8, !tbaa !232
  %this1 = load ptr, ptr %this.addr, align 8
  %_M_start = getelementptr inbounds nuw %"struct.std::_Vector_base<openmc::ContinuousTabular::CTTable, std::allocator<openmc::ContinuousTabular::CTTable>>::_Vector_impl_data", ptr %this1, i32 0, i32 0
  store ptr null, ptr %_M_start, align 8, !tbaa !202
  %_M_finish = getelementptr inbounds nuw %"struct.std::_Vector_base<openmc::ContinuousTabular::CTTable, std::allocator<openmc::ContinuousTabular::CTTable>>::_Vector_impl_data", ptr %this1, i32 0, i32 1
  store ptr null, ptr %_M_finish, align 8, !tbaa !203
  %_M_end_of_storage = getelementptr inbounds nuw %"struct.std::_Vector_base<openmc::ContinuousTabular::CTTable, std::allocator<openmc::ContinuousTabular::CTTable>>::_Vector_impl_data", ptr %this1, i32 0, i32 2
  store ptr null, ptr %_M_end_of_storage, align 8, !tbaa !234
  ret void
}

; Function Attrs: mustprogress nounwind uwtable
define linkonce_odr void @_ZNSt15__new_allocatorIN6openmc17ContinuousTabular7CTTableEEC2Ev(ptr noundef nonnull align 1 dereferenceable(1) %this) unnamed_addr #0 comdat align 2 {
entry:
  %this.addr = alloca ptr, align 8
  store ptr %this, ptr %this.addr, align 8, !tbaa !235
  %this1 = load ptr, ptr %this.addr, align 8
  ret void
}

; Function Attrs: inlinehint mustprogress nounwind uwtable
define linkonce_odr void @_ZN2xt18xstrided_containerINS_16xarray_containerINS_7uvectorIiSaIiEEELNS_11layout_typeE1ENS_7svectorImLm4ESaImELb1EEENS_22xtensor_expression_tagEEEEC2Ev(ptr noundef nonnull align 8 dereferenceable(196) %this) unnamed_addr #2 comdat align 2 personality ptr @__gxx_personality_v0 {
entry:
  %this.addr = alloca ptr, align 8
  %ref.tmp = alloca %"class.xt::svector", align 8
  %ref.tmp4 = alloca %"class.xt::svector.15", align 8
  %ref.tmp9 = alloca %"class.xt::svector.15", align 8
  store ptr %this, ptr %this.addr, align 8, !tbaa !237
  %this1 = load ptr, ptr %this.addr, align 8
  %m_shape = getelementptr inbounds nuw %"class.xt::xstrided_container", ptr %this1, i32 0, i32 0
  call void @_ZN2xt7svectorImLm4ESaImELb1EEC2Ev(ptr noundef nonnull align 8 dereferenceable(64) %m_shape) #6
  %m_strides = getelementptr inbounds nuw %"class.xt::xstrided_container", ptr %this1, i32 0, i32 1
  call void @_ZN2xt7svectorIlLm4ESaIlELb1EEC2Ev(ptr noundef nonnull align 8 dereferenceable(64) %m_strides) #6
  %m_backstrides = getelementptr inbounds nuw %"class.xt::xstrided_container", ptr %this1, i32 0, i32 2
  call void @_ZN2xt7svectorIlLm4ESaIlELb1EEC2Ev(ptr noundef nonnull align 8 dereferenceable(64) %m_backstrides) #6
  %m_layout = getelementptr inbounds nuw %"class.xt::xstrided_container", ptr %this1, i32 0, i32 3
  store i32 1, ptr %m_layout, align 8, !tbaa !239
  call void @llvm.lifetime.start.p0(i64 64, ptr %ref.tmp) #6
  %call = call noundef i64 @_ZNK2xt10xcontainerINS_16xarray_containerINS_7uvectorIiSaIiEEELNS_11layout_typeE1ENS_7svectorImLm4ESaImELb1EEENS_22xtensor_expression_tagEEEE9dimensionEv(ptr noundef nonnull align 1 dereferenceable(1) %this1) #6
  invoke void @_ZN3xtl13make_sequenceIN2xt7svectorImLm4ESaImELb1EEEEET_NS5_9size_typeENS5_10value_typeE(ptr dead_on_unwind writable sret(%"class.xt::svector") align 8 %ref.tmp, i64 noundef %call, i64 noundef 0)
          to label %invoke.cont unwind label %terminate.lpad

invoke.cont:                                      ; preds = %entry
  %m_shape2 = getelementptr inbounds nuw %"class.xt::xstrided_container", ptr %this1, i32 0, i32 0
  %call3 = call noundef nonnull align 8 dereferenceable(64) ptr @_ZN2xt7svectorImLm4ESaImELb1EEaSEOS2_(ptr noundef nonnull align 8 dereferenceable(64) %m_shape2, ptr noundef nonnull align 8 dereferenceable(64) %ref.tmp) #6
  call void @_ZN2xt7svectorImLm4ESaImELb1EED2Ev(ptr noundef nonnull align 8 dereferenceable(64) %ref.tmp) #6
  call void @llvm.lifetime.end.p0(i64 64, ptr %ref.tmp) #6
  call void @llvm.lifetime.start.p0(i64 64, ptr %ref.tmp4) #6
  %call5 = call noundef i64 @_ZNK2xt10xcontainerINS_16xarray_containerINS_7uvectorIiSaIiEEELNS_11layout_typeE1ENS_7svectorImLm4ESaImELb1EEENS_22xtensor_expression_tagEEEE9dimensionEv(ptr noundef nonnull align 1 dereferenceable(1) %this1) #6
  invoke void @_ZN3xtl13make_sequenceIN2xt7svectorIlLm4ESaIlELb1EEEEET_NS5_9size_typeENS5_10value_typeE(ptr dead_on_unwind writable sret(%"class.xt::svector.15") align 8 %ref.tmp4, i64 noundef %call5, i64 noundef 0)
          to label %invoke.cont6 unwind label %terminate.lpad

invoke.cont6:                                     ; preds = %invoke.cont
  %m_strides7 = getelementptr inbounds nuw %"class.xt::xstrided_container", ptr %this1, i32 0, i32 1
  %call8 = call noundef nonnull align 8 dereferenceable(64) ptr @_ZN2xt7svectorIlLm4ESaIlELb1EEaSEOS2_(ptr noundef nonnull align 8 dereferenceable(64) %m_strides7, ptr noundef nonnull align 8 dereferenceable(64) %ref.tmp4) #6
  call void @_ZN2xt7svectorIlLm4ESaIlELb1EED2Ev(ptr noundef nonnull align 8 dereferenceable(64) %ref.tmp4) #6
  call void @llvm.lifetime.end.p0(i64 64, ptr %ref.tmp4) #6
  call void @llvm.lifetime.start.p0(i64 64, ptr %ref.tmp9) #6
  %call10 = call noundef i64 @_ZNK2xt10xcontainerINS_16xarray_containerINS_7uvectorIiSaIiEEELNS_11layout_typeE1ENS_7svectorImLm4ESaImELb1EEENS_22xtensor_expression_tagEEEE9dimensionEv(ptr noundef nonnull align 1 dereferenceable(1) %this1) #6
  invoke void @_ZN3xtl13make_sequenceIN2xt7svectorIlLm4ESaIlELb1EEEEET_NS5_9size_typeENS5_10value_typeE(ptr dead_on_unwind writable sret(%"class.xt::svector.15") align 8 %ref.tmp9, i64 noundef %call10, i64 noundef 0)
          to label %invoke.cont11 unwind label %terminate.lpad

invoke.cont11:                                    ; preds = %invoke.cont6
  %m_backstrides12 = getelementptr inbounds nuw %"class.xt::xstrided_container", ptr %this1, i32 0, i32 2
  %call13 = call noundef nonnull align 8 dereferenceable(64) ptr @_ZN2xt7svectorIlLm4ESaIlELb1EEaSEOS2_(ptr noundef nonnull align 8 dereferenceable(64) %m_backstrides12, ptr noundef nonnull align 8 dereferenceable(64) %ref.tmp9) #6
  call void @_ZN2xt7svectorIlLm4ESaIlELb1EED2Ev(ptr noundef nonnull align 8 dereferenceable(64) %ref.tmp9) #6
  call void @llvm.lifetime.end.p0(i64 64, ptr %ref.tmp9) #6
  ret void

terminate.lpad:                                   ; preds = %invoke.cont6, %invoke.cont, %entry
  %0 = landingpad { ptr, i32 }
          catch ptr null
  %1 = extractvalue { ptr, i32 } %0, 0
  call void @__clang_call_terminate(ptr %1) #24
  unreachable
}

; Function Attrs: mustprogress uwtable
define linkonce_odr void @_ZN2xt19xcontainer_semanticINS_16xarray_containerINS_7uvectorIiSaIiEEELNS_11layout_typeE1ENS_7svectorImLm4ESaImELb1EEENS_22xtensor_expression_tagEEEEC2Ev(ptr noundef nonnull align 8 dereferenceable(16) %this) unnamed_addr #1 comdat align 2 {
entry:
  %this.addr = alloca ptr, align 8
  store ptr %this, ptr %this.addr, align 8, !tbaa !243
  %this1 = load ptr, ptr %this.addr, align 8
  call void @_ZN2xt14xsemantic_baseINS_16xarray_containerINS_7uvectorIiSaIiEEELNS_11layout_typeE1ENS_7svectorImLm4ESaImELb1EEENS_22xtensor_expression_tagEEEEC2Ev(ptr noundef nonnull align 8 dereferenceable(16) %this1)
  ret void
}

; Function Attrs: mustprogress nounwind uwtable
define linkonce_odr void @_ZNSaIiEC2Ev(ptr noundef nonnull align 1 dereferenceable(1) %this) unnamed_addr #0 comdat align 2 {
entry:
  %this.addr = alloca ptr, align 8
  store ptr %this, ptr %this.addr, align 8, !tbaa !245
  %this1 = load ptr, ptr %this.addr, align 8
  call void @_ZNSt15__new_allocatorIiEC2Ev(ptr noundef nonnull align 1 dereferenceable(1) %this1) #6
  ret void
}

; Function Attrs: inlinehint mustprogress uwtable
define linkonce_odr void @_ZN2xt7uvectorIiSaIiEEC2EmRKiRKS1_(ptr noundef nonnull align 8 dereferenceable(24) %this, i64 noundef %count, ptr noundef nonnull align 4 dereferenceable(4) %value, ptr noundef nonnull align 1 dereferenceable(1) %alloc) unnamed_addr #10 comdat align 2 personality ptr @__gxx_personality_v0 {
entry:
  %this.addr = alloca ptr, align 8
  %count.addr = alloca i64, align 8
  %value.addr = alloca ptr, align 8
  %alloc.addr = alloca ptr, align 8
  %exn.slot = alloca ptr, align 8
  %ehselector.slot = alloca i32, align 4
  store ptr %this, ptr %this.addr, align 8, !tbaa !247
  store i64 %count, ptr %count.addr, align 8, !tbaa !62
  store ptr %value, ptr %value.addr, align 8, !tbaa !152
  store ptr %alloc, ptr %alloc.addr, align 8, !tbaa !245
  %this1 = load ptr, ptr %this.addr, align 8
  %0 = load ptr, ptr %alloc.addr, align 8, !tbaa !245
  call void @_ZNSaIiEC2ERKS_(ptr noundef nonnull align 1 dereferenceable(1) %this1, ptr noundef nonnull align 1 dereferenceable(1) %0) #6
  %p_begin = getelementptr inbounds nuw %"class.xt::uvector", ptr %this1, i32 0, i32 1
  store ptr null, ptr %p_begin, align 8, !tbaa !249
  %p_end = getelementptr inbounds nuw %"class.xt::uvector", ptr %this1, i32 0, i32 2
  store ptr null, ptr %p_end, align 8, !tbaa !252
  %1 = load i64, ptr %count.addr, align 8, !tbaa !62
  %cmp = icmp ne i64 %1, 0
  br i1 %cmp, label %if.then, label %if.end

if.then:                                          ; preds = %entry
  %2 = load i64, ptr %count.addr, align 8, !tbaa !62
  %call = invoke noundef ptr @_ZNSt15__new_allocatorIiE8allocateEmPKv(ptr noundef nonnull align 1 dereferenceable(1) %this1, i64 noundef %2, ptr noundef null)
          to label %invoke.cont unwind label %lpad

invoke.cont:                                      ; preds = %if.then
  %p_begin2 = getelementptr inbounds nuw %"class.xt::uvector", ptr %this1, i32 0, i32 1
  store ptr %call, ptr %p_begin2, align 8, !tbaa !249
  %p_begin3 = getelementptr inbounds nuw %"class.xt::uvector", ptr %this1, i32 0, i32 1
  %3 = load ptr, ptr %p_begin3, align 8, !tbaa !249
  %4 = load i64, ptr %count.addr, align 8, !tbaa !62
  %add.ptr = getelementptr inbounds nuw i32, ptr %3, i64 %4
  %p_end4 = getelementptr inbounds nuw %"class.xt::uvector", ptr %this1, i32 0, i32 2
  store ptr %add.ptr, ptr %p_end4, align 8, !tbaa !252
  %p_begin5 = getelementptr inbounds nuw %"class.xt::uvector", ptr %this1, i32 0, i32 1
  %5 = load ptr, ptr %p_begin5, align 8, !tbaa !249
  %p_end6 = getelementptr inbounds nuw %"class.xt::uvector", ptr %this1, i32 0, i32 2
  %6 = load ptr, ptr %p_end6, align 8, !tbaa !252
  %7 = load ptr, ptr %value.addr, align 8, !tbaa !152
  invoke void @_ZSt18uninitialized_fillIPiiEvT_S1_RKT0_(ptr noundef %5, ptr noundef %6, ptr noundef nonnull align 4 dereferenceable(4) %7)
          to label %invoke.cont7 unwind label %lpad

invoke.cont7:                                     ; preds = %invoke.cont
  br label %if.end

lpad:                                             ; preds = %invoke.cont, %if.then
  %8 = landingpad { ptr, i32 }
          cleanup
  %9 = extractvalue { ptr, i32 } %8, 0
  store ptr %9, ptr %exn.slot, align 8
  %10 = extractvalue { ptr, i32 } %8, 1
  store i32 %10, ptr %ehselector.slot, align 4
  call void @_ZNSt15__new_allocatorIiED2Ev(ptr noundef nonnull align 1 dereferenceable(1) %this1) #6
  br label %eh.resume

if.end:                                           ; preds = %invoke.cont7, %entry
  ret void

eh.resume:                                        ; preds = %lpad
  %exn = load ptr, ptr %exn.slot, align 8
  %sel = load i32, ptr %ehselector.slot, align 4
  %lpad.val = insertvalue { ptr, i32 } poison, ptr %exn, 0
  %lpad.val8 = insertvalue { ptr, i32 } %lpad.val, i32 %sel, 1
  resume { ptr, i32 } %lpad.val8
}

; Function Attrs: mustprogress nounwind uwtable
define linkonce_odr void @_ZN2xt20xsharable_expressionINS_16xarray_containerINS_7uvectorIiSaIiEEELNS_11layout_typeE1ENS_7svectorImLm4ESaImELb1EEENS_22xtensor_expression_tagEEEED2Ev(ptr noundef nonnull align 8 dereferenceable(16) %this) unnamed_addr #0 comdat align 2 {
entry:
  %this.addr = alloca ptr, align 8
  store ptr %this, ptr %this.addr, align 8, !tbaa !253
  %this1 = load ptr, ptr %this.addr, align 8
  %p_shared = getelementptr inbounds nuw %"class.xt::xsharable_expression", ptr %this1, i32 0, i32 0
  call void @_ZNSt12__shared_ptrIN2xt16xarray_containerINS0_7uvectorIiSaIiEEELNS0_11layout_typeE1ENS0_7svectorImLm4ESaImELb1EEENS0_22xtensor_expression_tagEEELN9__gnu_cxx12_Lock_policyE2EED2Ev(ptr noundef nonnull align 8 dereferenceable(16) %p_shared) #6
  ret void
}

; Function Attrs: mustprogress nounwind uwtable
define linkonce_odr void @_ZN2xt18xstrided_containerINS_16xarray_containerINS_7uvectorIiSaIiEEELNS_11layout_typeE1ENS_7svectorImLm4ESaImELb1EEENS_22xtensor_expression_tagEEEED2Ev(ptr noundef nonnull align 8 dereferenceable(196) %this) unnamed_addr #0 comdat align 2 {
entry:
  %this.addr = alloca ptr, align 8
  store ptr %this, ptr %this.addr, align 8, !tbaa !237
  %this1 = load ptr, ptr %this.addr, align 8
  %m_backstrides = getelementptr inbounds nuw %"class.xt::xstrided_container", ptr %this1, i32 0, i32 2
  call void @_ZN2xt7svectorIlLm4ESaIlELb1EED2Ev(ptr noundef nonnull align 8 dereferenceable(64) %m_backstrides) #6
  %m_strides = getelementptr inbounds nuw %"class.xt::xstrided_container", ptr %this1, i32 0, i32 1
  call void @_ZN2xt7svectorIlLm4ESaIlELb1EED2Ev(ptr noundef nonnull align 8 dereferenceable(64) %m_strides) #6
  %m_shape = getelementptr inbounds nuw %"class.xt::xstrided_container", ptr %this1, i32 0, i32 0
  call void @_ZN2xt7svectorImLm4ESaImELb1EED2Ev(ptr noundef nonnull align 8 dereferenceable(64) %m_shape) #6
  ret void
}

; Function Attrs: inlinehint mustprogress nounwind uwtable
define linkonce_odr void @_ZN2xt7svectorImLm4ESaImELb1EEC2Ev(ptr noundef nonnull align 8 dereferenceable(64) %this) unnamed_addr #2 comdat align 2 {
entry:
  %this.addr = alloca ptr, align 8
  %ref.tmp = alloca %"class.std::allocator.80", align 1
  store ptr %this, ptr %this.addr, align 8, !tbaa !188
  %this1 = load ptr, ptr %this.addr, align 8
  call void @llvm.lifetime.start.p0(i64 1, ptr %ref.tmp) #6
  call void @_ZNSaImEC2Ev(ptr noundef nonnull align 1 dereferenceable(1) %ref.tmp) #6
  call void @_ZN2xt7svectorImLm4ESaImELb1EEC2ERKS1_(ptr noundef nonnull align 8 dereferenceable(64) %this1, ptr noundef nonnull align 1 dereferenceable(1) %ref.tmp) #6
  call void @_ZNSt15__new_allocatorImED2Ev(ptr noundef nonnull align 1 dereferenceable(1) %ref.tmp) #6
  call void @llvm.lifetime.end.p0(i64 1, ptr %ref.tmp) #6
  ret void
}

; Function Attrs: inlinehint mustprogress nounwind uwtable
define linkonce_odr void @_ZN2xt7svectorIlLm4ESaIlELb1EEC2Ev(ptr noundef nonnull align 8 dereferenceable(64) %this) unnamed_addr #2 comdat align 2 {
entry:
  %this.addr = alloca ptr, align 8
  %ref.tmp = alloca %"class.std::allocator.83", align 1
  store ptr %this, ptr %this.addr, align 8, !tbaa !255
  %this1 = load ptr, ptr %this.addr, align 8
  call void @llvm.lifetime.start.p0(i64 1, ptr %ref.tmp) #6
  call void @_ZNSaIlEC2Ev(ptr noundef nonnull align 1 dereferenceable(1) %ref.tmp) #6
  call void @_ZN2xt7svectorIlLm4ESaIlELb1EEC2ERKS1_(ptr noundef nonnull align 8 dereferenceable(64) %this1, ptr noundef nonnull align 1 dereferenceable(1) %ref.tmp) #6
  call void @_ZNSt15__new_allocatorIlED2Ev(ptr noundef nonnull align 1 dereferenceable(1) %ref.tmp) #6
  call void @llvm.lifetime.end.p0(i64 1, ptr %ref.tmp) #6
  ret void
}

; Function Attrs: inlinehint mustprogress uwtable
define linkonce_odr void @_ZN3xtl13make_sequenceIN2xt7svectorImLm4ESaImELb1EEEEET_NS5_9size_typeENS5_10value_typeE(ptr dead_on_unwind noalias writable sret(%"class.xt::svector") align 8 %agg.result, i64 noundef %size, i64 noundef %v) #10 comdat {
entry:
  %result.ptr = alloca ptr, align 8
  %size.addr = alloca i64, align 8
  %v.addr = alloca i64, align 8
  store ptr %agg.result, ptr %result.ptr, align 8
  store i64 %size, ptr %size.addr, align 8, !tbaa !62
  store i64 %v, ptr %v.addr, align 8, !tbaa !62
  %0 = load i64, ptr %size.addr, align 8, !tbaa !62
  %1 = load i64, ptr %v.addr, align 8, !tbaa !62
  call void @_ZN3xtl6detail16sequence_builderIN2xt7svectorImLm4ESaImELb1EEEE4makeEmm(ptr dead_on_unwind writable sret(%"class.xt::svector") align 8 %agg.result, i64 noundef %0, i64 noundef %1)
  ret void
}

; Function Attrs: mustprogress nounwind uwtable
define linkonce_odr noundef i64 @_ZNK2xt10xcontainerINS_16xarray_containerINS_7uvectorIiSaIiEEELNS_11layout_typeE1ENS_7svectorImLm4ESaImELb1EEENS_22xtensor_expression_tagEEEE9dimensionEv(ptr noundef nonnull align 1 dereferenceable(1) %this) #0 comdat align 2 {
entry:
  %this.addr = alloca ptr, align 8
  store ptr %this, ptr %this.addr, align 8, !tbaa !257
  %this1 = load ptr, ptr %this.addr, align 8
  %call = call noundef nonnull align 8 dereferenceable(64) ptr @_ZNK2xt10xcontainerINS_16xarray_containerINS_7uvectorIiSaIiEEELNS_11layout_typeE1ENS_7svectorImLm4ESaImELb1EEENS_22xtensor_expression_tagEEEE5shapeEv(ptr noundef nonnull align 1 dereferenceable(1) %this1) #6
  %call2 = call noundef i64 @_ZNK2xt7svectorImLm4ESaImELb1EE4sizeEv(ptr noundef nonnull align 8 dereferenceable(64) %call)
  ret i64 %call2
}

; Function Attrs: noinline noreturn nounwind uwtable
define linkonce_odr hidden void @__clang_call_terminate(ptr noundef %0) #11 comdat {
  %2 = call ptr @__cxa_begin_catch(ptr %0) #6
  call void @_ZSt9terminatev() #24
  unreachable
}

declare ptr @__cxa_begin_catch(ptr)

declare void @_ZSt9terminatev()

; Function Attrs: inlinehint mustprogress nounwind uwtable
define linkonce_odr noundef nonnull align 8 dereferenceable(64) ptr @_ZN2xt7svectorImLm4ESaImELb1EEaSEOS2_(ptr noundef nonnull align 8 dereferenceable(64) %this, ptr noundef nonnull align 8 dereferenceable(64) %rhs) #2 comdat align 2 personality ptr @__gxx_personality_v0 {
entry:
  %this.addr = alloca ptr, align 8
  %rhs.addr = alloca ptr, align 8
  store ptr %this, ptr %this.addr, align 8, !tbaa !188
  store ptr %rhs, ptr %rhs.addr, align 8, !tbaa !188
  %this1 = load ptr, ptr %this.addr, align 8
  %0 = load ptr, ptr %rhs.addr, align 8, !tbaa !188
  %call = call noundef ptr @_ZN2xt7svectorImLm4ESaImELb1EE5beginEv(ptr noundef nonnull align 8 dereferenceable(64) %0)
  %1 = load ptr, ptr %rhs.addr, align 8, !tbaa !188
  %call2 = call noundef ptr @_ZN2xt7svectorImLm4ESaImELb1EE3endEv(ptr noundef nonnull align 8 dereferenceable(64) %1)
  invoke void @_ZN2xt7svectorImLm4ESaImELb1EE6assignIPmEEvT_S5_(ptr noundef nonnull align 8 dereferenceable(64) %this1, ptr noundef %call, ptr noundef %call2)
          to label %invoke.cont unwind label %terminate.lpad

invoke.cont:                                      ; preds = %entry
  ret ptr %this1

terminate.lpad:                                   ; preds = %entry
  %2 = landingpad { ptr, i32 }
          catch ptr null
  %3 = extractvalue { ptr, i32 } %2, 0
  call void @__clang_call_terminate(ptr %3) #24
  unreachable
}

; Function Attrs: inlinehint mustprogress nounwind uwtable
define linkonce_odr void @_ZN2xt7svectorImLm4ESaImELb1EED2Ev(ptr noundef nonnull align 8 dereferenceable(64) %this) unnamed_addr #2 comdat align 2 personality ptr @__gxx_personality_v0 {
entry:
  %this.addr = alloca ptr, align 8
  store ptr %this, ptr %this.addr, align 8, !tbaa !188
  %this1 = load ptr, ptr %this.addr, align 8
  %call = invoke noundef zeroext i1 @_ZN2xt7svectorImLm4ESaImELb1EE8on_stackEv(ptr noundef nonnull align 8 dereferenceable(64) %this1)
          to label %invoke.cont unwind label %terminate.lpad

invoke.cont:                                      ; preds = %entry
  br i1 %call, label %if.end, label %if.then

if.then:                                          ; preds = %invoke.cont
  %m_begin = getelementptr inbounds nuw %"class.xt::svector", ptr %this1, i32 0, i32 1
  %0 = load ptr, ptr %m_begin, align 8, !tbaa !190
  %m_capacity = getelementptr inbounds nuw %"class.xt::svector", ptr %this1, i32 0, i32 3
  %1 = load ptr, ptr %m_capacity, align 8, !tbaa !259
  %m_begin2 = getelementptr inbounds nuw %"class.xt::svector", ptr %this1, i32 0, i32 1
  %2 = load ptr, ptr %m_begin2, align 8, !tbaa !190
  %sub.ptr.lhs.cast = ptrtoint ptr %1 to i64
  %sub.ptr.rhs.cast = ptrtoint ptr %2 to i64
  %sub.ptr.sub = sub i64 %sub.ptr.lhs.cast, %sub.ptr.rhs.cast
  %sub.ptr.div = sdiv exact i64 %sub.ptr.sub, 8
  invoke void @_ZN2xt6detail23safe_destroy_deallocateISaImEEEvRT_NSt16allocator_traitsIS3_E7pointerENS6_9size_typeE(ptr noundef nonnull align 1 dereferenceable(1) %this1, ptr noundef %0, i64 noundef %sub.ptr.div)
          to label %invoke.cont3 unwind label %terminate.lpad

invoke.cont3:                                     ; preds = %if.then
  br label %if.end

if.end:                                           ; preds = %invoke.cont3, %invoke.cont
  call void @_ZNSt15__new_allocatorImED2Ev(ptr noundef nonnull align 1 dereferenceable(1) %this1) #6
  ret void

terminate.lpad:                                   ; preds = %if.then, %entry
  %3 = landingpad { ptr, i32 }
          catch ptr null
  %4 = extractvalue { ptr, i32 } %3, 0
  call void @__clang_call_terminate(ptr %4) #24
  unreachable
}

; Function Attrs: inlinehint mustprogress uwtable
define linkonce_odr void @_ZN3xtl13make_sequenceIN2xt7svectorIlLm4ESaIlELb1EEEEET_NS5_9size_typeENS5_10value_typeE(ptr dead_on_unwind noalias writable sret(%"class.xt::svector.15") align 8 %agg.result, i64 noundef %size, i64 noundef %v) #10 comdat {
entry:
  %result.ptr = alloca ptr, align 8
  %size.addr = alloca i64, align 8
  %v.addr = alloca i64, align 8
  store ptr %agg.result, ptr %result.ptr, align 8
  store i64 %size, ptr %size.addr, align 8, !tbaa !62
  store i64 %v, ptr %v.addr, align 8, !tbaa !62
  %0 = load i64, ptr %size.addr, align 8, !tbaa !62
  %1 = load i64, ptr %v.addr, align 8, !tbaa !62
  call void @_ZN3xtl6detail16sequence_builderIN2xt7svectorIlLm4ESaIlELb1EEEE4makeEml(ptr dead_on_unwind writable sret(%"class.xt::svector.15") align 8 %agg.result, i64 noundef %0, i64 noundef %1)
  ret void
}

; Function Attrs: inlinehint mustprogress nounwind uwtable
define linkonce_odr noundef nonnull align 8 dereferenceable(64) ptr @_ZN2xt7svectorIlLm4ESaIlELb1EEaSEOS2_(ptr noundef nonnull align 8 dereferenceable(64) %this, ptr noundef nonnull align 8 dereferenceable(64) %rhs) #2 comdat align 2 personality ptr @__gxx_personality_v0 {
entry:
  %this.addr = alloca ptr, align 8
  %rhs.addr = alloca ptr, align 8
  store ptr %this, ptr %this.addr, align 8, !tbaa !255
  store ptr %rhs, ptr %rhs.addr, align 8, !tbaa !255
  %this1 = load ptr, ptr %this.addr, align 8
  %0 = load ptr, ptr %rhs.addr, align 8, !tbaa !255
  %call = call noundef ptr @_ZN2xt7svectorIlLm4ESaIlELb1EE5beginEv(ptr noundef nonnull align 8 dereferenceable(64) %0)
  %1 = load ptr, ptr %rhs.addr, align 8, !tbaa !255
  %call2 = call noundef ptr @_ZN2xt7svectorIlLm4ESaIlELb1EE3endEv(ptr noundef nonnull align 8 dereferenceable(64) %1)
  invoke void @_ZN2xt7svectorIlLm4ESaIlELb1EE6assignIPlEEvT_S5_(ptr noundef nonnull align 8 dereferenceable(64) %this1, ptr noundef %call, ptr noundef %call2)
          to label %invoke.cont unwind label %terminate.lpad

invoke.cont:                                      ; preds = %entry
  ret ptr %this1

terminate.lpad:                                   ; preds = %entry
  %2 = landingpad { ptr, i32 }
          catch ptr null
  %3 = extractvalue { ptr, i32 } %2, 0
  call void @__clang_call_terminate(ptr %3) #24
  unreachable
}

; Function Attrs: inlinehint mustprogress nounwind uwtable
define linkonce_odr void @_ZN2xt7svectorIlLm4ESaIlELb1EED2Ev(ptr noundef nonnull align 8 dereferenceable(64) %this) unnamed_addr #2 comdat align 2 personality ptr @__gxx_personality_v0 {
entry:
  %this.addr = alloca ptr, align 8
  store ptr %this, ptr %this.addr, align 8, !tbaa !255
  %this1 = load ptr, ptr %this.addr, align 8
  %call = invoke noundef zeroext i1 @_ZN2xt7svectorIlLm4ESaIlELb1EE8on_stackEv(ptr noundef nonnull align 8 dereferenceable(64) %this1)
          to label %invoke.cont unwind label %terminate.lpad

invoke.cont:                                      ; preds = %entry
  br i1 %call, label %if.end, label %if.then

if.then:                                          ; preds = %invoke.cont
  %m_begin = getelementptr inbounds nuw %"class.xt::svector.15", ptr %this1, i32 0, i32 1
  %0 = load ptr, ptr %m_begin, align 8, !tbaa !260
  %m_capacity = getelementptr inbounds nuw %"class.xt::svector.15", ptr %this1, i32 0, i32 3
  %1 = load ptr, ptr %m_capacity, align 8, !tbaa !261
  %m_begin2 = getelementptr inbounds nuw %"class.xt::svector.15", ptr %this1, i32 0, i32 1
  %2 = load ptr, ptr %m_begin2, align 8, !tbaa !260
  %sub.ptr.lhs.cast = ptrtoint ptr %1 to i64
  %sub.ptr.rhs.cast = ptrtoint ptr %2 to i64
  %sub.ptr.sub = sub i64 %sub.ptr.lhs.cast, %sub.ptr.rhs.cast
  %sub.ptr.div = sdiv exact i64 %sub.ptr.sub, 8
  invoke void @_ZN2xt6detail23safe_destroy_deallocateISaIlEEEvRT_NSt16allocator_traitsIS3_E7pointerENS6_9size_typeE(ptr noundef nonnull align 1 dereferenceable(1) %this1, ptr noundef %0, i64 noundef %sub.ptr.div)
          to label %invoke.cont3 unwind label %terminate.lpad

invoke.cont3:                                     ; preds = %if.then
  br label %if.end

if.end:                                           ; preds = %invoke.cont3, %invoke.cont
  call void @_ZNSt15__new_allocatorIlED2Ev(ptr noundef nonnull align 1 dereferenceable(1) %this1) #6
  ret void

terminate.lpad:                                   ; preds = %if.then, %entry
  %3 = landingpad { ptr, i32 }
          catch ptr null
  %4 = extractvalue { ptr, i32 } %3, 0
  call void @__clang_call_terminate(ptr %4) #24
  unreachable
}

; Function Attrs: mustprogress nounwind uwtable
define linkonce_odr void @_ZNSaImEC2Ev(ptr noundef nonnull align 1 dereferenceable(1) %this) unnamed_addr #0 comdat align 2 {
entry:
  %this.addr = alloca ptr, align 8
  store ptr %this, ptr %this.addr, align 8, !tbaa !262
  %this1 = load ptr, ptr %this.addr, align 8
  call void @_ZNSt15__new_allocatorImEC2Ev(ptr noundef nonnull align 1 dereferenceable(1) %this1) #6
  ret void
}

; Function Attrs: inlinehint mustprogress nounwind uwtable
define linkonce_odr void @_ZN2xt7svectorImLm4ESaImELb1EEC2ERKS1_(ptr noundef nonnull align 8 dereferenceable(64) %this, ptr noundef nonnull align 1 dereferenceable(1) %alloc) unnamed_addr #2 comdat align 2 {
entry:
  %this.addr = alloca ptr, align 8
  %alloc.addr = alloca ptr, align 8
  store ptr %this, ptr %this.addr, align 8, !tbaa !188
  store ptr %alloc, ptr %alloc.addr, align 8, !tbaa !262
  %this1 = load ptr, ptr %this.addr, align 8
  %0 = load ptr, ptr %alloc.addr, align 8, !tbaa !262
  call void @_ZNSaImEC2ERKS_(ptr noundef nonnull align 1 dereferenceable(1) %this1, ptr noundef nonnull align 1 dereferenceable(1) %0) #6
  %m_begin = getelementptr inbounds nuw %"class.xt::svector", ptr %this1, i32 0, i32 1
  %m_data = getelementptr inbounds nuw %"class.xt::svector", ptr %this1, i32 0, i32 4
  %call = call noundef ptr @_ZSt5beginImLm4EEPT_RAT0__S0_(ptr noundef nonnull align 8 dereferenceable(32) %m_data) #6
  store ptr %call, ptr %m_begin, align 8, !tbaa !190
  %m_end = getelementptr inbounds nuw %"class.xt::svector", ptr %this1, i32 0, i32 2
  %m_data2 = getelementptr inbounds nuw %"class.xt::svector", ptr %this1, i32 0, i32 4
  %call3 = call noundef ptr @_ZSt5beginImLm4EEPT_RAT0__S0_(ptr noundef nonnull align 8 dereferenceable(32) %m_data2) #6
  store ptr %call3, ptr %m_end, align 8, !tbaa !264
  %m_capacity = getelementptr inbounds nuw %"class.xt::svector", ptr %this1, i32 0, i32 3
  %m_data4 = getelementptr inbounds nuw %"class.xt::svector", ptr %this1, i32 0, i32 4
  %call5 = call noundef ptr @_ZSt3endImLm4EEPT_RAT0__S0_(ptr noundef nonnull align 8 dereferenceable(32) %m_data4) #6
  store ptr %call5, ptr %m_capacity, align 8, !tbaa !259
  ret void
}

; Function Attrs: mustprogress nounwind uwtable
define linkonce_odr void @_ZNSt15__new_allocatorImEC2Ev(ptr noundef nonnull align 1 dereferenceable(1) %this) unnamed_addr #0 comdat align 2 {
entry:
  %this.addr = alloca ptr, align 8
  store ptr %this, ptr %this.addr, align 8, !tbaa !265
  %this1 = load ptr, ptr %this.addr, align 8
  ret void
}

; Function Attrs: mustprogress nounwind uwtable
define linkonce_odr void @_ZNSaImEC2ERKS_(ptr noundef nonnull align 1 dereferenceable(1) %this, ptr noundef nonnull align 1 dereferenceable(1) %__a) unnamed_addr #0 comdat align 2 {
entry:
  %this.addr = alloca ptr, align 8
  %__a.addr = alloca ptr, align 8
  store ptr %this, ptr %this.addr, align 8, !tbaa !262
  store ptr %__a, ptr %__a.addr, align 8, !tbaa !262
  %this1 = load ptr, ptr %this.addr, align 8
  %0 = load ptr, ptr %__a.addr, align 8, !tbaa !262
  call void @_ZNSt15__new_allocatorImEC2ERKS0_(ptr noundef nonnull align 1 dereferenceable(1) %this1, ptr noundef nonnull align 1 dereferenceable(1) %0) #6
  ret void
}

; Function Attrs: inlinehint mustprogress nounwind uwtable
define linkonce_odr noundef ptr @_ZSt5beginImLm4EEPT_RAT0__S0_(ptr noundef nonnull align 8 dereferenceable(32) %__arr) #2 comdat {
entry:
  %__arr.addr = alloca ptr, align 8
  store ptr %__arr, ptr %__arr.addr, align 8, !tbaa !18
  %0 = load ptr, ptr %__arr.addr, align 8, !tbaa !18
  %arraydecay = getelementptr inbounds [4 x i64], ptr %0, i64 0, i64 0
  ret ptr %arraydecay
}

; Function Attrs: inlinehint mustprogress nounwind uwtable
define linkonce_odr noundef ptr @_ZSt3endImLm4EEPT_RAT0__S0_(ptr noundef nonnull align 8 dereferenceable(32) %__arr) #2 comdat {
entry:
  %__arr.addr = alloca ptr, align 8
  store ptr %__arr, ptr %__arr.addr, align 8, !tbaa !18
  %0 = load ptr, ptr %__arr.addr, align 8, !tbaa !18
  %arraydecay = getelementptr inbounds [4 x i64], ptr %0, i64 0, i64 0
  %add.ptr = getelementptr inbounds nuw i64, ptr %arraydecay, i64 4
  ret ptr %add.ptr
}

; Function Attrs: mustprogress nounwind uwtable
define linkonce_odr void @_ZNSt15__new_allocatorImEC2ERKS0_(ptr noundef nonnull align 1 dereferenceable(1) %this, ptr noundef nonnull align 1 dereferenceable(1) %0) unnamed_addr #0 comdat align 2 {
entry:
  %this.addr = alloca ptr, align 8
  %.addr = alloca ptr, align 8
  store ptr %this, ptr %this.addr, align 8, !tbaa !265
  store ptr %0, ptr %.addr, align 8, !tbaa !265
  %this1 = load ptr, ptr %this.addr, align 8
  ret void
}

; Function Attrs: mustprogress nounwind uwtable
define linkonce_odr void @_ZNSaIlEC2Ev(ptr noundef nonnull align 1 dereferenceable(1) %this) unnamed_addr #0 comdat align 2 {
entry:
  %this.addr = alloca ptr, align 8
  store ptr %this, ptr %this.addr, align 8, !tbaa !267
  %this1 = load ptr, ptr %this.addr, align 8
  call void @_ZNSt15__new_allocatorIlEC2Ev(ptr noundef nonnull align 1 dereferenceable(1) %this1) #6
  ret void
}

; Function Attrs: inlinehint mustprogress nounwind uwtable
define linkonce_odr void @_ZN2xt7svectorIlLm4ESaIlELb1EEC2ERKS1_(ptr noundef nonnull align 8 dereferenceable(64) %this, ptr noundef nonnull align 1 dereferenceable(1) %alloc) unnamed_addr #2 comdat align 2 {
entry:
  %this.addr = alloca ptr, align 8
  %alloc.addr = alloca ptr, align 8
  store ptr %this, ptr %this.addr, align 8, !tbaa !255
  store ptr %alloc, ptr %alloc.addr, align 8, !tbaa !267
  %this1 = load ptr, ptr %this.addr, align 8
  %0 = load ptr, ptr %alloc.addr, align 8, !tbaa !267
  call void @_ZNSaIlEC2ERKS_(ptr noundef nonnull align 1 dereferenceable(1) %this1, ptr noundef nonnull align 1 dereferenceable(1) %0) #6
  %m_begin = getelementptr inbounds nuw %"class.xt::svector.15", ptr %this1, i32 0, i32 1
  %m_data = getelementptr inbounds nuw %"class.xt::svector.15", ptr %this1, i32 0, i32 4
  %call = call noundef ptr @_ZSt5beginIlLm4EEPT_RAT0__S0_(ptr noundef nonnull align 8 dereferenceable(32) %m_data) #6
  store ptr %call, ptr %m_begin, align 8, !tbaa !260
  %m_end = getelementptr inbounds nuw %"class.xt::svector.15", ptr %this1, i32 0, i32 2
  %m_data2 = getelementptr inbounds nuw %"class.xt::svector.15", ptr %this1, i32 0, i32 4
  %call3 = call noundef ptr @_ZSt5beginIlLm4EEPT_RAT0__S0_(ptr noundef nonnull align 8 dereferenceable(32) %m_data2) #6
  store ptr %call3, ptr %m_end, align 8, !tbaa !269
  %m_capacity = getelementptr inbounds nuw %"class.xt::svector.15", ptr %this1, i32 0, i32 3
  %m_data4 = getelementptr inbounds nuw %"class.xt::svector.15", ptr %this1, i32 0, i32 4
  %call5 = call noundef ptr @_ZSt3endIlLm4EEPT_RAT0__S0_(ptr noundef nonnull align 8 dereferenceable(32) %m_data4) #6
  store ptr %call5, ptr %m_capacity, align 8, !tbaa !261
  ret void
}

; Function Attrs: mustprogress nounwind uwtable
define linkonce_odr void @_ZNSt15__new_allocatorIlEC2Ev(ptr noundef nonnull align 1 dereferenceable(1) %this) unnamed_addr #0 comdat align 2 {
entry:
  %this.addr = alloca ptr, align 8
  store ptr %this, ptr %this.addr, align 8, !tbaa !270
  %this1 = load ptr, ptr %this.addr, align 8
  ret void
}

; Function Attrs: mustprogress nounwind uwtable
define linkonce_odr void @_ZNSaIlEC2ERKS_(ptr noundef nonnull align 1 dereferenceable(1) %this, ptr noundef nonnull align 1 dereferenceable(1) %__a) unnamed_addr #0 comdat align 2 {
entry:
  %this.addr = alloca ptr, align 8
  %__a.addr = alloca ptr, align 8
  store ptr %this, ptr %this.addr, align 8, !tbaa !267
  store ptr %__a, ptr %__a.addr, align 8, !tbaa !267
  %this1 = load ptr, ptr %this.addr, align 8
  %0 = load ptr, ptr %__a.addr, align 8, !tbaa !267
  call void @_ZNSt15__new_allocatorIlEC2ERKS0_(ptr noundef nonnull align 1 dereferenceable(1) %this1, ptr noundef nonnull align 1 dereferenceable(1) %0) #6
  ret void
}

; Function Attrs: inlinehint mustprogress nounwind uwtable
define linkonce_odr noundef ptr @_ZSt5beginIlLm4EEPT_RAT0__S0_(ptr noundef nonnull align 8 dereferenceable(32) %__arr) #2 comdat {
entry:
  %__arr.addr = alloca ptr, align 8
  store ptr %__arr, ptr %__arr.addr, align 8, !tbaa !18
  %0 = load ptr, ptr %__arr.addr, align 8, !tbaa !18
  %arraydecay = getelementptr inbounds [4 x i64], ptr %0, i64 0, i64 0
  ret ptr %arraydecay
}

; Function Attrs: inlinehint mustprogress nounwind uwtable
define linkonce_odr noundef ptr @_ZSt3endIlLm4EEPT_RAT0__S0_(ptr noundef nonnull align 8 dereferenceable(32) %__arr) #2 comdat {
entry:
  %__arr.addr = alloca ptr, align 8
  store ptr %__arr, ptr %__arr.addr, align 8, !tbaa !18
  %0 = load ptr, ptr %__arr.addr, align 8, !tbaa !18
  %arraydecay = getelementptr inbounds [4 x i64], ptr %0, i64 0, i64 0
  %add.ptr = getelementptr inbounds nuw i64, ptr %arraydecay, i64 4
  ret ptr %add.ptr
}

; Function Attrs: mustprogress nounwind uwtable
define linkonce_odr void @_ZNSt15__new_allocatorIlEC2ERKS0_(ptr noundef nonnull align 1 dereferenceable(1) %this, ptr noundef nonnull align 1 dereferenceable(1) %0) unnamed_addr #0 comdat align 2 {
entry:
  %this.addr = alloca ptr, align 8
  %.addr = alloca ptr, align 8
  store ptr %this, ptr %this.addr, align 8, !tbaa !270
  store ptr %0, ptr %.addr, align 8, !tbaa !270
  %this1 = load ptr, ptr %this.addr, align 8
  ret void
}

; Function Attrs: inlinehint mustprogress uwtable
define linkonce_odr void @_ZN3xtl6detail16sequence_builderIN2xt7svectorImLm4ESaImELb1EEEE4makeEmm(ptr dead_on_unwind noalias writable sret(%"class.xt::svector") align 8 %agg.result, i64 noundef %size, i64 noundef %v) #10 comdat align 2 personality ptr @__gxx_personality_v0 {
entry:
  %result.ptr = alloca ptr, align 8
  %size.addr = alloca i64, align 8
  %v.addr = alloca i64, align 8
  %ref.tmp = alloca %"class.std::allocator.80", align 1
  %exn.slot = alloca ptr, align 8
  %ehselector.slot = alloca i32, align 4
  store ptr %agg.result, ptr %result.ptr, align 8
  store i64 %size, ptr %size.addr, align 8, !tbaa !62
  store i64 %v, ptr %v.addr, align 8, !tbaa !62
  %0 = load i64, ptr %size.addr, align 8, !tbaa !62
  call void @llvm.lifetime.start.p0(i64 1, ptr %ref.tmp) #6
  call void @_ZNSaImEC2Ev(ptr noundef nonnull align 1 dereferenceable(1) %ref.tmp) #6
  invoke void @_ZN2xt7svectorImLm4ESaImELb1EEC2EmRKmRKS1_(ptr noundef nonnull align 8 dereferenceable(64) %agg.result, i64 noundef %0, ptr noundef nonnull align 8 dereferenceable(8) %v.addr, ptr noundef nonnull align 1 dereferenceable(1) %ref.tmp)
          to label %invoke.cont unwind label %lpad

invoke.cont:                                      ; preds = %entry
  call void @_ZNSt15__new_allocatorImED2Ev(ptr noundef nonnull align 1 dereferenceable(1) %ref.tmp) #6
  call void @llvm.lifetime.end.p0(i64 1, ptr %ref.tmp) #6
  ret void

lpad:                                             ; preds = %entry
  %1 = landingpad { ptr, i32 }
          cleanup
  %2 = extractvalue { ptr, i32 } %1, 0
  store ptr %2, ptr %exn.slot, align 8
  %3 = extractvalue { ptr, i32 } %1, 1
  store i32 %3, ptr %ehselector.slot, align 4
  call void @_ZNSt15__new_allocatorImED2Ev(ptr noundef nonnull align 1 dereferenceable(1) %ref.tmp) #6
  call void @llvm.lifetime.end.p0(i64 1, ptr %ref.tmp) #6
  br label %eh.resume

eh.resume:                                        ; preds = %lpad
  %exn = load ptr, ptr %exn.slot, align 8
  %sel = load i32, ptr %ehselector.slot, align 4
  %lpad.val = insertvalue { ptr, i32 } poison, ptr %exn, 0
  %lpad.val1 = insertvalue { ptr, i32 } %lpad.val, i32 %sel, 1
  resume { ptr, i32 } %lpad.val1
}

; Function Attrs: inlinehint mustprogress uwtable
define linkonce_odr void @_ZN2xt7svectorImLm4ESaImELb1EEC2EmRKmRKS1_(ptr noundef nonnull align 8 dereferenceable(64) %this, i64 noundef %n, ptr noundef nonnull align 8 dereferenceable(8) %v, ptr noundef nonnull align 1 dereferenceable(1) %alloc) unnamed_addr #10 comdat align 2 personality ptr @__gxx_personality_v0 {
entry:
  %this.addr = alloca ptr, align 8
  %n.addr = alloca i64, align 8
  %v.addr = alloca ptr, align 8
  %alloc.addr = alloca ptr, align 8
  %exn.slot = alloca ptr, align 8
  %ehselector.slot = alloca i32, align 4
  store ptr %this, ptr %this.addr, align 8, !tbaa !188
  store i64 %n, ptr %n.addr, align 8, !tbaa !62
  store ptr %v, ptr %v.addr, align 8, !tbaa !18
  store ptr %alloc, ptr %alloc.addr, align 8, !tbaa !262
  %this1 = load ptr, ptr %this.addr, align 8
  %0 = load ptr, ptr %alloc.addr, align 8, !tbaa !262
  call void @_ZNSaImEC2ERKS_(ptr noundef nonnull align 1 dereferenceable(1) %this1, ptr noundef nonnull align 1 dereferenceable(1) %0) #6
  %m_begin = getelementptr inbounds nuw %"class.xt::svector", ptr %this1, i32 0, i32 1
  %m_data = getelementptr inbounds nuw %"class.xt::svector", ptr %this1, i32 0, i32 4
  %call = call noundef ptr @_ZSt5beginImLm4EEPT_RAT0__S0_(ptr noundef nonnull align 8 dereferenceable(32) %m_data) #6
  store ptr %call, ptr %m_begin, align 8, !tbaa !190
  %m_end = getelementptr inbounds nuw %"class.xt::svector", ptr %this1, i32 0, i32 2
  %m_data2 = getelementptr inbounds nuw %"class.xt::svector", ptr %this1, i32 0, i32 4
  %call3 = call noundef ptr @_ZSt5beginImLm4EEPT_RAT0__S0_(ptr noundef nonnull align 8 dereferenceable(32) %m_data2) #6
  store ptr %call3, ptr %m_end, align 8, !tbaa !264
  %m_capacity = getelementptr inbounds nuw %"class.xt::svector", ptr %this1, i32 0, i32 3
  %m_data4 = getelementptr inbounds nuw %"class.xt::svector", ptr %this1, i32 0, i32 4
  %call5 = call noundef ptr @_ZSt3endImLm4EEPT_RAT0__S0_(ptr noundef nonnull align 8 dereferenceable(32) %m_data4) #6
  store ptr %call5, ptr %m_capacity, align 8, !tbaa !259
  %1 = load i64, ptr %n.addr, align 8, !tbaa !62
  %2 = load ptr, ptr %v.addr, align 8, !tbaa !18
  invoke void @_ZN2xt7svectorImLm4ESaImELb1EE6assignEmRKm(ptr noundef nonnull align 8 dereferenceable(64) %this1, i64 noundef %1, ptr noundef nonnull align 8 dereferenceable(8) %2)
          to label %invoke.cont unwind label %lpad

invoke.cont:                                      ; preds = %entry
  ret void

lpad:                                             ; preds = %entry
  %3 = landingpad { ptr, i32 }
          cleanup
  %4 = extractvalue { ptr, i32 } %3, 0
  store ptr %4, ptr %exn.slot, align 8
  %5 = extractvalue { ptr, i32 } %3, 1
  store i32 %5, ptr %ehselector.slot, align 4
  call void @_ZNSt15__new_allocatorImED2Ev(ptr noundef nonnull align 1 dereferenceable(1) %this1) #6
  br label %eh.resume

eh.resume:                                        ; preds = %lpad
  %exn = load ptr, ptr %exn.slot, align 8
  %sel = load i32, ptr %ehselector.slot, align 4
  %lpad.val = insertvalue { ptr, i32 } poison, ptr %exn, 0
  %lpad.val6 = insertvalue { ptr, i32 } %lpad.val, i32 %sel, 1
  resume { ptr, i32 } %lpad.val6
}

; Function Attrs: inlinehint mustprogress uwtable
define linkonce_odr void @_ZN2xt7svectorImLm4ESaImELb1EE6assignEmRKm(ptr noundef nonnull align 8 dereferenceable(64) %this, i64 noundef %n, ptr noundef nonnull align 8 dereferenceable(8) %v) #10 comdat align 2 {
entry:
  %this.addr = alloca ptr, align 8
  %n.addr = alloca i64, align 8
  %v.addr = alloca ptr, align 8
  store ptr %this, ptr %this.addr, align 8, !tbaa !188
  store i64 %n, ptr %n.addr, align 8, !tbaa !62
  store ptr %v, ptr %v.addr, align 8, !tbaa !18
  %this1 = load ptr, ptr %this.addr, align 8
  %0 = load i64, ptr %n.addr, align 8, !tbaa !62
  %cmp = icmp ugt i64 %0, 4
  br i1 %cmp, label %land.lhs.true, label %if.end

land.lhs.true:                                    ; preds = %entry
  %1 = load i64, ptr %n.addr, align 8, !tbaa !62
  %call = call noundef i64 @_ZNK2xt7svectorImLm4ESaImELb1EE8capacityEv(ptr noundef nonnull align 8 dereferenceable(64) %this1)
  %cmp2 = icmp ugt i64 %1, %call
  br i1 %cmp2, label %if.then, label %if.end

if.then:                                          ; preds = %land.lhs.true
  %2 = load i64, ptr %n.addr, align 8, !tbaa !62
  call void @_ZN2xt7svectorImLm4ESaImELb1EE4growEm(ptr noundef nonnull align 8 dereferenceable(64) %this1, i64 noundef %2)
  br label %if.end

if.end:                                           ; preds = %if.then, %land.lhs.true, %entry
  %m_begin = getelementptr inbounds nuw %"class.xt::svector", ptr %this1, i32 0, i32 1
  %3 = load ptr, ptr %m_begin, align 8, !tbaa !190
  %4 = load i64, ptr %n.addr, align 8, !tbaa !62
  %add.ptr = getelementptr inbounds nuw i64, ptr %3, i64 %4
  %m_end = getelementptr inbounds nuw %"class.xt::svector", ptr %this1, i32 0, i32 2
  store ptr %add.ptr, ptr %m_end, align 8, !tbaa !264
  %call3 = call noundef ptr @_ZN2xt7svectorImLm4ESaImELb1EE5beginEv(ptr noundef nonnull align 8 dereferenceable(64) %this1)
  %call4 = call noundef ptr @_ZN2xt7svectorImLm4ESaImELb1EE3endEv(ptr noundef nonnull align 8 dereferenceable(64) %this1)
  %5 = load ptr, ptr %v.addr, align 8, !tbaa !18
  call void @_ZSt4fillIPmmEvT_S1_RKT0_(ptr noundef %call3, ptr noundef %call4, ptr noundef nonnull align 8 dereferenceable(8) %5)
  ret void
}

; Function Attrs: inlinehint mustprogress nounwind uwtable
define linkonce_odr noundef i64 @_ZNK2xt7svectorImLm4ESaImELb1EE8capacityEv(ptr noundef nonnull align 8 dereferenceable(64) %this) #2 comdat align 2 {
entry:
  %this.addr = alloca ptr, align 8
  store ptr %this, ptr %this.addr, align 8, !tbaa !188
  %this1 = load ptr, ptr %this.addr, align 8
  %m_capacity = getelementptr inbounds nuw %"class.xt::svector", ptr %this1, i32 0, i32 3
  %0 = load ptr, ptr %m_capacity, align 8, !tbaa !259
  %m_begin = getelementptr inbounds nuw %"class.xt::svector", ptr %this1, i32 0, i32 1
  %1 = load ptr, ptr %m_begin, align 8, !tbaa !190
  %sub.ptr.lhs.cast = ptrtoint ptr %0 to i64
  %sub.ptr.rhs.cast = ptrtoint ptr %1 to i64
  %sub.ptr.sub = sub i64 %sub.ptr.lhs.cast, %sub.ptr.rhs.cast
  %sub.ptr.div = sdiv exact i64 %sub.ptr.sub, 8
  ret i64 %sub.ptr.div
}

; Function Attrs: inlinehint mustprogress uwtable
define linkonce_odr void @_ZN2xt7svectorImLm4ESaImELb1EE4growEm(ptr noundef nonnull align 8 dereferenceable(64) %this, i64 noundef %min_capacity) #10 comdat align 2 {
entry:
  %this.addr = alloca ptr, align 8
  %min_capacity.addr = alloca i64, align 8
  %current_size = alloca i64, align 8
  %new_capacity = alloca i64, align 8
  %new_alloc = alloca ptr, align 8
  store ptr %this, ptr %this.addr, align 8, !tbaa !188
  store i64 %min_capacity, ptr %min_capacity.addr, align 8, !tbaa !62
  %this1 = load ptr, ptr %this.addr, align 8
  call void @llvm.lifetime.start.p0(i64 8, ptr %current_size) #6
  %call = call noundef i64 @_ZNK2xt7svectorImLm4ESaImELb1EE4sizeEv(ptr noundef nonnull align 8 dereferenceable(64) %this1)
  store i64 %call, ptr %current_size, align 8, !tbaa !62
  call void @llvm.lifetime.start.p0(i64 8, ptr %new_capacity) #6
  %0 = load i64, ptr %current_size, align 8, !tbaa !62
  %mul = mul i64 2, %0
  %add = add i64 %mul, 1
  store i64 %add, ptr %new_capacity, align 8, !tbaa !62
  %1 = load i64, ptr %new_capacity, align 8, !tbaa !62
  %2 = load i64, ptr %min_capacity.addr, align 8, !tbaa !62
  %cmp = icmp ult i64 %1, %2
  br i1 %cmp, label %if.then, label %if.end

if.then:                                          ; preds = %entry
  %3 = load i64, ptr %min_capacity.addr, align 8, !tbaa !62
  store i64 %3, ptr %new_capacity, align 8, !tbaa !62
  br label %if.end

if.end:                                           ; preds = %if.then, %entry
  call void @llvm.lifetime.start.p0(i64 8, ptr %new_alloc) #6
  %m_begin = getelementptr inbounds nuw %"class.xt::svector", ptr %this1, i32 0, i32 1
  %4 = load ptr, ptr %m_begin, align 8, !tbaa !190
  %m_data = getelementptr inbounds nuw %"class.xt::svector", ptr %this1, i32 0, i32 4
  %arrayidx = getelementptr inbounds [4 x i64], ptr %m_data, i64 0, i64 0
  %cmp2 = icmp eq ptr %4, %arrayidx
  br i1 %cmp2, label %if.then3, label %if.else

if.then3:                                         ; preds = %if.end
  %5 = load i64, ptr %new_capacity, align 8, !tbaa !62
  %call4 = call noundef ptr @_ZNSt15__new_allocatorImE8allocateEmPKv(ptr noundef nonnull align 1 dereferenceable(1) %this1, i64 noundef %5, ptr noundef null)
  store ptr %call4, ptr %new_alloc, align 8, !tbaa !18
  %m_begin5 = getelementptr inbounds nuw %"class.xt::svector", ptr %this1, i32 0, i32 1
  %6 = load ptr, ptr %m_begin5, align 8, !tbaa !190
  %m_end = getelementptr inbounds nuw %"class.xt::svector", ptr %this1, i32 0, i32 2
  %7 = load ptr, ptr %m_end, align 8, !tbaa !264
  %8 = load ptr, ptr %new_alloc, align 8, !tbaa !18
  %call6 = call noundef ptr @_ZSt18uninitialized_copyIPmS0_ET0_T_S2_S1_(ptr noundef %6, ptr noundef %7, ptr noundef %8)
  br label %if.end13

if.else:                                          ; preds = %if.end
  %9 = load i64, ptr %new_capacity, align 8, !tbaa !62
  %call7 = call noundef ptr @_ZNSt15__new_allocatorImE8allocateEmPKv(ptr noundef nonnull align 1 dereferenceable(1) %this1, i64 noundef %9, ptr noundef null)
  store ptr %call7, ptr %new_alloc, align 8, !tbaa !18
  %m_begin8 = getelementptr inbounds nuw %"class.xt::svector", ptr %this1, i32 0, i32 1
  %10 = load ptr, ptr %m_begin8, align 8, !tbaa !190
  %m_end9 = getelementptr inbounds nuw %"class.xt::svector", ptr %this1, i32 0, i32 2
  %11 = load ptr, ptr %m_end9, align 8, !tbaa !264
  %12 = load ptr, ptr %new_alloc, align 8, !tbaa !18
  %call10 = call noundef ptr @_ZSt18uninitialized_copyIPmS0_ET0_T_S2_S1_(ptr noundef %10, ptr noundef %11, ptr noundef %12)
  %m_begin11 = getelementptr inbounds nuw %"class.xt::svector", ptr %this1, i32 0, i32 1
  %13 = load ptr, ptr %m_begin11, align 8, !tbaa !190
  %m_capacity = getelementptr inbounds nuw %"class.xt::svector", ptr %this1, i32 0, i32 3
  %14 = load ptr, ptr %m_capacity, align 8, !tbaa !259
  %m_begin12 = getelementptr inbounds nuw %"class.xt::svector", ptr %this1, i32 0, i32 1
  %15 = load ptr, ptr %m_begin12, align 8, !tbaa !190
  %sub.ptr.lhs.cast = ptrtoint ptr %14 to i64
  %sub.ptr.rhs.cast = ptrtoint ptr %15 to i64
  %sub.ptr.sub = sub i64 %sub.ptr.lhs.cast, %sub.ptr.rhs.cast
  %sub.ptr.div = sdiv exact i64 %sub.ptr.sub, 8
  call void @_ZNSt15__new_allocatorImE10deallocateEPmm(ptr noundef nonnull align 1 dereferenceable(1) %this1, ptr noundef %13, i64 noundef %sub.ptr.div)
  br label %if.end13

if.end13:                                         ; preds = %if.else, %if.then3
  %16 = load ptr, ptr %new_alloc, align 8, !tbaa !18
  %17 = load i64, ptr %current_size, align 8, !tbaa !62
  %add.ptr = getelementptr inbounds nuw i64, ptr %16, i64 %17
  %m_end14 = getelementptr inbounds nuw %"class.xt::svector", ptr %this1, i32 0, i32 2
  store ptr %add.ptr, ptr %m_end14, align 8, !tbaa !264
  %18 = load ptr, ptr %new_alloc, align 8, !tbaa !18
  %m_begin15 = getelementptr inbounds nuw %"class.xt::svector", ptr %this1, i32 0, i32 1
  store ptr %18, ptr %m_begin15, align 8, !tbaa !190
  %19 = load ptr, ptr %new_alloc, align 8, !tbaa !18
  %20 = load i64, ptr %new_capacity, align 8, !tbaa !62
  %add.ptr16 = getelementptr inbounds nuw i64, ptr %19, i64 %20
  %m_capacity17 = getelementptr inbounds nuw %"class.xt::svector", ptr %this1, i32 0, i32 3
  store ptr %add.ptr16, ptr %m_capacity17, align 8, !tbaa !259
  call void @llvm.lifetime.end.p0(i64 8, ptr %new_alloc) #6
  call void @llvm.lifetime.end.p0(i64 8, ptr %new_capacity) #6
  call void @llvm.lifetime.end.p0(i64 8, ptr %current_size) #6
  ret void
}

; Function Attrs: inlinehint mustprogress uwtable
define linkonce_odr void @_ZSt4fillIPmmEvT_S1_RKT0_(ptr noundef %__first, ptr noundef %__last, ptr noundef nonnull align 8 dereferenceable(8) %__value) #10 comdat {
entry:
  %__first.addr = alloca ptr, align 8
  %__last.addr = alloca ptr, align 8
  %__value.addr = alloca ptr, align 8
  store ptr %__first, ptr %__first.addr, align 8, !tbaa !18
  store ptr %__last, ptr %__last.addr, align 8, !tbaa !18
  store ptr %__value, ptr %__value.addr, align 8, !tbaa !18
  %0 = load ptr, ptr %__first.addr, align 8, !tbaa !18
  %1 = load ptr, ptr %__last.addr, align 8, !tbaa !18
  %2 = load ptr, ptr %__value.addr, align 8, !tbaa !18
  call void @_ZSt8__fill_aIPmmEvT_S1_RKT0_(ptr noundef %0, ptr noundef %1, ptr noundef nonnull align 8 dereferenceable(8) %2)
  ret void
}

; Function Attrs: inlinehint mustprogress nounwind uwtable
define linkonce_odr noundef ptr @_ZN2xt7svectorImLm4ESaImELb1EE5beginEv(ptr noundef nonnull align 8 dereferenceable(64) %this) #2 comdat align 2 {
entry:
  %this.addr = alloca ptr, align 8
  store ptr %this, ptr %this.addr, align 8, !tbaa !188
  %this1 = load ptr, ptr %this.addr, align 8
  %m_begin = getelementptr inbounds nuw %"class.xt::svector", ptr %this1, i32 0, i32 1
  %0 = load ptr, ptr %m_begin, align 8, !tbaa !190
  ret ptr %0
}

; Function Attrs: inlinehint mustprogress nounwind uwtable
define linkonce_odr noundef ptr @_ZN2xt7svectorImLm4ESaImELb1EE3endEv(ptr noundef nonnull align 8 dereferenceable(64) %this) #2 comdat align 2 {
entry:
  %this.addr = alloca ptr, align 8
  store ptr %this, ptr %this.addr, align 8, !tbaa !188
  %this1 = load ptr, ptr %this.addr, align 8
  %m_end = getelementptr inbounds nuw %"class.xt::svector", ptr %this1, i32 0, i32 2
  %0 = load ptr, ptr %m_end, align 8, !tbaa !264
  ret ptr %0
}

; Function Attrs: inlinehint mustprogress nounwind uwtable
define linkonce_odr noundef i64 @_ZNK2xt7svectorImLm4ESaImELb1EE4sizeEv(ptr noundef nonnull align 8 dereferenceable(64) %this) #2 comdat align 2 {
entry:
  %this.addr = alloca ptr, align 8
  store ptr %this, ptr %this.addr, align 8, !tbaa !188
  %this1 = load ptr, ptr %this.addr, align 8
  %m_end = getelementptr inbounds nuw %"class.xt::svector", ptr %this1, i32 0, i32 2
  %0 = load ptr, ptr %m_end, align 8, !tbaa !264
  %m_begin = getelementptr inbounds nuw %"class.xt::svector", ptr %this1, i32 0, i32 1
  %1 = load ptr, ptr %m_begin, align 8, !tbaa !190
  %sub.ptr.lhs.cast = ptrtoint ptr %0 to i64
  %sub.ptr.rhs.cast = ptrtoint ptr %1 to i64
  %sub.ptr.sub = sub i64 %sub.ptr.lhs.cast, %sub.ptr.rhs.cast
  %sub.ptr.div = sdiv exact i64 %sub.ptr.sub, 8
  ret i64 %sub.ptr.div
}

; Function Attrs: mustprogress uwtable
define linkonce_odr noundef ptr @_ZNSt15__new_allocatorImE8allocateEmPKv(ptr noundef nonnull align 1 dereferenceable(1) %this, i64 noundef %__n, ptr noundef %0) #1 comdat align 2 {
entry:
  %this.addr = alloca ptr, align 8
  %__n.addr = alloca i64, align 8
  %.addr = alloca ptr, align 8
  store ptr %this, ptr %this.addr, align 8, !tbaa !265
  store i64 %__n, ptr %__n.addr, align 8, !tbaa !62
  store ptr %0, ptr %.addr, align 8, !tbaa !90
  %this1 = load ptr, ptr %this.addr, align 8
  %1 = load i64, ptr %__n.addr, align 8, !tbaa !62
  %call = call noundef i64 @_ZNKSt15__new_allocatorImE11_M_max_sizeEv(ptr noundef nonnull align 1 dereferenceable(1) %this1) #6
  %cmp = icmp ugt i64 %1, %call
  %conv = zext i1 %cmp to i64
  %expval = call i64 @llvm.expect.i64(i64 %conv, i64 0)
  %tobool = icmp ne i64 %expval, 0
  br i1 %tobool, label %if.then, label %if.end4

if.then:                                          ; preds = %entry
  %2 = load i64, ptr %__n.addr, align 8, !tbaa !62
  %cmp2 = icmp ugt i64 %2, 2305843009213693951
  br i1 %cmp2, label %if.then3, label %if.end

if.then3:                                         ; preds = %if.then
  call void @_ZSt28__throw_bad_array_new_lengthv() #23
  unreachable

if.end:                                           ; preds = %if.then
  call void @_ZSt17__throw_bad_allocv() #23
  unreachable

if.end4:                                          ; preds = %entry
  %3 = load i64, ptr %__n.addr, align 8, !tbaa !62
  %mul = mul i64 %3, 8
  %call5 = call noalias noundef nonnull ptr @_Znwm(i64 noundef %mul) #25
  ret ptr %call5
}

; Function Attrs: inlinehint mustprogress uwtable
define linkonce_odr noundef ptr @_ZSt18uninitialized_copyIPmS0_ET0_T_S2_S1_(ptr noundef %__first, ptr noundef %__last, ptr noundef %__result) #10 comdat {
entry:
  %__first.addr = alloca ptr, align 8
  %__last.addr = alloca ptr, align 8
  %__result.addr = alloca ptr, align 8
  %__can_memmove = alloca i8, align 1
  %__assignable = alloca i8, align 1
  store ptr %__first, ptr %__first.addr, align 8, !tbaa !18
  store ptr %__last, ptr %__last.addr, align 8, !tbaa !18
  store ptr %__result, ptr %__result.addr, align 8, !tbaa !18
  call void @llvm.lifetime.start.p0(i64 1, ptr %__can_memmove) #6
  store i8 1, ptr %__can_memmove, align 1, !tbaa !60
  call void @llvm.lifetime.start.p0(i64 1, ptr %__assignable) #6
  store i8 1, ptr %__assignable, align 1, !tbaa !60
  %0 = load ptr, ptr %__first.addr, align 8, !tbaa !18
  %1 = load ptr, ptr %__last.addr, align 8, !tbaa !18
  %2 = load ptr, ptr %__result.addr, align 8, !tbaa !18
  %call = call noundef ptr @_ZNSt20__uninitialized_copyILb1EE13__uninit_copyIPmS2_EET0_T_S4_S3_(ptr noundef %0, ptr noundef %1, ptr noundef %2)
  call void @llvm.lifetime.end.p0(i64 1, ptr %__assignable) #6
  call void @llvm.lifetime.end.p0(i64 1, ptr %__can_memmove) #6
  ret ptr %call
}

; Function Attrs: mustprogress nounwind uwtable
define linkonce_odr void @_ZNSt15__new_allocatorImE10deallocateEPmm(ptr noundef nonnull align 1 dereferenceable(1) %this, ptr noundef %__p, i64 noundef %__n) #0 comdat align 2 {
entry:
  %this.addr = alloca ptr, align 8
  %__p.addr = alloca ptr, align 8
  %__n.addr = alloca i64, align 8
  store ptr %this, ptr %this.addr, align 8, !tbaa !265
  store ptr %__p, ptr %__p.addr, align 8, !tbaa !18
  store i64 %__n, ptr %__n.addr, align 8, !tbaa !62
  %this1 = load ptr, ptr %this.addr, align 8
  %0 = load ptr, ptr %__p.addr, align 8, !tbaa !18
  %1 = load i64, ptr %__n.addr, align 8, !tbaa !62
  %mul = mul i64 %1, 8
  call void @_ZdlPvm(ptr noundef %0, i64 noundef %mul) #22
  ret void
}

; Function Attrs: mustprogress nounwind uwtable
define linkonce_odr noundef i64 @_ZNKSt15__new_allocatorImE11_M_max_sizeEv(ptr noundef nonnull align 1 dereferenceable(1) %this) #0 comdat align 2 {
entry:
  %this.addr = alloca ptr, align 8
  store ptr %this, ptr %this.addr, align 8, !tbaa !265
  %this1 = load ptr, ptr %this.addr, align 8
  ret i64 1152921504606846975
}

; Function Attrs: nocallback nofree nosync nounwind willreturn memory(none)
declare i64 @llvm.expect.i64(i64, i64) #12

; Function Attrs: noreturn
declare void @_ZSt28__throw_bad_array_new_lengthv() #13

; Function Attrs: noreturn
declare void @_ZSt17__throw_bad_allocv() #13

; Function Attrs: nobuiltin allocsize(0)
declare noundef nonnull ptr @_Znwm(i64 noundef) #14

; Function Attrs: mustprogress uwtable
define linkonce_odr noundef ptr @_ZNSt20__uninitialized_copyILb1EE13__uninit_copyIPmS2_EET0_T_S4_S3_(ptr noundef %__first, ptr noundef %__last, ptr noundef %__result) #1 comdat align 2 {
entry:
  %__first.addr = alloca ptr, align 8
  %__last.addr = alloca ptr, align 8
  %__result.addr = alloca ptr, align 8
  store ptr %__first, ptr %__first.addr, align 8, !tbaa !18
  store ptr %__last, ptr %__last.addr, align 8, !tbaa !18
  store ptr %__result, ptr %__result.addr, align 8, !tbaa !18
  %0 = load ptr, ptr %__first.addr, align 8, !tbaa !18
  %1 = load ptr, ptr %__last.addr, align 8, !tbaa !18
  %2 = load ptr, ptr %__result.addr, align 8, !tbaa !18
  %call = call noundef ptr @_ZSt4copyIPmS0_ET0_T_S2_S1_(ptr noundef %0, ptr noundef %1, ptr noundef %2)
  ret ptr %call
}

; Function Attrs: inlinehint mustprogress uwtable
define linkonce_odr noundef ptr @_ZSt4copyIPmS0_ET0_T_S2_S1_(ptr noundef %__first, ptr noundef %__last, ptr noundef %__result) #10 comdat {
entry:
  %__first.addr = alloca ptr, align 8
  %__last.addr = alloca ptr, align 8
  %__result.addr = alloca ptr, align 8
  store ptr %__first, ptr %__first.addr, align 8, !tbaa !18
  store ptr %__last, ptr %__last.addr, align 8, !tbaa !18
  store ptr %__result, ptr %__result.addr, align 8, !tbaa !18
  %0 = load ptr, ptr %__first.addr, align 8, !tbaa !18
  %call = call noundef ptr @_ZSt12__miter_baseIPmET_S1_(ptr noundef %0)
  %1 = load ptr, ptr %__last.addr, align 8, !tbaa !18
  %call1 = call noundef ptr @_ZSt12__miter_baseIPmET_S1_(ptr noundef %1)
  %2 = load ptr, ptr %__result.addr, align 8, !tbaa !18
  %call2 = call noundef ptr @_ZSt13__copy_move_aILb0EPmS0_ET1_T0_S2_S1_(ptr noundef %call, ptr noundef %call1, ptr noundef %2)
  ret ptr %call2
}

; Function Attrs: inlinehint mustprogress uwtable
define linkonce_odr noundef ptr @_ZSt13__copy_move_aILb0EPmS0_ET1_T0_S2_S1_(ptr noundef %__first, ptr noundef %__last, ptr noundef %__result) #10 comdat {
entry:
  %__first.addr = alloca ptr, align 8
  %__last.addr = alloca ptr, align 8
  %__result.addr = alloca ptr, align 8
  store ptr %__first, ptr %__first.addr, align 8, !tbaa !18
  store ptr %__last, ptr %__last.addr, align 8, !tbaa !18
  store ptr %__result, ptr %__result.addr, align 8, !tbaa !18
  %0 = load ptr, ptr %__first.addr, align 8, !tbaa !18
  %call = call noundef ptr @_ZSt12__niter_baseIPmET_S1_(ptr noundef %0) #6
  %1 = load ptr, ptr %__last.addr, align 8, !tbaa !18
  %call1 = call noundef ptr @_ZSt12__niter_baseIPmET_S1_(ptr noundef %1) #6
  %2 = load ptr, ptr %__result.addr, align 8, !tbaa !18
  %call2 = call noundef ptr @_ZSt12__niter_baseIPmET_S1_(ptr noundef %2) #6
  %call3 = call noundef ptr @_ZSt14__copy_move_a1ILb0EPmS0_ET1_T0_S2_S1_(ptr noundef %call, ptr noundef %call1, ptr noundef %call2)
  %call4 = call noundef ptr @_ZSt12__niter_wrapIPmET_RKS1_S1_(ptr noundef nonnull align 8 dereferenceable(8) %__result.addr, ptr noundef %call3)
  ret ptr %call4
}

; Function Attrs: inlinehint mustprogress nounwind uwtable
define linkonce_odr noundef ptr @_ZSt12__miter_baseIPmET_S1_(ptr noundef %__it) #2 comdat {
entry:
  %__it.addr = alloca ptr, align 8
  store ptr %__it, ptr %__it.addr, align 8, !tbaa !18
  %0 = load ptr, ptr %__it.addr, align 8, !tbaa !18
  ret ptr %0
}

; Function Attrs: inlinehint mustprogress nounwind uwtable
define linkonce_odr noundef ptr @_ZSt12__niter_wrapIPmET_RKS1_S1_(ptr noundef nonnull align 8 dereferenceable(8) %0, ptr noundef %__res) #2 comdat {
entry:
  %.addr = alloca ptr, align 8
  %__res.addr = alloca ptr, align 8
  store ptr %0, ptr %.addr, align 8, !tbaa !272
  store ptr %__res, ptr %__res.addr, align 8, !tbaa !18
  %1 = load ptr, ptr %__res.addr, align 8, !tbaa !18
  ret ptr %1
}

; Function Attrs: inlinehint mustprogress uwtable
define linkonce_odr noundef ptr @_ZSt14__copy_move_a1ILb0EPmS0_ET1_T0_S2_S1_(ptr noundef %__first, ptr noundef %__last, ptr noundef %__result) #10 comdat {
entry:
  %__first.addr = alloca ptr, align 8
  %__last.addr = alloca ptr, align 8
  %__result.addr = alloca ptr, align 8
  store ptr %__first, ptr %__first.addr, align 8, !tbaa !18
  store ptr %__last, ptr %__last.addr, align 8, !tbaa !18
  store ptr %__result, ptr %__result.addr, align 8, !tbaa !18
  %0 = load ptr, ptr %__first.addr, align 8, !tbaa !18
  %1 = load ptr, ptr %__last.addr, align 8, !tbaa !18
  %2 = load ptr, ptr %__result.addr, align 8, !tbaa !18
  %call = call noundef ptr @_ZSt14__copy_move_a2ILb0EPmS0_ET1_T0_S2_S1_(ptr noundef %0, ptr noundef %1, ptr noundef %2)
  ret ptr %call
}

; Function Attrs: inlinehint mustprogress nounwind uwtable
define linkonce_odr noundef ptr @_ZSt12__niter_baseIPmET_S1_(ptr noundef %__it) #2 comdat {
entry:
  %__it.addr = alloca ptr, align 8
  store ptr %__it, ptr %__it.addr, align 8, !tbaa !18
  %0 = load ptr, ptr %__it.addr, align 8, !tbaa !18
  ret ptr %0
}

; Function Attrs: inlinehint mustprogress uwtable
define linkonce_odr noundef ptr @_ZSt14__copy_move_a2ILb0EPmS0_ET1_T0_S2_S1_(ptr noundef %__first, ptr noundef %__last, ptr noundef %__result) #10 comdat {
entry:
  %__first.addr = alloca ptr, align 8
  %__last.addr = alloca ptr, align 8
  %__result.addr = alloca ptr, align 8
  store ptr %__first, ptr %__first.addr, align 8, !tbaa !18
  store ptr %__last, ptr %__last.addr, align 8, !tbaa !18
  store ptr %__result, ptr %__result.addr, align 8, !tbaa !18
  %0 = load ptr, ptr %__first.addr, align 8, !tbaa !18
  %1 = load ptr, ptr %__last.addr, align 8, !tbaa !18
  %2 = load ptr, ptr %__result.addr, align 8, !tbaa !18
  %call = call noundef ptr @_ZNSt11__copy_moveILb0ELb1ESt26random_access_iterator_tagE8__copy_mImEEPT_PKS3_S6_S4_(ptr noundef %0, ptr noundef %1, ptr noundef %2)
  ret ptr %call
}

; Function Attrs: mustprogress nounwind uwtable
define linkonce_odr noundef ptr @_ZNSt11__copy_moveILb0ELb1ESt26random_access_iterator_tagE8__copy_mImEEPT_PKS3_S6_S4_(ptr noundef %__first, ptr noundef %__last, ptr noundef %__result) #0 comdat align 2 {
entry:
  %__first.addr = alloca ptr, align 8
  %__last.addr = alloca ptr, align 8
  %__result.addr = alloca ptr, align 8
  %_Num = alloca i64, align 8
  store ptr %__first, ptr %__first.addr, align 8, !tbaa !18
  store ptr %__last, ptr %__last.addr, align 8, !tbaa !18
  store ptr %__result, ptr %__result.addr, align 8, !tbaa !18
  call void @llvm.lifetime.start.p0(i64 8, ptr %_Num) #6
  %0 = load ptr, ptr %__last.addr, align 8, !tbaa !18
  %1 = load ptr, ptr %__first.addr, align 8, !tbaa !18
  %sub.ptr.lhs.cast = ptrtoint ptr %0 to i64
  %sub.ptr.rhs.cast = ptrtoint ptr %1 to i64
  %sub.ptr.sub = sub i64 %sub.ptr.lhs.cast, %sub.ptr.rhs.cast
  %sub.ptr.div = sdiv exact i64 %sub.ptr.sub, 8
  store i64 %sub.ptr.div, ptr %_Num, align 8, !tbaa !62
  %2 = load i64, ptr %_Num, align 8, !tbaa !62
  %tobool = icmp ne i64 %2, 0
  br i1 %tobool, label %if.then, label %if.end

if.then:                                          ; preds = %entry
  %3 = load ptr, ptr %__result.addr, align 8, !tbaa !18
  %4 = load ptr, ptr %__first.addr, align 8, !tbaa !18
  %5 = load i64, ptr %_Num, align 8, !tbaa !62
  %mul = mul i64 8, %5
  call void @llvm.memmove.p0.p0.i64(ptr align 8 %3, ptr align 8 %4, i64 %mul, i1 false)
  br label %if.end

if.end:                                           ; preds = %if.then, %entry
  %6 = load ptr, ptr %__result.addr, align 8, !tbaa !18
  %7 = load i64, ptr %_Num, align 8, !tbaa !62
  %add.ptr = getelementptr inbounds i64, ptr %6, i64 %7
  call void @llvm.lifetime.end.p0(i64 8, ptr %_Num) #6
  ret ptr %add.ptr
}

; Function Attrs: nocallback nofree nounwind willreturn memory(argmem: readwrite)
declare void @llvm.memmove.p0.p0.i64(ptr writeonly captures(none), ptr readonly captures(none), i64, i1 immarg) #15

; Function Attrs: nobuiltin nounwind
