; ModuleID = 'endf-host-x86_64-unknown-linux-gnu.bc'
source_filename = "/g/g0/wright117/workspace/openmc/openmc-omp/openmc/src/endf.cpp"
target datalayout = "e-m:e-p270:32:32-p271:32:32-p272:64:64-i64:64-i128:128-f80:128-n8:16:32:64-S128"
target triple = "x86_64-unknown-linux-gnu"

%"struct.std::array" = type { [6 x i32] }
%"class.std::ios_base::Init" = type { i8 }
%"class.std::reverse_iterator" = type { %"class.__gnu_cxx::__normal_iterator" }
%"class.__gnu_cxx::__normal_iterator" = type { ptr }
%"class.openmc::Polynomial" = type { %"class.openmc::Function1D", %"class.std::vector.43" }
%"class.openmc::Function1D" = type { ptr }
%"class.std::vector.43" = type { %"struct.std::_Vector_base.44" }
%"struct.std::_Vector_base.44" = type { %"struct.std::_Vector_base<double, std::allocator<double>>::_Vector_impl" }
%"struct.std::_Vector_base<double, std::allocator<double>>::_Vector_impl" = type { %"struct.std::_Vector_base<double, std::allocator<double>>::_Vector_impl_data" }
%"struct.std::_Vector_base<double, std::allocator<double>>::_Vector_impl_data" = type { ptr, ptr, ptr }
%"class.openmc::Tabulated1D" = type { %"class.openmc::Function1D", i64, %"class.std::vector", %"class.std::vector.38", i64, %"class.std::vector.43", %"class.std::vector.43" }
%"class.std::vector" = type { %"struct.std::_Vector_base" }
%"struct.std::_Vector_base" = type { %"struct.std::_Vector_base<int, std::allocator<int>>::_Vector_impl" }
%"struct.std::_Vector_base<int, std::allocator<int>>::_Vector_impl" = type { %"struct.std::_Vector_base<int, std::allocator<int>>::_Vector_impl_data" }
%"struct.std::_Vector_base<int, std::allocator<int>>::_Vector_impl_data" = type { ptr, ptr, ptr }
%"class.std::vector.38" = type { %"struct.std::_Vector_base.39" }
%"struct.std::_Vector_base.39" = type { %"struct.std::_Vector_base<openmc::Interpolation, std::allocator<openmc::Interpolation>>::_Vector_impl" }
%"struct.std::_Vector_base<openmc::Interpolation, std::allocator<openmc::Interpolation>>::_Vector_impl" = type { %"struct.std::_Vector_base<openmc::Interpolation, std::allocator<openmc::Interpolation>>::_Vector_impl_data" }
%"struct.std::_Vector_base<openmc::Interpolation, std::allocator<openmc::Interpolation>>::_Vector_impl_data" = type { ptr, ptr, ptr }
%"class.__gnu_cxx::__normal_iterator.94" = type { ptr }
%"class.openmc::CoherentElasticXS" = type { %"class.openmc::Function1D", %"class.std::vector.43", %"class.std::vector.43" }
%"class.openmc::IncoherentElasticXS" = type { %"class.openmc::Function1D", double, double }
%"class.std::unique_ptr" = type { %"struct.std::__uniq_ptr_data" }
%"struct.std::__uniq_ptr_data" = type { %"class.std::__uniq_ptr_impl" }
%"class.std::__uniq_ptr_impl" = type { %"class.std::tuple" }
%"class.std::tuple" = type { %"struct.std::_Tuple_impl" }
%"struct.std::_Tuple_impl" = type { %"struct.std::_Head_base.1" }
%"struct.std::_Head_base.1" = type { ptr }
%"class.std::__cxx11::basic_string" = type { %"struct.std::__cxx11::basic_string<char>::_Alloc_hider", i64, %union.anon.2 }
%"struct.std::__cxx11::basic_string<char>::_Alloc_hider" = type { ptr }
%union.anon.2 = type { i64, [8 x i8] }
%"class.std::unique_ptr.3" = type { %"struct.std::__uniq_ptr_data.4" }
%"struct.std::__uniq_ptr_data.4" = type { %"class.std::__uniq_ptr_impl.5" }
%"class.std::__uniq_ptr_impl.5" = type { %"class.std::tuple.6" }
%"class.std::tuple.6" = type { %"struct.std::_Tuple_impl.7" }
%"struct.std::_Tuple_impl.7" = type { %"struct.std::_Head_base.10" }
%"struct.std::_Head_base.10" = type { ptr }
%"class.std::unique_ptr.11" = type { %"struct.std::__uniq_ptr_data.12" }
%"struct.std::__uniq_ptr_data.12" = type { %"class.std::__uniq_ptr_impl.13" }
%"class.std::__uniq_ptr_impl.13" = type { %"class.std::tuple.14" }
%"class.std::tuple.14" = type { %"struct.std::_Tuple_impl.15" }
%"struct.std::_Tuple_impl.15" = type { %"struct.std::_Head_base.18" }
%"struct.std::_Head_base.18" = type { ptr }
%"class.std::unique_ptr.19" = type { %"struct.std::__uniq_ptr_data.20" }
%"struct.std::__uniq_ptr_data.20" = type { %"class.std::__uniq_ptr_impl.21" }
%"class.std::__uniq_ptr_impl.21" = type { %"class.std::tuple.22" }
%"class.std::tuple.22" = type { %"struct.std::_Tuple_impl.23" }
%"struct.std::_Tuple_impl.23" = type { %"struct.std::_Head_base.26" }
%"struct.std::_Head_base.26" = type { ptr }
%"class.std::unique_ptr.27" = type { %"struct.std::__uniq_ptr_data.28" }
%"struct.std::__uniq_ptr_data.28" = type { %"class.std::__uniq_ptr_impl.29" }
%"class.std::__uniq_ptr_impl.29" = type { %"class.std::tuple.30" }
%"class.std::tuple.30" = type { %"struct.std::_Tuple_impl.31" }
%"struct.std::_Tuple_impl.31" = type { %"struct.std::_Head_base.34" }
%"struct.std::_Head_base.34" = type { ptr }
%"class.std::allocator" = type { i8 }
%"struct.std::default_delete" = type { i8 }
%"struct.std::forward_iterator_tag" = type { i8 }
%struct._Guard = type { ptr }
%"struct.std::random_access_iterator_tag" = type { i8 }
%"class.std::vector.56" = type { %"struct.std::_Vector_base.57" }
%"struct.std::_Vector_base.57" = type { %"struct.std::_Vector_base<unsigned long, std::allocator<unsigned long>>::_Vector_impl" }
%"struct.std::_Vector_base<unsigned long, std::allocator<unsigned long>>::_Vector_impl" = type { %"struct.std::_Vector_base<unsigned long, std::allocator<unsigned long>>::_Vector_impl_data" }
%"struct.std::_Vector_base<unsigned long, std::allocator<unsigned long>>::_Vector_impl_data" = type { ptr, ptr, ptr }
%"class.openmc::DataBuffer" = type <{ ptr, i64, i64, i32, [4 x i8] }>
%"class.gsl::span" = type { ptr, ptr }
%"class.std::reverse_iterator.61" = type { ptr }
%"class.openmc::PolynomialFlat" = type { ptr }
%"class.__gnu_cxx::__normal_iterator.62" = type { ptr }
%"class.xt::xarray_container" = type { %"class.xt::xstrided_container.base", %"class.xt::xcontainer_semantic", %"class.xt::uvector" }
%"class.xt::xstrided_container.base" = type <{ %"class.xt::svector", %"class.xt::svector.63", %"class.xt::svector.63", i32 }>
%"class.xt::svector" = type { [8 x i8], ptr, ptr, ptr, [4 x i64] }
%"class.xt::svector.63" = type { [8 x i8], ptr, ptr, ptr, [4 x i64] }
%"class.xt::xcontainer_semantic" = type { %"class.xt::xsemantic_base" }
%"class.xt::xsemantic_base" = type { %"class.xt::xsharable_expression" }
%"class.xt::xsharable_expression" = type { %"class.std::shared_ptr" }
%"class.std::shared_ptr" = type { %"class.std::__shared_ptr" }
%"class.std::__shared_ptr" = type { ptr, %"class.std::__shared_count" }
%"class.std::__shared_count" = type { ptr }
%"class.xt::uvector" = type { [8 x i8], ptr, ptr }
%"class.xt::xview" = type <{ %"class.xt::xview_semantic", ptr, %"class.std::tuple.75", [4 x i8], %"class.xt::sequence_view", %"class.xt::sequence_view.78", %"class.xt::sequence_view.78", i64, i8, [7 x i8] }>
%"class.xt::xview_semantic" = type { %"class.xt::xsemantic_base.64" }
%"class.xt::xsemantic_base.64" = type { %"class.xt::xsharable_expression.65" }
%"class.xt::xsharable_expression.65" = type { %"class.std::shared_ptr.67" }
%"class.std::shared_ptr.67" = type { %"class.std::__shared_ptr.68" }
%"class.std::__shared_ptr.68" = type { ptr, %"class.std::__shared_count" }
%"class.std::tuple.75" = type { %"struct.std::_Tuple_impl.76" }
%"struct.std::_Tuple_impl.76" = type { %"struct.std::_Head_base.77" }
%"struct.std::_Head_base.77" = type { i32 }
%"class.xt::sequence_view" = type { ptr }
%"class.xt::sequence_view.78" = type { ptr }
%"class.std::back_insert_iterator" = type { ptr }
%"class.__gnu_cxx::__normal_iterator.80" = type { ptr }
%"class.std::allocator.45" = type { i8 }
%"struct.std::integer_sequence" = type { i8 }
%class.anon = type { ptr }
%class.anon.88 = type { ptr }
%class.anon.89 = type { ptr }
%class.anon.90 = type { ptr }
%"class.__gnu_cxx::__normal_iterator.81" = type { ptr }
%"class.xt::xstrided_container" = type <{ %"class.xt::svector", %"class.xt::svector.63", %"class.xt::svector.63", i32, [4 x i8] }>
%"class.std::allocator.58" = type { i8 }
%"class.std::allocator.82" = type { i8 }
%"class.std::_Sp_counted_base" = type { ptr, i32, i32 }
%"class.__gnu_cxx::__normal_iterator.85" = type { ptr }
%"struct.xt::detail::slice_implementation_getter" = type { i8 }
%"struct.std::integral_constant" = type { i8 }
%"struct.xtl::is_signed" = type { i8 }
%"struct.xt::detail::is_sequence_view" = type { i8 }
%"struct.std::array.86" = type { [1 x i64] }
%"class.__gnu_cxx::__normal_iterator.87" = type { ptr }
%"struct.xtl::identity" = type { i8 }
%"struct.std::integral_constant.91" = type { i8 }
%"struct.xtl::is_signed.92" = type { i8 }
%"struct.std::multiplies" = type { i8 }
%"struct.__gnu_cxx::__ops::_Iter_less_val" = type { i8 }
%"class.openmc::Tabulated1DFlat" = type { ptr, i64, i64 }
%"class.gsl::span.95" = type { ptr, ptr }
%"class.openmc::CoherentElasticXSFlat" = type { ptr }
%"struct.std::array.96" = type { [2 x double] }
%"class.openmc::IncoherentElasticXSFlat" = type { ptr }

$_ZN6openmc10PolynomialD2Ev = comdat any

$_ZN6openmc10PolynomialD0Ev = comdat any

$_ZN6openmc11Tabulated1DD2Ev = comdat any

$_ZN6openmc11Tabulated1DD0Ev = comdat any

$_ZN6openmc17CoherentElasticXSD2Ev = comdat any

$_ZN6openmc17CoherentElasticXSD0Ev = comdat any

$_ZN6openmc10Function1DD2Ev = comdat any

$_ZN6openmc19IncoherentElasticXSD0Ev = comdat any

$_ZN6openmc14read_attributeElPKcRNSt7__cxx1112basic_stringIcSt11char_traitsIcESaIcEEE = comdat any

$_ZNSt10unique_ptrIN6openmc10Function1DESt14default_deleteIS1_EEC2IS3_vEEv = comdat any

$_ZSteqIcSt11char_traitsIcESaIcEEbRKNSt7__cxx1112basic_stringIT_T0_T1_EEPKS5_ = comdat any

$_ZSt11make_uniqueIN6openmc11Tabulated1DEJRlEENSt8__detail9_MakeUniqIT_E15__single_objectEDpOT0_ = comdat any

$_ZNSt10unique_ptrIN6openmc10Function1DESt14default_deleteIS1_EEaSINS0_11Tabulated1DES2_IS6_EEENSt9enable_ifIXsr6__and_ISt6__and_IJSt14is_convertibleINS_IT_T0_E7pointerEPS1_ESt6__not_ISt8is_arrayISB_EEEESt13is_assignableIRS3_OSC_EEE5valueERS4_E4typeEOSD_ = comdat any

$_ZNSt10unique_ptrIN6openmc11Tabulated1DESt14default_deleteIS1_EED2Ev = comdat any

$_ZSt11make_uniqueIN6openmc10PolynomialEJRlEENSt8__detail9_MakeUniqIT_E15__single_objectEDpOT0_ = comdat any

$_ZNSt10unique_ptrIN6openmc10Function1DESt14default_deleteIS1_EEaSINS0_10PolynomialES2_IS6_EEENSt9enable_ifIXsr6__and_ISt6__and_IJSt14is_convertibleINS_IT_T0_E7pointerEPS1_ESt6__not_ISt8is_arrayISB_EEEESt13is_assignableIRS3_OSC_EEE5valueERS4_E4typeEOSD_ = comdat any

$_ZNSt10unique_ptrIN6openmc10PolynomialESt14default_deleteIS1_EED2Ev = comdat any

$_ZSt11make_uniqueIN6openmc17CoherentElasticXSEJRlEENSt8__detail9_MakeUniqIT_E15__single_objectEDpOT0_ = comdat any

$_ZNSt10unique_ptrIN6openmc10Function1DESt14default_deleteIS1_EEaSINS0_17CoherentElasticXSES2_IS6_EEENSt9enable_ifIXsr6__and_ISt6__and_IJSt14is_convertibleINS_IT_T0_E7pointerEPS1_ESt6__not_ISt8is_arrayISB_EEEESt13is_assignableIRS3_OSC_EEE5valueERS4_E4typeEOSD_ = comdat any

$_ZNSt10unique_ptrIN6openmc17CoherentElasticXSESt14default_deleteIS1_EED2Ev = comdat any

$_ZSt11make_uniqueIN6openmc19IncoherentElasticXSEJRlEENSt8__detail9_MakeUniqIT_E15__single_objectEDpOT0_ = comdat any

$_ZNSt10unique_ptrIN6openmc10Function1DESt14default_deleteIS1_EEaSINS0_19IncoherentElasticXSES2_IS6_EEENSt9enable_ifIXsr6__and_ISt6__and_IJSt14is_convertibleINS_IT_T0_E7pointerEPS1_ESt6__not_ISt8is_arrayISB_EEEESt13is_assignableIRS3_OSC_EEE5valueERS4_E4typeEOSD_ = comdat any

$_ZNSt10unique_ptrIN6openmc19IncoherentElasticXSESt14default_deleteIS1_EED2Ev = comdat any

$_ZStplIcSt11char_traitsIcESaIcEENSt7__cxx1112basic_stringIT_T0_T1_EEOS8_S9_ = comdat any

$_ZStplIcSt11char_traitsIcESaIcEENSt7__cxx1112basic_stringIT_T0_T1_EEOS8_PKS5_ = comdat any

$_ZStplIcSt11char_traitsIcESaIcEENSt7__cxx1112basic_stringIT_T0_T1_EEPKS5_RKS8_ = comdat any

$_ZNSt10unique_ptrIN6openmc10Function1DESt14default_deleteIS1_EED2Ev = comdat any

$__clang_call_terminate = comdat any

$_ZNSt19__ptr_traits_ptr_toIPccLb0EE10pointer_toERc = comdat any

$_ZNSt15__new_allocatorIcEC2Ev = comdat any

$_ZNSt15__new_allocatorIcEC2ERKS0_ = comdat any

$_ZNSt11char_traitsIcE6assignERcRKc = comdat any

$_ZNSt7__cxx1112basic_stringIcSt11char_traitsIcESaIcEE12_M_constructIPKcEEvT_S8_St20forward_iterator_tag = comdat any

$_ZNSt15__new_allocatorIcED2Ev = comdat any

$_ZSt8distanceIPKcENSt15iterator_traitsIT_E15difference_typeES3_S3_ = comdat any

$_ZZNSt7__cxx1112basic_stringIcSt11char_traitsIcESaIcEE12_M_constructIPKcEEvT_S8_St20forward_iterator_tagEN6_GuardC2EPS4_ = comdat any

$_ZZNSt7__cxx1112basic_stringIcSt11char_traitsIcESaIcEE12_M_constructIPKcEEvT_S8_St20forward_iterator_tagEN6_GuardD2Ev = comdat any

$_ZSt10__distanceIPKcENSt15iterator_traitsIT_E15difference_typeES3_S3_St26random_access_iterator_tag = comdat any

$_ZSt19__iterator_categoryIPKcENSt15iterator_traitsIT_E17iterator_categoryERKS3_ = comdat any

$_ZNSt11char_traitsIcE4copyEPcPKcm = comdat any

$_ZNSt19__ptr_traits_ptr_toIPKcS0_Lb0EE10pointer_toERS0_ = comdat any

$_ZNSt16allocator_traitsISaIcEE10deallocateERS0_Pcm = comdat any

$_ZNSt15__new_allocatorIcE10deallocateEPcm = comdat any

$_ZN9__gnu_cxx14__alloc_traitsISaIcEcE15_S_always_equalEv = comdat any

$_ZStneRKSaIcES1_ = comdat any

$_ZSt15__alloc_on_moveISaIcEEvRT_S2_ = comdat any

$_ZNSt15__uniq_ptr_dataIN6openmc10Function1DESt14default_deleteIS1_ELb1ELb1EEC2Ev = comdat any

$_ZNSt15__uniq_ptr_implIN6openmc10Function1DESt14default_deleteIS1_EEC2Ev = comdat any

$_ZNSt5tupleIJPN6openmc10Function1DESt14default_deleteIS1_EEEC2ILb1ETnNSt9enable_ifIXclsr17_TupleConstraintsIXT_ES2_S4_EE37__is_implicitly_default_constructibleEEbE4typeELb1EEEv = comdat any

$_ZNSt11_Tuple_implILm0EJPN6openmc10Function1DESt14default_deleteIS1_EEEC2Ev = comdat any

$_ZNSt11_Tuple_implILm1EJSt14default_deleteIN6openmc10Function1DEEEEC2Ev = comdat any

$_ZNSt10_Head_baseILm0EPN6openmc10Function1DELb0EEC2Ev = comdat any

$_ZNSt10_Head_baseILm1ESt14default_deleteIN6openmc10Function1DEELb1EEC2Ev = comdat any

$_ZNSt10unique_ptrIN6openmc11Tabulated1DESt14default_deleteIS1_EEC2IS3_vEEPS1_ = comdat any

$_ZNSt15__uniq_ptr_dataIN6openmc11Tabulated1DESt14default_deleteIS1_ELb1ELb1EECI2St15__uniq_ptr_implIS1_S3_EEPS1_ = comdat any

$_ZNSt15__uniq_ptr_implIN6openmc11Tabulated1DESt14default_deleteIS1_EEC2EPS1_ = comdat any

$_ZNSt5tupleIJPN6openmc11Tabulated1DESt14default_deleteIS1_EEEC2ILb1ETnNSt9enable_ifIXclsr17_TupleConstraintsIXT_ES2_S4_EE37__is_implicitly_default_constructibleEEbE4typeELb1EEEv = comdat any

$_ZNSt15__uniq_ptr_implIN6openmc11Tabulated1DESt14default_deleteIS1_EE6_M_ptrEv = comdat any

$_ZNSt11_Tuple_implILm0EJPN6openmc11Tabulated1DESt14default_deleteIS1_EEEC2Ev = comdat any

$_ZNSt11_Tuple_implILm1EJSt14default_deleteIN6openmc11Tabulated1DEEEEC2Ev = comdat any

$_ZNSt10_Head_baseILm0EPN6openmc11Tabulated1DELb0EEC2Ev = comdat any

$_ZNSt10_Head_baseILm1ESt14default_deleteIN6openmc11Tabulated1DEELb1EEC2Ev = comdat any

$_ZSt3getILm0EJPN6openmc11Tabulated1DESt14default_deleteIS1_EEERNSt13tuple_elementIXT_ESt5tupleIJDpT0_EEE4typeERS9_ = comdat any

$_ZSt12__get_helperILm0EPN6openmc11Tabulated1DEJSt14default_deleteIS1_EEERT0_RSt11_Tuple_implIXT_EJS5_DpT1_EE = comdat any

$_ZNSt11_Tuple_implILm0EJPN6openmc11Tabulated1DESt14default_deleteIS1_EEE7_M_headERS5_ = comdat any

$_ZNSt10_Head_baseILm0EPN6openmc11Tabulated1DELb0EE7_M_headERS3_ = comdat any

$_ZNSt10unique_ptrIN6openmc10Function1DESt14default_deleteIS1_EE5resetEPS1_ = comdat any

$_ZNSt10unique_ptrIN6openmc11Tabulated1DESt14default_deleteIS1_EE7releaseEv = comdat any

$_ZNSt10unique_ptrIN6openmc11Tabulated1DESt14default_deleteIS1_EE11get_deleterEv = comdat any

$_ZNSt14default_deleteIN6openmc10Function1DEEC2INS0_11Tabulated1DEvEERKS_IT_E = comdat any

$_ZNSt10unique_ptrIN6openmc10Function1DESt14default_deleteIS1_EE11get_deleterEv = comdat any

$_ZNSt15__uniq_ptr_implIN6openmc10Function1DESt14default_deleteIS1_EE5resetEPS1_ = comdat any

$_ZNSt15__uniq_ptr_implIN6openmc10Function1DESt14default_deleteIS1_EE6_M_ptrEv = comdat any

$_ZNSt15__uniq_ptr_implIN6openmc10Function1DESt14default_deleteIS1_EE10_M_deleterEv = comdat any

$_ZNKSt14default_deleteIN6openmc10Function1DEEclEPS1_ = comdat any

$_ZSt3getILm0EJPN6openmc10Function1DESt14default_deleteIS1_EEERNSt13tuple_elementIXT_ESt5tupleIJDpT0_EEE4typeERS9_ = comdat any

$_ZSt12__get_helperILm0EPN6openmc10Function1DEJSt14default_deleteIS1_EEERT0_RSt11_Tuple_implIXT_EJS5_DpT1_EE = comdat any

$_ZNSt11_Tuple_implILm0EJPN6openmc10Function1DESt14default_deleteIS1_EEE7_M_headERS5_ = comdat any

$_ZNSt10_Head_baseILm0EPN6openmc10Function1DELb0EE7_M_headERS3_ = comdat any

$_ZSt3getILm1EJPN6openmc10Function1DESt14default_deleteIS1_EEERNSt13tuple_elementIXT_ESt5tupleIJDpT0_EEE4typeERS9_ = comdat any

$_ZSt12__get_helperILm1ESt14default_deleteIN6openmc10Function1DEEJEERT0_RSt11_Tuple_implIXT_EJS4_DpT1_EE = comdat any

$_ZNSt11_Tuple_implILm1EJSt14default_deleteIN6openmc10Function1DEEEE7_M_headERS4_ = comdat any

$_ZNSt10_Head_baseILm1ESt14default_deleteIN6openmc10Function1DEELb1EE7_M_headERS4_ = comdat any

$_ZNSt15__uniq_ptr_implIN6openmc11Tabulated1DESt14default_deleteIS1_EE7releaseEv = comdat any

$_ZNSt15__uniq_ptr_implIN6openmc11Tabulated1DESt14default_deleteIS1_EE10_M_deleterEv = comdat any

$_ZSt3getILm1EJPN6openmc11Tabulated1DESt14default_deleteIS1_EEERNSt13tuple_elementIXT_ESt5tupleIJDpT0_EEE4typeERS9_ = comdat any

$_ZSt12__get_helperILm1ESt14default_deleteIN6openmc11Tabulated1DEEJEERT0_RSt11_Tuple_implIXT_EJS4_DpT1_EE = comdat any

$_ZNSt11_Tuple_implILm1EJSt14default_deleteIN6openmc11Tabulated1DEEEE7_M_headERS4_ = comdat any

$_ZNSt10_Head_baseILm1ESt14default_deleteIN6openmc11Tabulated1DEELb1EE7_M_headERS4_ = comdat any

$_ZNKSt14default_deleteIN6openmc11Tabulated1DEEclEPS1_ = comdat any

$_ZNSt10unique_ptrIN6openmc10PolynomialESt14default_deleteIS1_EEC2IS3_vEEPS1_ = comdat any

$_ZNSt15__uniq_ptr_dataIN6openmc10PolynomialESt14default_deleteIS1_ELb1ELb1EECI2St15__uniq_ptr_implIS1_S3_EEPS1_ = comdat any

$_ZNSt15__uniq_ptr_implIN6openmc10PolynomialESt14default_deleteIS1_EEC2EPS1_ = comdat any

$_ZNSt5tupleIJPN6openmc10PolynomialESt14default_deleteIS1_EEEC2ILb1ETnNSt9enable_ifIXclsr17_TupleConstraintsIXT_ES2_S4_EE37__is_implicitly_default_constructibleEEbE4typeELb1EEEv = comdat any

$_ZNSt15__uniq_ptr_implIN6openmc10PolynomialESt14default_deleteIS1_EE6_M_ptrEv = comdat any

$_ZNSt11_Tuple_implILm0EJPN6openmc10PolynomialESt14default_deleteIS1_EEEC2Ev = comdat any

$_ZNSt11_Tuple_implILm1EJSt14default_deleteIN6openmc10PolynomialEEEEC2Ev = comdat any

$_ZNSt10_Head_baseILm0EPN6openmc10PolynomialELb0EEC2Ev = comdat any

$_ZNSt10_Head_baseILm1ESt14default_deleteIN6openmc10PolynomialEELb1EEC2Ev = comdat any

$_ZSt3getILm0EJPN6openmc10PolynomialESt14default_deleteIS1_EEERNSt13tuple_elementIXT_ESt5tupleIJDpT0_EEE4typeERS9_ = comdat any

$_ZSt12__get_helperILm0EPN6openmc10PolynomialEJSt14default_deleteIS1_EEERT0_RSt11_Tuple_implIXT_EJS5_DpT1_EE = comdat any

$_ZNSt11_Tuple_implILm0EJPN6openmc10PolynomialESt14default_deleteIS1_EEE7_M_headERS5_ = comdat any

$_ZNSt10_Head_baseILm0EPN6openmc10PolynomialELb0EE7_M_headERS3_ = comdat any

$_ZNSt10unique_ptrIN6openmc10PolynomialESt14default_deleteIS1_EE7releaseEv = comdat any

$_ZNSt10unique_ptrIN6openmc10PolynomialESt14default_deleteIS1_EE11get_deleterEv = comdat any

$_ZNSt14default_deleteIN6openmc10Function1DEEC2INS0_10PolynomialEvEERKS_IT_E = comdat any

$_ZNSt15__uniq_ptr_implIN6openmc10PolynomialESt14default_deleteIS1_EE7releaseEv = comdat any

$_ZNSt15__uniq_ptr_implIN6openmc10PolynomialESt14default_deleteIS1_EE10_M_deleterEv = comdat any

$_ZSt3getILm1EJPN6openmc10PolynomialESt14default_deleteIS1_EEERNSt13tuple_elementIXT_ESt5tupleIJDpT0_EEE4typeERS9_ = comdat any

$_ZSt12__get_helperILm1ESt14default_deleteIN6openmc10PolynomialEEJEERT0_RSt11_Tuple_implIXT_EJS4_DpT1_EE = comdat any

$_ZNSt11_Tuple_implILm1EJSt14default_deleteIN6openmc10PolynomialEEEE7_M_headERS4_ = comdat any

$_ZNSt10_Head_baseILm1ESt14default_deleteIN6openmc10PolynomialEELb1EE7_M_headERS4_ = comdat any

$_ZNKSt14default_deleteIN6openmc10PolynomialEEclEPS1_ = comdat any

$_ZNSt10unique_ptrIN6openmc17CoherentElasticXSESt14default_deleteIS1_EEC2IS3_vEEPS1_ = comdat any

$_ZNSt15__uniq_ptr_dataIN6openmc17CoherentElasticXSESt14default_deleteIS1_ELb1ELb1EECI2St15__uniq_ptr_implIS1_S3_EEPS1_ = comdat any

$_ZNSt15__uniq_ptr_implIN6openmc17CoherentElasticXSESt14default_deleteIS1_EEC2EPS1_ = comdat any

$_ZNSt5tupleIJPN6openmc17CoherentElasticXSESt14default_deleteIS1_EEEC2ILb1ETnNSt9enable_ifIXclsr17_TupleConstraintsIXT_ES2_S4_EE37__is_implicitly_default_constructibleEEbE4typeELb1EEEv = comdat any

$_ZNSt15__uniq_ptr_implIN6openmc17CoherentElasticXSESt14default_deleteIS1_EE6_M_ptrEv = comdat any

$_ZNSt11_Tuple_implILm0EJPN6openmc17CoherentElasticXSESt14default_deleteIS1_EEEC2Ev = comdat any

$_ZNSt11_Tuple_implILm1EJSt14default_deleteIN6openmc17CoherentElasticXSEEEEC2Ev = comdat any

$_ZNSt10_Head_baseILm0EPN6openmc17CoherentElasticXSELb0EEC2Ev = comdat any

$_ZNSt10_Head_baseILm1ESt14default_deleteIN6openmc17CoherentElasticXSEELb1EEC2Ev = comdat any

$_ZSt3getILm0EJPN6openmc17CoherentElasticXSESt14default_deleteIS1_EEERNSt13tuple_elementIXT_ESt5tupleIJDpT0_EEE4typeERS9_ = comdat any

$_ZSt12__get_helperILm0EPN6openmc17CoherentElasticXSEJSt14default_deleteIS1_EEERT0_RSt11_Tuple_implIXT_EJS5_DpT1_EE = comdat any

$_ZNSt11_Tuple_implILm0EJPN6openmc17CoherentElasticXSESt14default_deleteIS1_EEE7_M_headERS5_ = comdat any

$_ZNSt10_Head_baseILm0EPN6openmc17CoherentElasticXSELb0EE7_M_headERS3_ = comdat any

$_ZNSt10unique_ptrIN6openmc17CoherentElasticXSESt14default_deleteIS1_EE7releaseEv = comdat any

$_ZNSt10unique_ptrIN6openmc17CoherentElasticXSESt14default_deleteIS1_EE11get_deleterEv = comdat any

$_ZNSt14default_deleteIN6openmc10Function1DEEC2INS0_17CoherentElasticXSEvEERKS_IT_E = comdat any

$_ZNSt15__uniq_ptr_implIN6openmc17CoherentElasticXSESt14default_deleteIS1_EE7releaseEv = comdat any

$_ZNSt15__uniq_ptr_implIN6openmc17CoherentElasticXSESt14default_deleteIS1_EE10_M_deleterEv = comdat any

$_ZSt3getILm1EJPN6openmc17CoherentElasticXSESt14default_deleteIS1_EEERNSt13tuple_elementIXT_ESt5tupleIJDpT0_EEE4typeERS9_ = comdat any

$_ZSt12__get_helperILm1ESt14default_deleteIN6openmc17CoherentElasticXSEEJEERT0_RSt11_Tuple_implIXT_EJS4_DpT1_EE = comdat any

$_ZNSt11_Tuple_implILm1EJSt14default_deleteIN6openmc17CoherentElasticXSEEEE7_M_headERS4_ = comdat any

$_ZNSt10_Head_baseILm1ESt14default_deleteIN6openmc17CoherentElasticXSEELb1EE7_M_headERS4_ = comdat any

$_ZNKSt14default_deleteIN6openmc17CoherentElasticXSEEclEPS1_ = comdat any

$_ZNSt10unique_ptrIN6openmc19IncoherentElasticXSESt14default_deleteIS1_EEC2IS3_vEEPS1_ = comdat any

$_ZNSt15__uniq_ptr_dataIN6openmc19IncoherentElasticXSESt14default_deleteIS1_ELb1ELb1EECI2St15__uniq_ptr_implIS1_S3_EEPS1_ = comdat any

$_ZNSt15__uniq_ptr_implIN6openmc19IncoherentElasticXSESt14default_deleteIS1_EEC2EPS1_ = comdat any

$_ZNSt5tupleIJPN6openmc19IncoherentElasticXSESt14default_deleteIS1_EEEC2ILb1ETnNSt9enable_ifIXclsr17_TupleConstraintsIXT_ES2_S4_EE37__is_implicitly_default_constructibleEEbE4typeELb1EEEv = comdat any

$_ZNSt15__uniq_ptr_implIN6openmc19IncoherentElasticXSESt14default_deleteIS1_EE6_M_ptrEv = comdat any

$_ZNSt11_Tuple_implILm0EJPN6openmc19IncoherentElasticXSESt14default_deleteIS1_EEEC2Ev = comdat any

$_ZNSt11_Tuple_implILm1EJSt14default_deleteIN6openmc19IncoherentElasticXSEEEEC2Ev = comdat any

$_ZNSt10_Head_baseILm0EPN6openmc19IncoherentElasticXSELb0EEC2Ev = comdat any

$_ZNSt10_Head_baseILm1ESt14default_deleteIN6openmc19IncoherentElasticXSEELb1EEC2Ev = comdat any

$_ZSt3getILm0EJPN6openmc19IncoherentElasticXSESt14default_deleteIS1_EEERNSt13tuple_elementIXT_ESt5tupleIJDpT0_EEE4typeERS9_ = comdat any

$_ZSt12__get_helperILm0EPN6openmc19IncoherentElasticXSEJSt14default_deleteIS1_EEERT0_RSt11_Tuple_implIXT_EJS5_DpT1_EE = comdat any

$_ZNSt11_Tuple_implILm0EJPN6openmc19IncoherentElasticXSESt14default_deleteIS1_EEE7_M_headERS5_ = comdat any

$_ZNSt10_Head_baseILm0EPN6openmc19IncoherentElasticXSELb0EE7_M_headERS3_ = comdat any

$_ZNSt10unique_ptrIN6openmc19IncoherentElasticXSESt14default_deleteIS1_EE7releaseEv = comdat any

$_ZNSt10unique_ptrIN6openmc19IncoherentElasticXSESt14default_deleteIS1_EE11get_deleterEv = comdat any

$_ZNSt14default_deleteIN6openmc10Function1DEEC2INS0_19IncoherentElasticXSEvEERKS_IT_E = comdat any

$_ZNSt15__uniq_ptr_implIN6openmc19IncoherentElasticXSESt14default_deleteIS1_EE7releaseEv = comdat any

$_ZNSt15__uniq_ptr_implIN6openmc19IncoherentElasticXSESt14default_deleteIS1_EE10_M_deleterEv = comdat any

$_ZSt3getILm1EJPN6openmc19IncoherentElasticXSESt14default_deleteIS1_EEERNSt13tuple_elementIXT_ESt5tupleIJDpT0_EEE4typeERS9_ = comdat any

$_ZSt12__get_helperILm1ESt14default_deleteIN6openmc19IncoherentElasticXSEEJEERT0_RSt11_Tuple_implIXT_EJS4_DpT1_EE = comdat any

$_ZNSt11_Tuple_implILm1EJSt14default_deleteIN6openmc19IncoherentElasticXSEEEE7_M_headERS4_ = comdat any

$_ZNSt10_Head_baseILm1ESt14default_deleteIN6openmc19IncoherentElasticXSEELb1EE7_M_headERS4_ = comdat any

$_ZNKSt14default_deleteIN6openmc19IncoherentElasticXSEEclEPS1_ = comdat any

$_ZNSt16allocator_traitsISaIcEE8max_sizeERKS0_ = comdat any

$_ZNKSt15__new_allocatorIcE8max_sizeEv = comdat any

$_ZNKSt15__new_allocatorIcE11_M_max_sizeEv = comdat any

$_ZNSt11char_traitsIcE6lengthEPKc = comdat any

$_ZN9__gnu_cxx14__alloc_traitsISaIcEcE17_S_select_on_copyERKS1_ = comdat any

$_ZNSt16allocator_traitsISaIcEE37select_on_container_copy_constructionERKS0_ = comdat any

$_ZN6openmc10Function1DC2Ev = comdat any

$_ZNSt6vectorIdSaIdEEC2Ev = comdat any

$_ZN6openmc12read_datasetIdEEvlRSt6vectorIT_SaIS2_EEb = comdat any

$_ZNSt6vectorIdSaIdEED2Ev = comdat any

$_ZN6openmc10Function1DD0Ev = comdat any

$_ZNSt12_Vector_baseIdSaIdEEC2Ev = comdat any

$_ZNSt12_Vector_baseIdSaIdEE12_Vector_implC2Ev = comdat any

$_ZNSt12_Vector_baseIdSaIdEE17_Vector_impl_dataC2Ev = comdat any

$_ZNSt15__new_allocatorIdEC2Ev = comdat any

$_ZNSt6vectorIdSaIdEE6resizeEm = comdat any

$_ZNSt6vectorImSaImEEixEm = comdat any

$_ZNSt6vectorIdSaIdEE4dataEv = comdat any

$_ZNSt6vectorImSaImEED2Ev = comdat any

$_ZNKSt6vectorIdSaIdEE4sizeEv = comdat any

$_ZNSt6vectorIdSaIdEE17_M_default_appendEm = comdat any

$_ZNSt6vectorIdSaIdEE15_M_erase_at_endEPd = comdat any

$_ZNKSt6vectorIdSaIdEE8max_sizeEv = comdat any

$_ZSt27__uninitialized_default_n_aIPdmdET_S1_T0_RSaIT1_E = comdat any

$_ZNSt12_Vector_baseIdSaIdEE19_M_get_Tp_allocatorEv = comdat any

$_ZNKSt6vectorIdSaIdEE12_M_check_lenEmPKc = comdat any

$_ZNSt12_Vector_baseIdSaIdEE11_M_allocateEm = comdat any

$_ZNSt12_Vector_baseIdSaIdEE13_M_deallocateEPdm = comdat any

$_ZNSt6vectorIdSaIdEE11_S_relocateEPdS2_S2_RS0_ = comdat any

$_ZNSt6vectorIdSaIdEE11_S_max_sizeERKS0_ = comdat any

$_ZNKSt12_Vector_baseIdSaIdEE19_M_get_Tp_allocatorEv = comdat any

$_ZNSt16allocator_traitsISaIdEE8max_sizeERKS0_ = comdat any

$_ZSt3minImERKT_S2_S2_ = comdat any

$_ZNKSt15__new_allocatorIdE8max_sizeEv = comdat any

$_ZNKSt15__new_allocatorIdE11_M_max_sizeEv = comdat any

$_ZSt25__uninitialized_default_nIPdmET_S1_T0_ = comdat any

$_ZNSt27__uninitialized_default_n_1ILb1EE18__uninit_default_nIPdmEET_S3_T0_ = comdat any

$_ZSt10_ConstructIdJEEvPT_DpOT0_ = comdat any

$_ZSt6fill_nIPdmdET_S1_T0_RKT1_ = comdat any

$_ZSt10__fill_n_aIPdmdET_S1_T0_RKT1_St26random_access_iterator_tag = comdat any

$_ZSt17__size_to_integerm = comdat any

$_ZSt19__iterator_categoryIPdENSt15iterator_traitsIT_E17iterator_categoryERKS2_ = comdat any

$_ZSt8__fill_aIPddEvT_S1_RKT0_ = comdat any

$_ZSt9__fill_a1IPddEN9__gnu_cxx11__enable_ifIXsr11__is_scalarIT0_EE7__valueEvE6__typeET_S6_RKS3_ = comdat any

$_ZSt3maxImERKT_S2_S2_ = comdat any

$_ZNSt16allocator_traitsISaIdEE8allocateERS0_m = comdat any

$_ZNSt15__new_allocatorIdE8allocateEmPKv = comdat any

$_ZNSt16allocator_traitsISaIdEE10deallocateERS0_Pdm = comdat any

$_ZNSt15__new_allocatorIdE10deallocateEPdm = comdat any

$_ZSt12__relocate_aIPdS0_SaIdEET0_T_S3_S2_RT1_ = comdat any

$_ZSt14__relocate_a_1IddENSt9enable_ifIXsr3std24__is_bitwise_relocatableIT_EE5valueEPS1_E4typeES2_S2_S2_RSaIT0_E = comdat any

$_ZSt12__niter_baseIPdET_S1_ = comdat any

$_ZSt8_DestroyIPddEvT_S1_RSaIT0_E = comdat any

$_ZSt8_DestroyIPdEvT_S1_ = comdat any

$_ZNSt12_Destroy_auxILb1EE9__destroyIPdEEvT_S3_ = comdat any

$_ZNKSt6vectorIdSaIdEE11_M_data_ptrIdEEPT_S4_ = comdat any

$_ZSt8_DestroyIPmmEvT_S1_RSaIT0_E = comdat any

$_ZNSt12_Vector_baseImSaImEE19_M_get_Tp_allocatorEv = comdat any

$_ZNSt12_Vector_baseImSaImEED2Ev = comdat any

$_ZSt8_DestroyIPmEvT_S1_ = comdat any

$_ZNSt12_Destroy_auxILb1EE9__destroyIPmEEvT_S3_ = comdat any

$_ZNSt12_Vector_baseImSaImEE13_M_deallocateEPmm = comdat any

$_ZNSt16allocator_traitsISaImEE10deallocateERS0_Pmm = comdat any

$_ZNSt15__new_allocatorImE10deallocateEPmm = comdat any

$_ZNSt12_Vector_baseIdSaIdEED2Ev = comdat any

$_ZNKSt6vectorIdSaIdEE7crbeginEv = comdat any

$_ZStneIN9__gnu_cxx17__normal_iteratorIPKdSt6vectorIdSaIdEEEEEbRKSt16reverse_iteratorIT_ESC_ = comdat any

$_ZNKSt6vectorIdSaIdEE5crendEv = comdat any

$_ZNKSt16reverse_iteratorIN9__gnu_cxx17__normal_iteratorIPKdSt6vectorIdSaIdEEEEEdeEv = comdat any

$_ZNSt16reverse_iteratorIN9__gnu_cxx17__normal_iteratorIPKdSt6vectorIdSaIdEEEEEppEv = comdat any

$_ZNKSt6vectorIdSaIdEE3endEv = comdat any

$_ZNSt16reverse_iteratorIN9__gnu_cxx17__normal_iteratorIPKdSt6vectorIdSaIdEEEEEC2ES7_ = comdat any

$_ZN9__gnu_cxx17__normal_iteratorIPKdSt6vectorIdSaIdEEEC2ERKS2_ = comdat any

$_ZSteqIN9__gnu_cxx17__normal_iteratorIPKdSt6vectorIdSaIdEEEEEbRKSt16reverse_iteratorIT_ESC_ = comdat any

$_ZN9__gnu_cxxeqIPKdSt6vectorIdSaIdEEEEbRKNS_17__normal_iteratorIT_T0_EESB_ = comdat any

$_ZNKSt16reverse_iteratorIN9__gnu_cxx17__normal_iteratorIPKdSt6vectorIdSaIdEEEEE4baseEv = comdat any

$_ZNK9__gnu_cxx17__normal_iteratorIPKdSt6vectorIdSaIdEEE4baseEv = comdat any

$_ZNKSt6vectorIdSaIdEE5beginEv = comdat any

$_ZN9__gnu_cxx17__normal_iteratorIPKdSt6vectorIdSaIdEEEmmEv = comdat any

$_ZNK9__gnu_cxx17__normal_iteratorIPKdSt6vectorIdSaIdEEEdeEv = comdat any

$_ZN6openmc10DataBuffer3addIiEENSt9enable_ifIXsr3std9is_scalarINSt5decayIT_E4typeEEE5valueEvE4typeES4_ = comdat any

$_ZN6openmc10DataBuffer3addIdEEvRKSt6vectorIT_SaIS3_EE = comdat any

$_ZNKSt6vectorIdSaIdEE4dataEv = comdat any

$_ZNK3gsl4spanIKdE7crbeginEv = comdat any

$_ZStneIPKdEbRKSt16reverse_iteratorIT_ES6_ = comdat any

$_ZNK3gsl4spanIKdE5crendEv = comdat any

$_ZNKSt16reverse_iteratorIPKdEdeEv = comdat any

$_ZNSt16reverse_iteratorIPKdEppEv = comdat any

$_ZNK3gsl4spanIKdE4cendEv = comdat any

$_ZNSt16reverse_iteratorIPKdEC2ES1_ = comdat any

$_ZNK3gsl4spanIKdE3endEv = comdat any

$_ZSteqIPKdEbRKSt16reverse_iteratorIT_ES6_ = comdat any

$_ZNKSt16reverse_iteratorIPKdE4baseEv = comdat any

$_ZNK3gsl4spanIKdE6cbeginEv = comdat any

$_ZNK3gsl4spanIKdE5beginEv = comdat any

$_ZN3gsl4spanIKdEC2EPS1_m = comdat any

$_ZNSt6vectorIiSaIiEEC2Ev = comdat any

$_ZNSt6vectorIN6openmc13InterpolationESaIS1_EEC2Ev = comdat any

$_ZN6openmc14read_attributeIiEEvlPKcRSt6vectorIT_SaIS4_EE = comdat any

$_ZNKSt6vectorIiSaIiEE4sizeEv = comdat any

$_ZNSt6vectorIiSaIiEE5beginEv = comdat any

$_ZNSt6vectorIiSaIiEE3endEv = comdat any

$_ZN9__gnu_cxxneIPiSt6vectorIiSaIiEEEEbRKNS_17__normal_iteratorIT_T0_EESA_ = comdat any

$_ZNK9__gnu_cxx17__normal_iteratorIPiSt6vectorIiSaIiEEEdeEv = comdat any

$_ZN9__gnu_cxx17__normal_iteratorIPiSt6vectorIiSaIiEEEppEv = comdat any

$_ZNSt6vectorIN6openmc13InterpolationESaIS1_EE9push_backEOS1_ = comdat any

$_ZN2xt16xarray_containerINS_7uvectorIdSaIdEEELNS_11layout_typeE1ENS_7svectorImLm4ESaImELb1EEENS_22xtensor_expression_tagEEC2Ev = comdat any

$_ZN6openmc12read_datasetIdEEvlRN2xt16xarray_containerINS1_7uvectorIT_SaIS4_EEELNS1_11layout_typeE1ENS1_7svectorINS6_9size_typeELm4ESaINSt6vectorIS4_S5_E9size_typeEELb1EEENS1_22xtensor_expression_tagEEEb = comdat any

$_ZN2xt4viewIRNS_16xarray_containerINS_7uvectorIdSaIdEEELNS_11layout_typeE1ENS_7svectorImLm4ESaImELb1EEENS_22xtensor_expression_tagEEEJiEEEDaOT_DpOT0_ = comdat any

$_ZSt4copyIPdSt20back_insert_iteratorISt6vectorIdSaIdEEEET0_T_S7_S6_ = comdat any

$_ZN2xt20xcontiguous_iterableINS_5xviewIRNS_16xarray_containerINS_7uvectorIdSaIdEEELNS_11layout_typeE1ENS_7svectorImLm4ESaImELb1EEENS_22xtensor_expression_tagEEEJiEEEE5beginILS6_1EEENSt11conditionalIXeqT_L_ZNSE_13static_layoutEEEPdNS_9xiteratorINS_8xstepperISD_EEPNS_13sequence_viewIS9_Ll1ELln1EEEXT_EEEE4typeEv = comdat any

$_ZN2xt20xcontiguous_iterableINS_5xviewIRNS_16xarray_containerINS_7uvectorIdSaIdEEELNS_11layout_typeE1ENS_7svectorImLm4ESaImELb1EEENS_22xtensor_expression_tagEEEJiEEEE3endILS6_1EEENSt11conditionalIXeqT_L_ZNSE_13static_layoutEEEPdNS_9xiteratorINS_8xstepperISD_EEPNS_13sequence_viewIS9_Ll1ELln1EEEXT_EEEE4typeEv = comdat any

$_ZSt13back_inserterISt6vectorIdSaIdEEESt20back_insert_iteratorIT_ERS4_ = comdat any

$_ZN2xt20xsharable_expressionINS_5xviewIRNS_16xarray_containerINS_7uvectorIdSaIdEEELNS_11layout_typeE1ENS_7svectorImLm4ESaImELb1EEENS_22xtensor_expression_tagEEEJiEEEED2Ev = comdat any

$_ZN2xt16xarray_containerINS_7uvectorIdSaIdEEELNS_11layout_typeE1ENS_7svectorImLm4ESaImELb1EEENS_22xtensor_expression_tagEED2Ev = comdat any

$_ZNSt6vectorIiSaIiEED2Ev = comdat any

$_ZNSt6vectorIN6openmc13InterpolationESaIS1_EED2Ev = comdat any

$_ZNSt12_Vector_baseIiSaIiEEC2Ev = comdat any

$_ZNSt12_Vector_baseIiSaIiEE12_Vector_implC2Ev = comdat any

$_ZNSaIiEC2Ev = comdat any

$_ZNSt12_Vector_baseIiSaIiEE17_Vector_impl_dataC2Ev = comdat any

$_ZNSt15__new_allocatorIiEC2Ev = comdat any

$_ZNSt12_Vector_baseIN6openmc13InterpolationESaIS1_EEC2Ev = comdat any

$_ZNSt12_Vector_baseIN6openmc13InterpolationESaIS1_EE12_Vector_implC2Ev = comdat any

$_ZNSaIN6openmc13InterpolationEEC2Ev = comdat any

$_ZNSt12_Vector_baseIN6openmc13InterpolationESaIS1_EE17_Vector_impl_dataC2Ev = comdat any

$_ZNSt15__new_allocatorIN6openmc13InterpolationEEC2Ev = comdat any

$_ZNSt6vectorImSaImEE5beginEv = comdat any

$_ZNSt6vectorImSaImEE3endEv = comdat any

$_ZN9__gnu_cxxneIPmSt6vectorImSaImEEEEbRKNS_17__normal_iteratorIT_T0_EESA_ = comdat any

$_ZNK9__gnu_cxx17__normal_iteratorIPmSt6vectorImSaImEEEdeEv = comdat any

$_ZN9__gnu_cxx17__normal_iteratorIPmSt6vectorImSaImEEEppEv = comdat any

$_ZNSt6vectorIiSaIiEE6resizeEm = comdat any

$_ZNSt6vectorIiSaIiEE4dataEv = comdat any

$_ZN9__gnu_cxx17__normal_iteratorIPmSt6vectorImSaImEEEC2ERKS1_ = comdat any

$_ZNK9__gnu_cxx17__normal_iteratorIPmSt6vectorImSaImEEE4baseEv = comdat any

$_ZNSt6vectorIiSaIiEE17_M_default_appendEm = comdat any

$_ZNSt6vectorIiSaIiEE15_M_erase_at_endEPi = comdat any

$_ZNKSt6vectorIiSaIiEE8max_sizeEv = comdat any

$_ZSt27__uninitialized_default_n_aIPimiET_S1_T0_RSaIT1_E = comdat any

$_ZNSt12_Vector_baseIiSaIiEE19_M_get_Tp_allocatorEv = comdat any

$_ZNKSt6vectorIiSaIiEE12_M_check_lenEmPKc = comdat any

$_ZNSt12_Vector_baseIiSaIiEE11_M_allocateEm = comdat any

$_ZNSt12_Vector_baseIiSaIiEE13_M_deallocateEPim = comdat any

$_ZNSt6vectorIiSaIiEE11_S_relocateEPiS2_S2_RS0_ = comdat any

$_ZNSt6vectorIiSaIiEE11_S_max_sizeERKS0_ = comdat any

$_ZNKSt12_Vector_baseIiSaIiEE19_M_get_Tp_allocatorEv = comdat any

$_ZNSt16allocator_traitsISaIiEE8max_sizeERKS0_ = comdat any

$_ZNKSt15__new_allocatorIiE8max_sizeEv = comdat any

$_ZNKSt15__new_allocatorIiE11_M_max_sizeEv = comdat any

$_ZSt25__uninitialized_default_nIPimET_S1_T0_ = comdat any

$_ZNSt27__uninitialized_default_n_1ILb1EE18__uninit_default_nIPimEET_S3_T0_ = comdat any

$_ZSt10_ConstructIiJEEvPT_DpOT0_ = comdat any

$_ZSt6fill_nIPimiET_S1_T0_RKT1_ = comdat any

$_ZSt10__fill_n_aIPimiET_S1_T0_RKT1_St26random_access_iterator_tag = comdat any

$_ZSt19__iterator_categoryIPiENSt15iterator_traitsIT_E17iterator_categoryERKS2_ = comdat any

$_ZSt8__fill_aIPiiEvT_S1_RKT0_ = comdat any

$_ZSt9__fill_a1IPiiEN9__gnu_cxx11__enable_ifIXsr11__is_scalarIT0_EE7__valueEvE6__typeET_S6_RKS3_ = comdat any

$_ZNSt16allocator_traitsISaIiEE8allocateERS0_m = comdat any

$_ZNSt15__new_allocatorIiE8allocateEmPKv = comdat any

$_ZNSt16allocator_traitsISaIiEE10deallocateERS0_Pim = comdat any

$_ZNSt15__new_allocatorIiE10deallocateEPim = comdat any

$_ZSt12__relocate_aIPiS0_SaIiEET0_T_S3_S2_RT1_ = comdat any

$_ZSt14__relocate_a_1IiiENSt9enable_ifIXsr3std24__is_bitwise_relocatableIT_EE5valueEPS1_E4typeES2_S2_S2_RSaIT0_E = comdat any

$_ZSt12__niter_baseIPiET_S1_ = comdat any

$_ZSt8_DestroyIPiiEvT_S1_RSaIT0_E = comdat any

$_ZSt8_DestroyIPiEvT_S1_ = comdat any

$_ZNSt12_Destroy_auxILb1EE9__destroyIPiEEvT_S3_ = comdat any

$_ZNKSt6vectorIiSaIiEE11_M_data_ptrIiEEPT_S4_ = comdat any

$_ZN9__gnu_cxx17__normal_iteratorIPiSt6vectorIiSaIiEEEC2ERKS1_ = comdat any

$_ZNK9__gnu_cxx17__normal_iteratorIPiSt6vectorIiSaIiEEE4baseEv = comdat any

$_ZNSt6vectorIN6openmc13InterpolationESaIS1_EE12emplace_backIJS1_EEERS1_DpOT_ = comdat any

$_ZNSt16allocator_traitsISaIN6openmc13InterpolationEEE9constructIS1_JS1_EEEvRS2_PT_DpOT0_ = comdat any

$_ZNSt6vectorIN6openmc13InterpolationESaIS1_EE17_M_realloc_insertIJS1_EEEvN9__gnu_cxx17__normal_iteratorIPS1_S3_EEDpOT_ = comdat any

$_ZNSt6vectorIN6openmc13InterpolationESaIS1_EE3endEv = comdat any

$_ZNSt6vectorIN6openmc13InterpolationESaIS1_EE4backEv = comdat any

$_ZNSt15__new_allocatorIN6openmc13InterpolationEE9constructIS1_JS1_EEEvPT_DpOT0_ = comdat any

$_ZNKSt6vectorIN6openmc13InterpolationESaIS1_EE12_M_check_lenEmPKc = comdat any

$_ZN9__gnu_cxxmiIPN6openmc13InterpolationESt6vectorIS2_SaIS2_EEEENS_17__normal_iteratorIT_T0_E15difference_typeERKSA_SD_ = comdat any

$_ZNSt6vectorIN6openmc13InterpolationESaIS1_EE5beginEv = comdat any

$_ZNSt12_Vector_baseIN6openmc13InterpolationESaIS1_EE11_M_allocateEm = comdat any

$_ZNSt6vectorIN6openmc13InterpolationESaIS1_EE11_S_relocateEPS1_S4_S4_RS2_ = comdat any

$_ZNK9__gnu_cxx17__normal_iteratorIPN6openmc13InterpolationESt6vectorIS2_SaIS2_EEE4baseEv = comdat any

$_ZNSt12_Vector_baseIN6openmc13InterpolationESaIS1_EE19_M_get_Tp_allocatorEv = comdat any

$_ZNSt12_Vector_baseIN6openmc13InterpolationESaIS1_EE13_M_deallocateEPS1_m = comdat any

$_ZNKSt6vectorIN6openmc13InterpolationESaIS1_EE8max_sizeEv = comdat any

$_ZNKSt6vectorIN6openmc13InterpolationESaIS1_EE4sizeEv = comdat any

$_ZNSt6vectorIN6openmc13InterpolationESaIS1_EE11_S_max_sizeERKS2_ = comdat any

$_ZNKSt12_Vector_baseIN6openmc13InterpolationESaIS1_EE19_M_get_Tp_allocatorEv = comdat any

$_ZNSt16allocator_traitsISaIN6openmc13InterpolationEEE8max_sizeERKS2_ = comdat any

$_ZNKSt15__new_allocatorIN6openmc13InterpolationEE8max_sizeEv = comdat any

$_ZNKSt15__new_allocatorIN6openmc13InterpolationEE11_M_max_sizeEv = comdat any

$_ZN9__gnu_cxx17__normal_iteratorIPN6openmc13InterpolationESt6vectorIS2_SaIS2_EEEC2ERKS3_ = comdat any

$_ZNSt16allocator_traitsISaIN6openmc13InterpolationEEE8allocateERS2_m = comdat any

$_ZNSt15__new_allocatorIN6openmc13InterpolationEE8allocateEmPKv = comdat any

$_ZSt12__relocate_aIPN6openmc13InterpolationES2_SaIS1_EET0_T_S5_S4_RT1_ = comdat any

$_ZSt14__relocate_a_1IN6openmc13InterpolationES1_ENSt9enable_ifIXsr3std24__is_bitwise_relocatableIT_EE5valueEPS3_E4typeES4_S4_S4_RSaIT0_E = comdat any

$_ZSt12__niter_baseIPN6openmc13InterpolationEET_S3_ = comdat any

$_ZNSt16allocator_traitsISaIN6openmc13InterpolationEEE10deallocateERS2_PS1_m = comdat any

$_ZNSt15__new_allocatorIN6openmc13InterpolationEE10deallocateEPS1_m = comdat any

$_ZNK9__gnu_cxx17__normal_iteratorIPN6openmc13InterpolationESt6vectorIS2_SaIS2_EEEmiEl = comdat any

$_ZNK9__gnu_cxx17__normal_iteratorIPN6openmc13InterpolationESt6vectorIS2_SaIS2_EEEdeEv = comdat any

$_ZN2xt18xstrided_containerINS_16xarray_containerINS_7uvectorIdSaIdEEELNS_11layout_typeE1ENS_7svectorImLm4ESaImELb1EEENS_22xtensor_expression_tagEEEEC2Ev = comdat any

$_ZN2xt19xcontainer_semanticINS_16xarray_containerINS_7uvectorIdSaIdEEELNS_11layout_typeE1ENS_7svectorImLm4ESaImELb1EEENS_22xtensor_expression_tagEEEEC2Ev = comdat any

$_ZNSaIdEC2Ev = comdat any

$_ZN2xt7uvectorIdSaIdEEC2EmRKdRKS1_ = comdat any

$_ZNSt15__new_allocatorIdED2Ev = comdat any

$_ZN2xt20xsharable_expressionINS_16xarray_containerINS_7uvectorIdSaIdEEELNS_11layout_typeE1ENS_7svectorImLm4ESaImELb1EEENS_22xtensor_expression_tagEEEED2Ev = comdat any

$_ZN2xt18xstrided_containerINS_16xarray_containerINS_7uvectorIdSaIdEEELNS_11layout_typeE1ENS_7svectorImLm4ESaImELb1EEENS_22xtensor_expression_tagEEEED2Ev = comdat any

$_ZN2xt7svectorImLm4ESaImELb1EEC2Ev = comdat any

$_ZN2xt7svectorIlLm4ESaIlELb1EEC2Ev = comdat any

$_ZN3xtl13make_sequenceIN2xt7svectorImLm4ESaImELb1EEEEET_NS5_9size_typeENS5_10value_typeE = comdat any

$_ZNK2xt10xcontainerINS_16xarray_containerINS_7uvectorIdSaIdEEELNS_11layout_typeE1ENS_7svectorImLm4ESaImELb1EEENS_22xtensor_expression_tagEEEE9dimensionEv = comdat any

$_ZN2xt7svectorImLm4ESaImELb1EEaSEOS2_ = comdat any

$_ZN2xt7svectorImLm4ESaImELb1EED2Ev = comdat any

$_ZN3xtl13make_sequenceIN2xt7svectorIlLm4ESaIlELb1EEEEET_NS5_9size_typeENS5_10value_typeE = comdat any

$_ZN2xt7svectorIlLm4ESaIlELb1EEaSEOS2_ = comdat any

$_ZN2xt7svectorIlLm4ESaIlELb1EED2Ev = comdat any

$_ZNSaImEC2Ev = comdat any

$_ZN2xt7svectorImLm4ESaImELb1EEC2ERKS1_ = comdat any

$_ZNSt15__new_allocatorImED2Ev = comdat any

$_ZNSt15__new_allocatorImEC2Ev = comdat any

$_ZNSaImEC2ERKS_ = comdat any

$_ZSt5beginImLm4EEPT_RAT0__S0_ = comdat any

$_ZSt3endImLm4EEPT_RAT0__S0_ = comdat any

$_ZNSt15__new_allocatorImEC2ERKS0_ = comdat any

$_ZNSaIlEC2Ev = comdat any

$_ZN2xt7svectorIlLm4ESaIlELb1EEC2ERKS1_ = comdat any

$_ZNSt15__new_allocatorIlED2Ev = comdat any

$_ZNSt15__new_allocatorIlEC2Ev = comdat any

$_ZNSaIlEC2ERKS_ = comdat any

$_ZSt5beginIlLm4EEPT_RAT0__S0_ = comdat any

$_ZSt3endIlLm4EEPT_RAT0__S0_ = comdat any

$_ZNSt15__new_allocatorIlEC2ERKS0_ = comdat any

$_ZN3xtl6detail16sequence_builderIN2xt7svectorImLm4ESaImELb1EEEE4makeEmm = comdat any

$_ZN2xt7svectorImLm4ESaImELb1EEC2EmRKmRKS1_ = comdat any

$_ZN2xt7svectorImLm4ESaImELb1EE6assignEmRKm = comdat any

$_ZNK2xt7svectorImLm4ESaImELb1EE8capacityEv = comdat any

$_ZN2xt7svectorImLm4ESaImELb1EE4growEm = comdat any

$_ZSt4fillIPmmEvT_S1_RKT0_ = comdat any

$_ZN2xt7svectorImLm4ESaImELb1EE5beginEv = comdat any

$_ZN2xt7svectorImLm4ESaImELb1EE3endEv = comdat any

$_ZNK2xt7svectorImLm4ESaImELb1EE4sizeEv = comdat any

$_ZNSt15__new_allocatorImE8allocateEmPKv = comdat any

$_ZSt18uninitialized_copyIPmS0_ET0_T_S2_S1_ = comdat any

$_ZNKSt15__new_allocatorImE11_M_max_sizeEv = comdat any

$_ZNSt20__uninitialized_copyILb1EE13__uninit_copyIPmS2_EET0_T_S4_S3_ = comdat any

$_ZSt4copyIPmS0_ET0_T_S2_S1_ = comdat any

$_ZSt13__copy_move_aILb0EPmS0_ET1_T0_S2_S1_ = comdat any

$_ZSt12__miter_baseIPmET_S1_ = comdat any

$_ZSt12__niter_wrapIPmET_RKS1_S1_ = comdat any

$_ZSt14__copy_move_a1ILb0EPmS0_ET1_T0_S2_S1_ = comdat any

$_ZSt12__niter_baseIPmET_S1_ = comdat any

$_ZSt14__copy_move_a2ILb0EPmS0_ET1_T0_S2_S1_ = comdat any

$_ZNSt11__copy_moveILb0ELb1ESt26random_access_iterator_tagE8__copy_mImEEPT_PKS3_S6_S4_ = comdat any

$_ZSt8__fill_aIPmmEvT_S1_RKT0_ = comdat any

$_ZSt9__fill_a1IPmmEN9__gnu_cxx11__enable_ifIXsr11__is_scalarIT0_EE7__valueEvE6__typeET_S6_RKS3_ = comdat any

$_ZNK2xt10xcontainerINS_16xarray_containerINS_7uvectorIdSaIdEEELNS_11layout_typeE1ENS_7svectorImLm4ESaImELb1EEENS_22xtensor_expression_tagEEEE5shapeEv = comdat any

$_ZNKR2xt10xcontainerINS_16xarray_containerINS_7uvectorIdSaIdEEELNS_11layout_typeE1ENS_7svectorImLm4ESaImELb1EEENS_22xtensor_expression_tagEEEE12derived_castEv = comdat any

$_ZNK2xt18xstrided_containerINS_16xarray_containerINS_7uvectorIdSaIdEEELNS_11layout_typeE1ENS_7svectorImLm4ESaImELb1EEENS_22xtensor_expression_tagEEEE10shape_implEv = comdat any

$_ZN2xt7svectorImLm4ESaImELb1EE6assignIPmEEvT_S5_ = comdat any

$_ZN2xt7svectorImLm4ESaImELb1EE8on_stackEv = comdat any

$_ZN2xt6detail23safe_destroy_deallocateISaImEEEvRT_NSt16allocator_traitsIS3_E7pointerENS6_9size_typeE = comdat any

$_ZN3xtl6detail16sequence_builderIN2xt7svectorIlLm4ESaIlELb1EEEE4makeEml = comdat any

$_ZN2xt7svectorIlLm4ESaIlELb1EEC2EmRKlRKS1_ = comdat any

$_ZN2xt7svectorIlLm4ESaIlELb1EE6assignEmRKl = comdat any

$_ZNK2xt7svectorIlLm4ESaIlELb1EE8capacityEv = comdat any

$_ZN2xt7svectorIlLm4ESaIlELb1EE4growEm = comdat any

$_ZSt4fillIPllEvT_S1_RKT0_ = comdat any

$_ZN2xt7svectorIlLm4ESaIlELb1EE5beginEv = comdat any

$_ZN2xt7svectorIlLm4ESaIlELb1EE3endEv = comdat any

$_ZNK2xt7svectorIlLm4ESaIlELb1EE4sizeEv = comdat any

$_ZNSt15__new_allocatorIlE8allocateEmPKv = comdat any

$_ZSt18uninitialized_copyIPlS0_ET0_T_S2_S1_ = comdat any

$_ZNSt15__new_allocatorIlE10deallocateEPlm = comdat any

$_ZNKSt15__new_allocatorIlE11_M_max_sizeEv = comdat any

$_ZNSt20__uninitialized_copyILb1EE13__uninit_copyIPlS2_EET0_T_S4_S3_ = comdat any

$_ZSt4copyIPlS0_ET0_T_S2_S1_ = comdat any

$_ZSt13__copy_move_aILb0EPlS0_ET1_T0_S2_S1_ = comdat any

$_ZSt12__miter_baseIPlET_S1_ = comdat any

$_ZSt12__niter_wrapIPlET_RKS1_S1_ = comdat any

$_ZSt14__copy_move_a1ILb0EPlS0_ET1_T0_S2_S1_ = comdat any

$_ZSt12__niter_baseIPlET_S1_ = comdat any

$_ZSt14__copy_move_a2ILb0EPlS0_ET1_T0_S2_S1_ = comdat any

$_ZNSt11__copy_moveILb0ELb1ESt26random_access_iterator_tagE8__copy_mIlEEPT_PKS3_S6_S4_ = comdat any

$_ZSt8__fill_aIPllEvT_S1_RKT0_ = comdat any

$_ZSt9__fill_a1IPllEN9__gnu_cxx11__enable_ifIXsr11__is_scalarIT0_EE7__valueEvE6__typeET_S6_RKS3_ = comdat any

$_ZN2xt7svectorIlLm4ESaIlELb1EE6assignIPlEEvT_S5_ = comdat any

$_ZN2xt7svectorIlLm4ESaIlELb1EE8on_stackEv = comdat any

$_ZN2xt6detail23safe_destroy_deallocateISaIlEEEvRT_NSt16allocator_traitsIS3_E7pointerENS6_9size_typeE = comdat any

$_ZNSt16allocator_traitsISaIlEE10deallocateERS0_Plm = comdat any

$_ZN2xt14xsemantic_baseINS_16xarray_containerINS_7uvectorIdSaIdEEELNS_11layout_typeE1ENS_7svectorImLm4ESaImELb1EEENS_22xtensor_expression_tagEEEEC2Ev = comdat any

$_ZN2xt20xsharable_expressionINS_16xarray_containerINS_7uvectorIdSaIdEEELNS_11layout_typeE1ENS_7svectorImLm4ESaImELb1EEENS_22xtensor_expression_tagEEEEC2Ev = comdat any

$_ZNSt10shared_ptrIN2xt16xarray_containerINS0_7uvectorIdSaIdEEELNS0_11layout_typeE1ENS0_7svectorImLm4ESaImELb1EEENS0_22xtensor_expression_tagEEEEC2EDn = comdat any

$_ZNSt10shared_ptrIN2xt16xarray_containerINS0_7uvectorIdSaIdEEELNS0_11layout_typeE1ENS0_7svectorImLm4ESaImELb1EEENS0_22xtensor_expression_tagEEEEC2Ev = comdat any

$_ZNSt12__shared_ptrIN2xt16xarray_containerINS0_7uvectorIdSaIdEEELNS0_11layout_typeE1ENS0_7svectorImLm4ESaImELb1EEENS0_22xtensor_expression_tagEEELN9__gnu_cxx12_Lock_policyE2EEC2Ev = comdat any

$_ZNSt14__shared_countILN9__gnu_cxx12_Lock_policyE2EEC2Ev = comdat any

$_ZNSaIdEC2ERKS_ = comdat any

$_ZSt18uninitialized_fillIPddEvT_S1_RKT0_ = comdat any

$_ZNSt15__new_allocatorIdEC2ERKS0_ = comdat any

$_ZNSt20__uninitialized_fillILb1EE13__uninit_fillIPddEEvT_S3_RKT0_ = comdat any

$_ZSt4fillIPddEvT_S1_RKT0_ = comdat any

$_ZNSt12__shared_ptrIN2xt16xarray_containerINS0_7uvectorIdSaIdEEELNS0_11layout_typeE1ENS0_7svectorImLm4ESaImELb1EEENS0_22xtensor_expression_tagEEELN9__gnu_cxx12_Lock_policyE2EED2Ev = comdat any

$_ZNSt14__shared_countILN9__gnu_cxx12_Lock_policyE2EED2Ev = comdat any

$_ZNSt16_Sp_counted_baseILN9__gnu_cxx12_Lock_policyE2EE10_M_releaseEv = comdat any

$_ZN9__gnu_cxx27__exchange_and_add_dispatchEPii = comdat any

$_ZNSt16_Sp_counted_baseILN9__gnu_cxx12_Lock_policyE2EE24_M_release_last_use_coldEv = comdat any

$_ZN9__gnu_cxx20__is_single_threadedEv = comdat any

$_ZN9__gnu_cxx25__exchange_and_add_singleEPii = comdat any

$_ZN9__gnu_cxx18__exchange_and_addEPVii = comdat any

$_ZNSt16_Sp_counted_baseILN9__gnu_cxx12_Lock_policyE2EE19_M_release_last_useEv = comdat any

$_ZN2xt18xstrided_containerINS_16xarray_containerINS_7uvectorIdSaIdEEELNS_11layout_typeE1ENS_7svectorImLm4ESaImELb1EEENS_22xtensor_expression_tagEEEE6resizeIRSt6vectorImS7_EEEvOT_b = comdat any

$_ZN2xt10xcontainerINS_16xarray_containerINS_7uvectorIdSaIdEEELNS_11layout_typeE1ENS_7svectorImLm4ESaImELb1EEENS_22xtensor_expression_tagEEEE4dataEv = comdat any

$_ZNKSt6vectorImSaImEE4sizeEv = comdat any

$_ZSt5equalIN9__gnu_cxx17__normal_iteratorIPmSt6vectorImSaImEEEES2_EbT_S7_T0_ = comdat any

$_ZSt5beginISt6vectorImSaImEEEDTcldtfp_5beginEERT_ = comdat any

$_ZSt3endISt6vectorImSaImEEEDTcldtfp_3endEERT_ = comdat any

$_ZSt5beginIN2xt7svectorImLm4ESaImELb1EEEEDTcldtfp_5beginEERT_ = comdat any

$_ZN3xtl16forward_sequenceIN2xt7svectorImLm4ESaImELb1EEERSt6vectorImS3_EEEDcRNSt16remove_referenceIT0_E4typeE = comdat any

$_ZN2xt16resize_containerINS_7svectorIlLm4ESaIlELb1EEEEEbRT_NS4_9size_typeE = comdat any

$_ZN2xt15compute_stridesILNS_11layout_typeE1ENS_7svectorImLm4ESaImELb1EEENS2_IlLm4ESaIlELb1EEES6_EEmRKT0_S1_RT1_RT2_ = comdat any

$_ZN2xt6detail21resize_data_containerINS_7uvectorIdSaIdEEEmEEvRT_T0_ = comdat any

$_ZN2xt10xcontainerINS_16xarray_containerINS_7uvectorIdSaIdEEELNS_11layout_typeE1ENS_7svectorImLm4ESaImELb1EEENS_22xtensor_expression_tagEEEE7storageEv = comdat any

$_ZSt11__equal_auxIN9__gnu_cxx17__normal_iteratorIPmSt6vectorImSaImEEEES2_EbT_S7_T0_ = comdat any

$_ZSt12__equal_aux1IPmS0_EbT_S1_T0_ = comdat any

$_ZSt12__niter_baseIPmSt6vectorImSaImEEET_N9__gnu_cxx17__normal_iteratorIS4_T0_EE = comdat any

$_ZNSt7__equalILb1EE5equalImEEbPKT_S4_S4_ = comdat any

$_ZSt8__memcmpImmEiPKT_PKT0_m = comdat any

$_ZN3xtl6detail23sequence_forwarder_implIN2xt7svectorImLm4ESaImELb1EEESt6vectorImS4_EvE7forwardIS7_EEDaRKT_ = comdat any

$_ZSt5beginISt6vectorImSaImEEEDTcldtfp_5beginEERKT_ = comdat any

$_ZSt3endISt6vectorImSaImEEEDTcldtfp_3endEERKT_ = comdat any

$_ZN2xt7svectorImLm4ESaImELb1EEC2IN9__gnu_cxx17__normal_iteratorIPKmSt6vectorImS1_EEEvEET_SB_RKS1_ = comdat any

$_ZNKSt6vectorImSaImEE5beginEv = comdat any

$_ZN9__gnu_cxx17__normal_iteratorIPKmSt6vectorImSaImEEEC2ERKS2_ = comdat any

$_ZNKSt6vectorImSaImEE3endEv = comdat any

$_ZN2xt7svectorImLm4ESaImELb1EE6assignIN9__gnu_cxx17__normal_iteratorIPKmSt6vectorImS1_EEEEEvT_SB_ = comdat any

$_ZN9__gnu_cxxmiIPKmSt6vectorImSaImEEEENS_17__normal_iteratorIT_T0_E15difference_typeERKS9_SC_ = comdat any

$_ZSt18uninitialized_copyIN9__gnu_cxx17__normal_iteratorIPKmSt6vectorImSaImEEEEPmET0_T_SA_S9_ = comdat any

$_ZNK9__gnu_cxx17__normal_iteratorIPKmSt6vectorImSaImEEE4baseEv = comdat any

$_ZNSt20__uninitialized_copyILb1EE13__uninit_copyIN9__gnu_cxx17__normal_iteratorIPKmSt6vectorImSaImEEEEPmEET0_T_SC_SB_ = comdat any

$_ZSt4copyIN9__gnu_cxx17__normal_iteratorIPKmSt6vectorImSaImEEEEPmET0_T_SA_S9_ = comdat any

$_ZSt13__copy_move_aILb0EN9__gnu_cxx17__normal_iteratorIPKmSt6vectorImSaImEEEEPmET1_T0_SA_S9_ = comdat any

$_ZSt12__miter_baseIN9__gnu_cxx17__normal_iteratorIPKmSt6vectorImSaImEEEEET_S8_ = comdat any

$_ZSt14__copy_move_a1ILb0EPKmPmET1_T0_S4_S3_ = comdat any

$_ZSt12__niter_baseIPKmSt6vectorImSaImEEET_N9__gnu_cxx17__normal_iteratorIS5_T0_EE = comdat any

$_ZSt14__copy_move_a2ILb0EPKmPmET1_T0_S4_S3_ = comdat any

$_ZN2xt7svectorIlLm4ESaIlELb1EE6resizeEm = comdat any

$_ZN2xt6detail15compute_stridesILNS_11layout_typeE1ENS_7svectorImLm4ESaImELb1EEENS3_IlLm4ESaIlELb1EEEPS7_EEmRKT0_S2_RT1_T2_ = comdat any

$_ZN2xt7svectorIlLm4ESaIlELb1EEixEm = comdat any

$_ZNK2xt7svectorImLm4ESaImELb1EEixEm = comdat any

$_ZN2xt6detail13adapt_stridesINS_7svectorImLm4ESaImELb1EEENS2_IlLm4ESaIlELb1EEEPS6_EEvRKT_RT0_T1_NSB_9size_typeE = comdat any

$_ZN2xt16resize_containerINS_7uvectorIdSaIdEEEEEbRT_NS4_9size_typeE = comdat any

$_ZN2xt7uvectorIdSaIdEE6resizeEm = comdat any

$_ZN2xt7uvectorIdSaIdEE11resize_implEm = comdat any

$_ZNK2xt7uvectorIdSaIdEE4sizeEv = comdat any

$_ZN2xt6detail18safe_init_allocateISaIdEEENSt16allocator_traitsIT_E7pointerERS4_NS5_9size_typeE = comdat any

$_ZN2xt6detail23safe_destroy_deallocateISaIdEEEvRT_NSt16allocator_traitsIS3_E7pointerENS6_9size_typeE = comdat any

$_ZNR2xt10xcontainerINS_16xarray_containerINS_7uvectorIdSaIdEEELNS_11layout_typeE1ENS_7svectorImLm4ESaImELb1EEENS_22xtensor_expression_tagEEEE12derived_castEv = comdat any

$_ZN2xt16xarray_containerINS_7uvectorIdSaIdEEELNS_11layout_typeE1ENS_7svectorImLm4ESaImELb1EEENS_22xtensor_expression_tagEE12storage_implEv = comdat any

$_ZN2xt7uvectorIdSaIdEE4dataEv = comdat any

$_ZN2xt6detail14make_view_implIRNS_16xarray_containerINS_7uvectorIdSaIdEEELNS_11layout_typeE1ENS_7svectorImLm4ESaImELb1EEENS_22xtensor_expression_tagEEEJLm0EEJiEEEDaOT_St16integer_sequenceImJXspT0_EEEDpOT1_ = comdat any

$_ZN2xt24get_slice_implementationINS_16xarray_containerINS_7uvectorIdSaIdEEELNS_11layout_typeE1ENS_7svectorImLm4ESaImELb1EEENS_22xtensor_expression_tagEEEiEEDaRT_OT0_m = comdat any

$_ZN2xt6detail26get_underlying_shape_indexINS_16xarray_containerINS_7uvectorIdSaIdEEELNS_11layout_typeE1ENS_7svectorImLm4ESaImELb1EEENS_22xtensor_expression_tagEEEJiEEEmm = comdat any

$_ZN2xt5xviewIRNS_16xarray_containerINS_7uvectorIdSaIdEEELNS_11layout_typeE1ENS_7svectorImLm4ESaImELb1EEENS_22xtensor_expression_tagEEEJiEEC2ISB_lJEEEOT_OT0_DpOT1_ = comdat any

$_ZNK2xt6detail27slice_implementation_getterIiEclINS_16xarray_containerINS_7uvectorIdSaIdEEELNS_11layout_typeE1ENS_7svectorImLm4ESaImELb1EEENS_22xtensor_expression_tagEEEiEEDcRT_OT0_m = comdat any

$_ZNK2xt6detail27slice_implementation_getterIiE9get_sliceINS_16xarray_containerINS_7uvectorIdSaIdEEELNS_11layout_typeE1ENS_7svectorImLm4ESaImELb1EEENS_22xtensor_expression_tagEEEiEEDcRT_OT0_mSt17integral_constantIbLb1EE = comdat any

$_ZNK2xt17xconst_accessibleINS_16xarray_containerINS_7uvectorIdSaIdEEELNS_11layout_typeE1ENS_7svectorImLm4ESaImELb1EEENS_22xtensor_expression_tagEEEE5shapeEm = comdat any

$_ZNK2xt17xconst_accessibleINS_16xarray_containerINS_7uvectorIdSaIdEEELNS_11layout_typeE1ENS_7svectorImLm4ESaImELb1EEENS_22xtensor_expression_tagEEEE12derived_castEv = comdat any

$_ZN2xt20newaxis_count_beforeIJiEEEmm = comdat any

$_ZN2xt6detail18newaxis_count_implIiJvEE5countEm = comdat any

$_ZN2xt6detail18newaxis_count_implIvJEE5countEm = comdat any

$_ZN2xt5xviewIRNS_16xarray_containerINS_7uvectorIdSaIdEEELNS_11layout_typeE1ENS_7svectorImLm4ESaImELb1EEENS_22xtensor_expression_tagEEEJiEEC2ISB_lJEEESt17integral_constantIbLb1EEOT_OT0_DpOT1_ = comdat any

$_ZN2xt14xview_semanticINS_5xviewIRNS_16xarray_containerINS_7uvectorIdSaIdEEELNS_11layout_typeE1ENS_7svectorImLm4ESaImELb1EEENS_22xtensor_expression_tagEEEJiEEEEC2Ev = comdat any

$_ZNSt5tupleIJiEEC2IJlELb1ETnNSt9enable_ifIXclsr4_TCCIXT0_EEE29__is_implicitly_constructibleIDpT_EEEbE4typeELb1EEEDpOS3_ = comdat any

$_ZNK2xt5xviewIRNS_16xarray_containerINS_7uvectorIdSaIdEEELNS_11layout_typeE1ENS_7svectorImLm4ESaImELb1EEENS_22xtensor_expression_tagEEEJiEE13compute_shapeESt17integral_constantIbLb1EE = comdat any

$_ZNK2xt10xcontainerINS_16xarray_containerINS_7uvectorIdSaIdEEELNS_11layout_typeE1ENS_7svectorImLm4ESaImELb1EEENS_22xtensor_expression_tagEEEE7stridesEv = comdat any

$_ZN2xt13sequence_viewINS_7svectorIlLm4ESaIlELb1EEELl1ELln1EEC2ERKS3_ = comdat any

$_ZNK2xt10xcontainerINS_16xarray_containerINS_7uvectorIdSaIdEEELNS_11layout_typeE1ENS_7svectorImLm4ESaImELb1EEENS_22xtensor_expression_tagEEEE11backstridesEv = comdat any

$_ZNK2xt5xviewIRNS_16xarray_containerINS_7uvectorIdSaIdEEELNS_11layout_typeE1ENS_7svectorImLm4ESaImELb1EEENS_22xtensor_expression_tagEEEJiEE16data_offset_implIJLm0EEEEmSt16integer_sequenceImJXspT_EEE = comdat any

$_ZN2xt14xsemantic_baseINS_5xviewIRNS_16xarray_containerINS_7uvectorIdSaIdEEELNS_11layout_typeE1ENS_7svectorImLm4ESaImELb1EEENS_22xtensor_expression_tagEEEJiEEEEC2Ev = comdat any

$_ZN2xt20xsharable_expressionINS_5xviewIRNS_16xarray_containerINS_7uvectorIdSaIdEEELNS_11layout_typeE1ENS_7svectorImLm4ESaImELb1EEENS_22xtensor_expression_tagEEEJiEEEEC2Ev = comdat any

$_ZNSt10shared_ptrIN2xt5xviewIRNS0_16xarray_containerINS0_7uvectorIdSaIdEEELNS0_11layout_typeE1ENS0_7svectorImLm4ESaImELb1EEENS0_22xtensor_expression_tagEEEJiEEEEC2EDn = comdat any

$_ZNSt10shared_ptrIN2xt5xviewIRNS0_16xarray_containerINS0_7uvectorIdSaIdEEELNS0_11layout_typeE1ENS0_7svectorImLm4ESaImELb1EEENS0_22xtensor_expression_tagEEEJiEEEEC2Ev = comdat any

$_ZNSt12__shared_ptrIN2xt5xviewIRNS0_16xarray_containerINS0_7uvectorIdSaIdEEELNS0_11layout_typeE1ENS0_7svectorImLm4ESaImELb1EEENS0_22xtensor_expression_tagEEEJiEEELN9__gnu_cxx12_Lock_policyE2EEC2Ev = comdat any

$_ZNSt11_Tuple_implILm0EJiEEC2IlEEOT_ = comdat any

$_ZNSt10_Head_baseILm0EiLb0EEC2IlEEOT_ = comdat any

$_ZN2xt13sequence_viewINS_7svectorImLm4ESaImELb1EEELl1ELln1EEC2ERKS3_ = comdat any

$_ZNK2xt18xstrided_containerINS_16xarray_containerINS_7uvectorIdSaIdEEELNS_11layout_typeE1ENS_7svectorImLm4ESaImELb1EEENS_22xtensor_expression_tagEEEE12strides_implEv = comdat any

$_ZNK2xt18xstrided_containerINS_16xarray_containerINS_7uvectorIdSaIdEEELNS_11layout_typeE1ENS_7svectorImLm4ESaImELb1EEENS_22xtensor_expression_tagEEEE16backstrides_implEv = comdat any

$_ZN2xt5valueIiiEENSt9enable_ifIXntsr9is_xsliceIT_EE5valueEmE4typeERKS2_T0_ = comdat any

$_ZSt3getILm0EJiEERKNSt13tuple_elementIXT_ESt5tupleIJDpT0_EEE4typeERKS4_ = comdat any

$_ZNSt5arrayIlLm1EEixEm = comdat any

$_ZNK2xt7svectorIlLm4ESaIlELb1EEixEm = comdat any

$_ZNK2xt10xcontainerINS_16xarray_containerINS_7uvectorIdSaIdEEELNS_11layout_typeE1ENS_7svectorImLm4ESaImELb1EEENS_22xtensor_expression_tagEEEE11data_offsetEv = comdat any

$_ZSt12__get_helperILm0EiJEERKT0_RKSt11_Tuple_implIXT_EJS0_DpT1_EE = comdat any

$_ZNSt11_Tuple_implILm0EJiEE7_M_headERKS0_ = comdat any

$_ZNSt10_Head_baseILm0EiLb0EE7_M_headERKS0_ = comdat any

$_ZNSt14__array_traitsIlLm1EE6_S_refERA1_Klm = comdat any

$_ZSt13__copy_move_aILb0EPdSt20back_insert_iteratorISt6vectorIdSaIdEEEET1_T0_S7_S6_ = comdat any

$_ZSt12__miter_baseIPdET_S1_ = comdat any

$_ZSt12__niter_wrapISt20back_insert_iteratorISt6vectorIdSaIdEEEET_RKS5_S5_ = comdat any

$_ZSt14__copy_move_a1ILb0EPdSt20back_insert_iteratorISt6vectorIdSaIdEEEET1_T0_S7_S6_ = comdat any

$_ZSt12__niter_baseISt20back_insert_iteratorISt6vectorIdSaIdEEEET_S5_ = comdat any

$_ZSt14__copy_move_a2ILb0EPdSt20back_insert_iteratorISt6vectorIdSaIdEEEET1_T0_S7_S6_ = comdat any

$_ZNSt11__copy_moveILb0ELb0ESt26random_access_iterator_tagE8__copy_mIPdSt20back_insert_iteratorISt6vectorIdSaIdEEEEET0_T_SA_S9_ = comdat any

$_ZNSt20back_insert_iteratorISt6vectorIdSaIdEEEdeEv = comdat any

$_ZNSt20back_insert_iteratorISt6vectorIdSaIdEEEaSERKd = comdat any

$_ZNSt20back_insert_iteratorISt6vectorIdSaIdEEEppEv = comdat any

$_ZNSt6vectorIdSaIdEE9push_backERKd = comdat any

$_ZNSt16allocator_traitsISaIdEE9constructIdJRKdEEEvRS0_PT_DpOT0_ = comdat any

$_ZNSt6vectorIdSaIdEE17_M_realloc_insertIJRKdEEEvN9__gnu_cxx17__normal_iteratorIPdS1_EEDpOT_ = comdat any

$_ZNSt6vectorIdSaIdEE3endEv = comdat any

$_ZNSt15__new_allocatorIdE9constructIdJRKdEEEvPT_DpOT0_ = comdat any

$_ZN9__gnu_cxxmiIPdSt6vectorIdSaIdEEEENS_17__normal_iteratorIT_T0_E15difference_typeERKS8_SB_ = comdat any

$_ZNSt6vectorIdSaIdEE5beginEv = comdat any

$_ZNK9__gnu_cxx17__normal_iteratorIPdSt6vectorIdSaIdEEE4baseEv = comdat any

$_ZN9__gnu_cxx17__normal_iteratorIPdSt6vectorIdSaIdEEEC2ERKS1_ = comdat any

$_ZN3xtl3mpl9static_ifILb1EZN2xt20xcontiguous_iterableINS2_5xviewIRNS2_16xarray_containerINS2_7uvectorIdSaIdEEELNS2_11layout_typeE1ENS2_7svectorImLm4ESaImELb1EEENS2_22xtensor_expression_tagEEEJiEEEE5beginILS9_1EEENSt11conditionalIXeqT_L_ZNSH_13static_layoutEEEPdNS2_9xiteratorINS2_8xstepperISG_EEPNS2_13sequence_viewISC_Ll1ELln1EEEXT_EEEE4typeEvEUlT_E_ZNSI_ILS9_1EEEST_vEUlSU_E0_EEDcRKT0_RKT1_ = comdat any

$_ZN3xtl3mpl9static_ifIZN2xt20xcontiguous_iterableINS2_5xviewIRNS2_16xarray_containerINS2_7uvectorIdSaIdEEELNS2_11layout_typeE1ENS2_7svectorImLm4ESaImELb1EEENS2_22xtensor_expression_tagEEEJiEEEE5beginILS9_1EEENSt11conditionalIXeqT_L_ZNSH_13static_layoutEEEPdNS2_9xiteratorINS2_8xstepperISG_EEPNS2_13sequence_viewISC_Ll1ELln1EEEXT_EEEE4typeEvEUlT_E_ZNSI_ILS9_1EEEST_vEUlSU_E0_EEDcSt17integral_constantIbLb1EERKSU_RKT0_ = comdat any

$_ZZN2xt20xcontiguous_iterableINS_5xviewIRNS_16xarray_containerINS_7uvectorIdSaIdEEELNS_11layout_typeE1ENS_7svectorImLm4ESaImELb1EEENS_22xtensor_expression_tagEEEJiEEEE5beginILS6_1EEENSt11conditionalIXeqT_L_ZNSE_13static_layoutEEEPdNS_9xiteratorINS_8xstepperISD_EEPNS_13sequence_viewIS9_Ll1ELln1EEEXT_EEEE4typeEvENKUlT_E_clIN3xtl8identityEEEDaSR_ = comdat any

$_ZNK3xtl8identityclIRN2xt20xcontiguous_iterableINS2_5xviewIRNS2_16xarray_containerINS2_7uvectorIdSaIdEEELNS2_11layout_typeE1ENS2_7svectorImLm4ESaImELb1EEENS2_22xtensor_expression_tagEEEJiEEEEEEEOT_SK_ = comdat any

$_ZN2xt20xcontiguous_iterableINS_5xviewIRNS_16xarray_containerINS_7uvectorIdSaIdEEELNS_11layout_typeE1ENS_7svectorImLm4ESaImELb1EEENS_22xtensor_expression_tagEEEJiEEEE12derived_castEv = comdat any

$_ZN2xt5xviewIRNS_16xarray_containerINS_7uvectorIdSaIdEEELNS_11layout_typeE1ENS_7svectorImLm4ESaImELb1EEENS_22xtensor_expression_tagEEEJiEE13storage_beginISA_EENSt9enable_ifIXaasr18has_data_interfaceIT_EE5valueL_ZNSC_15is_strided_viewEEEPdE4typeEv = comdat any

$_ZN2xt7uvectorIdSaIdEE5beginEv = comdat any

$_ZNK2xt5xviewIRNS_16xarray_containerINS_7uvectorIdSaIdEEELNS_11layout_typeE1ENS_7svectorImLm4ESaImELb1EEENS_22xtensor_expression_tagEEEJiEE11data_offsetISA_EENSt9enable_ifIXaasr18has_data_interfaceIT_EE5valueL_ZNSC_15is_strided_viewEEEmE4typeEv = comdat any

$_ZNK2xt5xviewIRNS_16xarray_containerINS_7uvectorIdSaIdEEELNS_11layout_typeE1ENS_7svectorImLm4ESaImELb1EEENS_22xtensor_expression_tagEEEJiEE15compute_stridesESt17integral_constantIbLb1EE = comdat any

$_ZN3xtl3mpl9static_ifILb1EZN2xt20xcontiguous_iterableINS2_5xviewIRNS2_16xarray_containerINS2_7uvectorIdSaIdEEELNS2_11layout_typeE1ENS2_7svectorImLm4ESaImELb1EEENS2_22xtensor_expression_tagEEEJiEEEE3endILS9_1EEENSt11conditionalIXeqT_L_ZNSH_13static_layoutEEEPdNS2_9xiteratorINS2_8xstepperISG_EEPNS2_13sequence_viewISC_Ll1ELln1EEEXT_EEEE4typeEvEUlT_E_ZNSI_ILS9_1EEEST_vEUlSU_E0_EEDcRKT0_RKT1_ = comdat any

$_ZN3xtl3mpl9static_ifIZN2xt20xcontiguous_iterableINS2_5xviewIRNS2_16xarray_containerINS2_7uvectorIdSaIdEEELNS2_11layout_typeE1ENS2_7svectorImLm4ESaImELb1EEENS2_22xtensor_expression_tagEEEJiEEEE3endILS9_1EEENSt11conditionalIXeqT_L_ZNSH_13static_layoutEEEPdNS2_9xiteratorINS2_8xstepperISG_EEPNS2_13sequence_viewISC_Ll1ELln1EEEXT_EEEE4typeEvEUlT_E_ZNSI_ILS9_1EEEST_vEUlSU_E0_EEDcSt17integral_constantIbLb1EERKSU_RKT0_ = comdat any

$_ZZN2xt20xcontiguous_iterableINS_5xviewIRNS_16xarray_containerINS_7uvectorIdSaIdEEELNS_11layout_typeE1ENS_7svectorImLm4ESaImELb1EEENS_22xtensor_expression_tagEEEJiEEEE3endILS6_1EEENSt11conditionalIXeqT_L_ZNSE_13static_layoutEEEPdNS_9xiteratorINS_8xstepperISD_EEPNS_13sequence_viewIS9_Ll1ELln1EEEXT_EEEE4typeEvENKUlT_E_clIN3xtl8identityEEEDaSR_ = comdat any

$_ZN2xt5xviewIRNS_16xarray_containerINS_7uvectorIdSaIdEEELNS_11layout_typeE1ENS_7svectorImLm4ESaImELb1EEENS_22xtensor_expression_tagEEEJiEE11storage_endISA_EENSt9enable_ifIXaasr18has_data_interfaceIT_EE5valueL_ZNSC_15is_strided_viewEEEPdE4typeEv = comdat any

$_ZNK2xt17xconst_accessibleINS_5xviewIRNS_16xarray_containerINS_7uvectorIdSaIdEEELNS_11layout_typeE1ENS_7svectorImLm4ESaImELb1EEENS_22xtensor_expression_tagEEEJiEEEE4sizeEv = comdat any

$_ZN2xt12compute_sizeINS_13sequence_viewINS_7svectorImLm4ESaImELb1EEELl1ELln1EEEEEmRKT_ = comdat any

$_ZNK2xt17xconst_accessibleINS_5xviewIRNS_16xarray_containerINS_7uvectorIdSaIdEEELNS_11layout_typeE1ENS_7svectorImLm4ESaImELb1EEENS_22xtensor_expression_tagEEEJiEEEE12derived_castEv = comdat any

$_ZNK2xt5xviewIRNS_16xarray_containerINS_7uvectorIdSaIdEEELNS_11layout_typeE1ENS_7svectorImLm4ESaImELb1EEENS_22xtensor_expression_tagEEEJiEE5shapeEv = comdat any

$_ZN2xt6detail17compute_size_implINS_13sequence_viewINS_7svectorImLm4ESaImELb1EEELl1ELln1EEEEEmRKT_St17integral_constantIbLb0EE = comdat any

$_ZSt10accumulateIPKmmSt10multipliesImEET0_T_S5_S4_T1_ = comdat any

$_ZNK2xt13sequence_viewINS_7svectorImLm4ESaImELb1EEELl1ELln1EE6cbeginEv = comdat any

$_ZNK2xt13sequence_viewINS_7svectorImLm4ESaImELb1EEELl1ELln1EE4cendEv = comdat any

$_ZNKSt10multipliesImEclERKmS2_ = comdat any

$_ZNK2xt13sequence_viewINS_7svectorImLm4ESaImELb1EEELl1ELln1EE5beginEv = comdat any

$_ZNK2xt7svectorImLm4ESaImELb1EE5beginEv = comdat any

$_ZNK2xt13sequence_viewINS_7svectorImLm4ESaImELb1EEELl1ELln1EE3endEv = comdat any

$_ZNK2xt7svectorImLm4ESaImELb1EE3endEv = comdat any

$_ZNSt20back_insert_iteratorISt6vectorIdSaIdEEEC2ERS2_ = comdat any

$_ZNSt12__shared_ptrIN2xt5xviewIRNS0_16xarray_containerINS0_7uvectorIdSaIdEEELNS0_11layout_typeE1ENS0_7svectorImLm4ESaImELb1EEENS0_22xtensor_expression_tagEEEJiEEELN9__gnu_cxx12_Lock_policyE2EED2Ev = comdat any

$_ZN2xt7uvectorIdSaIdEED2Ev = comdat any

$_ZNSt12_Vector_baseIiSaIiEED2Ev = comdat any

$_ZNSt15__new_allocatorIiED2Ev = comdat any

$_ZSt8_DestroyIPN6openmc13InterpolationES1_EvT_S3_RSaIT0_E = comdat any

$_ZNSt12_Vector_baseIN6openmc13InterpolationESaIS1_EED2Ev = comdat any

$_ZSt8_DestroyIPN6openmc13InterpolationEEvT_S3_ = comdat any

$_ZNSt12_Destroy_auxILb1EE9__destroyIPN6openmc13InterpolationEEEvT_S5_ = comdat any

$_ZNSt15__new_allocatorIN6openmc13InterpolationEED2Ev = comdat any

$_ZNKSt6vectorIdSaIdEEixEm = comdat any

$_ZN6openmc17lower_bound_indexIN9__gnu_cxx17__normal_iteratorIPKdSt6vectorIdSaIdEEEEdEENSt15iterator_traitsIT_E15difference_typeESA_SA_RKT0_ = comdat any

$_ZNKSt6vectorIN6openmc13InterpolationESaIS1_EEixEm = comdat any

$_ZNKSt6vectorIiSaIiEEixEm = comdat any

$_ZN9__gnu_cxxmiIPKdSt6vectorIdSaIdEEEENS_17__normal_iteratorIT_T0_E15difference_typeERKS9_SC_ = comdat any

$_ZSt11lower_boundIN9__gnu_cxx17__normal_iteratorIPKdSt6vectorIdSaIdEEEEdET_S8_S8_RKT0_ = comdat any

$_ZSt13__lower_boundIN9__gnu_cxx17__normal_iteratorIPKdSt6vectorIdSaIdEEEEdNS0_5__ops14_Iter_less_valEET_SA_SA_RKT0_T1_ = comdat any

$_ZN9__gnu_cxx5__ops15__iter_less_valEv = comdat any

$_ZSt8distanceIN9__gnu_cxx17__normal_iteratorIPKdSt6vectorIdSaIdEEEEENSt15iterator_traitsIT_E15difference_typeES9_S9_ = comdat any

$_ZSt7advanceIN9__gnu_cxx17__normal_iteratorIPKdSt6vectorIdSaIdEEEElEvRT_T0_ = comdat any

$_ZNK9__gnu_cxx5__ops14_Iter_less_valclINS_17__normal_iteratorIPKdSt6vectorIdSaIdEEEES4_EEbT_RT0_ = comdat any

$_ZN9__gnu_cxx17__normal_iteratorIPKdSt6vectorIdSaIdEEEppEv = comdat any

$_ZSt10__distanceIN9__gnu_cxx17__normal_iteratorIPKdSt6vectorIdSaIdEEEEENSt15iterator_traitsIT_E15difference_typeES9_S9_St26random_access_iterator_tag = comdat any

$_ZSt19__iterator_categoryIN9__gnu_cxx17__normal_iteratorIPKdSt6vectorIdSaIdEEEEENSt15iterator_traitsIT_E17iterator_categoryERKS9_ = comdat any

$_ZSt9__advanceIN9__gnu_cxx17__normal_iteratorIPKdSt6vectorIdSaIdEEEElEvRT_T0_St26random_access_iterator_tag = comdat any

$_ZN9__gnu_cxx17__normal_iteratorIPKdSt6vectorIdSaIdEEEpLEl = comdat any

$_ZN6openmc10DataBuffer3addIiEEvRKSt6vectorIT_SaIS3_EE = comdat any

$_ZNKSt6vectorIN6openmc13InterpolationESaIS1_EE5beginEv = comdat any

$_ZNKSt6vectorIN6openmc13InterpolationESaIS1_EE3endEv = comdat any

$_ZN9__gnu_cxxneIPKN6openmc13InterpolationESt6vectorIS2_SaIS2_EEEEbRKNS_17__normal_iteratorIT_T0_EESD_ = comdat any

$_ZNK9__gnu_cxx17__normal_iteratorIPKN6openmc13InterpolationESt6vectorIS2_SaIS2_EEEdeEv = comdat any

$_ZNSt6vectorIiSaIiEE9push_backEOi = comdat any

$_ZN9__gnu_cxx17__normal_iteratorIPKN6openmc13InterpolationESt6vectorIS2_SaIS2_EEEppEv = comdat any

$_ZN6openmc10DataBuffer3addImEENSt9enable_ifIXsr3std9is_scalarINSt5decayIT_E4typeEEE5valueEvE4typeES4_ = comdat any

$_ZNKSt6vectorIiSaIiEE4dataEv = comdat any

$_ZN9__gnu_cxx17__normal_iteratorIPKN6openmc13InterpolationESt6vectorIS2_SaIS2_EEEC2ERKS4_ = comdat any

$_ZNK9__gnu_cxx17__normal_iteratorIPKN6openmc13InterpolationESt6vectorIS2_SaIS2_EEE4baseEv = comdat any

$_ZNSt6vectorIiSaIiEE12emplace_backIJiEEERiDpOT_ = comdat any

$_ZNSt16allocator_traitsISaIiEE9constructIiJiEEEvRS0_PT_DpOT0_ = comdat any

$_ZNSt6vectorIiSaIiEE17_M_realloc_insertIJiEEEvN9__gnu_cxx17__normal_iteratorIPiS1_EEDpOT_ = comdat any

$_ZNSt6vectorIiSaIiEE4backEv = comdat any

$_ZNSt15__new_allocatorIiE9constructIiJiEEEvPT_DpOT0_ = comdat any

$_ZN9__gnu_cxxmiIPiSt6vectorIiSaIiEEEENS_17__normal_iteratorIT_T0_E15difference_typeERKS8_SB_ = comdat any

$_ZNK9__gnu_cxx17__normal_iteratorIPiSt6vectorIiSaIiEEEmiEl = comdat any

$_ZNK3gsl4spanIKdEixEm = comdat any

$_ZN6openmc17lower_bound_indexIPKddEENSt15iterator_traitsIT_E15difference_typeES4_S4_RKT0_ = comdat any

$_ZNK3gsl4spanIKiEixEm = comdat any

$_ZSt11lower_boundIPKddET_S2_S2_RKT0_ = comdat any

$_ZSt13__lower_boundIPKddN9__gnu_cxx5__ops14_Iter_less_valEET_S5_S5_RKT0_T1_ = comdat any

$_ZSt8distanceIPKdENSt15iterator_traitsIT_E15difference_typeES3_S3_ = comdat any

$_ZSt7advanceIPKdlEvRT_T0_ = comdat any

$_ZNK9__gnu_cxx5__ops14_Iter_less_valclIPKdS3_EEbT_RT0_ = comdat any

$_ZSt10__distanceIPKdENSt15iterator_traitsIT_E15difference_typeES3_S3_St26random_access_iterator_tag = comdat any

$_ZSt19__iterator_categoryIPKdENSt15iterator_traitsIT_E17iterator_categoryERKS3_ = comdat any

$_ZSt9__advanceIPKdlEvRT_T0_St26random_access_iterator_tag = comdat any

$_ZN3gsl4spanIKiEC2EPS1_m = comdat any

$_ZN6openmc12read_datasetIdLm2EEEvlPKcRSt5arrayIT_XT0_EEb = comdat any

$_ZNSt5arrayIdLm2EEixEm = comdat any

$_ZNSt5arrayIdLm2EE4dataEv = comdat any

$_ZNSt14__array_traitsIdLm2EE6_S_ptrERA2_Kd = comdat any

$_ZNSt14__array_traitsIdLm2EE6_S_refERA2_Kdm = comdat any

$_ZN6openmc10DataBuffer3addIdEENSt9enable_ifIXsr3std9is_scalarINSt5decayIT_E4typeEEE5valueEvE4typeES4_ = comdat any

$_ZNK6openmc23IncoherentElasticXSFlat12debye_wallerEv = comdat any

$_ZNK6openmc23IncoherentElasticXSFlat8bound_xsEv = comdat any

$_ZTIN6openmc10Function1DE = comdat any

$_ZTSN6openmc10Function1DE = comdat any

$_ZTVN6openmc10Function1DE = comdat any

@dagmc = external global i8, align 1
@run_CE = external global i8, align 1
@max_lost_particles = external global i32, align 4
@gen_per_batch = external global i32, align 4
@n_particles = external global i64, align 8
@_ZTVN6openmc10PolynomialE = unnamed_addr constant { [6 x ptr] } { [6 x ptr] [ptr null, ptr @_ZTIN6openmc10PolynomialE, ptr @_ZNK6openmc10PolynomialclEd, ptr @_ZN6openmc10PolynomialD2Ev, ptr @_ZN6openmc10PolynomialD0Ev, ptr @_ZNK6openmc10Polynomial9serializeERNS_10DataBufferE] }, align 8
@_ZTIN6openmc10PolynomialE = constant { ptr, ptr, ptr } { ptr getelementptr inbounds (ptr, ptr @_ZTVN10__cxxabiv120__si_class_type_infoE, i64 2), ptr @_ZTSN6openmc10PolynomialE, ptr @_ZTIN6openmc10Function1DE }, align 8
@_ZTVN10__cxxabiv120__si_class_type_infoE = external global [0 x ptr]
@_ZTSN6openmc10PolynomialE = constant [22 x i8] c"N6openmc10PolynomialE\00", align 1
@_ZTIN6openmc10Function1DE = linkonce_odr constant { ptr, ptr } { ptr getelementptr inbounds (ptr, ptr @_ZTVN10__cxxabiv117__class_type_infoE, i64 2), ptr @_ZTSN6openmc10Function1DE }, comdat, align 8
@_ZTVN10__cxxabiv117__class_type_infoE = external global [0 x ptr]
@_ZTSN6openmc10Function1DE = linkonce_odr constant [22 x i8] c"N6openmc10Function1DE\00", comdat, align 1
@_ZTVN6openmc11Tabulated1DE = unnamed_addr constant { [6 x ptr] } { [6 x ptr] [ptr null, ptr @_ZTIN6openmc11Tabulated1DE, ptr @_ZNK6openmc11Tabulated1DclEd, ptr @_ZN6openmc11Tabulated1DD2Ev, ptr @_ZN6openmc11Tabulated1DD0Ev, ptr @_ZNK6openmc11Tabulated1D9serializeERNS_10DataBufferE] }, align 8
@_ZTIN6openmc11Tabulated1DE = constant { ptr, ptr, ptr } { ptr getelementptr inbounds (ptr, ptr @_ZTVN10__cxxabiv120__si_class_type_infoE, i64 2), ptr @_ZTSN6openmc11Tabulated1DE, ptr @_ZTIN6openmc10Function1DE }, align 8
@_ZTSN6openmc11Tabulated1DE = constant [23 x i8] c"N6openmc11Tabulated1DE\00", align 1
@_ZTVN6openmc17CoherentElasticXSE = unnamed_addr constant { [6 x ptr] } { [6 x ptr] [ptr null, ptr @_ZTIN6openmc17CoherentElasticXSE, ptr @_ZNK6openmc17CoherentElasticXSclEd, ptr @_ZN6openmc17CoherentElasticXSD2Ev, ptr @_ZN6openmc17CoherentElasticXSD0Ev, ptr @_ZNK6openmc17CoherentElasticXS9serializeERNS_10DataBufferE] }, align 8
@_ZTIN6openmc17CoherentElasticXSE = constant { ptr, ptr, ptr } { ptr getelementptr inbounds (ptr, ptr @_ZTVN10__cxxabiv120__si_class_type_infoE, i64 2), ptr @_ZTSN6openmc17CoherentElasticXSE, ptr @_ZTIN6openmc10Function1DE }, align 8
@_ZTSN6openmc17CoherentElasticXSE = constant [29 x i8] c"N6openmc17CoherentElasticXSE\00", align 1
@_ZTVN6openmc19IncoherentElasticXSE = unnamed_addr constant { [6 x ptr] } { [6 x ptr] [ptr null, ptr @_ZTIN6openmc19IncoherentElasticXSE, ptr @_ZNK6openmc19IncoherentElasticXSclEd, ptr @_ZN6openmc10Function1DD2Ev, ptr @_ZN6openmc19IncoherentElasticXSD0Ev, ptr @_ZNK6openmc19IncoherentElasticXS9serializeERNS_10DataBufferE] }, align 8
@_ZTIN6openmc19IncoherentElasticXSE = constant { ptr, ptr, ptr } { ptr getelementptr inbounds (ptr, ptr @_ZTVN10__cxxabiv120__si_class_type_infoE, i64 2), ptr @_ZTSN6openmc19IncoherentElasticXSE, ptr @_ZTIN6openmc10Function1DE }, align 8
@_ZTSN6openmc19IncoherentElasticXSE = constant [31 x i8] c"N6openmc19IncoherentElasticXSE\00", align 1
@_ZN6openmcL12DEPLETION_RXE = internal constant %"struct.std::array" { [6 x i32] [i32 102, i32 103, i32 107, i32 16, i32 17, i32 37] }, align 4
@_ZStL8__ioinit = internal global %"class.std::ios_base::Init" zeroinitializer, align 1
@__dso_handle = external hidden global i8
@.str = private unnamed_addr constant [28 x i8] c"Invalid interpolation code.\00", align 1
@_ZTISt13runtime_error = external constant ptr
@.str.1 = private unnamed_addr constant [5 x i8] c"type\00", align 1
@.str.2 = private unnamed_addr constant [12 x i8] c"Tabulated1D\00", align 1
@.str.3 = private unnamed_addr constant [11 x i8] c"Polynomial\00", align 1
@.str.4 = private unnamed_addr constant [16 x i8] c"CoherentElastic\00", align 1
@.str.5 = private unnamed_addr constant [18 x i8] c"IncoherentElastic\00", align 1
@.str.6 = private unnamed_addr constant [23 x i8] c"Unknown function type \00", align 1
@.str.7 = private unnamed_addr constant [14 x i8] c" for dataset \00", align 1
@.str.8 = private unnamed_addr constant [50 x i8] c"basic_string: construction from null is not valid\00", align 1
@.str.9 = private unnamed_addr constant [22 x i8] c"basic_string::replace\00", align 1
@.str.10 = private unnamed_addr constant [55 x i8] c"%s: __pos (which is %zu) > this->size() (which is %zu)\00", align 1
@.str.11 = private unnamed_addr constant [21 x i8] c"basic_string::append\00", align 1
@_ZTVN6openmc10Function1DE = linkonce_odr unnamed_addr constant { [6 x ptr] } { [6 x ptr] [ptr null, ptr @_ZTIN6openmc10Function1DE, ptr @__cxa_pure_virtual, ptr @_ZN6openmc10Function1DD2Ev, ptr @_ZN6openmc10Function1DD0Ev, ptr @__cxa_pure_virtual] }, comdat, align 8
@_ZN6openmc9H5TypeMapIdE7type_idE = external constant i64, align 8
@.str.12 = private unnamed_addr constant [26 x i8] c"vector::_M_default_append\00", align 1
@.str.13 = private unnamed_addr constant [12 x i8] c"breakpoints\00", align 1
@.str.14 = private unnamed_addr constant [14 x i8] c"interpolation\00", align 1
@_ZN6openmc9H5TypeMapIiE7type_idE = external constant i64, align 8
@.str.15 = private unnamed_addr constant [26 x i8] c"vector::_M_realloc_insert\00", align 1
@_ZZL18__gthread_active_pvE20__gthread_active_ptr = internal constant ptr @__pthread_key_create, align 8
@.str.16 = private unnamed_addr constant [30 x i8] c"Invalid interpolation scheme.\00", align 1
@llvm.global_ctors = appending global [1 x { i32, ptr, ptr }] [{ i32, ptr, ptr } { i32 65535, ptr @_GLOBAL__sub_I_endf.cpp, ptr null }]

@_ZN6openmc10PolynomialC1El = unnamed_addr alias void (ptr, i64), ptr @_ZN6openmc10PolynomialC2El
@_ZN6openmc11Tabulated1DC1El = unnamed_addr alias void (ptr, i64), ptr @_ZN6openmc11Tabulated1DC2El
@_ZN6openmc15Tabulated1DFlatC1EPKh = unnamed_addr alias void (ptr, ptr), ptr @_ZN6openmc15Tabulated1DFlatC2EPKh
@_ZN6openmc17CoherentElasticXSC1El = unnamed_addr alias void (ptr, i64), ptr @_ZN6openmc17CoherentElasticXSC2El
@_ZN6openmc19IncoherentElasticXSC1El = unnamed_addr alias void (ptr, i64), ptr @_ZN6openmc19IncoherentElasticXSC2El

; Function Attrs: mustprogress uwtable
define noundef double @_ZNK6openmc10PolynomialclEd(ptr noundef nonnull align 8 dereferenceable(32) %this, double noundef %x) unnamed_addr #0 align 2 {
entry:
  %this.addr = alloca ptr, align 8
  %x.addr = alloca double, align 8
  %y = alloca double, align 8
  %c = alloca %"class.std::reverse_iterator", align 8
  %ref.tmp = alloca %"class.std::reverse_iterator", align 8
  store ptr %this, ptr %this.addr, align 8, !tbaa !11
  store double %x, ptr %x.addr, align 8, !tbaa !16
  %this1 = load ptr, ptr %this.addr, align 8
  call void @llvm.lifetime.start.p0(i64 8, ptr %y) #6
  store double 0.000000e+00, ptr %y, align 8, !tbaa !16
  call void @llvm.lifetime.start.p0(i64 8, ptr %c) #6
  %coef_ = getelementptr inbounds nuw %"class.openmc::Polynomial", ptr %this1, i32 0, i32 1
  call void @_ZNKSt6vectorIdSaIdEE7crbeginEv(ptr dead_on_unwind writable sret(%"class.std::reverse_iterator") align 8 %c, ptr noundef nonnull align 8 dereferenceable(24) %coef_) #6
  br label %for.cond

for.cond:                                         ; preds = %for.inc, %entry
  call void @llvm.lifetime.start.p0(i64 8, ptr %ref.tmp) #6
  %coef_2 = getelementptr inbounds nuw %"class.openmc::Polynomial", ptr %this1, i32 0, i32 1
  call void @_ZNKSt6vectorIdSaIdEE5crendEv(ptr dead_on_unwind writable sret(%"class.std::reverse_iterator") align 8 %ref.tmp, ptr noundef nonnull align 8 dereferenceable(24) %coef_2) #6
  %call = call noundef zeroext i1 @_ZStneIN9__gnu_cxx17__normal_iteratorIPKdSt6vectorIdSaIdEEEEEbRKSt16reverse_iteratorIT_ESC_(ptr noundef nonnull align 8 dereferenceable(8) %c, ptr noundef nonnull align 8 dereferenceable(8) %ref.tmp)
  call void @llvm.lifetime.end.p0(i64 8, ptr %ref.tmp) #6
  br i1 %call, label %for.body, label %for.cond.cleanup

for.cond.cleanup:                                 ; preds = %for.cond
  call void @llvm.lifetime.end.p0(i64 8, ptr %c) #6
  br label %for.end

for.body:                                         ; preds = %for.cond
  %0 = load double, ptr %y, align 8, !tbaa !16
  %1 = load double, ptr %x.addr, align 8, !tbaa !16
  %call3 = call noundef nonnull align 8 dereferenceable(8) ptr @_ZNKSt16reverse_iteratorIN9__gnu_cxx17__normal_iteratorIPKdSt6vectorIdSaIdEEEEEdeEv(ptr noundef nonnull align 8 dereferenceable(8) %c)
  %2 = load double, ptr %call3, align 8, !tbaa !16
  %3 = call double @llvm.fmuladd.f64(double %0, double %1, double %2)
  store double %3, ptr %y, align 8, !tbaa !16
  br label %for.inc

for.inc:                                          ; preds = %for.body
  %call4 = call noundef nonnull align 8 dereferenceable(8) ptr @_ZNSt16reverse_iteratorIN9__gnu_cxx17__normal_iteratorIPKdSt6vectorIdSaIdEEEEEppEv(ptr noundef nonnull align 8 dereferenceable(8) %c)
  br label %for.cond, !llvm.loop !18

for.end:                                          ; preds = %for.cond.cleanup
  %4 = load double, ptr %y, align 8, !tbaa !16
  call void @llvm.lifetime.end.p0(i64 8, ptr %y) #6
  ret double %4
}

; Function Attrs: inlinehint mustprogress nounwind uwtable
define linkonce_odr void @_ZN6openmc10PolynomialD2Ev(ptr noundef nonnull align 8 dereferenceable(32) %this) unnamed_addr #1 comdat align 2 {
entry:
  %this.addr = alloca ptr, align 8
  store ptr %this, ptr %this.addr, align 8, !tbaa !11
  %this1 = load ptr, ptr %this.addr, align 8
  store ptr getelementptr inbounds inrange(-16, 32) ({ [6 x ptr] }, ptr @_ZTVN6openmc10PolynomialE, i32 0, i32 0, i32 2), ptr %this1, align 8, !tbaa !20
  %coef_ = getelementptr inbounds nuw %"class.openmc::Polynomial", ptr %this1, i32 0, i32 1
  call void @_ZNSt6vectorIdSaIdEED2Ev(ptr noundef nonnull align 8 dereferenceable(24) %coef_) #6
  call void @_ZN6openmc10Function1DD2Ev(ptr noundef nonnull align 8 dereferenceable(8) %this1) #6
  ret void
}

; Function Attrs: inlinehint mustprogress nounwind uwtable
define linkonce_odr void @_ZN6openmc10PolynomialD0Ev(ptr noundef nonnull align 8 dereferenceable(32) %this) unnamed_addr #1 comdat align 2 {
entry:
  %this.addr = alloca ptr, align 8
  store ptr %this, ptr %this.addr, align 8, !tbaa !11
  %this1 = load ptr, ptr %this.addr, align 8
  call void @_ZN6openmc10PolynomialD2Ev(ptr noundef nonnull align 8 dereferenceable(32) %this1) #6
  call void @_ZdlPvm(ptr noundef %this1, i64 noundef 32) #23
  ret void
}

; Function Attrs: mustprogress uwtable
define void @_ZNK6openmc10Polynomial9serializeERNS_10DataBufferE(ptr noundef nonnull align 8 dereferenceable(32) %this, ptr noundef nonnull align 8 dereferenceable(28) %buffer) unnamed_addr #0 align 2 {
entry:
  %this.addr = alloca ptr, align 8
  %buffer.addr = alloca ptr, align 8
  store ptr %this, ptr %this.addr, align 8, !tbaa !11
  store ptr %buffer, ptr %buffer.addr, align 8, !tbaa !22
  %this1 = load ptr, ptr %this.addr, align 8
  %0 = load ptr, ptr %buffer.addr, align 8, !tbaa !22
  call void @_ZN6openmc10DataBuffer3addIiEENSt9enable_ifIXsr3std9is_scalarINSt5decayIT_E4typeEEE5valueEvE4typeES4_(ptr noundef nonnull align 8 dereferenceable(28) %0, i32 noundef 0)
  %1 = load ptr, ptr %buffer.addr, align 8, !tbaa !22
  %coef_ = getelementptr inbounds nuw %"class.openmc::Polynomial", ptr %this1, i32 0, i32 1
  %call = call noundef i64 @_ZNKSt6vectorIdSaIdEE4sizeEv(ptr noundef nonnull align 8 dereferenceable(24) %coef_) #6
  %conv = trunc i64 %call to i32
  call void @_ZN6openmc10DataBuffer3addIiEENSt9enable_ifIXsr3std9is_scalarINSt5decayIT_E4typeEEE5valueEvE4typeES4_(ptr noundef nonnull align 8 dereferenceable(28) %1, i32 noundef %conv)
  %2 = load ptr, ptr %buffer.addr, align 8, !tbaa !22
  %coef_2 = getelementptr inbounds nuw %"class.openmc::Polynomial", ptr %this1, i32 0, i32 1
  call void @_ZN6openmc10DataBuffer3addIdEEvRKSt6vectorIT_SaIS3_EE(ptr noundef nonnull align 8 dereferenceable(28) %2, ptr noundef nonnull align 8 dereferenceable(24) %coef_2)
  ret void
}

; Function Attrs: mustprogress uwtable
define noundef double @_ZNK6openmc11Tabulated1DclEd(ptr noundef nonnull align 8 dereferenceable(120) %this, double noundef %x) unnamed_addr #0 align 2 personality ptr @__gxx_personality_v0 {
entry:
  %retval = alloca double, align 8
  %this.addr = alloca ptr, align 8
  %x.addr = alloca double, align 8
  %i = alloca i32, align 4
  %cleanup.dest.slot = alloca i32, align 4
  %agg.tmp = alloca %"class.__gnu_cxx::__normal_iterator", align 8
  %agg.tmp14 = alloca %"class.__gnu_cxx::__normal_iterator", align 8
  %interp = alloca i32, align 4
  %j = alloca i32, align 4
  %x0 = alloca double, align 8
  %x1 = alloca double, align 8
  %y0 = alloca double, align 8
  %y1 = alloca double, align 8
  %r = alloca double, align 8
  %exn.slot = alloca ptr, align 8
  %ehselector.slot = alloca i32, align 4
  store ptr %this, ptr %this.addr, align 8, !tbaa !24
  store double %x, ptr %x.addr, align 8, !tbaa !16
  %this1 = load ptr, ptr %this.addr, align 8
  call void @llvm.lifetime.start.p0(i64 4, ptr %i) #6
  %0 = load double, ptr %x.addr, align 8, !tbaa !16
  %x_ = getelementptr inbounds nuw %"class.openmc::Tabulated1D", ptr %this1, i32 0, i32 5
  %call = call noundef nonnull align 8 dereferenceable(8) ptr @_ZNKSt6vectorIdSaIdEEixEm(ptr noundef nonnull align 8 dereferenceable(24) %x_, i64 noundef 0) #6
  %1 = load double, ptr %call, align 8, !tbaa !16
  %cmp = fcmp olt double %0, %1
  br i1 %cmp, label %if.then, label %if.else

if.then:                                          ; preds = %entry
  %y_ = getelementptr inbounds nuw %"class.openmc::Tabulated1D", ptr %this1, i32 0, i32 6
  %call2 = call noundef nonnull align 8 dereferenceable(8) ptr @_ZNKSt6vectorIdSaIdEEixEm(ptr noundef nonnull align 8 dereferenceable(24) %y_, i64 noundef 0) #6
  %2 = load double, ptr %call2, align 8, !tbaa !16
  store double %2, ptr %retval, align 8
  store i32 1, ptr %cleanup.dest.slot, align 4
  br label %cleanup92

if.else:                                          ; preds = %entry
  %3 = load double, ptr %x.addr, align 8, !tbaa !16
  %x_3 = getelementptr inbounds nuw %"class.openmc::Tabulated1D", ptr %this1, i32 0, i32 5
  %n_pairs_ = getelementptr inbounds nuw %"class.openmc::Tabulated1D", ptr %this1, i32 0, i32 4
  %4 = load i64, ptr %n_pairs_, align 8, !tbaa !26
  %sub = sub i64 %4, 1
  %call4 = call noundef nonnull align 8 dereferenceable(8) ptr @_ZNKSt6vectorIdSaIdEEixEm(ptr noundef nonnull align 8 dereferenceable(24) %x_3, i64 noundef %sub) #6
  %5 = load double, ptr %call4, align 8, !tbaa !16
  %cmp5 = fcmp ogt double %3, %5
  br i1 %cmp5, label %if.then6, label %if.else11

if.then6:                                         ; preds = %if.else
  %y_7 = getelementptr inbounds nuw %"class.openmc::Tabulated1D", ptr %this1, i32 0, i32 6
  %n_pairs_8 = getelementptr inbounds nuw %"class.openmc::Tabulated1D", ptr %this1, i32 0, i32 4
  %6 = load i64, ptr %n_pairs_8, align 8, !tbaa !26
  %sub9 = sub i64 %6, 1
  %call10 = call noundef nonnull align 8 dereferenceable(8) ptr @_ZNKSt6vectorIdSaIdEEixEm(ptr noundef nonnull align 8 dereferenceable(24) %y_7, i64 noundef %sub9) #6
  %7 = load double, ptr %call10, align 8, !tbaa !16
  store double %7, ptr %retval, align 8
  store i32 1, ptr %cleanup.dest.slot, align 4
  br label %cleanup92

if.else11:                                        ; preds = %if.else
  %x_12 = getelementptr inbounds nuw %"class.openmc::Tabulated1D", ptr %this1, i32 0, i32 5
  %call13 = call ptr @_ZNKSt6vectorIdSaIdEE5beginEv(ptr noundef nonnull align 8 dereferenceable(24) %x_12) #6
  %coerce.dive = getelementptr inbounds nuw %"class.__gnu_cxx::__normal_iterator", ptr %agg.tmp, i32 0, i32 0
  store ptr %call13, ptr %coerce.dive, align 8
  %x_15 = getelementptr inbounds nuw %"class.openmc::Tabulated1D", ptr %this1, i32 0, i32 5
  %call16 = call ptr @_ZNKSt6vectorIdSaIdEE3endEv(ptr noundef nonnull align 8 dereferenceable(24) %x_15) #6
  %coerce.dive17 = getelementptr inbounds nuw %"class.__gnu_cxx::__normal_iterator", ptr %agg.tmp14, i32 0, i32 0
  store ptr %call16, ptr %coerce.dive17, align 8
  %coerce.dive18 = getelementptr inbounds nuw %"class.__gnu_cxx::__normal_iterator", ptr %agg.tmp, i32 0, i32 0
  %8 = load ptr, ptr %coerce.dive18, align 8
  %coerce.dive19 = getelementptr inbounds nuw %"class.__gnu_cxx::__normal_iterator", ptr %agg.tmp14, i32 0, i32 0
  %9 = load ptr, ptr %coerce.dive19, align 8
  %call20 = call noundef i64 @_ZN6openmc17lower_bound_indexIN9__gnu_cxx17__normal_iteratorIPKdSt6vectorIdSaIdEEEEdEENSt15iterator_traitsIT_E15difference_typeESA_SA_RKT0_(ptr %8, ptr %9, ptr noundef nonnull align 8 dereferenceable(8) %x.addr)
  %conv = trunc i64 %call20 to i32
  store i32 %conv, ptr %i, align 4, !tbaa !44
  br label %if.end

if.end:                                           ; preds = %if.else11
  br label %if.end21

if.end21:                                         ; preds = %if.end
  call void @llvm.lifetime.start.p0(i64 4, ptr %interp) #6
  %n_regions_ = getelementptr inbounds nuw %"class.openmc::Tabulated1D", ptr %this1, i32 0, i32 1
  %10 = load i64, ptr %n_regions_, align 8, !tbaa !46
  %cmp22 = icmp eq i64 %10, 0
  br i1 %cmp22, label %if.then23, label %if.else24

if.then23:                                        ; preds = %if.end21
  store i32 2, ptr %interp, align 4, !tbaa !47
  br label %if.end37

if.else24:                                        ; preds = %if.end21
  %int_ = getelementptr inbounds nuw %"class.openmc::Tabulated1D", ptr %this1, i32 0, i32 3
  %call25 = call noundef nonnull align 4 dereferenceable(4) ptr @_ZNKSt6vectorIN6openmc13InterpolationESaIS1_EEixEm(ptr noundef nonnull align 8 dereferenceable(24) %int_, i64 noundef 0) #6
  %11 = load i32, ptr %call25, align 4, !tbaa !47
  store i32 %11, ptr %interp, align 4, !tbaa !47
  call void @llvm.lifetime.start.p0(i64 4, ptr %j) #6
  store i32 0, ptr %j, align 4, !tbaa !44
  br label %for.cond

for.cond:                                         ; preds = %for.inc, %if.else24
  %12 = load i32, ptr %j, align 4, !tbaa !44
  %conv26 = sext i32 %12 to i64
  %n_regions_27 = getelementptr inbounds nuw %"class.openmc::Tabulated1D", ptr %this1, i32 0, i32 1
  %13 = load i64, ptr %n_regions_27, align 8, !tbaa !46
  %cmp28 = icmp ult i64 %conv26, %13
  br i1 %cmp28, label %for.body, label %for.cond.cleanup

for.cond.cleanup:                                 ; preds = %for.cond
  store i32 2, ptr %cleanup.dest.slot, align 4
  br label %cleanup

for.body:                                         ; preds = %for.cond
  %14 = load i32, ptr %i, align 4, !tbaa !44
  %nbt_ = getelementptr inbounds nuw %"class.openmc::Tabulated1D", ptr %this1, i32 0, i32 2
  %15 = load i32, ptr %j, align 4, !tbaa !44
  %conv29 = sext i32 %15 to i64
  %call30 = call noundef nonnull align 4 dereferenceable(4) ptr @_ZNKSt6vectorIiSaIiEEixEm(ptr noundef nonnull align 8 dereferenceable(24) %nbt_, i64 noundef %conv29) #6
  %16 = load i32, ptr %call30, align 4, !tbaa !44
  %cmp31 = icmp slt i32 %14, %16
  br i1 %cmp31, label %if.then32, label %if.end36

if.then32:                                        ; preds = %for.body
  %int_33 = getelementptr inbounds nuw %"class.openmc::Tabulated1D", ptr %this1, i32 0, i32 3
  %17 = load i32, ptr %j, align 4, !tbaa !44
  %conv34 = sext i32 %17 to i64
  %call35 = call noundef nonnull align 4 dereferenceable(4) ptr @_ZNKSt6vectorIN6openmc13InterpolationESaIS1_EEixEm(ptr noundef nonnull align 8 dereferenceable(24) %int_33, i64 noundef %conv34) #6
  %18 = load i32, ptr %call35, align 4, !tbaa !47
  store i32 %18, ptr %interp, align 4, !tbaa !47
  store i32 2, ptr %cleanup.dest.slot, align 4
  br label %cleanup

if.end36:                                         ; preds = %for.body
  br label %for.inc

for.inc:                                          ; preds = %if.end36
  %19 = load i32, ptr %j, align 4, !tbaa !44
  %inc = add nsw i32 %19, 1
  store i32 %inc, ptr %j, align 4, !tbaa !44
  br label %for.cond, !llvm.loop !49

cleanup:                                          ; preds = %if.then32, %for.cond.cleanup
  call void @llvm.lifetime.end.p0(i64 4, ptr %j) #6
  br label %for.end

for.end:                                          ; preds = %cleanup
  br label %if.end37

if.end37:                                         ; preds = %for.end, %if.then23
  %20 = load i32, ptr %interp, align 4, !tbaa !47
  %cmp38 = icmp eq i32 %20, 1
  br i1 %cmp38, label %if.then39, label %if.end43

if.then39:                                        ; preds = %if.end37
  %y_40 = getelementptr inbounds nuw %"class.openmc::Tabulated1D", ptr %this1, i32 0, i32 6
  %21 = load i32, ptr %i, align 4, !tbaa !44
  %conv41 = sext i32 %21 to i64
  %call42 = call noundef nonnull align 8 dereferenceable(8) ptr @_ZNKSt6vectorIdSaIdEEixEm(ptr noundef nonnull align 8 dereferenceable(24) %y_40, i64 noundef %conv41) #6
  %22 = load double, ptr %call42, align 8, !tbaa !16
  store double %22, ptr %retval, align 8
  store i32 1, ptr %cleanup.dest.slot, align 4
  br label %cleanup91

if.end43:                                         ; preds = %if.end37
  call void @llvm.lifetime.start.p0(i64 8, ptr %x0) #6
  %x_44 = getelementptr inbounds nuw %"class.openmc::Tabulated1D", ptr %this1, i32 0, i32 5
  %23 = load i32, ptr %i, align 4, !tbaa !44
  %conv45 = sext i32 %23 to i64
  %call46 = call noundef nonnull align 8 dereferenceable(8) ptr @_ZNKSt6vectorIdSaIdEEixEm(ptr noundef nonnull align 8 dereferenceable(24) %x_44, i64 noundef %conv45) #6
  %24 = load double, ptr %call46, align 8, !tbaa !16
  store double %24, ptr %x0, align 8, !tbaa !16
  call void @llvm.lifetime.start.p0(i64 8, ptr %x1) #6
  %x_47 = getelementptr inbounds nuw %"class.openmc::Tabulated1D", ptr %this1, i32 0, i32 5
  %25 = load i32, ptr %i, align 4, !tbaa !44
  %add = add nsw i32 %25, 1
  %conv48 = sext i32 %add to i64
  %call49 = call noundef nonnull align 8 dereferenceable(8) ptr @_ZNKSt6vectorIdSaIdEEixEm(ptr noundef nonnull align 8 dereferenceable(24) %x_47, i64 noundef %conv48) #6
  %26 = load double, ptr %call49, align 8, !tbaa !16
  store double %26, ptr %x1, align 8, !tbaa !16
  call void @llvm.lifetime.start.p0(i64 8, ptr %y0) #6
  %y_50 = getelementptr inbounds nuw %"class.openmc::Tabulated1D", ptr %this1, i32 0, i32 6
  %27 = load i32, ptr %i, align 4, !tbaa !44
  %conv51 = sext i32 %27 to i64
  %call52 = call noundef nonnull align 8 dereferenceable(8) ptr @_ZNKSt6vectorIdSaIdEEixEm(ptr noundef nonnull align 8 dereferenceable(24) %y_50, i64 noundef %conv51) #6
  %28 = load double, ptr %call52, align 8, !tbaa !16
  store double %28, ptr %y0, align 8, !tbaa !16
  call void @llvm.lifetime.start.p0(i64 8, ptr %y1) #6
  %y_53 = getelementptr inbounds nuw %"class.openmc::Tabulated1D", ptr %this1, i32 0, i32 6
  %29 = load i32, ptr %i, align 4, !tbaa !44
  %add54 = add nsw i32 %29, 1
  %conv55 = sext i32 %add54 to i64
  %call56 = call noundef nonnull align 8 dereferenceable(8) ptr @_ZNKSt6vectorIdSaIdEEixEm(ptr noundef nonnull align 8 dereferenceable(24) %y_53, i64 noundef %conv55) #6
  %30 = load double, ptr %call56, align 8, !tbaa !16
  store double %30, ptr %y1, align 8, !tbaa !16
  call void @llvm.lifetime.start.p0(i64 8, ptr %r) #6
  %31 = load i32, ptr %interp, align 4, !tbaa !47
  switch i32 %31, label %sw.default [
    i32 2, label %sw.bb
    i32 3, label %sw.bb60
    i32 4, label %sw.bb67
    i32 5, label %sw.bb75
  ]

sw.bb:                                            ; preds = %if.end43
  %32 = load double, ptr %x.addr, align 8, !tbaa !16
  %33 = load double, ptr %x0, align 8, !tbaa !16
  %sub57 = fsub double %32, %33
  %34 = load double, ptr %x1, align 8, !tbaa !16
  %35 = load double, ptr %x0, align 8, !tbaa !16
  %sub58 = fsub double %34, %35
  %div = fdiv double %sub57, %sub58
  store double %div, ptr %r, align 8, !tbaa !16
  %36 = load double, ptr %y0, align 8, !tbaa !16
  %37 = load double, ptr %r, align 8, !tbaa !16
  %38 = load double, ptr %y1, align 8, !tbaa !16
  %39 = load double, ptr %y0, align 8, !tbaa !16
  %sub59 = fsub double %38, %39
  %40 = call double @llvm.fmuladd.f64(double %37, double %sub59, double %36)
  store double %40, ptr %retval, align 8
  store i32 1, ptr %cleanup.dest.slot, align 4
  br label %cleanup86

sw.bb60:                                          ; preds = %if.end43
  %41 = load double, ptr %x.addr, align 8, !tbaa !16
  %42 = load double, ptr %x0, align 8, !tbaa !16
  %div61 = fdiv double %41, %42
  %call62 = call double @log(double noundef %div61) #6, !tbaa !44
  %43 = load double, ptr %x1, align 8, !tbaa !16
  %44 = load double, ptr %x0, align 8, !tbaa !16
  %div63 = fdiv double %43, %44
  %call64 = call double @log(double noundef %div63) #6, !tbaa !44
  %div65 = fdiv double %call62, %call64
  store double %div65, ptr %r, align 8, !tbaa !16
  %45 = load double, ptr %y0, align 8, !tbaa !16
  %46 = load double, ptr %r, align 8, !tbaa !16
  %47 = load double, ptr %y1, align 8, !tbaa !16
  %48 = load double, ptr %y0, align 8, !tbaa !16
  %sub66 = fsub double %47, %48
  %49 = call double @llvm.fmuladd.f64(double %46, double %sub66, double %45)
  store double %49, ptr %retval, align 8
  store i32 1, ptr %cleanup.dest.slot, align 4
  br label %cleanup86

sw.bb67:                                          ; preds = %if.end43
  %50 = load double, ptr %x.addr, align 8, !tbaa !16
  %51 = load double, ptr %x0, align 8, !tbaa !16
  %sub68 = fsub double %50, %51
  %52 = load double, ptr %x1, align 8, !tbaa !16
  %53 = load double, ptr %x0, align 8, !tbaa !16
  %sub69 = fsub double %52, %53
  %div70 = fdiv double %sub68, %sub69
  store double %div70, ptr %r, align 8, !tbaa !16
  %54 = load double, ptr %y0, align 8, !tbaa !16
  %55 = load double, ptr %r, align 8, !tbaa !16
  %56 = load double, ptr %y1, align 8, !tbaa !16
  %57 = load double, ptr %y0, align 8, !tbaa !16
  %div71 = fdiv double %56, %57
  %call72 = call double @log(double noundef %div71) #6, !tbaa !44
  %mul = fmul double %55, %call72
  %call73 = call double @exp(double noundef %mul) #6, !tbaa !44
  %mul74 = fmul double %54, %call73
  store double %mul74, ptr %retval, align 8
  store i32 1, ptr %cleanup.dest.slot, align 4
  br label %cleanup86

sw.bb75:                                          ; preds = %if.end43
  %58 = load double, ptr %x.addr, align 8, !tbaa !16
  %59 = load double, ptr %x0, align 8, !tbaa !16
  %div76 = fdiv double %58, %59
  %call77 = call double @log(double noundef %div76) #6, !tbaa !44
  %60 = load double, ptr %x1, align 8, !tbaa !16
  %61 = load double, ptr %x0, align 8, !tbaa !16
  %div78 = fdiv double %60, %61
  %call79 = call double @log(double noundef %div78) #6, !tbaa !44
  %div80 = fdiv double %call77, %call79
  store double %div80, ptr %r, align 8, !tbaa !16
  %62 = load double, ptr %y0, align 8, !tbaa !16
  %63 = load double, ptr %r, align 8, !tbaa !16
  %64 = load double, ptr %y1, align 8, !tbaa !16
  %65 = load double, ptr %y0, align 8, !tbaa !16
  %div81 = fdiv double %64, %65
  %call82 = call double @log(double noundef %div81) #6, !tbaa !44
  %mul83 = fmul double %63, %call82
  %call84 = call double @exp(double noundef %mul83) #6, !tbaa !44
  %mul85 = fmul double %62, %call84
  store double %mul85, ptr %retval, align 8
  store i32 1, ptr %cleanup.dest.slot, align 4
  br label %cleanup86

sw.default:                                       ; preds = %if.end43
  %exception = call ptr @__cxa_allocate_exception(i64 16) #6
  invoke void @_ZNSt13runtime_errorC1EPKc(ptr noundef nonnull align 8 dereferenceable(16) %exception, ptr noundef @.str.16)
          to label %invoke.cont unwind label %lpad

invoke.cont:                                      ; preds = %sw.default
  call void @__cxa_throw(ptr %exception, ptr @_ZTISt13runtime_error, ptr @_ZNSt13runtime_errorD1Ev) #24
  unreachable

lpad:                                             ; preds = %sw.default
  %66 = landingpad { ptr, i32 }
          cleanup
  %67 = extractvalue { ptr, i32 } %66, 0
  store ptr %67, ptr %exn.slot, align 8
  %68 = extractvalue { ptr, i32 } %66, 1
  store i32 %68, ptr %ehselector.slot, align 4
  call void @__cxa_free_exception(ptr %exception) #6
  call void @llvm.lifetime.end.p0(i64 8, ptr %r) #6
  call void @llvm.lifetime.end.p0(i64 8, ptr %y1) #6
  call void @llvm.lifetime.end.p0(i64 8, ptr %y0) #6
  call void @llvm.lifetime.end.p0(i64 8, ptr %x1) #6
  call void @llvm.lifetime.end.p0(i64 8, ptr %x0) #6
  call void @llvm.lifetime.end.p0(i64 4, ptr %interp) #6
  call void @llvm.lifetime.end.p0(i64 4, ptr %i) #6
  br label %eh.resume

cleanup86:                                        ; preds = %sw.bb75, %sw.bb67, %sw.bb60, %sw.bb
  call void @llvm.lifetime.end.p0(i64 8, ptr %r) #6
  call void @llvm.lifetime.end.p0(i64 8, ptr %y1) #6
  call void @llvm.lifetime.end.p0(i64 8, ptr %y0) #6
  call void @llvm.lifetime.end.p0(i64 8, ptr %x1) #6
  call void @llvm.lifetime.end.p0(i64 8, ptr %x0) #6
  br label %cleanup91

cleanup91:                                        ; preds = %cleanup86, %if.then39
  call void @llvm.lifetime.end.p0(i64 4, ptr %interp) #6
  br label %cleanup92

cleanup92:                                        ; preds = %cleanup91, %if.then6, %if.then
  call void @llvm.lifetime.end.p0(i64 4, ptr %i) #6
  %69 = load double, ptr %retval, align 8
  ret double %69

eh.resume:                                        ; preds = %lpad
  %exn = load ptr, ptr %exn.slot, align 8
  %sel = load i32, ptr %ehselector.slot, align 4
  %lpad.val = insertvalue { ptr, i32 } poison, ptr %exn, 0
  %lpad.val93 = insertvalue { ptr, i32 } %lpad.val, i32 %sel, 1
  resume { ptr, i32 } %lpad.val93
}

; Function Attrs: inlinehint mustprogress nounwind uwtable
define linkonce_odr void @_ZN6openmc11Tabulated1DD2Ev(ptr noundef nonnull align 8 dereferenceable(120) %this) unnamed_addr #1 comdat align 2 {
entry:
  %this.addr = alloca ptr, align 8
  store ptr %this, ptr %this.addr, align 8, !tbaa !24
  %this1 = load ptr, ptr %this.addr, align 8
  store ptr getelementptr inbounds inrange(-16, 32) ({ [6 x ptr] }, ptr @_ZTVN6openmc11Tabulated1DE, i32 0, i32 0, i32 2), ptr %this1, align 8, !tbaa !20
  %y_ = getelementptr inbounds nuw %"class.openmc::Tabulated1D", ptr %this1, i32 0, i32 6
  call void @_ZNSt6vectorIdSaIdEED2Ev(ptr noundef nonnull align 8 dereferenceable(24) %y_) #6
  %x_ = getelementptr inbounds nuw %"class.openmc::Tabulated1D", ptr %this1, i32 0, i32 5
  call void @_ZNSt6vectorIdSaIdEED2Ev(ptr noundef nonnull align 8 dereferenceable(24) %x_) #6
  %int_ = getelementptr inbounds nuw %"class.openmc::Tabulated1D", ptr %this1, i32 0, i32 3
  call void @_ZNSt6vectorIN6openmc13InterpolationESaIS1_EED2Ev(ptr noundef nonnull align 8 dereferenceable(24) %int_) #6
  %nbt_ = getelementptr inbounds nuw %"class.openmc::Tabulated1D", ptr %this1, i32 0, i32 2
  call void @_ZNSt6vectorIiSaIiEED2Ev(ptr noundef nonnull align 8 dereferenceable(24) %nbt_) #6
  call void @_ZN6openmc10Function1DD2Ev(ptr noundef nonnull align 8 dereferenceable(8) %this1) #6
  ret void
}

; Function Attrs: inlinehint mustprogress nounwind uwtable
define linkonce_odr void @_ZN6openmc11Tabulated1DD0Ev(ptr noundef nonnull align 8 dereferenceable(120) %this) unnamed_addr #1 comdat align 2 {
entry:
  %this.addr = alloca ptr, align 8
  store ptr %this, ptr %this.addr, align 8, !tbaa !24
  %this1 = load ptr, ptr %this.addr, align 8
  call void @_ZN6openmc11Tabulated1DD2Ev(ptr noundef nonnull align 8 dereferenceable(120) %this1) #6
  call void @_ZdlPvm(ptr noundef %this1, i64 noundef 120) #23
  ret void
}

; Function Attrs: mustprogress uwtable
define void @_ZNK6openmc11Tabulated1D9serializeERNS_10DataBufferE(ptr noundef nonnull align 8 dereferenceable(120) %this, ptr noundef nonnull align 8 dereferenceable(28) %buffer) unnamed_addr #0 align 2 personality ptr @__gxx_personality_v0 {
entry:
  %this.addr = alloca ptr, align 8
  %buffer.addr = alloca ptr, align 8
  %interp = alloca %"class.std::vector", align 8
  %__range1 = alloca ptr, align 8
  %__begin1 = alloca %"class.__gnu_cxx::__normal_iterator.94", align 8
  %__end1 = alloca %"class.__gnu_cxx::__normal_iterator.94", align 8
  %x = alloca i32, align 4
  %ref.tmp = alloca i32, align 4
  %exn.slot = alloca ptr, align 8
  %ehselector.slot = alloca i32, align 4
  store ptr %this, ptr %this.addr, align 8, !tbaa !24
  store ptr %buffer, ptr %buffer.addr, align 8, !tbaa !22
  %this1 = load ptr, ptr %this.addr, align 8
  %0 = load ptr, ptr %buffer.addr, align 8, !tbaa !22
  call void @_ZN6openmc10DataBuffer3addIiEENSt9enable_ifIXsr3std9is_scalarINSt5decayIT_E4typeEEE5valueEvE4typeES4_(ptr noundef nonnull align 8 dereferenceable(28) %0, i32 noundef 1)
  %1 = load ptr, ptr %buffer.addr, align 8, !tbaa !22
  %n_regions_ = getelementptr inbounds nuw %"class.openmc::Tabulated1D", ptr %this1, i32 0, i32 1
  %2 = load i64, ptr %n_regions_, align 8, !tbaa !46
  %conv = trunc i64 %2 to i32
  call void @_ZN6openmc10DataBuffer3addIiEENSt9enable_ifIXsr3std9is_scalarINSt5decayIT_E4typeEEE5valueEvE4typeES4_(ptr noundef nonnull align 8 dereferenceable(28) %1, i32 noundef %conv)
  %3 = load ptr, ptr %buffer.addr, align 8, !tbaa !22
  %nbt_ = getelementptr inbounds nuw %"class.openmc::Tabulated1D", ptr %this1, i32 0, i32 2
  call void @_ZN6openmc10DataBuffer3addIiEEvRKSt6vectorIT_SaIS3_EE(ptr noundef nonnull align 8 dereferenceable(28) %3, ptr noundef nonnull align 8 dereferenceable(24) %nbt_)
  call void @llvm.lifetime.start.p0(i64 24, ptr %interp) #6
  call void @_ZNSt6vectorIiSaIiEEC2Ev(ptr noundef nonnull align 8 dereferenceable(24) %interp) #6
  call void @llvm.lifetime.start.p0(i64 8, ptr %__range1) #6
  %int_ = getelementptr inbounds nuw %"class.openmc::Tabulated1D", ptr %this1, i32 0, i32 3
  store ptr %int_, ptr %__range1, align 8, !tbaa !50
  call void @llvm.lifetime.start.p0(i64 8, ptr %__begin1) #6
  %4 = load ptr, ptr %__range1, align 8, !tbaa !50
  %call = call ptr @_ZNKSt6vectorIN6openmc13InterpolationESaIS1_EE5beginEv(ptr noundef nonnull align 8 dereferenceable(24) %4) #6
  %coerce.dive = getelementptr inbounds nuw %"class.__gnu_cxx::__normal_iterator.94", ptr %__begin1, i32 0, i32 0
  store ptr %call, ptr %coerce.dive, align 8
  call void @llvm.lifetime.start.p0(i64 8, ptr %__end1) #6
  %5 = load ptr, ptr %__range1, align 8, !tbaa !50
  %call2 = call ptr @_ZNKSt6vectorIN6openmc13InterpolationESaIS1_EE3endEv(ptr noundef nonnull align 8 dereferenceable(24) %5) #6
  %coerce.dive3 = getelementptr inbounds nuw %"class.__gnu_cxx::__normal_iterator.94", ptr %__end1, i32 0, i32 0
  store ptr %call2, ptr %coerce.dive3, align 8
  br label %for.cond

for.cond:                                         ; preds = %for.inc, %entry
  %call4 = call noundef zeroext i1 @_ZN9__gnu_cxxneIPKN6openmc13InterpolationESt6vectorIS2_SaIS2_EEEEbRKNS_17__normal_iteratorIT_T0_EESD_(ptr noundef nonnull align 8 dereferenceable(8) %__begin1, ptr noundef nonnull align 8 dereferenceable(8) %__end1) #6
  br i1 %call4, label %for.body, label %for.cond.cleanup

for.cond.cleanup:                                 ; preds = %for.cond
  call void @llvm.lifetime.end.p0(i64 8, ptr %__end1) #6
  call void @llvm.lifetime.end.p0(i64 8, ptr %__begin1) #6
  call void @llvm.lifetime.end.p0(i64 8, ptr %__range1) #6
  br label %for.end

for.body:                                         ; preds = %for.cond
  call void @llvm.lifetime.start.p0(i64 4, ptr %x) #6
  %call5 = call noundef nonnull align 4 dereferenceable(4) ptr @_ZNK9__gnu_cxx17__normal_iteratorIPKN6openmc13InterpolationESt6vectorIS2_SaIS2_EEEdeEv(ptr noundef nonnull align 8 dereferenceable(8) %__begin1) #6
  %6 = load i32, ptr %call5, align 4, !tbaa !47
  store i32 %6, ptr %x, align 4, !tbaa !47
  call void @llvm.lifetime.start.p0(i64 4, ptr %ref.tmp) #6
  %7 = load i32, ptr %x, align 4, !tbaa !47
  store i32 %7, ptr %ref.tmp, align 4, !tbaa !44
  invoke void @_ZNSt6vectorIiSaIiEE9push_backEOi(ptr noundef nonnull align 8 dereferenceable(24) %interp, ptr noundef nonnull align 4 dereferenceable(4) %ref.tmp)
          to label %invoke.cont unwind label %lpad

invoke.cont:                                      ; preds = %for.body
  call void @llvm.lifetime.end.p0(i64 4, ptr %ref.tmp) #6
  call void @llvm.lifetime.end.p0(i64 4, ptr %x) #6
  br label %for.inc

for.inc:                                          ; preds = %invoke.cont
  %call6 = call noundef nonnull align 8 dereferenceable(8) ptr @_ZN9__gnu_cxx17__normal_iteratorIPKN6openmc13InterpolationESt6vectorIS2_SaIS2_EEEppEv(ptr noundef nonnull align 8 dereferenceable(8) %__begin1) #6
  br label %for.cond

lpad:                                             ; preds = %for.body
  %8 = landingpad { ptr, i32 }
          cleanup
  %9 = extractvalue { ptr, i32 } %8, 0
  store ptr %9, ptr %exn.slot, align 8
  %10 = extractvalue { ptr, i32 } %8, 1
  store i32 %10, ptr %ehselector.slot, align 4
  call void @llvm.lifetime.end.p0(i64 4, ptr %ref.tmp) #6
  call void @llvm.lifetime.end.p0(i64 4, ptr %x) #6
  call void @llvm.lifetime.end.p0(i64 8, ptr %__end1) #6
  call void @llvm.lifetime.end.p0(i64 8, ptr %__begin1) #6
  call void @llvm.lifetime.end.p0(i64 8, ptr %__range1) #6
  br label %ehcleanup

for.end:                                          ; preds = %for.cond.cleanup
  %11 = load ptr, ptr %buffer.addr, align 8, !tbaa !22
  invoke void @_ZN6openmc10DataBuffer3addIiEEvRKSt6vectorIT_SaIS3_EE(ptr noundef nonnull align 8 dereferenceable(28) %11, ptr noundef nonnull align 8 dereferenceable(24) %interp)
          to label %invoke.cont8 unwind label %lpad7

invoke.cont8:                                     ; preds = %for.end
  %12 = load ptr, ptr %buffer.addr, align 8, !tbaa !22
  %n_pairs_ = getelementptr inbounds nuw %"class.openmc::Tabulated1D", ptr %this1, i32 0, i32 4
  %13 = load i64, ptr %n_pairs_, align 8, !tbaa !26
  invoke void @_ZN6openmc10DataBuffer3addImEENSt9enable_ifIXsr3std9is_scalarINSt5decayIT_E4typeEEE5valueEvE4typeES4_(ptr noundef nonnull align 8 dereferenceable(28) %12, i64 noundef %13)
          to label %invoke.cont9 unwind label %lpad7

invoke.cont9:                                     ; preds = %invoke.cont8
  %14 = load ptr, ptr %buffer.addr, align 8, !tbaa !22
  %x_ = getelementptr inbounds nuw %"class.openmc::Tabulated1D", ptr %this1, i32 0, i32 5
  call void @_ZN6openmc10DataBuffer3addIdEEvRKSt6vectorIT_SaIS3_EE(ptr noundef nonnull align 8 dereferenceable(28) %14, ptr noundef nonnull align 8 dereferenceable(24) %x_)
  %15 = load ptr, ptr %buffer.addr, align 8, !tbaa !22
  %y_ = getelementptr inbounds nuw %"class.openmc::Tabulated1D", ptr %this1, i32 0, i32 6
  call void @_ZN6openmc10DataBuffer3addIdEEvRKSt6vectorIT_SaIS3_EE(ptr noundef nonnull align 8 dereferenceable(28) %15, ptr noundef nonnull align 8 dereferenceable(24) %y_)
  call void @_ZNSt6vectorIiSaIiEED2Ev(ptr noundef nonnull align 8 dereferenceable(24) %interp) #6
  call void @llvm.lifetime.end.p0(i64 24, ptr %interp) #6
  ret void

lpad7:                                            ; preds = %invoke.cont8, %for.end
  %16 = landingpad { ptr, i32 }
          cleanup
  %17 = extractvalue { ptr, i32 } %16, 0
  store ptr %17, ptr %exn.slot, align 8
  %18 = extractvalue { ptr, i32 } %16, 1
  store i32 %18, ptr %ehselector.slot, align 4
  br label %ehcleanup

ehcleanup:                                        ; preds = %lpad7, %lpad
  call void @_ZNSt6vectorIiSaIiEED2Ev(ptr noundef nonnull align 8 dereferenceable(24) %interp) #6
  call void @llvm.lifetime.end.p0(i64 24, ptr %interp) #6
  br label %eh.resume

eh.resume:                                        ; preds = %ehcleanup
  %exn = load ptr, ptr %exn.slot, align 8
  %sel = load i32, ptr %ehselector.slot, align 4
  %lpad.val = insertvalue { ptr, i32 } poison, ptr %exn, 0
  %lpad.val11 = insertvalue { ptr, i32 } %lpad.val, i32 %sel, 1
  resume { ptr, i32 } %lpad.val11
}

; Function Attrs: mustprogress uwtable
define noundef double @_ZNK6openmc17CoherentElasticXSclEd(ptr noundef nonnull align 8 dereferenceable(56) %this, double noundef %E) unnamed_addr #0 align 2 {
entry:
  %retval = alloca double, align 8
  %this.addr = alloca ptr, align 8
  %E.addr = alloca double, align 8
  %i_grid = alloca i64, align 8
  %agg.tmp = alloca %"class.__gnu_cxx::__normal_iterator", align 8
  %agg.tmp4 = alloca %"class.__gnu_cxx::__normal_iterator", align 8
  store ptr %this, ptr %this.addr, align 8, !tbaa !52
  store double %E, ptr %E.addr, align 8, !tbaa !16
  %this1 = load ptr, ptr %this.addr, align 8
  %0 = load double, ptr %E.addr, align 8, !tbaa !16
  %bragg_edges_ = getelementptr inbounds nuw %"class.openmc::CoherentElasticXS", ptr %this1, i32 0, i32 1
  %call = call noundef nonnull align 8 dereferenceable(8) ptr @_ZNKSt6vectorIdSaIdEEixEm(ptr noundef nonnull align 8 dereferenceable(24) %bragg_edges_, i64 noundef 0) #6
  %1 = load double, ptr %call, align 8, !tbaa !16
  %cmp = fcmp olt double %0, %1
  br i1 %cmp, label %if.then, label %if.else

if.then:                                          ; preds = %entry
  store double 0.000000e+00, ptr %retval, align 8
  br label %return

if.else:                                          ; preds = %entry
  call void @llvm.lifetime.start.p0(i64 8, ptr %i_grid) #6
  %bragg_edges_2 = getelementptr inbounds nuw %"class.openmc::CoherentElasticXS", ptr %this1, i32 0, i32 1
  %call3 = call ptr @_ZNKSt6vectorIdSaIdEE5beginEv(ptr noundef nonnull align 8 dereferenceable(24) %bragg_edges_2) #6
  %coerce.dive = getelementptr inbounds nuw %"class.__gnu_cxx::__normal_iterator", ptr %agg.tmp, i32 0, i32 0
  store ptr %call3, ptr %coerce.dive, align 8
  %bragg_edges_5 = getelementptr inbounds nuw %"class.openmc::CoherentElasticXS", ptr %this1, i32 0, i32 1
  %call6 = call ptr @_ZNKSt6vectorIdSaIdEE3endEv(ptr noundef nonnull align 8 dereferenceable(24) %bragg_edges_5) #6
  %coerce.dive7 = getelementptr inbounds nuw %"class.__gnu_cxx::__normal_iterator", ptr %agg.tmp4, i32 0, i32 0
  store ptr %call6, ptr %coerce.dive7, align 8
  %coerce.dive8 = getelementptr inbounds nuw %"class.__gnu_cxx::__normal_iterator", ptr %agg.tmp, i32 0, i32 0
  %2 = load ptr, ptr %coerce.dive8, align 8
  %coerce.dive9 = getelementptr inbounds nuw %"class.__gnu_cxx::__normal_iterator", ptr %agg.tmp4, i32 0, i32 0
  %3 = load ptr, ptr %coerce.dive9, align 8
  %call10 = call noundef i64 @_ZN6openmc17lower_bound_indexIN9__gnu_cxx17__normal_iteratorIPKdSt6vectorIdSaIdEEEEdEENSt15iterator_traitsIT_E15difference_typeESA_SA_RKT0_(ptr %2, ptr %3, ptr noundef nonnull align 8 dereferenceable(8) %E.addr)
  store i64 %call10, ptr %i_grid, align 8, !tbaa !54
  %factors_ = getelementptr inbounds nuw %"class.openmc::CoherentElasticXS", ptr %this1, i32 0, i32 2
  %4 = load i64, ptr %i_grid, align 8, !tbaa !54
  %call11 = call noundef nonnull align 8 dereferenceable(8) ptr @_ZNKSt6vectorIdSaIdEEixEm(ptr noundef nonnull align 8 dereferenceable(24) %factors_, i64 noundef %4) #6
  %5 = load double, ptr %call11, align 8, !tbaa !16
  %6 = load double, ptr %E.addr, align 8, !tbaa !16
  %div = fdiv double %5, %6
  store double %div, ptr %retval, align 8
  call void @llvm.lifetime.end.p0(i64 8, ptr %i_grid) #6
  br label %return

return:                                           ; preds = %if.else, %if.then
  %7 = load double, ptr %retval, align 8
  ret double %7
}

; Function Attrs: inlinehint mustprogress nounwind uwtable
define linkonce_odr void @_ZN6openmc17CoherentElasticXSD2Ev(ptr noundef nonnull align 8 dereferenceable(56) %this) unnamed_addr #1 comdat align 2 {
entry:
  %this.addr = alloca ptr, align 8
  store ptr %this, ptr %this.addr, align 8, !tbaa !52
  %this1 = load ptr, ptr %this.addr, align 8
  store ptr getelementptr inbounds inrange(-16, 32) ({ [6 x ptr] }, ptr @_ZTVN6openmc17CoherentElasticXSE, i32 0, i32 0, i32 2), ptr %this1, align 8, !tbaa !20
  %factors_ = getelementptr inbounds nuw %"class.openmc::CoherentElasticXS", ptr %this1, i32 0, i32 2
  call void @_ZNSt6vectorIdSaIdEED2Ev(ptr noundef nonnull align 8 dereferenceable(24) %factors_) #6
  %bragg_edges_ = getelementptr inbounds nuw %"class.openmc::CoherentElasticXS", ptr %this1, i32 0, i32 1
  call void @_ZNSt6vectorIdSaIdEED2Ev(ptr noundef nonnull align 8 dereferenceable(24) %bragg_edges_) #6
  call void @_ZN6openmc10Function1DD2Ev(ptr noundef nonnull align 8 dereferenceable(8) %this1) #6
  ret void
}

; Function Attrs: inlinehint mustprogress nounwind uwtable
define linkonce_odr void @_ZN6openmc17CoherentElasticXSD0Ev(ptr noundef nonnull align 8 dereferenceable(56) %this) unnamed_addr #1 comdat align 2 {
entry:
  %this.addr = alloca ptr, align 8
  store ptr %this, ptr %this.addr, align 8, !tbaa !52
  %this1 = load ptr, ptr %this.addr, align 8
  call void @_ZN6openmc17CoherentElasticXSD2Ev(ptr noundef nonnull align 8 dereferenceable(56) %this1) #6
  call void @_ZdlPvm(ptr noundef %this1, i64 noundef 56) #23
  ret void
}

; Function Attrs: mustprogress nounwind uwtable
define void @_ZNK6openmc17CoherentElasticXS9serializeERNS_10DataBufferE(ptr noundef nonnull align 8 dereferenceable(56) %this, ptr noundef nonnull align 8 dereferenceable(28) %buffer) unnamed_addr #2 align 2 {
entry:
  %this.addr = alloca ptr, align 8
  %buffer.addr = alloca ptr, align 8
  store ptr %this, ptr %this.addr, align 8, !tbaa !52
  store ptr %buffer, ptr %buffer.addr, align 8, !tbaa !22
  %this1 = load ptr, ptr %this.addr, align 8
  %0 = load ptr, ptr %buffer.addr, align 8, !tbaa !22
  call void @_ZN6openmc10DataBuffer3addIiEENSt9enable_ifIXsr3std9is_scalarINSt5decayIT_E4typeEEE5valueEvE4typeES4_(ptr noundef nonnull align 8 dereferenceable(28) %0, i32 noundef 2)
  %1 = load ptr, ptr %buffer.addr, align 8, !tbaa !22
  %bragg_edges_ = getelementptr inbounds nuw %"class.openmc::CoherentElasticXS", ptr %this1, i32 0, i32 1
  %call = call noundef i64 @_ZNKSt6vectorIdSaIdEE4sizeEv(ptr noundef nonnull align 8 dereferenceable(24) %bragg_edges_) #6
  %conv = trunc i64 %call to i32
  call void @_ZN6openmc10DataBuffer3addIiEENSt9enable_ifIXsr3std9is_scalarINSt5decayIT_E4typeEEE5valueEvE4typeES4_(ptr noundef nonnull align 8 dereferenceable(28) %1, i32 noundef %conv)
  %2 = load ptr, ptr %buffer.addr, align 8, !tbaa !22
  %bragg_edges_2 = getelementptr inbounds nuw %"class.openmc::CoherentElasticXS", ptr %this1, i32 0, i32 1
  call void @_ZN6openmc10DataBuffer3addIdEEvRKSt6vectorIT_SaIS3_EE(ptr noundef nonnull align 8 dereferenceable(28) %2, ptr noundef nonnull align 8 dereferenceable(24) %bragg_edges_2)
  %3 = load ptr, ptr %buffer.addr, align 8, !tbaa !22
  %factors_ = getelementptr inbounds nuw %"class.openmc::CoherentElasticXS", ptr %this1, i32 0, i32 2
  call void @_ZN6openmc10DataBuffer3addIdEEvRKSt6vectorIT_SaIS3_EE(ptr noundef nonnull align 8 dereferenceable(28) %3, ptr noundef nonnull align 8 dereferenceable(24) %factors_)
  ret void
}

; Function Attrs: mustprogress nounwind uwtable
define noundef double @_ZNK6openmc19IncoherentElasticXSclEd(ptr noundef nonnull align 8 dereferenceable(24) %this, double noundef %E) unnamed_addr #2 align 2 {
entry:
  %this.addr = alloca ptr, align 8
  %E.addr = alloca double, align 8
  %W = alloca double, align 8
  store ptr %this, ptr %this.addr, align 8, !tbaa !55
  store double %E, ptr %E.addr, align 8, !tbaa !16
  %this1 = load ptr, ptr %this.addr, align 8
  call void @llvm.lifetime.start.p0(i64 8, ptr %W) #6
  %debye_waller_ = getelementptr inbounds nuw %"class.openmc::IncoherentElasticXS", ptr %this1, i32 0, i32 2
  %0 = load double, ptr %debye_waller_, align 8, !tbaa !57
  store double %0, ptr %W, align 8, !tbaa !16
  %bound_xs_ = getelementptr inbounds nuw %"class.openmc::IncoherentElasticXS", ptr %this1, i32 0, i32 1
  %1 = load double, ptr %bound_xs_, align 8, !tbaa !59
  %div = fdiv double %1, 2.000000e+00
  %2 = load double, ptr %E.addr, align 8, !tbaa !16
  %mul = fmul double -4.000000e+00, %2
  %3 = load double, ptr %W, align 8, !tbaa !16
  %mul2 = fmul double %mul, %3
  %call = call double @exp(double noundef %mul2) #6, !tbaa !44
  %sub = fsub double 1.000000e+00, %call
  %4 = load double, ptr %E.addr, align 8, !tbaa !16
  %mul3 = fmul double 2.000000e+00, %4
  %5 = load double, ptr %W, align 8, !tbaa !16
  %mul4 = fmul double %mul3, %5
  %div5 = fdiv double %sub, %mul4
  %mul6 = fmul double %div, %div5
  call void @llvm.lifetime.end.p0(i64 8, ptr %W) #6
  ret double %mul6
}

; Function Attrs: mustprogress nounwind uwtable
define linkonce_odr void @_ZN6openmc10Function1DD2Ev(ptr noundef nonnull align 8 dereferenceable(8) %this) unnamed_addr #2 comdat align 2 {
entry:
  %this.addr = alloca ptr, align 8
  store ptr %this, ptr %this.addr, align 8, !tbaa !60
  %this1 = load ptr, ptr %this.addr, align 8
  ret void
}

; Function Attrs: inlinehint mustprogress nounwind uwtable
define linkonce_odr void @_ZN6openmc19IncoherentElasticXSD0Ev(ptr noundef nonnull align 8 dereferenceable(24) %this) unnamed_addr #1 comdat align 2 {
entry:
  %this.addr = alloca ptr, align 8
  store ptr %this, ptr %this.addr, align 8, !tbaa !55
  %this1 = load ptr, ptr %this.addr, align 8
  call void @_ZN6openmc10Function1DD2Ev(ptr noundef nonnull align 8 dereferenceable(24) %this1) #6
  call void @_ZdlPvm(ptr noundef %this1, i64 noundef 24) #23
  ret void
}

; Function Attrs: mustprogress uwtable
define void @_ZNK6openmc19IncoherentElasticXS9serializeERNS_10DataBufferE(ptr noundef nonnull align 8 dereferenceable(24) %this, ptr noundef nonnull align 8 dereferenceable(28) %buffer) unnamed_addr #0 align 2 {
entry:
  %this.addr = alloca ptr, align 8
  %buffer.addr = alloca ptr, align 8
  store ptr %this, ptr %this.addr, align 8, !tbaa !55
  store ptr %buffer, ptr %buffer.addr, align 8, !tbaa !22
  %this1 = load ptr, ptr %this.addr, align 8
  %0 = load ptr, ptr %buffer.addr, align 8, !tbaa !22
  call void @_ZN6openmc10DataBuffer3addIiEENSt9enable_ifIXsr3std9is_scalarINSt5decayIT_E4typeEEE5valueEvE4typeES4_(ptr noundef nonnull align 8 dereferenceable(28) %0, i32 noundef 3)
  %1 = load ptr, ptr %buffer.addr, align 8, !tbaa !22
  call void @_ZN6openmc10DataBuffer5alignEi(ptr noundef nonnull align 8 dereferenceable(28) %1, i32 noundef 8)
  %2 = load ptr, ptr %buffer.addr, align 8, !tbaa !22
  %bound_xs_ = getelementptr inbounds nuw %"class.openmc::IncoherentElasticXS", ptr %this1, i32 0, i32 1
  %3 = load double, ptr %bound_xs_, align 8, !tbaa !59
  call void @_ZN6openmc10DataBuffer3addIdEENSt9enable_ifIXsr3std9is_scalarINSt5decayIT_E4typeEEE5valueEvE4typeES4_(ptr noundef nonnull align 8 dereferenceable(28) %2, double noundef %3)
  %4 = load ptr, ptr %buffer.addr, align 8, !tbaa !22
  %debye_waller_ = getelementptr inbounds nuw %"class.openmc::IncoherentElasticXS", ptr %this1, i32 0, i32 2
  %5 = load double, ptr %debye_waller_, align 8, !tbaa !57
  call void @_ZN6openmc10DataBuffer3addIdEENSt9enable_ifIXsr3std9is_scalarINSt5decayIT_E4typeEEE5valueEvE4typeES4_(ptr noundef nonnull align 8 dereferenceable(28) %4, double noundef %5)
  ret void
}

; Function Attrs: uwtable
define internal void @__cxx_global_var_init() #3 section ".text.startup" {
entry:
  call void @_ZNSt8ios_base4InitC1Ev(ptr noundef nonnull align 1 dereferenceable(1) @_ZStL8__ioinit)
  %0 = call i32 @__cxa_atexit(ptr @_ZNSt8ios_base4InitD1Ev, ptr @_ZStL8__ioinit, ptr @__dso_handle) #6
  ret void
}

declare void @_ZNSt8ios_base4InitC1Ev(ptr noundef nonnull align 1 dereferenceable(1)) unnamed_addr #4

; Function Attrs: nounwind
declare void @_ZNSt8ios_base4InitD1Ev(ptr noundef nonnull align 1 dereferenceable(1)) unnamed_addr #5

; Function Attrs: nounwind
declare i32 @__cxa_atexit(ptr, ptr, ptr) #6

; Function Attrs: mustprogress uwtable
define noundef i32 @_ZN6openmc10int2interpEi(i32 noundef %i) #0 personality ptr @__gxx_personality_v0 {
entry:
  %retval = alloca i32, align 4
  %i.addr = alloca i32, align 4
  %exn.slot = alloca ptr, align 8
  %ehselector.slot = alloca i32, align 4
  store i32 %i, ptr %i.addr, align 4, !tbaa !44
  %0 = load i32, ptr %i.addr, align 4, !tbaa !44
  switch i32 %0, label %sw.default [
    i32 1, label %sw.bb
    i32 11, label %sw.bb
    i32 21, label %sw.bb
    i32 2, label %sw.bb1
    i32 12, label %sw.bb1
    i32 22, label %sw.bb1
    i32 3, label %sw.bb2
    i32 13, label %sw.bb2
    i32 23, label %sw.bb2
    i32 4, label %sw.bb3
    i32 14, label %sw.bb3
    i32 24, label %sw.bb3
    i32 5, label %sw.bb4
    i32 15, label %sw.bb4
    i32 25, label %sw.bb4
  ]

sw.bb:                                            ; preds = %entry, %entry, %entry
  store i32 1, ptr %retval, align 4
  br label %return

sw.bb1:                                           ; preds = %entry, %entry, %entry
  store i32 2, ptr %retval, align 4
  br label %return

sw.bb2:                                           ; preds = %entry, %entry, %entry
  store i32 3, ptr %retval, align 4
  br label %return

sw.bb3:                                           ; preds = %entry, %entry, %entry
  store i32 4, ptr %retval, align 4
  br label %return

sw.bb4:                                           ; preds = %entry, %entry, %entry
  store i32 5, ptr %retval, align 4
  br label %return

sw.default:                                       ; preds = %entry
  %exception = call ptr @__cxa_allocate_exception(i64 16) #6
  invoke void @_ZNSt13runtime_errorC1EPKc(ptr noundef nonnull align 8 dereferenceable(16) %exception, ptr noundef @.str)
          to label %invoke.cont unwind label %lpad

invoke.cont:                                      ; preds = %sw.default
  call void @__cxa_throw(ptr %exception, ptr @_ZTISt13runtime_error, ptr @_ZNSt13runtime_errorD1Ev) #24
  unreachable

lpad:                                             ; preds = %sw.default
  %1 = landingpad { ptr, i32 }
          cleanup
  %2 = extractvalue { ptr, i32 } %1, 0
  store ptr %2, ptr %exn.slot, align 8
  %3 = extractvalue { ptr, i32 } %1, 1
  store i32 %3, ptr %ehselector.slot, align 4
  call void @__cxa_free_exception(ptr %exception) #6
  br label %eh.resume

return:                                           ; preds = %sw.bb4, %sw.bb3, %sw.bb2, %sw.bb1, %sw.bb
  %4 = load i32, ptr %retval, align 4
  ret i32 %4

eh.resume:                                        ; preds = %lpad
  %exn = load ptr, ptr %exn.slot, align 8
  %sel = load i32, ptr %ehselector.slot, align 4
  %lpad.val = insertvalue { ptr, i32 } poison, ptr %exn, 0
  %lpad.val5 = insertvalue { ptr, i32 } %lpad.val, i32 %sel, 1
  resume { ptr, i32 } %lpad.val5
}

declare ptr @__cxa_allocate_exception(i64)

declare void @_ZNSt13runtime_errorC1EPKc(ptr noundef nonnull align 8 dereferenceable(16), ptr noundef) unnamed_addr #4

declare i32 @__gxx_personality_v0(...)

declare void @__cxa_free_exception(ptr)

; Function Attrs: nounwind
declare void @_ZNSt13runtime_errorD1Ev(ptr noundef nonnull align 8 dereferenceable(16)) unnamed_addr #5

declare void @__cxa_throw(ptr, ptr, ptr)

; Function Attrs: mustprogress nounwind uwtable
define noundef zeroext i1 @_ZN6openmc10is_fissionEi(i32 noundef %mt) #2 {
entry:
  %mt.addr = alloca i32, align 4
  store i32 %mt, ptr %mt.addr, align 4, !tbaa !44
  %0 = load i32, ptr %mt.addr, align 4, !tbaa !44
  %cmp = icmp eq i32 %0, 18
  br i1 %cmp, label %lor.end, label %lor.lhs.false

lor.lhs.false:                                    ; preds = %entry
  %1 = load i32, ptr %mt.addr, align 4, !tbaa !44
  %cmp1 = icmp eq i32 %1, 19
  br i1 %cmp1, label %lor.end, label %lor.lhs.false2

lor.lhs.false2:                                   ; preds = %lor.lhs.false
  %2 = load i32, ptr %mt.addr, align 4, !tbaa !44
  %cmp3 = icmp eq i32 %2, 20
  br i1 %cmp3, label %lor.end, label %lor.lhs.false4

lor.lhs.false4:                                   ; preds = %lor.lhs.false2
  %3 = load i32, ptr %mt.addr, align 4, !tbaa !44
  %cmp5 = icmp eq i32 %3, 21
  br i1 %cmp5, label %lor.end, label %lor.rhs

lor.rhs:                                          ; preds = %lor.lhs.false4
  %4 = load i32, ptr %mt.addr, align 4, !tbaa !44
  %cmp6 = icmp eq i32 %4, 38
  br label %lor.end

lor.end:                                          ; preds = %lor.rhs, %lor.lhs.false4, %lor.lhs.false2, %lor.lhs.false, %entry
  %5 = phi i1 [ true, %lor.lhs.false4 ], [ true, %lor.lhs.false2 ], [ true, %lor.lhs.false ], [ true, %entry ], [ %cmp6, %lor.rhs ]
  ret i1 %5
}

; Function Attrs: mustprogress nounwind uwtable
define noundef zeroext i1 @_ZN6openmc16is_disappearanceEi(i32 noundef %mt) #2 {
entry:
  %retval = alloca i1, align 1
  %mt.addr = alloca i32, align 4
  store i32 %mt, ptr %mt.addr, align 4, !tbaa !44
  %0 = load i32, ptr %mt.addr, align 4, !tbaa !44
  %cmp = icmp sge i32 %0, 101
  br i1 %cmp, label %land.lhs.true, label %if.else

land.lhs.true:                                    ; preds = %entry
  %1 = load i32, ptr %mt.addr, align 4, !tbaa !44
  %cmp1 = icmp sle i32 %1, 117
  br i1 %cmp1, label %if.then, label %if.else

if.then:                                          ; preds = %land.lhs.true
  store i1 true, ptr %retval, align 1
  br label %return

if.else:                                          ; preds = %land.lhs.true, %entry
  %2 = load i32, ptr %mt.addr, align 4, !tbaa !44
  %cmp2 = icmp sge i32 %2, 600
  br i1 %cmp2, label %land.lhs.true3, label %if.else6

land.lhs.true3:                                   ; preds = %if.else
  %3 = load i32, ptr %mt.addr, align 4, !tbaa !44
  %cmp4 = icmp sle i32 %3, 849
  br i1 %cmp4, label %if.then5, label %if.else6

if.then5:                                         ; preds = %land.lhs.true3
  store i1 true, ptr %retval, align 1
  br label %return

if.else6:                                         ; preds = %land.lhs.true3, %if.else
  %4 = load i32, ptr %mt.addr, align 4, !tbaa !44
  %cmp7 = icmp eq i32 %4, 155
  br i1 %cmp7, label %if.then17, label %lor.lhs.false

lor.lhs.false:                                    ; preds = %if.else6
  %5 = load i32, ptr %mt.addr, align 4, !tbaa !44
  %cmp8 = icmp eq i32 %5, 182
  br i1 %cmp8, label %if.then17, label %lor.lhs.false9

lor.lhs.false9:                                   ; preds = %lor.lhs.false
  %6 = load i32, ptr %mt.addr, align 4, !tbaa !44
  %cmp10 = icmp eq i32 %6, 191
  br i1 %cmp10, label %if.then17, label %lor.lhs.false11

lor.lhs.false11:                                  ; preds = %lor.lhs.false9
  %7 = load i32, ptr %mt.addr, align 4, !tbaa !44
  %cmp12 = icmp eq i32 %7, 192
  br i1 %cmp12, label %if.then17, label %lor.lhs.false13

lor.lhs.false13:                                  ; preds = %lor.lhs.false11
  %8 = load i32, ptr %mt.addr, align 4, !tbaa !44
  %cmp14 = icmp eq i32 %8, 193
  br i1 %cmp14, label %if.then17, label %lor.lhs.false15

lor.lhs.false15:                                  ; preds = %lor.lhs.false13
  %9 = load i32, ptr %mt.addr, align 4, !tbaa !44
  %cmp16 = icmp eq i32 %9, 197
  br i1 %cmp16, label %if.then17, label %if.else18

if.then17:                                        ; preds = %lor.lhs.false15, %lor.lhs.false13, %lor.lhs.false11, %lor.lhs.false9, %lor.lhs.false, %if.else6
  store i1 true, ptr %retval, align 1
  br label %return

if.else18:                                        ; preds = %lor.lhs.false15
  store i1 false, ptr %retval, align 1
  br label %return

return:                                           ; preds = %if.else18, %if.then17, %if.then5, %if.then
  %10 = load i1, ptr %retval, align 1
  ret i1 %10
}

; Function Attrs: mustprogress nounwind uwtable
define noundef zeroext i1 @_ZN6openmc20is_inelastic_scatterEi(i32 noundef %mt) #2 {
entry:
  %retval = alloca i1, align 1
  %mt.addr = alloca i32, align 4
  store i32 %mt, ptr %mt.addr, align 4, !tbaa !44
  %0 = load i32, ptr %mt.addr, align 4, !tbaa !44
  %cmp = icmp slt i32 %0, 100
  br i1 %cmp, label %if.then, label %if.else4

if.then:                                          ; preds = %entry
  %1 = load i32, ptr %mt.addr, align 4, !tbaa !44
  %call = call noundef zeroext i1 @_ZN6openmc10is_fissionEi(i32 noundef %1)
  br i1 %call, label %if.then1, label %if.else

if.then1:                                         ; preds = %if.then
  store i1 false, ptr %retval, align 1
  br label %return

if.else:                                          ; preds = %if.then
  %2 = load i32, ptr %mt.addr, align 4, !tbaa !44
  %cmp2 = icmp sge i32 %2, 5
  br i1 %cmp2, label %land.rhs, label %land.end

land.rhs:                                         ; preds = %if.else
  %3 = load i32, ptr %mt.addr, align 4, !tbaa !44
  %cmp3 = icmp ne i32 %3, 27
  br label %land.end

land.end:                                         ; preds = %land.rhs, %if.else
  %4 = phi i1 [ false, %if.else ], [ %cmp3, %land.rhs ]
  store i1 %4, ptr %retval, align 1
  br label %return

if.else4:                                         ; preds = %entry
  %5 = load i32, ptr %mt.addr, align 4, !tbaa !44
  %cmp5 = icmp sle i32 %5, 200
  br i1 %cmp5, label %if.then6, label %if.else8

if.then6:                                         ; preds = %if.else4
  %6 = load i32, ptr %mt.addr, align 4, !tbaa !44
  %call7 = call noundef zeroext i1 @_ZN6openmc16is_disappearanceEi(i32 noundef %6)
  %lnot = xor i1 %call7, true
  store i1 %lnot, ptr %retval, align 1
  br label %return

if.else8:                                         ; preds = %if.else4
  %7 = load i32, ptr %mt.addr, align 4, !tbaa !44
  %cmp9 = icmp sge i32 %7, 875
  br i1 %cmp9, label %land.lhs.true, label %if.else12

land.lhs.true:                                    ; preds = %if.else8
  %8 = load i32, ptr %mt.addr, align 4, !tbaa !44
  %cmp10 = icmp sle i32 %8, 891
  br i1 %cmp10, label %if.then11, label %if.else12

if.then11:                                        ; preds = %land.lhs.true
  store i1 true, ptr %retval, align 1
  br label %return

if.else12:                                        ; preds = %land.lhs.true, %if.else8
  store i1 false, ptr %retval, align 1
  br label %return

return:                                           ; preds = %if.else12, %if.then11, %if.then6, %land.end, %if.then1
  %9 = load i1, ptr %retval, align 1
  ret i1 %9
}

; Function Attrs: mustprogress uwtable
define void @_ZN6openmc13read_functionElPKc(ptr dead_on_unwind noalias writable sret(%"class.std::unique_ptr") align 8 %agg.result, i64 noundef %group, ptr noundef %name) #0 personality ptr @__gxx_personality_v0 {
entry:
  %result.ptr = alloca ptr, align 8
  %group.addr = alloca i64, align 8
  %name.addr = alloca ptr, align 8
  %dset = alloca i64, align 8
  %func_type = alloca %"class.std::__cxx11::basic_string", align 8
  %exn.slot = alloca ptr, align 8
  %ehselector.slot = alloca i32, align 4
  %nrvo = alloca i1, align 1
  %ref.tmp = alloca %"class.std::unique_ptr.3", align 8
  %ref.tmp10 = alloca %"class.std::unique_ptr.11", align 8
  %ref.tmp18 = alloca %"class.std::unique_ptr.19", align 8
  %ref.tmp26 = alloca %"class.std::unique_ptr.27", align 8
  %ref.tmp31 = alloca %"class.std::__cxx11::basic_string", align 8
  %ref.tmp32 = alloca %"class.std::__cxx11::basic_string", align 8
  %ref.tmp33 = alloca %"class.std::__cxx11::basic_string", align 8
  %ref.tmp38 = alloca %"class.std::__cxx11::basic_string", align 8
  %cleanup.isactive = alloca i1, align 1
  store ptr %agg.result, ptr %result.ptr, align 8
  store i64 %group, ptr %group.addr, align 8, !tbaa !54
  store ptr %name, ptr %name.addr, align 8, !tbaa !62
  call void @llvm.lifetime.start.p0(i64 8, ptr %dset) #6
  %0 = load i64, ptr %group.addr, align 8, !tbaa !54
  %1 = load ptr, ptr %name.addr, align 8, !tbaa !62
  %call = call i64 @open_dataset(i64 noundef %0, ptr noundef %1)
  store i64 %call, ptr %dset, align 8, !tbaa !54
  call void @llvm.lifetime.start.p0(i64 32, ptr %func_type) #6
  call void @_ZNSt7__cxx1112basic_stringIcSt11char_traitsIcESaIcEEC2Ev(ptr noundef nonnull align 8 dereferenceable(32) %func_type) #6
  %2 = load i64, ptr %dset, align 8, !tbaa !54
  invoke void @_ZN6openmc14read_attributeElPKcRNSt7__cxx1112basic_stringIcSt11char_traitsIcESaIcEEE(i64 noundef %2, ptr noundef @.str.1, ptr noundef nonnull align 8 dereferenceable(32) %func_type)
          to label %invoke.cont unwind label %lpad

invoke.cont:                                      ; preds = %entry
  store i1 false, ptr %nrvo, align 1
  call void @_ZNSt10unique_ptrIN6openmc10Function1DESt14default_deleteIS1_EEC2IS3_vEEv(ptr noundef nonnull align 8 dereferenceable(8) %agg.result) #6
  %call3 = invoke noundef zeroext i1 @_ZSteqIcSt11char_traitsIcESaIcEEbRKNSt7__cxx1112basic_stringIT_T0_T1_EEPKS5_(ptr noundef nonnull align 8 dereferenceable(32) %func_type, ptr noundef @.str.2)
          to label %invoke.cont2 unwind label %lpad1

invoke.cont2:                                     ; preds = %invoke.cont
  br i1 %call3, label %if.then, label %if.else

if.then:                                          ; preds = %invoke.cont2
  call void @llvm.lifetime.start.p0(i64 8, ptr %ref.tmp) #6
  invoke void @_ZSt11make_uniqueIN6openmc11Tabulated1DEJRlEENSt8__detail9_MakeUniqIT_E15__single_objectEDpOT0_(ptr dead_on_unwind writable sret(%"class.std::unique_ptr.3") align 8 %ref.tmp, ptr noundef nonnull align 8 dereferenceable(8) %dset)
          to label %invoke.cont5 unwind label %lpad4

invoke.cont5:                                     ; preds = %if.then
  %call6 = call noundef nonnull align 8 dereferenceable(8) ptr @_ZNSt10unique_ptrIN6openmc10Function1DESt14default_deleteIS1_EEaSINS0_11Tabulated1DES2_IS6_EEENSt9enable_ifIXsr6__and_ISt6__and_IJSt14is_convertibleINS_IT_T0_E7pointerEPS1_ESt6__not_ISt8is_arrayISB_EEEESt13is_assignableIRS3_OSC_EEE5valueERS4_E4typeEOSD_(ptr noundef nonnull align 8 dereferenceable(8) %agg.result, ptr noundef nonnull align 8 dereferenceable(8) %ref.tmp) #6
  call void @_ZNSt10unique_ptrIN6openmc11Tabulated1DESt14default_deleteIS1_EED2Ev(ptr noundef nonnull align 8 dereferenceable(8) %ref.tmp) #6
  call void @llvm.lifetime.end.p0(i64 8, ptr %ref.tmp) #6
  br label %if.end54

lpad:                                             ; preds = %entry
  %3 = landingpad { ptr, i32 }
          cleanup
  %4 = extractvalue { ptr, i32 } %3, 0
  store ptr %4, ptr %exn.slot, align 8
  %5 = extractvalue { ptr, i32 } %3, 1
  store i32 %5, ptr %ehselector.slot, align 4
  br label %ehcleanup57

lpad1:                                            ; preds = %if.end54, %if.else22, %if.else14, %if.else, %invoke.cont
  %6 = landingpad { ptr, i32 }
          cleanup
  %7 = extractvalue { ptr, i32 } %6, 0
  store ptr %7, ptr %exn.slot, align 8
  %8 = extractvalue { ptr, i32 } %6, 1
  store i32 %8, ptr %ehselector.slot, align 4
  br label %ehcleanup56

lpad4:                                            ; preds = %if.then
  %9 = landingpad { ptr, i32 }
          cleanup
  %10 = extractvalue { ptr, i32 } %9, 0
  store ptr %10, ptr %exn.slot, align 8
  %11 = extractvalue { ptr, i32 } %9, 1
  store i32 %11, ptr %ehselector.slot, align 4
  call void @llvm.lifetime.end.p0(i64 8, ptr %ref.tmp) #6
  br label %ehcleanup56

if.else:                                          ; preds = %invoke.cont2
  %call8 = invoke noundef zeroext i1 @_ZSteqIcSt11char_traitsIcESaIcEEbRKNSt7__cxx1112basic_stringIT_T0_T1_EEPKS5_(ptr noundef nonnull align 8 dereferenceable(32) %func_type, ptr noundef @.str.3)
          to label %invoke.cont7 unwind label %lpad1

invoke.cont7:                                     ; preds = %if.else
  br i1 %call8, label %if.then9, label %if.else14

if.then9:                                         ; preds = %invoke.cont7
  call void @llvm.lifetime.start.p0(i64 8, ptr %ref.tmp10) #6
  invoke void @_ZSt11make_uniqueIN6openmc10PolynomialEJRlEENSt8__detail9_MakeUniqIT_E15__single_objectEDpOT0_(ptr dead_on_unwind writable sret(%"class.std::unique_ptr.11") align 8 %ref.tmp10, ptr noundef nonnull align 8 dereferenceable(8) %dset)
          to label %invoke.cont12 unwind label %lpad11

invoke.cont12:                                    ; preds = %if.then9
  %call13 = call noundef nonnull align 8 dereferenceable(8) ptr @_ZNSt10unique_ptrIN6openmc10Function1DESt14default_deleteIS1_EEaSINS0_10PolynomialES2_IS6_EEENSt9enable_ifIXsr6__and_ISt6__and_IJSt14is_convertibleINS_IT_T0_E7pointerEPS1_ESt6__not_ISt8is_arrayISB_EEEESt13is_assignableIRS3_OSC_EEE5valueERS4_E4typeEOSD_(ptr noundef nonnull align 8 dereferenceable(8) %agg.result, ptr noundef nonnull align 8 dereferenceable(8) %ref.tmp10) #6
  call void @_ZNSt10unique_ptrIN6openmc10PolynomialESt14default_deleteIS1_EED2Ev(ptr noundef nonnull align 8 dereferenceable(8) %ref.tmp10) #6
  call void @llvm.lifetime.end.p0(i64 8, ptr %ref.tmp10) #6
  br label %if.end53

lpad11:                                           ; preds = %if.then9
  %12 = landingpad { ptr, i32 }
          cleanup
  %13 = extractvalue { ptr, i32 } %12, 0
  store ptr %13, ptr %exn.slot, align 8
  %14 = extractvalue { ptr, i32 } %12, 1
  store i32 %14, ptr %ehselector.slot, align 4
  call void @llvm.lifetime.end.p0(i64 8, ptr %ref.tmp10) #6
  br label %ehcleanup56

if.else14:                                        ; preds = %invoke.cont7
  %call16 = invoke noundef zeroext i1 @_ZSteqIcSt11char_traitsIcESaIcEEbRKNSt7__cxx1112basic_stringIT_T0_T1_EEPKS5_(ptr noundef nonnull align 8 dereferenceable(32) %func_type, ptr noundef @.str.4)
          to label %invoke.cont15 unwind label %lpad1

invoke.cont15:                                    ; preds = %if.else14
  br i1 %call16, label %if.then17, label %if.else22

if.then17:                                        ; preds = %invoke.cont15
  call void @llvm.lifetime.start.p0(i64 8, ptr %ref.tmp18) #6
  invoke void @_ZSt11make_uniqueIN6openmc17CoherentElasticXSEJRlEENSt8__detail9_MakeUniqIT_E15__single_objectEDpOT0_(ptr dead_on_unwind writable sret(%"class.std::unique_ptr.19") align 8 %ref.tmp18, ptr noundef nonnull align 8 dereferenceable(8) %dset)
          to label %invoke.cont20 unwind label %lpad19

invoke.cont20:                                    ; preds = %if.then17
  %call21 = call noundef nonnull align 8 dereferenceable(8) ptr @_ZNSt10unique_ptrIN6openmc10Function1DESt14default_deleteIS1_EEaSINS0_17CoherentElasticXSES2_IS6_EEENSt9enable_ifIXsr6__and_ISt6__and_IJSt14is_convertibleINS_IT_T0_E7pointerEPS1_ESt6__not_ISt8is_arrayISB_EEEESt13is_assignableIRS3_OSC_EEE5valueERS4_E4typeEOSD_(ptr noundef nonnull align 8 dereferenceable(8) %agg.result, ptr noundef nonnull align 8 dereferenceable(8) %ref.tmp18) #6
  call void @_ZNSt10unique_ptrIN6openmc17CoherentElasticXSESt14default_deleteIS1_EED2Ev(ptr noundef nonnull align 8 dereferenceable(8) %ref.tmp18) #6
  call void @llvm.lifetime.end.p0(i64 8, ptr %ref.tmp18) #6
  br label %if.end52

lpad19:                                           ; preds = %if.then17
  %15 = landingpad { ptr, i32 }
          cleanup
  %16 = extractvalue { ptr, i32 } %15, 0
  store ptr %16, ptr %exn.slot, align 8
  %17 = extractvalue { ptr, i32 } %15, 1
  store i32 %17, ptr %ehselector.slot, align 4
  call void @llvm.lifetime.end.p0(i64 8, ptr %ref.tmp18) #6
  br label %ehcleanup56

if.else22:                                        ; preds = %invoke.cont15
  %call24 = invoke noundef zeroext i1 @_ZSteqIcSt11char_traitsIcESaIcEEbRKNSt7__cxx1112basic_stringIT_T0_T1_EEPKS5_(ptr noundef nonnull align 8 dereferenceable(32) %func_type, ptr noundef @.str.5)
          to label %invoke.cont23 unwind label %lpad1

invoke.cont23:                                    ; preds = %if.else22
  br i1 %call24, label %if.then25, label %if.else30

if.then25:                                        ; preds = %invoke.cont23
  call void @llvm.lifetime.start.p0(i64 8, ptr %ref.tmp26) #6
  invoke void @_ZSt11make_uniqueIN6openmc19IncoherentElasticXSEJRlEENSt8__detail9_MakeUniqIT_E15__single_objectEDpOT0_(ptr dead_on_unwind writable sret(%"class.std::unique_ptr.27") align 8 %ref.tmp26, ptr noundef nonnull align 8 dereferenceable(8) %dset)
          to label %invoke.cont28 unwind label %lpad27

invoke.cont28:                                    ; preds = %if.then25
  %call29 = call noundef nonnull align 8 dereferenceable(8) ptr @_ZNSt10unique_ptrIN6openmc10Function1DESt14default_deleteIS1_EEaSINS0_19IncoherentElasticXSES2_IS6_EEENSt9enable_ifIXsr6__and_ISt6__and_IJSt14is_convertibleINS_IT_T0_E7pointerEPS1_ESt6__not_ISt8is_arrayISB_EEEESt13is_assignableIRS3_OSC_EEE5valueERS4_E4typeEOSD_(ptr noundef nonnull align 8 dereferenceable(8) %agg.result, ptr noundef nonnull align 8 dereferenceable(8) %ref.tmp26) #6
  call void @_ZNSt10unique_ptrIN6openmc19IncoherentElasticXSESt14default_deleteIS1_EED2Ev(ptr noundef nonnull align 8 dereferenceable(8) %ref.tmp26) #6
  call void @llvm.lifetime.end.p0(i64 8, ptr %ref.tmp26) #6
  br label %if.end

lpad27:                                           ; preds = %if.then25
  %18 = landingpad { ptr, i32 }
          cleanup
  %19 = extractvalue { ptr, i32 } %18, 0
  store ptr %19, ptr %exn.slot, align 8
  %20 = extractvalue { ptr, i32 } %18, 1
  store i32 %20, ptr %ehselector.slot, align 4
  call void @llvm.lifetime.end.p0(i64 8, ptr %ref.tmp26) #6
  br label %ehcleanup56

if.else30:                                        ; preds = %invoke.cont23
  store i1 true, ptr %cleanup.isactive, align 1
  %exception = call ptr @__cxa_allocate_exception(i64 16) #6
  call void @llvm.lifetime.start.p0(i64 32, ptr %ref.tmp31) #6
  call void @llvm.lifetime.start.p0(i64 32, ptr %ref.tmp32) #6
  call void @llvm.lifetime.start.p0(i64 32, ptr %ref.tmp33) #6
  invoke void @_ZStplIcSt11char_traitsIcESaIcEENSt7__cxx1112basic_stringIT_T0_T1_EEPKS5_RKS8_(ptr dead_on_unwind writable sret(%"class.std::__cxx11::basic_string") align 8 %ref.tmp33, ptr noundef @.str.6, ptr noundef nonnull align 8 dereferenceable(32) %func_type)
          to label %invoke.cont35 unwind label %lpad34

invoke.cont35:                                    ; preds = %if.else30
  invoke void @_ZStplIcSt11char_traitsIcESaIcEENSt7__cxx1112basic_stringIT_T0_T1_EEOS8_PKS5_(ptr dead_on_unwind writable sret(%"class.std::__cxx11::basic_string") align 8 %ref.tmp32, ptr noundef nonnull align 8 dereferenceable(32) %ref.tmp33, ptr noundef @.str.7)
          to label %invoke.cont37 unwind label %lpad36

invoke.cont37:                                    ; preds = %invoke.cont35
  call void @llvm.lifetime.start.p0(i64 32, ptr %ref.tmp38) #6
  %21 = load i64, ptr %dset, align 8, !tbaa !54
  invoke void @_ZN6openmc11object_nameB5cxx11El(ptr dead_on_unwind writable sret(%"class.std::__cxx11::basic_string") align 8 %ref.tmp38, i64 noundef %21)
          to label %invoke.cont40 unwind label %lpad39

invoke.cont40:                                    ; preds = %invoke.cont37
  invoke void @_ZStplIcSt11char_traitsIcESaIcEENSt7__cxx1112basic_stringIT_T0_T1_EEOS8_S9_(ptr dead_on_unwind writable sret(%"class.std::__cxx11::basic_string") align 8 %ref.tmp31, ptr noundef nonnull align 8 dereferenceable(32) %ref.tmp32, ptr noundef nonnull align 8 dereferenceable(32) %ref.tmp38)
          to label %invoke.cont42 unwind label %lpad41

invoke.cont42:                                    ; preds = %invoke.cont40
  invoke void @_ZNSt13runtime_errorC1ERKNSt7__cxx1112basic_stringIcSt11char_traitsIcESaIcEEE(ptr noundef nonnull align 8 dereferenceable(16) %exception, ptr noundef nonnull align 8 dereferenceable(32) %ref.tmp31)
          to label %invoke.cont44 unwind label %lpad43

invoke.cont44:                                    ; preds = %invoke.cont42
  store i1 false, ptr %cleanup.isactive, align 1
  invoke void @__cxa_throw(ptr %exception, ptr @_ZTISt13runtime_error, ptr @_ZNSt13runtime_errorD1Ev) #24
          to label %unreachable unwind label %lpad43

lpad34:                                           ; preds = %if.else30
  %22 = landingpad { ptr, i32 }
          cleanup
  %23 = extractvalue { ptr, i32 } %22, 0
  store ptr %23, ptr %exn.slot, align 8
  %24 = extractvalue { ptr, i32 } %22, 1
  store i32 %24, ptr %ehselector.slot, align 4
  br label %ehcleanup48

lpad36:                                           ; preds = %invoke.cont35
  %25 = landingpad { ptr, i32 }
          cleanup
  %26 = extractvalue { ptr, i32 } %25, 0
  store ptr %26, ptr %exn.slot, align 8
  %27 = extractvalue { ptr, i32 } %25, 1
  store i32 %27, ptr %ehselector.slot, align 4
  br label %ehcleanup47

lpad39:                                           ; preds = %invoke.cont37
  %28 = landingpad { ptr, i32 }
          cleanup
  %29 = extractvalue { ptr, i32 } %28, 0
  store ptr %29, ptr %exn.slot, align 8
  %30 = extractvalue { ptr, i32 } %28, 1
  store i32 %30, ptr %ehselector.slot, align 4
  br label %ehcleanup45

lpad41:                                           ; preds = %invoke.cont40
  %31 = landingpad { ptr, i32 }
          cleanup
  %32 = extractvalue { ptr, i32 } %31, 0
  store ptr %32, ptr %exn.slot, align 8
  %33 = extractvalue { ptr, i32 } %31, 1
  store i32 %33, ptr %ehselector.slot, align 4
  br label %ehcleanup

lpad43:                                           ; preds = %invoke.cont44, %invoke.cont42
  %34 = landingpad { ptr, i32 }
          cleanup
  %35 = extractvalue { ptr, i32 } %34, 0
  store ptr %35, ptr %exn.slot, align 8
  %36 = extractvalue { ptr, i32 } %34, 1
  store i32 %36, ptr %ehselector.slot, align 4
  call void @_ZNSt7__cxx1112basic_stringIcSt11char_traitsIcESaIcEED2Ev(ptr noundef nonnull align 8 dereferenceable(32) %ref.tmp31) #6
  br label %ehcleanup

ehcleanup:                                        ; preds = %lpad43, %lpad41
  call void @_ZNSt7__cxx1112basic_stringIcSt11char_traitsIcESaIcEED2Ev(ptr noundef nonnull align 8 dereferenceable(32) %ref.tmp38) #6
  br label %ehcleanup45

ehcleanup45:                                      ; preds = %ehcleanup, %lpad39
  call void @llvm.lifetime.end.p0(i64 32, ptr %ref.tmp38) #6
  call void @_ZNSt7__cxx1112basic_stringIcSt11char_traitsIcESaIcEED2Ev(ptr noundef nonnull align 8 dereferenceable(32) %ref.tmp32) #6
  br label %ehcleanup47

ehcleanup47:                                      ; preds = %ehcleanup45, %lpad36
  call void @_ZNSt7__cxx1112basic_stringIcSt11char_traitsIcESaIcEED2Ev(ptr noundef nonnull align 8 dereferenceable(32) %ref.tmp33) #6
  br label %ehcleanup48

ehcleanup48:                                      ; preds = %ehcleanup47, %lpad34
  call void @llvm.lifetime.end.p0(i64 32, ptr %ref.tmp33) #6
  call void @llvm.lifetime.end.p0(i64 32, ptr %ref.tmp32) #6
  call void @llvm.lifetime.end.p0(i64 32, ptr %ref.tmp31) #6
  %cleanup.is_active = load i1, ptr %cleanup.isactive, align 1
  br i1 %cleanup.is_active, label %cleanup.action, label %cleanup.done

cleanup.action:                                   ; preds = %ehcleanup48
  call void @__cxa_free_exception(ptr %exception) #6
  br label %cleanup.done

cleanup.done:                                     ; preds = %cleanup.action, %ehcleanup48
  br label %ehcleanup56

if.end:                                           ; preds = %invoke.cont28
  br label %if.end52

if.end52:                                         ; preds = %if.end, %invoke.cont20
  br label %if.end53

if.end53:                                         ; preds = %if.end52, %invoke.cont12
  br label %if.end54

if.end54:                                         ; preds = %if.end53, %invoke.cont5
  %37 = load i64, ptr %dset, align 8, !tbaa !54
  invoke void @close_dataset(i64 noundef %37)
          to label %invoke.cont55 unwind label %lpad1

invoke.cont55:                                    ; preds = %if.end54
  store i1 true, ptr %nrvo, align 1
  %nrvo.val = load i1, ptr %nrvo, align 1
  br i1 %nrvo.val, label %nrvo.skipdtor, label %nrvo.unused

nrvo.unused:                                      ; preds = %invoke.cont55
  call void @_ZNSt10unique_ptrIN6openmc10Function1DESt14default_deleteIS1_EED2Ev(ptr noundef nonnull align 8 dereferenceable(8) %agg.result) #6
  br label %nrvo.skipdtor

nrvo.skipdtor:                                    ; preds = %nrvo.unused, %invoke.cont55
  call void @_ZNSt7__cxx1112basic_stringIcSt11char_traitsIcESaIcEED2Ev(ptr noundef nonnull align 8 dereferenceable(32) %func_type) #6
  call void @llvm.lifetime.end.p0(i64 32, ptr %func_type) #6
  call void @llvm.lifetime.end.p0(i64 8, ptr %dset) #6
  ret void

ehcleanup56:                                      ; preds = %cleanup.done, %lpad27, %lpad19, %lpad11, %lpad4, %lpad1
  call void @_ZNSt10unique_ptrIN6openmc10Function1DESt14default_deleteIS1_EED2Ev(ptr noundef nonnull align 8 dereferenceable(8) %agg.result) #6
  br label %ehcleanup57

ehcleanup57:                                      ; preds = %ehcleanup56, %lpad
  call void @_ZNSt7__cxx1112basic_stringIcSt11char_traitsIcESaIcEED2Ev(ptr noundef nonnull align 8 dereferenceable(32) %func_type) #6
  call void @llvm.lifetime.end.p0(i64 32, ptr %func_type) #6
  call void @llvm.lifetime.end.p0(i64 8, ptr %dset) #6
  br label %eh.resume

eh.resume:                                        ; preds = %ehcleanup57
  %exn = load ptr, ptr %exn.slot, align 8
  %sel = load i32, ptr %ehselector.slot, align 4
  %lpad.val = insertvalue { ptr, i32 } poison, ptr %exn, 0
  %lpad.val60 = insertvalue { ptr, i32 } %lpad.val, i32 %sel, 1
  resume { ptr, i32 } %lpad.val60

unreachable:                                      ; preds = %invoke.cont44
  unreachable
}

; Function Attrs: nocallback nofree nosync nounwind willreturn memory(argmem: readwrite)
declare void @llvm.lifetime.start.p0(i64 immarg, ptr captures(none)) #7

declare i64 @open_dataset(i64 noundef, ptr noundef) #4

; Function Attrs: mustprogress nounwind uwtable
define available_externally void @_ZNSt7__cxx1112basic_stringIcSt11char_traitsIcESaIcEEC2Ev(ptr noundef nonnull align 8 dereferenceable(32) %this) unnamed_addr #2 align 2 personality ptr @__gxx_personality_v0 {
entry:
  %this.addr = alloca ptr, align 8
  %ref.tmp = alloca %"class.std::allocator", align 1
  store ptr %this, ptr %this.addr, align 8, !tbaa !64
  %this1 = load ptr, ptr %this.addr, align 8
  %_M_dataplus = getelementptr inbounds nuw %"class.std::__cxx11::basic_string", ptr %this1, i32 0, i32 0
  %call = invoke noundef ptr @_ZNSt7__cxx1112basic_stringIcSt11char_traitsIcESaIcEE13_M_local_dataEv(ptr noundef nonnull align 8 dereferenceable(32) %this1)
          to label %invoke.cont unwind label %terminate.lpad

invoke.cont:                                      ; preds = %entry
  call void @llvm.lifetime.start.p0(i64 1, ptr %ref.tmp) #6
  call void @_ZNSaIcEC2Ev(ptr noundef nonnull align 1 dereferenceable(1) %ref.tmp) #6
  invoke void @_ZNSt7__cxx1112basic_stringIcSt11char_traitsIcESaIcEE12_Alloc_hiderC2EPcOS3_(ptr noundef nonnull align 8 dereferenceable(8) %_M_dataplus, ptr noundef %call, ptr noundef nonnull align 1 dereferenceable(1) %ref.tmp)
          to label %invoke.cont2 unwind label %terminate.lpad

invoke.cont2:                                     ; preds = %invoke.cont
  call void @_ZNSt15__new_allocatorIcED2Ev(ptr noundef nonnull align 1 dereferenceable(1) %ref.tmp) #6
  call void @llvm.lifetime.end.p0(i64 1, ptr %ref.tmp) #6
  %call3 = call noundef ptr @_ZNSt7__cxx1112basic_stringIcSt11char_traitsIcESaIcEE17_M_use_local_dataEv(ptr noundef nonnull align 8 dereferenceable(32) %this1) #6
  invoke void @_ZNSt7__cxx1112basic_stringIcSt11char_traitsIcESaIcEE13_M_set_lengthEm(ptr noundef nonnull align 8 dereferenceable(32) %this1, i64 noundef 0)
          to label %invoke.cont4 unwind label %terminate.lpad

invoke.cont4:                                     ; preds = %invoke.cont2
  ret void

terminate.lpad:                                   ; preds = %invoke.cont2, %invoke.cont, %entry
  %0 = landingpad { ptr, i32 }
          catch ptr null
  %1 = extractvalue { ptr, i32 } %0, 0
  call void @__clang_call_terminate(ptr %1) #25
  unreachable
}

; Function Attrs: inlinehint mustprogress uwtable
define linkonce_odr void @_ZN6openmc14read_attributeElPKcRNSt7__cxx1112basic_stringIcSt11char_traitsIcESaIcEEE(i64 noundef %obj_id, ptr noundef %name, ptr noundef nonnull align 8 dereferenceable(32) %str) #8 comdat personality ptr @__gxx_personality_v0 {
entry:
  %obj_id.addr = alloca i64, align 8
  %name.addr = alloca ptr, align 8
  %str.addr = alloca ptr, align 8
  %n = alloca i64, align 8
  %buffer = alloca ptr, align 8
  %ref.tmp = alloca %"class.std::__cxx11::basic_string", align 8
  %ref.tmp2 = alloca %"class.std::allocator", align 1
  %exn.slot = alloca ptr, align 8
  %ehselector.slot = alloca i32, align 4
  store i64 %obj_id, ptr %obj_id.addr, align 8, !tbaa !54
  store ptr %name, ptr %name.addr, align 8, !tbaa !62
  store ptr %str, ptr %str.addr, align 8, !tbaa !64
  call void @llvm.lifetime.start.p0(i64 8, ptr %n) #6
  %0 = load i64, ptr %obj_id.addr, align 8, !tbaa !54
  %1 = load ptr, ptr %name.addr, align 8, !tbaa !62
  %call = call i64 @attribute_typesize(i64 noundef %0, ptr noundef %1)
  store i64 %call, ptr %n, align 8, !tbaa !54
  call void @llvm.lifetime.start.p0(i64 8, ptr %buffer) #6
  %2 = load i64, ptr %n, align 8, !tbaa !54
  %call1 = call noalias noundef nonnull ptr @_Znam(i64 noundef %2) #26
  store ptr %call1, ptr %buffer, align 8, !tbaa !62
  %3 = load i64, ptr %obj_id.addr, align 8, !tbaa !54
  %4 = load ptr, ptr %name.addr, align 8, !tbaa !62
  %5 = load i64, ptr %n, align 8, !tbaa !54
  %6 = load ptr, ptr %buffer, align 8, !tbaa !62
  call void @read_attr_string(i64 noundef %3, ptr noundef %4, i64 noundef %5, ptr noundef %6)
  call void @llvm.lifetime.start.p0(i64 32, ptr %ref.tmp) #6
  %7 = load ptr, ptr %buffer, align 8, !tbaa !62
  %8 = load i64, ptr %n, align 8, !tbaa !54
  call void @llvm.lifetime.start.p0(i64 1, ptr %ref.tmp2) #6
  call void @_ZNSaIcEC2Ev(ptr noundef nonnull align 1 dereferenceable(1) %ref.tmp2) #6
  invoke void @_ZNSt7__cxx1112basic_stringIcSt11char_traitsIcESaIcEEC2EPKcmRKS3_(ptr noundef nonnull align 8 dereferenceable(32) %ref.tmp, ptr noundef %7, i64 noundef %8, ptr noundef nonnull align 1 dereferenceable(1) %ref.tmp2)
          to label %invoke.cont unwind label %lpad

invoke.cont:                                      ; preds = %entry
  %9 = load ptr, ptr %str.addr, align 8, !tbaa !64
  %call3 = call noundef nonnull align 8 dereferenceable(32) ptr @_ZNSt7__cxx1112basic_stringIcSt11char_traitsIcESaIcEEaSEOS4_(ptr noundef nonnull align 8 dereferenceable(32) %9, ptr noundef nonnull align 8 dereferenceable(32) %ref.tmp) #6
  call void @_ZNSt7__cxx1112basic_stringIcSt11char_traitsIcESaIcEED2Ev(ptr noundef nonnull align 8 dereferenceable(32) %ref.tmp) #6
  call void @_ZNSt15__new_allocatorIcED2Ev(ptr noundef nonnull align 1 dereferenceable(1) %ref.tmp2) #6
  call void @llvm.lifetime.end.p0(i64 1, ptr %ref.tmp2) #6
  call void @llvm.lifetime.end.p0(i64 32, ptr %ref.tmp) #6
  %10 = load ptr, ptr %buffer, align 8, !tbaa !62
  %isnull = icmp eq ptr %10, null
  br i1 %isnull, label %delete.end, label %delete.notnull

delete.notnull:                                   ; preds = %invoke.cont
  call void @_ZdaPv(ptr noundef %10) #23
  br label %delete.end

delete.end:                                       ; preds = %delete.notnull, %invoke.cont
  call void @llvm.lifetime.end.p0(i64 8, ptr %buffer) #6
  call void @llvm.lifetime.end.p0(i64 8, ptr %n) #6
  ret void

lpad:                                             ; preds = %entry
  %11 = landingpad { ptr, i32 }
          cleanup
  %12 = extractvalue { ptr, i32 } %11, 0
  store ptr %12, ptr %exn.slot, align 8
  %13 = extractvalue { ptr, i32 } %11, 1
  store i32 %13, ptr %ehselector.slot, align 4
  call void @_ZNSt15__new_allocatorIcED2Ev(ptr noundef nonnull align 1 dereferenceable(1) %ref.tmp2) #6
  call void @llvm.lifetime.end.p0(i64 1, ptr %ref.tmp2) #6
  call void @llvm.lifetime.end.p0(i64 32, ptr %ref.tmp) #6
  call void @llvm.lifetime.end.p0(i64 8, ptr %buffer) #6
  call void @llvm.lifetime.end.p0(i64 8, ptr %n) #6
  br label %eh.resume

eh.resume:                                        ; preds = %lpad
  %exn = load ptr, ptr %exn.slot, align 8
  %sel = load i32, ptr %ehselector.slot, align 4
  %lpad.val = insertvalue { ptr, i32 } poison, ptr %exn, 0
  %lpad.val4 = insertvalue { ptr, i32 } %lpad.val, i32 %sel, 1
  resume { ptr, i32 } %lpad.val4
}

; Function Attrs: mustprogress nounwind uwtable
define linkonce_odr void @_ZNSt10unique_ptrIN6openmc10Function1DESt14default_deleteIS1_EEC2IS3_vEEv(ptr noundef nonnull align 8 dereferenceable(8) %this) unnamed_addr #2 comdat align 2 {
entry:
  %this.addr = alloca ptr, align 8
  store ptr %this, ptr %this.addr, align 8, !tbaa !66
  %this1 = load ptr, ptr %this.addr, align 8
  %_M_t = getelementptr inbounds nuw %"class.std::unique_ptr", ptr %this1, i32 0, i32 0
  call void @llvm.memset.p0.i64(ptr align 8 %_M_t, i8 0, i64 8, i1 false)
  call void @_ZNSt15__uniq_ptr_dataIN6openmc10Function1DESt14default_deleteIS1_ELb1ELb1EEC2Ev(ptr noundef nonnull align 8 dereferenceable(8) %_M_t) #6
  ret void
}

; Function Attrs: inlinehint mustprogress nounwind uwtable
define linkonce_odr noundef zeroext i1 @_ZSteqIcSt11char_traitsIcESaIcEEbRKNSt7__cxx1112basic_stringIT_T0_T1_EEPKS5_(ptr noundef nonnull align 8 dereferenceable(32) %__lhs, ptr noundef %__rhs) #1 comdat {
entry:
  %__lhs.addr = alloca ptr, align 8
  %__rhs.addr = alloca ptr, align 8
  store ptr %__lhs, ptr %__lhs.addr, align 8, !tbaa !64
  store ptr %__rhs, ptr %__rhs.addr, align 8, !tbaa !62
  %0 = load ptr, ptr %__lhs.addr, align 8, !tbaa !64
  %1 = load ptr, ptr %__rhs.addr, align 8, !tbaa !62
  %call = call noundef i32 @_ZNKSt7__cxx1112basic_stringIcSt11char_traitsIcESaIcEE7compareEPKc(ptr noundef nonnull align 8 dereferenceable(32) %0, ptr noundef %1) #6
  %cmp = icmp eq i32 %call, 0
  ret i1 %cmp
}

; Function Attrs: inlinehint mustprogress uwtable
define linkonce_odr void @_ZSt11make_uniqueIN6openmc11Tabulated1DEJRlEENSt8__detail9_MakeUniqIT_E15__single_objectEDpOT0_(ptr dead_on_unwind noalias writable sret(%"class.std::unique_ptr.3") align 8 %agg.result, ptr noundef nonnull align 8 dereferenceable(8) %__args) #8 comdat personality ptr @__gxx_personality_v0 {
entry:
  %result.ptr = alloca ptr, align 8
  %__args.addr = alloca ptr, align 8
  %exn.slot = alloca ptr, align 8
  %ehselector.slot = alloca i32, align 4
  store ptr %agg.result, ptr %result.ptr, align 8
  store ptr %__args, ptr %__args.addr, align 8, !tbaa !68
  %call = call noalias noundef nonnull ptr @_Znwm(i64 noundef 120) #26
  %0 = load ptr, ptr %__args.addr, align 8, !tbaa !68
  %1 = load i64, ptr %0, align 8, !tbaa !54
  invoke void @_ZN6openmc11Tabulated1DC1El(ptr noundef nonnull align 8 dereferenceable(120) %call, i64 noundef %1)
          to label %invoke.cont unwind label %lpad

invoke.cont:                                      ; preds = %entry
  call void @_ZNSt10unique_ptrIN6openmc11Tabulated1DESt14default_deleteIS1_EEC2IS3_vEEPS1_(ptr noundef nonnull align 8 dereferenceable(8) %agg.result, ptr noundef %call) #6
  ret void

lpad:                                             ; preds = %entry
  %2 = landingpad { ptr, i32 }
          cleanup
  %3 = extractvalue { ptr, i32 } %2, 0
  store ptr %3, ptr %exn.slot, align 8
  %4 = extractvalue { ptr, i32 } %2, 1
  store i32 %4, ptr %ehselector.slot, align 4
  call void @_ZdlPvm(ptr noundef %call, i64 noundef 120) #23
  br label %eh.resume

eh.resume:                                        ; preds = %lpad
  %exn = load ptr, ptr %exn.slot, align 8
  %sel = load i32, ptr %ehselector.slot, align 4
  %lpad.val = insertvalue { ptr, i32 } poison, ptr %exn, 0
  %lpad.val1 = insertvalue { ptr, i32 } %lpad.val, i32 %sel, 1
  resume { ptr, i32 } %lpad.val1
}

; Function Attrs: mustprogress nounwind uwtable
define linkonce_odr noundef nonnull align 8 dereferenceable(8) ptr @_ZNSt10unique_ptrIN6openmc10Function1DESt14default_deleteIS1_EEaSINS0_11Tabulated1DES2_IS6_EEENSt9enable_ifIXsr6__and_ISt6__and_IJSt14is_convertibleINS_IT_T0_E7pointerEPS1_ESt6__not_ISt8is_arrayISB_EEEESt13is_assignableIRS3_OSC_EEE5valueERS4_E4typeEOSD_(ptr noundef nonnull align 8 dereferenceable(8) %this, ptr noundef nonnull align 8 dereferenceable(8) %__u) #2 comdat align 2 {
entry:
  %this.addr = alloca ptr, align 8
  %__u.addr = alloca ptr, align 8
  %ref.tmp = alloca %"struct.std::default_delete", align 1
  store ptr %this, ptr %this.addr, align 8, !tbaa !66
  store ptr %__u, ptr %__u.addr, align 8, !tbaa !70
  %this1 = load ptr, ptr %this.addr, align 8
  %0 = load ptr, ptr %__u.addr, align 8, !tbaa !70
  %call = call noundef ptr @_ZNSt10unique_ptrIN6openmc11Tabulated1DESt14default_deleteIS1_EE7releaseEv(ptr noundef nonnull align 8 dereferenceable(8) %0) #6
  call void @_ZNSt10unique_ptrIN6openmc10Function1DESt14default_deleteIS1_EE5resetEPS1_(ptr noundef nonnull align 8 dereferenceable(8) %this1, ptr noundef %call) #6
  call void @llvm.lifetime.start.p0(i64 1, ptr %ref.tmp) #6
  %1 = load ptr, ptr %__u.addr, align 8, !tbaa !70
  %call2 = call noundef nonnull align 1 dereferenceable(1) ptr @_ZNSt10unique_ptrIN6openmc11Tabulated1DESt14default_deleteIS1_EE11get_deleterEv(ptr noundef nonnull align 8 dereferenceable(8) %1) #6
  call void @_ZNSt14default_deleteIN6openmc10Function1DEEC2INS0_11Tabulated1DEvEERKS_IT_E(ptr noundef nonnull align 1 dereferenceable(1) %ref.tmp, ptr noundef nonnull align 1 dereferenceable(1) %call2) #6
  %call3 = call noundef nonnull align 1 dereferenceable(1) ptr @_ZNSt10unique_ptrIN6openmc10Function1DESt14default_deleteIS1_EE11get_deleterEv(ptr noundef nonnull align 8 dereferenceable(8) %this1) #6
  call void @llvm.lifetime.end.p0(i64 1, ptr %ref.tmp) #6
  ret ptr %this1
}

; Function Attrs: mustprogress nounwind uwtable
define linkonce_odr void @_ZNSt10unique_ptrIN6openmc11Tabulated1DESt14default_deleteIS1_EED2Ev(ptr noundef nonnull align 8 dereferenceable(8) %this) unnamed_addr #2 comdat align 2 personality ptr @__gxx_personality_v0 {
entry:
  %this.addr = alloca ptr, align 8
  %__ptr = alloca ptr, align 8
  store ptr %this, ptr %this.addr, align 8, !tbaa !70
  %this1 = load ptr, ptr %this.addr, align 8
  call void @llvm.lifetime.start.p0(i64 8, ptr %__ptr) #6
  %_M_t = getelementptr inbounds nuw %"class.std::unique_ptr.3", ptr %this1, i32 0, i32 0
  %call = call noundef nonnull align 8 dereferenceable(8) ptr @_ZNSt15__uniq_ptr_implIN6openmc11Tabulated1DESt14default_deleteIS1_EE6_M_ptrEv(ptr noundef nonnull align 8 dereferenceable(8) %_M_t) #6
  store ptr %call, ptr %__ptr, align 8, !tbaa !72
  %0 = load ptr, ptr %__ptr, align 8, !tbaa !72
  %1 = load ptr, ptr %0, align 8, !tbaa !24
  %cmp = icmp ne ptr %1, null
  br i1 %cmp, label %if.then, label %if.end

if.then:                                          ; preds = %entry
  %call2 = call noundef nonnull align 1 dereferenceable(1) ptr @_ZNSt10unique_ptrIN6openmc11Tabulated1DESt14default_deleteIS1_EE11get_deleterEv(ptr noundef nonnull align 8 dereferenceable(8) %this1) #6
  %2 = load ptr, ptr %__ptr, align 8, !tbaa !72
  %3 = load ptr, ptr %2, align 8, !tbaa !24
  invoke void @_ZNKSt14default_deleteIN6openmc11Tabulated1DEEclEPS1_(ptr noundef nonnull align 1 dereferenceable(1) %call2, ptr noundef %3)
          to label %invoke.cont unwind label %terminate.lpad

invoke.cont:                                      ; preds = %if.then
  br label %if.end

if.end:                                           ; preds = %invoke.cont, %entry
  %4 = load ptr, ptr %__ptr, align 8, !tbaa !72
  store ptr null, ptr %4, align 8, !tbaa !24
  call void @llvm.lifetime.end.p0(i64 8, ptr %__ptr) #6
  ret void

terminate.lpad:                                   ; preds = %if.then
  %5 = landingpad { ptr, i32 }
          catch ptr null
  %6 = extractvalue { ptr, i32 } %5, 0
  call void @__clang_call_terminate(ptr %6) #25
  unreachable
}

; Function Attrs: nocallback nofree nosync nounwind willreturn memory(argmem: readwrite)
declare void @llvm.lifetime.end.p0(i64 immarg, ptr captures(none)) #7

; Function Attrs: inlinehint mustprogress uwtable
define linkonce_odr void @_ZSt11make_uniqueIN6openmc10PolynomialEJRlEENSt8__detail9_MakeUniqIT_E15__single_objectEDpOT0_(ptr dead_on_unwind noalias writable sret(%"class.std::unique_ptr.11") align 8 %agg.result, ptr noundef nonnull align 8 dereferenceable(8) %__args) #8 comdat personality ptr @__gxx_personality_v0 {
entry:
  %result.ptr = alloca ptr, align 8
  %__args.addr = alloca ptr, align 8
  %exn.slot = alloca ptr, align 8
  %ehselector.slot = alloca i32, align 4
  store ptr %agg.result, ptr %result.ptr, align 8
  store ptr %__args, ptr %__args.addr, align 8, !tbaa !68
  %call = call noalias noundef nonnull ptr @_Znwm(i64 noundef 32) #26
  %0 = load ptr, ptr %__args.addr, align 8, !tbaa !68
  %1 = load i64, ptr %0, align 8, !tbaa !54
  invoke void @_ZN6openmc10PolynomialC1El(ptr noundef nonnull align 8 dereferenceable(32) %call, i64 noundef %1)
          to label %invoke.cont unwind label %lpad

invoke.cont:                                      ; preds = %entry
  call void @_ZNSt10unique_ptrIN6openmc10PolynomialESt14default_deleteIS1_EEC2IS3_vEEPS1_(ptr noundef nonnull align 8 dereferenceable(8) %agg.result, ptr noundef %call) #6
  ret void

lpad:                                             ; preds = %entry
  %2 = landingpad { ptr, i32 }
          cleanup
  %3 = extractvalue { ptr, i32 } %2, 0
  store ptr %3, ptr %exn.slot, align 8
  %4 = extractvalue { ptr, i32 } %2, 1
  store i32 %4, ptr %ehselector.slot, align 4
  call void @_ZdlPvm(ptr noundef %call, i64 noundef 32) #23
  br label %eh.resume

eh.resume:                                        ; preds = %lpad
  %exn = load ptr, ptr %exn.slot, align 8
  %sel = load i32, ptr %ehselector.slot, align 4
  %lpad.val = insertvalue { ptr, i32 } poison, ptr %exn, 0
  %lpad.val1 = insertvalue { ptr, i32 } %lpad.val, i32 %sel, 1
  resume { ptr, i32 } %lpad.val1
}

; Function Attrs: mustprogress nounwind uwtable
define linkonce_odr noundef nonnull align 8 dereferenceable(8) ptr @_ZNSt10unique_ptrIN6openmc10Function1DESt14default_deleteIS1_EEaSINS0_10PolynomialES2_IS6_EEENSt9enable_ifIXsr6__and_ISt6__and_IJSt14is_convertibleINS_IT_T0_E7pointerEPS1_ESt6__not_ISt8is_arrayISB_EEEESt13is_assignableIRS3_OSC_EEE5valueERS4_E4typeEOSD_(ptr noundef nonnull align 8 dereferenceable(8) %this, ptr noundef nonnull align 8 dereferenceable(8) %__u) #2 comdat align 2 {
entry:
  %this.addr = alloca ptr, align 8
  %__u.addr = alloca ptr, align 8
  %ref.tmp = alloca %"struct.std::default_delete", align 1
  store ptr %this, ptr %this.addr, align 8, !tbaa !66
  store ptr %__u, ptr %__u.addr, align 8, !tbaa !75
  %this1 = load ptr, ptr %this.addr, align 8
  %0 = load ptr, ptr %__u.addr, align 8, !tbaa !75
  %call = call noundef ptr @_ZNSt10unique_ptrIN6openmc10PolynomialESt14default_deleteIS1_EE7releaseEv(ptr noundef nonnull align 8 dereferenceable(8) %0) #6
  call void @_ZNSt10unique_ptrIN6openmc10Function1DESt14default_deleteIS1_EE5resetEPS1_(ptr noundef nonnull align 8 dereferenceable(8) %this1, ptr noundef %call) #6
  call void @llvm.lifetime.start.p0(i64 1, ptr %ref.tmp) #6
  %1 = load ptr, ptr %__u.addr, align 8, !tbaa !75
  %call2 = call noundef nonnull align 1 dereferenceable(1) ptr @_ZNSt10unique_ptrIN6openmc10PolynomialESt14default_deleteIS1_EE11get_deleterEv(ptr noundef nonnull align 8 dereferenceable(8) %1) #6
  call void @_ZNSt14default_deleteIN6openmc10Function1DEEC2INS0_10PolynomialEvEERKS_IT_E(ptr noundef nonnull align 1 dereferenceable(1) %ref.tmp, ptr noundef nonnull align 1 dereferenceable(1) %call2) #6
  %call3 = call noundef nonnull align 1 dereferenceable(1) ptr @_ZNSt10unique_ptrIN6openmc10Function1DESt14default_deleteIS1_EE11get_deleterEv(ptr noundef nonnull align 8 dereferenceable(8) %this1) #6
  call void @llvm.lifetime.end.p0(i64 1, ptr %ref.tmp) #6
  ret ptr %this1
}

; Function Attrs: mustprogress nounwind uwtable
define linkonce_odr void @_ZNSt10unique_ptrIN6openmc10PolynomialESt14default_deleteIS1_EED2Ev(ptr noundef nonnull align 8 dereferenceable(8) %this) unnamed_addr #2 comdat align 2 personality ptr @__gxx_personality_v0 {
entry:
  %this.addr = alloca ptr, align 8
  %__ptr = alloca ptr, align 8
  store ptr %this, ptr %this.addr, align 8, !tbaa !75
  %this1 = load ptr, ptr %this.addr, align 8
  call void @llvm.lifetime.start.p0(i64 8, ptr %__ptr) #6
  %_M_t = getelementptr inbounds nuw %"class.std::unique_ptr.11", ptr %this1, i32 0, i32 0
  %call = call noundef nonnull align 8 dereferenceable(8) ptr @_ZNSt15__uniq_ptr_implIN6openmc10PolynomialESt14default_deleteIS1_EE6_M_ptrEv(ptr noundef nonnull align 8 dereferenceable(8) %_M_t) #6
  store ptr %call, ptr %__ptr, align 8, !tbaa !77
  %0 = load ptr, ptr %__ptr, align 8, !tbaa !77
  %1 = load ptr, ptr %0, align 8, !tbaa !11
  %cmp = icmp ne ptr %1, null
  br i1 %cmp, label %if.then, label %if.end

if.then:                                          ; preds = %entry
  %call2 = call noundef nonnull align 1 dereferenceable(1) ptr @_ZNSt10unique_ptrIN6openmc10PolynomialESt14default_deleteIS1_EE11get_deleterEv(ptr noundef nonnull align 8 dereferenceable(8) %this1) #6
  %2 = load ptr, ptr %__ptr, align 8, !tbaa !77
  %3 = load ptr, ptr %2, align 8, !tbaa !11
  invoke void @_ZNKSt14default_deleteIN6openmc10PolynomialEEclEPS1_(ptr noundef nonnull align 1 dereferenceable(1) %call2, ptr noundef %3)
          to label %invoke.cont unwind label %terminate.lpad

invoke.cont:                                      ; preds = %if.then
  br label %if.end

if.end:                                           ; preds = %invoke.cont, %entry
  %4 = load ptr, ptr %__ptr, align 8, !tbaa !77
  store ptr null, ptr %4, align 8, !tbaa !11
  call void @llvm.lifetime.end.p0(i64 8, ptr %__ptr) #6
  ret void

terminate.lpad:                                   ; preds = %if.then
  %5 = landingpad { ptr, i32 }
          catch ptr null
  %6 = extractvalue { ptr, i32 } %5, 0
  call void @__clang_call_terminate(ptr %6) #25
  unreachable
}

; Function Attrs: inlinehint mustprogress uwtable
define linkonce_odr void @_ZSt11make_uniqueIN6openmc17CoherentElasticXSEJRlEENSt8__detail9_MakeUniqIT_E15__single_objectEDpOT0_(ptr dead_on_unwind noalias writable sret(%"class.std::unique_ptr.19") align 8 %agg.result, ptr noundef nonnull align 8 dereferenceable(8) %__args) #8 comdat personality ptr @__gxx_personality_v0 {
entry:
  %result.ptr = alloca ptr, align 8
  %__args.addr = alloca ptr, align 8
  %exn.slot = alloca ptr, align 8
  %ehselector.slot = alloca i32, align 4
  store ptr %agg.result, ptr %result.ptr, align 8
  store ptr %__args, ptr %__args.addr, align 8, !tbaa !68
  %call = call noalias noundef nonnull ptr @_Znwm(i64 noundef 56) #26
  %0 = load ptr, ptr %__args.addr, align 8, !tbaa !68
  %1 = load i64, ptr %0, align 8, !tbaa !54
  invoke void @_ZN6openmc17CoherentElasticXSC1El(ptr noundef nonnull align 8 dereferenceable(56) %call, i64 noundef %1)
          to label %invoke.cont unwind label %lpad

invoke.cont:                                      ; preds = %entry
  call void @_ZNSt10unique_ptrIN6openmc17CoherentElasticXSESt14default_deleteIS1_EEC2IS3_vEEPS1_(ptr noundef nonnull align 8 dereferenceable(8) %agg.result, ptr noundef %call) #6
  ret void

lpad:                                             ; preds = %entry
  %2 = landingpad { ptr, i32 }
          cleanup
  %3 = extractvalue { ptr, i32 } %2, 0
  store ptr %3, ptr %exn.slot, align 8
  %4 = extractvalue { ptr, i32 } %2, 1
  store i32 %4, ptr %ehselector.slot, align 4
  call void @_ZdlPvm(ptr noundef %call, i64 noundef 56) #23
  br label %eh.resume

eh.resume:                                        ; preds = %lpad
  %exn = load ptr, ptr %exn.slot, align 8
  %sel = load i32, ptr %ehselector.slot, align 4
  %lpad.val = insertvalue { ptr, i32 } poison, ptr %exn, 0
  %lpad.val1 = insertvalue { ptr, i32 } %lpad.val, i32 %sel, 1
  resume { ptr, i32 } %lpad.val1
}

; Function Attrs: mustprogress nounwind uwtable
define linkonce_odr noundef nonnull align 8 dereferenceable(8) ptr @_ZNSt10unique_ptrIN6openmc10Function1DESt14default_deleteIS1_EEaSINS0_17CoherentElasticXSES2_IS6_EEENSt9enable_ifIXsr6__and_ISt6__and_IJSt14is_convertibleINS_IT_T0_E7pointerEPS1_ESt6__not_ISt8is_arrayISB_EEEESt13is_assignableIRS3_OSC_EEE5valueERS4_E4typeEOSD_(ptr noundef nonnull align 8 dereferenceable(8) %this, ptr noundef nonnull align 8 dereferenceable(8) %__u) #2 comdat align 2 {
entry:
  %this.addr = alloca ptr, align 8
  %__u.addr = alloca ptr, align 8
  %ref.tmp = alloca %"struct.std::default_delete", align 1
  store ptr %this, ptr %this.addr, align 8, !tbaa !66
  store ptr %__u, ptr %__u.addr, align 8, !tbaa !79
  %this1 = load ptr, ptr %this.addr, align 8
  %0 = load ptr, ptr %__u.addr, align 8, !tbaa !79
  %call = call noundef ptr @_ZNSt10unique_ptrIN6openmc17CoherentElasticXSESt14default_deleteIS1_EE7releaseEv(ptr noundef nonnull align 8 dereferenceable(8) %0) #6
  call void @_ZNSt10unique_ptrIN6openmc10Function1DESt14default_deleteIS1_EE5resetEPS1_(ptr noundef nonnull align 8 dereferenceable(8) %this1, ptr noundef %call) #6
  call void @llvm.lifetime.start.p0(i64 1, ptr %ref.tmp) #6
  %1 = load ptr, ptr %__u.addr, align 8, !tbaa !79
  %call2 = call noundef nonnull align 1 dereferenceable(1) ptr @_ZNSt10unique_ptrIN6openmc17CoherentElasticXSESt14default_deleteIS1_EE11get_deleterEv(ptr noundef nonnull align 8 dereferenceable(8) %1) #6
  call void @_ZNSt14default_deleteIN6openmc10Function1DEEC2INS0_17CoherentElasticXSEvEERKS_IT_E(ptr noundef nonnull align 1 dereferenceable(1) %ref.tmp, ptr noundef nonnull align 1 dereferenceable(1) %call2) #6
  %call3 = call noundef nonnull align 1 dereferenceable(1) ptr @_ZNSt10unique_ptrIN6openmc10Function1DESt14default_deleteIS1_EE11get_deleterEv(ptr noundef nonnull align 8 dereferenceable(8) %this1) #6
  call void @llvm.lifetime.end.p0(i64 1, ptr %ref.tmp) #6
  ret ptr %this1
}

; Function Attrs: mustprogress nounwind uwtable
define linkonce_odr void @_ZNSt10unique_ptrIN6openmc17CoherentElasticXSESt14default_deleteIS1_EED2Ev(ptr noundef nonnull align 8 dereferenceable(8) %this) unnamed_addr #2 comdat align 2 personality ptr @__gxx_personality_v0 {
entry:
  %this.addr = alloca ptr, align 8
  %__ptr = alloca ptr, align 8
  store ptr %this, ptr %this.addr, align 8, !tbaa !79
  %this1 = load ptr, ptr %this.addr, align 8
  call void @llvm.lifetime.start.p0(i64 8, ptr %__ptr) #6
  %_M_t = getelementptr inbounds nuw %"class.std::unique_ptr.19", ptr %this1, i32 0, i32 0
  %call = call noundef nonnull align 8 dereferenceable(8) ptr @_ZNSt15__uniq_ptr_implIN6openmc17CoherentElasticXSESt14default_deleteIS1_EE6_M_ptrEv(ptr noundef nonnull align 8 dereferenceable(8) %_M_t) #6
  store ptr %call, ptr %__ptr, align 8, !tbaa !81
  %0 = load ptr, ptr %__ptr, align 8, !tbaa !81
  %1 = load ptr, ptr %0, align 8, !tbaa !52
  %cmp = icmp ne ptr %1, null
  br i1 %cmp, label %if.then, label %if.end

if.then:                                          ; preds = %entry
  %call2 = call noundef nonnull align 1 dereferenceable(1) ptr @_ZNSt10unique_ptrIN6openmc17CoherentElasticXSESt14default_deleteIS1_EE11get_deleterEv(ptr noundef nonnull align 8 dereferenceable(8) %this1) #6
  %2 = load ptr, ptr %__ptr, align 8, !tbaa !81
  %3 = load ptr, ptr %2, align 8, !tbaa !52
  invoke void @_ZNKSt14default_deleteIN6openmc17CoherentElasticXSEEclEPS1_(ptr noundef nonnull align 1 dereferenceable(1) %call2, ptr noundef %3)
          to label %invoke.cont unwind label %terminate.lpad

invoke.cont:                                      ; preds = %if.then
  br label %if.end

if.end:                                           ; preds = %invoke.cont, %entry
  %4 = load ptr, ptr %__ptr, align 8, !tbaa !81
  store ptr null, ptr %4, align 8, !tbaa !52
  call void @llvm.lifetime.end.p0(i64 8, ptr %__ptr) #6
  ret void

terminate.lpad:                                   ; preds = %if.then
  %5 = landingpad { ptr, i32 }
          catch ptr null
  %6 = extractvalue { ptr, i32 } %5, 0
  call void @__clang_call_terminate(ptr %6) #25
  unreachable
}

; Function Attrs: inlinehint mustprogress uwtable
define linkonce_odr void @_ZSt11make_uniqueIN6openmc19IncoherentElasticXSEJRlEENSt8__detail9_MakeUniqIT_E15__single_objectEDpOT0_(ptr dead_on_unwind noalias writable sret(%"class.std::unique_ptr.27") align 8 %agg.result, ptr noundef nonnull align 8 dereferenceable(8) %__args) #8 comdat personality ptr @__gxx_personality_v0 {
entry:
  %result.ptr = alloca ptr, align 8
  %__args.addr = alloca ptr, align 8
  %exn.slot = alloca ptr, align 8
  %ehselector.slot = alloca i32, align 4
  store ptr %agg.result, ptr %result.ptr, align 8
  store ptr %__args, ptr %__args.addr, align 8, !tbaa !68
  %call = call noalias noundef nonnull ptr @_Znwm(i64 noundef 24) #26
  %0 = load ptr, ptr %__args.addr, align 8, !tbaa !68
  %1 = load i64, ptr %0, align 8, !tbaa !54
  invoke void @_ZN6openmc19IncoherentElasticXSC1El(ptr noundef nonnull align 8 dereferenceable(24) %call, i64 noundef %1)
          to label %invoke.cont unwind label %lpad

invoke.cont:                                      ; preds = %entry
  call void @_ZNSt10unique_ptrIN6openmc19IncoherentElasticXSESt14default_deleteIS1_EEC2IS3_vEEPS1_(ptr noundef nonnull align 8 dereferenceable(8) %agg.result, ptr noundef %call) #6
  ret void

lpad:                                             ; preds = %entry
  %2 = landingpad { ptr, i32 }
          cleanup
  %3 = extractvalue { ptr, i32 } %2, 0
  store ptr %3, ptr %exn.slot, align 8
  %4 = extractvalue { ptr, i32 } %2, 1
  store i32 %4, ptr %ehselector.slot, align 4
  call void @_ZdlPvm(ptr noundef %call, i64 noundef 24) #23
  br label %eh.resume

eh.resume:                                        ; preds = %lpad
  %exn = load ptr, ptr %exn.slot, align 8
  %sel = load i32, ptr %ehselector.slot, align 4
  %lpad.val = insertvalue { ptr, i32 } poison, ptr %exn, 0
  %lpad.val1 = insertvalue { ptr, i32 } %lpad.val, i32 %sel, 1
  resume { ptr, i32 } %lpad.val1
}

; Function Attrs: mustprogress nounwind uwtable
define linkonce_odr noundef nonnull align 8 dereferenceable(8) ptr @_ZNSt10unique_ptrIN6openmc10Function1DESt14default_deleteIS1_EEaSINS0_19IncoherentElasticXSES2_IS6_EEENSt9enable_ifIXsr6__and_ISt6__and_IJSt14is_convertibleINS_IT_T0_E7pointerEPS1_ESt6__not_ISt8is_arrayISB_EEEESt13is_assignableIRS3_OSC_EEE5valueERS4_E4typeEOSD_(ptr noundef nonnull align 8 dereferenceable(8) %this, ptr noundef nonnull align 8 dereferenceable(8) %__u) #2 comdat align 2 {
entry:
  %this.addr = alloca ptr, align 8
  %__u.addr = alloca ptr, align 8
  %ref.tmp = alloca %"struct.std::default_delete", align 1
  store ptr %this, ptr %this.addr, align 8, !tbaa !66
  store ptr %__u, ptr %__u.addr, align 8, !tbaa !83
  %this1 = load ptr, ptr %this.addr, align 8
  %0 = load ptr, ptr %__u.addr, align 8, !tbaa !83
  %call = call noundef ptr @_ZNSt10unique_ptrIN6openmc19IncoherentElasticXSESt14default_deleteIS1_EE7releaseEv(ptr noundef nonnull align 8 dereferenceable(8) %0) #6
  call void @_ZNSt10unique_ptrIN6openmc10Function1DESt14default_deleteIS1_EE5resetEPS1_(ptr noundef nonnull align 8 dereferenceable(8) %this1, ptr noundef %call) #6
  call void @llvm.lifetime.start.p0(i64 1, ptr %ref.tmp) #6
  %1 = load ptr, ptr %__u.addr, align 8, !tbaa !83
  %call2 = call noundef nonnull align 1 dereferenceable(1) ptr @_ZNSt10unique_ptrIN6openmc19IncoherentElasticXSESt14default_deleteIS1_EE11get_deleterEv(ptr noundef nonnull align 8 dereferenceable(8) %1) #6
  call void @_ZNSt14default_deleteIN6openmc10Function1DEEC2INS0_19IncoherentElasticXSEvEERKS_IT_E(ptr noundef nonnull align 1 dereferenceable(1) %ref.tmp, ptr noundef nonnull align 1 dereferenceable(1) %call2) #6
  %call3 = call noundef nonnull align 1 dereferenceable(1) ptr @_ZNSt10unique_ptrIN6openmc10Function1DESt14default_deleteIS1_EE11get_deleterEv(ptr noundef nonnull align 8 dereferenceable(8) %this1) #6
  call void @llvm.lifetime.end.p0(i64 1, ptr %ref.tmp) #6
  ret ptr %this1
}

; Function Attrs: mustprogress nounwind uwtable
define linkonce_odr void @_ZNSt10unique_ptrIN6openmc19IncoherentElasticXSESt14default_deleteIS1_EED2Ev(ptr noundef nonnull align 8 dereferenceable(8) %this) unnamed_addr #2 comdat align 2 personality ptr @__gxx_personality_v0 {
entry:
  %this.addr = alloca ptr, align 8
  %__ptr = alloca ptr, align 8
  store ptr %this, ptr %this.addr, align 8, !tbaa !83
  %this1 = load ptr, ptr %this.addr, align 8
  call void @llvm.lifetime.start.p0(i64 8, ptr %__ptr) #6
  %_M_t = getelementptr inbounds nuw %"class.std::unique_ptr.27", ptr %this1, i32 0, i32 0
  %call = call noundef nonnull align 8 dereferenceable(8) ptr @_ZNSt15__uniq_ptr_implIN6openmc19IncoherentElasticXSESt14default_deleteIS1_EE6_M_ptrEv(ptr noundef nonnull align 8 dereferenceable(8) %_M_t) #6
  store ptr %call, ptr %__ptr, align 8, !tbaa !85
  %0 = load ptr, ptr %__ptr, align 8, !tbaa !85
  %1 = load ptr, ptr %0, align 8, !tbaa !55
  %cmp = icmp ne ptr %1, null
  br i1 %cmp, label %if.then, label %if.end

if.then:                                          ; preds = %entry
  %call2 = call noundef nonnull align 1 dereferenceable(1) ptr @_ZNSt10unique_ptrIN6openmc19IncoherentElasticXSESt14default_deleteIS1_EE11get_deleterEv(ptr noundef nonnull align 8 dereferenceable(8) %this1) #6
  %2 = load ptr, ptr %__ptr, align 8, !tbaa !85
  %3 = load ptr, ptr %2, align 8, !tbaa !55
  invoke void @_ZNKSt14default_deleteIN6openmc19IncoherentElasticXSEEclEPS1_(ptr noundef nonnull align 1 dereferenceable(1) %call2, ptr noundef %3)
          to label %invoke.cont unwind label %terminate.lpad

invoke.cont:                                      ; preds = %if.then
  br label %if.end

if.end:                                           ; preds = %invoke.cont, %entry
  %4 = load ptr, ptr %__ptr, align 8, !tbaa !85
  store ptr null, ptr %4, align 8, !tbaa !55
  call void @llvm.lifetime.end.p0(i64 8, ptr %__ptr) #6
  ret void

terminate.lpad:                                   ; preds = %if.then
  %5 = landingpad { ptr, i32 }
          catch ptr null
  %6 = extractvalue { ptr, i32 } %5, 0
  call void @__clang_call_terminate(ptr %6) #25
  unreachable
}

; Function Attrs: inlinehint mustprogress uwtable
define linkonce_odr void @_ZStplIcSt11char_traitsIcESaIcEENSt7__cxx1112basic_stringIT_T0_T1_EEOS8_S9_(ptr dead_on_unwind noalias writable sret(%"class.std::__cxx11::basic_string") align 8 %agg.result, ptr noundef nonnull align 8 dereferenceable(32) %__lhs, ptr noundef nonnull align 8 dereferenceable(32) %__rhs) #8 comdat {
entry:
  %result.ptr = alloca ptr, align 8
  %__lhs.addr = alloca ptr, align 8
  %__rhs.addr = alloca ptr, align 8
  %__use_rhs = alloca i8, align 1
  %__size = alloca i64, align 8
  %cleanup.dest.slot = alloca i32, align 4
  store ptr %agg.result, ptr %result.ptr, align 8
  store ptr %__lhs, ptr %__lhs.addr, align 8, !tbaa !64
  store ptr %__rhs, ptr %__rhs.addr, align 8, !tbaa !64
  call void @llvm.lifetime.start.p0(i64 1, ptr %__use_rhs) #6
  store i8 0, ptr %__use_rhs, align 1, !tbaa !87
  store i8 1, ptr %__use_rhs, align 1, !tbaa !87
  %0 = load i8, ptr %__use_rhs, align 1, !tbaa !87, !range !89, !noundef !90
  %loadedv = trunc i8 %0 to i1
  br i1 %loadedv, label %if.then, label %if.end7

if.then:                                          ; preds = %entry
  call void @llvm.lifetime.start.p0(i64 8, ptr %__size) #6
  %1 = load ptr, ptr %__lhs.addr, align 8, !tbaa !64
  %call = call noundef i64 @_ZNKSt7__cxx1112basic_stringIcSt11char_traitsIcESaIcEE4sizeEv(ptr noundef nonnull align 8 dereferenceable(32) %1) #6
  %2 = load ptr, ptr %__rhs.addr, align 8, !tbaa !64
  %call1 = call noundef i64 @_ZNKSt7__cxx1112basic_stringIcSt11char_traitsIcESaIcEE4sizeEv(ptr noundef nonnull align 8 dereferenceable(32) %2) #6
  %add = add i64 %call, %call1
  store i64 %add, ptr %__size, align 8, !tbaa !54
  %3 = load i64, ptr %__size, align 8, !tbaa !54
  %4 = load ptr, ptr %__lhs.addr, align 8, !tbaa !64
  %call2 = call noundef i64 @_ZNKSt7__cxx1112basic_stringIcSt11char_traitsIcESaIcEE8capacityEv(ptr noundef nonnull align 8 dereferenceable(32) %4) #6
  %cmp = icmp ugt i64 %3, %call2
  br i1 %cmp, label %land.lhs.true, label %if.end

land.lhs.true:                                    ; preds = %if.then
  %5 = load i64, ptr %__size, align 8, !tbaa !54
  %6 = load ptr, ptr %__rhs.addr, align 8, !tbaa !64
  %call3 = call noundef i64 @_ZNKSt7__cxx1112basic_stringIcSt11char_traitsIcESaIcEE8capacityEv(ptr noundef nonnull align 8 dereferenceable(32) %6) #6
  %cmp4 = icmp ule i64 %5, %call3
  br i1 %cmp4, label %if.then5, label %if.end

if.then5:                                         ; preds = %land.lhs.true
  %7 = load ptr, ptr %__rhs.addr, align 8, !tbaa !64
  %8 = load ptr, ptr %__lhs.addr, align 8, !tbaa !64
  %call6 = call noundef nonnull align 8 dereferenceable(32) ptr @_ZNSt7__cxx1112basic_stringIcSt11char_traitsIcESaIcEE6insertEmRKS4_(ptr noundef nonnull align 8 dereferenceable(32) %7, i64 noundef 0, ptr noundef nonnull align 8 dereferenceable(32) %8)
  call void @_ZNSt7__cxx1112basic_stringIcSt11char_traitsIcESaIcEEC2EOS4_(ptr noundef nonnull align 8 dereferenceable(32) %agg.result, ptr noundef nonnull align 8 dereferenceable(32) %call6) #6
  store i32 1, ptr %cleanup.dest.slot, align 4
  br label %cleanup

if.end:                                           ; preds = %land.lhs.true, %if.then
  store i32 0, ptr %cleanup.dest.slot, align 4
  br label %cleanup

cleanup:                                          ; preds = %if.end, %if.then5
  call void @llvm.lifetime.end.p0(i64 8, ptr %__size) #6
  %cleanup.dest = load i32, ptr %cleanup.dest.slot, align 4
  switch i32 %cleanup.dest, label %cleanup9 [
    i32 0, label %cleanup.cont
  ]

cleanup.cont:                                     ; preds = %cleanup
  br label %if.end7

if.end7:                                          ; preds = %cleanup.cont, %entry
  %9 = load ptr, ptr %__lhs.addr, align 8, !tbaa !64
  %10 = load ptr, ptr %__rhs.addr, align 8, !tbaa !64
  %call8 = call noundef nonnull align 8 dereferenceable(32) ptr @_ZNSt7__cxx1112basic_stringIcSt11char_traitsIcESaIcEE6appendERKS4_(ptr noundef nonnull align 8 dereferenceable(32) %9, ptr noundef nonnull align 8 dereferenceable(32) %10)
  call void @_ZNSt7__cxx1112basic_stringIcSt11char_traitsIcESaIcEEC2EOS4_(ptr noundef nonnull align 8 dereferenceable(32) %agg.result, ptr noundef nonnull align 8 dereferenceable(32) %call8) #6
  store i32 1, ptr %cleanup.dest.slot, align 4
  br label %cleanup9

cleanup9:                                         ; preds = %if.end7, %cleanup
  call void @llvm.lifetime.end.p0(i64 1, ptr %__use_rhs) #6
  ret void
}

; Function Attrs: inlinehint mustprogress uwtable
define linkonce_odr void @_ZStplIcSt11char_traitsIcESaIcEENSt7__cxx1112basic_stringIT_T0_T1_EEOS8_PKS5_(ptr dead_on_unwind noalias writable sret(%"class.std::__cxx11::basic_string") align 8 %agg.result, ptr noundef nonnull align 8 dereferenceable(32) %__lhs, ptr noundef %__rhs) #8 comdat {
entry:
  %result.ptr = alloca ptr, align 8
  %__lhs.addr = alloca ptr, align 8
  %__rhs.addr = alloca ptr, align 8
  store ptr %agg.result, ptr %result.ptr, align 8
  store ptr %__lhs, ptr %__lhs.addr, align 8, !tbaa !64
  store ptr %__rhs, ptr %__rhs.addr, align 8, !tbaa !62
  %0 = load ptr, ptr %__lhs.addr, align 8, !tbaa !64
  %1 = load ptr, ptr %__rhs.addr, align 8, !tbaa !62
  %call = call noundef nonnull align 8 dereferenceable(32) ptr @_ZNSt7__cxx1112basic_stringIcSt11char_traitsIcESaIcEE6appendEPKc(ptr noundef nonnull align 8 dereferenceable(32) %0, ptr noundef %1)
  call void @_ZNSt7__cxx1112basic_stringIcSt11char_traitsIcESaIcEEC2EOS4_(ptr noundef nonnull align 8 dereferenceable(32) %agg.result, ptr noundef nonnull align 8 dereferenceable(32) %call) #6
  ret void
}

; Function Attrs: mustprogress uwtable
define linkonce_odr void @_ZStplIcSt11char_traitsIcESaIcEENSt7__cxx1112basic_stringIT_T0_T1_EEPKS5_RKS8_(ptr dead_on_unwind noalias writable sret(%"class.std::__cxx11::basic_string") align 8 %agg.result, ptr noundef %__lhs, ptr noundef nonnull align 8 dereferenceable(32) %__rhs) #0 comdat personality ptr @__gxx_personality_v0 {
entry:
  %result.ptr = alloca ptr, align 8
  %__lhs.addr = alloca ptr, align 8
  %__rhs.addr = alloca ptr, align 8
  %__len = alloca i64, align 8
  %nrvo = alloca i1, align 1
  %ref.tmp = alloca %"class.std::allocator", align 1
  %ref.tmp1 = alloca %"class.std::allocator", align 1
  %exn.slot = alloca ptr, align 8
  %ehselector.slot = alloca i32, align 4
  store ptr %agg.result, ptr %result.ptr, align 8
  store ptr %__lhs, ptr %__lhs.addr, align 8, !tbaa !62
  store ptr %__rhs, ptr %__rhs.addr, align 8, !tbaa !64
  call void @llvm.lifetime.start.p0(i64 8, ptr %__len) #6
  %0 = load ptr, ptr %__lhs.addr, align 8, !tbaa !62
  %call = call noundef i64 @_ZNSt11char_traitsIcE6lengthEPKc(ptr noundef %0)
  store i64 %call, ptr %__len, align 8, !tbaa !54
  store i1 false, ptr %nrvo, align 1
  call void @llvm.lifetime.start.p0(i64 1, ptr %ref.tmp) #6
  call void @llvm.lifetime.start.p0(i64 1, ptr %ref.tmp1) #6
  %1 = load ptr, ptr %__rhs.addr, align 8, !tbaa !64
  call void @_ZNKSt7__cxx1112basic_stringIcSt11char_traitsIcESaIcEE13get_allocatorEv(ptr dead_on_unwind writable sret(%"class.std::allocator") align 1 %ref.tmp1, ptr noundef nonnull align 8 dereferenceable(32) %1) #6
  invoke void @_ZN9__gnu_cxx14__alloc_traitsISaIcEcE17_S_select_on_copyERKS1_(ptr dead_on_unwind writable sret(%"class.std::allocator") align 1 %ref.tmp, ptr noundef nonnull align 1 dereferenceable(1) %ref.tmp1)
          to label %invoke.cont unwind label %lpad

invoke.cont:                                      ; preds = %entry
  call void @_ZNSt7__cxx1112basic_stringIcSt11char_traitsIcESaIcEEC2ERKS3_(ptr noundef nonnull align 8 dereferenceable(32) %agg.result, ptr noundef nonnull align 1 dereferenceable(1) %ref.tmp) #6
  call void @_ZNSt15__new_allocatorIcED2Ev(ptr noundef nonnull align 1 dereferenceable(1) %ref.tmp) #6
  call void @_ZNSt15__new_allocatorIcED2Ev(ptr noundef nonnull align 1 dereferenceable(1) %ref.tmp1) #6
  call void @llvm.lifetime.end.p0(i64 1, ptr %ref.tmp1) #6
  call void @llvm.lifetime.end.p0(i64 1, ptr %ref.tmp) #6
  %2 = load i64, ptr %__len, align 8, !tbaa !54
  %3 = load ptr, ptr %__rhs.addr, align 8, !tbaa !64
  %call2 = call noundef i64 @_ZNKSt7__cxx1112basic_stringIcSt11char_traitsIcESaIcEE4sizeEv(ptr noundef nonnull align 8 dereferenceable(32) %3) #6
  %add = add i64 %2, %call2
  invoke void @_ZNSt7__cxx1112basic_stringIcSt11char_traitsIcESaIcEE7reserveEm(ptr noundef nonnull align 8 dereferenceable(32) %agg.result, i64 noundef %add)
          to label %invoke.cont4 unwind label %lpad3

invoke.cont4:                                     ; preds = %invoke.cont
  %4 = load ptr, ptr %__lhs.addr, align 8, !tbaa !62
  %5 = load i64, ptr %__len, align 8, !tbaa !54
  %call6 = invoke noundef nonnull align 8 dereferenceable(32) ptr @_ZNSt7__cxx1112basic_stringIcSt11char_traitsIcESaIcEE6appendEPKcm(ptr noundef nonnull align 8 dereferenceable(32) %agg.result, ptr noundef %4, i64 noundef %5)
          to label %invoke.cont5 unwind label %lpad3

invoke.cont5:                                     ; preds = %invoke.cont4
  %6 = load ptr, ptr %__rhs.addr, align 8, !tbaa !64
  %call8 = invoke noundef nonnull align 8 dereferenceable(32) ptr @_ZNSt7__cxx1112basic_stringIcSt11char_traitsIcESaIcEE6appendERKS4_(ptr noundef nonnull align 8 dereferenceable(32) %agg.result, ptr noundef nonnull align 8 dereferenceable(32) %6)
          to label %invoke.cont7 unwind label %lpad3

invoke.cont7:                                     ; preds = %invoke.cont5
  store i1 true, ptr %nrvo, align 1
  %nrvo.val = load i1, ptr %nrvo, align 1
  br i1 %nrvo.val, label %nrvo.skipdtor, label %nrvo.unused

lpad:                                             ; preds = %entry
  %7 = landingpad { ptr, i32 }
          cleanup
  %8 = extractvalue { ptr, i32 } %7, 0
  store ptr %8, ptr %exn.slot, align 8
  %9 = extractvalue { ptr, i32 } %7, 1
  store i32 %9, ptr %ehselector.slot, align 4
  call void @_ZNSt15__new_allocatorIcED2Ev(ptr noundef nonnull align 1 dereferenceable(1) %ref.tmp1) #6
  call void @llvm.lifetime.end.p0(i64 1, ptr %ref.tmp1) #6
  call void @llvm.lifetime.end.p0(i64 1, ptr %ref.tmp) #6
  br label %ehcleanup

lpad3:                                            ; preds = %invoke.cont5, %invoke.cont4, %invoke.cont
  %10 = landingpad { ptr, i32 }
          cleanup
  %11 = extractvalue { ptr, i32 } %10, 0
  store ptr %11, ptr %exn.slot, align 8
  %12 = extractvalue { ptr, i32 } %10, 1
  store i32 %12, ptr %ehselector.slot, align 4
  call void @_ZNSt7__cxx1112basic_stringIcSt11char_traitsIcESaIcEED2Ev(ptr noundef nonnull align 8 dereferenceable(32) %agg.result) #6
  br label %ehcleanup

nrvo.unused:                                      ; preds = %invoke.cont7
  call void @_ZNSt7__cxx1112basic_stringIcSt11char_traitsIcESaIcEED2Ev(ptr noundef nonnull align 8 dereferenceable(32) %agg.result) #6
  br label %nrvo.skipdtor

nrvo.skipdtor:                                    ; preds = %nrvo.unused, %invoke.cont7
  call void @llvm.lifetime.end.p0(i64 8, ptr %__len) #6
  ret void

ehcleanup:                                        ; preds = %lpad3, %lpad
  call void @llvm.lifetime.end.p0(i64 8, ptr %__len) #6
  br label %eh.resume

eh.resume:                                        ; preds = %ehcleanup
  %exn = load ptr, ptr %exn.slot, align 8
  %sel = load i32, ptr %ehselector.slot, align 4
  %lpad.val = insertvalue { ptr, i32 } poison, ptr %exn, 0
  %lpad.val9 = insertvalue { ptr, i32 } %lpad.val, i32 %sel, 1
  resume { ptr, i32 } %lpad.val9
}

declare void @_ZN6openmc11object_nameB5cxx11El(ptr dead_on_unwind writable sret(%"class.std::__cxx11::basic_string") align 8, i64 noundef) #4

declare void @_ZNSt13runtime_errorC1ERKNSt7__cxx1112basic_stringIcSt11char_traitsIcESaIcEEE(ptr noundef nonnull align 8 dereferenceable(16), ptr noundef nonnull align 8 dereferenceable(32)) unnamed_addr #4

; Function Attrs: mustprogress nounwind uwtable
define available_externally void @_ZNSt7__cxx1112basic_stringIcSt11char_traitsIcESaIcEED2Ev(ptr noundef nonnull align 8 dereferenceable(32) %this) unnamed_addr #2 align 2 personality ptr @__gxx_personality_v0 {
entry:
  %this.addr = alloca ptr, align 8
  store ptr %this, ptr %this.addr, align 8, !tbaa !64
  %this1 = load ptr, ptr %this.addr, align 8
  invoke void @_ZNSt7__cxx1112basic_stringIcSt11char_traitsIcESaIcEE10_M_disposeEv(ptr noundef nonnull align 8 dereferenceable(32) %this1)
          to label %invoke.cont unwind label %terminate.lpad

invoke.cont:                                      ; preds = %entry
  %_M_dataplus = getelementptr inbounds nuw %"class.std::__cxx11::basic_string", ptr %this1, i32 0, i32 0
  call void @_ZNSt15__new_allocatorIcED2Ev(ptr noundef nonnull align 8 dereferenceable(8) %_M_dataplus) #6
  ret void

terminate.lpad:                                   ; preds = %entry
  %0 = landingpad { ptr, i32 }
          catch ptr null
  %1 = extractvalue { ptr, i32 } %0, 0
  call void @__clang_call_terminate(ptr %1) #25
  unreachable
}

declare void @close_dataset(i64 noundef) #4

; Function Attrs: mustprogress nounwind uwtable
define linkonce_odr void @_ZNSt10unique_ptrIN6openmc10Function1DESt14default_deleteIS1_EED2Ev(ptr noundef nonnull align 8 dereferenceable(8) %this) unnamed_addr #2 comdat align 2 {
entry:
  %this.addr = alloca ptr, align 8
  %__ptr = alloca ptr, align 8
  store ptr %this, ptr %this.addr, align 8, !tbaa !66
  %this1 = load ptr, ptr %this.addr, align 8
  call void @llvm.lifetime.start.p0(i64 8, ptr %__ptr) #6
  %_M_t = getelementptr inbounds nuw %"class.std::unique_ptr", ptr %this1, i32 0, i32 0
  %call = call noundef nonnull align 8 dereferenceable(8) ptr @_ZNSt15__uniq_ptr_implIN6openmc10Function1DESt14default_deleteIS1_EE6_M_ptrEv(ptr noundef nonnull align 8 dereferenceable(8) %_M_t) #6
  store ptr %call, ptr %__ptr, align 8, !tbaa !91
  %0 = load ptr, ptr %__ptr, align 8, !tbaa !91
  %1 = load ptr, ptr %0, align 8, !tbaa !60
  %cmp = icmp ne ptr %1, null
  br i1 %cmp, label %if.then, label %if.end

if.then:                                          ; preds = %entry
  %call2 = call noundef nonnull align 1 dereferenceable(1) ptr @_ZNSt10unique_ptrIN6openmc10Function1DESt14default_deleteIS1_EE11get_deleterEv(ptr noundef nonnull align 8 dereferenceable(8) %this1) #6
  %2 = load ptr, ptr %__ptr, align 8, !tbaa !91
  %3 = load ptr, ptr %2, align 8, !tbaa !60
  call void @_ZNKSt14default_deleteIN6openmc10Function1DEEclEPS1_(ptr noundef nonnull align 1 dereferenceable(1) %call2, ptr noundef %3)
  br label %if.end

if.end:                                           ; preds = %if.then, %entry
  %4 = load ptr, ptr %__ptr, align 8, !tbaa !91
  store ptr null, ptr %4, align 8, !tbaa !60
  call void @llvm.lifetime.end.p0(i64 8, ptr %__ptr) #6
  ret void
}

; Function Attrs: mustprogress nounwind uwtable
define available_externally noundef ptr @_ZNSt7__cxx1112basic_stringIcSt11char_traitsIcESaIcEE13_M_local_dataEv(ptr noundef nonnull align 8 dereferenceable(32) %this) #2 align 2 {
entry:
  %this.addr = alloca ptr, align 8
  store ptr %this, ptr %this.addr, align 8, !tbaa !64
  %this1 = load ptr, ptr %this.addr, align 8
  %0 = getelementptr inbounds nuw %"class.std::__cxx11::basic_string", ptr %this1, i32 0, i32 2
  %arraydecay = getelementptr inbounds [16 x i8], ptr %0, i64 0, i64 0
  %call = call noundef ptr @_ZNSt19__ptr_traits_ptr_toIPccLb0EE10pointer_toERc(ptr noundef nonnull align 1 dereferenceable(1) %arraydecay) #6
  ret ptr %call
}

; Function Attrs: noinline noreturn nounwind uwtable
define linkonce_odr hidden void @__clang_call_terminate(ptr noundef %0) #9 comdat {
  %2 = call ptr @__cxa_begin_catch(ptr %0) #6
  call void @_ZSt9terminatev() #25
  unreachable
}

declare ptr @__cxa_begin_catch(ptr)

declare void @_ZSt9terminatev()

; Function Attrs: mustprogress nounwind uwtable
define available_externally void @_ZNSaIcEC2Ev(ptr noundef nonnull align 1 dereferenceable(1) %this) unnamed_addr #2 align 2 {
entry:
  %this.addr = alloca ptr, align 8
  store ptr %this, ptr %this.addr, align 8, !tbaa !93
  %this1 = load ptr, ptr %this.addr, align 8
  call void @_ZNSt15__new_allocatorIcEC2Ev(ptr noundef nonnull align 1 dereferenceable(1) %this1) #6
  ret void
}

; Function Attrs: mustprogress nounwind uwtable
define available_externally void @_ZNSt7__cxx1112basic_stringIcSt11char_traitsIcESaIcEE12_Alloc_hiderC2EPcOS3_(ptr noundef nonnull align 8 dereferenceable(8) %this, ptr noundef %__dat, ptr noundef nonnull align 1 dereferenceable(1) %__a) unnamed_addr #2 align 2 {
entry:
  %this.addr = alloca ptr, align 8
  %__dat.addr = alloca ptr, align 8
  %__a.addr = alloca ptr, align 8
  store ptr %this, ptr %this.addr, align 8, !tbaa !95
  store ptr %__dat, ptr %__dat.addr, align 8, !tbaa !62
  store ptr %__a, ptr %__a.addr, align 8, !tbaa !93
  %this1 = load ptr, ptr %this.addr, align 8
  %0 = load ptr, ptr %__a.addr, align 8, !tbaa !93
  call void @_ZNSaIcEC2ERKS_(ptr noundef nonnull align 1 dereferenceable(1) %this1, ptr noundef nonnull align 1 dereferenceable(1) %0) #6
  %_M_p = getelementptr inbounds nuw %"struct.std::__cxx11::basic_string<char>::_Alloc_hider", ptr %this1, i32 0, i32 0
  %1 = load ptr, ptr %__dat.addr, align 8, !tbaa !62
  store ptr %1, ptr %_M_p, align 8, !tbaa !97
  ret void
}

; Function Attrs: alwaysinline mustprogress nounwind uwtable
define available_externally noundef ptr @_ZNSt7__cxx1112basic_stringIcSt11char_traitsIcESaIcEE17_M_use_local_dataEv(ptr noundef nonnull align 8 dereferenceable(32) %this) #10 align 2 {
entry:
  %this.addr = alloca ptr, align 8
  store ptr %this, ptr %this.addr, align 8, !tbaa !64
  %this1 = load ptr, ptr %this.addr, align 8
  %call = call noundef ptr @_ZNSt7__cxx1112basic_stringIcSt11char_traitsIcESaIcEE13_M_local_dataEv(ptr noundef nonnull align 8 dereferenceable(32) %this1)
  ret ptr %call
}

; Function Attrs: mustprogress uwtable
define available_externally void @_ZNSt7__cxx1112basic_stringIcSt11char_traitsIcESaIcEE13_M_set_lengthEm(ptr noundef nonnull align 8 dereferenceable(32) %this, i64 noundef %__n) #0 align 2 {
entry:
  %this.addr = alloca ptr, align 8
  %__n.addr = alloca i64, align 8
  %ref.tmp = alloca i8, align 1
  store ptr %this, ptr %this.addr, align 8, !tbaa !64
  store i64 %__n, ptr %__n.addr, align 8, !tbaa !54
  %this1 = load ptr, ptr %this.addr, align 8
  %0 = load i64, ptr %__n.addr, align 8, !tbaa !54
  call void @_ZNSt7__cxx1112basic_stringIcSt11char_traitsIcESaIcEE9_M_lengthEm(ptr noundef nonnull align 8 dereferenceable(32) %this1, i64 noundef %0)
  %call = call noundef ptr @_ZNKSt7__cxx1112basic_stringIcSt11char_traitsIcESaIcEE7_M_dataEv(ptr noundef nonnull align 8 dereferenceable(32) %this1)
  %1 = load i64, ptr %__n.addr, align 8, !tbaa !54
  %arrayidx = getelementptr inbounds nuw i8, ptr %call, i64 %1
  call void @llvm.lifetime.start.p0(i64 1, ptr %ref.tmp) #6
  store i8 0, ptr %ref.tmp, align 1, !tbaa !99
  call void @_ZNSt11char_traitsIcE6assignERcRKc(ptr noundef nonnull align 1 dereferenceable(1) %arrayidx, ptr noundef nonnull align 1 dereferenceable(1) %ref.tmp) #6
  call void @llvm.lifetime.end.p0(i64 1, ptr %ref.tmp) #6
  ret void
}

; Function Attrs: mustprogress nounwind uwtable
define linkonce_odr noundef ptr @_ZNSt19__ptr_traits_ptr_toIPccLb0EE10pointer_toERc(ptr noundef nonnull align 1 dereferenceable(1) %__r) #2 comdat align 2 {
entry:
  %__r.addr = alloca ptr, align 8
  store ptr %__r, ptr %__r.addr, align 8, !tbaa !62
  %0 = load ptr, ptr %__r.addr, align 8, !tbaa !62
  ret ptr %0
}

; Function Attrs: mustprogress nounwind uwtable
define linkonce_odr void @_ZNSt15__new_allocatorIcEC2Ev(ptr noundef nonnull align 1 dereferenceable(1) %this) unnamed_addr #2 comdat align 2 {
entry:
  %this.addr = alloca ptr, align 8
  store ptr %this, ptr %this.addr, align 8, !tbaa !100
  %this1 = load ptr, ptr %this.addr, align 8
  ret void
}

; Function Attrs: mustprogress nounwind uwtable
define linkonce_odr void @_ZNSt15__new_allocatorIcEC2ERKS0_(ptr noundef nonnull align 1 dereferenceable(1) %this, ptr noundef nonnull align 1 dereferenceable(1) %0) unnamed_addr #2 comdat align 2 {
entry:
  %this.addr = alloca ptr, align 8
  %.addr = alloca ptr, align 8
  store ptr %this, ptr %this.addr, align 8, !tbaa !100
  store ptr %0, ptr %.addr, align 8, !tbaa !100
  %this1 = load ptr, ptr %this.addr, align 8
  ret void
}

; Function Attrs: mustprogress nounwind uwtable
define available_externally void @_ZNSt7__cxx1112basic_stringIcSt11char_traitsIcESaIcEE9_M_lengthEm(ptr noundef nonnull align 8 dereferenceable(32) %this, i64 noundef %__length) #2 align 2 {
entry:
  %this.addr = alloca ptr, align 8
  %__length.addr = alloca i64, align 8
  store ptr %this, ptr %this.addr, align 8, !tbaa !64
  store i64 %__length, ptr %__length.addr, align 8, !tbaa !54
  %this1 = load ptr, ptr %this.addr, align 8
  %0 = load i64, ptr %__length.addr, align 8, !tbaa !54
  %_M_string_length = getelementptr inbounds nuw %"class.std::__cxx11::basic_string", ptr %this1, i32 0, i32 1
  store i64 %0, ptr %_M_string_length, align 8, !tbaa !102
  ret void
}

; Function Attrs: mustprogress nounwind uwtable
define linkonce_odr void @_ZNSt11char_traitsIcE6assignERcRKc(ptr noundef nonnull align 1 dereferenceable(1) %__c1, ptr noundef nonnull align 1 dereferenceable(1) %__c2) #2 comdat align 2 {
entry:
  %__c1.addr = alloca ptr, align 8
  %__c2.addr = alloca ptr, align 8
  store ptr %__c1, ptr %__c1.addr, align 8, !tbaa !62
  store ptr %__c2, ptr %__c2.addr, align 8, !tbaa !62
  %0 = load ptr, ptr %__c2.addr, align 8, !tbaa !62
  %1 = load i8, ptr %0, align 1, !tbaa !99
  %2 = load ptr, ptr %__c1.addr, align 8, !tbaa !62
  store i8 %1, ptr %2, align 1, !tbaa !99
  ret void
}

; Function Attrs: mustprogress nounwind uwtable
define available_externally noundef ptr @_ZNKSt7__cxx1112basic_stringIcSt11char_traitsIcESaIcEE7_M_dataEv(ptr noundef nonnull align 8 dereferenceable(32) %this) #2 align 2 {
entry:
  %this.addr = alloca ptr, align 8
  store ptr %this, ptr %this.addr, align 8, !tbaa !64
  %this1 = load ptr, ptr %this.addr, align 8
  %_M_dataplus = getelementptr inbounds nuw %"class.std::__cxx11::basic_string", ptr %this1, i32 0, i32 0
  %_M_p = getelementptr inbounds nuw %"struct.std::__cxx11::basic_string<char>::_Alloc_hider", ptr %_M_dataplus, i32 0, i32 0
  %0 = load ptr, ptr %_M_p, align 8, !tbaa !104
  ret ptr %0
}

declare i64 @attribute_typesize(i64 noundef, ptr noundef) #4

; Function Attrs: nobuiltin allocsize(0)
declare noundef nonnull ptr @_Znam(i64 noundef) #11

declare void @read_attr_string(i64 noundef, ptr noundef, i64 noundef, ptr noundef) #4

; Function Attrs: mustprogress uwtable
define available_externally void @_ZNSt7__cxx1112basic_stringIcSt11char_traitsIcESaIcEEC2EPKcmRKS3_(ptr noundef nonnull align 8 dereferenceable(32) %this, ptr noundef %__s, i64 noundef %__n, ptr noundef nonnull align 1 dereferenceable(1) %__a) unnamed_addr #0 align 2 personality ptr @__gxx_personality_v0 {
entry:
  %this.addr = alloca ptr, align 8
  %__s.addr = alloca ptr, align 8
  %__n.addr = alloca i64, align 8
  %__a.addr = alloca ptr, align 8
  %exn.slot = alloca ptr, align 8
  %ehselector.slot = alloca i32, align 4
  %agg.tmp = alloca %"struct.std::forward_iterator_tag", align 1
  store ptr %this, ptr %this.addr, align 8, !tbaa !64
  store ptr %__s, ptr %__s.addr, align 8, !tbaa !62
  store i64 %__n, ptr %__n.addr, align 8, !tbaa !54
  store ptr %__a, ptr %__a.addr, align 8, !tbaa !93
  %this1 = load ptr, ptr %this.addr, align 8
  %_M_dataplus = getelementptr inbounds nuw %"class.std::__cxx11::basic_string", ptr %this1, i32 0, i32 0
  %call = call noundef ptr @_ZNSt7__cxx1112basic_stringIcSt11char_traitsIcESaIcEE13_M_local_dataEv(ptr noundef nonnull align 8 dereferenceable(32) %this1)
  %0 = load ptr, ptr %__a.addr, align 8, !tbaa !93
  call void @_ZNSt7__cxx1112basic_stringIcSt11char_traitsIcESaIcEE12_Alloc_hiderC2EPcRKS3_(ptr noundef nonnull align 8 dereferenceable(8) %_M_dataplus, ptr noundef %call, ptr noundef nonnull align 1 dereferenceable(1) %0)
  %1 = load ptr, ptr %__s.addr, align 8, !tbaa !62
  %cmp = icmp eq ptr %1, null
  br i1 %cmp, label %land.lhs.true, label %if.end

land.lhs.true:                                    ; preds = %entry
  %2 = load i64, ptr %__n.addr, align 8, !tbaa !54
  %cmp2 = icmp ugt i64 %2, 0
  br i1 %cmp2, label %if.then, label %if.end

if.then:                                          ; preds = %land.lhs.true
  invoke void @_ZSt19__throw_logic_errorPKc(ptr noundef @.str.8) #24
          to label %invoke.cont unwind label %lpad

invoke.cont:                                      ; preds = %if.then
  unreachable

lpad:                                             ; preds = %if.end, %if.then
  %3 = landingpad { ptr, i32 }
          cleanup
  %4 = extractvalue { ptr, i32 } %3, 0
  store ptr %4, ptr %exn.slot, align 8
  %5 = extractvalue { ptr, i32 } %3, 1
  store i32 %5, ptr %ehselector.slot, align 4
  call void @_ZNSt15__new_allocatorIcED2Ev(ptr noundef nonnull align 8 dereferenceable(8) %_M_dataplus) #6
  br label %eh.resume

if.end:                                           ; preds = %land.lhs.true, %entry
  %6 = load ptr, ptr %__s.addr, align 8, !tbaa !62
  %7 = load ptr, ptr %__s.addr, align 8, !tbaa !62
  %8 = load i64, ptr %__n.addr, align 8, !tbaa !54
  %add.ptr = getelementptr inbounds nuw i8, ptr %7, i64 %8
  invoke void @_ZNSt7__cxx1112basic_stringIcSt11char_traitsIcESaIcEE12_M_constructIPKcEEvT_S8_St20forward_iterator_tag(ptr noundef nonnull align 8 dereferenceable(32) %this1, ptr noundef %6, ptr noundef %add.ptr)
          to label %invoke.cont3 unwind label %lpad

invoke.cont3:                                     ; preds = %if.end
  ret void

eh.resume:                                        ; preds = %lpad
  %exn = load ptr, ptr %exn.slot, align 8
  %sel = load i32, ptr %ehselector.slot, align 4
  %lpad.val = insertvalue { ptr, i32 } poison, ptr %exn, 0
  %lpad.val4 = insertvalue { ptr, i32 } %lpad.val, i32 %sel, 1
  resume { ptr, i32 } %lpad.val4
}

; Function Attrs: mustprogress nounwind uwtable
define available_externally noundef nonnull align 8 dereferenceable(32) ptr @_ZNSt7__cxx1112basic_stringIcSt11char_traitsIcESaIcEEaSEOS4_(ptr noundef nonnull align 8 dereferenceable(32) %this, ptr noundef nonnull align 8 dereferenceable(32) %__str) #2 align 2 personality ptr @__gxx_personality_v0 {
entry:
  %this.addr = alloca ptr, align 8
  %__str.addr = alloca ptr, align 8
  %__data = alloca ptr, align 8
  %__capacity = alloca i64, align 8
  store ptr %this, ptr %this.addr, align 8, !tbaa !64
  store ptr %__str, ptr %__str.addr, align 8, !tbaa !64
  %this1 = load ptr, ptr %this.addr, align 8
  %call = invoke noundef zeroext i1 @_ZNKSt7__cxx1112basic_stringIcSt11char_traitsIcESaIcEE11_M_is_localEv(ptr noundef nonnull align 8 dereferenceable(32) %this1)
          to label %invoke.cont unwind label %terminate.lpad

invoke.cont:                                      ; preds = %entry
  br i1 %call, label %if.end, label %land.lhs.true

land.lhs.true:                                    ; preds = %invoke.cont
  %call3 = invoke noundef zeroext i1 @_ZN9__gnu_cxx14__alloc_traitsISaIcEcE15_S_always_equalEv()
          to label %invoke.cont2 unwind label %terminate.lpad

invoke.cont2:                                     ; preds = %land.lhs.true
  br i1 %call3, label %if.end, label %land.lhs.true4

land.lhs.true4:                                   ; preds = %invoke.cont2
  %call5 = call noundef nonnull align 1 dereferenceable(1) ptr @_ZNSt7__cxx1112basic_stringIcSt11char_traitsIcESaIcEE16_M_get_allocatorEv(ptr noundef nonnull align 8 dereferenceable(32) %this1)
  %0 = load ptr, ptr %__str.addr, align 8, !tbaa !64
  %call6 = call noundef nonnull align 1 dereferenceable(1) ptr @_ZNSt7__cxx1112basic_stringIcSt11char_traitsIcESaIcEE16_M_get_allocatorEv(ptr noundef nonnull align 8 dereferenceable(32) %0)
  %call7 = call noundef zeroext i1 @_ZStneRKSaIcES1_(ptr noundef nonnull align 1 dereferenceable(1) %call5, ptr noundef nonnull align 1 dereferenceable(1) %call6) #6
  br i1 %call7, label %if.then, label %if.end

if.then:                                          ; preds = %land.lhs.true4
  %1 = getelementptr inbounds nuw %"class.std::__cxx11::basic_string", ptr %this1, i32 0, i32 2
  %2 = load i64, ptr %1, align 8, !tbaa !99
  call void @_ZNSt7__cxx1112basic_stringIcSt11char_traitsIcESaIcEE10_M_destroyEm(ptr noundef nonnull align 8 dereferenceable(32) %this1, i64 noundef %2) #6
  %call8 = call noundef ptr @_ZNSt7__cxx1112basic_stringIcSt11char_traitsIcESaIcEE13_M_local_dataEv(ptr noundef nonnull align 8 dereferenceable(32) %this1)
  call void @_ZNSt7__cxx1112basic_stringIcSt11char_traitsIcESaIcEE7_M_dataEPc(ptr noundef nonnull align 8 dereferenceable(32) %this1, ptr noundef %call8)
  invoke void @_ZNSt7__cxx1112basic_stringIcSt11char_traitsIcESaIcEE13_M_set_lengthEm(ptr noundef nonnull align 8 dereferenceable(32) %this1, i64 noundef 0)
          to label %invoke.cont9 unwind label %terminate.lpad

invoke.cont9:                                     ; preds = %if.then
  br label %if.end

if.end:                                           ; preds = %invoke.cont9, %land.lhs.true4, %invoke.cont2, %invoke.cont
  %call10 = call noundef nonnull align 1 dereferenceable(1) ptr @_ZNSt7__cxx1112basic_stringIcSt11char_traitsIcESaIcEE16_M_get_allocatorEv(ptr noundef nonnull align 8 dereferenceable(32) %this1)
  %3 = load ptr, ptr %__str.addr, align 8, !tbaa !64
  %call11 = call noundef nonnull align 1 dereferenceable(1) ptr @_ZNSt7__cxx1112basic_stringIcSt11char_traitsIcESaIcEE16_M_get_allocatorEv(ptr noundef nonnull align 8 dereferenceable(32) %3)
  invoke void @_ZSt15__alloc_on_moveISaIcEEvRT_S2_(ptr noundef nonnull align 1 dereferenceable(1) %call10, ptr noundef nonnull align 1 dereferenceable(1) %call11)
          to label %invoke.cont12 unwind label %terminate.lpad

invoke.cont12:                                    ; preds = %if.end
  %4 = load ptr, ptr %__str.addr, align 8, !tbaa !64
  %call14 = invoke noundef zeroext i1 @_ZNKSt7__cxx1112basic_stringIcSt11char_traitsIcESaIcEE11_M_is_localEv(ptr noundef nonnull align 8 dereferenceable(32) %4)
          to label %invoke.cont13 unwind label %terminate.lpad

invoke.cont13:                                    ; preds = %invoke.cont12
  br i1 %call14, label %if.then15, label %if.else

if.then15:                                        ; preds = %invoke.cont13
  %5 = load ptr, ptr %__str.addr, align 8, !tbaa !64
  %cmp = icmp ne ptr %5, %this1
  %conv = zext i1 %cmp to i64
  %expval = call i64 @llvm.expect.i64(i64 %conv, i64 1)
  %tobool = icmp ne i64 %expval, 0
  br i1 %tobool, label %if.then16, label %if.end27

if.then16:                                        ; preds = %if.then15
  %6 = load ptr, ptr %__str.addr, align 8, !tbaa !64
  %call17 = call noundef i64 @_ZNKSt7__cxx1112basic_stringIcSt11char_traitsIcESaIcEE4sizeEv(ptr noundef nonnull align 8 dereferenceable(32) %6) #6
  %tobool18 = icmp ne i64 %call17, 0
  br i1 %tobool18, label %if.then19, label %if.end24

if.then19:                                        ; preds = %if.then16
  %call20 = call noundef ptr @_ZNKSt7__cxx1112basic_stringIcSt11char_traitsIcESaIcEE7_M_dataEv(ptr noundef nonnull align 8 dereferenceable(32) %this1)
  %7 = load ptr, ptr %__str.addr, align 8, !tbaa !64
  %call21 = call noundef ptr @_ZNKSt7__cxx1112basic_stringIcSt11char_traitsIcESaIcEE7_M_dataEv(ptr noundef nonnull align 8 dereferenceable(32) %7)
  %8 = load ptr, ptr %__str.addr, align 8, !tbaa !64
  %call22 = call noundef i64 @_ZNKSt7__cxx1112basic_stringIcSt11char_traitsIcESaIcEE4sizeEv(ptr noundef nonnull align 8 dereferenceable(32) %8) #6
  invoke void @_ZNSt7__cxx1112basic_stringIcSt11char_traitsIcESaIcEE7_S_copyEPcPKcm(ptr noundef %call20, ptr noundef %call21, i64 noundef %call22)
          to label %invoke.cont23 unwind label %terminate.lpad

invoke.cont23:                                    ; preds = %if.then19
  br label %if.end24

if.end24:                                         ; preds = %invoke.cont23, %if.then16
  %9 = load ptr, ptr %__str.addr, align 8, !tbaa !64
  %call25 = call noundef i64 @_ZNKSt7__cxx1112basic_stringIcSt11char_traitsIcESaIcEE4sizeEv(ptr noundef nonnull align 8 dereferenceable(32) %9) #6
  invoke void @_ZNSt7__cxx1112basic_stringIcSt11char_traitsIcESaIcEE13_M_set_lengthEm(ptr noundef nonnull align 8 dereferenceable(32) %this1, i64 noundef %call25)
          to label %invoke.cont26 unwind label %terminate.lpad

invoke.cont26:                                    ; preds = %if.end24
  br label %if.end27

if.end27:                                         ; preds = %invoke.cont26, %if.then15
  br label %if.end39

if.else:                                          ; preds = %invoke.cont13
  call void @llvm.lifetime.start.p0(i64 8, ptr %__data) #6
  store ptr null, ptr %__data, align 8, !tbaa !62
  call void @llvm.lifetime.start.p0(i64 8, ptr %__capacity) #6
  %call29 = invoke noundef zeroext i1 @_ZNKSt7__cxx1112basic_stringIcSt11char_traitsIcESaIcEE11_M_is_localEv(ptr noundef nonnull align 8 dereferenceable(32) %this1)
          to label %invoke.cont28 unwind label %terminate.lpad

invoke.cont28:                                    ; preds = %if.else
  br i1 %call29, label %if.end32, label %if.then30

if.then30:                                        ; preds = %invoke.cont28
  %call31 = call noundef ptr @_ZNKSt7__cxx1112basic_stringIcSt11char_traitsIcESaIcEE7_M_dataEv(ptr noundef nonnull align 8 dereferenceable(32) %this1)
  store ptr %call31, ptr %__data, align 8, !tbaa !62
  %10 = getelementptr inbounds nuw %"class.std::__cxx11::basic_string", ptr %this1, i32 0, i32 2
  %11 = load i64, ptr %10, align 8, !tbaa !99
  store i64 %11, ptr %__capacity, align 8, !tbaa !54
  br label %if.end32

if.end32:                                         ; preds = %if.then30, %invoke.cont28
  %12 = load ptr, ptr %__str.addr, align 8, !tbaa !64
  %call33 = call noundef ptr @_ZNKSt7__cxx1112basic_stringIcSt11char_traitsIcESaIcEE7_M_dataEv(ptr noundef nonnull align 8 dereferenceable(32) %12)
  call void @_ZNSt7__cxx1112basic_stringIcSt11char_traitsIcESaIcEE7_M_dataEPc(ptr noundef nonnull align 8 dereferenceable(32) %this1, ptr noundef %call33)
  %13 = load ptr, ptr %__str.addr, align 8, !tbaa !64
  %call34 = call noundef i64 @_ZNKSt7__cxx1112basic_stringIcSt11char_traitsIcESaIcEE6lengthEv(ptr noundef nonnull align 8 dereferenceable(32) %13) #6
  call void @_ZNSt7__cxx1112basic_stringIcSt11char_traitsIcESaIcEE9_M_lengthEm(ptr noundef nonnull align 8 dereferenceable(32) %this1, i64 noundef %call34)
  %14 = load ptr, ptr %__str.addr, align 8, !tbaa !64
  %15 = getelementptr inbounds nuw %"class.std::__cxx11::basic_string", ptr %14, i32 0, i32 2
  %16 = load i64, ptr %15, align 8, !tbaa !99
  call void @_ZNSt7__cxx1112basic_stringIcSt11char_traitsIcESaIcEE11_M_capacityEm(ptr noundef nonnull align 8 dereferenceable(32) %this1, i64 noundef %16)
  %17 = load ptr, ptr %__data, align 8, !tbaa !62
  %tobool35 = icmp ne ptr %17, null
  br i1 %tobool35, label %if.then36, label %if.else37

if.then36:                                        ; preds = %if.end32
  %18 = load ptr, ptr %__str.addr, align 8, !tbaa !64
  %19 = load ptr, ptr %__data, align 8, !tbaa !62
  call void @_ZNSt7__cxx1112basic_stringIcSt11char_traitsIcESaIcEE7_M_dataEPc(ptr noundef nonnull align 8 dereferenceable(32) %18, ptr noundef %19)
  %20 = load ptr, ptr %__str.addr, align 8, !tbaa !64
  %21 = load i64, ptr %__capacity, align 8, !tbaa !54
  call void @_ZNSt7__cxx1112basic_stringIcSt11char_traitsIcESaIcEE11_M_capacityEm(ptr noundef nonnull align 8 dereferenceable(32) %20, i64 noundef %21)
  br label %if.end38

if.else37:                                        ; preds = %if.end32
  %22 = load ptr, ptr %__str.addr, align 8, !tbaa !64
  %23 = load ptr, ptr %__str.addr, align 8, !tbaa !64
  %24 = getelementptr inbounds nuw %"class.std::__cxx11::basic_string", ptr %23, i32 0, i32 2
  %arraydecay = getelementptr inbounds [16 x i8], ptr %24, i64 0, i64 0
  call void @_ZNSt7__cxx1112basic_stringIcSt11char_traitsIcESaIcEE7_M_dataEPc(ptr noundef nonnull align 8 dereferenceable(32) %22, ptr noundef %arraydecay)
  br label %if.end38

if.end38:                                         ; preds = %if.else37, %if.then36
  call void @llvm.lifetime.end.p0(i64 8, ptr %__capacity) #6
  call void @llvm.lifetime.end.p0(i64 8, ptr %__data) #6
  br label %if.end39

if.end39:                                         ; preds = %if.end38, %if.end27
  %25 = load ptr, ptr %__str.addr, align 8, !tbaa !64
  call void @_ZNSt7__cxx1112basic_stringIcSt11char_traitsIcESaIcEE5clearEv(ptr noundef nonnull align 8 dereferenceable(32) %25) #6
  ret ptr %this1

terminate.lpad:                                   ; preds = %if.else, %if.end24, %if.then19, %invoke.cont12, %if.end, %if.then, %land.lhs.true, %entry
  %26 = landingpad { ptr, i32 }
          catch ptr null
  %27 = extractvalue { ptr, i32 } %26, 0
  call void @__clang_call_terminate(ptr %27) #25
  unreachable
}

; Function Attrs: nobuiltin nounwind
declare void @_ZdaPv(ptr noundef) #12

; Function Attrs: mustprogress nounwind uwtable
define available_externally void @_ZNSt7__cxx1112basic_stringIcSt11char_traitsIcESaIcEE12_Alloc_hiderC2EPcRKS3_(ptr noundef nonnull align 8 dereferenceable(8) %this, ptr noundef %__dat, ptr noundef nonnull align 1 dereferenceable(1) %__a) unnamed_addr #2 align 2 {
entry:
  %this.addr = alloca ptr, align 8
  %__dat.addr = alloca ptr, align 8
  %__a.addr = alloca ptr, align 8
  store ptr %this, ptr %this.addr, align 8, !tbaa !95
  store ptr %__dat, ptr %__dat.addr, align 8, !tbaa !62
  store ptr %__a, ptr %__a.addr, align 8, !tbaa !93
  %this1 = load ptr, ptr %this.addr, align 8
  %0 = load ptr, ptr %__a.addr, align 8, !tbaa !93
  call void @_ZNSaIcEC2ERKS_(ptr noundef nonnull align 1 dereferenceable(1) %this1, ptr noundef nonnull align 1 dereferenceable(1) %0) #6
  %_M_p = getelementptr inbounds nuw %"struct.std::__cxx11::basic_string<char>::_Alloc_hider", ptr %this1, i32 0, i32 0
  %1 = load ptr, ptr %__dat.addr, align 8, !tbaa !62
  store ptr %1, ptr %_M_p, align 8, !tbaa !97
  ret void
}

; Function Attrs: noreturn
declare void @_ZSt19__throw_logic_errorPKc(ptr noundef) #13

; Function Attrs: mustprogress uwtable
define linkonce_odr void @_ZNSt7__cxx1112basic_stringIcSt11char_traitsIcESaIcEE12_M_constructIPKcEEvT_S8_St20forward_iterator_tag(ptr noundef nonnull align 8 dereferenceable(32) %this, ptr noundef %__beg, ptr noundef %__end) #0 comdat align 2 personality ptr @__gxx_personality_v0 {
entry:
  %0 = alloca %"struct.std::forward_iterator_tag", align 1
  %this.addr = alloca ptr, align 8
  %__beg.addr = alloca ptr, align 8
  %__end.addr = alloca ptr, align 8
  %__dnew = alloca i64, align 8
  %__guard = alloca %struct._Guard, align 8
  %exn.slot = alloca ptr, align 8
  %ehselector.slot = alloca i32, align 4
  store ptr %this, ptr %this.addr, align 8, !tbaa !64
  store ptr %__beg, ptr %__beg.addr, align 8, !tbaa !62
  store ptr %__end, ptr %__end.addr, align 8, !tbaa !62
  %this1 = load ptr, ptr %this.addr, align 8
  call void @llvm.lifetime.start.p0(i64 8, ptr %__dnew) #6
  %1 = load ptr, ptr %__beg.addr, align 8, !tbaa !62
  %2 = load ptr, ptr %__end.addr, align 8, !tbaa !62
  %call = call noundef i64 @_ZSt8distanceIPKcENSt15iterator_traitsIT_E15difference_typeES3_S3_(ptr noundef %1, ptr noundef %2)
  store i64 %call, ptr %__dnew, align 8, !tbaa !54
  %3 = load i64, ptr %__dnew, align 8, !tbaa !54
  %cmp = icmp ugt i64 %3, 15
  br i1 %cmp, label %if.then, label %if.else

if.then:                                          ; preds = %entry
  %call2 = call noundef ptr @_ZNSt7__cxx1112basic_stringIcSt11char_traitsIcESaIcEE9_M_createERmm(ptr noundef nonnull align 8 dereferenceable(32) %this1, ptr noundef nonnull align 8 dereferenceable(8) %__dnew, i64 noundef 0)
  call void @_ZNSt7__cxx1112basic_stringIcSt11char_traitsIcESaIcEE7_M_dataEPc(ptr noundef nonnull align 8 dereferenceable(32) %this1, ptr noundef %call2)
  %4 = load i64, ptr %__dnew, align 8, !tbaa !54
  call void @_ZNSt7__cxx1112basic_stringIcSt11char_traitsIcESaIcEE11_M_capacityEm(ptr noundef nonnull align 8 dereferenceable(32) %this1, i64 noundef %4)
  br label %if.end

if.else:                                          ; preds = %entry
  %call3 = call noundef ptr @_ZNSt7__cxx1112basic_stringIcSt11char_traitsIcESaIcEE17_M_use_local_dataEv(ptr noundef nonnull align 8 dereferenceable(32) %this1) #6
  br label %if.end

if.end:                                           ; preds = %if.else, %if.then
  call void @llvm.lifetime.start.p0(i64 8, ptr %__guard) #6
  call void @_ZZNSt7__cxx1112basic_stringIcSt11char_traitsIcESaIcEE12_M_constructIPKcEEvT_S8_St20forward_iterator_tagEN6_GuardC2EPS4_(ptr noundef nonnull align 8 dereferenceable(8) %__guard, ptr noundef %this1)
  %call4 = call noundef ptr @_ZNKSt7__cxx1112basic_stringIcSt11char_traitsIcESaIcEE7_M_dataEv(ptr noundef nonnull align 8 dereferenceable(32) %this1)
  %5 = load ptr, ptr %__beg.addr, align 8, !tbaa !62
  %6 = load ptr, ptr %__end.addr, align 8, !tbaa !62
  call void @_ZNSt7__cxx1112basic_stringIcSt11char_traitsIcESaIcEE13_S_copy_charsEPcPKcS7_(ptr noundef %call4, ptr noundef %5, ptr noundef %6) #6
  %_M_guarded = getelementptr inbounds nuw %struct._Guard, ptr %__guard, i32 0, i32 0
  store ptr null, ptr %_M_guarded, align 8, !tbaa !105
  %7 = load i64, ptr %__dnew, align 8, !tbaa !54
  invoke void @_ZNSt7__cxx1112basic_stringIcSt11char_traitsIcESaIcEE13_M_set_lengthEm(ptr noundef nonnull align 8 dereferenceable(32) %this1, i64 noundef %7)
          to label %invoke.cont unwind label %lpad

invoke.cont:                                      ; preds = %if.end
  call void @_ZZNSt7__cxx1112basic_stringIcSt11char_traitsIcESaIcEE12_M_constructIPKcEEvT_S8_St20forward_iterator_tagEN6_GuardD2Ev(ptr noundef nonnull align 8 dereferenceable(8) %__guard) #6
  call void @llvm.lifetime.end.p0(i64 8, ptr %__guard) #6
  call void @llvm.lifetime.end.p0(i64 8, ptr %__dnew) #6
  ret void

lpad:                                             ; preds = %if.end
  %8 = landingpad { ptr, i32 }
          cleanup
  %9 = extractvalue { ptr, i32 } %8, 0
  store ptr %9, ptr %exn.slot, align 8
  %10 = extractvalue { ptr, i32 } %8, 1
  store i32 %10, ptr %ehselector.slot, align 4
  call void @_ZZNSt7__cxx1112basic_stringIcSt11char_traitsIcESaIcEE12_M_constructIPKcEEvT_S8_St20forward_iterator_tagEN6_GuardD2Ev(ptr noundef nonnull align 8 dereferenceable(8) %__guard) #6
  call void @llvm.lifetime.end.p0(i64 8, ptr %__guard) #6
  call void @llvm.lifetime.end.p0(i64 8, ptr %__dnew) #6
  br label %eh.resume

eh.resume:                                        ; preds = %lpad
  %exn = load ptr, ptr %exn.slot, align 8
  %sel = load i32, ptr %ehselector.slot, align 4
  %lpad.val = insertvalue { ptr, i32 } poison, ptr %exn, 0
  %lpad.val5 = insertvalue { ptr, i32 } %lpad.val, i32 %sel, 1
  resume { ptr, i32 } %lpad.val5
}

; Function Attrs: mustprogress nounwind uwtable
define linkonce_odr void @_ZNSt15__new_allocatorIcED2Ev(ptr noundef nonnull align 1 dereferenceable(1) %this) unnamed_addr #2 comdat align 2 {
entry:
  %this.addr = alloca ptr, align 8
  store ptr %this, ptr %this.addr, align 8, !tbaa !100
  %this1 = load ptr, ptr %this.addr, align 8
  ret void
}

; Function Attrs: inlinehint mustprogress uwtable
define linkonce_odr noundef i64 @_ZSt8distanceIPKcENSt15iterator_traitsIT_E15difference_typeES3_S3_(ptr noundef %__first, ptr noundef %__last) #8 comdat {
entry:
  %__first.addr = alloca ptr, align 8
  %__last.addr = alloca ptr, align 8
  %agg.tmp = alloca %"struct.std::random_access_iterator_tag", align 1
  %undef.agg.tmp = alloca %"struct.std::random_access_iterator_tag", align 1
  store ptr %__first, ptr %__first.addr, align 8, !tbaa !62
  store ptr %__last, ptr %__last.addr, align 8, !tbaa !62
  %0 = load ptr, ptr %__first.addr, align 8, !tbaa !62
  %1 = load ptr, ptr %__last.addr, align 8, !tbaa !62
  call void @_ZSt19__iterator_categoryIPKcENSt15iterator_traitsIT_E17iterator_categoryERKS3_(ptr noundef nonnull align 8 dereferenceable(8) %__first.addr)
  %call = call noundef i64 @_ZSt10__distanceIPKcENSt15iterator_traitsIT_E15difference_typeES3_S3_St26random_access_iterator_tag(ptr noundef %0, ptr noundef %1)
  ret i64 %call
}

; Function Attrs: mustprogress nounwind uwtable
define available_externally void @_ZNSt7__cxx1112basic_stringIcSt11char_traitsIcESaIcEE7_M_dataEPc(ptr noundef nonnull align 8 dereferenceable(32) %this, ptr noundef %__p) #2 align 2 {
entry:
  %this.addr = alloca ptr, align 8
  %__p.addr = alloca ptr, align 8
  store ptr %this, ptr %this.addr, align 8, !tbaa !64
  store ptr %__p, ptr %__p.addr, align 8, !tbaa !62
  %this1 = load ptr, ptr %this.addr, align 8
  %0 = load ptr, ptr %__p.addr, align 8, !tbaa !62
  %_M_dataplus = getelementptr inbounds nuw %"class.std::__cxx11::basic_string", ptr %this1, i32 0, i32 0
  %_M_p = getelementptr inbounds nuw %"struct.std::__cxx11::basic_string<char>::_Alloc_hider", ptr %_M_dataplus, i32 0, i32 0
  store ptr %0, ptr %_M_p, align 8, !tbaa !104
  ret void
}

declare noundef ptr @_ZNSt7__cxx1112basic_stringIcSt11char_traitsIcESaIcEE9_M_createERmm(ptr noundef nonnull align 8 dereferenceable(32), ptr noundef nonnull align 8 dereferenceable(8), i64 noundef) #4

; Function Attrs: mustprogress nounwind uwtable
define available_externally void @_ZNSt7__cxx1112basic_stringIcSt11char_traitsIcESaIcEE11_M_capacityEm(ptr noundef nonnull align 8 dereferenceable(32) %this, i64 noundef %__capacity) #2 align 2 {
entry:
  %this.addr = alloca ptr, align 8
  %__capacity.addr = alloca i64, align 8
  store ptr %this, ptr %this.addr, align 8, !tbaa !64
  store i64 %__capacity, ptr %__capacity.addr, align 8, !tbaa !54
  %this1 = load ptr, ptr %this.addr, align 8
  %0 = load i64, ptr %__capacity.addr, align 8, !tbaa !54
  %1 = getelementptr inbounds nuw %"class.std::__cxx11::basic_string", ptr %this1, i32 0, i32 2
  store i64 %0, ptr %1, align 8, !tbaa !99
  ret void
}

; Function Attrs: mustprogress nounwind uwtable
define linkonce_odr void @_ZZNSt7__cxx1112basic_stringIcSt11char_traitsIcESaIcEE12_M_constructIPKcEEvT_S8_St20forward_iterator_tagEN6_GuardC2EPS4_(ptr noundef nonnull align 8 dereferenceable(8) %this, ptr noundef %__s) unnamed_addr #2 comdat align 2 {
entry:
  %this.addr = alloca ptr, align 8
  %__s.addr = alloca ptr, align 8
  store ptr %this, ptr %this.addr, align 8, !tbaa !107
  store ptr %__s, ptr %__s.addr, align 8, !tbaa !64
  %this1 = load ptr, ptr %this.addr, align 8
  %_M_guarded = getelementptr inbounds nuw %struct._Guard, ptr %this1, i32 0, i32 0
  %0 = load ptr, ptr %__s.addr, align 8, !tbaa !64
  store ptr %0, ptr %_M_guarded, align 8, !tbaa !105
  ret void
}

; Function Attrs: mustprogress nounwind uwtable
define available_externally void @_ZNSt7__cxx1112basic_stringIcSt11char_traitsIcESaIcEE13_S_copy_charsEPcPKcS7_(ptr noundef %__p, ptr noundef %__k1, ptr noundef %__k2) #2 align 2 personality ptr @__gxx_personality_v0 {
entry:
  %__p.addr = alloca ptr, align 8
  %__k1.addr = alloca ptr, align 8
  %__k2.addr = alloca ptr, align 8
  store ptr %__p, ptr %__p.addr, align 8, !tbaa !62
  store ptr %__k1, ptr %__k1.addr, align 8, !tbaa !62
  store ptr %__k2, ptr %__k2.addr, align 8, !tbaa !62
  %0 = load ptr, ptr %__p.addr, align 8, !tbaa !62
  %1 = load ptr, ptr %__k1.addr, align 8, !tbaa !62
  %2 = load ptr, ptr %__k2.addr, align 8, !tbaa !62
  %3 = load ptr, ptr %__k1.addr, align 8, !tbaa !62
  %sub.ptr.lhs.cast = ptrtoint ptr %2 to i64
  %sub.ptr.rhs.cast = ptrtoint ptr %3 to i64
  %sub.ptr.sub = sub i64 %sub.ptr.lhs.cast, %sub.ptr.rhs.cast
  invoke void @_ZNSt7__cxx1112basic_stringIcSt11char_traitsIcESaIcEE7_S_copyEPcPKcm(ptr noundef %0, ptr noundef %1, i64 noundef %sub.ptr.sub)
          to label %invoke.cont unwind label %terminate.lpad

invoke.cont:                                      ; preds = %entry
  ret void

terminate.lpad:                                   ; preds = %entry
  %4 = landingpad { ptr, i32 }
          catch ptr null
  %5 = extractvalue { ptr, i32 } %4, 0
  call void @__clang_call_terminate(ptr %5) #25
  unreachable
}

; Function Attrs: mustprogress nounwind uwtable
define linkonce_odr void @_ZZNSt7__cxx1112basic_stringIcSt11char_traitsIcESaIcEE12_M_constructIPKcEEvT_S8_St20forward_iterator_tagEN6_GuardD2Ev(ptr noundef nonnull align 8 dereferenceable(8) %this) unnamed_addr #2 comdat align 2 personality ptr @__gxx_personality_v0 {
entry:
  %this.addr = alloca ptr, align 8
  store ptr %this, ptr %this.addr, align 8, !tbaa !107
  %this1 = load ptr, ptr %this.addr, align 8
  %_M_guarded = getelementptr inbounds nuw %struct._Guard, ptr %this1, i32 0, i32 0
  %0 = load ptr, ptr %_M_guarded, align 8, !tbaa !105
  %tobool = icmp ne ptr %0, null
  br i1 %tobool, label %if.then, label %if.end

if.then:                                          ; preds = %entry
  %_M_guarded2 = getelementptr inbounds nuw %struct._Guard, ptr %this1, i32 0, i32 0
  %1 = load ptr, ptr %_M_guarded2, align 8, !tbaa !105
  invoke void @_ZNSt7__cxx1112basic_stringIcSt11char_traitsIcESaIcEE10_M_disposeEv(ptr noundef nonnull align 8 dereferenceable(32) %1)
          to label %invoke.cont unwind label %terminate.lpad

invoke.cont:                                      ; preds = %if.then
  br label %if.end

if.end:                                           ; preds = %invoke.cont, %entry
  ret void

terminate.lpad:                                   ; preds = %if.then
  %2 = landingpad { ptr, i32 }
          catch ptr null
  %3 = extractvalue { ptr, i32 } %2, 0
  call void @__clang_call_terminate(ptr %3) #25
  unreachable
}

; Function Attrs: inlinehint mustprogress nounwind uwtable
define linkonce_odr noundef i64 @_ZSt10__distanceIPKcENSt15iterator_traitsIT_E15difference_typeES3_S3_St26random_access_iterator_tag(ptr noundef %__first, ptr noundef %__last) #1 comdat {
entry:
  %0 = alloca %"struct.std::random_access_iterator_tag", align 1
  %__first.addr = alloca ptr, align 8
  %__last.addr = alloca ptr, align 8
  store ptr %__first, ptr %__first.addr, align 8, !tbaa !62
  store ptr %__last, ptr %__last.addr, align 8, !tbaa !62
  %1 = load ptr, ptr %__last.addr, align 8, !tbaa !62
  %2 = load ptr, ptr %__first.addr, align 8, !tbaa !62
  %sub.ptr.lhs.cast = ptrtoint ptr %1 to i64
  %sub.ptr.rhs.cast = ptrtoint ptr %2 to i64
  %sub.ptr.sub = sub i64 %sub.ptr.lhs.cast, %sub.ptr.rhs.cast
  ret i64 %sub.ptr.sub
}

; Function Attrs: inlinehint mustprogress nounwind uwtable
define linkonce_odr void @_ZSt19__iterator_categoryIPKcENSt15iterator_traitsIT_E17iterator_categoryERKS3_(ptr noundef nonnull align 8 dereferenceable(8) %0) #1 comdat {
entry:
  %.addr = alloca ptr, align 8
  store ptr %0, ptr %.addr, align 8, !tbaa !109
  ret void
}

; Function Attrs: mustprogress uwtable
define available_externally void @_ZNSt7__cxx1112basic_stringIcSt11char_traitsIcESaIcEE7_S_copyEPcPKcm(ptr noundef %__d, ptr noundef %__s, i64 noundef %__n) #0 align 2 {
entry:
  %__d.addr = alloca ptr, align 8
  %__s.addr = alloca ptr, align 8
  %__n.addr = alloca i64, align 8
  store ptr %__d, ptr %__d.addr, align 8, !tbaa !62
  store ptr %__s, ptr %__s.addr, align 8, !tbaa !62
  store i64 %__n, ptr %__n.addr, align 8, !tbaa !54
  %0 = load i64, ptr %__n.addr, align 8, !tbaa !54
  %cmp = icmp eq i64 %0, 1
  br i1 %cmp, label %if.then, label %if.else

if.then:                                          ; preds = %entry
  %1 = load ptr, ptr %__d.addr, align 8, !tbaa !62
  %2 = load ptr, ptr %__s.addr, align 8, !tbaa !62
  call void @_ZNSt11char_traitsIcE6assignERcRKc(ptr noundef nonnull align 1 dereferenceable(1) %1, ptr noundef nonnull align 1 dereferenceable(1) %2) #6
  br label %if.end

if.else:                                          ; preds = %entry
  %3 = load ptr, ptr %__d.addr, align 8, !tbaa !62
  %4 = load ptr, ptr %__s.addr, align 8, !tbaa !62
  %5 = load i64, ptr %__n.addr, align 8, !tbaa !54
  %call = call noundef ptr @_ZNSt11char_traitsIcE4copyEPcPKcm(ptr noundef %3, ptr noundef %4, i64 noundef %5)
  br label %if.end

if.end:                                           ; preds = %if.else, %if.then
  ret void
}

; Function Attrs: mustprogress nounwind uwtable
define linkonce_odr noundef ptr @_ZNSt11char_traitsIcE4copyEPcPKcm(ptr noundef %__s1, ptr noundef %__s2, i64 noundef %__n) #2 comdat align 2 {
entry:
  %retval = alloca ptr, align 8
  %__s1.addr = alloca ptr, align 8
  %__s2.addr = alloca ptr, align 8
  %__n.addr = alloca i64, align 8
  store ptr %__s1, ptr %__s1.addr, align 8, !tbaa !62
  store ptr %__s2, ptr %__s2.addr, align 8, !tbaa !62
  store i64 %__n, ptr %__n.addr, align 8, !tbaa !54
  %0 = load i64, ptr %__n.addr, align 8, !tbaa !54
  %cmp = icmp eq i64 %0, 0
  br i1 %cmp, label %if.then, label %if.end

if.then:                                          ; preds = %entry
  %1 = load ptr, ptr %__s1.addr, align 8, !tbaa !62
  store ptr %1, ptr %retval, align 8
  br label %return

if.end:                                           ; preds = %entry
  %2 = load ptr, ptr %__s1.addr, align 8, !tbaa !62
  %3 = load ptr, ptr %__s2.addr, align 8, !tbaa !62
  %4 = load i64, ptr %__n.addr, align 8, !tbaa !54
  call void @llvm.memcpy.p0.p0.i64(ptr align 1 %2, ptr align 1 %3, i64 %4, i1 false)
  store ptr %2, ptr %retval, align 8
  br label %return

return:                                           ; preds = %if.end, %if.then
  %5 = load ptr, ptr %retval, align 8
  ret ptr %5
}

; Function Attrs: nocallback nofree nounwind willreturn memory(argmem: readwrite)
declare void @llvm.memcpy.p0.p0.i64(ptr noalias writeonly captures(none), ptr noalias readonly captures(none), i64, i1 immarg) #14

; Function Attrs: mustprogress uwtable
define available_externally void @_ZNSt7__cxx1112basic_stringIcSt11char_traitsIcESaIcEE10_M_disposeEv(ptr noundef nonnull align 8 dereferenceable(32) %this) #0 align 2 {
entry:
  %this.addr = alloca ptr, align 8
  store ptr %this, ptr %this.addr, align 8, !tbaa !64
  %this1 = load ptr, ptr %this.addr, align 8
  %call = call noundef zeroext i1 @_ZNKSt7__cxx1112basic_stringIcSt11char_traitsIcESaIcEE11_M_is_localEv(ptr noundef nonnull align 8 dereferenceable(32) %this1)
  br i1 %call, label %if.end, label %if.then

if.then:                                          ; preds = %entry
  %0 = getelementptr inbounds nuw %"class.std::__cxx11::basic_string", ptr %this1, i32 0, i32 2
  %1 = load i64, ptr %0, align 8, !tbaa !99
  call void @_ZNSt7__cxx1112basic_stringIcSt11char_traitsIcESaIcEE10_M_destroyEm(ptr noundef nonnull align 8 dereferenceable(32) %this1, i64 noundef %1) #6
  br label %if.end

if.end:                                           ; preds = %if.then, %entry
  ret void
}

; Function Attrs: mustprogress uwtable
define available_externally noundef zeroext i1 @_ZNKSt7__cxx1112basic_stringIcSt11char_traitsIcESaIcEE11_M_is_localEv(ptr noundef nonnull align 8 dereferenceable(32) %this) #0 align 2 {
entry:
  %this.addr = alloca ptr, align 8
  store ptr %this, ptr %this.addr, align 8, !tbaa !64
  %this1 = load ptr, ptr %this.addr, align 8
  %call = call noundef ptr @_ZNKSt7__cxx1112basic_stringIcSt11char_traitsIcESaIcEE7_M_dataEv(ptr noundef nonnull align 8 dereferenceable(32) %this1)
  %call2 = call noundef ptr @_ZNKSt7__cxx1112basic_stringIcSt11char_traitsIcESaIcEE13_M_local_dataEv(ptr noundef nonnull align 8 dereferenceable(32) %this1)
  %cmp = icmp eq ptr %call, %call2
  ret i1 %cmp
}

; Function Attrs: mustprogress nounwind uwtable
define available_externally void @_ZNSt7__cxx1112basic_stringIcSt11char_traitsIcESaIcEE10_M_destroyEm(ptr noundef nonnull align 8 dereferenceable(32) %this, i64 noundef %__size) #2 align 2 personality ptr @__gxx_personality_v0 {
entry:
  %this.addr = alloca ptr, align 8
  %__size.addr = alloca i64, align 8
  store ptr %this, ptr %this.addr, align 8, !tbaa !64
  store i64 %__size, ptr %__size.addr, align 8, !tbaa !54
  %this1 = load ptr, ptr %this.addr, align 8
  %call = invoke noundef nonnull align 1 dereferenceable(1) ptr @_ZNSt7__cxx1112basic_stringIcSt11char_traitsIcESaIcEE16_M_get_allocatorEv(ptr noundef nonnull align 8 dereferenceable(32) %this1)
          to label %invoke.cont unwind label %terminate.lpad

invoke.cont:                                      ; preds = %entry
  %call2 = call noundef ptr @_ZNKSt7__cxx1112basic_stringIcSt11char_traitsIcESaIcEE7_M_dataEv(ptr noundef nonnull align 8 dereferenceable(32) %this1)
  %0 = load i64, ptr %__size.addr, align 8, !tbaa !54
  %add = add i64 %0, 1
  invoke void @_ZNSt16allocator_traitsISaIcEE10deallocateERS0_Pcm(ptr noundef nonnull align 1 dereferenceable(1) %call, ptr noundef %call2, i64 noundef %add)
          to label %invoke.cont3 unwind label %terminate.lpad

invoke.cont3:                                     ; preds = %invoke.cont
  ret void

terminate.lpad:                                   ; preds = %invoke.cont, %entry
  %1 = landingpad { ptr, i32 }
          catch ptr null
  %2 = extractvalue { ptr, i32 } %1, 0
  call void @__clang_call_terminate(ptr %2) #25
  unreachable
}

; Function Attrs: mustprogress nounwind uwtable
define available_externally noundef ptr @_ZNKSt7__cxx1112basic_stringIcSt11char_traitsIcESaIcEE13_M_local_dataEv(ptr noundef nonnull align 8 dereferenceable(32) %this) #2 align 2 {
entry:
  %this.addr = alloca ptr, align 8
  store ptr %this, ptr %this.addr, align 8, !tbaa !64
  %this1 = load ptr, ptr %this.addr, align 8
  %0 = getelementptr inbounds nuw %"class.std::__cxx11::basic_string", ptr %this1, i32 0, i32 2
  %arraydecay = getelementptr inbounds [16 x i8], ptr %0, i64 0, i64 0
  %call = call noundef ptr @_ZNSt19__ptr_traits_ptr_toIPKcS0_Lb0EE10pointer_toERS0_(ptr noundef nonnull align 1 dereferenceable(1) %arraydecay) #6
  ret ptr %call
}

; Function Attrs: mustprogress nounwind uwtable
define linkonce_odr noundef ptr @_ZNSt19__ptr_traits_ptr_toIPKcS0_Lb0EE10pointer_toERS0_(ptr noundef nonnull align 1 dereferenceable(1) %__r) #2 comdat align 2 {
entry:
  %__r.addr = alloca ptr, align 8
  store ptr %__r, ptr %__r.addr, align 8, !tbaa !62
  %0 = load ptr, ptr %__r.addr, align 8, !tbaa !62
  ret ptr %0
}

; Function Attrs: mustprogress uwtable
define linkonce_odr void @_ZNSt16allocator_traitsISaIcEE10deallocateERS0_Pcm(ptr noundef nonnull align 1 dereferenceable(1) %__a, ptr noundef %__p, i64 noundef %__n) #0 comdat align 2 {
entry:
  %__a.addr = alloca ptr, align 8
  %__p.addr = alloca ptr, align 8
  %__n.addr = alloca i64, align 8
  store ptr %__a, ptr %__a.addr, align 8, !tbaa !93
  store ptr %__p, ptr %__p.addr, align 8, !tbaa !62
  store i64 %__n, ptr %__n.addr, align 8, !tbaa !54
  %0 = load ptr, ptr %__a.addr, align 8, !tbaa !93
  %1 = load ptr, ptr %__p.addr, align 8, !tbaa !62
  %2 = load i64, ptr %__n.addr, align 8, !tbaa !54
  call void @_ZNSt15__new_allocatorIcE10deallocateEPcm(ptr noundef nonnull align 1 dereferenceable(1) %0, ptr noundef %1, i64 noundef %2)
  ret void
}

; Function Attrs: mustprogress nounwind uwtable
define available_externally noundef nonnull align 1 dereferenceable(1) ptr @_ZNSt7__cxx1112basic_stringIcSt11char_traitsIcESaIcEE16_M_get_allocatorEv(ptr noundef nonnull align 8 dereferenceable(32) %this) #2 align 2 {
entry:
  %this.addr = alloca ptr, align 8
  store ptr %this, ptr %this.addr, align 8, !tbaa !64
  %this1 = load ptr, ptr %this.addr, align 8
  %_M_dataplus = getelementptr inbounds nuw %"class.std::__cxx11::basic_string", ptr %this1, i32 0, i32 0
  ret ptr %_M_dataplus
}

; Function Attrs: mustprogress nounwind uwtable
define linkonce_odr void @_ZNSt15__new_allocatorIcE10deallocateEPcm(ptr noundef nonnull align 1 dereferenceable(1) %this, ptr noundef %__p, i64 noundef %__n) #2 comdat align 2 {
entry:
  %this.addr = alloca ptr, align 8
  %__p.addr = alloca ptr, align 8
  %__n.addr = alloca i64, align 8
  store ptr %this, ptr %this.addr, align 8, !tbaa !100
  store ptr %__p, ptr %__p.addr, align 8, !tbaa !62
  store i64 %__n, ptr %__n.addr, align 8, !tbaa !54
  %this1 = load ptr, ptr %this.addr, align 8
  %0 = load ptr, ptr %__p.addr, align 8, !tbaa !62
  %1 = load i64, ptr %__n.addr, align 8, !tbaa !54
  %mul = mul i64 %1, 1
  call void @_ZdlPvm(ptr noundef %0, i64 noundef %mul) #23
  ret void
}

; Function Attrs: nobuiltin nounwind
declare void @_ZdlPvm(ptr noundef, i64 noundef) #12

; Function Attrs: mustprogress nounwind uwtable
define linkonce_odr noundef zeroext i1 @_ZN9__gnu_cxx14__alloc_traitsISaIcEcE15_S_always_equalEv() #2 comdat align 2 {
entry:
  ret i1 true
}

; Function Attrs: mustprogress nounwind uwtable
define linkonce_odr noundef zeroext i1 @_ZStneRKSaIcES1_(ptr noundef nonnull align 1 dereferenceable(1) %0, ptr noundef nonnull align 1 dereferenceable(1) %1) #2 comdat {
entry:
  %.addr = alloca ptr, align 8
  %.addr1 = alloca ptr, align 8
  store ptr %0, ptr %.addr, align 8, !tbaa !93
  store ptr %1, ptr %.addr1, align 8, !tbaa !93
  ret i1 false
}

; Function Attrs: inlinehint mustprogress nounwind uwtable
define linkonce_odr void @_ZSt15__alloc_on_moveISaIcEEvRT_S2_(ptr noundef nonnull align 1 dereferenceable(1) %__one, ptr noundef nonnull align 1 dereferenceable(1) %__two) #1 comdat {
entry:
  %__one.addr = alloca ptr, align 8
  %__two.addr = alloca ptr, align 8
  store ptr %__one, ptr %__one.addr, align 8, !tbaa !93
  store ptr %__two, ptr %__two.addr, align 8, !tbaa !93
  %0 = load ptr, ptr %__two.addr, align 8, !tbaa !93
  %1 = load ptr, ptr %__one.addr, align 8, !tbaa !93
  ret void
}

; Function Attrs: nocallback nofree nosync nounwind willreturn memory(none)
declare i64 @llvm.expect.i64(i64, i64) #15

; Function Attrs: mustprogress nounwind uwtable
define available_externally noundef i64 @_ZNKSt7__cxx1112basic_stringIcSt11char_traitsIcESaIcEE4sizeEv(ptr noundef nonnull align 8 dereferenceable(32) %this) #2 align 2 {
entry:
  %this.addr = alloca ptr, align 8
  store ptr %this, ptr %this.addr, align 8, !tbaa !64
  %this1 = load ptr, ptr %this.addr, align 8
  %_M_string_length = getelementptr inbounds nuw %"class.std::__cxx11::basic_string", ptr %this1, i32 0, i32 1
  %0 = load i64, ptr %_M_string_length, align 8, !tbaa !102
  ret i64 %0
}

; Function Attrs: mustprogress nounwind uwtable
define available_externally noundef i64 @_ZNKSt7__cxx1112basic_stringIcSt11char_traitsIcESaIcEE6lengthEv(ptr noundef nonnull align 8 dereferenceable(32) %this) #2 align 2 {
entry:
  %this.addr = alloca ptr, align 8
  store ptr %this, ptr %this.addr, align 8, !tbaa !64
  %this1 = load ptr, ptr %this.addr, align 8
  %_M_string_length = getelementptr inbounds nuw %"class.std::__cxx11::basic_string", ptr %this1, i32 0, i32 1
  %0 = load i64, ptr %_M_string_length, align 8, !tbaa !102
  ret i64 %0
}

; Function Attrs: mustprogress nounwind uwtable
define available_externally void @_ZNSt7__cxx1112basic_stringIcSt11char_traitsIcESaIcEE5clearEv(ptr noundef nonnull align 8 dereferenceable(32) %this) #2 align 2 personality ptr @__gxx_personality_v0 {
entry:
  %this.addr = alloca ptr, align 8
  store ptr %this, ptr %this.addr, align 8, !tbaa !64
  %this1 = load ptr, ptr %this.addr, align 8
  invoke void @_ZNSt7__cxx1112basic_stringIcSt11char_traitsIcESaIcEE13_M_set_lengthEm(ptr noundef nonnull align 8 dereferenceable(32) %this1, i64 noundef 0)
          to label %invoke.cont unwind label %terminate.lpad

invoke.cont:                                      ; preds = %entry
  ret void

terminate.lpad:                                   ; preds = %entry
  %0 = landingpad { ptr, i32 }
          catch ptr null
  %1 = extractvalue { ptr, i32 } %0, 0
  call void @__clang_call_terminate(ptr %1) #25
  unreachable
}

; Function Attrs: nocallback nofree nounwind willreturn memory(argmem: write)
declare void @llvm.memset.p0.i64(ptr writeonly captures(none), i8, i64, i1 immarg) #16

; Function Attrs: inlinehint mustprogress nounwind uwtable
define linkonce_odr void @_ZNSt15__uniq_ptr_dataIN6openmc10Function1DESt14default_deleteIS1_ELb1ELb1EEC2Ev(ptr noundef nonnull align 8 dereferenceable(8) %this) unnamed_addr #1 comdat align 2 {
entry:
  %this.addr = alloca ptr, align 8
  store ptr %this, ptr %this.addr, align 8, !tbaa !111
  %this1 = load ptr, ptr %this.addr, align 8
  call void @_ZNSt15__uniq_ptr_implIN6openmc10Function1DESt14default_deleteIS1_EEC2Ev(ptr noundef nonnull align 8 dereferenceable(8) %this1) #6
  ret void
}

; Function Attrs: mustprogress nounwind uwtable
define linkonce_odr void @_ZNSt15__uniq_ptr_implIN6openmc10Function1DESt14default_deleteIS1_EEC2Ev(ptr noundef nonnull align 8 dereferenceable(8) %this) unnamed_addr #2 comdat align 2 {
entry:
  %this.addr = alloca ptr, align 8
  store ptr %this, ptr %this.addr, align 8, !tbaa !113
  %this1 = load ptr, ptr %this.addr, align 8
  %_M_t = getelementptr inbounds nuw %"class.std::__uniq_ptr_impl", ptr %this1, i32 0, i32 0
  call void @_ZNSt5tupleIJPN6openmc10Function1DESt14default_deleteIS1_EEEC2ILb1ETnNSt9enable_ifIXclsr17_TupleConstraintsIXT_ES2_S4_EE37__is_implicitly_default_constructibleEEbE4typeELb1EEEv(ptr noundef nonnull align 8 dereferenceable(8) %_M_t) #6
  ret void
}

; Function Attrs: mustprogress nounwind uwtable
define linkonce_odr void @_ZNSt5tupleIJPN6openmc10Function1DESt14default_deleteIS1_EEEC2ILb1ETnNSt9enable_ifIXclsr17_TupleConstraintsIXT_ES2_S4_EE37__is_implicitly_default_constructibleEEbE4typeELb1EEEv(ptr noundef nonnull align 8 dereferenceable(8) %this) unnamed_addr #2 comdat align 2 personality ptr @__gxx_personality_v0 {
entry:
  %this.addr = alloca ptr, align 8
  store ptr %this, ptr %this.addr, align 8, !tbaa !115
  %this1 = load ptr, ptr %this.addr, align 8
  invoke void @_ZNSt11_Tuple_implILm0EJPN6openmc10Function1DESt14default_deleteIS1_EEEC2Ev(ptr noundef nonnull align 8 dereferenceable(8) %this1)
          to label %invoke.cont unwind label %terminate.lpad

invoke.cont:                                      ; preds = %entry
  ret void

terminate.lpad:                                   ; preds = %entry
  %0 = landingpad { ptr, i32 }
          catch ptr null
  %1 = extractvalue { ptr, i32 } %0, 0
  call void @__clang_call_terminate(ptr %1) #25
  unreachable
}

; Function Attrs: mustprogress uwtable
define linkonce_odr void @_ZNSt11_Tuple_implILm0EJPN6openmc10Function1DESt14default_deleteIS1_EEEC2Ev(ptr noundef nonnull align 8 dereferenceable(8) %this) unnamed_addr #0 comdat align 2 {
entry:
  %this.addr = alloca ptr, align 8
  store ptr %this, ptr %this.addr, align 8, !tbaa !117
  %this1 = load ptr, ptr %this.addr, align 8
  call void @_ZNSt11_Tuple_implILm1EJSt14default_deleteIN6openmc10Function1DEEEEC2Ev(ptr noundef nonnull align 1 dereferenceable(1) %this1)
  call void @_ZNSt10_Head_baseILm0EPN6openmc10Function1DELb0EEC2Ev(ptr noundef nonnull align 8 dereferenceable(8) %this1)
  ret void
}

; Function Attrs: mustprogress uwtable
define linkonce_odr void @_ZNSt11_Tuple_implILm1EJSt14default_deleteIN6openmc10Function1DEEEEC2Ev(ptr noundef nonnull align 1 dereferenceable(1) %this) unnamed_addr #0 comdat align 2 {
entry:
  %this.addr = alloca ptr, align 8
  store ptr %this, ptr %this.addr, align 8, !tbaa !119
  %this1 = load ptr, ptr %this.addr, align 8
  call void @_ZNSt10_Head_baseILm1ESt14default_deleteIN6openmc10Function1DEELb1EEC2Ev(ptr noundef nonnull align 1 dereferenceable(1) %this1)
  ret void
}

; Function Attrs: mustprogress nounwind uwtable
define linkonce_odr void @_ZNSt10_Head_baseILm0EPN6openmc10Function1DELb0EEC2Ev(ptr noundef nonnull align 8 dereferenceable(8) %this) unnamed_addr #2 comdat align 2 {
entry:
  %this.addr = alloca ptr, align 8
  store ptr %this, ptr %this.addr, align 8, !tbaa !121
  %this1 = load ptr, ptr %this.addr, align 8
  %_M_head_impl = getelementptr inbounds nuw %"struct.std::_Head_base.1", ptr %this1, i32 0, i32 0
  store ptr null, ptr %_M_head_impl, align 8, !tbaa !123
  ret void
}

; Function Attrs: mustprogress nounwind uwtable
