; ModuleID = 'filter_sptl_legendre-host-x86_64-unknown-linux-gnu.bc'
source_filename = "/g/g0/wright117/workspace/openmc/openmc-omp/openmc/src/tallies/filter_sptl_legendre.cpp"
target datalayout = "e-m:e-p270:32:32-p271:32:32-p272:64:64-i64:64-i128:128-f80:128-n8:16:32:64-S128"
target triple = "x86_64-unknown-linux-gnu"

%"struct.std::array" = type { [6 x i32] }
%"class.std::ios_base::Init" = type { i8 }
%"class.pugi::xml_node" = type { ptr }
%"class.std::__cxx11::basic_string" = type { %"struct.std::__cxx11::basic_string<char>::_Alloc_hider", i64, %union.anon }
%"struct.std::__cxx11::basic_string<char>::_Alloc_hider" = type { ptr }
%union.anon = type { i64, [8 x i8] }
%"class.openmc::Filter" = type { i32, i32, i32, i64, %"class.openmc::vector", %"class.openmc::vector.0", %"class.openmc::static_map", %"class.openmc::vector.3", %"class.openmc::static_map.4", %"class.openmc::vector.0", i32, i8, %"class.openmc::vector", double, %"class.openmc::vector", double, double, i32, %"class.openmc::vector.0", i32, %"class.openmc::vector.7", i32, i32, double, double, %"class.openmc::vector.0", %"class.openmc::vector.0" }
%"class.openmc::static_map" = type <{ %"class.openmc::vector.1", %"class.openmc::vector.2", i8, [7 x i8] }>
%"class.openmc::vector.1" = type { ptr, i64, i64 }
%"class.openmc::vector.2" = type { ptr, i64, i64 }
%"class.openmc::vector.3" = type { ptr, i64, i64 }
%"class.openmc::static_map.4" = type <{ %"class.openmc::vector.5", %"class.openmc::vector.2", i8, [7 x i8] }>
%"class.openmc::vector.5" = type { ptr, i64, i64 }
%"class.openmc::vector" = type { ptr, i64, i64 }
%"class.openmc::vector.7" = type { ptr, i64, i64 }
%"class.openmc::vector.0" = type { ptr, i64, i64 }
%struct._Save_errno = type { i32 }
%"struct.std::integral_constant" = type { i8 }
%"struct.std::is_same" = type { i8 }
%struct._Save_errno.9 = type { i32 }
%"struct.std::integral_constant.10" = type { i8 }
%"struct.std::is_same.11" = type { i8 }
%"struct.openmc::Position" = type { double, double, double }
%"class.openmc::Particle" = type { %"class.openmc::NuclideMicroXSCache", [9 x %"struct.openmc::ElementMicroXS"], %"struct.openmc::MacroXS", i64, i32, i32, i32, [4 x i8], [6 x %"class.openmc::LocalCoord"], i32, [6 x i32], double, double, i32, i32, double, double, %"struct.openmc::Position", %"struct.openmc::Position", %"struct.openmc::Position", double, i8, i32, i32, i32, i32, i32, i32, double, [8 x i32], i32, i32, i32, i32, %"struct.openmc::BoundaryInfo", double, double, i32, i8, [8 x i64], i32, [5 x %"struct.openmc::Particle::Bank"], i64, i64, [1 x double], ptr, %"class.std::vector", [16 x %"struct.openmc::Particle::NuBank"], double, double, double, double, i8, double, double, i32, i64 }
%"class.openmc::NuclideMicroXSCache" = type { [1 x %"struct.openmc::NuclideMicroXS"] }
%"struct.openmc::NuclideMicroXS" = type { double, double, double, double, double, double, double, double, [6 x double], i32, i32, double, i32, i32, double, i8, double, double }
%"struct.openmc::ElementMicroXS" = type { i32, double, double, double, double, double, double, double }
%"struct.openmc::MacroXS" = type { double, double, double, double, double, [6 x double], double, double, double, double }
%"class.openmc::LocalCoord" = type <{ %"struct.openmc::Position", %"struct.openmc::Position", i32, i32, i32, i32, i32, i32, i8, [7 x i8] }>
%"struct.openmc::BoundaryInfo" = type <{ double, i32, i32, %"struct.std::array.12", [4 x i8] }>
%"struct.std::array.12" = type { [3 x i32] }
%"struct.openmc::Particle::Bank" = type { %"struct.openmc::Position", %"struct.openmc::Position", double, double, i32, i32, i32, i64, i64 }
%"class.std::vector" = type { %"struct.std::_Vector_base" }
%"struct.std::_Vector_base" = type { %"struct.std::_Vector_base<std::vector<openmc::Position>, std::allocator<std::vector<openmc::Position>>>::_Vector_impl" }
%"struct.std::_Vector_base<std::vector<openmc::Position>, std::allocator<std::vector<openmc::Position>>>::_Vector_impl" = type { %"struct.std::_Vector_base<std::vector<openmc::Position>, std::allocator<std::vector<openmc::Position>>>::_Vector_impl_data" }
%"struct.std::_Vector_base<std::vector<openmc::Position>, std::allocator<std::vector<openmc::Position>>>::_Vector_impl_data" = type { ptr, ptr, ptr }
%"struct.openmc::Particle::NuBank" = type { double, double, i32 }
%"class.openmc::FilterMatch" = type <{ [125 x i32], [4 x i8], [125 x double], i32, i32, i8, [7 x i8] }>
%"class.std::allocator" = type { i8 }
%"struct.std::forward_iterator_tag" = type { i8 }
%struct._Guard = type { ptr }
%"struct.std::random_access_iterator_tag" = type { i8 }
%"class.fmt::v6::basic_string_view" = type { ptr, i64 }
%"class.fmt::v6::basic_format_args" = type { i64, %union.anon.16 }
%union.anon.16 = type { ptr }
%"class.fmt::v6::format_arg_store" = type { [1 x %"class.fmt::v6::internal::value"] }
%"class.fmt::v6::internal::value" = type { %union.anon.17 }
%union.anon.17 = type { i128 }
%"class.fmt::v6::basic_memory_buffer" = type <{ %"class.fmt::v6::internal::buffer", [500 x i8], [4 x i8] }>
%"class.fmt::v6::internal::buffer" = type { ptr, ptr, i64, i64 }
%"class.std::back_insert_iterator" = type { ptr }
%"class.fmt::v6::buffer_range" = type { %"class.fmt::v6::internal::output_range" }
%"class.fmt::v6::internal::output_range" = type { %"class.std::back_insert_iterator" }
%"class.fmt::v6::internal::locale_ref" = type { ptr }
%"struct.fmt::v6::format_handler" = type { [8 x i8], %"class.fmt::v6::basic_format_parse_context", %"class.fmt::v6::basic_format_context", %"class.fmt::v6::basic_format_arg" }
%"class.fmt::v6::basic_format_parse_context" = type <{ %"class.fmt::v6::basic_string_view", i32, [4 x i8] }>
%"class.fmt::v6::basic_format_context" = type { %"class.std::back_insert_iterator", %"class.fmt::v6::basic_format_args", %"class.fmt::v6::internal::arg_map", %"class.fmt::v6::internal::locale_ref" }
%"class.fmt::v6::internal::arg_map" = type <{ ptr, i32, [4 x i8] }>
%"class.fmt::v6::basic_format_arg" = type <{ %"class.fmt::v6::internal::value", i32, [12 x i8] }>
%"struct.fmt::v6::internal::error_handler" = type { i8 }
%struct.pfs_writer = type { ptr }
%"struct.fmt::v6::internal::id_adapter" = type { ptr }
%"class.fmt::v6::arg_formatter" = type { %"class.fmt::v6::internal::arg_formatter_base", ptr, ptr }
%"class.fmt::v6::internal::arg_formatter_base" = type { %"class.fmt::v6::internal::basic_writer", ptr }
%"class.fmt::v6::internal::basic_writer" = type { %"class.std::back_insert_iterator", %"class.fmt::v6::internal::locale_ref" }
%"class.fmt::v6::internal::custom_formatter" = type { ptr, ptr }
%"struct.fmt::v6::basic_format_specs" = type { i32, i32, i8, i8, %"struct.fmt::v6::internal::fill_t" }
%"struct.fmt::v6::internal::fill_t" = type { [6 x i8] }
%"class.fmt::v6::internal::specs_checker" = type { %"class.fmt::v6::internal::specs_handler", %"class.fmt::v6::internal::numeric_specs_checker" }
%"class.fmt::v6::internal::specs_handler" = type { %"class.fmt::v6::internal::specs_setter", ptr, ptr }
%"class.fmt::v6::internal::specs_setter" = type { ptr }
%"class.fmt::v6::internal::numeric_specs_checker" = type <{ ptr, i32, [4 x i8] }>
%"struct.fmt::v6::internal::named_arg_base" = type { %"class.fmt::v6::basic_string_view", [32 x i8] }
%"class.fmt::v6::basic_format_arg<fmt::v6::basic_format_context<std::back_insert_iterator<fmt::v6::internal::buffer<char>>, char>>::handle" = type { %"struct.fmt::v6::internal::custom_value" }
%"struct.fmt::v6::internal::custom_value" = type { ptr, ptr }
%"struct.fmt::v6::monostate" = type { i8 }
%"struct.fmt::v6::internal::string_value" = type { ptr, i64 }
%"struct.fmt::v6::internal::arg_formatter_base<fmt::v6::buffer_range<char>>::char_spec_handler" = type <{ ptr, i8, [7 x i8] }>
%"struct.fmt::v6::internal::arg_formatter_base<fmt::v6::buffer_range<char>>::cstring_spec_handler" = type { ptr, ptr }
%"struct.fmt::v6::internal::basic_writer<fmt::v6::buffer_range<char>>::int_writer" = type <{ ptr, ptr, i32, [4 x i8], i32, [4 x i8] }>
%"struct.fmt::v6::internal::basic_writer<fmt::v6::buffer_range<char>>::int_writer<int, fmt::v6::basic_format_specs<char>>::dec_writer" = type { i32, i32 }
%"struct.fmt::v6::internal::basic_writer<fmt::v6::buffer_range<char>>::int_writer<int, fmt::v6::basic_format_specs<char>>::hex_writer" = type <{ ptr, i32, [4 x i8] }>
%"struct.fmt::v6::internal::basic_writer<fmt::v6::buffer_range<char>>::int_writer<int, fmt::v6::basic_format_specs<char>>::bin_writer" = type { i32, i32 }
%"struct.fmt::v6::internal::basic_writer<fmt::v6::buffer_range<char>>::int_writer<int, fmt::v6::basic_format_specs<char>>::bin_writer.20" = type { i32, i32 }
%"class.__gnu_cxx::__normal_iterator" = type { ptr }
%"struct.fmt::v6::internal::basic_writer<fmt::v6::buffer_range<char>>::int_writer<int, fmt::v6::basic_format_specs<char>>::num_writer" = type <{ i32, i32, ptr, i8, [7 x i8] }>
%"struct.fmt::v6::internal::basic_writer<fmt::v6::buffer_range<char>>::padded_int_writer" = type { i64, %"class.fmt::v6::basic_string_view", i8, i64, %"struct.fmt::v6::internal::basic_writer<fmt::v6::buffer_range<char>>::int_writer<int, fmt::v6::basic_format_specs<char>>::dec_writer" }
%class.anon = type { i8 }
%struct.accessor = type { %"class.std::back_insert_iterator" }
%"struct.fmt::v6::internal::basic_writer<fmt::v6::buffer_range<char>>::padded_int_writer.18" = type { i64, %"class.fmt::v6::basic_string_view", i8, i64, %"struct.fmt::v6::internal::basic_writer<fmt::v6::buffer_range<char>>::int_writer<int, fmt::v6::basic_format_specs<char>>::hex_writer" }
%"struct.fmt::v6::internal::basic_writer<fmt::v6::buffer_range<char>>::padded_int_writer.19" = type { i64, %"class.fmt::v6::basic_string_view", i8, i64, %"struct.fmt::v6::internal::basic_writer<fmt::v6::buffer_range<char>>::int_writer<int, fmt::v6::basic_format_specs<char>>::bin_writer" }
%"struct.fmt::v6::internal::basic_writer<fmt::v6::buffer_range<char>>::padded_int_writer.21" = type { i64, %"class.fmt::v6::basic_string_view", i8, i64, %"struct.fmt::v6::internal::basic_writer<fmt::v6::buffer_range<char>>::int_writer<int, fmt::v6::basic_format_specs<char>>::bin_writer.20" }
%"struct.fmt::v6::internal::basic_writer<fmt::v6::buffer_range<char>>::padded_int_writer.22" = type { i64, %"class.fmt::v6::basic_string_view", i8, i64, %"struct.fmt::v6::internal::basic_writer<fmt::v6::buffer_range<char>>::int_writer<int, fmt::v6::basic_format_specs<char>>::num_writer" }
%class.anon.23 = type { ptr, %"class.fmt::v6::basic_string_view", ptr, ptr }
%"struct.fmt::v6::internal::basic_writer<fmt::v6::buffer_range<char>>::int_writer.24" = type <{ ptr, ptr, i32, [4 x i8], i32, [4 x i8] }>
%"struct.fmt::v6::internal::basic_writer<fmt::v6::buffer_range<char>>::int_writer<unsigned int, fmt::v6::basic_format_specs<char>>::dec_writer" = type { i32, i32 }
%"struct.fmt::v6::internal::basic_writer<fmt::v6::buffer_range<char>>::int_writer<unsigned int, fmt::v6::basic_format_specs<char>>::hex_writer" = type <{ ptr, i32, [4 x i8] }>
%"struct.fmt::v6::internal::basic_writer<fmt::v6::buffer_range<char>>::int_writer<unsigned int, fmt::v6::basic_format_specs<char>>::bin_writer" = type { i32, i32 }
%"struct.fmt::v6::internal::basic_writer<fmt::v6::buffer_range<char>>::int_writer<unsigned int, fmt::v6::basic_format_specs<char>>::bin_writer.29" = type { i32, i32 }
%"struct.fmt::v6::internal::basic_writer<fmt::v6::buffer_range<char>>::int_writer<unsigned int, fmt::v6::basic_format_specs<char>>::num_writer" = type <{ i32, i32, ptr, i8, [7 x i8] }>
%"struct.fmt::v6::internal::basic_writer<fmt::v6::buffer_range<char>>::padded_int_writer.26" = type { i64, %"class.fmt::v6::basic_string_view", i8, i64, %"struct.fmt::v6::internal::basic_writer<fmt::v6::buffer_range<char>>::int_writer<unsigned int, fmt::v6::basic_format_specs<char>>::dec_writer" }
%"struct.fmt::v6::internal::basic_writer<fmt::v6::buffer_range<char>>::padded_int_writer.27" = type { i64, %"class.fmt::v6::basic_string_view", i8, i64, %"struct.fmt::v6::internal::basic_writer<fmt::v6::buffer_range<char>>::int_writer<unsigned int, fmt::v6::basic_format_specs<char>>::hex_writer" }
%"struct.fmt::v6::internal::basic_writer<fmt::v6::buffer_range<char>>::padded_int_writer.28" = type { i64, %"class.fmt::v6::basic_string_view", i8, i64, %"struct.fmt::v6::internal::basic_writer<fmt::v6::buffer_range<char>>::int_writer<unsigned int, fmt::v6::basic_format_specs<char>>::bin_writer" }
%"struct.fmt::v6::internal::basic_writer<fmt::v6::buffer_range<char>>::padded_int_writer.30" = type { i64, %"class.fmt::v6::basic_string_view", i8, i64, %"struct.fmt::v6::internal::basic_writer<fmt::v6::buffer_range<char>>::int_writer<unsigned int, fmt::v6::basic_format_specs<char>>::bin_writer.29" }
%"struct.fmt::v6::internal::basic_writer<fmt::v6::buffer_range<char>>::padded_int_writer.31" = type { i64, %"class.fmt::v6::basic_string_view", i8, i64, %"struct.fmt::v6::internal::basic_writer<fmt::v6::buffer_range<char>>::int_writer<unsigned int, fmt::v6::basic_format_specs<char>>::num_writer" }
%class.anon.32 = type { ptr, %"class.fmt::v6::basic_string_view", ptr, ptr }
%"struct.fmt::v6::internal::basic_writer<fmt::v6::buffer_range<char>>::int_writer.33" = type { ptr, ptr, i64, [4 x i8], i32 }
%"struct.fmt::v6::internal::basic_writer<fmt::v6::buffer_range<char>>::int_writer<long long, fmt::v6::basic_format_specs<char>>::dec_writer" = type { i64, i32 }
%"struct.fmt::v6::internal::basic_writer<fmt::v6::buffer_range<char>>::int_writer<long long, fmt::v6::basic_format_specs<char>>::hex_writer" = type <{ ptr, i32, [4 x i8] }>
%"struct.fmt::v6::internal::basic_writer<fmt::v6::buffer_range<char>>::int_writer<long long, fmt::v6::basic_format_specs<char>>::bin_writer" = type { i64, i32 }
%"struct.fmt::v6::internal::basic_writer<fmt::v6::buffer_range<char>>::int_writer<long long, fmt::v6::basic_format_specs<char>>::bin_writer.39" = type { i64, i32 }
%"struct.fmt::v6::internal::basic_writer<fmt::v6::buffer_range<char>>::int_writer<long long, fmt::v6::basic_format_specs<char>>::num_writer" = type <{ i64, i32, [4 x i8], ptr, i8, [7 x i8] }>
%"struct.fmt::v6::internal::basic_writer<fmt::v6::buffer_range<char>>::padded_int_writer.34" = type { i64, %"class.fmt::v6::basic_string_view", i8, i64, %"struct.fmt::v6::internal::basic_writer<fmt::v6::buffer_range<char>>::int_writer<long long, fmt::v6::basic_format_specs<char>>::dec_writer" }
%class.anon.35 = type { i8 }
%"struct.fmt::v6::internal::basic_writer<fmt::v6::buffer_range<char>>::padded_int_writer.37" = type { i64, %"class.fmt::v6::basic_string_view", i8, i64, %"struct.fmt::v6::internal::basic_writer<fmt::v6::buffer_range<char>>::int_writer<long long, fmt::v6::basic_format_specs<char>>::hex_writer" }
%"struct.fmt::v6::internal::basic_writer<fmt::v6::buffer_range<char>>::padded_int_writer.38" = type { i64, %"class.fmt::v6::basic_string_view", i8, i64, %"struct.fmt::v6::internal::basic_writer<fmt::v6::buffer_range<char>>::int_writer<long long, fmt::v6::basic_format_specs<char>>::bin_writer" }
%"struct.fmt::v6::internal::basic_writer<fmt::v6::buffer_range<char>>::padded_int_writer.40" = type { i64, %"class.fmt::v6::basic_string_view", i8, i64, %"struct.fmt::v6::internal::basic_writer<fmt::v6::buffer_range<char>>::int_writer<long long, fmt::v6::basic_format_specs<char>>::bin_writer.39" }
%"struct.fmt::v6::internal::basic_writer<fmt::v6::buffer_range<char>>::padded_int_writer.41" = type { i64, %"class.fmt::v6::basic_string_view", i8, i64, %"struct.fmt::v6::internal::basic_writer<fmt::v6::buffer_range<char>>::int_writer<long long, fmt::v6::basic_format_specs<char>>::num_writer" }
%class.anon.42 = type { ptr, %"class.fmt::v6::basic_string_view", ptr, ptr }
%"struct.fmt::v6::internal::basic_writer<fmt::v6::buffer_range<char>>::int_writer.43" = type { ptr, ptr, i64, [4 x i8], i32 }
%"struct.fmt::v6::internal::basic_writer<fmt::v6::buffer_range<char>>::int_writer<unsigned long long, fmt::v6::basic_format_specs<char>>::dec_writer" = type { i64, i32 }
%"struct.fmt::v6::internal::basic_writer<fmt::v6::buffer_range<char>>::int_writer<unsigned long long, fmt::v6::basic_format_specs<char>>::hex_writer" = type <{ ptr, i32, [4 x i8] }>
%"struct.fmt::v6::internal::basic_writer<fmt::v6::buffer_range<char>>::int_writer<unsigned long long, fmt::v6::basic_format_specs<char>>::bin_writer" = type { i64, i32 }
%"struct.fmt::v6::internal::basic_writer<fmt::v6::buffer_range<char>>::int_writer<unsigned long long, fmt::v6::basic_format_specs<char>>::bin_writer.47" = type { i64, i32 }
%"struct.fmt::v6::internal::basic_writer<fmt::v6::buffer_range<char>>::int_writer<unsigned long long, fmt::v6::basic_format_specs<char>>::num_writer" = type <{ i64, i32, [4 x i8], ptr, i8, [7 x i8] }>
%"struct.fmt::v6::internal::basic_writer<fmt::v6::buffer_range<char>>::padded_int_writer.44" = type { i64, %"class.fmt::v6::basic_string_view", i8, i64, %"struct.fmt::v6::internal::basic_writer<fmt::v6::buffer_range<char>>::int_writer<unsigned long long, fmt::v6::basic_format_specs<char>>::dec_writer" }
%"struct.fmt::v6::internal::basic_writer<fmt::v6::buffer_range<char>>::padded_int_writer.45" = type { i64, %"class.fmt::v6::basic_string_view", i8, i64, %"struct.fmt::v6::internal::basic_writer<fmt::v6::buffer_range<char>>::int_writer<unsigned long long, fmt::v6::basic_format_specs<char>>::hex_writer" }
%"struct.fmt::v6::internal::basic_writer<fmt::v6::buffer_range<char>>::padded_int_writer.46" = type { i64, %"class.fmt::v6::basic_string_view", i8, i64, %"struct.fmt::v6::internal::basic_writer<fmt::v6::buffer_range<char>>::int_writer<unsigned long long, fmt::v6::basic_format_specs<char>>::bin_writer" }
%"struct.fmt::v6::internal::basic_writer<fmt::v6::buffer_range<char>>::padded_int_writer.48" = type { i64, %"class.fmt::v6::basic_string_view", i8, i64, %"struct.fmt::v6::internal::basic_writer<fmt::v6::buffer_range<char>>::int_writer<unsigned long long, fmt::v6::basic_format_specs<char>>::bin_writer.47" }
%"struct.fmt::v6::internal::basic_writer<fmt::v6::buffer_range<char>>::padded_int_writer.49" = type { i64, %"class.fmt::v6::basic_string_view", i8, i64, %"struct.fmt::v6::internal::basic_writer<fmt::v6::buffer_range<char>>::int_writer<unsigned long long, fmt::v6::basic_format_specs<char>>::num_writer" }
%class.anon.50 = type { ptr, %"class.fmt::v6::basic_string_view", ptr, ptr }
%"struct.fmt::v6::internal::basic_writer<fmt::v6::buffer_range<char>>::int_writer.51" = type <{ ptr, ptr, i128, [4 x i8], i32, [8 x i8] }>
%"struct.fmt::v6::internal::basic_writer<fmt::v6::buffer_range<char>>::int_writer<__int128, fmt::v6::basic_format_specs<char>>::dec_writer" = type { i128, i32 }
%"struct.fmt::v6::internal::basic_writer<fmt::v6::buffer_range<char>>::int_writer<__int128, fmt::v6::basic_format_specs<char>>::hex_writer" = type <{ ptr, i32, [4 x i8] }>
%"struct.fmt::v6::internal::basic_writer<fmt::v6::buffer_range<char>>::int_writer<__int128, fmt::v6::basic_format_specs<char>>::bin_writer" = type { i128, i32 }
%"struct.fmt::v6::internal::basic_writer<fmt::v6::buffer_range<char>>::int_writer<__int128, fmt::v6::basic_format_specs<char>>::bin_writer.58" = type { i128, i32 }
%"struct.fmt::v6::internal::basic_writer<fmt::v6::buffer_range<char>>::int_writer<__int128, fmt::v6::basic_format_specs<char>>::num_writer" = type <{ i128, i32, [4 x i8], ptr, i8, [15 x i8] }>
%"struct.fmt::v6::internal::basic_writer<fmt::v6::buffer_range<char>>::padded_int_writer.53" = type { i64, %"class.fmt::v6::basic_string_view", i8, i64, %"struct.fmt::v6::internal::basic_writer<fmt::v6::buffer_range<char>>::int_writer<__int128, fmt::v6::basic_format_specs<char>>::dec_writer" }
%class.anon.54 = type { i8 }
%"struct.fmt::v6::internal::basic_writer<fmt::v6::buffer_range<char>>::padded_int_writer.56" = type { i64, %"class.fmt::v6::basic_string_view", i8, i64, %"struct.fmt::v6::internal::basic_writer<fmt::v6::buffer_range<char>>::int_writer<__int128, fmt::v6::basic_format_specs<char>>::hex_writer" }
%"struct.fmt::v6::internal::basic_writer<fmt::v6::buffer_range<char>>::padded_int_writer.57" = type { i64, %"class.fmt::v6::basic_string_view", i8, i64, %"struct.fmt::v6::internal::basic_writer<fmt::v6::buffer_range<char>>::int_writer<__int128, fmt::v6::basic_format_specs<char>>::bin_writer" }
%"struct.fmt::v6::internal::basic_writer<fmt::v6::buffer_range<char>>::padded_int_writer.59" = type { i64, %"class.fmt::v6::basic_string_view", i8, i64, %"struct.fmt::v6::internal::basic_writer<fmt::v6::buffer_range<char>>::int_writer<__int128, fmt::v6::basic_format_specs<char>>::bin_writer.58" }
%"struct.fmt::v6::internal::basic_writer<fmt::v6::buffer_range<char>>::padded_int_writer.60" = type { i64, %"class.fmt::v6::basic_string_view", i8, i64, [8 x i8], %"struct.fmt::v6::internal::basic_writer<fmt::v6::buffer_range<char>>::int_writer<__int128, fmt::v6::basic_format_specs<char>>::num_writer" }
%class.anon.61 = type { ptr, %"class.fmt::v6::basic_string_view", ptr, ptr }
%"struct.fmt::v6::internal::basic_writer<fmt::v6::buffer_range<char>>::int_writer.62" = type <{ ptr, ptr, i128, [4 x i8], i32, [8 x i8] }>
%"struct.fmt::v6::internal::basic_writer<fmt::v6::buffer_range<char>>::int_writer<unsigned __int128, fmt::v6::basic_format_specs<char>>::dec_writer" = type { i128, i32 }
%"struct.fmt::v6::internal::basic_writer<fmt::v6::buffer_range<char>>::int_writer<unsigned __int128, fmt::v6::basic_format_specs<char>>::hex_writer" = type <{ ptr, i32, [4 x i8] }>
%"struct.fmt::v6::internal::basic_writer<fmt::v6::buffer_range<char>>::int_writer<unsigned __int128, fmt::v6::basic_format_specs<char>>::bin_writer" = type { i128, i32 }
%"struct.fmt::v6::internal::basic_writer<fmt::v6::buffer_range<char>>::int_writer<unsigned __int128, fmt::v6::basic_format_specs<char>>::bin_writer.67" = type { i128, i32 }
%"struct.fmt::v6::internal::basic_writer<fmt::v6::buffer_range<char>>::int_writer<unsigned __int128, fmt::v6::basic_format_specs<char>>::num_writer" = type <{ i128, i32, [4 x i8], ptr, i8, [15 x i8] }>
%"struct.fmt::v6::internal::basic_writer<fmt::v6::buffer_range<char>>::padded_int_writer.64" = type { i64, %"class.fmt::v6::basic_string_view", i8, i64, %"struct.fmt::v6::internal::basic_writer<fmt::v6::buffer_range<char>>::int_writer<unsigned __int128, fmt::v6::basic_format_specs<char>>::dec_writer" }
%"struct.fmt::v6::internal::basic_writer<fmt::v6::buffer_range<char>>::padded_int_writer.65" = type { i64, %"class.fmt::v6::basic_string_view", i8, i64, %"struct.fmt::v6::internal::basic_writer<fmt::v6::buffer_range<char>>::int_writer<unsigned __int128, fmt::v6::basic_format_specs<char>>::hex_writer" }
%"struct.fmt::v6::internal::basic_writer<fmt::v6::buffer_range<char>>::padded_int_writer.66" = type { i64, %"class.fmt::v6::basic_string_view", i8, i64, %"struct.fmt::v6::internal::basic_writer<fmt::v6::buffer_range<char>>::int_writer<unsigned __int128, fmt::v6::basic_format_specs<char>>::bin_writer" }
%"struct.fmt::v6::internal::basic_writer<fmt::v6::buffer_range<char>>::padded_int_writer.68" = type { i64, %"class.fmt::v6::basic_string_view", i8, i64, %"struct.fmt::v6::internal::basic_writer<fmt::v6::buffer_range<char>>::int_writer<unsigned __int128, fmt::v6::basic_format_specs<char>>::bin_writer.67" }
%"struct.fmt::v6::internal::basic_writer<fmt::v6::buffer_range<char>>::padded_int_writer.69" = type { i64, %"class.fmt::v6::basic_string_view", i8, i64, [8 x i8], %"struct.fmt::v6::internal::basic_writer<fmt::v6::buffer_range<char>>::int_writer<unsigned __int128, fmt::v6::basic_format_specs<char>>::num_writer" }
%class.anon.70 = type { ptr, %"class.fmt::v6::basic_string_view", ptr, ptr }
%"struct.fmt::v6::internal::basic_writer<fmt::v6::buffer_range<char>>::str_writer" = type { ptr, i64 }
%"struct.fmt::v6::internal::arg_formatter_base<fmt::v6::buffer_range<char>>::char_writer" = type { i8 }
%"struct.fmt::v6::internal::basic_writer<fmt::v6::buffer_range<char>>::int_writer.71" = type <{ ptr, ptr, i32, [4 x i8], i32, [4 x i8] }>
%"struct.fmt::v6::internal::basic_writer<fmt::v6::buffer_range<char>>::int_writer<char, fmt::v6::basic_format_specs<char>>::dec_writer" = type { i32, i32 }
%"struct.fmt::v6::internal::basic_writer<fmt::v6::buffer_range<char>>::int_writer<char, fmt::v6::basic_format_specs<char>>::hex_writer" = type <{ ptr, i32, [4 x i8] }>
%"struct.fmt::v6::internal::basic_writer<fmt::v6::buffer_range<char>>::int_writer<char, fmt::v6::basic_format_specs<char>>::bin_writer" = type { i32, i32 }
%"struct.fmt::v6::internal::basic_writer<fmt::v6::buffer_range<char>>::int_writer<char, fmt::v6::basic_format_specs<char>>::bin_writer.76" = type { i32, i32 }
%"struct.fmt::v6::internal::basic_writer<fmt::v6::buffer_range<char>>::int_writer<char, fmt::v6::basic_format_specs<char>>::num_writer" = type <{ i32, i32, ptr, i8, [7 x i8] }>
%"struct.fmt::v6::internal::basic_writer<fmt::v6::buffer_range<char>>::padded_int_writer.73" = type { i64, %"class.fmt::v6::basic_string_view", i8, i64, %"struct.fmt::v6::internal::basic_writer<fmt::v6::buffer_range<char>>::int_writer<char, fmt::v6::basic_format_specs<char>>::dec_writer" }
%"struct.fmt::v6::internal::basic_writer<fmt::v6::buffer_range<char>>::padded_int_writer.74" = type { i64, %"class.fmt::v6::basic_string_view", i8, i64, %"struct.fmt::v6::internal::basic_writer<fmt::v6::buffer_range<char>>::int_writer<char, fmt::v6::basic_format_specs<char>>::hex_writer" }
%"struct.fmt::v6::internal::basic_writer<fmt::v6::buffer_range<char>>::padded_int_writer.75" = type { i64, %"class.fmt::v6::basic_string_view", i8, i64, %"struct.fmt::v6::internal::basic_writer<fmt::v6::buffer_range<char>>::int_writer<char, fmt::v6::basic_format_specs<char>>::bin_writer" }
%"struct.fmt::v6::internal::basic_writer<fmt::v6::buffer_range<char>>::padded_int_writer.77" = type { i64, %"class.fmt::v6::basic_string_view", i8, i64, %"struct.fmt::v6::internal::basic_writer<fmt::v6::buffer_range<char>>::int_writer<char, fmt::v6::basic_format_specs<char>>::bin_writer.76" }
%"struct.fmt::v6::internal::basic_writer<fmt::v6::buffer_range<char>>::padded_int_writer.78" = type { i64, %"class.fmt::v6::basic_string_view", i8, i64, %"struct.fmt::v6::internal::basic_writer<fmt::v6::buffer_range<char>>::int_writer<char, fmt::v6::basic_format_specs<char>>::num_writer" }
%class.anon.79 = type { ptr, %"class.fmt::v6::basic_string_view", ptr, ptr }
%"struct.fmt::v6::internal::float_specs" = type { i32, i32 }
%"struct.fmt::v6::internal::nonfinite_writer" = type { i32, ptr }
%"struct.std::is_same.80" = type { i8 }
%"class.fmt::v6::internal::float_writer" = type <{ ptr, i32, i32, i64, %"struct.fmt::v6::internal::float_specs", i8, [7 x i8] }>
%"class.fmt::v6::internal::counting_iterator" = type { i64 }
%"struct.fmt::v6::internal::counting_iterator::value_type" = type { i8 }
%"struct.std::output_iterator_tag" = type { i8 }
%"struct.std::is_same.81" = type { i8 }
%"struct.std::is_same.82" = type { i8 }
%"struct.fmt::v6::internal::basic_writer<fmt::v6::buffer_range<char>>::pointer_writer" = type { i64, i32 }
%"struct.fmt::v6::internal::arg_map<fmt::v6::basic_format_context<std::back_insert_iterator<fmt::v6::internal::buffer<char>>, char>>::entry" = type { %"class.fmt::v6::basic_string_view", %"class.fmt::v6::basic_format_arg" }
%"struct.fmt::v6::internal::width_adapter" = type { ptr }
%"struct.fmt::v6::internal::precision_adapter" = type { ptr }
%"struct.fmt::v6::internal::auto_id" = type { i8 }
%"class.fmt::v6::internal::width_checker" = type { ptr }
%"class.fmt::v6::internal::precision_checker" = type { ptr }
%"struct.fmt::v6::internal::arg_mapper" = type { i8 }

$_ZNSt7__cxx114stoiERKNS_12basic_stringIcSt11char_traitsIcESaIcEEEPmi = comdat any

$_ZNSt7__cxx114stodERKNS_12basic_stringIcSt11char_traitsIcESaIcEEEPm = comdat any

$_ZN9__gnu_cxx6__stoaIlicJiEEET0_PFT_PKT1_PPS3_DpT2_EPKcS5_PmS9_ = comdat any

$_ZZN9__gnu_cxx6__stoaIlicJiEEET0_PFT_PKT1_PPS3_DpT2_EPKcS5_PmS9_EN11_Save_errnoC2Ev = comdat any

$_ZZN9__gnu_cxx6__stoaIlicJiEEET0_PFT_PKT1_PPS3_DpT2_EPKcS5_PmS9_EN10_Range_chk6_S_chkElSt17integral_constantIbLb1EE = comdat any

$_ZZN9__gnu_cxx6__stoaIlicJiEEET0_PFT_PKT1_PPS3_DpT2_EPKcS5_PmS9_EN11_Save_errnoD2Ev = comdat any

$__clang_call_terminate = comdat any

$_ZNSt19__ptr_traits_ptr_toIPKcS0_Lb0EE10pointer_toERS0_ = comdat any

$_ZNSt16allocator_traitsISaIcEE10deallocateERS0_Pcm = comdat any

$_ZNSt15__new_allocatorIcE10deallocateEPcm = comdat any

$_ZN9__gnu_cxx6__stoaIddcJEEET0_PFT_PKT1_PPS3_DpT2_EPKcS5_PmS9_ = comdat any

$_ZZN9__gnu_cxx6__stoaIddcJEEET0_PFT_PKT1_PPS3_DpT2_EPKcS5_PmS9_EN11_Save_errnoC2Ev = comdat any

$_ZZN9__gnu_cxx6__stoaIddcJEEET0_PFT_PKT1_PPS3_DpT2_EPKcS5_PmS9_EN10_Range_chk6_S_chkEdSt17integral_constantIbLb0EE = comdat any

$_ZZN9__gnu_cxx6__stoaIddcJEEET0_PFT_PKT1_PPS3_DpT2_EPKcS5_PmS9_EN11_Save_errnoD2Ev = comdat any

$_ZNK6openmc8Particle1rEv = comdat any

$_ZN6openmc11FilterMatch9push_backEid = comdat any

$_ZN6openmc11FilterMatch7is_fullEv = comdat any

$_ZN6openmc13write_datasetIiEENSt9enable_ifIXsr3std9is_scalarINSt5decayIT_E4typeEEE5valueEvE4typeElPKcS3_ = comdat any

$_ZN6openmc13write_datasetElPKcS1_ = comdat any

$_ZN6openmc13write_datasetIdEENSt9enable_ifIXsr3std9is_scalarINSt5decayIT_E4typeEEE5valueEvE4typeElPKcS3_ = comdat any

$_ZNSt7__cxx1112basic_stringIcSt11char_traitsIcESaIcEEC2IS3_EEPKcRKS3_ = comdat any

$_ZNSt15__new_allocatorIcED2Ev = comdat any

$_ZNSt15__new_allocatorIcEC2Ev = comdat any

$_ZNSt11char_traitsIcE6lengthEPKc = comdat any

$_ZNSt7__cxx1112basic_stringIcSt11char_traitsIcESaIcEE12_M_constructIPKcEEvT_S8_St20forward_iterator_tag = comdat any

$_ZNSt19__ptr_traits_ptr_toIPccLb0EE10pointer_toERc = comdat any

$_ZNSt15__new_allocatorIcEC2ERKS0_ = comdat any

$_ZSt8distanceIPKcENSt15iterator_traitsIT_E15difference_typeES3_S3_ = comdat any

$_ZZNSt7__cxx1112basic_stringIcSt11char_traitsIcESaIcEE12_M_constructIPKcEEvT_S8_St20forward_iterator_tagEN6_GuardC2EPS4_ = comdat any

$_ZZNSt7__cxx1112basic_stringIcSt11char_traitsIcESaIcEE12_M_constructIPKcEEvT_S8_St20forward_iterator_tagEN6_GuardD2Ev = comdat any

$_ZSt10__distanceIPKcENSt15iterator_traitsIT_E15difference_typeES3_S3_St26random_access_iterator_tag = comdat any

$_ZSt19__iterator_categoryIPKcENSt15iterator_traitsIT_E17iterator_categoryERKS3_ = comdat any

$_ZNSt11char_traitsIcE6assignERcRKc = comdat any

$_ZNSt11char_traitsIcE4copyEPcPKcm = comdat any

$_ZN3fmt2v66formatIA32_cJRiEcEENSt7__cxx1112basic_stringIT1_St11char_traitsIS6_ESaIS6_EEERKT_DpOT0_ = comdat any

$_ZN3fmt2v68internal7vformatIcEENSt7__cxx1112basic_stringIT_St11char_traitsIS5_ESaIS5_EEENS0_17basic_string_viewIS5_EENS0_17basic_format_argsINS0_20basic_format_contextISt20back_insert_iteratorINS1_6bufferIS5_EEES5_EEEE = comdat any

$_ZN3fmt2v614to_string_viewIcTnNSt9enable_ifIXsr7is_charIT_EE5valueEiE4typeELi0EEENS0_17basic_string_viewIS3_EEPKS3_ = comdat any

$_ZN3fmt2v68internal17make_args_checkedIJRiEA32_ccEENS0_16format_arg_storeINS0_20basic_format_contextISt20back_insert_iteratorINS1_6bufferIT1_EEES9_EEJDpNSt16remove_referenceIT_E4typeEEEERKT0_DpRKSG_ = comdat any

$_ZN3fmt2v617basic_format_argsINS0_20basic_format_contextISt20back_insert_iteratorINS0_8internal6bufferIcEEEcEEEC2IJiEEERKNS0_16format_arg_storeIS8_JDpT_EEE = comdat any

$_ZN3fmt2v619basic_memory_bufferIcLm500ESaIcEEC2ERKS2_ = comdat any

$_ZN3fmt2v68internal10vformat_toIcEENS0_20basic_format_contextISt20back_insert_iteratorINS1_6bufferIT_EEES6_E8iteratorERS7_NS0_17basic_string_viewIS6_EENS0_17basic_format_argsIS9_EE = comdat any

$_ZN3fmt2v69to_stringIcLm500EEENSt7__cxx1112basic_stringIT_St11char_traitsIS4_ESaIS4_EEERKNS0_19basic_memory_bufferIS4_XT0_ES7_EE = comdat any

$_ZN3fmt2v619basic_memory_bufferIcLm500ESaIcEED2Ev = comdat any

$_ZN3fmt2v68internal6bufferIcEC2EPcmm = comdat any

$_ZN3fmt2v68internal6bufferIcE3setEPcm = comdat any

$_ZN3fmt2v619basic_memory_bufferIcLm500ESaIcEE4growEm = comdat any

$_ZN3fmt2v619basic_memory_bufferIcLm500ESaIcEED0Ev = comdat any

$_ZN3fmt2v68internal6bufferIcED2Ev = comdat any

$_ZN3fmt2v68internal6bufferIcED0Ev = comdat any

$_ZNK3fmt2v68internal6bufferIcE8capacityEv = comdat any

$_ZN3fmt2v68internal6bufferIcE4dataEv = comdat any

$_ZNSt16allocator_traitsISaIcEE8allocateERS0_m = comdat any

$_ZSt18uninitialized_copyIPcS0_ET0_T_S2_S1_ = comdat any

$_ZNK3fmt2v68internal6bufferIcE4sizeEv = comdat any

$_ZN3fmt2v68internal12make_checkedIcEEPT_S4_m = comdat any

$_ZNSt15__new_allocatorIcE8allocateEmPKv = comdat any

$_ZNKSt15__new_allocatorIcE11_M_max_sizeEv = comdat any

$_ZNSt20__uninitialized_copyILb1EE13__uninit_copyIPcS2_EET0_T_S4_S3_ = comdat any

$_ZSt4copyIPcS0_ET0_T_S2_S1_ = comdat any

$_ZSt13__copy_move_aILb0EPcS0_ET1_T0_S2_S1_ = comdat any

$_ZSt12__miter_baseIPcET_S1_ = comdat any

$_ZSt12__niter_wrapIPcET_RKS1_S1_ = comdat any

$_ZSt14__copy_move_a1ILb0EPcS0_ET1_T0_S2_S1_ = comdat any

$_ZSt12__niter_baseIPcET_S1_ = comdat any

$_ZSt14__copy_move_a2ILb0EPcS0_ET1_T0_S2_S1_ = comdat any

$_ZNSt11__copy_moveILb0ELb1ESt26random_access_iterator_tagE8__copy_mIcEEPT_PKS3_S6_S4_ = comdat any

$_ZN3fmt2v610vformat_toINS0_13arg_formatterINS0_12buffer_rangeIcEEEEcNS0_20basic_format_contextISt20back_insert_iteratorINS0_8internal6bufferIcEEEcEEEENT1_8iteratorENT_5rangeENS0_17basic_string_viewIT0_EENS0_17basic_format_argsISD_EENS8_10locale_refE = comdat any

$_ZN3fmt2v612buffer_rangeIcEC2ERNS0_8internal6bufferIcEE = comdat any

$_ZN3fmt2v614to_string_viewIcEENS0_17basic_string_viewIT_EES4_ = comdat any

$_ZN3fmt2v68internal10locale_refC2Ev = comdat any

$_ZN3fmt2v614format_handlerINS0_13arg_formatterINS0_12buffer_rangeIcEEEEcNS0_20basic_format_contextISt20back_insert_iteratorINS0_8internal6bufferIcEEEcEEEC2ES4_NS0_17basic_string_viewIcEENS0_17basic_format_argsISC_EENS8_10locale_refE = comdat any

$_ZN3fmt2v68internal19parse_format_stringILb0EcRNS0_14format_handlerINS0_13arg_formatterINS0_12buffer_rangeIcEEEEcNS0_20basic_format_contextISt20back_insert_iteratorINS1_6bufferIcEEEcEEEEEEvNS0_17basic_string_viewIT0_EEOT1_ = comdat any

$_ZN3fmt2v620basic_format_contextISt20back_insert_iteratorINS0_8internal6bufferIcEEEcE3outEv = comdat any

$_ZN3fmt2v614format_handlerINS0_13arg_formatterINS0_12buffer_rangeIcEEEEcNS0_20basic_format_contextISt20back_insert_iteratorINS0_8internal6bufferIcEEEcEEED2Ev = comdat any

$_ZN3fmt2v626basic_format_parse_contextIcNS0_8internal13error_handlerEEC2ENS0_17basic_string_viewIcEES3_ = comdat any

$_ZNK3fmt2v68internal12output_rangeISt20back_insert_iteratorINS1_6bufferIcEEEcE5beginEv = comdat any

$_ZN3fmt2v620basic_format_contextISt20back_insert_iteratorINS0_8internal6bufferIcEEEcEC2ES6_NS0_17basic_format_argsIS7_EENS3_10locale_refE = comdat any

$_ZN3fmt2v616basic_format_argINS0_20basic_format_contextISt20back_insert_iteratorINS0_8internal6bufferIcEEEcEEEC2Ev = comdat any

$_ZN3fmt2v620basic_format_contextISt20back_insert_iteratorINS0_8internal6bufferIcEEEcED2Ev = comdat any

$_ZN3fmt2v68internal7arg_mapINS0_20basic_format_contextISt20back_insert_iteratorINS1_6bufferIcEEEcEEEC2Ev = comdat any

$_ZN3fmt2v68internal5valueINS0_20basic_format_contextISt20back_insert_iteratorINS1_6bufferIcEEEcEEEC2Ei = comdat any

$_ZN3fmt2v68internal7arg_mapINS0_20basic_format_contextISt20back_insert_iteratorINS1_6bufferIcEEEcEEED2Ev = comdat any

$_ZNK3fmt2v617basic_string_viewIcE4dataEv = comdat any

$_ZNK3fmt2v617basic_string_viewIcE4sizeEv = comdat any

$_ZN3fmt2v68internal4findILb0EcPKcEEbT1_S5_T0_RS5_ = comdat any

$_ZZN3fmt2v68internal19parse_format_stringILb0EcRNS0_14format_handlerINS0_13arg_formatterINS0_12buffer_rangeIcEEEEcNS0_20basic_format_contextISt20back_insert_iteratorINS1_6bufferIcEEEcEEEEEEvNS0_17basic_string_viewIT0_EEOT1_EN10pfs_writerclEPKcSN_ = comdat any

$_ZN3fmt2v614format_handlerINS0_13arg_formatterINS0_12buffer_rangeIcEEEEcNS0_20basic_format_contextISt20back_insert_iteratorINS0_8internal6bufferIcEEEcEEE9on_arg_idEv = comdat any

$_ZN3fmt2v614format_handlerINS0_13arg_formatterINS0_12buffer_rangeIcEEEEcNS0_20basic_format_contextISt20back_insert_iteratorINS0_8internal6bufferIcEEEcEEE20on_replacement_fieldEPKc = comdat any

$_ZN3fmt2v614format_handlerINS0_13arg_formatterINS0_12buffer_rangeIcEEEEcNS0_20basic_format_contextISt20back_insert_iteratorINS0_8internal6bufferIcEEEcEEE7on_textEPKcSF_ = comdat any

$_ZN3fmt2v68internal12parse_arg_idIcNS1_10id_adapterIRNS0_14format_handlerINS0_13arg_formatterINS0_12buffer_rangeIcEEEEcNS0_20basic_format_contextISt20back_insert_iteratorINS1_6bufferIcEEEcEEEEcEEEEPKT_SK_SK_OT0_ = comdat any

$_ZN3fmt2v614format_handlerINS0_13arg_formatterINS0_12buffer_rangeIcEEEEcNS0_20basic_format_contextISt20back_insert_iteratorINS0_8internal6bufferIcEEEcEEE15on_format_specsEPKcSF_ = comdat any

$_ZN3fmt2v68internal11to_unsignedIlEENSt13make_unsignedIT_E4typeES4_ = comdat any

$_ZN3fmt2v614format_handlerINS0_13arg_formatterINS0_12buffer_rangeIcEEEEcNS0_20basic_format_contextISt20back_insert_iteratorINS0_8internal6bufferIcEEEcEEE7get_argEi = comdat any

$_ZN3fmt2v626basic_format_parse_contextIcNS0_8internal13error_handlerEE11next_arg_idEv = comdat any

$_ZN3fmt2v68internal7get_argINS0_20basic_format_contextISt20back_insert_iteratorINS1_6bufferIcEEEcEEEENT_10format_argERS9_i = comdat any

$_ZNK3fmt2v620basic_format_contextISt20back_insert_iteratorINS0_8internal6bufferIcEEEcE3argEi = comdat any

$_ZNK3fmt2v616basic_format_argINS0_20basic_format_contextISt20back_insert_iteratorINS0_8internal6bufferIcEEEcEEEcvbEv = comdat any

$_ZN3fmt2v620basic_format_contextISt20back_insert_iteratorINS0_8internal6bufferIcEEEcE8on_errorEPKc = comdat any

$_ZNK3fmt2v617basic_format_argsINS0_20basic_format_contextISt20back_insert_iteratorINS0_8internal6bufferIcEEEcEEE3getEi = comdat any

$_ZNK3fmt2v617basic_format_argsINS0_20basic_format_contextISt20back_insert_iteratorINS0_8internal6bufferIcEEEcEEE6do_getEi = comdat any

$_ZNK3fmt2v68internal14named_arg_baseIcE11deserializeINS0_20basic_format_contextISt20back_insert_iteratorINS1_6bufferIcEEEcEEEENS0_16basic_format_argIT_EEv = comdat any

$_ZNK3fmt2v617basic_format_argsINS0_20basic_format_contextISt20back_insert_iteratorINS0_8internal6bufferIcEEEcEEE9is_packedEv = comdat any

$_ZNK3fmt2v617basic_format_argsINS0_20basic_format_contextISt20back_insert_iteratorINS0_8internal6bufferIcEEEcEEE8max_sizeEv = comdat any

$_ZNK3fmt2v617basic_format_argsINS0_20basic_format_contextISt20back_insert_iteratorINS0_8internal6bufferIcEEEcEEE4typeEi = comdat any

$_ZN3fmt2v620basic_format_contextISt20back_insert_iteratorINS0_8internal6bufferIcEEEcE13error_handlerEv = comdat any

$_ZN3fmt2v626basic_format_parse_contextIcNS0_8internal13error_handlerEE8on_errorEPKc = comdat any

$_ZN3fmt2v610advance_toIcNS0_8internal13error_handlerEEEvRNS0_26basic_format_parse_contextIT_T0_EEPKS5_ = comdat any

$_ZN3fmt2v620basic_format_contextISt20back_insert_iteratorINS0_8internal6bufferIcEEEcE10advance_toES6_ = comdat any

$_ZN3fmt2v616visit_format_argINS0_13arg_formatterINS0_12buffer_rangeIcEEEENS0_20basic_format_contextISt20back_insert_iteratorINS0_8internal6bufferIcEEEcEEEEDTclfp_Li0EEEOT_RKNS0_16basic_format_argIT0_EE = comdat any

$_ZN3fmt2v613arg_formatterINS0_12buffer_rangeIcEEEC2ERNS0_20basic_format_contextISt20back_insert_iteratorINS0_8internal6bufferIcEEEcEEPNS0_26basic_format_parse_contextIcNS7_13error_handlerEEEPNS0_18basic_format_specsIcEE = comdat any

$_ZN3fmt2v626basic_format_parse_contextIcNS0_8internal13error_handlerEE10advance_toEPKc = comdat any

$_ZNK3fmt2v626basic_format_parse_contextIcNS0_8internal13error_handlerEE5beginEv = comdat any

$_ZN3fmt2v617basic_string_viewIcE13remove_prefixEm = comdat any

$_ZNK3fmt2v617basic_string_viewIcE5beginEv = comdat any

$_ZN3fmt2v68internal18arg_formatter_baseINS0_12buffer_rangeIcEENS1_13error_handlerEEclIiTnNSt9enable_ifIXsr11is_integralIT_EE5valueEiE4typeELi0EEESt20back_insert_iteratorINS1_6bufferIcEEES9_ = comdat any

$_ZN3fmt2v68internal18arg_formatter_baseINS0_12buffer_rangeIcEENS1_13error_handlerEEclIjTnNSt9enable_ifIXsr11is_integralIT_EE5valueEiE4typeELi0EEESt20back_insert_iteratorINS1_6bufferIcEEES9_ = comdat any

$_ZN3fmt2v68internal18arg_formatter_baseINS0_12buffer_rangeIcEENS1_13error_handlerEEclIxTnNSt9enable_ifIXsr11is_integralIT_EE5valueEiE4typeELi0EEESt20back_insert_iteratorINS1_6bufferIcEEES9_ = comdat any

$_ZN3fmt2v68internal18arg_formatter_baseINS0_12buffer_rangeIcEENS1_13error_handlerEEclIyTnNSt9enable_ifIXsr11is_integralIT_EE5valueEiE4typeELi0EEESt20back_insert_iteratorINS1_6bufferIcEEES9_ = comdat any

$_ZN3fmt2v68internal18arg_formatter_baseINS0_12buffer_rangeIcEENS1_13error_handlerEEclInTnNSt9enable_ifIXsr11is_integralIT_EE5valueEiE4typeELi0EEESt20back_insert_iteratorINS1_6bufferIcEEES9_ = comdat any

$_ZN3fmt2v68internal18arg_formatter_baseINS0_12buffer_rangeIcEENS1_13error_handlerEEclIoTnNSt9enable_ifIXsr11is_integralIT_EE5valueEiE4typeELi0EEESt20back_insert_iteratorINS1_6bufferIcEEES9_ = comdat any

$_ZN3fmt2v68internal18arg_formatter_baseINS0_12buffer_rangeIcEENS1_13error_handlerEEclEb = comdat any

$_ZN3fmt2v68internal18arg_formatter_baseINS0_12buffer_rangeIcEENS1_13error_handlerEEclEc = comdat any

$_ZN3fmt2v68internal18arg_formatter_baseINS0_12buffer_rangeIcEENS1_13error_handlerEEclIfTnNSt9enable_ifIXsr3std17is_floating_pointIT_EE5valueEiE4typeELi0EEESt20back_insert_iteratorINS1_6bufferIcEEES9_ = comdat any

$_ZN3fmt2v68internal18arg_formatter_baseINS0_12buffer_rangeIcEENS1_13error_handlerEEclIdTnNSt9enable_ifIXsr3std17is_floating_pointIT_EE5valueEiE4typeELi0EEESt20back_insert_iteratorINS1_6bufferIcEEES9_ = comdat any

$_ZN3fmt2v68internal18arg_formatter_baseINS0_12buffer_rangeIcEENS1_13error_handlerEEclIeTnNSt9enable_ifIXsr3std17is_floating_pointIT_EE5valueEiE4typeELi0EEESt20back_insert_iteratorINS1_6bufferIcEEES9_ = comdat any

$_ZN3fmt2v68internal18arg_formatter_baseINS0_12buffer_rangeIcEENS1_13error_handlerEEclEPKc = comdat any

$_ZN3fmt2v68internal18arg_formatter_baseINS0_12buffer_rangeIcEENS1_13error_handlerEEclENS0_17basic_string_viewIcEE = comdat any

$_ZN3fmt2v617basic_string_viewIcEC2EPKcm = comdat any

$_ZN3fmt2v68internal18arg_formatter_baseINS0_12buffer_rangeIcEENS1_13error_handlerEEclEPKv = comdat any

$_ZN3fmt2v613arg_formatterINS0_12buffer_rangeIcEEEclENS0_16basic_format_argINS0_20basic_format_contextISt20back_insert_iteratorINS0_8internal6bufferIcEEEcEEE6handleE = comdat any

$_ZN3fmt2v616basic_format_argINS0_20basic_format_contextISt20back_insert_iteratorINS0_8internal6bufferIcEEEcEEE6handleC2ENS4_12custom_valueIS8_EE = comdat any

$_ZN3fmt2v68internal18arg_formatter_baseINS0_12buffer_rangeIcEENS1_13error_handlerEEclENS0_9monostateE = comdat any

$_ZN3fmt2v68internal12basic_writerINS0_12buffer_rangeIcEEE9write_intIiNS0_18basic_format_specsIcEEEEvT_RKT0_ = comdat any

$_ZN3fmt2v68internal12basic_writerINS0_12buffer_rangeIcEEE5writeEi = comdat any

$_ZN3fmt2v68internal18arg_formatter_baseINS0_12buffer_rangeIcEENS1_13error_handlerEE3outEv = comdat any

$_ZN3fmt2v68internal20handle_int_type_specINS1_12basic_writerINS0_12buffer_rangeIcEEE10int_writerIiNS0_18basic_format_specsIcEEEEEEvcOT_ = comdat any

$_ZN3fmt2v68internal12basic_writerINS0_12buffer_rangeIcEEE10int_writerIiNS0_18basic_format_specsIcEEEC2ERS5_iRKS8_ = comdat any

$_ZN3fmt2v68internal12basic_writerINS0_12buffer_rangeIcEEE10int_writerIiNS0_18basic_format_specsIcEEE6on_decEv = comdat any

$_ZN3fmt2v68internal12basic_writerINS0_12buffer_rangeIcEEE10int_writerIiNS0_18basic_format_specsIcEEE6on_hexEv = comdat any

$_ZN3fmt2v68internal12basic_writerINS0_12buffer_rangeIcEEE10int_writerIiNS0_18basic_format_specsIcEEE6on_binEv = comdat any

$_ZN3fmt2v68internal12basic_writerINS0_12buffer_rangeIcEEE10int_writerIiNS0_18basic_format_specsIcEEE6on_octEv = comdat any

$_ZN3fmt2v68internal12basic_writerINS0_12buffer_rangeIcEEE10int_writerIiNS0_18basic_format_specsIcEEE6on_numEv = comdat any

$_ZN3fmt2v68internal12basic_writerINS0_12buffer_rangeIcEEE10int_writerIiNS0_18basic_format_specsIcEEE8on_errorEv = comdat any

$_ZN3fmt2v68internal12count_digitsEj = comdat any

$_ZN3fmt2v68internal12basic_writerINS0_12buffer_rangeIcEEE9write_intINS5_10int_writerIiNS0_18basic_format_specsIcEEE10dec_writerEEEviNS0_17basic_string_viewIcEES9_T_ = comdat any

$_ZNK3fmt2v68internal12basic_writerINS0_12buffer_rangeIcEEE10int_writerIiNS0_18basic_format_specsIcEEE10get_prefixEv = comdat any

$_ZN3fmt2v68internal11to_unsignedIiEENSt13make_unsignedIT_E4typeES4_ = comdat any

$_ZN3fmt2v68internal6fill_tIcEixEm = comdat any

$_ZN3fmt2v68internal12basic_writerINS0_12buffer_rangeIcEEE12write_paddedINS5_17padded_int_writerINS5_10int_writerIiNS0_18basic_format_specsIcEEE10dec_writerEEEEEvRKSA_OT_ = comdat any

$_ZNK3fmt2v68internal12basic_writerINS0_12buffer_rangeIcEEE17padded_int_writerINS5_10int_writerIiNS0_18basic_format_specsIcEEE10dec_writerEE4sizeEv = comdat any

$_ZNK3fmt2v68internal12basic_writerINS0_12buffer_rangeIcEEE17padded_int_writerINS5_10int_writerIiNS0_18basic_format_specsIcEEE10dec_writerEE5widthEv = comdat any

$_ZNK3fmt2v68internal12basic_writerINS0_12buffer_rangeIcEEE17padded_int_writerINS5_10int_writerIiNS0_18basic_format_specsIcEEE10dec_writerEEclIPcEEvOT_ = comdat any

$_ZN3fmt2v68internal12basic_writerINS0_12buffer_rangeIcEEE7reserveEm = comdat any

$_ZNK3fmt2v68internal6fill_tIcEixEm = comdat any

$_ZSt6fill_nIPcmcET_S1_T0_RKT1_ = comdat any

$_ZNK3fmt2v68internal12basic_writerINS0_12buffer_rangeIcEEE17padded_int_writerINS5_10int_writerIiNS0_18basic_format_specsIcEEE10dec_writerEEclIRPcEEvOT_ = comdat any

$_ZN3fmt2v68internal8copy_strIcPKcPcTnNSt9enable_ifIXntsr16needs_conversionIT0_T_EE5valueEiE4typeELi0EEET1_S7_S7_SB_ = comdat any

$_ZNK3fmt2v617basic_string_viewIcE3endEv = comdat any

$_ZNK3fmt2v68internal12basic_writerINS0_12buffer_rangeIcEEE10int_writerIiNS0_18basic_format_specsIcEEE10dec_writerclIRPcEEvOT_ = comdat any

$_ZSt4copyIPKcPcET0_T_S4_S3_ = comdat any

$_ZSt13__copy_move_aILb0EPKcPcET1_T0_S4_S3_ = comdat any

$_ZSt12__miter_baseIPKcET_S2_ = comdat any

$_ZSt14__copy_move_a1ILb0EPKcPcET1_T0_S4_S3_ = comdat any

$_ZSt12__niter_baseIPKcET_S2_ = comdat any

$_ZSt14__copy_move_a2ILb0EPKcPcET1_T0_S4_S3_ = comdat any

$_ZN3fmt2v68internal14format_decimalIcPcjEET0_S4_T1_i = comdat any

$_ZN3fmt2v68internal14format_decimalIcjPcZNS1_14format_decimalIcS3_jEET0_S5_T1_iEUlS3_E_EES6_S6_S5_iT2_ = comdat any

$_ZN3fmt2v68internal14format_decimalIjcZNS1_14format_decimalIcPcjEET0_S5_T1_iEUlS4_E_EEPS5_S8_T_iS6_ = comdat any

$_ZN3fmt2v68internal8copy_strIcPcS3_TnNSt9enable_ifIXntsr16needs_conversionIT0_T_EE5valueEiE4typeELi0EEET1_S5_S5_S9_ = comdat any

$_ZZN3fmt2v68internal14format_decimalIcPcjEET0_S4_T1_iENKUlS3_E_clES3_ = comdat any

$_ZN3fmt2v68internal7reserveINS1_6bufferIcEETnNSt9enable_ifIXsr13is_contiguousIT_EE5valueEiE4typeELi0EEEPNS6_10value_typeERSt20back_insert_iteratorIS6_Em = comdat any

$_ZN3fmt2v68internal13get_containerINS1_6bufferIcEEEERT_St20back_insert_iteratorIS5_E = comdat any

$_ZN3fmt2v68internal6bufferIcE6resizeEm = comdat any

$_ZN3fmt2v68internal8get_dataINS1_6bufferIcEEEEPNT_10value_typeERS5_ = comdat any

$_ZZN3fmt2v68internal13get_containerINS1_6bufferIcEEEERT_St20back_insert_iteratorIS5_EEN8accessorC2ES7_IS4_E = comdat any

$_ZN3fmt2v68internal6bufferIcE7reserveEm = comdat any

$_ZSt10__fill_n_aIPcmcET_S1_T0_RKT1_St26random_access_iterator_tag = comdat any

$_ZSt17__size_to_integerm = comdat any

$_ZSt19__iterator_categoryIPcENSt15iterator_traitsIT_E17iterator_categoryERKS2_ = comdat any

$_ZSt8__fill_aIPccEvT_S1_RKT0_ = comdat any

$_ZSt9__fill_a1IcEN9__gnu_cxx11__enable_ifIXsr9__is_byteIT_EE7__valueEvE6__typeEPS2_S5_RKS2_ = comdat any

$_ZN3fmt2v68internal12count_digitsILj4EjEEiT0_ = comdat any

$_ZN3fmt2v68internal12basic_writerINS0_12buffer_rangeIcEEE9write_intINS5_10int_writerIiNS0_18basic_format_specsIcEEE10hex_writerEEEviNS0_17basic_string_viewIcEES9_T_ = comdat any

$_ZN3fmt2v68internal12basic_writerINS0_12buffer_rangeIcEEE12write_paddedINS5_17padded_int_writerINS5_10int_writerIiNS0_18basic_format_specsIcEEE10hex_writerEEEEEvRKSA_OT_ = comdat any

$_ZNK3fmt2v68internal12basic_writerINS0_12buffer_rangeIcEEE17padded_int_writerINS5_10int_writerIiNS0_18basic_format_specsIcEEE10hex_writerEE4sizeEv = comdat any

$_ZNK3fmt2v68internal12basic_writerINS0_12buffer_rangeIcEEE17padded_int_writerINS5_10int_writerIiNS0_18basic_format_specsIcEEE10hex_writerEE5widthEv = comdat any

$_ZNK3fmt2v68internal12basic_writerINS0_12buffer_rangeIcEEE17padded_int_writerINS5_10int_writerIiNS0_18basic_format_specsIcEEE10hex_writerEEclIPcEEvOT_ = comdat any

$_ZNK3fmt2v68internal12basic_writerINS0_12buffer_rangeIcEEE17padded_int_writerINS5_10int_writerIiNS0_18basic_format_specsIcEEE10hex_writerEEclIRPcEEvOT_ = comdat any

$_ZNK3fmt2v68internal12basic_writerINS0_12buffer_rangeIcEEE10int_writerIiNS0_18basic_format_specsIcEEE10hex_writerclIRPcEEvOT_ = comdat any

$_ZN3fmt2v68internal11format_uintILj4EcjEEPT0_S4_T1_ib = comdat any

$_ZN3fmt2v68internal12count_digitsILj1EjEEiT0_ = comdat any

$_ZN3fmt2v68internal12basic_writerINS0_12buffer_rangeIcEEE9write_intINS5_10int_writerIiNS0_18basic_format_specsIcEEE10bin_writerILi1EEEEEviNS0_17basic_string_viewIcEES9_T_ = comdat any

$_ZN3fmt2v68internal12basic_writerINS0_12buffer_rangeIcEEE12write_paddedINS5_17padded_int_writerINS5_10int_writerIiNS0_18basic_format_specsIcEEE10bin_writerILi1EEEEEEEvRKSA_OT_ = comdat any

$_ZNK3fmt2v68internal12basic_writerINS0_12buffer_rangeIcEEE17padded_int_writerINS5_10int_writerIiNS0_18basic_format_specsIcEEE10bin_writerILi1EEEE4sizeEv = comdat any

$_ZNK3fmt2v68internal12basic_writerINS0_12buffer_rangeIcEEE17padded_int_writerINS5_10int_writerIiNS0_18basic_format_specsIcEEE10bin_writerILi1EEEE5widthEv = comdat any

$_ZNK3fmt2v68internal12basic_writerINS0_12buffer_rangeIcEEE17padded_int_writerINS5_10int_writerIiNS0_18basic_format_specsIcEEE10bin_writerILi1EEEEclIPcEEvOT_ = comdat any

$_ZNK3fmt2v68internal12basic_writerINS0_12buffer_rangeIcEEE17padded_int_writerINS5_10int_writerIiNS0_18basic_format_specsIcEEE10bin_writerILi1EEEEclIRPcEEvOT_ = comdat any

$_ZNK3fmt2v68internal12basic_writerINS0_12buffer_rangeIcEEE10int_writerIiNS0_18basic_format_specsIcEEE10bin_writerILi1EEclIRPcEEvOT_ = comdat any

$_ZN3fmt2v68internal11format_uintILj1EcjEEPT0_S4_T1_ib = comdat any

$_ZN3fmt2v68internal12count_digitsILj3EjEEiT0_ = comdat any

$_ZN3fmt2v68internal12basic_writerINS0_12buffer_rangeIcEEE9write_intINS5_10int_writerIiNS0_18basic_format_specsIcEEE10bin_writerILi3EEEEEviNS0_17basic_string_viewIcEES9_T_ = comdat any

$_ZN3fmt2v68internal12basic_writerINS0_12buffer_rangeIcEEE12write_paddedINS5_17padded_int_writerINS5_10int_writerIiNS0_18basic_format_specsIcEEE10bin_writerILi3EEEEEEEvRKSA_OT_ = comdat any

$_ZNK3fmt2v68internal12basic_writerINS0_12buffer_rangeIcEEE17padded_int_writerINS5_10int_writerIiNS0_18basic_format_specsIcEEE10bin_writerILi3EEEE4sizeEv = comdat any

$_ZNK3fmt2v68internal12basic_writerINS0_12buffer_rangeIcEEE17padded_int_writerINS5_10int_writerIiNS0_18basic_format_specsIcEEE10bin_writerILi3EEEE5widthEv = comdat any

$_ZNK3fmt2v68internal12basic_writerINS0_12buffer_rangeIcEEE17padded_int_writerINS5_10int_writerIiNS0_18basic_format_specsIcEEE10bin_writerILi3EEEEclIPcEEvOT_ = comdat any

$_ZNK3fmt2v68internal12basic_writerINS0_12buffer_rangeIcEEE17padded_int_writerINS5_10int_writerIiNS0_18basic_format_specsIcEEE10bin_writerILi3EEEEclIRPcEEvOT_ = comdat any

$_ZNK3fmt2v68internal12basic_writerINS0_12buffer_rangeIcEEE10int_writerIiNS0_18basic_format_specsIcEEE10bin_writerILi3EEclIRPcEEvOT_ = comdat any

$_ZN3fmt2v68internal11format_uintILj3EcjEEPT0_S4_T1_ib = comdat any

$_ZN3fmt2v68internal8groupingIcEENSt7__cxx1112basic_stringIcSt11char_traitsIcESaIcEEENS1_10locale_refE = comdat any

$_ZN3fmt2v68internal13thousands_sepIcEET_NS1_10locale_refE = comdat any

$_ZN9__gnu_cxxneIPKcNSt7__cxx1112basic_stringIcSt11char_traitsIcESaIcEEEEEbRKNS_17__normal_iteratorIT_T0_EESE_ = comdat any

$_ZNK9__gnu_cxx17__normal_iteratorIPKcNSt7__cxx1112basic_stringIcSt11char_traitsIcESaIcEEEEdeEv = comdat any

$_ZN3fmt2v68internal9max_valueIcEET_v = comdat any

$_ZN9__gnu_cxx17__normal_iteratorIPKcNSt7__cxx1112basic_stringIcSt11char_traitsIcESaIcEEEEppEv = comdat any

$_ZN9__gnu_cxxeqIPKcNSt7__cxx1112basic_stringIcSt11char_traitsIcESaIcEEEEEbRKNS_17__normal_iteratorIT_T0_EESE_ = comdat any

$_ZN3fmt2v68internal12basic_writerINS0_12buffer_rangeIcEEE9write_intINS5_10int_writerIiNS0_18basic_format_specsIcEEE10num_writerEEEviNS0_17basic_string_viewIcEES9_T_ = comdat any

$_ZN9__gnu_cxx17__normal_iteratorIPKcNSt7__cxx1112basic_stringIcSt11char_traitsIcESaIcEEEEC2ERKS2_ = comdat any

$_ZNK9__gnu_cxx17__normal_iteratorIPKcNSt7__cxx1112basic_stringIcSt11char_traitsIcESaIcEEEE4baseEv = comdat any

$_ZNSt14numeric_limitsIcE3maxEv = comdat any

$_ZN3fmt2v68internal12basic_writerINS0_12buffer_rangeIcEEE12write_paddedINS5_17padded_int_writerINS5_10int_writerIiNS0_18basic_format_specsIcEEE10num_writerEEEEEvRKSA_OT_ = comdat any

$_ZNK3fmt2v68internal12basic_writerINS0_12buffer_rangeIcEEE17padded_int_writerINS5_10int_writerIiNS0_18basic_format_specsIcEEE10num_writerEE4sizeEv = comdat any

$_ZNK3fmt2v68internal12basic_writerINS0_12buffer_rangeIcEEE17padded_int_writerINS5_10int_writerIiNS0_18basic_format_specsIcEEE10num_writerEE5widthEv = comdat any

$_ZNK3fmt2v68internal12basic_writerINS0_12buffer_rangeIcEEE17padded_int_writerINS5_10int_writerIiNS0_18basic_format_specsIcEEE10num_writerEEclIPcEEvOT_ = comdat any

$_ZNK3fmt2v68internal12basic_writerINS0_12buffer_rangeIcEEE17padded_int_writerINS5_10int_writerIiNS0_18basic_format_specsIcEEE10num_writerEEclIRPcEEvOT_ = comdat any

$_ZNK3fmt2v68internal12basic_writerINS0_12buffer_rangeIcEEE10int_writerIiNS0_18basic_format_specsIcEEE10num_writerclIRPcEEvOT_ = comdat any

$_ZN3fmt2v68internal14format_decimalIcjPcZNKS1_12basic_writerINS0_12buffer_rangeIcEEE10int_writerIiNS0_18basic_format_specsIcEEE10num_writerclIRS3_EEvOT_EUlSE_E_EET1_SI_T0_iT2_ = comdat any

$_ZN3fmt2v68internal14format_decimalIjcZNKS1_12basic_writerINS0_12buffer_rangeIcEEE10int_writerIiNS0_18basic_format_specsIcEEE10num_writerclIRPcEEvOT_EUlSE_E_EEPT0_SJ_SF_iT1_ = comdat any

$_ZZNK3fmt2v68internal12basic_writerINS0_12buffer_rangeIcEEE10int_writerIiNS0_18basic_format_specsIcEEE10num_writerclIRPcEEvOT_ENKUlSD_E_clESD_ = comdat any

$_ZNK9__gnu_cxx17__normal_iteratorIPKcNSt7__cxx1112basic_stringIcSt11char_traitsIcESaIcEEEEplEl = comdat any

$_ZSt18uninitialized_copyIPKcPcET0_T_S4_S3_ = comdat any

$_ZNSt20__uninitialized_copyILb1EE13__uninit_copyIPKcPcEET0_T_S6_S5_ = comdat any

$_ZN3fmt2v612format_errorC2EPKc = comdat any

$_ZN3fmt2v68internal11is_negativeIiTnNSt9enable_ifIXsr3std14numeric_limitsIT_EE9is_signedEiE4typeELi0EEEbS4_ = comdat any

$_ZN3fmt2v68internal12basic_writerINS0_12buffer_rangeIcEEE13write_decimalIiEEvT_ = comdat any

$_ZNK3fmt2v68internal12basic_writerINS0_12buffer_rangeIcEEE3outEv = comdat any

$_ZN3fmt2v68internal12basic_writerINS0_12buffer_rangeIcEEE9write_intIjNS0_18basic_format_specsIcEEEEvT_RKT0_ = comdat any

$_ZN3fmt2v68internal12basic_writerINS0_12buffer_rangeIcEEE5writeEj = comdat any

$_ZN3fmt2v68internal20handle_int_type_specINS1_12basic_writerINS0_12buffer_rangeIcEEE10int_writerIjNS0_18basic_format_specsIcEEEEEEvcOT_ = comdat any

$_ZN3fmt2v68internal12basic_writerINS0_12buffer_rangeIcEEE10int_writerIjNS0_18basic_format_specsIcEEEC2ERS5_jRKS8_ = comdat any

$_ZN3fmt2v68internal12basic_writerINS0_12buffer_rangeIcEEE10int_writerIjNS0_18basic_format_specsIcEEE6on_decEv = comdat any

$_ZN3fmt2v68internal12basic_writerINS0_12buffer_rangeIcEEE10int_writerIjNS0_18basic_format_specsIcEEE6on_hexEv = comdat any

$_ZN3fmt2v68internal12basic_writerINS0_12buffer_rangeIcEEE10int_writerIjNS0_18basic_format_specsIcEEE6on_binEv = comdat any

$_ZN3fmt2v68internal12basic_writerINS0_12buffer_rangeIcEEE10int_writerIjNS0_18basic_format_specsIcEEE6on_octEv = comdat any

$_ZN3fmt2v68internal12basic_writerINS0_12buffer_rangeIcEEE10int_writerIjNS0_18basic_format_specsIcEEE6on_numEv = comdat any

$_ZN3fmt2v68internal12basic_writerINS0_12buffer_rangeIcEEE10int_writerIjNS0_18basic_format_specsIcEEE8on_errorEv = comdat any

$_ZN3fmt2v68internal12basic_writerINS0_12buffer_rangeIcEEE9write_intINS5_10int_writerIjNS0_18basic_format_specsIcEEE10dec_writerEEEviNS0_17basic_string_viewIcEES9_T_ = comdat any

$_ZNK3fmt2v68internal12basic_writerINS0_12buffer_rangeIcEEE10int_writerIjNS0_18basic_format_specsIcEEE10get_prefixEv = comdat any

$_ZN3fmt2v68internal12basic_writerINS0_12buffer_rangeIcEEE12write_paddedINS5_17padded_int_writerINS5_10int_writerIjNS0_18basic_format_specsIcEEE10dec_writerEEEEEvRKSA_OT_ = comdat any

$_ZNK3fmt2v68internal12basic_writerINS0_12buffer_rangeIcEEE17padded_int_writerINS5_10int_writerIjNS0_18basic_format_specsIcEEE10dec_writerEE4sizeEv = comdat any

$_ZNK3fmt2v68internal12basic_writerINS0_12buffer_rangeIcEEE17padded_int_writerINS5_10int_writerIjNS0_18basic_format_specsIcEEE10dec_writerEE5widthEv = comdat any

$_ZNK3fmt2v68internal12basic_writerINS0_12buffer_rangeIcEEE17padded_int_writerINS5_10int_writerIjNS0_18basic_format_specsIcEEE10dec_writerEEclIPcEEvOT_ = comdat any

$_ZNK3fmt2v68internal12basic_writerINS0_12buffer_rangeIcEEE17padded_int_writerINS5_10int_writerIjNS0_18basic_format_specsIcEEE10dec_writerEEclIRPcEEvOT_ = comdat any

$_ZNK3fmt2v68internal12basic_writerINS0_12buffer_rangeIcEEE10int_writerIjNS0_18basic_format_specsIcEEE10dec_writerclIRPcEEvOT_ = comdat any

$_ZN3fmt2v68internal12basic_writerINS0_12buffer_rangeIcEEE9write_intINS5_10int_writerIjNS0_18basic_format_specsIcEEE10hex_writerEEEviNS0_17basic_string_viewIcEES9_T_ = comdat any

$_ZN3fmt2v68internal12basic_writerINS0_12buffer_rangeIcEEE12write_paddedINS5_17padded_int_writerINS5_10int_writerIjNS0_18basic_format_specsIcEEE10hex_writerEEEEEvRKSA_OT_ = comdat any

$_ZNK3fmt2v68internal12basic_writerINS0_12buffer_rangeIcEEE17padded_int_writerINS5_10int_writerIjNS0_18basic_format_specsIcEEE10hex_writerEE4sizeEv = comdat any

$_ZNK3fmt2v68internal12basic_writerINS0_12buffer_rangeIcEEE17padded_int_writerINS5_10int_writerIjNS0_18basic_format_specsIcEEE10hex_writerEE5widthEv = comdat any

$_ZNK3fmt2v68internal12basic_writerINS0_12buffer_rangeIcEEE17padded_int_writerINS5_10int_writerIjNS0_18basic_format_specsIcEEE10hex_writerEEclIPcEEvOT_ = comdat any

$_ZNK3fmt2v68internal12basic_writerINS0_12buffer_rangeIcEEE17padded_int_writerINS5_10int_writerIjNS0_18basic_format_specsIcEEE10hex_writerEEclIRPcEEvOT_ = comdat any

$_ZNK3fmt2v68internal12basic_writerINS0_12buffer_rangeIcEEE10int_writerIjNS0_18basic_format_specsIcEEE10hex_writerclIRPcEEvOT_ = comdat any

$_ZN3fmt2v68internal12basic_writerINS0_12buffer_rangeIcEEE9write_intINS5_10int_writerIjNS0_18basic_format_specsIcEEE10bin_writerILi1EEEEEviNS0_17basic_string_viewIcEES9_T_ = comdat any

$_ZN3fmt2v68internal12basic_writerINS0_12buffer_rangeIcEEE12write_paddedINS5_17padded_int_writerINS5_10int_writerIjNS0_18basic_format_specsIcEEE10bin_writerILi1EEEEEEEvRKSA_OT_ = comdat any

$_ZNK3fmt2v68internal12basic_writerINS0_12buffer_rangeIcEEE17padded_int_writerINS5_10int_writerIjNS0_18basic_format_specsIcEEE10bin_writerILi1EEEE4sizeEv = comdat any

$_ZNK3fmt2v68internal12basic_writerINS0_12buffer_rangeIcEEE17padded_int_writerINS5_10int_writerIjNS0_18basic_format_specsIcEEE10bin_writerILi1EEEE5widthEv = comdat any

$_ZNK3fmt2v68internal12basic_writerINS0_12buffer_rangeIcEEE17padded_int_writerINS5_10int_writerIjNS0_18basic_format_specsIcEEE10bin_writerILi1EEEEclIPcEEvOT_ = comdat any

$_ZNK3fmt2v68internal12basic_writerINS0_12buffer_rangeIcEEE17padded_int_writerINS5_10int_writerIjNS0_18basic_format_specsIcEEE10bin_writerILi1EEEEclIRPcEEvOT_ = comdat any

$_ZNK3fmt2v68internal12basic_writerINS0_12buffer_rangeIcEEE10int_writerIjNS0_18basic_format_specsIcEEE10bin_writerILi1EEclIRPcEEvOT_ = comdat any

$_ZN3fmt2v68internal12basic_writerINS0_12buffer_rangeIcEEE9write_intINS5_10int_writerIjNS0_18basic_format_specsIcEEE10bin_writerILi3EEEEEviNS0_17basic_string_viewIcEES9_T_ = comdat any

$_ZN3fmt2v68internal12basic_writerINS0_12buffer_rangeIcEEE12write_paddedINS5_17padded_int_writerINS5_10int_writerIjNS0_18basic_format_specsIcEEE10bin_writerILi3EEEEEEEvRKSA_OT_ = comdat any

$_ZNK3fmt2v68internal12basic_writerINS0_12buffer_rangeIcEEE17padded_int_writerINS5_10int_writerIjNS0_18basic_format_specsIcEEE10bin_writerILi3EEEE4sizeEv = comdat any

$_ZNK3fmt2v68internal12basic_writerINS0_12buffer_rangeIcEEE17padded_int_writerINS5_10int_writerIjNS0_18basic_format_specsIcEEE10bin_writerILi3EEEE5widthEv = comdat any

$_ZNK3fmt2v68internal12basic_writerINS0_12buffer_rangeIcEEE17padded_int_writerINS5_10int_writerIjNS0_18basic_format_specsIcEEE10bin_writerILi3EEEEclIPcEEvOT_ = comdat any

$_ZNK3fmt2v68internal12basic_writerINS0_12buffer_rangeIcEEE17padded_int_writerINS5_10int_writerIjNS0_18basic_format_specsIcEEE10bin_writerILi3EEEEclIRPcEEvOT_ = comdat any

$_ZNK3fmt2v68internal12basic_writerINS0_12buffer_rangeIcEEE10int_writerIjNS0_18basic_format_specsIcEEE10bin_writerILi3EEclIRPcEEvOT_ = comdat any

$_ZN3fmt2v68internal12basic_writerINS0_12buffer_rangeIcEEE9write_intINS5_10int_writerIjNS0_18basic_format_specsIcEEE10num_writerEEEviNS0_17basic_string_viewIcEES9_T_ = comdat any

$_ZN3fmt2v68internal12basic_writerINS0_12buffer_rangeIcEEE12write_paddedINS5_17padded_int_writerINS5_10int_writerIjNS0_18basic_format_specsIcEEE10num_writerEEEEEvRKSA_OT_ = comdat any

$_ZNK3fmt2v68internal12basic_writerINS0_12buffer_rangeIcEEE17padded_int_writerINS5_10int_writerIjNS0_18basic_format_specsIcEEE10num_writerEE4sizeEv = comdat any

$_ZNK3fmt2v68internal12basic_writerINS0_12buffer_rangeIcEEE17padded_int_writerINS5_10int_writerIjNS0_18basic_format_specsIcEEE10num_writerEE5widthEv = comdat any

$_ZNK3fmt2v68internal12basic_writerINS0_12buffer_rangeIcEEE17padded_int_writerINS5_10int_writerIjNS0_18basic_format_specsIcEEE10num_writerEEclIPcEEvOT_ = comdat any

$_ZNK3fmt2v68internal12basic_writerINS0_12buffer_rangeIcEEE17padded_int_writerINS5_10int_writerIjNS0_18basic_format_specsIcEEE10num_writerEEclIRPcEEvOT_ = comdat any

$_ZNK3fmt2v68internal12basic_writerINS0_12buffer_rangeIcEEE10int_writerIjNS0_18basic_format_specsIcEEE10num_writerclIRPcEEvOT_ = comdat any

$_ZN3fmt2v68internal14format_decimalIcjPcZNKS1_12basic_writerINS0_12buffer_rangeIcEEE10int_writerIjNS0_18basic_format_specsIcEEE10num_writerclIRS3_EEvOT_EUlSE_E_EET1_SI_T0_iT2_ = comdat any

$_ZN3fmt2v68internal14format_decimalIjcZNKS1_12basic_writerINS0_12buffer_rangeIcEEE10int_writerIjNS0_18basic_format_specsIcEEE10num_writerclIRPcEEvOT_EUlSE_E_EEPT0_SJ_SF_iT1_ = comdat any

$_ZZNK3fmt2v68internal12basic_writerINS0_12buffer_rangeIcEEE10int_writerIjNS0_18basic_format_specsIcEEE10num_writerclIRPcEEvOT_ENKUlSD_E_clESD_ = comdat any

$_ZN3fmt2v68internal11is_negativeIjTnNSt9enable_ifIXntsr3std14numeric_limitsIT_EE9is_signedEiE4typeELi0EEEbS4_ = comdat any

$_ZN3fmt2v68internal12basic_writerINS0_12buffer_rangeIcEEE13write_decimalIjEEvT_ = comdat any

$_ZN3fmt2v68internal12basic_writerINS0_12buffer_rangeIcEEE9write_intIxNS0_18basic_format_specsIcEEEEvT_RKT0_ = comdat any

$_ZN3fmt2v68internal12basic_writerINS0_12buffer_rangeIcEEE5writeEx = comdat any

$_ZN3fmt2v68internal20handle_int_type_specINS1_12basic_writerINS0_12buffer_rangeIcEEE10int_writerIxNS0_18basic_format_specsIcEEEEEEvcOT_ = comdat any

$_ZN3fmt2v68internal12basic_writerINS0_12buffer_rangeIcEEE10int_writerIxNS0_18basic_format_specsIcEEEC2ERS5_xRKS8_ = comdat any

$_ZN3fmt2v68internal12basic_writerINS0_12buffer_rangeIcEEE10int_writerIxNS0_18basic_format_specsIcEEE6on_decEv = comdat any

$_ZN3fmt2v68internal12basic_writerINS0_12buffer_rangeIcEEE10int_writerIxNS0_18basic_format_specsIcEEE6on_hexEv = comdat any

$_ZN3fmt2v68internal12basic_writerINS0_12buffer_rangeIcEEE10int_writerIxNS0_18basic_format_specsIcEEE6on_binEv = comdat any

$_ZN3fmt2v68internal12basic_writerINS0_12buffer_rangeIcEEE10int_writerIxNS0_18basic_format_specsIcEEE6on_octEv = comdat any

$_ZN3fmt2v68internal12basic_writerINS0_12buffer_rangeIcEEE10int_writerIxNS0_18basic_format_specsIcEEE6on_numEv = comdat any

$_ZN3fmt2v68internal12basic_writerINS0_12buffer_rangeIcEEE10int_writerIxNS0_18basic_format_specsIcEEE8on_errorEv = comdat any

$_ZN3fmt2v68internal12count_digitsEm = comdat any

$_ZN3fmt2v68internal12basic_writerINS0_12buffer_rangeIcEEE9write_intINS5_10int_writerIxNS0_18basic_format_specsIcEEE10dec_writerEEEviNS0_17basic_string_viewIcEES9_T_ = comdat any

$_ZNK3fmt2v68internal12basic_writerINS0_12buffer_rangeIcEEE10int_writerIxNS0_18basic_format_specsIcEEE10get_prefixEv = comdat any

$_ZN3fmt2v68internal12basic_writerINS0_12buffer_rangeIcEEE12write_paddedINS5_17padded_int_writerINS5_10int_writerIxNS0_18basic_format_specsIcEEE10dec_writerEEEEEvRKSA_OT_ = comdat any

$_ZNK3fmt2v68internal12basic_writerINS0_12buffer_rangeIcEEE17padded_int_writerINS5_10int_writerIxNS0_18basic_format_specsIcEEE10dec_writerEE4sizeEv = comdat any

$_ZNK3fmt2v68internal12basic_writerINS0_12buffer_rangeIcEEE17padded_int_writerINS5_10int_writerIxNS0_18basic_format_specsIcEEE10dec_writerEE5widthEv = comdat any

$_ZNK3fmt2v68internal12basic_writerINS0_12buffer_rangeIcEEE17padded_int_writerINS5_10int_writerIxNS0_18basic_format_specsIcEEE10dec_writerEEclIPcEEvOT_ = comdat any

$_ZNK3fmt2v68internal12basic_writerINS0_12buffer_rangeIcEEE17padded_int_writerINS5_10int_writerIxNS0_18basic_format_specsIcEEE10dec_writerEEclIRPcEEvOT_ = comdat any

$_ZNK3fmt2v68internal12basic_writerINS0_12buffer_rangeIcEEE10int_writerIxNS0_18basic_format_specsIcEEE10dec_writerclIRPcEEvOT_ = comdat any

$_ZN3fmt2v68internal14format_decimalIcPcmEET0_S4_T1_i = comdat any

$_ZN3fmt2v68internal14format_decimalIcmPcZNS1_14format_decimalIcS3_mEET0_S5_T1_iEUlS3_E_EES6_S6_S5_iT2_ = comdat any

$_ZN3fmt2v68internal14format_decimalImcZNS1_14format_decimalIcPcmEET0_S5_T1_iEUlS4_E_EEPS5_S8_T_iS6_ = comdat any

$_ZZN3fmt2v68internal14format_decimalIcPcmEET0_S4_T1_iENKUlS3_E_clES3_ = comdat any

$_ZN3fmt2v68internal12count_digitsILj4EmEEiT0_ = comdat any

$_ZN3fmt2v68internal12basic_writerINS0_12buffer_rangeIcEEE9write_intINS5_10int_writerIxNS0_18basic_format_specsIcEEE10hex_writerEEEviNS0_17basic_string_viewIcEES9_T_ = comdat any

$_ZN3fmt2v68internal12basic_writerINS0_12buffer_rangeIcEEE12write_paddedINS5_17padded_int_writerINS5_10int_writerIxNS0_18basic_format_specsIcEEE10hex_writerEEEEEvRKSA_OT_ = comdat any

$_ZNK3fmt2v68internal12basic_writerINS0_12buffer_rangeIcEEE17padded_int_writerINS5_10int_writerIxNS0_18basic_format_specsIcEEE10hex_writerEE4sizeEv = comdat any

$_ZNK3fmt2v68internal12basic_writerINS0_12buffer_rangeIcEEE17padded_int_writerINS5_10int_writerIxNS0_18basic_format_specsIcEEE10hex_writerEE5widthEv = comdat any

$_ZNK3fmt2v68internal12basic_writerINS0_12buffer_rangeIcEEE17padded_int_writerINS5_10int_writerIxNS0_18basic_format_specsIcEEE10hex_writerEEclIPcEEvOT_ = comdat any

$_ZNK3fmt2v68internal12basic_writerINS0_12buffer_rangeIcEEE17padded_int_writerINS5_10int_writerIxNS0_18basic_format_specsIcEEE10hex_writerEEclIRPcEEvOT_ = comdat any

$_ZNK3fmt2v68internal12basic_writerINS0_12buffer_rangeIcEEE10int_writerIxNS0_18basic_format_specsIcEEE10hex_writerclIRPcEEvOT_ = comdat any

$_ZN3fmt2v68internal11format_uintILj4EcmEEPT0_S4_T1_ib = comdat any

$_ZN3fmt2v68internal12count_digitsILj1EmEEiT0_ = comdat any

$_ZN3fmt2v68internal12basic_writerINS0_12buffer_rangeIcEEE9write_intINS5_10int_writerIxNS0_18basic_format_specsIcEEE10bin_writerILi1EEEEEviNS0_17basic_string_viewIcEES9_T_ = comdat any

$_ZN3fmt2v68internal12basic_writerINS0_12buffer_rangeIcEEE12write_paddedINS5_17padded_int_writerINS5_10int_writerIxNS0_18basic_format_specsIcEEE10bin_writerILi1EEEEEEEvRKSA_OT_ = comdat any

$_ZNK3fmt2v68internal12basic_writerINS0_12buffer_rangeIcEEE17padded_int_writerINS5_10int_writerIxNS0_18basic_format_specsIcEEE10bin_writerILi1EEEE4sizeEv = comdat any

$_ZNK3fmt2v68internal12basic_writerINS0_12buffer_rangeIcEEE17padded_int_writerINS5_10int_writerIxNS0_18basic_format_specsIcEEE10bin_writerILi1EEEE5widthEv = comdat any

$_ZNK3fmt2v68internal12basic_writerINS0_12buffer_rangeIcEEE17padded_int_writerINS5_10int_writerIxNS0_18basic_format_specsIcEEE10bin_writerILi1EEEEclIPcEEvOT_ = comdat any

$_ZNK3fmt2v68internal12basic_writerINS0_12buffer_rangeIcEEE17padded_int_writerINS5_10int_writerIxNS0_18basic_format_specsIcEEE10bin_writerILi1EEEEclIRPcEEvOT_ = comdat any

$_ZNK3fmt2v68internal12basic_writerINS0_12buffer_rangeIcEEE10int_writerIxNS0_18basic_format_specsIcEEE10bin_writerILi1EEclIRPcEEvOT_ = comdat any

$_ZN3fmt2v68internal11format_uintILj1EcmEEPT0_S4_T1_ib = comdat any

$_ZN3fmt2v68internal12count_digitsILj3EmEEiT0_ = comdat any

$_ZN3fmt2v68internal12basic_writerINS0_12buffer_rangeIcEEE9write_intINS5_10int_writerIxNS0_18basic_format_specsIcEEE10bin_writerILi3EEEEEviNS0_17basic_string_viewIcEES9_T_ = comdat any

$_ZN3fmt2v68internal12basic_writerINS0_12buffer_rangeIcEEE12write_paddedINS5_17padded_int_writerINS5_10int_writerIxNS0_18basic_format_specsIcEEE10bin_writerILi3EEEEEEEvRKSA_OT_ = comdat any

$_ZNK3fmt2v68internal12basic_writerINS0_12buffer_rangeIcEEE17padded_int_writerINS5_10int_writerIxNS0_18basic_format_specsIcEEE10bin_writerILi3EEEE4sizeEv = comdat any

$_ZNK3fmt2v68internal12basic_writerINS0_12buffer_rangeIcEEE17padded_int_writerINS5_10int_writerIxNS0_18basic_format_specsIcEEE10bin_writerILi3EEEE5widthEv = comdat any

$_ZNK3fmt2v68internal12basic_writerINS0_12buffer_rangeIcEEE17padded_int_writerINS5_10int_writerIxNS0_18basic_format_specsIcEEE10bin_writerILi3EEEEclIPcEEvOT_ = comdat any

$_ZNK3fmt2v68internal12basic_writerINS0_12buffer_rangeIcEEE17padded_int_writerINS5_10int_writerIxNS0_18basic_format_specsIcEEE10bin_writerILi3EEEEclIRPcEEvOT_ = comdat any

$_ZNK3fmt2v68internal12basic_writerINS0_12buffer_rangeIcEEE10int_writerIxNS0_18basic_format_specsIcEEE10bin_writerILi3EEclIRPcEEvOT_ = comdat any

$_ZN3fmt2v68internal11format_uintILj3EcmEEPT0_S4_T1_ib = comdat any

$_ZN3fmt2v68internal12basic_writerINS0_12buffer_rangeIcEEE9write_intINS5_10int_writerIxNS0_18basic_format_specsIcEEE10num_writerEEEviNS0_17basic_string_viewIcEES9_T_ = comdat any

$_ZN3fmt2v68internal12basic_writerINS0_12buffer_rangeIcEEE12write_paddedINS5_17padded_int_writerINS5_10int_writerIxNS0_18basic_format_specsIcEEE10num_writerEEEEEvRKSA_OT_ = comdat any

$_ZNK3fmt2v68internal12basic_writerINS0_12buffer_rangeIcEEE17padded_int_writerINS5_10int_writerIxNS0_18basic_format_specsIcEEE10num_writerEE4sizeEv = comdat any

$_ZNK3fmt2v68internal12basic_writerINS0_12buffer_rangeIcEEE17padded_int_writerINS5_10int_writerIxNS0_18basic_format_specsIcEEE10num_writerEE5widthEv = comdat any

$_ZNK3fmt2v68internal12basic_writerINS0_12buffer_rangeIcEEE17padded_int_writerINS5_10int_writerIxNS0_18basic_format_specsIcEEE10num_writerEEclIPcEEvOT_ = comdat any

$_ZNK3fmt2v68internal12basic_writerINS0_12buffer_rangeIcEEE17padded_int_writerINS5_10int_writerIxNS0_18basic_format_specsIcEEE10num_writerEEclIRPcEEvOT_ = comdat any

$_ZNK3fmt2v68internal12basic_writerINS0_12buffer_rangeIcEEE10int_writerIxNS0_18basic_format_specsIcEEE10num_writerclIRPcEEvOT_ = comdat any

$_ZN3fmt2v68internal14format_decimalIcmPcZNKS1_12basic_writerINS0_12buffer_rangeIcEEE10int_writerIxNS0_18basic_format_specsIcEEE10num_writerclIRS3_EEvOT_EUlSE_E_EET1_SI_T0_iT2_ = comdat any

$_ZN3fmt2v68internal14format_decimalImcZNKS1_12basic_writerINS0_12buffer_rangeIcEEE10int_writerIxNS0_18basic_format_specsIcEEE10num_writerclIRPcEEvOT_EUlSE_E_EEPT0_SJ_SF_iT1_ = comdat any

$_ZZNK3fmt2v68internal12basic_writerINS0_12buffer_rangeIcEEE10int_writerIxNS0_18basic_format_specsIcEEE10num_writerclIRPcEEvOT_ENKUlSD_E_clESD_ = comdat any

$_ZN3fmt2v68internal11is_negativeIxTnNSt9enable_ifIXsr3std14numeric_limitsIT_EE9is_signedEiE4typeELi0EEEbS4_ = comdat any

$_ZN3fmt2v68internal12basic_writerINS0_12buffer_rangeIcEEE13write_decimalIxEEvT_ = comdat any

$_ZN3fmt2v68internal12basic_writerINS0_12buffer_rangeIcEEE9write_intIyNS0_18basic_format_specsIcEEEEvT_RKT0_ = comdat any

$_ZN3fmt2v68internal12basic_writerINS0_12buffer_rangeIcEEE5writeEy = comdat any

$_ZN3fmt2v68internal20handle_int_type_specINS1_12basic_writerINS0_12buffer_rangeIcEEE10int_writerIyNS0_18basic_format_specsIcEEEEEEvcOT_ = comdat any

$_ZN3fmt2v68internal12basic_writerINS0_12buffer_rangeIcEEE10int_writerIyNS0_18basic_format_specsIcEEEC2ERS5_yRKS8_ = comdat any

$_ZN3fmt2v68internal12basic_writerINS0_12buffer_rangeIcEEE10int_writerIyNS0_18basic_format_specsIcEEE6on_decEv = comdat any

$_ZN3fmt2v68internal12basic_writerINS0_12buffer_rangeIcEEE10int_writerIyNS0_18basic_format_specsIcEEE6on_hexEv = comdat any

$_ZN3fmt2v68internal12basic_writerINS0_12buffer_rangeIcEEE10int_writerIyNS0_18basic_format_specsIcEEE6on_binEv = comdat any

$_ZN3fmt2v68internal12basic_writerINS0_12buffer_rangeIcEEE10int_writerIyNS0_18basic_format_specsIcEEE6on_octEv = comdat any

$_ZN3fmt2v68internal12basic_writerINS0_12buffer_rangeIcEEE10int_writerIyNS0_18basic_format_specsIcEEE6on_numEv = comdat any

$_ZN3fmt2v68internal12basic_writerINS0_12buffer_rangeIcEEE10int_writerIyNS0_18basic_format_specsIcEEE8on_errorEv = comdat any

$_ZN3fmt2v68internal12basic_writerINS0_12buffer_rangeIcEEE9write_intINS5_10int_writerIyNS0_18basic_format_specsIcEEE10dec_writerEEEviNS0_17basic_string_viewIcEES9_T_ = comdat any

$_ZNK3fmt2v68internal12basic_writerINS0_12buffer_rangeIcEEE10int_writerIyNS0_18basic_format_specsIcEEE10get_prefixEv = comdat any

$_ZN3fmt2v68internal12basic_writerINS0_12buffer_rangeIcEEE12write_paddedINS5_17padded_int_writerINS5_10int_writerIyNS0_18basic_format_specsIcEEE10dec_writerEEEEEvRKSA_OT_ = comdat any

$_ZNK3fmt2v68internal12basic_writerINS0_12buffer_rangeIcEEE17padded_int_writerINS5_10int_writerIyNS0_18basic_format_specsIcEEE10dec_writerEE4sizeEv = comdat any

$_ZNK3fmt2v68internal12basic_writerINS0_12buffer_rangeIcEEE17padded_int_writerINS5_10int_writerIyNS0_18basic_format_specsIcEEE10dec_writerEE5widthEv = comdat any

$_ZNK3fmt2v68internal12basic_writerINS0_12buffer_rangeIcEEE17padded_int_writerINS5_10int_writerIyNS0_18basic_format_specsIcEEE10dec_writerEEclIPcEEvOT_ = comdat any

$_ZNK3fmt2v68internal12basic_writerINS0_12buffer_rangeIcEEE17padded_int_writerINS5_10int_writerIyNS0_18basic_format_specsIcEEE10dec_writerEEclIRPcEEvOT_ = comdat any

$_ZNK3fmt2v68internal12basic_writerINS0_12buffer_rangeIcEEE10int_writerIyNS0_18basic_format_specsIcEEE10dec_writerclIRPcEEvOT_ = comdat any

$_ZN3fmt2v68internal12basic_writerINS0_12buffer_rangeIcEEE9write_intINS5_10int_writerIyNS0_18basic_format_specsIcEEE10hex_writerEEEviNS0_17basic_string_viewIcEES9_T_ = comdat any

$_ZN3fmt2v68internal12basic_writerINS0_12buffer_rangeIcEEE12write_paddedINS5_17padded_int_writerINS5_10int_writerIyNS0_18basic_format_specsIcEEE10hex_writerEEEEEvRKSA_OT_ = comdat any

$_ZNK3fmt2v68internal12basic_writerINS0_12buffer_rangeIcEEE17padded_int_writerINS5_10int_writerIyNS0_18basic_format_specsIcEEE10hex_writerEE4sizeEv = comdat any

$_ZNK3fmt2v68internal12basic_writerINS0_12buffer_rangeIcEEE17padded_int_writerINS5_10int_writerIyNS0_18basic_format_specsIcEEE10hex_writerEE5widthEv = comdat any

$_ZNK3fmt2v68internal12basic_writerINS0_12buffer_rangeIcEEE17padded_int_writerINS5_10int_writerIyNS0_18basic_format_specsIcEEE10hex_writerEEclIPcEEvOT_ = comdat any

$_ZNK3fmt2v68internal12basic_writerINS0_12buffer_rangeIcEEE17padded_int_writerINS5_10int_writerIyNS0_18basic_format_specsIcEEE10hex_writerEEclIRPcEEvOT_ = comdat any

$_ZNK3fmt2v68internal12basic_writerINS0_12buffer_rangeIcEEE10int_writerIyNS0_18basic_format_specsIcEEE10hex_writerclIRPcEEvOT_ = comdat any

$_ZN3fmt2v68internal12basic_writerINS0_12buffer_rangeIcEEE9write_intINS5_10int_writerIyNS0_18basic_format_specsIcEEE10bin_writerILi1EEEEEviNS0_17basic_string_viewIcEES9_T_ = comdat any

$_ZN3fmt2v68internal12basic_writerINS0_12buffer_rangeIcEEE12write_paddedINS5_17padded_int_writerINS5_10int_writerIyNS0_18basic_format_specsIcEEE10bin_writerILi1EEEEEEEvRKSA_OT_ = comdat any

$_ZNK3fmt2v68internal12basic_writerINS0_12buffer_rangeIcEEE17padded_int_writerINS5_10int_writerIyNS0_18basic_format_specsIcEEE10bin_writerILi1EEEE4sizeEv = comdat any

$_ZNK3fmt2v68internal12basic_writerINS0_12buffer_rangeIcEEE17padded_int_writerINS5_10int_writerIyNS0_18basic_format_specsIcEEE10bin_writerILi1EEEE5widthEv = comdat any

$_ZNK3fmt2v68internal12basic_writerINS0_12buffer_rangeIcEEE17padded_int_writerINS5_10int_writerIyNS0_18basic_format_specsIcEEE10bin_writerILi1EEEEclIPcEEvOT_ = comdat any

$_ZNK3fmt2v68internal12basic_writerINS0_12buffer_rangeIcEEE17padded_int_writerINS5_10int_writerIyNS0_18basic_format_specsIcEEE10bin_writerILi1EEEEclIRPcEEvOT_ = comdat any

$_ZNK3fmt2v68internal12basic_writerINS0_12buffer_rangeIcEEE10int_writerIyNS0_18basic_format_specsIcEEE10bin_writerILi1EEclIRPcEEvOT_ = comdat any

$_ZN3fmt2v68internal12basic_writerINS0_12buffer_rangeIcEEE9write_intINS5_10int_writerIyNS0_18basic_format_specsIcEEE10bin_writerILi3EEEEEviNS0_17basic_string_viewIcEES9_T_ = comdat any

$_ZN3fmt2v68internal12basic_writerINS0_12buffer_rangeIcEEE12write_paddedINS5_17padded_int_writerINS5_10int_writerIyNS0_18basic_format_specsIcEEE10bin_writerILi3EEEEEEEvRKSA_OT_ = comdat any

$_ZNK3fmt2v68internal12basic_writerINS0_12buffer_rangeIcEEE17padded_int_writerINS5_10int_writerIyNS0_18basic_format_specsIcEEE10bin_writerILi3EEEE4sizeEv = comdat any

$_ZNK3fmt2v68internal12basic_writerINS0_12buffer_rangeIcEEE17padded_int_writerINS5_10int_writerIyNS0_18basic_format_specsIcEEE10bin_writerILi3EEEE5widthEv = comdat any

$_ZNK3fmt2v68internal12basic_writerINS0_12buffer_rangeIcEEE17padded_int_writerINS5_10int_writerIyNS0_18basic_format_specsIcEEE10bin_writerILi3EEEEclIPcEEvOT_ = comdat any

$_ZNK3fmt2v68internal12basic_writerINS0_12buffer_rangeIcEEE17padded_int_writerINS5_10int_writerIyNS0_18basic_format_specsIcEEE10bin_writerILi3EEEEclIRPcEEvOT_ = comdat any

$_ZNK3fmt2v68internal12basic_writerINS0_12buffer_rangeIcEEE10int_writerIyNS0_18basic_format_specsIcEEE10bin_writerILi3EEclIRPcEEvOT_ = comdat any

$_ZN3fmt2v68internal12basic_writerINS0_12buffer_rangeIcEEE9write_intINS5_10int_writerIyNS0_18basic_format_specsIcEEE10num_writerEEEviNS0_17basic_string_viewIcEES9_T_ = comdat any

$_ZN3fmt2v68internal12basic_writerINS0_12buffer_rangeIcEEE12write_paddedINS5_17padded_int_writerINS5_10int_writerIyNS0_18basic_format_specsIcEEE10num_writerEEEEEvRKSA_OT_ = comdat any

$_ZNK3fmt2v68internal12basic_writerINS0_12buffer_rangeIcEEE17padded_int_writerINS5_10int_writerIyNS0_18basic_format_specsIcEEE10num_writerEE4sizeEv = comdat any

$_ZNK3fmt2v68internal12basic_writerINS0_12buffer_rangeIcEEE17padded_int_writerINS5_10int_writerIyNS0_18basic_format_specsIcEEE10num_writerEE5widthEv = comdat any

$_ZNK3fmt2v68internal12basic_writerINS0_12buffer_rangeIcEEE17padded_int_writerINS5_10int_writerIyNS0_18basic_format_specsIcEEE10num_writerEEclIPcEEvOT_ = comdat any

$_ZNK3fmt2v68internal12basic_writerINS0_12buffer_rangeIcEEE17padded_int_writerINS5_10int_writerIyNS0_18basic_format_specsIcEEE10num_writerEEclIRPcEEvOT_ = comdat any

$_ZNK3fmt2v68internal12basic_writerINS0_12buffer_rangeIcEEE10int_writerIyNS0_18basic_format_specsIcEEE10num_writerclIRPcEEvOT_ = comdat any

$_ZN3fmt2v68internal14format_decimalIcmPcZNKS1_12basic_writerINS0_12buffer_rangeIcEEE10int_writerIyNS0_18basic_format_specsIcEEE10num_writerclIRS3_EEvOT_EUlSE_E_EET1_SI_T0_iT2_ = comdat any

$_ZN3fmt2v68internal14format_decimalImcZNKS1_12basic_writerINS0_12buffer_rangeIcEEE10int_writerIyNS0_18basic_format_specsIcEEE10num_writerclIRPcEEvOT_EUlSE_E_EEPT0_SJ_SF_iT1_ = comdat any

$_ZZNK3fmt2v68internal12basic_writerINS0_12buffer_rangeIcEEE10int_writerIyNS0_18basic_format_specsIcEEE10num_writerclIRPcEEvOT_ENKUlSD_E_clESD_ = comdat any

$_ZN3fmt2v68internal11is_negativeIyTnNSt9enable_ifIXntsr3std14numeric_limitsIT_EE9is_signedEiE4typeELi0EEEbS4_ = comdat any

$_ZN3fmt2v68internal12basic_writerINS0_12buffer_rangeIcEEE13write_decimalIyEEvT_ = comdat any

$_ZN3fmt2v68internal12basic_writerINS0_12buffer_rangeIcEEE9write_intInNS0_18basic_format_specsIcEEEEvT_RKT0_ = comdat any

$_ZN3fmt2v68internal12basic_writerINS0_12buffer_rangeIcEEE5writeEn = comdat any

$_ZN3fmt2v68internal20handle_int_type_specINS1_12basic_writerINS0_12buffer_rangeIcEEE10int_writerInNS0_18basic_format_specsIcEEEEEEvcOT_ = comdat any

$_ZN3fmt2v68internal12basic_writerINS0_12buffer_rangeIcEEE10int_writerInNS0_18basic_format_specsIcEEEC2ERS5_nRKS8_ = comdat any

$_ZN3fmt2v68internal12basic_writerINS0_12buffer_rangeIcEEE10int_writerInNS0_18basic_format_specsIcEEE6on_decEv = comdat any

$_ZN3fmt2v68internal12basic_writerINS0_12buffer_rangeIcEEE10int_writerInNS0_18basic_format_specsIcEEE6on_hexEv = comdat any

$_ZN3fmt2v68internal12basic_writerINS0_12buffer_rangeIcEEE10int_writerInNS0_18basic_format_specsIcEEE6on_binEv = comdat any

$_ZN3fmt2v68internal12basic_writerINS0_12buffer_rangeIcEEE10int_writerInNS0_18basic_format_specsIcEEE6on_octEv = comdat any

$_ZN3fmt2v68internal12basic_writerINS0_12buffer_rangeIcEEE10int_writerInNS0_18basic_format_specsIcEEE6on_numEv = comdat any

$_ZN3fmt2v68internal12basic_writerINS0_12buffer_rangeIcEEE10int_writerInNS0_18basic_format_specsIcEEE8on_errorEv = comdat any

$_ZN3fmt2v68internal12count_digitsEo = comdat any

$_ZN3fmt2v68internal12basic_writerINS0_12buffer_rangeIcEEE9write_intINS5_10int_writerInNS0_18basic_format_specsIcEEE10dec_writerEEEviNS0_17basic_string_viewIcEES9_T_ = comdat any

$_ZNK3fmt2v68internal12basic_writerINS0_12buffer_rangeIcEEE10int_writerInNS0_18basic_format_specsIcEEE10get_prefixEv = comdat any

$_ZN3fmt2v68internal12basic_writerINS0_12buffer_rangeIcEEE12write_paddedINS5_17padded_int_writerINS5_10int_writerInNS0_18basic_format_specsIcEEE10dec_writerEEEEEvRKSA_OT_ = comdat any

$_ZNK3fmt2v68internal12basic_writerINS0_12buffer_rangeIcEEE17padded_int_writerINS5_10int_writerInNS0_18basic_format_specsIcEEE10dec_writerEE4sizeEv = comdat any

$_ZNK3fmt2v68internal12basic_writerINS0_12buffer_rangeIcEEE17padded_int_writerINS5_10int_writerInNS0_18basic_format_specsIcEEE10dec_writerEE5widthEv = comdat any

$_ZNK3fmt2v68internal12basic_writerINS0_12buffer_rangeIcEEE17padded_int_writerINS5_10int_writerInNS0_18basic_format_specsIcEEE10dec_writerEEclIPcEEvOT_ = comdat any

$_ZNK3fmt2v68internal12basic_writerINS0_12buffer_rangeIcEEE17padded_int_writerINS5_10int_writerInNS0_18basic_format_specsIcEEE10dec_writerEEclIRPcEEvOT_ = comdat any

$_ZNK3fmt2v68internal12basic_writerINS0_12buffer_rangeIcEEE10int_writerInNS0_18basic_format_specsIcEEE10dec_writerclIRPcEEvOT_ = comdat any

$_ZN3fmt2v68internal14format_decimalIcPcoEET0_S4_T1_i = comdat any

$_ZN3fmt2v68internal14format_decimalIcoPcZNS1_14format_decimalIcS3_oEET0_S5_T1_iEUlS3_E_EES6_S6_S5_iT2_ = comdat any

$_ZN3fmt2v68internal14format_decimalIocZNS1_14format_decimalIcPcoEET0_S5_T1_iEUlS4_E_EEPS5_S8_T_iS6_ = comdat any

$_ZZN3fmt2v68internal14format_decimalIcPcoEET0_S4_T1_iENKUlS3_E_clES3_ = comdat any

$_ZN3fmt2v68internal12count_digitsILj4EoEEiT0_ = comdat any

$_ZN3fmt2v68internal12basic_writerINS0_12buffer_rangeIcEEE9write_intINS5_10int_writerInNS0_18basic_format_specsIcEEE10hex_writerEEEviNS0_17basic_string_viewIcEES9_T_ = comdat any

$_ZN3fmt2v68internal12basic_writerINS0_12buffer_rangeIcEEE12write_paddedINS5_17padded_int_writerINS5_10int_writerInNS0_18basic_format_specsIcEEE10hex_writerEEEEEvRKSA_OT_ = comdat any

$_ZNK3fmt2v68internal12basic_writerINS0_12buffer_rangeIcEEE17padded_int_writerINS5_10int_writerInNS0_18basic_format_specsIcEEE10hex_writerEE4sizeEv = comdat any

$_ZNK3fmt2v68internal12basic_writerINS0_12buffer_rangeIcEEE17padded_int_writerINS5_10int_writerInNS0_18basic_format_specsIcEEE10hex_writerEE5widthEv = comdat any

$_ZNK3fmt2v68internal12basic_writerINS0_12buffer_rangeIcEEE17padded_int_writerINS5_10int_writerInNS0_18basic_format_specsIcEEE10hex_writerEEclIPcEEvOT_ = comdat any

$_ZNK3fmt2v68internal12basic_writerINS0_12buffer_rangeIcEEE17padded_int_writerINS5_10int_writerInNS0_18basic_format_specsIcEEE10hex_writerEEclIRPcEEvOT_ = comdat any

$_ZNK3fmt2v68internal12basic_writerINS0_12buffer_rangeIcEEE10int_writerInNS0_18basic_format_specsIcEEE10hex_writerclIRPcEEvOT_ = comdat any

$_ZN3fmt2v68internal11format_uintILj4EcoEEPT0_S4_T1_ib = comdat any

$_ZN3fmt2v68internal12count_digitsILj1EoEEiT0_ = comdat any

$_ZN3fmt2v68internal12basic_writerINS0_12buffer_rangeIcEEE9write_intINS5_10int_writerInNS0_18basic_format_specsIcEEE10bin_writerILi1EEEEEviNS0_17basic_string_viewIcEES9_T_ = comdat any

$_ZN3fmt2v68internal12basic_writerINS0_12buffer_rangeIcEEE12write_paddedINS5_17padded_int_writerINS5_10int_writerInNS0_18basic_format_specsIcEEE10bin_writerILi1EEEEEEEvRKSA_OT_ = comdat any

$_ZNK3fmt2v68internal12basic_writerINS0_12buffer_rangeIcEEE17padded_int_writerINS5_10int_writerInNS0_18basic_format_specsIcEEE10bin_writerILi1EEEE4sizeEv = comdat any

$_ZNK3fmt2v68internal12basic_writerINS0_12buffer_rangeIcEEE17padded_int_writerINS5_10int_writerInNS0_18basic_format_specsIcEEE10bin_writerILi1EEEE5widthEv = comdat any

$_ZNK3fmt2v68internal12basic_writerINS0_12buffer_rangeIcEEE17padded_int_writerINS5_10int_writerInNS0_18basic_format_specsIcEEE10bin_writerILi1EEEEclIPcEEvOT_ = comdat any

$_ZNK3fmt2v68internal12basic_writerINS0_12buffer_rangeIcEEE17padded_int_writerINS5_10int_writerInNS0_18basic_format_specsIcEEE10bin_writerILi1EEEEclIRPcEEvOT_ = comdat any

$_ZNK3fmt2v68internal12basic_writerINS0_12buffer_rangeIcEEE10int_writerInNS0_18basic_format_specsIcEEE10bin_writerILi1EEclIRPcEEvOT_ = comdat any

$_ZN3fmt2v68internal11format_uintILj1EcoEEPT0_S4_T1_ib = comdat any

$_ZN3fmt2v68internal12count_digitsILj3EoEEiT0_ = comdat any

$_ZN3fmt2v68internal12basic_writerINS0_12buffer_rangeIcEEE9write_intINS5_10int_writerInNS0_18basic_format_specsIcEEE10bin_writerILi3EEEEEviNS0_17basic_string_viewIcEES9_T_ = comdat any

$_ZN3fmt2v68internal12basic_writerINS0_12buffer_rangeIcEEE12write_paddedINS5_17padded_int_writerINS5_10int_writerInNS0_18basic_format_specsIcEEE10bin_writerILi3EEEEEEEvRKSA_OT_ = comdat any

$_ZNK3fmt2v68internal12basic_writerINS0_12buffer_rangeIcEEE17padded_int_writerINS5_10int_writerInNS0_18basic_format_specsIcEEE10bin_writerILi3EEEE4sizeEv = comdat any

$_ZNK3fmt2v68internal12basic_writerINS0_12buffer_rangeIcEEE17padded_int_writerINS5_10int_writerInNS0_18basic_format_specsIcEEE10bin_writerILi3EEEE5widthEv = comdat any

$_ZNK3fmt2v68internal12basic_writerINS0_12buffer_rangeIcEEE17padded_int_writerINS5_10int_writerInNS0_18basic_format_specsIcEEE10bin_writerILi3EEEEclIPcEEvOT_ = comdat any

$_ZNK3fmt2v68internal12basic_writerINS0_12buffer_rangeIcEEE17padded_int_writerINS5_10int_writerInNS0_18basic_format_specsIcEEE10bin_writerILi3EEEEclIRPcEEvOT_ = comdat any

$_ZNK3fmt2v68internal12basic_writerINS0_12buffer_rangeIcEEE10int_writerInNS0_18basic_format_specsIcEEE10bin_writerILi3EEclIRPcEEvOT_ = comdat any

$_ZN3fmt2v68internal11format_uintILj3EcoEEPT0_S4_T1_ib = comdat any

$_ZN3fmt2v68internal12basic_writerINS0_12buffer_rangeIcEEE9write_intINS5_10int_writerInNS0_18basic_format_specsIcEEE10num_writerEEEviNS0_17basic_string_viewIcEES9_T_ = comdat any

$_ZN3fmt2v68internal12basic_writerINS0_12buffer_rangeIcEEE12write_paddedINS5_17padded_int_writerINS5_10int_writerInNS0_18basic_format_specsIcEEE10num_writerEEEEEvRKSA_OT_ = comdat any

$_ZNK3fmt2v68internal12basic_writerINS0_12buffer_rangeIcEEE17padded_int_writerINS5_10int_writerInNS0_18basic_format_specsIcEEE10num_writerEE4sizeEv = comdat any

$_ZNK3fmt2v68internal12basic_writerINS0_12buffer_rangeIcEEE17padded_int_writerINS5_10int_writerInNS0_18basic_format_specsIcEEE10num_writerEE5widthEv = comdat any

$_ZNK3fmt2v68internal12basic_writerINS0_12buffer_rangeIcEEE17padded_int_writerINS5_10int_writerInNS0_18basic_format_specsIcEEE10num_writerEEclIPcEEvOT_ = comdat any

$_ZNK3fmt2v68internal12basic_writerINS0_12buffer_rangeIcEEE17padded_int_writerINS5_10int_writerInNS0_18basic_format_specsIcEEE10num_writerEEclIRPcEEvOT_ = comdat any

$_ZNK3fmt2v68internal12basic_writerINS0_12buffer_rangeIcEEE10int_writerInNS0_18basic_format_specsIcEEE10num_writerclIRPcEEvOT_ = comdat any

$_ZN3fmt2v68internal14format_decimalIcoPcZNKS1_12basic_writerINS0_12buffer_rangeIcEEE10int_writerInNS0_18basic_format_specsIcEEE10num_writerclIRS3_EEvOT_EUlSE_E_EET1_SI_T0_iT2_ = comdat any

$_ZN3fmt2v68internal14format_decimalIocZNKS1_12basic_writerINS0_12buffer_rangeIcEEE10int_writerInNS0_18basic_format_specsIcEEE10num_writerclIRPcEEvOT_EUlSE_E_EEPT0_SJ_SF_iT1_ = comdat any

$_ZZNK3fmt2v68internal12basic_writerINS0_12buffer_rangeIcEEE10int_writerInNS0_18basic_format_specsIcEEE10num_writerclIRPcEEvOT_ENKUlSD_E_clESD_ = comdat any

$_ZN3fmt2v68internal11is_negativeInTnNSt9enable_ifIXsr3std14numeric_limitsIT_EE9is_signedEiE4typeELi0EEEbS4_ = comdat any

$_ZN3fmt2v68internal12basic_writerINS0_12buffer_rangeIcEEE13write_decimalInEEvT_ = comdat any

$_ZN3fmt2v68internal12basic_writerINS0_12buffer_rangeIcEEE9write_intIoNS0_18basic_format_specsIcEEEEvT_RKT0_ = comdat any

$_ZN3fmt2v68internal12basic_writerINS0_12buffer_rangeIcEEE5writeEo = comdat any

$_ZN3fmt2v68internal20handle_int_type_specINS1_12basic_writerINS0_12buffer_rangeIcEEE10int_writerIoNS0_18basic_format_specsIcEEEEEEvcOT_ = comdat any

$_ZN3fmt2v68internal12basic_writerINS0_12buffer_rangeIcEEE10int_writerIoNS0_18basic_format_specsIcEEEC2ERS5_oRKS8_ = comdat any

$_ZN3fmt2v68internal12basic_writerINS0_12buffer_rangeIcEEE10int_writerIoNS0_18basic_format_specsIcEEE6on_decEv = comdat any

$_ZN3fmt2v68internal12basic_writerINS0_12buffer_rangeIcEEE10int_writerIoNS0_18basic_format_specsIcEEE6on_hexEv = comdat any

$_ZN3fmt2v68internal12basic_writerINS0_12buffer_rangeIcEEE10int_writerIoNS0_18basic_format_specsIcEEE6on_binEv = comdat any

$_ZN3fmt2v68internal12basic_writerINS0_12buffer_rangeIcEEE10int_writerIoNS0_18basic_format_specsIcEEE6on_octEv = comdat any

$_ZN3fmt2v68internal12basic_writerINS0_12buffer_rangeIcEEE10int_writerIoNS0_18basic_format_specsIcEEE6on_numEv = comdat any

$_ZN3fmt2v68internal12basic_writerINS0_12buffer_rangeIcEEE10int_writerIoNS0_18basic_format_specsIcEEE8on_errorEv = comdat any

$_ZN3fmt2v68internal12basic_writerINS0_12buffer_rangeIcEEE9write_intINS5_10int_writerIoNS0_18basic_format_specsIcEEE10dec_writerEEEviNS0_17basic_string_viewIcEES9_T_ = comdat any

$_ZNK3fmt2v68internal12basic_writerINS0_12buffer_rangeIcEEE10int_writerIoNS0_18basic_format_specsIcEEE10get_prefixEv = comdat any

$_ZN3fmt2v68internal12basic_writerINS0_12buffer_rangeIcEEE12write_paddedINS5_17padded_int_writerINS5_10int_writerIoNS0_18basic_format_specsIcEEE10dec_writerEEEEEvRKSA_OT_ = comdat any

$_ZNK3fmt2v68internal12basic_writerINS0_12buffer_rangeIcEEE17padded_int_writerINS5_10int_writerIoNS0_18basic_format_specsIcEEE10dec_writerEE4sizeEv = comdat any

$_ZNK3fmt2v68internal12basic_writerINS0_12buffer_rangeIcEEE17padded_int_writerINS5_10int_writerIoNS0_18basic_format_specsIcEEE10dec_writerEE5widthEv = comdat any

$_ZNK3fmt2v68internal12basic_writerINS0_12buffer_rangeIcEEE17padded_int_writerINS5_10int_writerIoNS0_18basic_format_specsIcEEE10dec_writerEEclIPcEEvOT_ = comdat any

$_ZNK3fmt2v68internal12basic_writerINS0_12buffer_rangeIcEEE17padded_int_writerINS5_10int_writerIoNS0_18basic_format_specsIcEEE10dec_writerEEclIRPcEEvOT_ = comdat any

$_ZNK3fmt2v68internal12basic_writerINS0_12buffer_rangeIcEEE10int_writerIoNS0_18basic_format_specsIcEEE10dec_writerclIRPcEEvOT_ = comdat any

$_ZN3fmt2v68internal12basic_writerINS0_12buffer_rangeIcEEE9write_intINS5_10int_writerIoNS0_18basic_format_specsIcEEE10hex_writerEEEviNS0_17basic_string_viewIcEES9_T_ = comdat any

$_ZN3fmt2v68internal12basic_writerINS0_12buffer_rangeIcEEE12write_paddedINS5_17padded_int_writerINS5_10int_writerIoNS0_18basic_format_specsIcEEE10hex_writerEEEEEvRKSA_OT_ = comdat any

$_ZNK3fmt2v68internal12basic_writerINS0_12buffer_rangeIcEEE17padded_int_writerINS5_10int_writerIoNS0_18basic_format_specsIcEEE10hex_writerEE4sizeEv = comdat any

$_ZNK3fmt2v68internal12basic_writerINS0_12buffer_rangeIcEEE17padded_int_writerINS5_10int_writerIoNS0_18basic_format_specsIcEEE10hex_writerEE5widthEv = comdat any

$_ZNK3fmt2v68internal12basic_writerINS0_12buffer_rangeIcEEE17padded_int_writerINS5_10int_writerIoNS0_18basic_format_specsIcEEE10hex_writerEEclIPcEEvOT_ = comdat any

$_ZNK3fmt2v68internal12basic_writerINS0_12buffer_rangeIcEEE17padded_int_writerINS5_10int_writerIoNS0_18basic_format_specsIcEEE10hex_writerEEclIRPcEEvOT_ = comdat any

$_ZNK3fmt2v68internal12basic_writerINS0_12buffer_rangeIcEEE10int_writerIoNS0_18basic_format_specsIcEEE10hex_writerclIRPcEEvOT_ = comdat any

$_ZN3fmt2v68internal12basic_writerINS0_12buffer_rangeIcEEE9write_intINS5_10int_writerIoNS0_18basic_format_specsIcEEE10bin_writerILi1EEEEEviNS0_17basic_string_viewIcEES9_T_ = comdat any

$_ZN3fmt2v68internal12basic_writerINS0_12buffer_rangeIcEEE12write_paddedINS5_17padded_int_writerINS5_10int_writerIoNS0_18basic_format_specsIcEEE10bin_writerILi1EEEEEEEvRKSA_OT_ = comdat any

$_ZNK3fmt2v68internal12basic_writerINS0_12buffer_rangeIcEEE17padded_int_writerINS5_10int_writerIoNS0_18basic_format_specsIcEEE10bin_writerILi1EEEE4sizeEv = comdat any

$_ZNK3fmt2v68internal12basic_writerINS0_12buffer_rangeIcEEE17padded_int_writerINS5_10int_writerIoNS0_18basic_format_specsIcEEE10bin_writerILi1EEEE5widthEv = comdat any

$_ZNK3fmt2v68internal12basic_writerINS0_12buffer_rangeIcEEE17padded_int_writerINS5_10int_writerIoNS0_18basic_format_specsIcEEE10bin_writerILi1EEEEclIPcEEvOT_ = comdat any

$_ZNK3fmt2v68internal12basic_writerINS0_12buffer_rangeIcEEE17padded_int_writerINS5_10int_writerIoNS0_18basic_format_specsIcEEE10bin_writerILi1EEEEclIRPcEEvOT_ = comdat any

$_ZNK3fmt2v68internal12basic_writerINS0_12buffer_rangeIcEEE10int_writerIoNS0_18basic_format_specsIcEEE10bin_writerILi1EEclIRPcEEvOT_ = comdat any

$_ZN3fmt2v68internal12basic_writerINS0_12buffer_rangeIcEEE9write_intINS5_10int_writerIoNS0_18basic_format_specsIcEEE10bin_writerILi3EEEEEviNS0_17basic_string_viewIcEES9_T_ = comdat any

$_ZN3fmt2v68internal12basic_writerINS0_12buffer_rangeIcEEE12write_paddedINS5_17padded_int_writerINS5_10int_writerIoNS0_18basic_format_specsIcEEE10bin_writerILi3EEEEEEEvRKSA_OT_ = comdat any

$_ZNK3fmt2v68internal12basic_writerINS0_12buffer_rangeIcEEE17padded_int_writerINS5_10int_writerIoNS0_18basic_format_specsIcEEE10bin_writerILi3EEEE4sizeEv = comdat any

$_ZNK3fmt2v68internal12basic_writerINS0_12buffer_rangeIcEEE17padded_int_writerINS5_10int_writerIoNS0_18basic_format_specsIcEEE10bin_writerILi3EEEE5widthEv = comdat any

$_ZNK3fmt2v68internal12basic_writerINS0_12buffer_rangeIcEEE17padded_int_writerINS5_10int_writerIoNS0_18basic_format_specsIcEEE10bin_writerILi3EEEEclIPcEEvOT_ = comdat any

$_ZNK3fmt2v68internal12basic_writerINS0_12buffer_rangeIcEEE17padded_int_writerINS5_10int_writerIoNS0_18basic_format_specsIcEEE10bin_writerILi3EEEEclIRPcEEvOT_ = comdat any

$_ZNK3fmt2v68internal12basic_writerINS0_12buffer_rangeIcEEE10int_writerIoNS0_18basic_format_specsIcEEE10bin_writerILi3EEclIRPcEEvOT_ = comdat any

$_ZN3fmt2v68internal12basic_writerINS0_12buffer_rangeIcEEE9write_intINS5_10int_writerIoNS0_18basic_format_specsIcEEE10num_writerEEEviNS0_17basic_string_viewIcEES9_T_ = comdat any

$_ZN3fmt2v68internal12basic_writerINS0_12buffer_rangeIcEEE12write_paddedINS5_17padded_int_writerINS5_10int_writerIoNS0_18basic_format_specsIcEEE10num_writerEEEEEvRKSA_OT_ = comdat any

$_ZNK3fmt2v68internal12basic_writerINS0_12buffer_rangeIcEEE17padded_int_writerINS5_10int_writerIoNS0_18basic_format_specsIcEEE10num_writerEE4sizeEv = comdat any

$_ZNK3fmt2v68internal12basic_writerINS0_12buffer_rangeIcEEE17padded_int_writerINS5_10int_writerIoNS0_18basic_format_specsIcEEE10num_writerEE5widthEv = comdat any

$_ZNK3fmt2v68internal12basic_writerINS0_12buffer_rangeIcEEE17padded_int_writerINS5_10int_writerIoNS0_18basic_format_specsIcEEE10num_writerEEclIPcEEvOT_ = comdat any

$_ZNK3fmt2v68internal12basic_writerINS0_12buffer_rangeIcEEE17padded_int_writerINS5_10int_writerIoNS0_18basic_format_specsIcEEE10num_writerEEclIRPcEEvOT_ = comdat any

$_ZNK3fmt2v68internal12basic_writerINS0_12buffer_rangeIcEEE10int_writerIoNS0_18basic_format_specsIcEEE10num_writerclIRPcEEvOT_ = comdat any

$_ZN3fmt2v68internal14format_decimalIcoPcZNKS1_12basic_writerINS0_12buffer_rangeIcEEE10int_writerIoNS0_18basic_format_specsIcEEE10num_writerclIRS3_EEvOT_EUlSE_E_EET1_SI_T0_iT2_ = comdat any

$_ZN3fmt2v68internal14format_decimalIocZNKS1_12basic_writerINS0_12buffer_rangeIcEEE10int_writerIoNS0_18basic_format_specsIcEEE10num_writerclIRPcEEvOT_EUlSE_E_EEPT0_SJ_SF_iT1_ = comdat any

$_ZZNK3fmt2v68internal12basic_writerINS0_12buffer_rangeIcEEE10int_writerIoNS0_18basic_format_specsIcEEE10num_writerclIRPcEEvOT_ENKUlSD_E_clESD_ = comdat any

$_ZN3fmt2v68internal11is_negativeIoTnNSt9enable_ifIXntsr3std14numeric_limitsIT_EE9is_signedEiE4typeELi0EEEbS4_ = comdat any

$_ZN3fmt2v68internal12basic_writerINS0_12buffer_rangeIcEEE13write_decimalIoEEvT_ = comdat any

$_ZN3fmt2v68internal18arg_formatter_baseINS0_12buffer_rangeIcEENS1_13error_handlerEE5writeEb = comdat any

$_ZN3fmt2v617basic_string_viewIcEC2EPKc = comdat any

$_ZN3fmt2v68internal12basic_writerINS0_12buffer_rangeIcEEE5writeIcEEvNS0_17basic_string_viewIT_EERKNS0_18basic_format_specsIcEE = comdat any

$_ZN3fmt2v68internal12basic_writerINS0_12buffer_rangeIcEEE5writeENS0_17basic_string_viewIcEE = comdat any

$_ZN3fmt2v68internal16code_point_indexIcEEmNS0_17basic_string_viewIT_EEm = comdat any

$_ZN3fmt2v68internal12basic_writerINS0_12buffer_rangeIcEEE5writeIcEEvPKT_mRKNS0_18basic_format_specsIcEE = comdat any

$_ZN3fmt2v68internal12basic_writerINS0_12buffer_rangeIcEEE12write_paddedINS5_10str_writerIcEEEEvRKNS0_18basic_format_specsIcEEOT_ = comdat any

$_ZNK3fmt2v68internal12basic_writerINS0_12buffer_rangeIcEEE10str_writerIcE4sizeEv = comdat any

$_ZNK3fmt2v68internal12basic_writerINS0_12buffer_rangeIcEEE10str_writerIcE5widthEv = comdat any

$_ZNK3fmt2v68internal12basic_writerINS0_12buffer_rangeIcEEE10str_writerIcEclIPcEEvOT_ = comdat any

$_ZNK3fmt2v68internal12basic_writerINS0_12buffer_rangeIcEEE10str_writerIcEclIRPcEEvOT_ = comdat any

$_ZN3fmt2v68internal17count_code_pointsIcEEmNS0_17basic_string_viewIT_EE = comdat any

$_ZN3fmt2v68internal17handle_char_specsIcNS1_18arg_formatter_baseINS0_12buffer_rangeIcEENS1_13error_handlerEE17char_spec_handlerEEEvPKNS0_18basic_format_specsIT_EEOT0_ = comdat any

$_ZN3fmt2v68internal18arg_formatter_baseINS0_12buffer_rangeIcEENS1_13error_handlerEE17char_spec_handlerC2ERS6_c = comdat any

$_ZN3fmt2v68internal18arg_formatter_baseINS0_12buffer_rangeIcEENS1_13error_handlerEE17char_spec_handler7on_charEv = comdat any

$_ZN3fmt2v68internal18arg_formatter_baseINS0_12buffer_rangeIcEENS1_13error_handlerEE17char_spec_handler6on_intEv = comdat any

$_ZN3fmt2v68internal18arg_formatter_baseINS0_12buffer_rangeIcEENS1_13error_handlerEE10write_charEc = comdat any

$_ZN3fmt2v68internal12basic_writerINS0_12buffer_rangeIcEEE12write_paddedINS1_18arg_formatter_baseIS4_NS1_13error_handlerEE11char_writerEEEvRKNS0_18basic_format_specsIcEEOT_ = comdat any

$_ZN3fmt2v68internal12basic_writerINS0_12buffer_rangeIcEEE5writeEc = comdat any

$_ZNK3fmt2v68internal18arg_formatter_baseINS0_12buffer_rangeIcEENS1_13error_handlerEE11char_writer4sizeEv = comdat any

$_ZNK3fmt2v68internal18arg_formatter_baseINS0_12buffer_rangeIcEENS1_13error_handlerEE11char_writer5widthEv = comdat any

$_ZNK3fmt2v68internal18arg_formatter_baseINS0_12buffer_rangeIcEENS1_13error_handlerEE11char_writerclIPcEEvOT_ = comdat any

$_ZNK3fmt2v68internal18arg_formatter_baseINS0_12buffer_rangeIcEENS1_13error_handlerEE11char_writerclIRPcEEvOT_ = comdat any

$_ZN3fmt2v68internal12basic_writerINS0_12buffer_rangeIcEEE9write_intIcNS0_18basic_format_specsIcEEEEvT_RKT0_ = comdat any

$_ZN3fmt2v68internal20handle_int_type_specINS1_12basic_writerINS0_12buffer_rangeIcEEE10int_writerIcNS0_18basic_format_specsIcEEEEEEvcOT_ = comdat any

$_ZN3fmt2v68internal12basic_writerINS0_12buffer_rangeIcEEE10int_writerIcNS0_18basic_format_specsIcEEEC2ERS5_cRKS8_ = comdat any

$_ZN3fmt2v68internal12basic_writerINS0_12buffer_rangeIcEEE10int_writerIcNS0_18basic_format_specsIcEEE6on_decEv = comdat any

$_ZN3fmt2v68internal12basic_writerINS0_12buffer_rangeIcEEE10int_writerIcNS0_18basic_format_specsIcEEE6on_hexEv = comdat any

$_ZN3fmt2v68internal12basic_writerINS0_12buffer_rangeIcEEE10int_writerIcNS0_18basic_format_specsIcEEE6on_binEv = comdat any

$_ZN3fmt2v68internal12basic_writerINS0_12buffer_rangeIcEEE10int_writerIcNS0_18basic_format_specsIcEEE6on_octEv = comdat any

$_ZN3fmt2v68internal12basic_writerINS0_12buffer_rangeIcEEE10int_writerIcNS0_18basic_format_specsIcEEE6on_numEv = comdat any

$_ZN3fmt2v68internal12basic_writerINS0_12buffer_rangeIcEEE10int_writerIcNS0_18basic_format_specsIcEEE8on_errorEv = comdat any

$_ZN3fmt2v68internal12basic_writerINS0_12buffer_rangeIcEEE9write_intINS5_10int_writerIcNS0_18basic_format_specsIcEEE10dec_writerEEEviNS0_17basic_string_viewIcEES9_T_ = comdat any

$_ZNK3fmt2v68internal12basic_writerINS0_12buffer_rangeIcEEE10int_writerIcNS0_18basic_format_specsIcEEE10get_prefixEv = comdat any

$_ZN3fmt2v68internal12basic_writerINS0_12buffer_rangeIcEEE12write_paddedINS5_17padded_int_writerINS5_10int_writerIcNS0_18basic_format_specsIcEEE10dec_writerEEEEEvRKSA_OT_ = comdat any

$_ZNK3fmt2v68internal12basic_writerINS0_12buffer_rangeIcEEE17padded_int_writerINS5_10int_writerIcNS0_18basic_format_specsIcEEE10dec_writerEE4sizeEv = comdat any

$_ZNK3fmt2v68internal12basic_writerINS0_12buffer_rangeIcEEE17padded_int_writerINS5_10int_writerIcNS0_18basic_format_specsIcEEE10dec_writerEE5widthEv = comdat any

$_ZNK3fmt2v68internal12basic_writerINS0_12buffer_rangeIcEEE17padded_int_writerINS5_10int_writerIcNS0_18basic_format_specsIcEEE10dec_writerEEclIPcEEvOT_ = comdat any

$_ZNK3fmt2v68internal12basic_writerINS0_12buffer_rangeIcEEE17padded_int_writerINS5_10int_writerIcNS0_18basic_format_specsIcEEE10dec_writerEEclIRPcEEvOT_ = comdat any

$_ZNK3fmt2v68internal12basic_writerINS0_12buffer_rangeIcEEE10int_writerIcNS0_18basic_format_specsIcEEE10dec_writerclIRPcEEvOT_ = comdat any

$_ZN3fmt2v68internal12basic_writerINS0_12buffer_rangeIcEEE9write_intINS5_10int_writerIcNS0_18basic_format_specsIcEEE10hex_writerEEEviNS0_17basic_string_viewIcEES9_T_ = comdat any

$_ZN3fmt2v68internal12basic_writerINS0_12buffer_rangeIcEEE12write_paddedINS5_17padded_int_writerINS5_10int_writerIcNS0_18basic_format_specsIcEEE10hex_writerEEEEEvRKSA_OT_ = comdat any

$_ZNK3fmt2v68internal12basic_writerINS0_12buffer_rangeIcEEE17padded_int_writerINS5_10int_writerIcNS0_18basic_format_specsIcEEE10hex_writerEE4sizeEv = comdat any

$_ZNK3fmt2v68internal12basic_writerINS0_12buffer_rangeIcEEE17padded_int_writerINS5_10int_writerIcNS0_18basic_format_specsIcEEE10hex_writerEE5widthEv = comdat any

$_ZNK3fmt2v68internal12basic_writerINS0_12buffer_rangeIcEEE17padded_int_writerINS5_10int_writerIcNS0_18basic_format_specsIcEEE10hex_writerEEclIPcEEvOT_ = comdat any

$_ZNK3fmt2v68internal12basic_writerINS0_12buffer_rangeIcEEE17padded_int_writerINS5_10int_writerIcNS0_18basic_format_specsIcEEE10hex_writerEEclIRPcEEvOT_ = comdat any

$_ZNK3fmt2v68internal12basic_writerINS0_12buffer_rangeIcEEE10int_writerIcNS0_18basic_format_specsIcEEE10hex_writerclIRPcEEvOT_ = comdat any

$_ZN3fmt2v68internal12basic_writerINS0_12buffer_rangeIcEEE9write_intINS5_10int_writerIcNS0_18basic_format_specsIcEEE10bin_writerILi1EEEEEviNS0_17basic_string_viewIcEES9_T_ = comdat any

$_ZN3fmt2v68internal12basic_writerINS0_12buffer_rangeIcEEE12write_paddedINS5_17padded_int_writerINS5_10int_writerIcNS0_18basic_format_specsIcEEE10bin_writerILi1EEEEEEEvRKSA_OT_ = comdat any

$_ZNK3fmt2v68internal12basic_writerINS0_12buffer_rangeIcEEE17padded_int_writerINS5_10int_writerIcNS0_18basic_format_specsIcEEE10bin_writerILi1EEEE4sizeEv = comdat any

$_ZNK3fmt2v68internal12basic_writerINS0_12buffer_rangeIcEEE17padded_int_writerINS5_10int_writerIcNS0_18basic_format_specsIcEEE10bin_writerILi1EEEE5widthEv = comdat any

$_ZNK3fmt2v68internal12basic_writerINS0_12buffer_rangeIcEEE17padded_int_writerINS5_10int_writerIcNS0_18basic_format_specsIcEEE10bin_writerILi1EEEEclIPcEEvOT_ = comdat any

$_ZNK3fmt2v68internal12basic_writerINS0_12buffer_rangeIcEEE17padded_int_writerINS5_10int_writerIcNS0_18basic_format_specsIcEEE10bin_writerILi1EEEEclIRPcEEvOT_ = comdat any

$_ZNK3fmt2v68internal12basic_writerINS0_12buffer_rangeIcEEE10int_writerIcNS0_18basic_format_specsIcEEE10bin_writerILi1EEclIRPcEEvOT_ = comdat any

$_ZN3fmt2v68internal12basic_writerINS0_12buffer_rangeIcEEE9write_intINS5_10int_writerIcNS0_18basic_format_specsIcEEE10bin_writerILi3EEEEEviNS0_17basic_string_viewIcEES9_T_ = comdat any

$_ZN3fmt2v68internal12basic_writerINS0_12buffer_rangeIcEEE12write_paddedINS5_17padded_int_writerINS5_10int_writerIcNS0_18basic_format_specsIcEEE10bin_writerILi3EEEEEEEvRKSA_OT_ = comdat any

$_ZNK3fmt2v68internal12basic_writerINS0_12buffer_rangeIcEEE17padded_int_writerINS5_10int_writerIcNS0_18basic_format_specsIcEEE10bin_writerILi3EEEE4sizeEv = comdat any

$_ZNK3fmt2v68internal12basic_writerINS0_12buffer_rangeIcEEE17padded_int_writerINS5_10int_writerIcNS0_18basic_format_specsIcEEE10bin_writerILi3EEEE5widthEv = comdat any

$_ZNK3fmt2v68internal12basic_writerINS0_12buffer_rangeIcEEE17padded_int_writerINS5_10int_writerIcNS0_18basic_format_specsIcEEE10bin_writerILi3EEEEclIPcEEvOT_ = comdat any

$_ZNK3fmt2v68internal12basic_writerINS0_12buffer_rangeIcEEE17padded_int_writerINS5_10int_writerIcNS0_18basic_format_specsIcEEE10bin_writerILi3EEEEclIRPcEEvOT_ = comdat any

$_ZNK3fmt2v68internal12basic_writerINS0_12buffer_rangeIcEEE10int_writerIcNS0_18basic_format_specsIcEEE10bin_writerILi3EEclIRPcEEvOT_ = comdat any

$_ZN3fmt2v68internal12basic_writerINS0_12buffer_rangeIcEEE9write_intINS5_10int_writerIcNS0_18basic_format_specsIcEEE10num_writerEEEviNS0_17basic_string_viewIcEES9_T_ = comdat any

$_ZN3fmt2v68internal12basic_writerINS0_12buffer_rangeIcEEE12write_paddedINS5_17padded_int_writerINS5_10int_writerIcNS0_18basic_format_specsIcEEE10num_writerEEEEEvRKSA_OT_ = comdat any

$_ZNK3fmt2v68internal12basic_writerINS0_12buffer_rangeIcEEE17padded_int_writerINS5_10int_writerIcNS0_18basic_format_specsIcEEE10num_writerEE4sizeEv = comdat any

$_ZNK3fmt2v68internal12basic_writerINS0_12buffer_rangeIcEEE17padded_int_writerINS5_10int_writerIcNS0_18basic_format_specsIcEEE10num_writerEE5widthEv = comdat any

$_ZNK3fmt2v68internal12basic_writerINS0_12buffer_rangeIcEEE17padded_int_writerINS5_10int_writerIcNS0_18basic_format_specsIcEEE10num_writerEEclIPcEEvOT_ = comdat any

$_ZNK3fmt2v68internal12basic_writerINS0_12buffer_rangeIcEEE17padded_int_writerINS5_10int_writerIcNS0_18basic_format_specsIcEEE10num_writerEEclIRPcEEvOT_ = comdat any

$_ZNK3fmt2v68internal12basic_writerINS0_12buffer_rangeIcEEE10int_writerIcNS0_18basic_format_specsIcEEE10num_writerclIRPcEEvOT_ = comdat any

$_ZN3fmt2v68internal14format_decimalIcjPcZNKS1_12basic_writerINS0_12buffer_rangeIcEEE10int_writerIcNS0_18basic_format_specsIcEEE10num_writerclIRS3_EEvOT_EUlSE_E_EET1_SI_T0_iT2_ = comdat any

$_ZN3fmt2v68internal14format_decimalIjcZNKS1_12basic_writerINS0_12buffer_rangeIcEEE10int_writerIcNS0_18basic_format_specsIcEEE10num_writerclIRPcEEvOT_EUlSE_E_EEPT0_SJ_SF_iT1_ = comdat any

$_ZZNK3fmt2v68internal12basic_writerINS0_12buffer_rangeIcEEE10int_writerIcNS0_18basic_format_specsIcEEE10num_writerclIRPcEEvOT_ENKUlSD_E_clESD_ = comdat any

$_ZN3fmt2v68internal11is_negativeIcTnNSt9enable_ifIXsr3std14numeric_limitsIT_EE9is_signedEiE4typeELi0EEEbS4_ = comdat any

$_ZN3fmt2v68internal12basic_writerINS0_12buffer_rangeIcEEE5writeIfTnNSt9enable_ifIXsr3std17is_floating_pointIT_EE5valueEiE4typeELi0EEEvS8_NS0_18basic_format_specsIcEE = comdat any

$_ZN3fmt2v618basic_format_specsIcEC2Ev = comdat any

$_ZN3fmt2v68internal21parse_float_type_specINS1_13error_handlerEcEENS1_11float_specsERKNS0_18basic_format_specsIT0_EEOT_ = comdat any

$_ZSt7signbitf = comdat any

$_ZSt8isfinitef = comdat any

$_ZSt5isinff = comdat any

$_ZN3fmt2v68internal12basic_writerINS0_12buffer_rangeIcEEE12write_paddedINS1_16nonfinite_writerIcEEEEvRKNS0_18basic_format_specsIcEEOT_ = comdat any

$_ZN3fmt2v68internal6bufferIcE9push_backERKc = comdat any

$_ZN3fmt2v68internal13promote_floatEf = comdat any

$_ZN3fmt2v68internal9max_valueIiEET_v = comdat any

$_ZN3fmt2v68internal11const_checkISt7is_sameIffEEET_S5_ = comdat any

$_ZNKSt17integral_constantIbLb1EEcvbEv = comdat any

$_ZN3fmt2v68internal9use_grisuIfEEbv = comdat any

$_ZN3fmt2v68internal11const_checkIiEET_S3_ = comdat any

$_ZN3fmt2v68internal13decimal_pointIcEET_NS1_10locale_refE = comdat any

$_ZN3fmt2v68internal12basic_writerINS0_12buffer_rangeIcEEE12write_paddedINS1_12float_writerIcEEEEvRKNS0_18basic_format_specsIcEEOT_ = comdat any

$_ZN3fmt2v68internal12float_writerIcEC2EPKciiNS1_11float_specsEc = comdat any

$_ZNK3fmt2v68internal16nonfinite_writerIcE4sizeEv = comdat any

$_ZNK3fmt2v68internal16nonfinite_writerIcE5widthEv = comdat any

$_ZNK3fmt2v68internal16nonfinite_writerIcEclIPcEEvOT_ = comdat any

$_ZNK3fmt2v68internal16nonfinite_writerIcEclIRPcEEvOT_ = comdat any

$_ZNSt14numeric_limitsIiE3maxEv = comdat any

$_ZNK3fmt2v68internal12float_writerIcE4sizeEv = comdat any

$_ZNK3fmt2v68internal12float_writerIcE5widthEv = comdat any

$_ZN3fmt2v68internal12float_writerIcEclIPcEEvOT_ = comdat any

$_ZN3fmt2v68internal12float_writerIcEclIRPcEEvOT_ = comdat any

$_ZNK3fmt2v68internal12float_writerIcE8prettifyIPcEET_S6_ = comdat any

$_ZSt6fill_nIPcicET_S1_T0_RKT1_ = comdat any

$_ZN3fmt2v68internal14write_exponentIcPcEET0_iS4_ = comdat any

$_ZSt10__fill_n_aIPcicET_S1_T0_RKT1_St26random_access_iterator_tag = comdat any

$_ZSt17__size_to_integeri = comdat any

$_ZNK3fmt2v68internal12float_writerIcE8prettifyINS1_17counting_iteratorEEET_S6_ = comdat any

$_ZN3fmt2v68internal17counting_iteratorC2Ev = comdat any

$_ZNK3fmt2v68internal17counting_iterator5countEv = comdat any

$_ZN3fmt2v68internal17counting_iteratorppEi = comdat any

$_ZNK3fmt2v68internal17counting_iteratordeEv = comdat any

$_ZN3fmt2v68internal17counting_iterator10value_typeaSIcEEvRKT_ = comdat any

$_ZN3fmt2v68internal8copy_strIcPKcNS1_17counting_iteratorETnNSt9enable_ifIXntsr16needs_conversionIT0_T_EE5valueEiE4typeELi0EEET1_S7_S7_SB_ = comdat any

$_ZSt6fill_nIN3fmt2v68internal17counting_iteratorEicET_S4_T0_RKT1_ = comdat any

$_ZN3fmt2v68internal14write_exponentIcNS1_17counting_iteratorEEET0_iS4_ = comdat any

$_ZN3fmt2v68internal17counting_iteratorppEv = comdat any

$_ZSt4copyIPKcN3fmt2v68internal17counting_iteratorEET0_T_S7_S6_ = comdat any

$_ZSt13__copy_move_aILb0EPKcN3fmt2v68internal17counting_iteratorEET1_T0_S7_S6_ = comdat any

$_ZSt12__niter_wrapIN3fmt2v68internal17counting_iteratorEET_RKS4_S4_ = comdat any

$_ZSt14__copy_move_a1ILb0EPKcN3fmt2v68internal17counting_iteratorEET1_T0_S7_S6_ = comdat any

$_ZSt12__niter_baseIN3fmt2v68internal17counting_iteratorEET_S4_ = comdat any

$_ZSt14__copy_move_a2ILb0EPKcN3fmt2v68internal17counting_iteratorEET1_T0_S7_S6_ = comdat any

$_ZNSt11__copy_moveILb0ELb0ESt26random_access_iterator_tagE8__copy_mIPKcN3fmt2v68internal17counting_iteratorEEET0_T_SA_S9_ = comdat any

$_ZSt10__fill_n_aIN3fmt2v68internal17counting_iteratorEicET_S4_T0_RKT1_St19output_iterator_tag = comdat any

$_ZSt19__iterator_categoryIN3fmt2v68internal17counting_iteratorEENSt15iterator_traitsIT_E17iterator_categoryERKS5_ = comdat any

$_ZSt11__fill_n_a1IN3fmt2v68internal17counting_iteratorEicEN9__gnu_cxx11__enable_ifIXsr11__is_scalarIT1_EE7__valueET_E6__typeES7_T0_RKS6_ = comdat any

$_ZN3fmt2v68internal6fill_tIcE4makeEv = comdat any

$_ZN3fmt2v68internal12basic_writerINS0_12buffer_rangeIcEEE5writeIdTnNSt9enable_ifIXsr3std17is_floating_pointIT_EE5valueEiE4typeELi0EEEvS8_NS0_18basic_format_specsIcEE = comdat any

$_ZSt7signbitd = comdat any

$_ZSt8isfinited = comdat any

$_ZSt5isinfd = comdat any

$_ZN3fmt2v68internal13promote_floatIdEET_S3_ = comdat any

$_ZN3fmt2v68internal11const_checkISt7is_sameIdfEEET_S5_ = comdat any

$_ZNKSt17integral_constantIbLb0EEcvbEv = comdat any

$_ZN3fmt2v68internal9use_grisuIdEEbv = comdat any

$_ZN3fmt2v68internal12basic_writerINS0_12buffer_rangeIcEEE5writeIeTnNSt9enable_ifIXsr3std17is_floating_pointIT_EE5valueEiE4typeELi0EEEvS8_NS0_18basic_format_specsIcEE = comdat any

$_ZSt7signbite = comdat any

$_ZSt8isfinitee = comdat any

$_ZSt5isinfe = comdat any

$_ZN3fmt2v68internal13promote_floatIeEET_S3_ = comdat any

$_ZN3fmt2v68internal11const_checkISt7is_sameIefEEET_S5_ = comdat any

$_ZN3fmt2v68internal9use_grisuIeEEbv = comdat any

$_ZN3fmt2v68internal18arg_formatter_baseINS0_12buffer_rangeIcEENS1_13error_handlerEE5writeEPKc = comdat any

$_ZN3fmt2v68internal24handle_cstring_type_specIcNS1_18arg_formatter_baseINS0_12buffer_rangeIcEENS1_13error_handlerEE20cstring_spec_handlerEEEvT_OT0_ = comdat any

$_ZN3fmt2v68internal18arg_formatter_baseINS0_12buffer_rangeIcEENS1_13error_handlerEE20cstring_spec_handlerC2ERS6_PKc = comdat any

$_ZN3fmt2v68internal18arg_formatter_baseINS0_12buffer_rangeIcEENS1_13error_handlerEE20cstring_spec_handler9on_stringEv = comdat any

$_ZN3fmt2v68internal18arg_formatter_baseINS0_12buffer_rangeIcEENS1_13error_handlerEE20cstring_spec_handler10on_pointerEv = comdat any

$_ZN3fmt2v68internal18arg_formatter_baseINS0_12buffer_rangeIcEENS1_13error_handlerEE13write_pointerEPKv = comdat any

$_ZN3fmt2v68internal12basic_writerINS0_12buffer_rangeIcEEE13write_pointerImEEvT_PKNS0_18basic_format_specsIcEE = comdat any

$_ZN3fmt2v68internal10to_uintptrEPKv = comdat any

$_ZNK3fmt2v68internal12basic_writerINS0_12buffer_rangeIcEEE14pointer_writerImEclIPcEEvOT_ = comdat any

$_ZN3fmt2v68internal12basic_writerINS0_12buffer_rangeIcEEE12write_paddedIRNS5_14pointer_writerImEEEEvRKNS0_18basic_format_specsIcEEOT_ = comdat any

$_ZNK3fmt2v68internal12basic_writerINS0_12buffer_rangeIcEEE14pointer_writerImE4sizeEv = comdat any

$_ZNK3fmt2v68internal12basic_writerINS0_12buffer_rangeIcEEE14pointer_writerImE5widthEv = comdat any

$_ZNK3fmt2v68internal12basic_writerINS0_12buffer_rangeIcEEE14pointer_writerImEclIRPcEEvOT_ = comdat any

$_ZN3fmt2v68internal8bit_castImPKvEET_RKT0_ = comdat any

$_ZN3fmt2v68internal22check_string_type_specIcNS1_13error_handlerEEEvT_OT0_ = comdat any

$_ZN3fmt2v68internal23check_pointer_type_specIcNS1_13error_handlerEEEvT_OT0_ = comdat any

$_ZNK3fmt2v616basic_format_argINS0_20basic_format_contextISt20back_insert_iteratorINS0_8internal6bufferIcEEEcEEE6handle6formatERNS0_26basic_format_parse_contextIcNS4_13error_handlerEEERS8_ = comdat any

$_ZN3fmt2v612buffer_rangeIcECI2NS0_8internal12output_rangeISt20back_insert_iteratorINS3_6bufferIcEEEcEEES8_ = comdat any

$_ZN3fmt2v620basic_format_contextISt20back_insert_iteratorINS0_8internal6bufferIcEEEcE6localeEv = comdat any

$_ZN3fmt2v68internal18arg_formatter_baseINS0_12buffer_rangeIcEENS1_13error_handlerEEC2ES4_PNS0_18basic_format_specsIcEENS1_10locale_refE = comdat any

$_ZN3fmt2v68internal12output_rangeISt20back_insert_iteratorINS1_6bufferIcEEEcEC2ES6_ = comdat any

$_ZN3fmt2v68internal12basic_writerINS0_12buffer_rangeIcEEEC2ES4_NS1_10locale_refE = comdat any

$_ZSt6copy_nIPKcmPcET1_T_T0_S3_ = comdat any

$_ZSt8__copy_nIPKcmPcET1_T_T0_S3_St26random_access_iterator_tag = comdat any

$_ZN3fmt2v68internal10id_adapterIRNS0_14format_handlerINS0_13arg_formatterINS0_12buffer_rangeIcEEEEcNS0_20basic_format_contextISt20back_insert_iteratorINS1_6bufferIcEEEcEEEEcEclEv = comdat any

$_ZN3fmt2v68internal21parse_nonnegative_intIcRNS1_10id_adapterIRNS0_14format_handlerINS0_13arg_formatterINS0_12buffer_rangeIcEEEEcNS0_20basic_format_contextISt20back_insert_iteratorINS1_6bufferIcEEEcEEEEcEEEEiRPKT_SL_OT0_ = comdat any

$_ZN3fmt2v68internal10id_adapterIRNS0_14format_handlerINS0_13arg_formatterINS0_12buffer_rangeIcEEEEcNS0_20basic_format_contextISt20back_insert_iteratorINS1_6bufferIcEEEcEEEEcE8on_errorEPKc = comdat any

$_ZN3fmt2v68internal10id_adapterIRNS0_14format_handlerINS0_13arg_formatterINS0_12buffer_rangeIcEEEEcNS0_20basic_format_contextISt20back_insert_iteratorINS1_6bufferIcEEEcEEEEcEclEi = comdat any

$_ZN3fmt2v68internal13is_name_startIcEEbT_ = comdat any

$_ZN3fmt2v68internal10id_adapterIRNS0_14format_handlerINS0_13arg_formatterINS0_12buffer_rangeIcEEEEcNS0_20basic_format_contextISt20back_insert_iteratorINS1_6bufferIcEEEcEEEEcEclENS0_17basic_string_viewIcEE = comdat any

$_ZN3fmt2v614format_handlerINS0_13arg_formatterINS0_12buffer_rangeIcEEEEcNS0_20basic_format_contextISt20back_insert_iteratorINS0_8internal6bufferIcEEEcEEE9on_arg_idEi = comdat any

$_ZN3fmt2v626basic_format_parse_contextIcNS0_8internal13error_handlerEE12check_arg_idEi = comdat any

$_ZN3fmt2v614format_handlerINS0_13arg_formatterINS0_12buffer_rangeIcEEEEcNS0_20basic_format_contextISt20back_insert_iteratorINS0_8internal6bufferIcEEEcEEE9on_arg_idENS0_17basic_string_viewIcEE = comdat any

$_ZN3fmt2v620basic_format_contextISt20back_insert_iteratorINS0_8internal6bufferIcEEEcE3argENS0_17basic_string_viewIcEE = comdat any

$_ZN3fmt2v68internal7arg_mapINS0_20basic_format_contextISt20back_insert_iteratorINS1_6bufferIcEEEcEEE4initERKNS0_17basic_format_argsIS8_EE = comdat any

$_ZNK3fmt2v68internal7arg_mapINS0_20basic_format_contextISt20back_insert_iteratorINS1_6bufferIcEEEcEEE4findENS0_17basic_string_viewIcEE = comdat any

$_ZNK3fmt2v616basic_format_argINS0_20basic_format_contextISt20back_insert_iteratorINS0_8internal6bufferIcEEEcEEE4typeEv = comdat any

$_ZN3fmt2v68internal7arg_mapINS0_20basic_format_contextISt20back_insert_iteratorINS1_6bufferIcEEEcEEE5entryC2Ev = comdat any

$_ZN3fmt2v68internal7arg_mapINS0_20basic_format_contextISt20back_insert_iteratorINS1_6bufferIcEEEcEEE9push_backENS1_5valueIS8_EE = comdat any

$_ZN3fmt2v617basic_string_viewIcEC2Ev = comdat any

$_ZN3fmt2v6eqENS0_17basic_string_viewIcEES2_ = comdat any

$_ZNK3fmt2v617basic_string_viewIcE7compareES2_ = comdat any

$_ZNSt11char_traitsIcE7compareEPKcS2_m = comdat any

$_ZN3fmt2v68internal16custom_formatterINS0_20basic_format_contextISt20back_insert_iteratorINS1_6bufferIcEEEcEEEC2ERNS0_26basic_format_parse_contextIcNS1_13error_handlerEEERS8_ = comdat any

$_ZN3fmt2v616visit_format_argIRNS0_8internal16custom_formatterINS0_20basic_format_contextISt20back_insert_iteratorINS2_6bufferIcEEEcEEEES9_EEDTclfp_Li0EEEOT_RKNS0_16basic_format_argIT0_EE = comdat any

$_ZN3fmt2v68internal13specs_handlerINS0_26basic_format_parse_contextIcNS1_13error_handlerEEENS0_20basic_format_contextISt20back_insert_iteratorINS1_6bufferIcEEEcEEEC2ERNS0_18basic_format_specsIcEERS5_RSB_ = comdat any

$_ZN3fmt2v68internal13specs_checkerINS1_13specs_handlerINS0_26basic_format_parse_contextIcNS1_13error_handlerEEENS0_20basic_format_contextISt20back_insert_iteratorINS1_6bufferIcEEEcEEEEEC2ERKSD_NS1_4typeE = comdat any

$_ZN3fmt2v68internal18parse_format_specsIcRNS1_13specs_checkerINS1_13specs_handlerINS0_26basic_format_parse_contextIcNS1_13error_handlerEEENS0_20basic_format_contextISt20back_insert_iteratorINS1_6bufferIcEEEcEEEEEEEEPKT_SJ_SJ_OT0_ = comdat any

$_ZNK3fmt2v68internal16custom_formatterINS0_20basic_format_contextISt20back_insert_iteratorINS1_6bufferIcEEEcEEEclIiEEbT_ = comdat any

$_ZNK3fmt2v68internal16custom_formatterINS0_20basic_format_contextISt20back_insert_iteratorINS1_6bufferIcEEEcEEEclIjEEbT_ = comdat any

$_ZNK3fmt2v68internal16custom_formatterINS0_20basic_format_contextISt20back_insert_iteratorINS1_6bufferIcEEEcEEEclIxEEbT_ = comdat any

$_ZNK3fmt2v68internal16custom_formatterINS0_20basic_format_contextISt20back_insert_iteratorINS1_6bufferIcEEEcEEEclIyEEbT_ = comdat any

$_ZNK3fmt2v68internal16custom_formatterINS0_20basic_format_contextISt20back_insert_iteratorINS1_6bufferIcEEEcEEEclInEEbT_ = comdat any

$_ZNK3fmt2v68internal16custom_formatterINS0_20basic_format_contextISt20back_insert_iteratorINS1_6bufferIcEEEcEEEclIoEEbT_ = comdat any

$_ZNK3fmt2v68internal16custom_formatterINS0_20basic_format_contextISt20back_insert_iteratorINS1_6bufferIcEEEcEEEclIbEEbT_ = comdat any

$_ZNK3fmt2v68internal16custom_formatterINS0_20basic_format_contextISt20back_insert_iteratorINS1_6bufferIcEEEcEEEclIcEEbT_ = comdat any

$_ZNK3fmt2v68internal16custom_formatterINS0_20basic_format_contextISt20back_insert_iteratorINS1_6bufferIcEEEcEEEclIfEEbT_ = comdat any

$_ZNK3fmt2v68internal16custom_formatterINS0_20basic_format_contextISt20back_insert_iteratorINS1_6bufferIcEEEcEEEclIdEEbT_ = comdat any

$_ZNK3fmt2v68internal16custom_formatterINS0_20basic_format_contextISt20back_insert_iteratorINS1_6bufferIcEEEcEEEclIeEEbT_ = comdat any

$_ZNK3fmt2v68internal16custom_formatterINS0_20basic_format_contextISt20back_insert_iteratorINS1_6bufferIcEEEcEEEclIPKcEEbT_ = comdat any

$_ZNK3fmt2v68internal16custom_formatterINS0_20basic_format_contextISt20back_insert_iteratorINS1_6bufferIcEEEcEEEclINS0_17basic_string_viewIcEEEEbT_ = comdat any

$_ZNK3fmt2v68internal16custom_formatterINS0_20basic_format_contextISt20back_insert_iteratorINS1_6bufferIcEEEcEEEclIPKvEEbT_ = comdat any

$_ZNK3fmt2v68internal16custom_formatterINS0_20basic_format_contextISt20back_insert_iteratorINS1_6bufferIcEEEcEEEclENS0_16basic_format_argIS8_E6handleE = comdat any

$_ZNK3fmt2v68internal16custom_formatterINS0_20basic_format_contextISt20back_insert_iteratorINS1_6bufferIcEEEcEEEclINS0_9monostateEEEbT_ = comdat any

$_ZN3fmt2v68internal12specs_setterIcEC2ERNS0_18basic_format_specsIcEE = comdat any

$_ZN3fmt2v68internal13specs_handlerINS0_26basic_format_parse_contextIcNS1_13error_handlerEEENS0_20basic_format_contextISt20back_insert_iteratorINS1_6bufferIcEEEcEEEC2ERKSC_ = comdat any

$_ZN3fmt2v68internal21numeric_specs_checkerINS1_13specs_handlerINS0_26basic_format_parse_contextIcNS1_13error_handlerEEENS0_20basic_format_contextISt20back_insert_iteratorINS1_6bufferIcEEEcEEEEEC2ERSD_NS1_4typeE = comdat any

$_ZN3fmt2v68internal12specs_setterIcEC2ERKS3_ = comdat any

$_ZN3fmt2v68internal11parse_alignIcRNS1_13specs_checkerINS1_13specs_handlerINS0_26basic_format_parse_contextIcNS1_13error_handlerEEENS0_20basic_format_contextISt20back_insert_iteratorINS1_6bufferIcEEEcEEEEEEEEPKT_SJ_SJ_OT0_ = comdat any

$_ZN3fmt2v68internal13specs_checkerINS1_13specs_handlerINS0_26basic_format_parse_contextIcNS1_13error_handlerEEENS0_20basic_format_contextISt20back_insert_iteratorINS1_6bufferIcEEEcEEEEE7on_plusEv = comdat any

$_ZN3fmt2v68internal13specs_checkerINS1_13specs_handlerINS0_26basic_format_parse_contextIcNS1_13error_handlerEEENS0_20basic_format_contextISt20back_insert_iteratorINS1_6bufferIcEEEcEEEEE8on_minusEv = comdat any

$_ZN3fmt2v68internal13specs_checkerINS1_13specs_handlerINS0_26basic_format_parse_contextIcNS1_13error_handlerEEENS0_20basic_format_contextISt20back_insert_iteratorINS1_6bufferIcEEEcEEEEE8on_spaceEv = comdat any

$_ZN3fmt2v68internal13specs_checkerINS1_13specs_handlerINS0_26basic_format_parse_contextIcNS1_13error_handlerEEENS0_20basic_format_contextISt20back_insert_iteratorINS1_6bufferIcEEEcEEEEE7on_hashEv = comdat any

$_ZN3fmt2v68internal13specs_checkerINS1_13specs_handlerINS0_26basic_format_parse_contextIcNS1_13error_handlerEEENS0_20basic_format_contextISt20back_insert_iteratorINS1_6bufferIcEEEcEEEEE7on_zeroEv = comdat any

$_ZN3fmt2v68internal11parse_widthIcRNS1_13specs_checkerINS1_13specs_handlerINS0_26basic_format_parse_contextIcNS1_13error_handlerEEENS0_20basic_format_contextISt20back_insert_iteratorINS1_6bufferIcEEEcEEEEEEEEPKT_SJ_SJ_OT0_ = comdat any

$_ZN3fmt2v68internal15parse_precisionIcRNS1_13specs_checkerINS1_13specs_handlerINS0_26basic_format_parse_contextIcNS1_13error_handlerEEENS0_20basic_format_contextISt20back_insert_iteratorINS1_6bufferIcEEEcEEEEEEEEPKT_SJ_SJ_OT0_ = comdat any

$_ZN3fmt2v68internal12specs_setterIcE7on_typeEc = comdat any

$_ZN3fmt2v68internal13specs_handlerINS0_26basic_format_parse_contextIcNS1_13error_handlerEEENS0_20basic_format_contextISt20back_insert_iteratorINS1_6bufferIcEEEcEEE8on_errorEPKc = comdat any

$_ZN3fmt2v68internal12specs_setterIcE7on_fillEc = comdat any

$_ZN3fmt2v68internal13specs_checkerINS1_13specs_handlerINS0_26basic_format_parse_contextIcNS1_13error_handlerEEENS0_20basic_format_contextISt20back_insert_iteratorINS1_6bufferIcEEEcEEEEE8on_alignENS0_5align4typeE = comdat any

$_ZN3fmt2v68internal21numeric_specs_checkerINS1_13specs_handlerINS0_26basic_format_parse_contextIcNS1_13error_handlerEEENS0_20basic_format_contextISt20back_insert_iteratorINS1_6bufferIcEEEcEEEEE24require_numeric_argumentEv = comdat any

$_ZN3fmt2v68internal12specs_setterIcE8on_alignENS0_5align4typeE = comdat any

$_ZN3fmt2v68internal18is_arithmetic_typeENS1_4typeE = comdat any

$_ZN3fmt2v68internal21numeric_specs_checkerINS1_13specs_handlerINS0_26basic_format_parse_contextIcNS1_13error_handlerEEENS0_20basic_format_contextISt20back_insert_iteratorINS1_6bufferIcEEEcEEEEE10check_signEv = comdat any

$_ZN3fmt2v68internal12specs_setterIcE7on_plusEv = comdat any

$_ZN3fmt2v68internal16is_integral_typeENS1_4typeE = comdat any

$_ZN3fmt2v68internal12specs_setterIcE8on_minusEv = comdat any

$_ZN3fmt2v68internal12specs_setterIcE8on_spaceEv = comdat any

$_ZN3fmt2v68internal12specs_setterIcE7on_hashEv = comdat any

$_ZN3fmt2v68internal12specs_setterIcE7on_zeroEv = comdat any

$_ZN3fmt2v68internal12specs_setterIcE8on_widthEi = comdat any

$_ZN3fmt2v68internal21parse_nonnegative_intIcRNS1_13specs_checkerINS1_13specs_handlerINS0_26basic_format_parse_contextIcNS1_13error_handlerEEENS0_20basic_format_contextISt20back_insert_iteratorINS1_6bufferIcEEEcEEEEEEEEiRPKT_SJ_OT0_ = comdat any

$_ZN3fmt2v68internal12parse_arg_idIcNS1_13width_adapterIRNS1_13specs_checkerINS1_13specs_handlerINS0_26basic_format_parse_contextIcNS1_13error_handlerEEENS0_20basic_format_contextISt20back_insert_iteratorINS1_6bufferIcEEEcEEEEEEcEEEEPKT_SL_SL_OT0_ = comdat any

$_ZN3fmt2v68internal13width_adapterIRNS1_13specs_checkerINS1_13specs_handlerINS0_26basic_format_parse_contextIcNS1_13error_handlerEEENS0_20basic_format_contextISt20back_insert_iteratorINS1_6bufferIcEEEcEEEEEEcEC2ESG_ = comdat any

$_ZN3fmt2v68internal13width_adapterIRNS1_13specs_checkerINS1_13specs_handlerINS0_26basic_format_parse_contextIcNS1_13error_handlerEEENS0_20basic_format_contextISt20back_insert_iteratorINS1_6bufferIcEEEcEEEEEEcEclEv = comdat any

$_ZN3fmt2v68internal21parse_nonnegative_intIcRNS1_13width_adapterIRNS1_13specs_checkerINS1_13specs_handlerINS0_26basic_format_parse_contextIcNS1_13error_handlerEEENS0_20basic_format_contextISt20back_insert_iteratorINS1_6bufferIcEEEcEEEEEEcEEEEiRPKT_SM_OT0_ = comdat any

$_ZN3fmt2v68internal13width_adapterIRNS1_13specs_checkerINS1_13specs_handlerINS0_26basic_format_parse_contextIcNS1_13error_handlerEEENS0_20basic_format_contextISt20back_insert_iteratorINS1_6bufferIcEEEcEEEEEEcE8on_errorEPKc = comdat any

$_ZN3fmt2v68internal13width_adapterIRNS1_13specs_checkerINS1_13specs_handlerINS0_26basic_format_parse_contextIcNS1_13error_handlerEEENS0_20basic_format_contextISt20back_insert_iteratorINS1_6bufferIcEEEcEEEEEEcEclEi = comdat any

$_ZN3fmt2v68internal13width_adapterIRNS1_13specs_checkerINS1_13specs_handlerINS0_26basic_format_parse_contextIcNS1_13error_handlerEEENS0_20basic_format_contextISt20back_insert_iteratorINS1_6bufferIcEEEcEEEEEEcEclENS0_17basic_string_viewIcEE = comdat any

$_ZN3fmt2v68internal13specs_handlerINS0_26basic_format_parse_contextIcNS1_13error_handlerEEENS0_20basic_format_contextISt20back_insert_iteratorINS1_6bufferIcEEEcEEE16on_dynamic_widthINS1_7auto_idEEEvT_ = comdat any

$_ZN3fmt2v68internal16get_dynamic_specINS1_13width_checkerENS0_16basic_format_argINS0_20basic_format_contextISt20back_insert_iteratorINS1_6bufferIcEEEcEEEENS1_13error_handlerEEEiT0_T1_ = comdat any

$_ZN3fmt2v68internal13specs_handlerINS0_26basic_format_parse_contextIcNS1_13error_handlerEEENS0_20basic_format_contextISt20back_insert_iteratorINS1_6bufferIcEEEcEEE7get_argENS1_7auto_idE = comdat any

$_ZN3fmt2v616visit_format_argINS0_8internal13width_checkerINS2_13error_handlerEEENS0_20basic_format_contextISt20back_insert_iteratorINS2_6bufferIcEEEcEEEEDTclfp_Li0EEEOT_RKNS0_16basic_format_argIT0_EE = comdat any

$_ZN3fmt2v68internal13width_checkerINS1_13error_handlerEEC2ERS3_ = comdat any

$_ZN3fmt2v68internal13width_checkerINS1_13error_handlerEEclIiTnNSt9enable_ifIXsr10is_integerIT_EE5valueEiE4typeELi0EEEyS7_ = comdat any

$_ZN3fmt2v68internal13width_checkerINS1_13error_handlerEEclIjTnNSt9enable_ifIXsr10is_integerIT_EE5valueEiE4typeELi0EEEyS7_ = comdat any

$_ZN3fmt2v68internal13width_checkerINS1_13error_handlerEEclIxTnNSt9enable_ifIXsr10is_integerIT_EE5valueEiE4typeELi0EEEyS7_ = comdat any

$_ZN3fmt2v68internal13width_checkerINS1_13error_handlerEEclIyTnNSt9enable_ifIXsr10is_integerIT_EE5valueEiE4typeELi0EEEyS7_ = comdat any

$_ZN3fmt2v68internal13width_checkerINS1_13error_handlerEEclInTnNSt9enable_ifIXsr10is_integerIT_EE5valueEiE4typeELi0EEEyS7_ = comdat any

$_ZN3fmt2v68internal13width_checkerINS1_13error_handlerEEclIoTnNSt9enable_ifIXsr10is_integerIT_EE5valueEiE4typeELi0EEEyS7_ = comdat any

$_ZN3fmt2v68internal13width_checkerINS1_13error_handlerEEclIbTnNSt9enable_ifIXntsr10is_integerIT_EE5valueEiE4typeELi0EEEyS7_ = comdat any

$_ZN3fmt2v68internal13width_checkerINS1_13error_handlerEEclIcTnNSt9enable_ifIXntsr10is_integerIT_EE5valueEiE4typeELi0EEEyS7_ = comdat any

$_ZN3fmt2v68internal13width_checkerINS1_13error_handlerEEclIfTnNSt9enable_ifIXntsr10is_integerIT_EE5valueEiE4typeELi0EEEyS7_ = comdat any

$_ZN3fmt2v68internal13width_checkerINS1_13error_handlerEEclIdTnNSt9enable_ifIXntsr10is_integerIT_EE5valueEiE4typeELi0EEEyS7_ = comdat any

$_ZN3fmt2v68internal13width_checkerINS1_13error_handlerEEclIeTnNSt9enable_ifIXntsr10is_integerIT_EE5valueEiE4typeELi0EEEyS7_ = comdat any

$_ZN3fmt2v68internal13width_checkerINS1_13error_handlerEEclIPKcTnNSt9enable_ifIXntsr10is_integerIT_EE5valueEiE4typeELi0EEEyS9_ = comdat any

$_ZN3fmt2v68internal13width_checkerINS1_13error_handlerEEclINS0_17basic_string_viewIcEETnNSt9enable_ifIXntsr10is_integerIT_EE5valueEiE4typeELi0EEEyS9_ = comdat any

$_ZN3fmt2v68internal13width_checkerINS1_13error_handlerEEclIPKvTnNSt9enable_ifIXntsr10is_integerIT_EE5valueEiE4typeELi0EEEyS9_ = comdat any

$_ZN3fmt2v68internal13width_checkerINS1_13error_handlerEEclINS0_16basic_format_argINS0_20basic_format_contextISt20back_insert_iteratorINS1_6bufferIcEEEcEEE6handleETnNSt9enable_ifIXntsr10is_integerIT_EE5valueEiE4typeELi0EEEySG_ = comdat any

$_ZN3fmt2v68internal13width_checkerINS1_13error_handlerEEclINS0_9monostateETnNSt9enable_ifIXntsr10is_integerIT_EE5valueEiE4typeELi0EEEyS8_ = comdat any

$_ZN3fmt2v68internal13specs_handlerINS0_26basic_format_parse_contextIcNS1_13error_handlerEEENS0_20basic_format_contextISt20back_insert_iteratorINS1_6bufferIcEEEcEEE16on_dynamic_widthIiEEvT_ = comdat any

$_ZN3fmt2v68internal13specs_handlerINS0_26basic_format_parse_contextIcNS1_13error_handlerEEENS0_20basic_format_contextISt20back_insert_iteratorINS1_6bufferIcEEEcEEE7get_argEi = comdat any

$_ZN3fmt2v68internal13specs_handlerINS0_26basic_format_parse_contextIcNS1_13error_handlerEEENS0_20basic_format_contextISt20back_insert_iteratorINS1_6bufferIcEEEcEEE16on_dynamic_widthINS0_17basic_string_viewIcEEEEvT_ = comdat any

$_ZN3fmt2v68internal13specs_handlerINS0_26basic_format_parse_contextIcNS1_13error_handlerEEENS0_20basic_format_contextISt20back_insert_iteratorINS1_6bufferIcEEEcEEE7get_argENS0_17basic_string_viewIcEE = comdat any

$_ZN3fmt2v626basic_format_parse_contextIcNS0_8internal13error_handlerEE12check_arg_idENS0_17basic_string_viewIcEE = comdat any

$_ZN3fmt2v68internal12specs_setterIcE12on_precisionEi = comdat any

$_ZN3fmt2v68internal12parse_arg_idIcNS1_17precision_adapterIRNS1_13specs_checkerINS1_13specs_handlerINS0_26basic_format_parse_contextIcNS1_13error_handlerEEENS0_20basic_format_contextISt20back_insert_iteratorINS1_6bufferIcEEEcEEEEEEcEEEEPKT_SL_SL_OT0_ = comdat any

$_ZN3fmt2v68internal17precision_adapterIRNS1_13specs_checkerINS1_13specs_handlerINS0_26basic_format_parse_contextIcNS1_13error_handlerEEENS0_20basic_format_contextISt20back_insert_iteratorINS1_6bufferIcEEEcEEEEEEcEC2ESG_ = comdat any

$_ZN3fmt2v68internal13specs_checkerINS1_13specs_handlerINS0_26basic_format_parse_contextIcNS1_13error_handlerEEENS0_20basic_format_contextISt20back_insert_iteratorINS1_6bufferIcEEEcEEEEE13end_precisionEv = comdat any

$_ZN3fmt2v68internal17precision_adapterIRNS1_13specs_checkerINS1_13specs_handlerINS0_26basic_format_parse_contextIcNS1_13error_handlerEEENS0_20basic_format_contextISt20back_insert_iteratorINS1_6bufferIcEEEcEEEEEEcEclEv = comdat any

$_ZN3fmt2v68internal21parse_nonnegative_intIcRNS1_17precision_adapterIRNS1_13specs_checkerINS1_13specs_handlerINS0_26basic_format_parse_contextIcNS1_13error_handlerEEENS0_20basic_format_contextISt20back_insert_iteratorINS1_6bufferIcEEEcEEEEEEcEEEEiRPKT_SM_OT0_ = comdat any

$_ZN3fmt2v68internal17precision_adapterIRNS1_13specs_checkerINS1_13specs_handlerINS0_26basic_format_parse_contextIcNS1_13error_handlerEEENS0_20basic_format_contextISt20back_insert_iteratorINS1_6bufferIcEEEcEEEEEEcE8on_errorEPKc = comdat any

$_ZN3fmt2v68internal17precision_adapterIRNS1_13specs_checkerINS1_13specs_handlerINS0_26basic_format_parse_contextIcNS1_13error_handlerEEENS0_20basic_format_contextISt20back_insert_iteratorINS1_6bufferIcEEEcEEEEEEcEclEi = comdat any

$_ZN3fmt2v68internal17precision_adapterIRNS1_13specs_checkerINS1_13specs_handlerINS0_26basic_format_parse_contextIcNS1_13error_handlerEEENS0_20basic_format_contextISt20back_insert_iteratorINS1_6bufferIcEEEcEEEEEEcEclENS0_17basic_string_viewIcEE = comdat any

$_ZN3fmt2v68internal13specs_handlerINS0_26basic_format_parse_contextIcNS1_13error_handlerEEENS0_20basic_format_contextISt20back_insert_iteratorINS1_6bufferIcEEEcEEE20on_dynamic_precisionINS1_7auto_idEEEvT_ = comdat any

$_ZN3fmt2v68internal16get_dynamic_specINS1_17precision_checkerENS0_16basic_format_argINS0_20basic_format_contextISt20back_insert_iteratorINS1_6bufferIcEEEcEEEENS1_13error_handlerEEEiT0_T1_ = comdat any

$_ZN3fmt2v616visit_format_argINS0_8internal17precision_checkerINS2_13error_handlerEEENS0_20basic_format_contextISt20back_insert_iteratorINS2_6bufferIcEEEcEEEEDTclfp_Li0EEEOT_RKNS0_16basic_format_argIT0_EE = comdat any

$_ZN3fmt2v68internal17precision_checkerINS1_13error_handlerEEC2ERS3_ = comdat any

$_ZN3fmt2v68internal17precision_checkerINS1_13error_handlerEEclIiTnNSt9enable_ifIXsr10is_integerIT_EE5valueEiE4typeELi0EEEyS7_ = comdat any

$_ZN3fmt2v68internal17precision_checkerINS1_13error_handlerEEclIjTnNSt9enable_ifIXsr10is_integerIT_EE5valueEiE4typeELi0EEEyS7_ = comdat any

$_ZN3fmt2v68internal17precision_checkerINS1_13error_handlerEEclIxTnNSt9enable_ifIXsr10is_integerIT_EE5valueEiE4typeELi0EEEyS7_ = comdat any

$_ZN3fmt2v68internal17precision_checkerINS1_13error_handlerEEclIyTnNSt9enable_ifIXsr10is_integerIT_EE5valueEiE4typeELi0EEEyS7_ = comdat any

$_ZN3fmt2v68internal17precision_checkerINS1_13error_handlerEEclInTnNSt9enable_ifIXsr10is_integerIT_EE5valueEiE4typeELi0EEEyS7_ = comdat any

$_ZN3fmt2v68internal17precision_checkerINS1_13error_handlerEEclIoTnNSt9enable_ifIXsr10is_integerIT_EE5valueEiE4typeELi0EEEyS7_ = comdat any

$_ZN3fmt2v68internal17precision_checkerINS1_13error_handlerEEclIbTnNSt9enable_ifIXntsr10is_integerIT_EE5valueEiE4typeELi0EEEyS7_ = comdat any

$_ZN3fmt2v68internal17precision_checkerINS1_13error_handlerEEclIcTnNSt9enable_ifIXntsr10is_integerIT_EE5valueEiE4typeELi0EEEyS7_ = comdat any

$_ZN3fmt2v68internal17precision_checkerINS1_13error_handlerEEclIfTnNSt9enable_ifIXntsr10is_integerIT_EE5valueEiE4typeELi0EEEyS7_ = comdat any

$_ZN3fmt2v68internal17precision_checkerINS1_13error_handlerEEclIdTnNSt9enable_ifIXntsr10is_integerIT_EE5valueEiE4typeELi0EEEyS7_ = comdat any

$_ZN3fmt2v68internal17precision_checkerINS1_13error_handlerEEclIeTnNSt9enable_ifIXntsr10is_integerIT_EE5valueEiE4typeELi0EEEyS7_ = comdat any

$_ZN3fmt2v68internal17precision_checkerINS1_13error_handlerEEclIPKcTnNSt9enable_ifIXntsr10is_integerIT_EE5valueEiE4typeELi0EEEyS9_ = comdat any

$_ZN3fmt2v68internal17precision_checkerINS1_13error_handlerEEclINS0_17basic_string_viewIcEETnNSt9enable_ifIXntsr10is_integerIT_EE5valueEiE4typeELi0EEEyS9_ = comdat any

$_ZN3fmt2v68internal17precision_checkerINS1_13error_handlerEEclIPKvTnNSt9enable_ifIXntsr10is_integerIT_EE5valueEiE4typeELi0EEEyS9_ = comdat any

$_ZN3fmt2v68internal17precision_checkerINS1_13error_handlerEEclINS0_16basic_format_argINS0_20basic_format_contextISt20back_insert_iteratorINS1_6bufferIcEEEcEEE6handleETnNSt9enable_ifIXntsr10is_integerIT_EE5valueEiE4typeELi0EEEySG_ = comdat any

$_ZN3fmt2v68internal17precision_checkerINS1_13error_handlerEEclINS0_9monostateETnNSt9enable_ifIXntsr10is_integerIT_EE5valueEiE4typeELi0EEEyS8_ = comdat any

$_ZN3fmt2v68internal13specs_handlerINS0_26basic_format_parse_contextIcNS1_13error_handlerEEENS0_20basic_format_contextISt20back_insert_iteratorINS1_6bufferIcEEEcEEE20on_dynamic_precisionIiEEvT_ = comdat any

$_ZN3fmt2v68internal13specs_handlerINS0_26basic_format_parse_contextIcNS1_13error_handlerEEENS0_20basic_format_contextISt20back_insert_iteratorINS1_6bufferIcEEEcEEE20on_dynamic_precisionINS0_17basic_string_viewIcEEEEvT_ = comdat any

$_ZN3fmt2v68internal21numeric_specs_checkerINS1_13specs_handlerINS0_26basic_format_parse_contextIcNS1_13error_handlerEEENS0_20basic_format_contextISt20back_insert_iteratorINS1_6bufferIcEEEcEEEEE15check_precisionEv = comdat any

$_ZSt13back_inserterIN3fmt2v68internal6bufferIcEEESt20back_insert_iteratorIT_ERS6_ = comdat any

$_ZNSt20back_insert_iteratorIN3fmt2v68internal6bufferIcEEEC2ERS4_ = comdat any

$_ZNK3fmt2v68internal6bufferIcE4dataEv = comdat any

$_ZN3fmt2v619basic_memory_bufferIcLm500ESaIcEE10deallocateEv = comdat any

$_ZN3fmt2v68internal19check_format_stringIJiEA32_cTnNSt9enable_ifIXntsr17is_compile_stringIT0_EE5valueEiE4typeELi0EEEvRKS5_ = comdat any

$_ZN3fmt2v616format_arg_storeINS0_20basic_format_contextISt20back_insert_iteratorINS0_8internal6bufferIcEEEcEEJiEEC2ERKi = comdat any

$_ZN3fmt2v68internal8make_argILb1ENS0_20basic_format_contextISt20back_insert_iteratorINS1_6bufferIcEEEcEEiTnNSt9enable_ifIXT_EiE4typeELi0EEENS1_5valueIT0_EERKT1_ = comdat any

$_ZN3fmt2v68internal10arg_mapperINS0_20basic_format_contextISt20back_insert_iteratorINS1_6bufferIcEEEcEEE3mapEi = comdat any

$_ZN3fmt2v617basic_format_argsINS0_20basic_format_contextISt20back_insert_iteratorINS0_8internal6bufferIcEEEcEEE8set_dataEPKNS4_5valueIS8_EE = comdat any

$_ZTVN3fmt2v619basic_memory_bufferIcLm500ESaIcEEE = comdat any

$_ZTIN3fmt2v619basic_memory_bufferIcLm500ESaIcEEE = comdat any

$_ZTSN3fmt2v619basic_memory_bufferIcLm500ESaIcEEE = comdat any

$_ZTISaIcE = comdat any

$_ZTSSaIcE = comdat any

$_ZTISt15__new_allocatorIcE = comdat any

$_ZTSSt15__new_allocatorIcE = comdat any

$_ZTIN3fmt2v68internal6bufferIcEE = comdat any

$_ZTSN3fmt2v68internal6bufferIcEE = comdat any

$_ZTVN3fmt2v68internal6bufferIcEE = comdat any

@dagmc = external global i8, align 1
@run_CE = external global i8, align 1
@max_lost_particles = external global i32, align 4
@gen_per_batch = external global i32, align 4
@n_particles = external global i64, align 8
@_ZN6openmcL12DEPLETION_RXE = internal constant %"struct.std::array" { [6 x i32] [i32 102, i32 103, i32 107, i32 16, i32 17, i32 37] }, align 4
@_ZStL8__ioinit = internal global %"class.std::ios_base::Init" zeroinitializer, align 1
@__dso_handle = external hidden global i8
@.str = private unnamed_addr constant [6 x i8] c"order\00", align 1
@.str.1 = private unnamed_addr constant [5 x i8] c"axis\00", align 1
@.str.2 = private unnamed_addr constant [56 x i8] c"Axis for SpatialLegendreFilter must be 'x', 'y', or 'z'\00", align 1
@_ZTISt13runtime_error = external constant ptr
@.str.3 = private unnamed_addr constant [4 x i8] c"min\00", align 1
@.str.4 = private unnamed_addr constant [4 x i8] c"max\00", align 1
@.str.5 = private unnamed_addr constant [5 x i8] c"stoi\00", align 1
@.str.6 = private unnamed_addr constant [5 x i8] c"stod\00", align 1
@.str.7 = private unnamed_addr constant [37 x i8] c"Legendre order must be non-negative.\00", align 1
@_ZTISt16invalid_argument = external constant ptr
@.str.8 = private unnamed_addr constant [49 x i8] c"Maximum value must be greater than minimum value\00", align 1
@.str.9 = private unnamed_addr constant [2 x i8] c"x\00", align 1
@.str.10 = private unnamed_addr constant [2 x i8] c"y\00", align 1
@.str.11 = private unnamed_addr constant [2 x i8] c"z\00", align 1
@_ZN6openmc9H5TypeMapIiE7type_idE = external constant i64, align 8
@.str.12 = private unnamed_addr constant [50 x i8] c"basic_string: construction from null is not valid\00", align 1
@_ZN6openmc9H5TypeMapIdE7type_idE = external constant i64, align 8
@.str.13 = private unnamed_addr constant [32 x i8] c"Legendre expansion, x axis, P{}\00", align 1
@.str.14 = private unnamed_addr constant [32 x i8] c"Legendre expansion, y axis, P{}\00", align 1
@.str.15 = private unnamed_addr constant [32 x i8] c"Legendre expansion, z axis, P{}\00", align 1
@_ZTVN3fmt2v619basic_memory_bufferIcLm500ESaIcEEE = linkonce_odr unnamed_addr constant { [5 x ptr] } { [5 x ptr] [ptr null, ptr @_ZTIN3fmt2v619basic_memory_bufferIcLm500ESaIcEEE, ptr @_ZN3fmt2v619basic_memory_bufferIcLm500ESaIcEE4growEm, ptr @_ZN3fmt2v619basic_memory_bufferIcLm500ESaIcEED2Ev, ptr @_ZN3fmt2v619basic_memory_bufferIcLm500ESaIcEED0Ev] }, comdat, align 8
@_ZTIN3fmt2v619basic_memory_bufferIcLm500ESaIcEEE = linkonce_odr constant { ptr, ptr, i32, i32, ptr, i64, ptr, i64 } { ptr getelementptr inbounds (ptr, ptr @_ZTVN10__cxxabiv121__vmi_class_type_infoE, i64 2), ptr @_ZTSN3fmt2v619basic_memory_bufferIcLm500ESaIcEEE, i32 0, i32 2, ptr @_ZTISaIcE, i64 0, ptr @_ZTIN3fmt2v68internal6bufferIcEE, i64 2 }, comdat, align 8
@_ZTVN10__cxxabiv121__vmi_class_type_infoE = external global [0 x ptr]
@_ZTSN3fmt2v619basic_memory_bufferIcLm500ESaIcEEE = linkonce_odr constant [45 x i8] c"N3fmt2v619basic_memory_bufferIcLm500ESaIcEEE\00", comdat, align 1
@_ZTISaIcE = linkonce_odr constant { ptr, ptr, ptr } { ptr getelementptr inbounds (ptr, ptr @_ZTVN10__cxxabiv120__si_class_type_infoE, i64 2), ptr @_ZTSSaIcE, ptr @_ZTISt15__new_allocatorIcE }, comdat, align 8
@_ZTVN10__cxxabiv120__si_class_type_infoE = external global [0 x ptr]
@_ZTSSaIcE = linkonce_odr constant [6 x i8] c"SaIcE\00", comdat, align 1
@_ZTISt15__new_allocatorIcE = linkonce_odr constant { ptr, ptr } { ptr getelementptr inbounds (ptr, ptr @_ZTVN10__cxxabiv117__class_type_infoE, i64 2), ptr @_ZTSSt15__new_allocatorIcE }, comdat, align 8
@_ZTVN10__cxxabiv117__class_type_infoE = external global [0 x ptr]
@_ZTSSt15__new_allocatorIcE = linkonce_odr constant [23 x i8] c"St15__new_allocatorIcE\00", comdat, align 1
@_ZTIN3fmt2v68internal6bufferIcEE = linkonce_odr constant { ptr, ptr } { ptr getelementptr inbounds (ptr, ptr @_ZTVN10__cxxabiv117__class_type_infoE, i64 2), ptr @_ZTSN3fmt2v68internal6bufferIcEE }, comdat, align 8
@_ZTSN3fmt2v68internal6bufferIcEE = linkonce_odr constant [29 x i8] c"N3fmt2v68internal6bufferIcEE\00", comdat, align 1
@_ZTVN3fmt2v68internal6bufferIcEE = linkonce_odr unnamed_addr constant { [5 x ptr] } { [5 x ptr] [ptr null, ptr @_ZTIN3fmt2v68internal6bufferIcEE, ptr @__cxa_pure_virtual, ptr @_ZN3fmt2v68internal6bufferIcED2Ev, ptr @_ZN3fmt2v68internal6bufferIcED0Ev] }, comdat, align 8
@.str.16 = private unnamed_addr constant [22 x i8] c"invalid format string\00", align 1
@.str.17 = private unnamed_addr constant [25 x i8] c"unknown format specifier\00", align 1
@.str.18 = private unnamed_addr constant [29 x i8] c"missing '}' in format string\00", align 1
@.str.19 = private unnamed_addr constant [81 x i8] c"/g/g0/wright117/workspace/openmc/openmc-omp/openmc/vendor/fmt/include/fmt/core.h\00", align 1
@.str.20 = private unnamed_addr constant [15 x i8] c"negative value\00", align 1
@.str.21 = private unnamed_addr constant [31 x i8] c"unmatched '}' in format string\00", align 1
@.str.22 = private unnamed_addr constant [28 x i8] c"argument index out of range\00", align 1
@.str.23 = private unnamed_addr constant [57 x i8] c"cannot switch from manual to automatic argument indexing\00", align 1
@.str.24 = private unnamed_addr constant [22 x i8] c"invalid argument type\00", align 1
@_ZN3fmt2v68internal10basic_dataIvE23zero_or_powers_of_10_32E = external constant [0 x i32], align 4
@.str.25 = private unnamed_addr constant [83 x i8] c"/g/g0/wright117/workspace/openmc/openmc-omp/openmc/vendor/fmt/include/fmt/format.h\00", align 1
@.str.26 = private unnamed_addr constant [20 x i8] c"invalid digit count\00", align 1
@_ZN3fmt2v68internal10basic_dataIvE6digitsE = external constant [0 x i8], align 1
@.str.27 = private unnamed_addr constant [17 x i8] c"0123456789ABCDEF\00", align 1
@_ZN3fmt2v68internal10basic_dataIvE10hex_digitsE = external constant [0 x i8], align 1
@.str.28 = private unnamed_addr constant [23 x i8] c"invalid type specifier\00", align 1
@_ZTIN3fmt2v612format_errorE = external constant ptr
@_ZTVN3fmt2v612format_errorE = available_externally unnamed_addr constant { [5 x ptr] } { [5 x ptr] [ptr null, ptr @_ZTIN3fmt2v612format_errorE, ptr @_ZN3fmt2v612format_errorD1Ev, ptr @_ZN3fmt2v612format_errorD0Ev, ptr @_ZNKSt13runtime_error4whatEv] }, align 8
@_ZN3fmt2v68internal10basic_dataIvE23zero_or_powers_of_10_64E = external constant [0 x i64], align 8
@.str.29 = private unnamed_addr constant [5 x i8] c"true\00", align 1
@.str.30 = private unnamed_addr constant [6 x i8] c"false\00", align 1
@.str.31 = private unnamed_addr constant [34 x i8] c"invalid format specifier for char\00", align 1
@.str.32 = private unnamed_addr constant [4 x i8] c"INF\00", align 1
@.str.33 = private unnamed_addr constant [4 x i8] c"inf\00", align 1
@.str.34 = private unnamed_addr constant [4 x i8] c"NAN\00", align 1
@.str.35 = private unnamed_addr constant [4 x i8] c"nan\00", align 1
@_ZN3fmt2v68internal10basic_dataIvE5signsE = external constant [0 x i8], align 1
@.str.36 = private unnamed_addr constant [18 x i8] c"number is too big\00", align 1
@.str.37 = private unnamed_addr constant [22 x i8] c"exponent out of range\00", align 1
@.str.38 = private unnamed_addr constant [23 x i8] c"string pointer is null\00", align 1
@.str.39 = private unnamed_addr constant [1 x i8] zeroinitializer, align 1
@.str.40 = private unnamed_addr constant [57 x i8] c"cannot switch from automatic to manual argument indexing\00", align 1
@.str.41 = private unnamed_addr constant [19 x i8] c"argument not found\00", align 1
@.str.42 = private unnamed_addr constant [27 x i8] c"invalid fill character '{'\00", align 1
@.str.43 = private unnamed_addr constant [43 x i8] c"format specifier requires numeric argument\00", align 1
@.str.44 = private unnamed_addr constant [42 x i8] c"format specifier requires signed argument\00", align 1
@.str.45 = private unnamed_addr constant [15 x i8] c"negative width\00", align 1
@.str.46 = private unnamed_addr constant [21 x i8] c"width is not integer\00", align 1
@.str.47 = private unnamed_addr constant [28 x i8] c"missing precision specifier\00", align 1
@.str.48 = private unnamed_addr constant [19 x i8] c"negative precision\00", align 1
@.str.49 = private unnamed_addr constant [25 x i8] c"precision is not integer\00", align 1
@.str.50 = private unnamed_addr constant [45 x i8] c"precision not allowed for this argument type\00", align 1
@llvm.global_ctors = appending global [1 x { i32, ptr, ptr }] [{ i32, ptr, ptr } { i32 65535, ptr @_GLOBAL__sub_I_filter_sptl_legendre.cpp, ptr null }]

; Function Attrs: uwtable
define internal void @__cxx_global_var_init() #0 section ".text.startup" {
entry:
  call void @_ZNSt8ios_base4InitC1Ev(ptr noundef nonnull align 1 dereferenceable(1) @_ZStL8__ioinit)
  %0 = call i32 @__cxa_atexit(ptr @_ZNSt8ios_base4InitD1Ev, ptr @_ZStL8__ioinit, ptr @__dso_handle) #3
  ret void
}

declare void @_ZNSt8ios_base4InitC1Ev(ptr noundef nonnull align 1 dereferenceable(1)) unnamed_addr #1

; Function Attrs: nounwind
declare void @_ZNSt8ios_base4InitD1Ev(ptr noundef nonnull align 1 dereferenceable(1)) unnamed_addr #2

; Function Attrs: nounwind
declare i32 @__cxa_atexit(ptr, ptr, ptr) #3

; Function Attrs: mustprogress uwtable
define void @_ZN6openmc6Filter30SpatialLegendreFilter_from_xmlEN4pugi8xml_nodeE(ptr noundef nonnull align 8 dereferenceable(448) %this, ptr %node.coerce) #4 align 2 personality ptr @__gxx_personality_v0 {
entry:
  %node = alloca %"class.pugi::xml_node", align 8
  %this.addr = alloca ptr, align 8
  %ref.tmp = alloca %"class.std::__cxx11::basic_string", align 8
  %agg.tmp = alloca %"class.pugi::xml_node", align 8
  %exn.slot = alloca ptr, align 8
  %ehselector.slot = alloca i32, align 4
  %axis = alloca %"class.std::__cxx11::basic_string", align 8
  %agg.tmp4 = alloca %"class.pugi::xml_node", align 8
  %min = alloca double, align 8
  %ref.tmp16 = alloca %"class.std::__cxx11::basic_string", align 8
  %agg.tmp17 = alloca %"class.pugi::xml_node", align 8
  %max = alloca double, align 8
  %ref.tmp24 = alloca %"class.std::__cxx11::basic_string", align 8
  %agg.tmp25 = alloca %"class.pugi::xml_node", align 8
  %coerce.dive = getelementptr inbounds nuw %"class.pugi::xml_node", ptr %node, i32 0, i32 0
  store ptr %node.coerce, ptr %coerce.dive, align 8
  store ptr %this, ptr %this.addr, align 8, !tbaa !11
  %this1 = load ptr, ptr %this.addr, align 8
  call void @llvm.lifetime.start.p0(i64 32, ptr %ref.tmp) #3
  call void @llvm.memcpy.p0.p0.i64(ptr align 8 %agg.tmp, ptr align 8 %node, i64 8, i1 false), !tbaa.struct !16
  %coerce.dive2 = getelementptr inbounds nuw %"class.pugi::xml_node", ptr %agg.tmp, i32 0, i32 0
  %0 = load ptr, ptr %coerce.dive2, align 8
  call void @_ZN6openmc14get_node_valueB5cxx11EN4pugi8xml_nodeEPKcbb(ptr dead_on_unwind writable sret(%"class.std::__cxx11::basic_string") align 8 %ref.tmp, ptr %0, ptr noundef @.str, i1 noundef zeroext false, i1 noundef zeroext false)
  %call = invoke noundef i32 @_ZNSt7__cxx114stoiERKNS_12basic_stringIcSt11char_traitsIcESaIcEEEPmi(ptr noundef nonnull align 8 dereferenceable(32) %ref.tmp, ptr noundef null, i32 noundef 10)
          to label %invoke.cont unwind label %lpad

invoke.cont:                                      ; preds = %entry
  invoke void @_ZN6openmc6Filter9set_orderEi(ptr noundef nonnull align 8 dereferenceable(448) %this1, i32 noundef %call)
          to label %invoke.cont3 unwind label %lpad

invoke.cont3:                                     ; preds = %invoke.cont
  call void @_ZNSt7__cxx1112basic_stringIcSt11char_traitsIcESaIcEED2Ev(ptr noundef nonnull align 8 dereferenceable(32) %ref.tmp) #3
  call void @llvm.lifetime.end.p0(i64 32, ptr %ref.tmp) #3
  call void @llvm.lifetime.start.p0(i64 32, ptr %axis) #3
  call void @llvm.memcpy.p0.p0.i64(ptr align 8 %agg.tmp4, ptr align 8 %node, i64 8, i1 false), !tbaa.struct !16
  %coerce.dive5 = getelementptr inbounds nuw %"class.pugi::xml_node", ptr %agg.tmp4, i32 0, i32 0
  %1 = load ptr, ptr %coerce.dive5, align 8
  call void @_ZN6openmc14get_node_valueB5cxx11EN4pugi8xml_nodeEPKcbb(ptr dead_on_unwind writable sret(%"class.std::__cxx11::basic_string") align 8 %axis, ptr %1, ptr noundef @.str.1, i1 noundef zeroext false, i1 noundef zeroext false)
  %call8 = invoke noundef nonnull align 1 dereferenceable(1) ptr @_ZNSt7__cxx1112basic_stringIcSt11char_traitsIcESaIcEEixEm(ptr noundef nonnull align 8 dereferenceable(32) %axis, i64 noundef 0)
          to label %invoke.cont7 unwind label %lpad6

invoke.cont7:                                     ; preds = %invoke.cont3
  %2 = load i8, ptr %call8, align 1, !tbaa !19
  %conv = sext i8 %2 to i32
  switch i32 %conv, label %sw.default [
    i32 120, label %sw.bb
    i32 121, label %sw.bb10
    i32 122, label %sw.bb12
  ]

lpad:                                             ; preds = %invoke.cont, %entry
  %3 = landingpad { ptr, i32 }
          cleanup
  %4 = extractvalue { ptr, i32 } %3, 0
  store ptr %4, ptr %exn.slot, align 8
  %5 = extractvalue { ptr, i32 } %3, 1
  store i32 %5, ptr %ehselector.slot, align 4
  call void @_ZNSt7__cxx1112basic_stringIcSt11char_traitsIcESaIcEED2Ev(ptr noundef nonnull align 8 dereferenceable(32) %ref.tmp) #3
  call void @llvm.lifetime.end.p0(i64 32, ptr %ref.tmp) #3
  br label %eh.resume

lpad6:                                            ; preds = %invoke.cont15, %sw.bb12, %sw.bb10, %sw.bb, %invoke.cont3
  %6 = landingpad { ptr, i32 }
          cleanup
  %7 = extractvalue { ptr, i32 } %6, 0
  store ptr %7, ptr %exn.slot, align 8
  %8 = extractvalue { ptr, i32 } %6, 1
  store i32 %8, ptr %ehselector.slot, align 4
  br label %ehcleanup38

sw.bb:                                            ; preds = %invoke.cont7
  invoke void @_ZN6openmc6Filter8set_axisENS_12LegendreAxisE(ptr noundef nonnull align 8 dereferenceable(448) %this1, i32 noundef 0)
          to label %invoke.cont9 unwind label %lpad6

invoke.cont9:                                     ; preds = %sw.bb
  br label %sw.epilog

sw.bb10:                                          ; preds = %invoke.cont7
  invoke void @_ZN6openmc6Filter8set_axisENS_12LegendreAxisE(ptr noundef nonnull align 8 dereferenceable(448) %this1, i32 noundef 1)
          to label %invoke.cont11 unwind label %lpad6

invoke.cont11:                                    ; preds = %sw.bb10
  br label %sw.epilog

sw.bb12:                                          ; preds = %invoke.cont7
  invoke void @_ZN6openmc6Filter8set_axisENS_12LegendreAxisE(ptr noundef nonnull align 8 dereferenceable(448) %this1, i32 noundef 2)
          to label %invoke.cont13 unwind label %lpad6

invoke.cont13:                                    ; preds = %sw.bb12
  br label %sw.epilog

sw.default:                                       ; preds = %invoke.cont7
  %exception = call ptr @__cxa_allocate_exception(i64 16) #3
  invoke void @_ZNSt13runtime_errorC1EPKc(ptr noundef nonnull align 8 dereferenceable(16) %exception, ptr noundef @.str.2)
          to label %invoke.cont15 unwind label %lpad14

invoke.cont15:                                    ; preds = %sw.default
  invoke void @__cxa_throw(ptr %exception, ptr @_ZTISt13runtime_error, ptr @_ZNSt13runtime_errorD1Ev) #22
          to label %unreachable unwind label %lpad6

lpad14:                                           ; preds = %sw.default
  %9 = landingpad { ptr, i32 }
          cleanup
  %10 = extractvalue { ptr, i32 } %9, 0
  store ptr %10, ptr %exn.slot, align 8
  %11 = extractvalue { ptr, i32 } %9, 1
  store i32 %11, ptr %ehselector.slot, align 4
  call void @__cxa_free_exception(ptr %exception) #3
  br label %ehcleanup38

sw.epilog:                                        ; preds = %invoke.cont13, %invoke.cont11, %invoke.cont9
  call void @llvm.lifetime.start.p0(i64 8, ptr %min) #3
  call void @llvm.lifetime.start.p0(i64 32, ptr %ref.tmp16) #3
  call void @llvm.memcpy.p0.p0.i64(ptr align 8 %agg.tmp17, ptr align 8 %node, i64 8, i1 false), !tbaa.struct !16
  %coerce.dive18 = getelementptr inbounds nuw %"class.pugi::xml_node", ptr %agg.tmp17, i32 0, i32 0
  %12 = load ptr, ptr %coerce.dive18, align 8
  invoke void @_ZN6openmc14get_node_valueB5cxx11EN4pugi8xml_nodeEPKcbb(ptr dead_on_unwind writable sret(%"class.std::__cxx11::basic_string") align 8 %ref.tmp16, ptr %12, ptr noundef @.str.3, i1 noundef zeroext false, i1 noundef zeroext false)
          to label %invoke.cont20 unwind label %lpad19

invoke.cont20:                                    ; preds = %sw.epilog
  %call23 = invoke noundef double @_ZNSt7__cxx114stodERKNS_12basic_stringIcSt11char_traitsIcESaIcEEEPm(ptr noundef nonnull align 8 dereferenceable(32) %ref.tmp16, ptr noundef null)
          to label %invoke.cont22 unwind label %lpad21

invoke.cont22:                                    ; preds = %invoke.cont20
  call void @_ZNSt7__cxx1112basic_stringIcSt11char_traitsIcESaIcEED2Ev(ptr noundef nonnull align 8 dereferenceable(32) %ref.tmp16) #3
  call void @llvm.lifetime.end.p0(i64 32, ptr %ref.tmp16) #3
  store double %call23, ptr %min, align 8, !tbaa !20
  call void @llvm.lifetime.start.p0(i64 8, ptr %max) #3
  call void @llvm.lifetime.start.p0(i64 32, ptr %ref.tmp24) #3
  call void @llvm.memcpy.p0.p0.i64(ptr align 8 %agg.tmp25, ptr align 8 %node, i64 8, i1 false), !tbaa.struct !16
  %coerce.dive26 = getelementptr inbounds nuw %"class.pugi::xml_node", ptr %agg.tmp25, i32 0, i32 0
  %13 = load ptr, ptr %coerce.dive26, align 8
  invoke void @_ZN6openmc14get_node_valueB5cxx11EN4pugi8xml_nodeEPKcbb(ptr dead_on_unwind writable sret(%"class.std::__cxx11::basic_string") align 8 %ref.tmp24, ptr %13, ptr noundef @.str.4, i1 noundef zeroext false, i1 noundef zeroext false)
          to label %invoke.cont28 unwind label %lpad27

invoke.cont28:                                    ; preds = %invoke.cont22
  %call31 = invoke noundef double @_ZNSt7__cxx114stodERKNS_12basic_stringIcSt11char_traitsIcESaIcEEEPm(ptr noundef nonnull align 8 dereferenceable(32) %ref.tmp24, ptr noundef null)
          to label %invoke.cont30 unwind label %lpad29

invoke.cont30:                                    ; preds = %invoke.cont28
  call void @_ZNSt7__cxx1112basic_stringIcSt11char_traitsIcESaIcEED2Ev(ptr noundef nonnull align 8 dereferenceable(32) %ref.tmp24) #3
  call void @llvm.lifetime.end.p0(i64 32, ptr %ref.tmp24) #3
  store double %call31, ptr %max, align 8, !tbaa !20
  %14 = load double, ptr %min, align 8, !tbaa !20
  %15 = load double, ptr %max, align 8, !tbaa !20
  invoke void @_ZN6openmc6Filter10set_minmaxEdd(ptr noundef nonnull align 8 dereferenceable(448) %this1, double noundef %14, double noundef %15)
          to label %invoke.cont35 unwind label %lpad34

invoke.cont35:                                    ; preds = %invoke.cont30
  call void @llvm.lifetime.end.p0(i64 8, ptr %max) #3
  call void @llvm.lifetime.end.p0(i64 8, ptr %min) #3
  call void @_ZNSt7__cxx1112basic_stringIcSt11char_traitsIcESaIcEED2Ev(ptr noundef nonnull align 8 dereferenceable(32) %axis) #3
  call void @llvm.lifetime.end.p0(i64 32, ptr %axis) #3
  ret void

lpad19:                                           ; preds = %sw.epilog
  %16 = landingpad { ptr, i32 }
          cleanup
  %17 = extractvalue { ptr, i32 } %16, 0
  store ptr %17, ptr %exn.slot, align 8
  %18 = extractvalue { ptr, i32 } %16, 1
  store i32 %18, ptr %ehselector.slot, align 4
  br label %ehcleanup

lpad21:                                           ; preds = %invoke.cont20
  %19 = landingpad { ptr, i32 }
          cleanup
  %20 = extractvalue { ptr, i32 } %19, 0
  store ptr %20, ptr %exn.slot, align 8
  %21 = extractvalue { ptr, i32 } %19, 1
  store i32 %21, ptr %ehselector.slot, align 4
  call void @_ZNSt7__cxx1112basic_stringIcSt11char_traitsIcESaIcEED2Ev(ptr noundef nonnull align 8 dereferenceable(32) %ref.tmp16) #3
  br label %ehcleanup

ehcleanup:                                        ; preds = %lpad21, %lpad19
  call void @llvm.lifetime.end.p0(i64 32, ptr %ref.tmp16) #3
  br label %ehcleanup37

lpad27:                                           ; preds = %invoke.cont22
  %22 = landingpad { ptr, i32 }
          cleanup
  %23 = extractvalue { ptr, i32 } %22, 0
  store ptr %23, ptr %exn.slot, align 8
  %24 = extractvalue { ptr, i32 } %22, 1
  store i32 %24, ptr %ehselector.slot, align 4
  br label %ehcleanup33

lpad29:                                           ; preds = %invoke.cont28
  %25 = landingpad { ptr, i32 }
          cleanup
  %26 = extractvalue { ptr, i32 } %25, 0
  store ptr %26, ptr %exn.slot, align 8
  %27 = extractvalue { ptr, i32 } %25, 1
  store i32 %27, ptr %ehselector.slot, align 4
  call void @_ZNSt7__cxx1112basic_stringIcSt11char_traitsIcESaIcEED2Ev(ptr noundef nonnull align 8 dereferenceable(32) %ref.tmp24) #3
  br label %ehcleanup33

ehcleanup33:                                      ; preds = %lpad29, %lpad27
  call void @llvm.lifetime.end.p0(i64 32, ptr %ref.tmp24) #3
  br label %ehcleanup36

lpad34:                                           ; preds = %invoke.cont30
  %28 = landingpad { ptr, i32 }
          cleanup
  %29 = extractvalue { ptr, i32 } %28, 0
  store ptr %29, ptr %exn.slot, align 8
  %30 = extractvalue { ptr, i32 } %28, 1
  store i32 %30, ptr %ehselector.slot, align 4
  br label %ehcleanup36

ehcleanup36:                                      ; preds = %lpad34, %ehcleanup33
  call void @llvm.lifetime.end.p0(i64 8, ptr %max) #3
  br label %ehcleanup37

ehcleanup37:                                      ; preds = %ehcleanup36, %ehcleanup
  call void @llvm.lifetime.end.p0(i64 8, ptr %min) #3
  br label %ehcleanup38

ehcleanup38:                                      ; preds = %ehcleanup37, %lpad14, %lpad6
  call void @_ZNSt7__cxx1112basic_stringIcSt11char_traitsIcESaIcEED2Ev(ptr noundef nonnull align 8 dereferenceable(32) %axis) #3
  call void @llvm.lifetime.end.p0(i64 32, ptr %axis) #3
  br label %eh.resume

eh.resume:                                        ; preds = %ehcleanup38, %lpad
  %exn = load ptr, ptr %exn.slot, align 8
  %sel = load i32, ptr %ehselector.slot, align 4
  %lpad.val = insertvalue { ptr, i32 } poison, ptr %exn, 0
  %lpad.val40 = insertvalue { ptr, i32 } %lpad.val, i32 %sel, 1
  resume { ptr, i32 } %lpad.val40

unreachable:                                      ; preds = %invoke.cont15
  unreachable
}

declare void @_ZN6openmc6Filter9set_orderEi(ptr noundef nonnull align 8 dereferenceable(448), i32 noundef) #1

; Function Attrs: inlinehint mustprogress uwtable
define linkonce_odr noundef i32 @_ZNSt7__cxx114stoiERKNS_12basic_stringIcSt11char_traitsIcESaIcEEEPmi(ptr noundef nonnull align 8 dereferenceable(32) %__str, ptr noundef %__idx, i32 noundef %__base) #5 comdat {
entry:
  %__str.addr = alloca ptr, align 8
  %__idx.addr = alloca ptr, align 8
  %__base.addr = alloca i32, align 4
  store ptr %__str, ptr %__str.addr, align 8, !tbaa !22
  store ptr %__idx, ptr %__idx.addr, align 8, !tbaa !24
  store i32 %__base, ptr %__base.addr, align 4, !tbaa !26
  %0 = load ptr, ptr %__str.addr, align 8, !tbaa !22
  %call = call noundef ptr @_ZNKSt7__cxx1112basic_stringIcSt11char_traitsIcESaIcEE5c_strEv(ptr noundef nonnull align 8 dereferenceable(32) %0) #3
  %1 = load ptr, ptr %__idx.addr, align 8, !tbaa !24
  %2 = load i32, ptr %__base.addr, align 4, !tbaa !26
  %call1 = call noundef i32 @_ZN9__gnu_cxx6__stoaIlicJiEEET0_PFT_PKT1_PPS3_DpT2_EPKcS5_PmS9_(ptr noundef @strtol, ptr noundef @.str.5, ptr noundef %call, ptr noundef %1, i32 noundef %2)
  ret i32 %call1
}

; Function Attrs: nocallback nofree nosync nounwind willreturn memory(argmem: readwrite)
declare void @llvm.lifetime.start.p0(i64 immarg, ptr captures(none)) #6

declare void @_ZN6openmc14get_node_valueB5cxx11EN4pugi8xml_nodeEPKcbb(ptr dead_on_unwind writable sret(%"class.std::__cxx11::basic_string") align 8, ptr, ptr noundef, i1 noundef zeroext, i1 noundef zeroext) #1

; Function Attrs: nocallback nofree nounwind willreturn memory(argmem: readwrite)
declare void @llvm.memcpy.p0.p0.i64(ptr noalias writeonly captures(none), ptr noalias readonly captures(none), i64, i1 immarg) #7

declare i32 @__gxx_personality_v0(...)

; Function Attrs: mustprogress nounwind uwtable
define available_externally void @_ZNSt7__cxx1112basic_stringIcSt11char_traitsIcESaIcEED2Ev(ptr noundef nonnull align 8 dereferenceable(32) %this) unnamed_addr #8 align 2 personality ptr @__gxx_personality_v0 {
entry:
  %this.addr = alloca ptr, align 8
  store ptr %this, ptr %this.addr, align 8, !tbaa !22
  %this1 = load ptr, ptr %this.addr, align 8
  invoke void @_ZNSt7__cxx1112basic_stringIcSt11char_traitsIcESaIcEE10_M_disposeEv(ptr noundef nonnull align 8 dereferenceable(32) %this1)
          to label %invoke.cont unwind label %terminate.lpad

invoke.cont:                                      ; preds = %entry
  %_M_dataplus = getelementptr inbounds nuw %"class.std::__cxx11::basic_string", ptr %this1, i32 0, i32 0
  call void @_ZNSt15__new_allocatorIcED2Ev(ptr noundef nonnull align 8 dereferenceable(8) %_M_dataplus) #3
  ret void

terminate.lpad:                                   ; preds = %entry
  %0 = landingpad { ptr, i32 }
          catch ptr null
  %1 = extractvalue { ptr, i32 } %0, 0
  call void @__clang_call_terminate(ptr %1) #23
  unreachable
}

; Function Attrs: nocallback nofree nosync nounwind willreturn memory(argmem: readwrite)
declare void @llvm.lifetime.end.p0(i64 immarg, ptr captures(none)) #6

; Function Attrs: mustprogress nounwind uwtable
define available_externally noundef nonnull align 1 dereferenceable(1) ptr @_ZNSt7__cxx1112basic_stringIcSt11char_traitsIcESaIcEEixEm(ptr noundef nonnull align 8 dereferenceable(32) %this, i64 noundef %__pos) #8 align 2 {
entry:
  %this.addr = alloca ptr, align 8
  %__pos.addr = alloca i64, align 8
  store ptr %this, ptr %this.addr, align 8, !tbaa !22
  store i64 %__pos, ptr %__pos.addr, align 8, !tbaa !28
  %this1 = load ptr, ptr %this.addr, align 8
  br label %do.body

do.body:                                          ; preds = %entry
  br label %do.end

do.end:                                           ; preds = %do.body
  %call = call noundef ptr @_ZNKSt7__cxx1112basic_stringIcSt11char_traitsIcESaIcEE7_M_dataEv(ptr noundef nonnull align 8 dereferenceable(32) %this1)
  %0 = load i64, ptr %__pos.addr, align 8, !tbaa !28
  %arrayidx = getelementptr inbounds nuw i8, ptr %call, i64 %0
  ret ptr %arrayidx
}

; Function Attrs: mustprogress nounwind uwtable
define void @_ZN6openmc6Filter8set_axisENS_12LegendreAxisE(ptr noundef nonnull align 8 dereferenceable(448) %this, i32 noundef %axis) #8 align 2 {
entry:
  %this.addr = alloca ptr, align 8
  %axis.addr = alloca i32, align 4
  store ptr %this, ptr %this.addr, align 8, !tbaa !11
  store i32 %axis, ptr %axis.addr, align 4, !tbaa !30
  %this1 = load ptr, ptr %this.addr, align 8
  %0 = load i32, ptr %axis.addr, align 4, !tbaa !30
  %axis_ = getelementptr inbounds nuw %"class.openmc::Filter", ptr %this1, i32 0, i32 22
  store i32 %0, ptr %axis_, align 4, !tbaa !32
  ret void
}

declare ptr @__cxa_allocate_exception(i64)

declare void @_ZNSt13runtime_errorC1EPKc(ptr noundef nonnull align 8 dereferenceable(16), ptr noundef) unnamed_addr #1

declare void @__cxa_free_exception(ptr)

; Function Attrs: nounwind
declare void @_ZNSt13runtime_errorD1Ev(ptr noundef nonnull align 8 dereferenceable(16)) unnamed_addr #2

declare void @__cxa_throw(ptr, ptr, ptr)

; Function Attrs: inlinehint mustprogress uwtable
define linkonce_odr noundef double @_ZNSt7__cxx114stodERKNS_12basic_stringIcSt11char_traitsIcESaIcEEEPm(ptr noundef nonnull align 8 dereferenceable(32) %__str, ptr noundef %__idx) #5 comdat {
entry:
  %__str.addr = alloca ptr, align 8
  %__idx.addr = alloca ptr, align 8
  store ptr %__str, ptr %__str.addr, align 8, !tbaa !22
  store ptr %__idx, ptr %__idx.addr, align 8, !tbaa !24
  %0 = load ptr, ptr %__str.addr, align 8, !tbaa !22
  %call = call noundef ptr @_ZNKSt7__cxx1112basic_stringIcSt11char_traitsIcESaIcEE5c_strEv(ptr noundef nonnull align 8 dereferenceable(32) %0) #3
  %1 = load ptr, ptr %__idx.addr, align 8, !tbaa !24
  %call1 = call noundef double @_ZN9__gnu_cxx6__stoaIddcJEEET0_PFT_PKT1_PPS3_DpT2_EPKcS5_PmS9_(ptr noundef @strtod, ptr noundef @.str.6, ptr noundef %call, ptr noundef %1)
  ret double %call1
}

; Function Attrs: mustprogress uwtable
define void @_ZN6openmc6Filter10set_minmaxEdd(ptr noundef nonnull align 8 dereferenceable(448) %this, double noundef %min, double noundef %max) #4 align 2 personality ptr @__gxx_personality_v0 {
entry:
  %this.addr = alloca ptr, align 8
  %min.addr = alloca double, align 8
  %max.addr = alloca double, align 8
  %exn.slot = alloca ptr, align 8
  %ehselector.slot = alloca i32, align 4
  store ptr %this, ptr %this.addr, align 8, !tbaa !11
  store double %min, ptr %min.addr, align 8, !tbaa !20
  store double %max, ptr %max.addr, align 8, !tbaa !20
  %this1 = load ptr, ptr %this.addr, align 8
  %0 = load double, ptr %max.addr, align 8, !tbaa !20
  %1 = load double, ptr %min.addr, align 8, !tbaa !20
  %cmp = fcmp ole double %0, %1
  br i1 %cmp, label %if.then, label %if.end

if.then:                                          ; preds = %entry
  %exception = call ptr @__cxa_allocate_exception(i64 16) #3
  invoke void @_ZNSt16invalid_argumentC1EPKc(ptr noundef nonnull align 8 dereferenceable(16) %exception, ptr noundef @.str.8)
          to label %invoke.cont unwind label %lpad

invoke.cont:                                      ; preds = %if.then
  call void @__cxa_throw(ptr %exception, ptr @_ZTISt16invalid_argument, ptr @_ZNSt16invalid_argumentD1Ev) #22
  unreachable

lpad:                                             ; preds = %if.then
  %2 = landingpad { ptr, i32 }
          cleanup
  %3 = extractvalue { ptr, i32 } %2, 0
  store ptr %3, ptr %exn.slot, align 8
  %4 = extractvalue { ptr, i32 } %2, 1
  store i32 %4, ptr %ehselector.slot, align 4
  call void @__cxa_free_exception(ptr %exception) #3
  br label %eh.resume

if.end:                                           ; preds = %entry
  %5 = load double, ptr %min.addr, align 8, !tbaa !20
  %min_ = getelementptr inbounds nuw %"class.openmc::Filter", ptr %this1, i32 0, i32 23
  store double %5, ptr %min_, align 8, !tbaa !54
  %6 = load double, ptr %max.addr, align 8, !tbaa !20
  %max_ = getelementptr inbounds nuw %"class.openmc::Filter", ptr %this1, i32 0, i32 24
  store double %6, ptr %max_, align 8, !tbaa !55
  ret void

eh.resume:                                        ; preds = %lpad
  %exn = load ptr, ptr %exn.slot, align 8
  %sel = load i32, ptr %ehselector.slot, align 4
  %lpad.val = insertvalue { ptr, i32 } poison, ptr %exn, 0
  %lpad.val2 = insertvalue { ptr, i32 } %lpad.val, i32 %sel, 1
  resume { ptr, i32 } %lpad.val2
}

; Function Attrs: mustprogress uwtable
define linkonce_odr noundef i32 @_ZN9__gnu_cxx6__stoaIlicJiEEET0_PFT_PKT1_PPS3_DpT2_EPKcS5_PmS9_(ptr noundef %__convf, ptr noundef %__name, ptr noundef %__str, ptr noundef %__idx, i32 noundef %__base) #4 comdat personality ptr @__gxx_personality_v0 {
entry:
  %__convf.addr = alloca ptr, align 8
  %__name.addr = alloca ptr, align 8
  %__str.addr = alloca ptr, align 8
  %__idx.addr = alloca ptr, align 8
  %__base.addr = alloca i32, align 4
  %__ret = alloca i32, align 4
  %__endptr = alloca ptr, align 8
  %__save_errno = alloca %struct._Save_errno, align 4
  %__tmp = alloca i64, align 8
  %exn.slot = alloca ptr, align 8
  %ehselector.slot = alloca i32, align 4
  %agg.tmp = alloca %"struct.std::integral_constant", align 1
  %ref.tmp = alloca %"struct.std::is_same", align 1
  store ptr %__convf, ptr %__convf.addr, align 8, !tbaa !56
  store ptr %__name, ptr %__name.addr, align 8, !tbaa !57
  store ptr %__str, ptr %__str.addr, align 8, !tbaa !57
  store ptr %__idx, ptr %__idx.addr, align 8, !tbaa !24
  store i32 %__base, ptr %__base.addr, align 4, !tbaa !26
  call void @llvm.lifetime.start.p0(i64 4, ptr %__ret) #3
  call void @llvm.lifetime.start.p0(i64 8, ptr %__endptr) #3
  call void @llvm.lifetime.start.p0(i64 4, ptr %__save_errno) #3
  call void @_ZZN9__gnu_cxx6__stoaIlicJiEEET0_PFT_PKT1_PPS3_DpT2_EPKcS5_PmS9_EN11_Save_errnoC2Ev(ptr noundef nonnull align 4 dereferenceable(4) %__save_errno)
  call void @llvm.lifetime.start.p0(i64 8, ptr %__tmp) #3
  %0 = load ptr, ptr %__convf.addr, align 8, !tbaa !56
  %1 = load ptr, ptr %__str.addr, align 8, !tbaa !57
  %2 = load i32, ptr %__base.addr, align 4, !tbaa !26
  %call = invoke noundef i64 %0(ptr noundef %1, ptr noundef %__endptr, i32 noundef %2)
          to label %invoke.cont unwind label %lpad

invoke.cont:                                      ; preds = %entry
  store i64 %call, ptr %__tmp, align 8, !tbaa !28
  %3 = load ptr, ptr %__endptr, align 8, !tbaa !57
  %4 = load ptr, ptr %__str.addr, align 8, !tbaa !57
  %cmp = icmp eq ptr %3, %4
  br i1 %cmp, label %if.then, label %if.else

if.then:                                          ; preds = %invoke.cont
  %5 = load ptr, ptr %__name.addr, align 8, !tbaa !57
  invoke void @_ZSt24__throw_invalid_argumentPKc(ptr noundef %5) #22
          to label %invoke.cont1 unwind label %lpad

invoke.cont1:                                     ; preds = %if.then
  unreachable

lpad:                                             ; preds = %if.then7, %if.then, %entry
  %6 = landingpad { ptr, i32 }
          cleanup
  %7 = extractvalue { ptr, i32 } %6, 0
  store ptr %7, ptr %exn.slot, align 8
  %8 = extractvalue { ptr, i32 } %6, 1
  store i32 %8, ptr %ehselector.slot, align 4
  br label %ehcleanup

if.else:                                          ; preds = %invoke.cont
  %call2 = call ptr @__errno_location() #24
  %9 = load i32, ptr %call2, align 4, !tbaa !26
  %cmp3 = icmp eq i32 %9, 34
  call void @llvm.lifetime.start.p0(i64 1, ptr %ref.tmp) #3
  br i1 %cmp3, label %lor.end, label %lor.rhs

lor.rhs:                                          ; preds = %if.else
  %10 = load i64, ptr %__tmp, align 8, !tbaa !28
  %call6 = invoke noundef zeroext i1 @_ZZN9__gnu_cxx6__stoaIlicJiEEET0_PFT_PKT1_PPS3_DpT2_EPKcS5_PmS9_EN10_Range_chk6_S_chkElSt17integral_constantIbLb1EE(i64 noundef %10)
          to label %invoke.cont5 unwind label %lpad4

invoke.cont5:                                     ; preds = %lor.rhs
  br label %lor.end

lor.end:                                          ; preds = %invoke.cont5, %if.else
  %11 = phi i1 [ true, %if.else ], [ %call6, %invoke.cont5 ]
  call void @llvm.lifetime.end.p0(i64 1, ptr %ref.tmp) #3
  br i1 %11, label %if.then7, label %if.else9

if.then7:                                         ; preds = %lor.end
  %12 = load ptr, ptr %__name.addr, align 8, !tbaa !57
  invoke void @_ZSt20__throw_out_of_rangePKc(ptr noundef %12) #22
          to label %invoke.cont8 unwind label %lpad

invoke.cont8:                                     ; preds = %if.then7
  unreachable

lpad4:                                            ; preds = %lor.rhs
  %13 = landingpad { ptr, i32 }
          cleanup
  %14 = extractvalue { ptr, i32 } %13, 0
  store ptr %14, ptr %exn.slot, align 8
  %15 = extractvalue { ptr, i32 } %13, 1
  store i32 %15, ptr %ehselector.slot, align 4
  call void @llvm.lifetime.end.p0(i64 1, ptr %ref.tmp) #3
  br label %ehcleanup

if.else9:                                         ; preds = %lor.end
  %16 = load i64, ptr %__tmp, align 8, !tbaa !28
  %conv = trunc i64 %16 to i32
  store i32 %conv, ptr %__ret, align 4, !tbaa !26
  br label %if.end

if.end:                                           ; preds = %if.else9
  br label %if.end10

if.end10:                                         ; preds = %if.end
  %17 = load ptr, ptr %__idx.addr, align 8, !tbaa !24
  %tobool = icmp ne ptr %17, null
  br i1 %tobool, label %if.then11, label %if.end12

if.then11:                                        ; preds = %if.end10
  %18 = load ptr, ptr %__endptr, align 8, !tbaa !57
  %19 = load ptr, ptr %__str.addr, align 8, !tbaa !57
  %sub.ptr.lhs.cast = ptrtoint ptr %18 to i64
  %sub.ptr.rhs.cast = ptrtoint ptr %19 to i64
  %sub.ptr.sub = sub i64 %sub.ptr.lhs.cast, %sub.ptr.rhs.cast
  %20 = load ptr, ptr %__idx.addr, align 8, !tbaa !24
  store i64 %sub.ptr.sub, ptr %20, align 8, !tbaa !28
  br label %if.end12

if.end12:                                         ; preds = %if.then11, %if.end10
  %21 = load i32, ptr %__ret, align 4, !tbaa !26
  call void @llvm.lifetime.end.p0(i64 8, ptr %__tmp) #3
  call void @_ZZN9__gnu_cxx6__stoaIlicJiEEET0_PFT_PKT1_PPS3_DpT2_EPKcS5_PmS9_EN11_Save_errnoD2Ev(ptr noundef nonnull align 4 dereferenceable(4) %__save_errno) #3
  call void @llvm.lifetime.end.p0(i64 4, ptr %__save_errno) #3
  call void @llvm.lifetime.end.p0(i64 8, ptr %__endptr) #3
  call void @llvm.lifetime.end.p0(i64 4, ptr %__ret) #3
  ret i32 %21

ehcleanup:                                        ; preds = %lpad4, %lpad
  call void @llvm.lifetime.end.p0(i64 8, ptr %__tmp) #3
  call void @_ZZN9__gnu_cxx6__stoaIlicJiEEET0_PFT_PKT1_PPS3_DpT2_EPKcS5_PmS9_EN11_Save_errnoD2Ev(ptr noundef nonnull align 4 dereferenceable(4) %__save_errno) #3
  call void @llvm.lifetime.end.p0(i64 4, ptr %__save_errno) #3
  call void @llvm.lifetime.end.p0(i64 8, ptr %__endptr) #3
  call void @llvm.lifetime.end.p0(i64 4, ptr %__ret) #3
  br label %eh.resume

eh.resume:                                        ; preds = %ehcleanup
  %exn = load ptr, ptr %exn.slot, align 8
  %sel = load i32, ptr %ehselector.slot, align 4
  %lpad.val = insertvalue { ptr, i32 } poison, ptr %exn, 0
  %lpad.val17 = insertvalue { ptr, i32 } %lpad.val, i32 %sel, 1
  resume { ptr, i32 } %lpad.val17
}

; Function Attrs: nounwind
declare i64 @strtol(ptr noundef, ptr noundef, i32 noundef) #2

; Function Attrs: mustprogress nounwind uwtable
define available_externally noundef ptr @_ZNKSt7__cxx1112basic_stringIcSt11char_traitsIcESaIcEE5c_strEv(ptr noundef nonnull align 8 dereferenceable(32) %this) #8 align 2 personality ptr @__gxx_personality_v0 {
entry:
  %this.addr = alloca ptr, align 8
  store ptr %this, ptr %this.addr, align 8, !tbaa !22
  %this1 = load ptr, ptr %this.addr, align 8
  %call = invoke noundef ptr @_ZNKSt7__cxx1112basic_stringIcSt11char_traitsIcESaIcEE7_M_dataEv(ptr noundef nonnull align 8 dereferenceable(32) %this1)
          to label %invoke.cont unwind label %terminate.lpad

invoke.cont:                                      ; preds = %entry
  ret ptr %call

terminate.lpad:                                   ; preds = %entry
  %0 = landingpad { ptr, i32 }
          catch ptr null
  %1 = extractvalue { ptr, i32 } %0, 0
  call void @__clang_call_terminate(ptr %1) #23
  unreachable
}

; Function Attrs: mustprogress nounwind uwtable
define linkonce_odr void @_ZZN9__gnu_cxx6__stoaIlicJiEEET0_PFT_PKT1_PPS3_DpT2_EPKcS5_PmS9_EN11_Save_errnoC2Ev(ptr noundef nonnull align 4 dereferenceable(4) %this) unnamed_addr #8 comdat align 2 {
entry:
  %this.addr = alloca ptr, align 8
  store ptr %this, ptr %this.addr, align 8, !tbaa !59
  %this1 = load ptr, ptr %this.addr, align 8
  %_M_errno = getelementptr inbounds nuw %struct._Save_errno, ptr %this1, i32 0, i32 0
  %call = call ptr @__errno_location() #24
  %0 = load i32, ptr %call, align 4, !tbaa !26
  store i32 %0, ptr %_M_errno, align 4, !tbaa !61
  %call2 = call ptr @__errno_location() #24
  store i32 0, ptr %call2, align 4, !tbaa !26
  ret void
}

; Function Attrs: noreturn
declare void @_ZSt24__throw_invalid_argumentPKc(ptr noundef) #9

; Function Attrs: nounwind willreturn memory(none)
declare ptr @__errno_location() #10

; Function Attrs: mustprogress nounwind uwtable
define linkonce_odr noundef zeroext i1 @_ZZN9__gnu_cxx6__stoaIlicJiEEET0_PFT_PKT1_PPS3_DpT2_EPKcS5_PmS9_EN10_Range_chk6_S_chkElSt17integral_constantIbLb1EE(i64 noundef %__val) #8 comdat align 2 {
entry:
  %0 = alloca %"struct.std::integral_constant", align 1
  %__val.addr = alloca i64, align 8
  store i64 %__val, ptr %__val.addr, align 8, !tbaa !28
  %1 = load i64, ptr %__val.addr, align 8, !tbaa !28
  %cmp = icmp slt i64 %1, -2147483648
  br i1 %cmp, label %lor.end, label %lor.rhs

lor.rhs:                                          ; preds = %entry
  %2 = load i64, ptr %__val.addr, align 8, !tbaa !28
  %cmp1 = icmp sgt i64 %2, 2147483647
  br label %lor.end

lor.end:                                          ; preds = %lor.rhs, %entry
  %3 = phi i1 [ true, %entry ], [ %cmp1, %lor.rhs ]
  ret i1 %3
}

; Function Attrs: noreturn
declare void @_ZSt20__throw_out_of_rangePKc(ptr noundef) #9

; Function Attrs: mustprogress nounwind uwtable
define linkonce_odr void @_ZZN9__gnu_cxx6__stoaIlicJiEEET0_PFT_PKT1_PPS3_DpT2_EPKcS5_PmS9_EN11_Save_errnoD2Ev(ptr noundef nonnull align 4 dereferenceable(4) %this) unnamed_addr #8 comdat align 2 {
entry:
  %this.addr = alloca ptr, align 8
  store ptr %this, ptr %this.addr, align 8, !tbaa !59
  %this1 = load ptr, ptr %this.addr, align 8
  %call = call ptr @__errno_location() #24
  %0 = load i32, ptr %call, align 4, !tbaa !26
  %cmp = icmp eq i32 %0, 0
  br i1 %cmp, label %if.then, label %if.end

if.then:                                          ; preds = %entry
  %_M_errno = getelementptr inbounds nuw %struct._Save_errno, ptr %this1, i32 0, i32 0
  %1 = load i32, ptr %_M_errno, align 4, !tbaa !61
  %call2 = call ptr @__errno_location() #24
  store i32 %1, ptr %call2, align 4, !tbaa !26
  br label %if.end

if.end:                                           ; preds = %if.then, %entry
  ret void
}

; Function Attrs: mustprogress nounwind uwtable
define available_externally noundef ptr @_ZNKSt7__cxx1112basic_stringIcSt11char_traitsIcESaIcEE7_M_dataEv(ptr noundef nonnull align 8 dereferenceable(32) %this) #8 align 2 {
entry:
  %this.addr = alloca ptr, align 8
  store ptr %this, ptr %this.addr, align 8, !tbaa !22
  %this1 = load ptr, ptr %this.addr, align 8
  %_M_dataplus = getelementptr inbounds nuw %"class.std::__cxx11::basic_string", ptr %this1, i32 0, i32 0
  %_M_p = getelementptr inbounds nuw %"struct.std::__cxx11::basic_string<char>::_Alloc_hider", ptr %_M_dataplus, i32 0, i32 0
  %0 = load ptr, ptr %_M_p, align 8, !tbaa !63
  ret ptr %0
}

; Function Attrs: noinline noreturn nounwind uwtable
define linkonce_odr hidden void @__clang_call_terminate(ptr noundef %0) #11 comdat {
  %2 = call ptr @__cxa_begin_catch(ptr %0) #3
  call void @_ZSt9terminatev() #23
  unreachable
}

declare ptr @__cxa_begin_catch(ptr)

declare void @_ZSt9terminatev()

; Function Attrs: mustprogress uwtable
define available_externally void @_ZNSt7__cxx1112basic_stringIcSt11char_traitsIcESaIcEE10_M_disposeEv(ptr noundef nonnull align 8 dereferenceable(32) %this) #4 align 2 {
entry:
  %this.addr = alloca ptr, align 8
  store ptr %this, ptr %this.addr, align 8, !tbaa !22
  %this1 = load ptr, ptr %this.addr, align 8
  %call = call noundef zeroext i1 @_ZNKSt7__cxx1112basic_stringIcSt11char_traitsIcESaIcEE11_M_is_localEv(ptr noundef nonnull align 8 dereferenceable(32) %this1)
  br i1 %call, label %if.end, label %if.then

if.then:                                          ; preds = %entry
  %0 = getelementptr inbounds nuw %"class.std::__cxx11::basic_string", ptr %this1, i32 0, i32 2
  %1 = load i64, ptr %0, align 8, !tbaa !19
  call void @_ZNSt7__cxx1112basic_stringIcSt11char_traitsIcESaIcEE10_M_destroyEm(ptr noundef nonnull align 8 dereferenceable(32) %this1, i64 noundef %1) #3
  br label %if.end

if.end:                                           ; preds = %if.then, %entry
  ret void
}

; Function Attrs: mustprogress uwtable
define available_externally noundef zeroext i1 @_ZNKSt7__cxx1112basic_stringIcSt11char_traitsIcESaIcEE11_M_is_localEv(ptr noundef nonnull align 8 dereferenceable(32) %this) #4 align 2 {
entry:
  %this.addr = alloca ptr, align 8
  store ptr %this, ptr %this.addr, align 8, !tbaa !22
  %this1 = load ptr, ptr %this.addr, align 8
  %call = call noundef ptr @_ZNKSt7__cxx1112basic_stringIcSt11char_traitsIcESaIcEE7_M_dataEv(ptr noundef nonnull align 8 dereferenceable(32) %this1)
  %call2 = call noundef ptr @_ZNKSt7__cxx1112basic_stringIcSt11char_traitsIcESaIcEE13_M_local_dataEv(ptr noundef nonnull align 8 dereferenceable(32) %this1)
  %cmp = icmp eq ptr %call, %call2
  ret i1 %cmp
}

; Function Attrs: mustprogress nounwind uwtable
define available_externally void @_ZNSt7__cxx1112basic_stringIcSt11char_traitsIcESaIcEE10_M_destroyEm(ptr noundef nonnull align 8 dereferenceable(32) %this, i64 noundef %__size) #8 align 2 personality ptr @__gxx_personality_v0 {
entry:
  %this.addr = alloca ptr, align 8
  %__size.addr = alloca i64, align 8
  store ptr %this, ptr %this.addr, align 8, !tbaa !22
  store i64 %__size, ptr %__size.addr, align 8, !tbaa !28
  %this1 = load ptr, ptr %this.addr, align 8
  %call = invoke noundef nonnull align 1 dereferenceable(1) ptr @_ZNSt7__cxx1112basic_stringIcSt11char_traitsIcESaIcEE16_M_get_allocatorEv(ptr noundef nonnull align 8 dereferenceable(32) %this1)
          to label %invoke.cont unwind label %terminate.lpad

invoke.cont:                                      ; preds = %entry
  %call2 = call noundef ptr @_ZNKSt7__cxx1112basic_stringIcSt11char_traitsIcESaIcEE7_M_dataEv(ptr noundef nonnull align 8 dereferenceable(32) %this1)
  %0 = load i64, ptr %__size.addr, align 8, !tbaa !28
  %add = add i64 %0, 1
  invoke void @_ZNSt16allocator_traitsISaIcEE10deallocateERS0_Pcm(ptr noundef nonnull align 1 dereferenceable(1) %call, ptr noundef %call2, i64 noundef %add)
          to label %invoke.cont3 unwind label %terminate.lpad

invoke.cont3:                                     ; preds = %invoke.cont
  ret void

terminate.lpad:                                   ; preds = %invoke.cont, %entry
  %1 = landingpad { ptr, i32 }
          catch ptr null
  %2 = extractvalue { ptr, i32 } %1, 0
  call void @__clang_call_terminate(ptr %2) #23
  unreachable
}

; Function Attrs: mustprogress nounwind uwtable
define available_externally noundef ptr @_ZNKSt7__cxx1112basic_stringIcSt11char_traitsIcESaIcEE13_M_local_dataEv(ptr noundef nonnull align 8 dereferenceable(32) %this) #8 align 2 {
entry:
  %this.addr = alloca ptr, align 8
  store ptr %this, ptr %this.addr, align 8, !tbaa !22
  %this1 = load ptr, ptr %this.addr, align 8
  %0 = getelementptr inbounds nuw %"class.std::__cxx11::basic_string", ptr %this1, i32 0, i32 2
  %arraydecay = getelementptr inbounds [16 x i8], ptr %0, i64 0, i64 0
  %call = call noundef ptr @_ZNSt19__ptr_traits_ptr_toIPKcS0_Lb0EE10pointer_toERS0_(ptr noundef nonnull align 1 dereferenceable(1) %arraydecay) #3
  ret ptr %call
}

; Function Attrs: mustprogress nounwind uwtable
define linkonce_odr noundef ptr @_ZNSt19__ptr_traits_ptr_toIPKcS0_Lb0EE10pointer_toERS0_(ptr noundef nonnull align 1 dereferenceable(1) %__r) #8 comdat align 2 {
entry:
  %__r.addr = alloca ptr, align 8
  store ptr %__r, ptr %__r.addr, align 8, !tbaa !57
  %0 = load ptr, ptr %__r.addr, align 8, !tbaa !57
  ret ptr %0
}

; Function Attrs: mustprogress uwtable
define linkonce_odr void @_ZNSt16allocator_traitsISaIcEE10deallocateERS0_Pcm(ptr noundef nonnull align 1 dereferenceable(1) %__a, ptr noundef %__p, i64 noundef %__n) #4 comdat align 2 {
entry:
  %__a.addr = alloca ptr, align 8
  %__p.addr = alloca ptr, align 8
  %__n.addr = alloca i64, align 8
  store ptr %__a, ptr %__a.addr, align 8, !tbaa !66
  store ptr %__p, ptr %__p.addr, align 8, !tbaa !57
  store i64 %__n, ptr %__n.addr, align 8, !tbaa !28
  %0 = load ptr, ptr %__a.addr, align 8, !tbaa !66
  %1 = load ptr, ptr %__p.addr, align 8, !tbaa !57
  %2 = load i64, ptr %__n.addr, align 8, !tbaa !28
  call void @_ZNSt15__new_allocatorIcE10deallocateEPcm(ptr noundef nonnull align 1 dereferenceable(1) %0, ptr noundef %1, i64 noundef %2)
  ret void
}

; Function Attrs: mustprogress nounwind uwtable
define available_externally noundef nonnull align 1 dereferenceable(1) ptr @_ZNSt7__cxx1112basic_stringIcSt11char_traitsIcESaIcEE16_M_get_allocatorEv(ptr noundef nonnull align 8 dereferenceable(32) %this) #8 align 2 {
entry:
  %this.addr = alloca ptr, align 8
  store ptr %this, ptr %this.addr, align 8, !tbaa !22
  %this1 = load ptr, ptr %this.addr, align 8
  %_M_dataplus = getelementptr inbounds nuw %"class.std::__cxx11::basic_string", ptr %this1, i32 0, i32 0
  ret ptr %_M_dataplus
}

; Function Attrs: mustprogress nounwind uwtable
define linkonce_odr void @_ZNSt15__new_allocatorIcE10deallocateEPcm(ptr noundef nonnull align 1 dereferenceable(1) %this, ptr noundef %__p, i64 noundef %__n) #8 comdat align 2 {
entry:
  %this.addr = alloca ptr, align 8
  %__p.addr = alloca ptr, align 8
  %__n.addr = alloca i64, align 8
  store ptr %this, ptr %this.addr, align 8, !tbaa !68
  store ptr %__p, ptr %__p.addr, align 8, !tbaa !57
  store i64 %__n, ptr %__n.addr, align 8, !tbaa !28
  %this1 = load ptr, ptr %this.addr, align 8
  %0 = load ptr, ptr %__p.addr, align 8, !tbaa !57
  %1 = load i64, ptr %__n.addr, align 8, !tbaa !28
  %mul = mul i64 %1, 1
  call void @_ZdlPvm(ptr noundef %0, i64 noundef %mul) #25
  ret void
}

; Function Attrs: nobuiltin nounwind
declare void @_ZdlPvm(ptr noundef, i64 noundef) #12

; Function Attrs: mustprogress uwtable
define linkonce_odr noundef double @_ZN9__gnu_cxx6__stoaIddcJEEET0_PFT_PKT1_PPS3_DpT2_EPKcS5_PmS9_(ptr noundef %__convf, ptr noundef %__name, ptr noundef %__str, ptr noundef %__idx) #4 comdat personality ptr @__gxx_personality_v0 {
entry:
  %__convf.addr = alloca ptr, align 8
  %__name.addr = alloca ptr, align 8
  %__str.addr = alloca ptr, align 8
  %__idx.addr = alloca ptr, align 8
  %__ret = alloca double, align 8
  %__endptr = alloca ptr, align 8
  %__save_errno = alloca %struct._Save_errno.9, align 4
  %__tmp = alloca double, align 8
  %exn.slot = alloca ptr, align 8
  %ehselector.slot = alloca i32, align 4
  %agg.tmp = alloca %"struct.std::integral_constant.10", align 1
  %ref.tmp = alloca %"struct.std::is_same.11", align 1
  store ptr %__convf, ptr %__convf.addr, align 8, !tbaa !56
  store ptr %__name, ptr %__name.addr, align 8, !tbaa !57
  store ptr %__str, ptr %__str.addr, align 8, !tbaa !57
  store ptr %__idx, ptr %__idx.addr, align 8, !tbaa !24
  call void @llvm.lifetime.start.p0(i64 8, ptr %__ret) #3
  call void @llvm.lifetime.start.p0(i64 8, ptr %__endptr) #3
  call void @llvm.lifetime.start.p0(i64 4, ptr %__save_errno) #3
  call void @_ZZN9__gnu_cxx6__stoaIddcJEEET0_PFT_PKT1_PPS3_DpT2_EPKcS5_PmS9_EN11_Save_errnoC2Ev(ptr noundef nonnull align 4 dereferenceable(4) %__save_errno)
  call void @llvm.lifetime.start.p0(i64 8, ptr %__tmp) #3
  %0 = load ptr, ptr %__convf.addr, align 8, !tbaa !56
  %1 = load ptr, ptr %__str.addr, align 8, !tbaa !57
  %call = invoke noundef double %0(ptr noundef %1, ptr noundef %__endptr)
          to label %invoke.cont unwind label %lpad

invoke.cont:                                      ; preds = %entry
  store double %call, ptr %__tmp, align 8, !tbaa !20
  %2 = load ptr, ptr %__endptr, align 8, !tbaa !57
  %3 = load ptr, ptr %__str.addr, align 8, !tbaa !57
  %cmp = icmp eq ptr %2, %3
  br i1 %cmp, label %if.then, label %if.else

if.then:                                          ; preds = %invoke.cont
  %4 = load ptr, ptr %__name.addr, align 8, !tbaa !57
  invoke void @_ZSt24__throw_invalid_argumentPKc(ptr noundef %4) #22
          to label %invoke.cont1 unwind label %lpad

invoke.cont1:                                     ; preds = %if.then
  unreachable

lpad:                                             ; preds = %if.then7, %if.then, %entry
  %5 = landingpad { ptr, i32 }
          cleanup
  %6 = extractvalue { ptr, i32 } %5, 0
  store ptr %6, ptr %exn.slot, align 8
  %7 = extractvalue { ptr, i32 } %5, 1
  store i32 %7, ptr %ehselector.slot, align 4
  br label %ehcleanup

if.else:                                          ; preds = %invoke.cont
  %call2 = call ptr @__errno_location() #24
  %8 = load i32, ptr %call2, align 4, !tbaa !26
  %cmp3 = icmp eq i32 %8, 34
  call void @llvm.lifetime.start.p0(i64 1, ptr %ref.tmp) #3
  br i1 %cmp3, label %lor.end, label %lor.rhs

lor.rhs:                                          ; preds = %if.else
  %9 = load double, ptr %__tmp, align 8, !tbaa !20
  %call6 = invoke noundef zeroext i1 @_ZZN9__gnu_cxx6__stoaIddcJEEET0_PFT_PKT1_PPS3_DpT2_EPKcS5_PmS9_EN10_Range_chk6_S_chkEdSt17integral_constantIbLb0EE(double noundef %9)
          to label %invoke.cont5 unwind label %lpad4

invoke.cont5:                                     ; preds = %lor.rhs
  br label %lor.end

lor.end:                                          ; preds = %invoke.cont5, %if.else
  %10 = phi i1 [ true, %if.else ], [ %call6, %invoke.cont5 ]
  call void @llvm.lifetime.end.p0(i64 1, ptr %ref.tmp) #3
  br i1 %10, label %if.then7, label %if.else9

if.then7:                                         ; preds = %lor.end
  %11 = load ptr, ptr %__name.addr, align 8, !tbaa !57
  invoke void @_ZSt20__throw_out_of_rangePKc(ptr noundef %11) #22
          to label %invoke.cont8 unwind label %lpad

invoke.cont8:                                     ; preds = %if.then7
  unreachable

lpad4:                                            ; preds = %lor.rhs
  %12 = landingpad { ptr, i32 }
          cleanup
  %13 = extractvalue { ptr, i32 } %12, 0
  store ptr %13, ptr %exn.slot, align 8
  %14 = extractvalue { ptr, i32 } %12, 1
  store i32 %14, ptr %ehselector.slot, align 4
  call void @llvm.lifetime.end.p0(i64 1, ptr %ref.tmp) #3
  br label %ehcleanup

if.else9:                                         ; preds = %lor.end
  %15 = load double, ptr %__tmp, align 8, !tbaa !20
  store double %15, ptr %__ret, align 8, !tbaa !20
  br label %if.end

if.end:                                           ; preds = %if.else9
  br label %if.end10

if.end10:                                         ; preds = %if.end
  %16 = load ptr, ptr %__idx.addr, align 8, !tbaa !24
  %tobool = icmp ne ptr %16, null
  br i1 %tobool, label %if.then11, label %if.end12

if.then11:                                        ; preds = %if.end10
  %17 = load ptr, ptr %__endptr, align 8, !tbaa !57
  %18 = load ptr, ptr %__str.addr, align 8, !tbaa !57
  %sub.ptr.lhs.cast = ptrtoint ptr %17 to i64
  %sub.ptr.rhs.cast = ptrtoint ptr %18 to i64
  %sub.ptr.sub = sub i64 %sub.ptr.lhs.cast, %sub.ptr.rhs.cast
  %19 = load ptr, ptr %__idx.addr, align 8, !tbaa !24
  store i64 %sub.ptr.sub, ptr %19, align 8, !tbaa !28
  br label %if.end12

if.end12:                                         ; preds = %if.then11, %if.end10
  %20 = load double, ptr %__ret, align 8, !tbaa !20
  call void @llvm.lifetime.end.p0(i64 8, ptr %__tmp) #3
  call void @_ZZN9__gnu_cxx6__stoaIddcJEEET0_PFT_PKT1_PPS3_DpT2_EPKcS5_PmS9_EN11_Save_errnoD2Ev(ptr noundef nonnull align 4 dereferenceable(4) %__save_errno) #3
  call void @llvm.lifetime.end.p0(i64 4, ptr %__save_errno) #3
  call void @llvm.lifetime.end.p0(i64 8, ptr %__endptr) #3
  call void @llvm.lifetime.end.p0(i64 8, ptr %__ret) #3
  ret double %20

ehcleanup:                                        ; preds = %lpad4, %lpad
  call void @llvm.lifetime.end.p0(i64 8, ptr %__tmp) #3
  call void @_ZZN9__gnu_cxx6__stoaIddcJEEET0_PFT_PKT1_PPS3_DpT2_EPKcS5_PmS9_EN11_Save_errnoD2Ev(ptr noundef nonnull align 4 dereferenceable(4) %__save_errno) #3
  call void @llvm.lifetime.end.p0(i64 4, ptr %__save_errno) #3
  call void @llvm.lifetime.end.p0(i64 8, ptr %__endptr) #3
  call void @llvm.lifetime.end.p0(i64 8, ptr %__ret) #3
  br label %eh.resume

eh.resume:                                        ; preds = %ehcleanup
  %exn = load ptr, ptr %exn.slot, align 8
  %sel = load i32, ptr %ehselector.slot, align 4
  %lpad.val = insertvalue { ptr, i32 } poison, ptr %exn, 0
  %lpad.val17 = insertvalue { ptr, i32 } %lpad.val, i32 %sel, 1
  resume { ptr, i32 } %lpad.val17
}

; Function Attrs: nounwind
declare double @strtod(ptr noundef, ptr noundef) #2

; Function Attrs: mustprogress nounwind uwtable
define linkonce_odr void @_ZZN9__gnu_cxx6__stoaIddcJEEET0_PFT_PKT1_PPS3_DpT2_EPKcS5_PmS9_EN11_Save_errnoC2Ev(ptr noundef nonnull align 4 dereferenceable(4) %this) unnamed_addr #8 comdat align 2 {
entry:
  %this.addr = alloca ptr, align 8
  store ptr %this, ptr %this.addr, align 8, !tbaa !70
  %this1 = load ptr, ptr %this.addr, align 8
  %_M_errno = getelementptr inbounds nuw %struct._Save_errno.9, ptr %this1, i32 0, i32 0
  %call = call ptr @__errno_location() #24
  %0 = load i32, ptr %call, align 4, !tbaa !26
  store i32 %0, ptr %_M_errno, align 4, !tbaa !72
  %call2 = call ptr @__errno_location() #24
  store i32 0, ptr %call2, align 4, !tbaa !26
  ret void
}

; Function Attrs: mustprogress nounwind uwtable
define linkonce_odr noundef zeroext i1 @_ZZN9__gnu_cxx6__stoaIddcJEEET0_PFT_PKT1_PPS3_DpT2_EPKcS5_PmS9_EN10_Range_chk6_S_chkEdSt17integral_constantIbLb0EE(double noundef %0) #8 comdat align 2 {
entry:
  %1 = alloca %"struct.std::integral_constant.10", align 1
  %.addr = alloca double, align 8
  store double %0, ptr %.addr, align 8, !tbaa !20
  ret i1 false
}

; Function Attrs: mustprogress nounwind uwtable
define linkonce_odr void @_ZZN9__gnu_cxx6__stoaIddcJEEET0_PFT_PKT1_PPS3_DpT2_EPKcS5_PmS9_EN11_Save_errnoD2Ev(ptr noundef nonnull align 4 dereferenceable(4) %this) unnamed_addr #8 comdat align 2 {
entry:
  %this.addr = alloca ptr, align 8
  store ptr %this, ptr %this.addr, align 8, !tbaa !70
  %this1 = load ptr, ptr %this.addr, align 8
  %call = call ptr @__errno_location() #24
  %0 = load i32, ptr %call, align 4, !tbaa !26
  %cmp = icmp eq i32 %0, 0
  br i1 %cmp, label %if.then, label %if.end

if.then:                                          ; preds = %entry
  %_M_errno = getelementptr inbounds nuw %struct._Save_errno.9, ptr %this1, i32 0, i32 0
  %1 = load i32, ptr %_M_errno, align 4, !tbaa !72
  %call2 = call ptr @__errno_location() #24
  store i32 %1, ptr %call2, align 4, !tbaa !26
  br label %if.end

if.end:                                           ; preds = %if.then, %entry
  ret void
}

; Function Attrs: mustprogress uwtable
define void @_ZN6openmc6Filter31SpatialLegendreFilter_set_orderEi(ptr noundef nonnull align 8 dereferenceable(448) %this, i32 noundef %order) #4 align 2 personality ptr @__gxx_personality_v0 {
entry:
  %this.addr = alloca ptr, align 8
  %order.addr = alloca i32, align 4
  %exn.slot = alloca ptr, align 8
  %ehselector.slot = alloca i32, align 4
  store ptr %this, ptr %this.addr, align 8, !tbaa !11
  store i32 %order, ptr %order.addr, align 4, !tbaa !26
  %this1 = load ptr, ptr %this.addr, align 8
  %0 = load i32, ptr %order.addr, align 4, !tbaa !26
  %cmp = icmp slt i32 %0, 0
  br i1 %cmp, label %if.then, label %if.end

if.then:                                          ; preds = %entry
  %exception = call ptr @__cxa_allocate_exception(i64 16) #3
  invoke void @_ZNSt16invalid_argumentC1EPKc(ptr noundef nonnull align 8 dereferenceable(16) %exception, ptr noundef @.str.7)
          to label %invoke.cont unwind label %lpad

invoke.cont:                                      ; preds = %if.then
  call void @__cxa_throw(ptr %exception, ptr @_ZTISt16invalid_argument, ptr @_ZNSt16invalid_argumentD1Ev) #22
  unreachable

lpad:                                             ; preds = %if.then
  %1 = landingpad { ptr, i32 }
          cleanup
  %2 = extractvalue { ptr, i32 } %1, 0
  store ptr %2, ptr %exn.slot, align 8
  %3 = extractvalue { ptr, i32 } %1, 1
  store i32 %3, ptr %ehselector.slot, align 4
  call void @__cxa_free_exception(ptr %exception) #3
  br label %eh.resume

if.end:                                           ; preds = %entry
  %4 = load i32, ptr %order.addr, align 4, !tbaa !26
  %order_ = getelementptr inbounds nuw %"class.openmc::Filter", ptr %this1, i32 0, i32 17
  store i32 %4, ptr %order_, align 8, !tbaa !74
  %order_2 = getelementptr inbounds nuw %"class.openmc::Filter", ptr %this1, i32 0, i32 17
  %5 = load i32, ptr %order_2, align 8, !tbaa !74
  %add = add nsw i32 %5, 1
  %n_bins_ = getelementptr inbounds nuw %"class.openmc::Filter", ptr %this1, i32 0, i32 1
  store i32 %add, ptr %n_bins_, align 4, !tbaa !75
  ret void

eh.resume:                                        ; preds = %lpad
  %exn = load ptr, ptr %exn.slot, align 8
  %sel = load i32, ptr %ehselector.slot, align 4
  %lpad.val = insertvalue { ptr, i32 } poison, ptr %exn, 0
  %lpad.val3 = insertvalue { ptr, i32 } %lpad.val, i32 %sel, 1
  resume { ptr, i32 } %lpad.val3
}

declare void @_ZNSt16invalid_argumentC1EPKc(ptr noundef nonnull align 8 dereferenceable(16), ptr noundef) unnamed_addr #1

; Function Attrs: nounwind
declare void @_ZNSt16invalid_argumentD1Ev(ptr noundef nonnull align 8 dereferenceable(16)) unnamed_addr #2

; Function Attrs: mustprogress uwtable
define void @_ZNK6openmc6Filter34SpatialLegendreFilter_get_all_binsERKNS_8ParticleENS_14TallyEstimatorERNS_11FilterMatchE(ptr noundef nonnull align 8 dereferenceable(448) %this, ptr noundef nonnull align 8 dereferenceable(2728) %p, i32 noundef %estimator, ptr noundef nonnull align 8 dereferenceable(1513) %match) #4 align 2 {
entry:
  %this.addr = alloca ptr, align 8
  %p.addr = alloca ptr, align 8
  %estimator.addr = alloca i32, align 4
  %match.addr = alloca ptr, align 8
  %x = alloca double, align 8
  %x_norm = alloca double, align 8
  %wgt = alloca [125 x double], align 16
  %i = alloca i32, align 4
  store ptr %this, ptr %this.addr, align 8, !tbaa !11
  store ptr %p, ptr %p.addr, align 8, !tbaa !76
  store i32 %estimator, ptr %estimator.addr, align 4, !tbaa !78
  store ptr %match, ptr %match.addr, align 8, !tbaa !80
  %this1 = load ptr, ptr %this.addr, align 8
  call void @llvm.lifetime.start.p0(i64 8, ptr %x) #3
  %axis_ = getelementptr inbounds nuw %"class.openmc::Filter", ptr %this1, i32 0, i32 22
  %0 = load i32, ptr %axis_, align 4, !tbaa !32
  %cmp = icmp eq i32 %0, 0
  br i1 %cmp, label %if.then, label %if.else

if.then:                                          ; preds = %entry
  %1 = load ptr, ptr %p.addr, align 8, !tbaa !76
  %call = call noundef nonnull align 8 dereferenceable(24) ptr @_ZNK6openmc8Particle1rEv(ptr noundef nonnull align 8 dereferenceable(2728) %1)
  %x2 = getelementptr inbounds nuw %"struct.openmc::Position", ptr %call, i32 0, i32 0
  %2 = load double, ptr %x2, align 8, !tbaa !82
  store double %2, ptr %x, align 8, !tbaa !20
  br label %if.end9

if.else:                                          ; preds = %entry
  %axis_3 = getelementptr inbounds nuw %"class.openmc::Filter", ptr %this1, i32 0, i32 22
  %3 = load i32, ptr %axis_3, align 4, !tbaa !32
  %cmp4 = icmp eq i32 %3, 1
  br i1 %cmp4, label %if.then5, label %if.else7

if.then5:                                         ; preds = %if.else
  %4 = load ptr, ptr %p.addr, align 8, !tbaa !76
  %call6 = call noundef nonnull align 8 dereferenceable(24) ptr @_ZNK6openmc8Particle1rEv(ptr noundef nonnull align 8 dereferenceable(2728) %4)
  %y = getelementptr inbounds nuw %"struct.openmc::Position", ptr %call6, i32 0, i32 1
  %5 = load double, ptr %y, align 8, !tbaa !84
  store double %5, ptr %x, align 8, !tbaa !20
  br label %if.end

if.else7:                                         ; preds = %if.else
  %6 = load ptr, ptr %p.addr, align 8, !tbaa !76
  %call8 = call noundef nonnull align 8 dereferenceable(24) ptr @_ZNK6openmc8Particle1rEv(ptr noundef nonnull align 8 dereferenceable(2728) %6)
  %z = getelementptr inbounds nuw %"struct.openmc::Position", ptr %call8, i32 0, i32 2
  %7 = load double, ptr %z, align 8, !tbaa !85
  store double %7, ptr %x, align 8, !tbaa !20
  br label %if.end

if.end:                                           ; preds = %if.else7, %if.then5
  br label %if.end9

if.end9:                                          ; preds = %if.end, %if.then
  %8 = load double, ptr %x, align 8, !tbaa !20
  %min_ = getelementptr inbounds nuw %"class.openmc::Filter", ptr %this1, i32 0, i32 23
  %9 = load double, ptr %min_, align 8, !tbaa !54
  %cmp10 = fcmp oge double %8, %9
  br i1 %cmp10, label %land.lhs.true, label %if.end20

land.lhs.true:                                    ; preds = %if.end9
  %10 = load double, ptr %x, align 8, !tbaa !20
  %max_ = getelementptr inbounds nuw %"class.openmc::Filter", ptr %this1, i32 0, i32 24
  %11 = load double, ptr %max_, align 8, !tbaa !55
  %cmp11 = fcmp ole double %10, %11
  br i1 %cmp11, label %if.then12, label %if.end20

if.then12:                                        ; preds = %land.lhs.true
  call void @llvm.lifetime.start.p0(i64 8, ptr %x_norm) #3
  %12 = load double, ptr %x, align 8, !tbaa !20
  %min_13 = getelementptr inbounds nuw %"class.openmc::Filter", ptr %this1, i32 0, i32 23
  %13 = load double, ptr %min_13, align 8, !tbaa !54
  %sub = fsub double %12, %13
  %mul = fmul double 2.000000e+00, %sub
  %max_14 = getelementptr inbounds nuw %"class.openmc::Filter", ptr %this1, i32 0, i32 24
  %14 = load double, ptr %max_14, align 8, !tbaa !55
  %min_15 = getelementptr inbounds nuw %"class.openmc::Filter", ptr %this1, i32 0, i32 23
  %15 = load double, ptr %min_15, align 8, !tbaa !54
  %sub16 = fsub double %14, %15
  %div = fdiv double %mul, %sub16
  %sub17 = fsub double %div, 1.000000e+00
  store double %sub17, ptr %x_norm, align 8, !tbaa !20
  call void @llvm.lifetime.start.p0(i64 1000, ptr %wgt) #3
  %order_ = getelementptr inbounds nuw %"class.openmc::Filter", ptr %this1, i32 0, i32 17
  %16 = load i32, ptr %order_, align 8, !tbaa !74
  %17 = load double, ptr %x_norm, align 8, !tbaa !20
  %arraydecay = getelementptr inbounds [125 x double], ptr %wgt, i64 0, i64 0
  call void @calc_pn_c(i32 noundef %16, double noundef %17, ptr noundef %arraydecay)
  call void @llvm.lifetime.start.p0(i64 4, ptr %i) #3
  store i32 0, ptr %i, align 4, !tbaa !26
  br label %for.cond

for.cond:                                         ; preds = %for.inc, %if.then12
  %18 = load i32, ptr %i, align 4, !tbaa !26
  %order_18 = getelementptr inbounds nuw %"class.openmc::Filter", ptr %this1, i32 0, i32 17
  %19 = load i32, ptr %order_18, align 8, !tbaa !74
  %add = add nsw i32 %19, 1
  %cmp19 = icmp slt i32 %18, %add
  br i1 %cmp19, label %for.body, label %for.cond.cleanup

for.cond.cleanup:                                 ; preds = %for.cond
  call void @llvm.lifetime.end.p0(i64 4, ptr %i) #3
  br label %for.end

for.body:                                         ; preds = %for.cond
  %20 = load ptr, ptr %match.addr, align 8, !tbaa !80
  %21 = load i32, ptr %i, align 4, !tbaa !26
  %22 = load i32, ptr %i, align 4, !tbaa !26
  %idxprom = sext i32 %22 to i64
  %arrayidx = getelementptr inbounds [125 x double], ptr %wgt, i64 0, i64 %idxprom
  %23 = load double, ptr %arrayidx, align 8, !tbaa !20
  call void @_ZN6openmc11FilterMatch9push_backEid(ptr noundef nonnull align 8 dereferenceable(1513) %20, i32 noundef %21, double noundef %23)
  br label %for.inc

for.inc:                                          ; preds = %for.body
  %24 = load i32, ptr %i, align 4, !tbaa !26
  %inc = add nsw i32 %24, 1
  store i32 %inc, ptr %i, align 4, !tbaa !26
  br label %for.cond, !llvm.loop !86

for.end:                                          ; preds = %for.cond.cleanup
  call void @llvm.lifetime.end.p0(i64 1000, ptr %wgt) #3
  call void @llvm.lifetime.end.p0(i64 8, ptr %x_norm) #3
  br label %if.end20

if.end20:                                         ; preds = %for.end, %land.lhs.true, %if.end9
  call void @llvm.lifetime.end.p0(i64 8, ptr %x) #3
  ret void
}

; Function Attrs: mustprogress nounwind uwtable
define linkonce_odr noundef nonnull align 8 dereferenceable(24) ptr @_ZNK6openmc8Particle1rEv(ptr noundef nonnull align 8 dereferenceable(2728) %this) #8 comdat align 2 {
entry:
  %this.addr = alloca ptr, align 8
  store ptr %this, ptr %this.addr, align 8, !tbaa !76
  %this1 = load ptr, ptr %this.addr, align 8
  %coord_ = getelementptr inbounds nuw %"class.openmc::Particle", ptr %this1, i32 0, i32 8
  %arrayidx = getelementptr inbounds [6 x %"class.openmc::LocalCoord"], ptr %coord_, i64 0, i64 0
  %r = getelementptr inbounds nuw %"class.openmc::LocalCoord", ptr %arrayidx, i32 0, i32 0
  ret ptr %r
}

declare void @calc_pn_c(i32 noundef, double noundef, ptr noundef) #1

; Function Attrs: mustprogress uwtable
define linkonce_odr void @_ZN6openmc11FilterMatch9push_backEid(ptr noundef nonnull align 8 dereferenceable(1513) %this, i32 noundef %bin, double noundef %weight) #4 comdat align 2 {
entry:
  %this.addr = alloca ptr, align 8
  %bin.addr = alloca i32, align 4
  %weight.addr = alloca double, align 8
  store ptr %this, ptr %this.addr, align 8, !tbaa !80
  store i32 %bin, ptr %bin.addr, align 4, !tbaa !26
  store double %weight, ptr %weight.addr, align 8, !tbaa !20
  %this1 = load ptr, ptr %this.addr, align 8
  %call = call noundef zeroext i1 @_ZN6openmc11FilterMatch7is_fullEv(ptr noundef nonnull align 8 dereferenceable(1513) %this1)
  br i1 %call, label %if.end, label %if.then

if.then:                                          ; preds = %entry
  %0 = load i32, ptr %bin.addr, align 4, !tbaa !26
  %bins_ = getelementptr inbounds nuw %"class.openmc::FilterMatch", ptr %this1, i32 0, i32 0
  %bins_weights_length_ = getelementptr inbounds nuw %"class.openmc::FilterMatch", ptr %this1, i32 0, i32 3
  %1 = load i32, ptr %bins_weights_length_, align 8, !tbaa !88
  %idxprom = sext i32 %1 to i64
  %arrayidx = getelementptr inbounds [125 x i32], ptr %bins_, i64 0, i64 %idxprom
  store i32 %0, ptr %arrayidx, align 4, !tbaa !26
  %2 = load double, ptr %weight.addr, align 8, !tbaa !20
  %weights_ = getelementptr inbounds nuw %"class.openmc::FilterMatch", ptr %this1, i32 0, i32 2
  %bins_weights_length_2 = getelementptr inbounds nuw %"class.openmc::FilterMatch", ptr %this1, i32 0, i32 3
  %3 = load i32, ptr %bins_weights_length_2, align 8, !tbaa !88
  %idxprom3 = sext i32 %3 to i64
  %arrayidx4 = getelementptr inbounds [125 x double], ptr %weights_, i64 0, i64 %idxprom3
  store double %2, ptr %arrayidx4, align 8, !tbaa !20
  %bins_weights_length_5 = getelementptr inbounds nuw %"class.openmc::FilterMatch", ptr %this1, i32 0, i32 3
  %4 = load i32, ptr %bins_weights_length_5, align 8, !tbaa !88
  %inc = add nsw i32 %4, 1
  store i32 %inc, ptr %bins_weights_length_5, align 8, !tbaa !88
  br label %if.end

if.end:                                           ; preds = %if.then, %entry
  ret void
}

; Function Attrs: mustprogress nounwind uwtable
define linkonce_odr noundef zeroext i1 @_ZN6openmc11FilterMatch7is_fullEv(ptr noundef nonnull align 8 dereferenceable(1513) %this) #8 comdat align 2 {
entry:
  %retval = alloca i1, align 1
  %this.addr = alloca ptr, align 8
  store ptr %this, ptr %this.addr, align 8, !tbaa !80
  %this1 = load ptr, ptr %this.addr, align 8
  %bins_weights_length_ = getelementptr inbounds nuw %"class.openmc::FilterMatch", ptr %this1, i32 0, i32 3
  %0 = load i32, ptr %bins_weights_length_, align 8, !tbaa !88
  %cmp = icmp sge i32 %0, 125
  br i1 %cmp, label %if.then, label %if.else

if.then:                                          ; preds = %entry
  store i1 true, ptr %retval, align 1
  br label %return

if.else:                                          ; preds = %entry
  store i1 false, ptr %retval, align 1
  br label %return

return:                                           ; preds = %if.else, %if.then
  %1 = load i1, ptr %retval, align 1
  ret i1 %1
}

; Function Attrs: mustprogress uwtable
define void @_ZNK6openmc6Filter35SpatialLegendreFilter_to_statepointEl(ptr noundef nonnull align 8 dereferenceable(448) %this, i64 noundef %filter_group) #4 align 2 {
entry:
  %this.addr = alloca ptr, align 8
  %filter_group.addr = alloca i64, align 8
  store ptr %this, ptr %this.addr, align 8, !tbaa !11
  store i64 %filter_group, ptr %filter_group.addr, align 8, !tbaa !28
  %this1 = load ptr, ptr %this.addr, align 8
  %0 = load i64, ptr %filter_group.addr, align 8, !tbaa !28
  %order_ = getelementptr inbounds nuw %"class.openmc::Filter", ptr %this1, i32 0, i32 17
  %1 = load i32, ptr %order_, align 8, !tbaa !74
  call void @_ZN6openmc13write_datasetIiEENSt9enable_ifIXsr3std9is_scalarINSt5decayIT_E4typeEEE5valueEvE4typeElPKcS3_(i64 noundef %0, ptr noundef @.str, i32 noundef %1)
  %axis_ = getelementptr inbounds nuw %"class.openmc::Filter", ptr %this1, i32 0, i32 22
  %2 = load i32, ptr %axis_, align 4, !tbaa !32
  %cmp = icmp eq i32 %2, 0
  br i1 %cmp, label %if.then, label %if.else

if.then:                                          ; preds = %entry
  %3 = load i64, ptr %filter_group.addr, align 8, !tbaa !28
  call void @_ZN6openmc13write_datasetElPKcS1_(i64 noundef %3, ptr noundef @.str.1, ptr noundef @.str.9)
  br label %if.end6

if.else:                                          ; preds = %entry
  %axis_2 = getelementptr inbounds nuw %"class.openmc::Filter", ptr %this1, i32 0, i32 22
  %4 = load i32, ptr %axis_2, align 4, !tbaa !32
  %cmp3 = icmp eq i32 %4, 1
  br i1 %cmp3, label %if.then4, label %if.else5

if.then4:                                         ; preds = %if.else
  %5 = load i64, ptr %filter_group.addr, align 8, !tbaa !28
  call void @_ZN6openmc13write_datasetElPKcS1_(i64 noundef %5, ptr noundef @.str.1, ptr noundef @.str.10)
  br label %if.end

if.else5:                                         ; preds = %if.else
  %6 = load i64, ptr %filter_group.addr, align 8, !tbaa !28
  call void @_ZN6openmc13write_datasetElPKcS1_(i64 noundef %6, ptr noundef @.str.1, ptr noundef @.str.11)
  br label %if.end

if.end:                                           ; preds = %if.else5, %if.then4
  br label %if.end6

if.end6:                                          ; preds = %if.end, %if.then
  %7 = load i64, ptr %filter_group.addr, align 8, !tbaa !28
  %min_ = getelementptr inbounds nuw %"class.openmc::Filter", ptr %this1, i32 0, i32 23
  %8 = load double, ptr %min_, align 8, !tbaa !54
  call void @_ZN6openmc13write_datasetIdEENSt9enable_ifIXsr3std9is_scalarINSt5decayIT_E4typeEEE5valueEvE4typeElPKcS3_(i64 noundef %7, ptr noundef @.str.3, double noundef %8)
  %9 = load i64, ptr %filter_group.addr, align 8, !tbaa !28
  %max_ = getelementptr inbounds nuw %"class.openmc::Filter", ptr %this1, i32 0, i32 24
  %10 = load double, ptr %max_, align 8, !tbaa !55
  call void @_ZN6openmc13write_datasetIdEENSt9enable_ifIXsr3std9is_scalarINSt5decayIT_E4typeEEE5valueEvE4typeElPKcS3_(i64 noundef %9, ptr noundef @.str.4, double noundef %10)
  ret void
}

; Function Attrs: inlinehint mustprogress uwtable
define linkonce_odr void @_ZN6openmc13write_datasetIiEENSt9enable_ifIXsr3std9is_scalarINSt5decayIT_E4typeEEE5valueEvE4typeElPKcS3_(i64 noundef %obj_id, ptr noundef %name, i32 noundef %buffer) #5 comdat {
entry:
  %obj_id.addr = alloca i64, align 8
  %name.addr = alloca ptr, align 8
  %buffer.addr = alloca i32, align 4
  store i64 %obj_id, ptr %obj_id.addr, align 8, !tbaa !28
  store ptr %name, ptr %name.addr, align 8, !tbaa !57
  store i32 %buffer, ptr %buffer.addr, align 4, !tbaa !26
  %0 = load i64, ptr %obj_id.addr, align 8, !tbaa !28
  %1 = load ptr, ptr %name.addr, align 8, !tbaa !57
  %2 = load i64, ptr @_ZN6openmc9H5TypeMapIiE7type_idE, align 8, !tbaa !28
  call void @_ZN6openmc22write_dataset_lowlevelEliPKmPKcllbPKv(i64 noundef %0, i32 noundef 0, ptr noundef null, ptr noundef %1, i64 noundef %2, i64 noundef 0, i1 noundef zeroext false, ptr noundef %buffer.addr)
  ret void
}

; Function Attrs: inlinehint mustprogress uwtable
define linkonce_odr void @_ZN6openmc13write_datasetElPKcS1_(i64 noundef %obj_id, ptr noundef %name, ptr noundef %buffer) #5 comdat personality ptr @__gxx_personality_v0 {
entry:
  %obj_id.addr = alloca i64, align 8
  %name.addr = alloca ptr, align 8
  %buffer.addr = alloca ptr, align 8
  %ref.tmp = alloca %"class.std::__cxx11::basic_string", align 8
  %ref.tmp1 = alloca %"class.std::allocator", align 1
  %exn.slot = alloca ptr, align 8
  %ehselector.slot = alloca i32, align 4
  store i64 %obj_id, ptr %obj_id.addr, align 8, !tbaa !28
  store ptr %name, ptr %name.addr, align 8, !tbaa !57
  store ptr %buffer, ptr %buffer.addr, align 8, !tbaa !57
  %0 = load i64, ptr %obj_id.addr, align 8, !tbaa !28
  %1 = load ptr, ptr %name.addr, align 8, !tbaa !57
  call void @llvm.lifetime.start.p0(i64 32, ptr %ref.tmp) #3
  %2 = load ptr, ptr %buffer.addr, align 8, !tbaa !57
  call void @llvm.lifetime.start.p0(i64 1, ptr %ref.tmp1) #3
  call void @_ZNSaIcEC2Ev(ptr noundef nonnull align 1 dereferenceable(1) %ref.tmp1) #3
  invoke void @_ZNSt7__cxx1112basic_stringIcSt11char_traitsIcESaIcEEC2IS3_EEPKcRKS3_(ptr noundef nonnull align 8 dereferenceable(32) %ref.tmp, ptr noundef %2, ptr noundef nonnull align 1 dereferenceable(1) %ref.tmp1)
          to label %invoke.cont unwind label %lpad

invoke.cont:                                      ; preds = %entry
  invoke void @_ZN6openmc12write_stringElPKcRKNSt7__cxx1112basic_stringIcSt11char_traitsIcESaIcEEEb(i64 noundef %0, ptr noundef %1, ptr noundef nonnull align 8 dereferenceable(32) %ref.tmp, i1 noundef zeroext false)
          to label %invoke.cont3 unwind label %lpad2

invoke.cont3:                                     ; preds = %invoke.cont
  call void @_ZNSt7__cxx1112basic_stringIcSt11char_traitsIcESaIcEED2Ev(ptr noundef nonnull align 8 dereferenceable(32) %ref.tmp) #3
  call void @_ZNSt15__new_allocatorIcED2Ev(ptr noundef nonnull align 1 dereferenceable(1) %ref.tmp1) #3
  call void @llvm.lifetime.end.p0(i64 1, ptr %ref.tmp1) #3
  call void @llvm.lifetime.end.p0(i64 32, ptr %ref.tmp) #3
  ret void

lpad:                                             ; preds = %entry
  %3 = landingpad { ptr, i32 }
          cleanup
  %4 = extractvalue { ptr, i32 } %3, 0
  store ptr %4, ptr %exn.slot, align 8
  %5 = extractvalue { ptr, i32 } %3, 1
  store i32 %5, ptr %ehselector.slot, align 4
  br label %ehcleanup

lpad2:                                            ; preds = %invoke.cont
  %6 = landingpad { ptr, i32 }
          cleanup
  %7 = extractvalue { ptr, i32 } %6, 0
  store ptr %7, ptr %exn.slot, align 8
  %8 = extractvalue { ptr, i32 } %6, 1
  store i32 %8, ptr %ehselector.slot, align 4
  call void @_ZNSt7__cxx1112basic_stringIcSt11char_traitsIcESaIcEED2Ev(ptr noundef nonnull align 8 dereferenceable(32) %ref.tmp) #3
  br label %ehcleanup

ehcleanup:                                        ; preds = %lpad2, %lpad
  call void @_ZNSt15__new_allocatorIcED2Ev(ptr noundef nonnull align 1 dereferenceable(1) %ref.tmp1) #3
  call void @llvm.lifetime.end.p0(i64 1, ptr %ref.tmp1) #3
  call void @llvm.lifetime.end.p0(i64 32, ptr %ref.tmp) #3
  br label %eh.resume

eh.resume:                                        ; preds = %ehcleanup
  %exn = load ptr, ptr %exn.slot, align 8
  %sel = load i32, ptr %ehselector.slot, align 4
  %lpad.val = insertvalue { ptr, i32 } poison, ptr %exn, 0
  %lpad.val6 = insertvalue { ptr, i32 } %lpad.val, i32 %sel, 1
  resume { ptr, i32 } %lpad.val6
}

; Function Attrs: inlinehint mustprogress uwtable
define linkonce_odr void @_ZN6openmc13write_datasetIdEENSt9enable_ifIXsr3std9is_scalarINSt5decayIT_E4typeEEE5valueEvE4typeElPKcS3_(i64 noundef %obj_id, ptr noundef %name, double noundef %buffer) #5 comdat {
entry:
  %obj_id.addr = alloca i64, align 8
  %name.addr = alloca ptr, align 8
  %buffer.addr = alloca double, align 8
  store i64 %obj_id, ptr %obj_id.addr, align 8, !tbaa !28
  store ptr %name, ptr %name.addr, align 8, !tbaa !57
  store double %buffer, ptr %buffer.addr, align 8, !tbaa !20
  %0 = load i64, ptr %obj_id.addr, align 8, !tbaa !28
  %1 = load ptr, ptr %name.addr, align 8, !tbaa !57
  %2 = load i64, ptr @_ZN6openmc9H5TypeMapIdE7type_idE, align 8, !tbaa !28
  call void @_ZN6openmc22write_dataset_lowlevelEliPKmPKcllbPKv(i64 noundef %0, i32 noundef 0, ptr noundef null, ptr noundef %1, i64 noundef %2, i64 noundef 0, i1 noundef zeroext false, ptr noundef %buffer.addr)
  ret void
}

declare void @_ZN6openmc22write_dataset_lowlevelEliPKmPKcllbPKv(i64 noundef, i32 noundef, ptr noundef, ptr noundef, i64 noundef, i64 noundef, i1 noundef zeroext, ptr noundef) #1

declare void @_ZN6openmc12write_stringElPKcRKNSt7__cxx1112basic_stringIcSt11char_traitsIcESaIcEEEb(i64 noundef, ptr noundef, ptr noundef nonnull align 8 dereferenceable(32), i1 noundef zeroext) #1

; Function Attrs: mustprogress nounwind uwtable
define available_externally void @_ZNSaIcEC2Ev(ptr noundef nonnull align 1 dereferenceable(1) %this) unnamed_addr #8 align 2 {
entry:
  %this.addr = alloca ptr, align 8
  store ptr %this, ptr %this.addr, align 8, !tbaa !66
  %this1 = load ptr, ptr %this.addr, align 8
  call void @_ZNSt15__new_allocatorIcEC2Ev(ptr noundef nonnull align 1 dereferenceable(1) %this1) #3
  ret void
}

; Function Attrs: mustprogress uwtable
define linkonce_odr void @_ZNSt7__cxx1112basic_stringIcSt11char_traitsIcESaIcEEC2IS3_EEPKcRKS3_(ptr noundef nonnull align 8 dereferenceable(32) %this, ptr noundef %__s, ptr noundef nonnull align 1 dereferenceable(1) %__a) unnamed_addr #4 comdat align 2 personality ptr @__gxx_personality_v0 {
entry:
  %this.addr = alloca ptr, align 8
  %__s.addr = alloca ptr, align 8
  %__a.addr = alloca ptr, align 8
  %exn.slot = alloca ptr, align 8
  %ehselector.slot = alloca i32, align 4
  %__end = alloca ptr, align 8
  %agg.tmp = alloca %"struct.std::forward_iterator_tag", align 1
  store ptr %this, ptr %this.addr, align 8, !tbaa !22
  store ptr %__s, ptr %__s.addr, align 8, !tbaa !57
  store ptr %__a, ptr %__a.addr, align 8, !tbaa !66
  %this1 = load ptr, ptr %this.addr, align 8
  %_M_dataplus = getelementptr inbounds nuw %"class.std::__cxx11::basic_string", ptr %this1, i32 0, i32 0
  %call = call noundef ptr @_ZNSt7__cxx1112basic_stringIcSt11char_traitsIcESaIcEE13_M_local_dataEv(ptr noundef nonnull align 8 dereferenceable(32) %this1)
  %0 = load ptr, ptr %__a.addr, align 8, !tbaa !66
  call void @_ZNSt7__cxx1112basic_stringIcSt11char_traitsIcESaIcEE12_Alloc_hiderC2EPcRKS3_(ptr noundef nonnull align 8 dereferenceable(8) %_M_dataplus, ptr noundef %call, ptr noundef nonnull align 1 dereferenceable(1) %0)
  %1 = load ptr, ptr %__s.addr, align 8, !tbaa !57
  %cmp = icmp eq ptr %1, null
  br i1 %cmp, label %if.then, label %if.end

if.then:                                          ; preds = %entry
  invoke void @_ZSt19__throw_logic_errorPKc(ptr noundef @.str.12) #22
          to label %invoke.cont unwind label %lpad

invoke.cont:                                      ; preds = %if.then
  unreachable

lpad:                                             ; preds = %if.then
  %2 = landingpad { ptr, i32 }
          cleanup
  %3 = extractvalue { ptr, i32 } %2, 0
  store ptr %3, ptr %exn.slot, align 8
  %4 = extractvalue { ptr, i32 } %2, 1
  store i32 %4, ptr %ehselector.slot, align 4
  br label %ehcleanup

if.end:                                           ; preds = %entry
  call void @llvm.lifetime.start.p0(i64 8, ptr %__end) #3
  %5 = load ptr, ptr %__s.addr, align 8, !tbaa !57
  %6 = load ptr, ptr %__s.addr, align 8, !tbaa !57
  %call4 = invoke noundef i64 @_ZNSt11char_traitsIcE6lengthEPKc(ptr noundef %6)
          to label %invoke.cont3 unwind label %lpad2

invoke.cont3:                                     ; preds = %if.end
  %add.ptr = getelementptr inbounds nuw i8, ptr %5, i64 %call4
  store ptr %add.ptr, ptr %__end, align 8, !tbaa !57
  %7 = load ptr, ptr %__s.addr, align 8, !tbaa !57
  %8 = load ptr, ptr %__end, align 8, !tbaa !57
  invoke void @_ZNSt7__cxx1112basic_stringIcSt11char_traitsIcESaIcEE12_M_constructIPKcEEvT_S8_St20forward_iterator_tag(ptr noundef nonnull align 8 dereferenceable(32) %this1, ptr noundef %7, ptr noundef %8)
          to label %invoke.cont5 unwind label %lpad2

invoke.cont5:                                     ; preds = %invoke.cont3
  call void @llvm.lifetime.end.p0(i64 8, ptr %__end) #3
  ret void

lpad2:                                            ; preds = %invoke.cont3, %if.end
  %9 = landingpad { ptr, i32 }
          cleanup
  %10 = extractvalue { ptr, i32 } %9, 0
  store ptr %10, ptr %exn.slot, align 8
  %11 = extractvalue { ptr, i32 } %9, 1
  store i32 %11, ptr %ehselector.slot, align 4
  call void @llvm.lifetime.end.p0(i64 8, ptr %__end) #3
  br label %ehcleanup

ehcleanup:                                        ; preds = %lpad2, %lpad
  call void @_ZNSt15__new_allocatorIcED2Ev(ptr noundef nonnull align 8 dereferenceable(8) %_M_dataplus) #3
  br label %eh.resume

eh.resume:                                        ; preds = %ehcleanup
  %exn = load ptr, ptr %exn.slot, align 8
  %sel = load i32, ptr %ehselector.slot, align 4
  %lpad.val = insertvalue { ptr, i32 } poison, ptr %exn, 0
  %lpad.val6 = insertvalue { ptr, i32 } %lpad.val, i32 %sel, 1
  resume { ptr, i32 } %lpad.val6
}

; Function Attrs: mustprogress nounwind uwtable
define linkonce_odr void @_ZNSt15__new_allocatorIcED2Ev(ptr noundef nonnull align 1 dereferenceable(1) %this) unnamed_addr #8 comdat align 2 {
entry:
  %this.addr = alloca ptr, align 8
  store ptr %this, ptr %this.addr, align 8, !tbaa !68
  %this1 = load ptr, ptr %this.addr, align 8
  ret void
}

; Function Attrs: mustprogress nounwind uwtable
define linkonce_odr void @_ZNSt15__new_allocatorIcEC2Ev(ptr noundef nonnull align 1 dereferenceable(1) %this) unnamed_addr #8 comdat align 2 {
entry:
  %this.addr = alloca ptr, align 8
  store ptr %this, ptr %this.addr, align 8, !tbaa !68
  %this1 = load ptr, ptr %this.addr, align 8
  ret void
}

; Function Attrs: mustprogress nounwind uwtable
define available_externally noundef ptr @_ZNSt7__cxx1112basic_stringIcSt11char_traitsIcESaIcEE13_M_local_dataEv(ptr noundef nonnull align 8 dereferenceable(32) %this) #8 align 2 {
entry:
  %this.addr = alloca ptr, align 8
  store ptr %this, ptr %this.addr, align 8, !tbaa !22
  %this1 = load ptr, ptr %this.addr, align 8
  %0 = getelementptr inbounds nuw %"class.std::__cxx11::basic_string", ptr %this1, i32 0, i32 2
  %arraydecay = getelementptr inbounds [16 x i8], ptr %0, i64 0, i64 0
  %call = call noundef ptr @_ZNSt19__ptr_traits_ptr_toIPccLb0EE10pointer_toERc(ptr noundef nonnull align 1 dereferenceable(1) %arraydecay) #3
  ret ptr %call
}

; Function Attrs: mustprogress nounwind uwtable
define available_externally void @_ZNSt7__cxx1112basic_stringIcSt11char_traitsIcESaIcEE12_Alloc_hiderC2EPcRKS3_(ptr noundef nonnull align 8 dereferenceable(8) %this, ptr noundef %__dat, ptr noundef nonnull align 1 dereferenceable(1) %__a) unnamed_addr #8 align 2 {
entry:
  %this.addr = alloca ptr, align 8
  %__dat.addr = alloca ptr, align 8
  %__a.addr = alloca ptr, align 8
  store ptr %this, ptr %this.addr, align 8, !tbaa !90
  store ptr %__dat, ptr %__dat.addr, align 8, !tbaa !57
  store ptr %__a, ptr %__a.addr, align 8, !tbaa !66
  %this1 = load ptr, ptr %this.addr, align 8
  %0 = load ptr, ptr %__a.addr, align 8, !tbaa !66
  call void @_ZNSaIcEC2ERKS_(ptr noundef nonnull align 1 dereferenceable(1) %this1, ptr noundef nonnull align 1 dereferenceable(1) %0) #3
  %_M_p = getelementptr inbounds nuw %"struct.std::__cxx11::basic_string<char>::_Alloc_hider", ptr %this1, i32 0, i32 0
  %1 = load ptr, ptr %__dat.addr, align 8, !tbaa !57
  store ptr %1, ptr %_M_p, align 8, !tbaa !92
  ret void
}

; Function Attrs: noreturn
declare void @_ZSt19__throw_logic_errorPKc(ptr noundef) #9

; Function Attrs: mustprogress nounwind uwtable
define linkonce_odr noundef i64 @_ZNSt11char_traitsIcE6lengthEPKc(ptr noundef %__s) #8 comdat align 2 {
entry:
  %__s.addr = alloca ptr, align 8
  store ptr %__s, ptr %__s.addr, align 8, !tbaa !57
  %0 = load ptr, ptr %__s.addr, align 8, !tbaa !57
  %call = call i64 @strlen(ptr noundef %0) #3
  ret i64 %call
}

; Function Attrs: mustprogress uwtable
define linkonce_odr void @_ZNSt7__cxx1112basic_stringIcSt11char_traitsIcESaIcEE12_M_constructIPKcEEvT_S8_St20forward_iterator_tag(ptr noundef nonnull align 8 dereferenceable(32) %this, ptr noundef %__beg, ptr noundef %__end) #4 comdat align 2 personality ptr @__gxx_personality_v0 {
entry:
  %0 = alloca %"struct.std::forward_iterator_tag", align 1
  %this.addr = alloca ptr, align 8
  %__beg.addr = alloca ptr, align 8
  %__end.addr = alloca ptr, align 8
  %__dnew = alloca i64, align 8
  %__guard = alloca %struct._Guard, align 8
  %exn.slot = alloca ptr, align 8
  %ehselector.slot = alloca i32, align 4
  store ptr %this, ptr %this.addr, align 8, !tbaa !22
  store ptr %__beg, ptr %__beg.addr, align 8, !tbaa !57
  store ptr %__end, ptr %__end.addr, align 8, !tbaa !57
  %this1 = load ptr, ptr %this.addr, align 8
  call void @llvm.lifetime.start.p0(i64 8, ptr %__dnew) #3
  %1 = load ptr, ptr %__beg.addr, align 8, !tbaa !57
  %2 = load ptr, ptr %__end.addr, align 8, !tbaa !57
  %call = call noundef i64 @_ZSt8distanceIPKcENSt15iterator_traitsIT_E15difference_typeES3_S3_(ptr noundef %1, ptr noundef %2)
  store i64 %call, ptr %__dnew, align 8, !tbaa !28
  %3 = load i64, ptr %__dnew, align 8, !tbaa !28
  %cmp = icmp ugt i64 %3, 15
  br i1 %cmp, label %if.then, label %if.else

if.then:                                          ; preds = %entry
  %call2 = call noundef ptr @_ZNSt7__cxx1112basic_stringIcSt11char_traitsIcESaIcEE9_M_createERmm(ptr noundef nonnull align 8 dereferenceable(32) %this1, ptr noundef nonnull align 8 dereferenceable(8) %__dnew, i64 noundef 0)
  call void @_ZNSt7__cxx1112basic_stringIcSt11char_traitsIcESaIcEE7_M_dataEPc(ptr noundef nonnull align 8 dereferenceable(32) %this1, ptr noundef %call2)
  %4 = load i64, ptr %__dnew, align 8, !tbaa !28
  call void @_ZNSt7__cxx1112basic_stringIcSt11char_traitsIcESaIcEE11_M_capacityEm(ptr noundef nonnull align 8 dereferenceable(32) %this1, i64 noundef %4)
  br label %if.end

if.else:                                          ; preds = %entry
  %call3 = call noundef ptr @_ZNSt7__cxx1112basic_stringIcSt11char_traitsIcESaIcEE17_M_use_local_dataEv(ptr noundef nonnull align 8 dereferenceable(32) %this1) #3
  br label %if.end

if.end:                                           ; preds = %if.else, %if.then
  call void @llvm.lifetime.start.p0(i64 8, ptr %__guard) #3
  call void @_ZZNSt7__cxx1112basic_stringIcSt11char_traitsIcESaIcEE12_M_constructIPKcEEvT_S8_St20forward_iterator_tagEN6_GuardC2EPS4_(ptr noundef nonnull align 8 dereferenceable(8) %__guard, ptr noundef %this1)
  %call4 = call noundef ptr @_ZNKSt7__cxx1112basic_stringIcSt11char_traitsIcESaIcEE7_M_dataEv(ptr noundef nonnull align 8 dereferenceable(32) %this1)
  %5 = load ptr, ptr %__beg.addr, align 8, !tbaa !57
  %6 = load ptr, ptr %__end.addr, align 8, !tbaa !57
  call void @_ZNSt7__cxx1112basic_stringIcSt11char_traitsIcESaIcEE13_S_copy_charsEPcPKcS7_(ptr noundef %call4, ptr noundef %5, ptr noundef %6) #3
  %_M_guarded = getelementptr inbounds nuw %struct._Guard, ptr %__guard, i32 0, i32 0
  store ptr null, ptr %_M_guarded, align 8, !tbaa !93
  %7 = load i64, ptr %__dnew, align 8, !tbaa !28
  invoke void @_ZNSt7__cxx1112basic_stringIcSt11char_traitsIcESaIcEE13_M_set_lengthEm(ptr noundef nonnull align 8 dereferenceable(32) %this1, i64 noundef %7)
          to label %invoke.cont unwind label %lpad

invoke.cont:                                      ; preds = %if.end
  call void @_ZZNSt7__cxx1112basic_stringIcSt11char_traitsIcESaIcEE12_M_constructIPKcEEvT_S8_St20forward_iterator_tagEN6_GuardD2Ev(ptr noundef nonnull align 8 dereferenceable(8) %__guard) #3
  call void @llvm.lifetime.end.p0(i64 8, ptr %__guard) #3
  call void @llvm.lifetime.end.p0(i64 8, ptr %__dnew) #3
  ret void

lpad:                                             ; preds = %if.end
  %8 = landingpad { ptr, i32 }
          cleanup
  %9 = extractvalue { ptr, i32 } %8, 0
  store ptr %9, ptr %exn.slot, align 8
  %10 = extractvalue { ptr, i32 } %8, 1
  store i32 %10, ptr %ehselector.slot, align 4
  call void @_ZZNSt7__cxx1112basic_stringIcSt11char_traitsIcESaIcEE12_M_constructIPKcEEvT_S8_St20forward_iterator_tagEN6_GuardD2Ev(ptr noundef nonnull align 8 dereferenceable(8) %__guard) #3
  call void @llvm.lifetime.end.p0(i64 8, ptr %__guard) #3
  call void @llvm.lifetime.end.p0(i64 8, ptr %__dnew) #3
  br label %eh.resume

eh.resume:                                        ; preds = %lpad
  %exn = load ptr, ptr %exn.slot, align 8
  %sel = load i32, ptr %ehselector.slot, align 4
  %lpad.val = insertvalue { ptr, i32 } poison, ptr %exn, 0
  %lpad.val5 = insertvalue { ptr, i32 } %lpad.val, i32 %sel, 1
  resume { ptr, i32 } %lpad.val5
}

; Function Attrs: mustprogress nounwind uwtable
define linkonce_odr noundef ptr @_ZNSt19__ptr_traits_ptr_toIPccLb0EE10pointer_toERc(ptr noundef nonnull align 1 dereferenceable(1) %__r) #8 comdat align 2 {
entry:
  %__r.addr = alloca ptr, align 8
  store ptr %__r, ptr %__r.addr, align 8, !tbaa !57
  %0 = load ptr, ptr %__r.addr, align 8, !tbaa !57
  ret ptr %0
}

; Function Attrs: mustprogress nounwind uwtable
define available_externally void @_ZNSaIcEC2ERKS_(ptr noundef nonnull align 1 dereferenceable(1) %this, ptr noundef nonnull align 1 dereferenceable(1) %__a) unnamed_addr #8 align 2 {
entry:
  %this.addr = alloca ptr, align 8
  %__a.addr = alloca ptr, align 8
  store ptr %this, ptr %this.addr, align 8, !tbaa !66
  store ptr %__a, ptr %__a.addr, align 8, !tbaa !66
  %this1 = load ptr, ptr %this.addr, align 8
  %0 = load ptr, ptr %__a.addr, align 8, !tbaa !66
  call void @_ZNSt15__new_allocatorIcEC2ERKS0_(ptr noundef nonnull align 1 dereferenceable(1) %this1, ptr noundef nonnull align 1 dereferenceable(1) %0) #3
  ret void
}

; Function Attrs: mustprogress nounwind uwtable
define linkonce_odr void @_ZNSt15__new_allocatorIcEC2ERKS0_(ptr noundef nonnull align 1 dereferenceable(1) %this, ptr noundef nonnull align 1 dereferenceable(1) %0) unnamed_addr #8 comdat align 2 {
entry:
  %this.addr = alloca ptr, align 8
  %.addr = alloca ptr, align 8
  store ptr %this, ptr %this.addr, align 8, !tbaa !68
  store ptr %0, ptr %.addr, align 8, !tbaa !68
  %this1 = load ptr, ptr %this.addr, align 8
  ret void
}

; Function Attrs: nounwind
declare i64 @strlen(ptr noundef) #2

; Function Attrs: inlinehint mustprogress uwtable
define linkonce_odr noundef i64 @_ZSt8distanceIPKcENSt15iterator_traitsIT_E15difference_typeES3_S3_(ptr noundef %__first, ptr noundef %__last) #5 comdat {
entry:
  %__first.addr = alloca ptr, align 8
  %__last.addr = alloca ptr, align 8
  %agg.tmp = alloca %"struct.std::random_access_iterator_tag", align 1
  %undef.agg.tmp = alloca %"struct.std::random_access_iterator_tag", align 1
  store ptr %__first, ptr %__first.addr, align 8, !tbaa !57
  store ptr %__last, ptr %__last.addr, align 8, !tbaa !57
  %0 = load ptr, ptr %__first.addr, align 8, !tbaa !57
  %1 = load ptr, ptr %__last.addr, align 8, !tbaa !57
  call void @_ZSt19__iterator_categoryIPKcENSt15iterator_traitsIT_E17iterator_categoryERKS3_(ptr noundef nonnull align 8 dereferenceable(8) %__first.addr)
  %call = call noundef i64 @_ZSt10__distanceIPKcENSt15iterator_traitsIT_E15difference_typeES3_S3_St26random_access_iterator_tag(ptr noundef %0, ptr noundef %1)
  ret i64 %call
}

; Function Attrs: mustprogress nounwind uwtable
define available_externally void @_ZNSt7__cxx1112basic_stringIcSt11char_traitsIcESaIcEE7_M_dataEPc(ptr noundef nonnull align 8 dereferenceable(32) %this, ptr noundef %__p) #8 align 2 {
entry:
  %this.addr = alloca ptr, align 8
  %__p.addr = alloca ptr, align 8
  store ptr %this, ptr %this.addr, align 8, !tbaa !22
  store ptr %__p, ptr %__p.addr, align 8, !tbaa !57
  %this1 = load ptr, ptr %this.addr, align 8
  %0 = load ptr, ptr %__p.addr, align 8, !tbaa !57
  %_M_dataplus = getelementptr inbounds nuw %"class.std::__cxx11::basic_string", ptr %this1, i32 0, i32 0
  %_M_p = getelementptr inbounds nuw %"struct.std::__cxx11::basic_string<char>::_Alloc_hider", ptr %_M_dataplus, i32 0, i32 0
  store ptr %0, ptr %_M_p, align 8, !tbaa !63
  ret void
}

declare noundef ptr @_ZNSt7__cxx1112basic_stringIcSt11char_traitsIcESaIcEE9_M_createERmm(ptr noundef nonnull align 8 dereferenceable(32), ptr noundef nonnull align 8 dereferenceable(8), i64 noundef) #1

; Function Attrs: mustprogress nounwind uwtable
define available_externally void @_ZNSt7__cxx1112basic_stringIcSt11char_traitsIcESaIcEE11_M_capacityEm(ptr noundef nonnull align 8 dereferenceable(32) %this, i64 noundef %__capacity) #8 align 2 {
entry:
  %this.addr = alloca ptr, align 8
  %__capacity.addr = alloca i64, align 8
  store ptr %this, ptr %this.addr, align 8, !tbaa !22
  store i64 %__capacity, ptr %__capacity.addr, align 8, !tbaa !28
  %this1 = load ptr, ptr %this.addr, align 8
  %0 = load i64, ptr %__capacity.addr, align 8, !tbaa !28
  %1 = getelementptr inbounds nuw %"class.std::__cxx11::basic_string", ptr %this1, i32 0, i32 2
  store i64 %0, ptr %1, align 8, !tbaa !19
  ret void
}

; Function Attrs: alwaysinline mustprogress nounwind uwtable
define available_externally noundef ptr @_ZNSt7__cxx1112basic_stringIcSt11char_traitsIcESaIcEE17_M_use_local_dataEv(ptr noundef nonnull align 8 dereferenceable(32) %this) #13 align 2 {
entry:
  %this.addr = alloca ptr, align 8
  store ptr %this, ptr %this.addr, align 8, !tbaa !22
  %this1 = load ptr, ptr %this.addr, align 8
  %call = call noundef ptr @_ZNSt7__cxx1112basic_stringIcSt11char_traitsIcESaIcEE13_M_local_dataEv(ptr noundef nonnull align 8 dereferenceable(32) %this1)
  ret ptr %call
}

; Function Attrs: mustprogress nounwind uwtable
define linkonce_odr void @_ZZNSt7__cxx1112basic_stringIcSt11char_traitsIcESaIcEE12_M_constructIPKcEEvT_S8_St20forward_iterator_tagEN6_GuardC2EPS4_(ptr noundef nonnull align 8 dereferenceable(8) %this, ptr noundef %__s) unnamed_addr #8 comdat align 2 {
entry:
  %this.addr = alloca ptr, align 8
  %__s.addr = alloca ptr, align 8
  store ptr %this, ptr %this.addr, align 8, !tbaa !95
  store ptr %__s, ptr %__s.addr, align 8, !tbaa !22
  %this1 = load ptr, ptr %this.addr, align 8
  %_M_guarded = getelementptr inbounds nuw %struct._Guard, ptr %this1, i32 0, i32 0
  %0 = load ptr, ptr %__s.addr, align 8, !tbaa !22
  store ptr %0, ptr %_M_guarded, align 8, !tbaa !93
  ret void
}

; Function Attrs: mustprogress nounwind uwtable
define available_externally void @_ZNSt7__cxx1112basic_stringIcSt11char_traitsIcESaIcEE13_S_copy_charsEPcPKcS7_(ptr noundef %__p, ptr noundef %__k1, ptr noundef %__k2) #8 align 2 personality ptr @__gxx_personality_v0 {
entry:
  %__p.addr = alloca ptr, align 8
  %__k1.addr = alloca ptr, align 8
  %__k2.addr = alloca ptr, align 8
  store ptr %__p, ptr %__p.addr, align 8, !tbaa !57
  store ptr %__k1, ptr %__k1.addr, align 8, !tbaa !57
  store ptr %__k2, ptr %__k2.addr, align 8, !tbaa !57
  %0 = load ptr, ptr %__p.addr, align 8, !tbaa !57
  %1 = load ptr, ptr %__k1.addr, align 8, !tbaa !57
  %2 = load ptr, ptr %__k2.addr, align 8, !tbaa !57
  %3 = load ptr, ptr %__k1.addr, align 8, !tbaa !57
  %sub.ptr.lhs.cast = ptrtoint ptr %2 to i64
  %sub.ptr.rhs.cast = ptrtoint ptr %3 to i64
  %sub.ptr.sub = sub i64 %sub.ptr.lhs.cast, %sub.ptr.rhs.cast
  invoke void @_ZNSt7__cxx1112basic_stringIcSt11char_traitsIcESaIcEE7_S_copyEPcPKcm(ptr noundef %0, ptr noundef %1, i64 noundef %sub.ptr.sub)
          to label %invoke.cont unwind label %terminate.lpad

invoke.cont:                                      ; preds = %entry
  ret void

terminate.lpad:                                   ; preds = %entry
  %4 = landingpad { ptr, i32 }
          catch ptr null
  %5 = extractvalue { ptr, i32 } %4, 0
  call void @__clang_call_terminate(ptr %5) #23
  unreachable
}

; Function Attrs: mustprogress uwtable
define available_externally void @_ZNSt7__cxx1112basic_stringIcSt11char_traitsIcESaIcEE13_M_set_lengthEm(ptr noundef nonnull align 8 dereferenceable(32) %this, i64 noundef %__n) #4 align 2 {
entry:
  %this.addr = alloca ptr, align 8
  %__n.addr = alloca i64, align 8
  %ref.tmp = alloca i8, align 1
  store ptr %this, ptr %this.addr, align 8, !tbaa !22
  store i64 %__n, ptr %__n.addr, align 8, !tbaa !28
  %this1 = load ptr, ptr %this.addr, align 8
  %0 = load i64, ptr %__n.addr, align 8, !tbaa !28
  call void @_ZNSt7__cxx1112basic_stringIcSt11char_traitsIcESaIcEE9_M_lengthEm(ptr noundef nonnull align 8 dereferenceable(32) %this1, i64 noundef %0)
  %call = call noundef ptr @_ZNKSt7__cxx1112basic_stringIcSt11char_traitsIcESaIcEE7_M_dataEv(ptr noundef nonnull align 8 dereferenceable(32) %this1)
  %1 = load i64, ptr %__n.addr, align 8, !tbaa !28
  %arrayidx = getelementptr inbounds nuw i8, ptr %call, i64 %1
  call void @llvm.lifetime.start.p0(i64 1, ptr %ref.tmp) #3
  store i8 0, ptr %ref.tmp, align 1, !tbaa !19
  call void @_ZNSt11char_traitsIcE6assignERcRKc(ptr noundef nonnull align 1 dereferenceable(1) %arrayidx, ptr noundef nonnull align 1 dereferenceable(1) %ref.tmp) #3
  call void @llvm.lifetime.end.p0(i64 1, ptr %ref.tmp) #3
  ret void
}

; Function Attrs: mustprogress nounwind uwtable
define linkonce_odr void @_ZZNSt7__cxx1112basic_stringIcSt11char_traitsIcESaIcEE12_M_constructIPKcEEvT_S8_St20forward_iterator_tagEN6_GuardD2Ev(ptr noundef nonnull align 8 dereferenceable(8) %this) unnamed_addr #8 comdat align 2 personality ptr @__gxx_personality_v0 {
entry:
  %this.addr = alloca ptr, align 8
  store ptr %this, ptr %this.addr, align 8, !tbaa !95
  %this1 = load ptr, ptr %this.addr, align 8
  %_M_guarded = getelementptr inbounds nuw %struct._Guard, ptr %this1, i32 0, i32 0
  %0 = load ptr, ptr %_M_guarded, align 8, !tbaa !93
  %tobool = icmp ne ptr %0, null
  br i1 %tobool, label %if.then, label %if.end

if.then:                                          ; preds = %entry
  %_M_guarded2 = getelementptr inbounds nuw %struct._Guard, ptr %this1, i32 0, i32 0
  %1 = load ptr, ptr %_M_guarded2, align 8, !tbaa !93
  invoke void @_ZNSt7__cxx1112basic_stringIcSt11char_traitsIcESaIcEE10_M_disposeEv(ptr noundef nonnull align 8 dereferenceable(32) %1)
          to label %invoke.cont unwind label %terminate.lpad

invoke.cont:                                      ; preds = %if.then
  br label %if.end

if.end:                                           ; preds = %invoke.cont, %entry
  ret void

terminate.lpad:                                   ; preds = %if.then
  %2 = landingpad { ptr, i32 }
          catch ptr null
  %3 = extractvalue { ptr, i32 } %2, 0
  call void @__clang_call_terminate(ptr %3) #23
  unreachable
}

; Function Attrs: inlinehint mustprogress nounwind uwtable
define linkonce_odr noundef i64 @_ZSt10__distanceIPKcENSt15iterator_traitsIT_E15difference_typeES3_S3_St26random_access_iterator_tag(ptr noundef %__first, ptr noundef %__last) #14 comdat {
entry:
  %0 = alloca %"struct.std::random_access_iterator_tag", align 1
  %__first.addr = alloca ptr, align 8
  %__last.addr = alloca ptr, align 8
  store ptr %__first, ptr %__first.addr, align 8, !tbaa !57
  store ptr %__last, ptr %__last.addr, align 8, !tbaa !57
  %1 = load ptr, ptr %__last.addr, align 8, !tbaa !57
  %2 = load ptr, ptr %__first.addr, align 8, !tbaa !57
  %sub.ptr.lhs.cast = ptrtoint ptr %1 to i64
  %sub.ptr.rhs.cast = ptrtoint ptr %2 to i64
  %sub.ptr.sub = sub i64 %sub.ptr.lhs.cast, %sub.ptr.rhs.cast
  ret i64 %sub.ptr.sub
}

; Function Attrs: inlinehint mustprogress nounwind uwtable
define linkonce_odr void @_ZSt19__iterator_categoryIPKcENSt15iterator_traitsIT_E17iterator_categoryERKS3_(ptr noundef nonnull align 8 dereferenceable(8) %0) #14 comdat {
entry:
  %.addr = alloca ptr, align 8
  store ptr %0, ptr %.addr, align 8, !tbaa !97
  ret void
}

; Function Attrs: mustprogress uwtable
define available_externally void @_ZNSt7__cxx1112basic_stringIcSt11char_traitsIcESaIcEE7_S_copyEPcPKcm(ptr noundef %__d, ptr noundef %__s, i64 noundef %__n) #4 align 2 {
entry:
  %__d.addr = alloca ptr, align 8
  %__s.addr = alloca ptr, align 8
  %__n.addr = alloca i64, align 8
  store ptr %__d, ptr %__d.addr, align 8, !tbaa !57
  store ptr %__s, ptr %__s.addr, align 8, !tbaa !57
  store i64 %__n, ptr %__n.addr, align 8, !tbaa !28
  %0 = load i64, ptr %__n.addr, align 8, !tbaa !28
  %cmp = icmp eq i64 %0, 1
  br i1 %cmp, label %if.then, label %if.else

if.then:                                          ; preds = %entry
  %1 = load ptr, ptr %__d.addr, align 8, !tbaa !57
  %2 = load ptr, ptr %__s.addr, align 8, !tbaa !57
  call void @_ZNSt11char_traitsIcE6assignERcRKc(ptr noundef nonnull align 1 dereferenceable(1) %1, ptr noundef nonnull align 1 dereferenceable(1) %2) #3
  br label %if.end

if.else:                                          ; preds = %entry
  %3 = load ptr, ptr %__d.addr, align 8, !tbaa !57
  %4 = load ptr, ptr %__s.addr, align 8, !tbaa !57
  %5 = load i64, ptr %__n.addr, align 8, !tbaa !28
  %call = call noundef ptr @_ZNSt11char_traitsIcE4copyEPcPKcm(ptr noundef %3, ptr noundef %4, i64 noundef %5)
  br label %if.end

if.end:                                           ; preds = %if.else, %if.then
  ret void
}

; Function Attrs: mustprogress nounwind uwtable
define linkonce_odr void @_ZNSt11char_traitsIcE6assignERcRKc(ptr noundef nonnull align 1 dereferenceable(1) %__c1, ptr noundef nonnull align 1 dereferenceable(1) %__c2) #8 comdat align 2 {
entry:
  %__c1.addr = alloca ptr, align 8
  %__c2.addr = alloca ptr, align 8
  store ptr %__c1, ptr %__c1.addr, align 8, !tbaa !57
  store ptr %__c2, ptr %__c2.addr, align 8, !tbaa !57
  %0 = load ptr, ptr %__c2.addr, align 8, !tbaa !57
  %1 = load i8, ptr %0, align 1, !tbaa !19
  %2 = load ptr, ptr %__c1.addr, align 8, !tbaa !57
  store i8 %1, ptr %2, align 1, !tbaa !19
  ret void
}

; Function Attrs: mustprogress nounwind uwtable
define linkonce_odr noundef ptr @_ZNSt11char_traitsIcE4copyEPcPKcm(ptr noundef %__s1, ptr noundef %__s2, i64 noundef %__n) #8 comdat align 2 {
entry:
  %retval = alloca ptr, align 8
  %__s1.addr = alloca ptr, align 8
  %__s2.addr = alloca ptr, align 8
  %__n.addr = alloca i64, align 8
  store ptr %__s1, ptr %__s1.addr, align 8, !tbaa !57
  store ptr %__s2, ptr %__s2.addr, align 8, !tbaa !57
  store i64 %__n, ptr %__n.addr, align 8, !tbaa !28
  %0 = load i64, ptr %__n.addr, align 8, !tbaa !28
  %cmp = icmp eq i64 %0, 0
  br i1 %cmp, label %if.then, label %if.end

if.then:                                          ; preds = %entry
  %1 = load ptr, ptr %__s1.addr, align 8, !tbaa !57
  store ptr %1, ptr %retval, align 8
  br label %return

if.end:                                           ; preds = %entry
  %2 = load ptr, ptr %__s1.addr, align 8, !tbaa !57
  %3 = load ptr, ptr %__s2.addr, align 8, !tbaa !57
  %4 = load i64, ptr %__n.addr, align 8, !tbaa !28
  call void @llvm.memcpy.p0.p0.i64(ptr align 1 %2, ptr align 1 %3, i64 %4, i1 false)
  store ptr %2, ptr %retval, align 8
  br label %return

return:                                           ; preds = %if.end, %if.then
  %5 = load ptr, ptr %retval, align 8
  ret ptr %5
}

; Function Attrs: mustprogress nounwind uwtable
define available_externally void @_ZNSt7__cxx1112basic_stringIcSt11char_traitsIcESaIcEE9_M_lengthEm(ptr noundef nonnull align 8 dereferenceable(32) %this, i64 noundef %__length) #8 align 2 {
entry:
  %this.addr = alloca ptr, align 8
  %__length.addr = alloca i64, align 8
  store ptr %this, ptr %this.addr, align 8, !tbaa !22
  store i64 %__length, ptr %__length.addr, align 8, !tbaa !28
  %this1 = load ptr, ptr %this.addr, align 8
  %0 = load i64, ptr %__length.addr, align 8, !tbaa !28
  %_M_string_length = getelementptr inbounds nuw %"class.std::__cxx11::basic_string", ptr %this1, i32 0, i32 1
  store i64 %0, ptr %_M_string_length, align 8, !tbaa !100
  ret void
}

; Function Attrs: mustprogress uwtable
define void @_ZNK6openmc6Filter32SpatialLegendreFilter_text_labelB5cxx11Ei(ptr dead_on_unwind noalias writable sret(%"class.std::__cxx11::basic_string") align 8 %agg.result, ptr noundef nonnull align 8 dereferenceable(448) %this, i32 noundef %bin) #4 align 2 {
entry:
  %result.ptr = alloca ptr, align 8
  %this.addr = alloca ptr, align 8
  %bin.addr = alloca i32, align 4
  store ptr %agg.result, ptr %result.ptr, align 8
  store ptr %this, ptr %this.addr, align 8, !tbaa !11
  store i32 %bin, ptr %bin.addr, align 4, !tbaa !26
  %this1 = load ptr, ptr %this.addr, align 8
  %axis_ = getelementptr inbounds nuw %"class.openmc::Filter", ptr %this1, i32 0, i32 22
  %0 = load i32, ptr %axis_, align 4, !tbaa !32
  %cmp = icmp eq i32 %0, 0
  br i1 %cmp, label %if.then, label %if.else

if.then:                                          ; preds = %entry
  call void @_ZN3fmt2v66formatIA32_cJRiEcEENSt7__cxx1112basic_stringIT1_St11char_traitsIS6_ESaIS6_EEERKT_DpOT0_(ptr dead_on_unwind writable sret(%"class.std::__cxx11::basic_string") align 8 %agg.result, ptr noundef nonnull align 1 dereferenceable(32) @.str.13, ptr noundef nonnull align 4 dereferenceable(4) %bin.addr)
  br label %return

if.else:                                          ; preds = %entry
  %axis_2 = getelementptr inbounds nuw %"class.openmc::Filter", ptr %this1, i32 0, i32 22
  %1 = load i32, ptr %axis_2, align 4, !tbaa !32
  %cmp3 = icmp eq i32 %1, 1
  br i1 %cmp3, label %if.then4, label %if.else5

if.then4:                                         ; preds = %if.else
  call void @_ZN3fmt2v66formatIA32_cJRiEcEENSt7__cxx1112basic_stringIT1_St11char_traitsIS6_ESaIS6_EEERKT_DpOT0_(ptr dead_on_unwind writable sret(%"class.std::__cxx11::basic_string") align 8 %agg.result, ptr noundef nonnull align 1 dereferenceable(32) @.str.14, ptr noundef nonnull align 4 dereferenceable(4) %bin.addr)
  br label %return

if.else5:                                         ; preds = %if.else
  call void @_ZN3fmt2v66formatIA32_cJRiEcEENSt7__cxx1112basic_stringIT1_St11char_traitsIS6_ESaIS6_EEERKT_DpOT0_(ptr dead_on_unwind writable sret(%"class.std::__cxx11::basic_string") align 8 %agg.result, ptr noundef nonnull align 1 dereferenceable(32) @.str.15, ptr noundef nonnull align 4 dereferenceable(4) %bin.addr)
  br label %return

return:                                           ; preds = %if.else5, %if.then4, %if.then
  ret void
}

; Function Attrs: inlinehint mustprogress uwtable
define linkonce_odr void @_ZN3fmt2v66formatIA32_cJRiEcEENSt7__cxx1112basic_stringIT1_St11char_traitsIS6_ESaIS6_EEERKT_DpOT0_(ptr dead_on_unwind noalias writable sret(%"class.std::__cxx11::basic_string") align 8 %agg.result, ptr noundef nonnull align 1 dereferenceable(32) %format_str, ptr noundef nonnull align 4 dereferenceable(4) %args) #5 comdat {
entry:
  %result.ptr = alloca ptr, align 8
  %format_str.addr = alloca ptr, align 8
  %args.addr = alloca ptr, align 8
  %agg.tmp = alloca %"class.fmt::v6::basic_string_view", align 8
  %agg.tmp1 = alloca %"class.fmt::v6::basic_format_args", align 8
  %ref.tmp = alloca %"class.fmt::v6::format_arg_store", align 16
  store ptr %agg.result, ptr %result.ptr, align 8
  store ptr %format_str, ptr %format_str.addr, align 8, !tbaa !57
  store ptr %args, ptr %args.addr, align 8, !tbaa !101
  %0 = load ptr, ptr %format_str.addr, align 8, !tbaa !57
  %arraydecay = getelementptr inbounds [32 x i8], ptr %0, i64 0, i64 0
  %call = call { ptr, i64 } @_ZN3fmt2v614to_string_viewIcTnNSt9enable_ifIXsr7is_charIT_EE5valueEiE4typeELi0EEENS0_17basic_string_viewIS3_EEPKS3_(ptr noundef %arraydecay)
  %1 = getelementptr inbounds nuw { ptr, i64 }, ptr %agg.tmp, i32 0, i32 0
  %2 = extractvalue { ptr, i64 } %call, 0
  store ptr %2, ptr %1, align 8
  %3 = getelementptr inbounds nuw { ptr, i64 }, ptr %agg.tmp, i32 0, i32 1
  %4 = extractvalue { ptr, i64 } %call, 1
  store i64 %4, ptr %3, align 8
  call void @llvm.lifetime.start.p0(i64 16, ptr %ref.tmp) #3
  %5 = load ptr, ptr %format_str.addr, align 8, !tbaa !57
  %6 = load ptr, ptr %args.addr, align 8, !tbaa !101
  %call2 = call { i64, i64 } @_ZN3fmt2v68internal17make_args_checkedIJRiEA32_ccEENS0_16format_arg_storeINS0_20basic_format_contextISt20back_insert_iteratorINS1_6bufferIT1_EEES9_EEJDpNSt16remove_referenceIT_E4typeEEEERKT0_DpRKSG_(ptr noundef nonnull align 1 dereferenceable(32) %5, ptr noundef nonnull align 4 dereferenceable(4) %6)
  %coerce.dive = getelementptr inbounds nuw %"class.fmt::v6::format_arg_store", ptr %ref.tmp, i32 0, i32 0
  %7 = getelementptr inbounds nuw { i64, i64 }, ptr %coerce.dive, i32 0, i32 0
  %8 = extractvalue { i64, i64 } %call2, 0
  store i64 %8, ptr %7, align 16
  %9 = getelementptr inbounds nuw { i64, i64 }, ptr %coerce.dive, i32 0, i32 1
  %10 = extractvalue { i64, i64 } %call2, 1
  store i64 %10, ptr %9, align 8
  call void @_ZN3fmt2v617basic_format_argsINS0_20basic_format_contextISt20back_insert_iteratorINS0_8internal6bufferIcEEEcEEEC2IJiEEERKNS0_16format_arg_storeIS8_JDpT_EEE(ptr noundef nonnull align 8 dereferenceable(16) %agg.tmp1, ptr noundef nonnull align 16 dereferenceable(16) %ref.tmp)
  %11 = getelementptr inbounds nuw { ptr, i64 }, ptr %agg.tmp, i32 0, i32 0
  %12 = load ptr, ptr %11, align 8
  %13 = getelementptr inbounds nuw { ptr, i64 }, ptr %agg.tmp, i32 0, i32 1
  %14 = load i64, ptr %13, align 8
  %15 = getelementptr inbounds nuw { i64, ptr }, ptr %agg.tmp1, i32 0, i32 0
  %16 = load i64, ptr %15, align 8
  %17 = getelementptr inbounds nuw { i64, ptr }, ptr %agg.tmp1, i32 0, i32 1
  %18 = load ptr, ptr %17, align 8
  call void @_ZN3fmt2v68internal7vformatIcEENSt7__cxx1112basic_stringIT_St11char_traitsIS5_ESaIS5_EEENS0_17basic_string_viewIS5_EENS0_17basic_format_argsINS0_20basic_format_contextISt20back_insert_iteratorINS1_6bufferIS5_EEES5_EEEE(ptr dead_on_unwind writable sret(%"class.std::__cxx11::basic_string") align 8 %agg.result, ptr %12, i64 %14, i64 %16, ptr %18)
  call void @llvm.lifetime.end.p0(i64 16, ptr %ref.tmp) #3
  ret void
}

; Function Attrs: inlinehint mustprogress uwtable
define linkonce_odr void @_ZN3fmt2v68internal7vformatIcEENSt7__cxx1112basic_stringIT_St11char_traitsIS5_ESaIS5_EEENS0_17basic_string_viewIS5_EENS0_17basic_format_argsINS0_20basic_format_contextISt20back_insert_iteratorINS1_6bufferIS5_EEES5_EEEE(ptr dead_on_unwind noalias writable sret(%"class.std::__cxx11::basic_string") align 8 %agg.result, ptr %format_str.coerce0, i64 %format_str.coerce1, i64 %args.coerce0, ptr %args.coerce1) #5 comdat personality ptr @__gxx_personality_v0 {
entry:
  %result.ptr = alloca ptr, align 8
  %format_str = alloca %"class.fmt::v6::basic_string_view", align 8
  %args = alloca %"class.fmt::v6::basic_format_args", align 8
  %buffer = alloca %"class.fmt::v6::basic_memory_buffer", align 8
  %ref.tmp = alloca %"class.std::allocator", align 1
  %exn.slot = alloca ptr, align 8
  %ehselector.slot = alloca i32, align 4
  %agg.tmp = alloca %"class.fmt::v6::basic_string_view", align 8
  %agg.tmp1 = alloca %"class.fmt::v6::basic_format_args", align 8
  %coerce = alloca %"class.std::back_insert_iterator", align 8
  store ptr %agg.result, ptr %result.ptr, align 8
  %0 = getelementptr inbounds nuw { ptr, i64 }, ptr %format_str, i32 0, i32 0
  store ptr %format_str.coerce0, ptr %0, align 8
  %1 = getelementptr inbounds nuw { ptr, i64 }, ptr %format_str, i32 0, i32 1
  store i64 %format_str.coerce1, ptr %1, align 8
  %2 = getelementptr inbounds nuw { i64, ptr }, ptr %args, i32 0, i32 0
  store i64 %args.coerce0, ptr %2, align 8
  %3 = getelementptr inbounds nuw { i64, ptr }, ptr %args, i32 0, i32 1
  store ptr %args.coerce1, ptr %3, align 8
  call void @llvm.lifetime.start.p0(i64 536, ptr %buffer) #3
  call void @llvm.lifetime.start.p0(i64 1, ptr %ref.tmp) #3
  call void @_ZNSaIcEC2Ev(ptr noundef nonnull align 1 dereferenceable(1) %ref.tmp) #3
  invoke void @_ZN3fmt2v619basic_memory_bufferIcLm500ESaIcEEC2ERKS2_(ptr noundef nonnull align 8 dereferenceable(532) %buffer, ptr noundef nonnull align 1 dereferenceable(1) %ref.tmp)
          to label %invoke.cont unwind label %lpad

invoke.cont:                                      ; preds = %entry
  call void @_ZNSt15__new_allocatorIcED2Ev(ptr noundef nonnull align 1 dereferenceable(1) %ref.tmp) #3
  call void @llvm.lifetime.end.p0(i64 1, ptr %ref.tmp) #3
  call void @llvm.memcpy.p0.p0.i64(ptr align 8 %agg.tmp, ptr align 8 %format_str, i64 16, i1 false), !tbaa.struct !102
  call void @llvm.memcpy.p0.p0.i64(ptr align 8 %agg.tmp1, ptr align 8 %args, i64 16, i1 false), !tbaa.struct !103
  %4 = getelementptr inbounds nuw { ptr, i64 }, ptr %agg.tmp, i32 0, i32 0
  %5 = load ptr, ptr %4, align 8
  %6 = getelementptr inbounds nuw { ptr, i64 }, ptr %agg.tmp, i32 0, i32 1
  %7 = load i64, ptr %6, align 8
  %8 = getelementptr inbounds nuw { i64, ptr }, ptr %agg.tmp1, i32 0, i32 0
  %9 = load i64, ptr %8, align 8
  %10 = getelementptr inbounds nuw { i64, ptr }, ptr %agg.tmp1, i32 0, i32 1
  %11 = load ptr, ptr %10, align 8
  %call = invoke ptr @_ZN3fmt2v68internal10vformat_toIcEENS0_20basic_format_contextISt20back_insert_iteratorINS1_6bufferIT_EEES6_E8iteratorERS7_NS0_17basic_string_viewIS6_EENS0_17basic_format_argsIS9_EE(ptr noundef nonnull align 8 dereferenceable(32) %buffer, ptr %5, i64 %7, i64 %9, ptr %11)
          to label %invoke.cont3 unwind label %lpad2

invoke.cont3:                                     ; preds = %invoke.cont
  %coerce.dive = getelementptr inbounds nuw %"class.std::back_insert_iterator", ptr %coerce, i32 0, i32 0
  store ptr %call, ptr %coerce.dive, align 8
  invoke void @_ZN3fmt2v69to_stringIcLm500EEENSt7__cxx1112basic_stringIT_St11char_traitsIS4_ESaIS4_EEERKNS0_19basic_memory_bufferIS4_XT0_ES7_EE(ptr dead_on_unwind writable sret(%"class.std::__cxx11::basic_string") align 8 %agg.result, ptr noundef nonnull align 8 dereferenceable(532) %buffer)
          to label %invoke.cont4 unwind label %lpad2

invoke.cont4:                                     ; preds = %invoke.cont3
  call void @_ZN3fmt2v619basic_memory_bufferIcLm500ESaIcEED2Ev(ptr noundef nonnull align 8 dereferenceable(532) %buffer) #3
  call void @llvm.lifetime.end.p0(i64 536, ptr %buffer) #3
  ret void

lpad:                                             ; preds = %entry
  %12 = landingpad { ptr, i32 }
          cleanup
  %13 = extractvalue { ptr, i32 } %12, 0
  store ptr %13, ptr %exn.slot, align 8
  %14 = extractvalue { ptr, i32 } %12, 1
  store i32 %14, ptr %ehselector.slot, align 4
  call void @_ZNSt15__new_allocatorIcED2Ev(ptr noundef nonnull align 1 dereferenceable(1) %ref.tmp) #3
  call void @llvm.lifetime.end.p0(i64 1, ptr %ref.tmp) #3
  br label %ehcleanup

lpad2:                                            ; preds = %invoke.cont3, %invoke.cont
  %15 = landingpad { ptr, i32 }
          cleanup
  %16 = extractvalue { ptr, i32 } %15, 0
  store ptr %16, ptr %exn.slot, align 8
  %17 = extractvalue { ptr, i32 } %15, 1
  store i32 %17, ptr %ehselector.slot, align 4
  call void @_ZN3fmt2v619basic_memory_bufferIcLm500ESaIcEED2Ev(ptr noundef nonnull align 8 dereferenceable(532) %buffer) #3
  br label %ehcleanup

ehcleanup:                                        ; preds = %lpad2, %lpad
  call void @llvm.lifetime.end.p0(i64 536, ptr %buffer) #3
  br label %eh.resume

eh.resume:                                        ; preds = %ehcleanup
  %exn = load ptr, ptr %exn.slot, align 8
  %sel = load i32, ptr %ehselector.slot, align 4
  %lpad.val = insertvalue { ptr, i32 } poison, ptr %exn, 0
  %lpad.val5 = insertvalue { ptr, i32 } %lpad.val, i32 %sel, 1
  resume { ptr, i32 } %lpad.val5
}

; Function Attrs: inlinehint mustprogress uwtable
define linkonce_odr { ptr, i64 } @_ZN3fmt2v614to_string_viewIcTnNSt9enable_ifIXsr7is_charIT_EE5valueEiE4typeELi0EEENS0_17basic_string_viewIS3_EEPKS3_(ptr noundef %s) #5 comdat {
entry:
  %retval = alloca %"class.fmt::v6::basic_string_view", align 8
  %s.addr = alloca ptr, align 8
  store ptr %s, ptr %s.addr, align 8, !tbaa !57
  %0 = load ptr, ptr %s.addr, align 8, !tbaa !57
  call void @_ZN3fmt2v617basic_string_viewIcEC2EPKc(ptr noundef nonnull align 8 dereferenceable(16) %retval, ptr noundef %0)
  %1 = load { ptr, i64 }, ptr %retval, align 8
  ret { ptr, i64 } %1
}

; Function Attrs: inlinehint mustprogress uwtable
define linkonce_odr { i64, i64 } @_ZN3fmt2v68internal17make_args_checkedIJRiEA32_ccEENS0_16format_arg_storeINS0_20basic_format_contextISt20back_insert_iteratorINS1_6bufferIT1_EEES9_EEJDpNSt16remove_referenceIT_E4typeEEEERKT0_DpRKSG_(ptr noundef nonnull align 1 dereferenceable(32) %format_str, ptr noundef nonnull align 4 dereferenceable(4) %args) #5 comdat {
entry:
  %retval = alloca %"class.fmt::v6::format_arg_store", align 16
  %format_str.addr = alloca ptr, align 8
  %args.addr = alloca ptr, align 8
  store ptr %format_str, ptr %format_str.addr, align 8, !tbaa !57
  store ptr %args, ptr %args.addr, align 8, !tbaa !101
  %0 = load ptr, ptr %format_str.addr, align 8, !tbaa !57
  call void @_ZN3fmt2v68internal19check_format_stringIJiEA32_cTnNSt9enable_ifIXntsr17is_compile_stringIT0_EE5valueEiE4typeELi0EEEvRKS5_(ptr noundef nonnull align 1 dereferenceable(32) %0)
  %1 = load ptr, ptr %args.addr, align 8, !tbaa !101
  call void @_ZN3fmt2v616format_arg_storeINS0_20basic_format_contextISt20back_insert_iteratorINS0_8internal6bufferIcEEEcEEJiEEC2ERKi(ptr noundef nonnull align 16 dereferenceable(16) %retval, ptr noundef nonnull align 4 dereferenceable(4) %1)
  %coerce.dive = getelementptr inbounds nuw %"class.fmt::v6::format_arg_store", ptr %retval, i32 0, i32 0
  %2 = load { i64, i64 }, ptr %coerce.dive, align 16
  ret { i64, i64 } %2
}

; Function Attrs: mustprogress uwtable
define linkonce_odr void @_ZN3fmt2v617basic_format_argsINS0_20basic_format_contextISt20back_insert_iteratorINS0_8internal6bufferIcEEEcEEEC2IJiEEERKNS0_16format_arg_storeIS8_JDpT_EEE(ptr noundef nonnull align 8 dereferenceable(16) %this, ptr noundef nonnull align 16 dereferenceable(16) %store) unnamed_addr #4 comdat align 2 {
entry:
  %this.addr = alloca ptr, align 8
  %store.addr = alloca ptr, align 8
  store ptr %this, ptr %this.addr, align 8, !tbaa !106
  store ptr %store, ptr %store.addr, align 8, !tbaa !108
  %this1 = load ptr, ptr %this.addr, align 8
  %types_ = getelementptr inbounds nuw %"class.fmt::v6::basic_format_args", ptr %this1, i32 0, i32 0
  %0 = load ptr, ptr %store.addr, align 8, !tbaa !108
  store i64 2, ptr %types_, align 8, !tbaa !110
  %1 = load ptr, ptr %store.addr, align 8, !tbaa !108
  %data_ = getelementptr inbounds nuw %"class.fmt::v6::format_arg_store", ptr %1, i32 0, i32 0
  %arraydecay = getelementptr inbounds [1 x %"class.fmt::v6::internal::value"], ptr %data_, i64 0, i64 0
  call void @_ZN3fmt2v617basic_format_argsINS0_20basic_format_contextISt20back_insert_iteratorINS0_8internal6bufferIcEEEcEEE8set_dataEPKNS4_5valueIS8_EE(ptr noundef nonnull align 8 dereferenceable(16) %this1, ptr noundef %arraydecay)
  ret void
}

; Function Attrs: mustprogress nounwind uwtable
define linkonce_odr void @_ZN3fmt2v619basic_memory_bufferIcLm500ESaIcEEC2ERKS2_(ptr noundef nonnull align 8 dereferenceable(532) %this, ptr noundef nonnull align 1 dereferenceable(1) %alloc) unnamed_addr #8 comdat align 2 {
entry:
  %this.addr = alloca ptr, align 8
  %alloc.addr = alloca ptr, align 8
  store ptr %this, ptr %this.addr, align 8, !tbaa !112
  store ptr %alloc, ptr %alloc.addr, align 8, !tbaa !66
  %this1 = load ptr, ptr %this.addr, align 8
  %0 = load ptr, ptr %alloc.addr, align 8, !tbaa !66
  call void @_ZNSaIcEC2ERKS_(ptr noundef nonnull align 1 dereferenceable(1) %this1, ptr noundef nonnull align 1 dereferenceable(1) %0) #3
  call void @_ZN3fmt2v68internal6bufferIcEC2EPcmm(ptr noundef nonnull align 8 dereferenceable(32) %this1, ptr noundef null, i64 noundef 0, i64 noundef 0) #3
  store ptr getelementptr inbounds inrange(-16, 24) ({ [5 x ptr] }, ptr @_ZTVN3fmt2v619basic_memory_bufferIcLm500ESaIcEEE, i32 0, i32 0, i32 2), ptr %this1, align 8, !tbaa !114
  %store_ = getelementptr inbounds nuw %"class.fmt::v6::basic_memory_buffer", ptr %this1, i32 0, i32 1
  %arraydecay = getelementptr inbounds [500 x i8], ptr %store_, i64 0, i64 0
  call void @_ZN3fmt2v68internal6bufferIcE3setEPcm(ptr noundef nonnull align 8 dereferenceable(32) %this1, ptr noundef %arraydecay, i64 noundef 500) #3
  ret void
}

; Function Attrs: mustprogress uwtable
define linkonce_odr ptr @_ZN3fmt2v68internal10vformat_toIcEENS0_20basic_format_contextISt20back_insert_iteratorINS1_6bufferIT_EEES6_E8iteratorERS7_NS0_17basic_string_viewIS6_EENS0_17basic_format_argsIS9_EE(ptr noundef nonnull align 8 dereferenceable(32) %buf, ptr %format_str.coerce0, i64 %format_str.coerce1, i64 %args.coerce0, ptr %args.coerce1) #4 comdat {
entry:
  %retval = alloca %"class.std::back_insert_iterator", align 8
  %format_str = alloca %"class.fmt::v6::basic_string_view", align 8
  %args = alloca %"class.fmt::v6::basic_format_args", align 8
  %buf.addr = alloca ptr, align 8
  %agg.tmp = alloca %"class.fmt::v6::buffer_range", align 8
  %agg.tmp1 = alloca %"class.fmt::v6::basic_string_view", align 8
  %agg.tmp2 = alloca %"class.fmt::v6::basic_string_view", align 8
  %agg.tmp3 = alloca %"class.fmt::v6::basic_format_args", align 8
  %agg.tmp4 = alloca %"class.fmt::v6::internal::locale_ref", align 8
  %0 = getelementptr inbounds nuw { ptr, i64 }, ptr %format_str, i32 0, i32 0
  store ptr %format_str.coerce0, ptr %0, align 8
  %1 = getelementptr inbounds nuw { ptr, i64 }, ptr %format_str, i32 0, i32 1
  store i64 %format_str.coerce1, ptr %1, align 8
  %2 = getelementptr inbounds nuw { i64, ptr }, ptr %args, i32 0, i32 0
  store i64 %args.coerce0, ptr %2, align 8
  %3 = getelementptr inbounds nuw { i64, ptr }, ptr %args, i32 0, i32 1
  store ptr %args.coerce1, ptr %3, align 8
  store ptr %buf, ptr %buf.addr, align 8, !tbaa !116
  %4 = load ptr, ptr %buf.addr, align 8, !tbaa !116
  call void @_ZN3fmt2v612buffer_rangeIcEC2ERNS0_8internal6bufferIcEE(ptr noundef nonnull align 8 dereferenceable(8) %agg.tmp, ptr noundef nonnull align 8 dereferenceable(32) %4)
  call void @llvm.memcpy.p0.p0.i64(ptr align 8 %agg.tmp2, ptr align 8 %format_str, i64 16, i1 false), !tbaa.struct !102
  %5 = getelementptr inbounds nuw { ptr, i64 }, ptr %agg.tmp2, i32 0, i32 0
  %6 = load ptr, ptr %5, align 8
  %7 = getelementptr inbounds nuw { ptr, i64 }, ptr %agg.tmp2, i32 0, i32 1
  %8 = load i64, ptr %7, align 8
  %call = call { ptr, i64 } @_ZN3fmt2v614to_string_viewIcEENS0_17basic_string_viewIT_EES4_(ptr %6, i64 %8)
  %9 = getelementptr inbounds nuw { ptr, i64 }, ptr %agg.tmp1, i32 0, i32 0
  %10 = extractvalue { ptr, i64 } %call, 0
  store ptr %10, ptr %9, align 8
  %11 = getelementptr inbounds nuw { ptr, i64 }, ptr %agg.tmp1, i32 0, i32 1
  %12 = extractvalue { ptr, i64 } %call, 1
  store i64 %12, ptr %11, align 8
  call void @llvm.memcpy.p0.p0.i64(ptr align 8 %agg.tmp3, ptr align 8 %args, i64 16, i1 false), !tbaa.struct !103
  call void @_ZN3fmt2v68internal10locale_refC2Ev(ptr noundef nonnull align 8 dereferenceable(8) %agg.tmp4)
  %coerce.dive = getelementptr inbounds nuw %"class.fmt::v6::buffer_range", ptr %agg.tmp, i32 0, i32 0
  %coerce.dive5 = getelementptr inbounds nuw %"class.fmt::v6::internal::output_range", ptr %coerce.dive, i32 0, i32 0
  %coerce.dive6 = getelementptr inbounds nuw %"class.std::back_insert_iterator", ptr %coerce.dive5, i32 0, i32 0
  %13 = load ptr, ptr %coerce.dive6, align 8
  %14 = getelementptr inbounds nuw { ptr, i64 }, ptr %agg.tmp1, i32 0, i32 0
  %15 = load ptr, ptr %14, align 8
  %16 = getelementptr inbounds nuw { ptr, i64 }, ptr %agg.tmp1, i32 0, i32 1
  %17 = load i64, ptr %16, align 8
  %18 = getelementptr inbounds nuw { i64, ptr }, ptr %agg.tmp3, i32 0, i32 0
  %19 = load i64, ptr %18, align 8
  %20 = getelementptr inbounds nuw { i64, ptr }, ptr %agg.tmp3, i32 0, i32 1
  %21 = load ptr, ptr %20, align 8
  %coerce.dive7 = getelementptr inbounds nuw %"class.fmt::v6::internal::locale_ref", ptr %agg.tmp4, i32 0, i32 0
  %22 = load ptr, ptr %coerce.dive7, align 8
  %call8 = call ptr @_ZN3fmt2v610vformat_toINS0_13arg_formatterINS0_12buffer_rangeIcEEEEcNS0_20basic_format_contextISt20back_insert_iteratorINS0_8internal6bufferIcEEEcEEEENT1_8iteratorENT_5rangeENS0_17basic_string_viewIT0_EENS0_17basic_format_argsISD_EENS8_10locale_refE(ptr %13, ptr %15, i64 %17, i64 %19, ptr %21, ptr %22)
  %coerce.dive9 = getelementptr inbounds nuw %"class.std::back_insert_iterator", ptr %retval, i32 0, i32 0
  store ptr %call8, ptr %coerce.dive9, align 8
  %coerce.dive10 = getelementptr inbounds nuw %"class.std::back_insert_iterator", ptr %retval, i32 0, i32 0
  %23 = load ptr, ptr %coerce.dive10, align 8
  ret ptr %23
}

; Function Attrs: mustprogress uwtable
define linkonce_odr void @_ZN3fmt2v69to_stringIcLm500EEENSt7__cxx1112basic_stringIT_St11char_traitsIS4_ESaIS4_EEERKNS0_19basic_memory_bufferIS4_XT0_ES7_EE(ptr dead_on_unwind noalias writable sret(%"class.std::__cxx11::basic_string") align 8 %agg.result, ptr noundef nonnull align 8 dereferenceable(532) %buf) #4 comdat personality ptr @__gxx_personality_v0 {
entry:
  %result.ptr = alloca ptr, align 8
  %buf.addr = alloca ptr, align 8
  %ref.tmp = alloca %"class.std::allocator", align 1
  %exn.slot = alloca ptr, align 8
  %ehselector.slot = alloca i32, align 4
  store ptr %agg.result, ptr %result.ptr, align 8
  store ptr %buf, ptr %buf.addr, align 8, !tbaa !112
  %0 = load ptr, ptr %buf.addr, align 8, !tbaa !112
  %call = call noundef ptr @_ZNK3fmt2v68internal6bufferIcE4dataEv(ptr noundef nonnull align 8 dereferenceable(32) %0) #3
  %1 = load ptr, ptr %buf.addr, align 8, !tbaa !112
  %call1 = call noundef i64 @_ZNK3fmt2v68internal6bufferIcE4sizeEv(ptr noundef nonnull align 8 dereferenceable(32) %1) #3
  call void @llvm.lifetime.start.p0(i64 1, ptr %ref.tmp) #3
  call void @_ZNSaIcEC2Ev(ptr noundef nonnull align 1 dereferenceable(1) %ref.tmp) #3
  invoke void @_ZNSt7__cxx1112basic_stringIcSt11char_traitsIcESaIcEEC2EPKcmRKS3_(ptr noundef nonnull align 8 dereferenceable(32) %agg.result, ptr noundef %call, i64 noundef %call1, ptr noundef nonnull align 1 dereferenceable(1) %ref.tmp)
          to label %invoke.cont unwind label %lpad

invoke.cont:                                      ; preds = %entry
  call void @_ZNSt15__new_allocatorIcED2Ev(ptr noundef nonnull align 1 dereferenceable(1) %ref.tmp) #3
  call void @llvm.lifetime.end.p0(i64 1, ptr %ref.tmp) #3
  ret void

lpad:                                             ; preds = %entry
  %2 = landingpad { ptr, i32 }
          cleanup
  %3 = extractvalue { ptr, i32 } %2, 0
  store ptr %3, ptr %exn.slot, align 8
  %4 = extractvalue { ptr, i32 } %2, 1
  store i32 %4, ptr %ehselector.slot, align 4
  call void @_ZNSt15__new_allocatorIcED2Ev(ptr noundef nonnull align 1 dereferenceable(1) %ref.tmp) #3
  call void @llvm.lifetime.end.p0(i64 1, ptr %ref.tmp) #3
  br label %eh.resume

eh.resume:                                        ; preds = %lpad
  %exn = load ptr, ptr %exn.slot, align 8
  %sel = load i32, ptr %ehselector.slot, align 4
  %lpad.val = insertvalue { ptr, i32 } poison, ptr %exn, 0
  %lpad.val2 = insertvalue { ptr, i32 } %lpad.val, i32 %sel, 1
  resume { ptr, i32 } %lpad.val2
}

; Function Attrs: mustprogress nounwind uwtable
define linkonce_odr void @_ZN3fmt2v619basic_memory_bufferIcLm500ESaIcEED2Ev(ptr noundef nonnull align 8 dereferenceable(532) %this) unnamed_addr #8 comdat align 2 personality ptr @__gxx_personality_v0 {
entry:
  %this.addr = alloca ptr, align 8
  store ptr %this, ptr %this.addr, align 8, !tbaa !112
  %this1 = load ptr, ptr %this.addr, align 8
  store ptr getelementptr inbounds inrange(-16, 24) ({ [5 x ptr] }, ptr @_ZTVN3fmt2v619basic_memory_bufferIcLm500ESaIcEEE, i32 0, i32 0, i32 2), ptr %this1, align 8, !tbaa !114
  invoke void @_ZN3fmt2v619basic_memory_bufferIcLm500ESaIcEE10deallocateEv(ptr noundef nonnull align 8 dereferenceable(532) %this1)
          to label %invoke.cont unwind label %terminate.lpad

invoke.cont:                                      ; preds = %entry
  call void @_ZN3fmt2v68internal6bufferIcED2Ev(ptr noundef nonnull align 8 dereferenceable(32) %this1) #3
  call void @_ZNSt15__new_allocatorIcED2Ev(ptr noundef nonnull align 1 dereferenceable(1) %this1) #3
  ret void

terminate.lpad:                                   ; preds = %entry
  %0 = landingpad { ptr, i32 }
          catch ptr null
  %1 = extractvalue { ptr, i32 } %0, 0
  call void @__clang_call_terminate(ptr %1) #23
  unreachable
}

; Function Attrs: mustprogress nounwind uwtable
define linkonce_odr void @_ZN3fmt2v68internal6bufferIcEC2EPcmm(ptr noundef nonnull align 8 dereferenceable(32) %this, ptr noundef %p, i64 noundef %sz, i64 noundef %cap) unnamed_addr #8 comdat align 2 {
entry:
  %this.addr = alloca ptr, align 8
  %p.addr = alloca ptr, align 8
  %sz.addr = alloca i64, align 8
  %cap.addr = alloca i64, align 8
  store ptr %this, ptr %this.addr, align 8, !tbaa !116
  store ptr %p, ptr %p.addr, align 8, !tbaa !57
  store i64 %sz, ptr %sz.addr, align 8, !tbaa !28
  store i64 %cap, ptr %cap.addr, align 8, !tbaa !28
  %this1 = load ptr, ptr %this.addr, align 8
  store ptr getelementptr inbounds inrange(-16, 24) ({ [5 x ptr] }, ptr @_ZTVN3fmt2v68internal6bufferIcEE, i32 0, i32 0, i32 2), ptr %this1, align 8, !tbaa !114
  %ptr_ = getelementptr inbounds nuw %"class.fmt::v6::internal::buffer", ptr %this1, i32 0, i32 1
  %0 = load ptr, ptr %p.addr, align 8, !tbaa !57
  store ptr %0, ptr %ptr_, align 8, !tbaa !118
  %size_ = getelementptr inbounds nuw %"class.fmt::v6::internal::buffer", ptr %this1, i32 0, i32 2
  %1 = load i64, ptr %sz.addr, align 8, !tbaa !28
  store i64 %1, ptr %size_, align 8, !tbaa !120
  %capacity_ = getelementptr inbounds nuw %"class.fmt::v6::internal::buffer", ptr %this1, i32 0, i32 3
  %2 = load i64, ptr %cap.addr, align 8, !tbaa !28
  store i64 %2, ptr %capacity_, align 8, !tbaa !121
  ret void
}

; Function Attrs: mustprogress nounwind uwtable
define linkonce_odr void @_ZN3fmt2v68internal6bufferIcE3setEPcm(ptr noundef nonnull align 8 dereferenceable(32) %this, ptr noundef %buf_data, i64 noundef %buf_capacity) #8 comdat align 2 {
entry:
  %this.addr = alloca ptr, align 8
  %buf_data.addr = alloca ptr, align 8
  %buf_capacity.addr = alloca i64, align 8
  store ptr %this, ptr %this.addr, align 8, !tbaa !116
  store ptr %buf_data, ptr %buf_data.addr, align 8, !tbaa !57
  store i64 %buf_capacity, ptr %buf_capacity.addr, align 8, !tbaa !28
  %this1 = load ptr, ptr %this.addr, align 8
  %0 = load ptr, ptr %buf_data.addr, align 8, !tbaa !57
  %ptr_ = getelementptr inbounds nuw %"class.fmt::v6::internal::buffer", ptr %this1, i32 0, i32 1
  store ptr %0, ptr %ptr_, align 8, !tbaa !118
  %1 = load i64, ptr %buf_capacity.addr, align 8, !tbaa !28
  %capacity_ = getelementptr inbounds nuw %"class.fmt::v6::internal::buffer", ptr %this1, i32 0, i32 3
  store i64 %1, ptr %capacity_, align 8, !tbaa !121
  ret void
}

; Function Attrs: mustprogress uwtable
define linkonce_odr void @_ZN3fmt2v619basic_memory_bufferIcLm500ESaIcEE4growEm(ptr noundef nonnull align 8 dereferenceable(532) %this, i64 noundef %size) unnamed_addr #4 comdat align 2 {
entry:
  %this.addr = alloca ptr, align 8
  %size.addr = alloca i64, align 8
  %old_capacity = alloca i64, align 8
  %new_capacity = alloca i64, align 8
  %old_data = alloca ptr, align 8
  %new_data = alloca ptr, align 8
  store ptr %this, ptr %this.addr, align 8, !tbaa !112
  store i64 %size, ptr %size.addr, align 8, !tbaa !28
  %this1 = load ptr, ptr %this.addr, align 8
  call void @llvm.lifetime.start.p0(i64 8, ptr %old_capacity) #3
  %call = call noundef i64 @_ZNK3fmt2v68internal6bufferIcE8capacityEv(ptr noundef nonnull align 8 dereferenceable(32) %this1) #3
  store i64 %call, ptr %old_capacity, align 8, !tbaa !28
  call void @llvm.lifetime.start.p0(i64 8, ptr %new_capacity) #3
  %0 = load i64, ptr %old_capacity, align 8, !tbaa !28
  %1 = load i64, ptr %old_capacity, align 8, !tbaa !28
  %div = udiv i64 %1, 2
  %add = add i64 %0, %div
  store i64 %add, ptr %new_capacity, align 8, !tbaa !28
  %2 = load i64, ptr %size.addr, align 8, !tbaa !28
  %3 = load i64, ptr %new_capacity, align 8, !tbaa !28
  %cmp = icmp ugt i64 %2, %3
  br i1 %cmp, label %if.then, label %if.end

if.then:                                          ; preds = %entry
  %4 = load i64, ptr %size.addr, align 8, !tbaa !28
  store i64 %4, ptr %new_capacity, align 8, !tbaa !28
  br label %if.end

if.end:                                           ; preds = %if.then, %entry
  call void @llvm.lifetime.start.p0(i64 8, ptr %old_data) #3
  %call2 = call noundef ptr @_ZN3fmt2v68internal6bufferIcE4dataEv(ptr noundef nonnull align 8 dereferenceable(32) %this1) #3
  store ptr %call2, ptr %old_data, align 8, !tbaa !57
  call void @llvm.lifetime.start.p0(i64 8, ptr %new_data) #3
  %5 = load i64, ptr %new_capacity, align 8, !tbaa !28
  %call3 = call noundef ptr @_ZNSt16allocator_traitsISaIcEE8allocateERS0_m(ptr noundef nonnull align 1 dereferenceable(1) %this1, i64 noundef %5)
  store ptr %call3, ptr %new_data, align 8, !tbaa !57
  %6 = load ptr, ptr %old_data, align 8, !tbaa !57
  %7 = load ptr, ptr %old_data, align 8, !tbaa !57
  %call4 = call noundef i64 @_ZNK3fmt2v68internal6bufferIcE4sizeEv(ptr noundef nonnull align 8 dereferenceable(32) %this1) #3
  %add.ptr = getelementptr inbounds nuw i8, ptr %7, i64 %call4
  %8 = load ptr, ptr %new_data, align 8, !tbaa !57
  %9 = load i64, ptr %new_capacity, align 8, !tbaa !28
  %call5 = call noundef ptr @_ZN3fmt2v68internal12make_checkedIcEEPT_S4_m(ptr noundef %8, i64 noundef %9)
  %call6 = call noundef ptr @_ZSt18uninitialized_copyIPcS0_ET0_T_S2_S1_(ptr noundef %6, ptr noundef %add.ptr, ptr noundef %call5)
  %10 = load ptr, ptr %new_data, align 8, !tbaa !57
  %11 = load i64, ptr %new_capacity, align 8, !tbaa !28
  call void @_ZN3fmt2v68internal6bufferIcE3setEPcm(ptr noundef nonnull align 8 dereferenceable(32) %this1, ptr noundef %10, i64 noundef %11) #3
  %12 = load ptr, ptr %old_data, align 8, !tbaa !57
  %store_ = getelementptr inbounds nuw %"class.fmt::v6::basic_memory_buffer", ptr %this1, i32 0, i32 1
  %arraydecay = getelementptr inbounds [500 x i8], ptr %store_, i64 0, i64 0
  %cmp7 = icmp ne ptr %12, %arraydecay
  br i1 %cmp7, label %if.then8, label %if.end9

if.then8:                                         ; preds = %if.end
  %13 = load ptr, ptr %old_data, align 8, !tbaa !57
  %14 = load i64, ptr %old_capacity, align 8, !tbaa !28
  call void @_ZNSt15__new_allocatorIcE10deallocateEPcm(ptr noundef nonnull align 1 dereferenceable(1) %this1, ptr noundef %13, i64 noundef %14)
  br label %if.end9

if.end9:                                          ; preds = %if.then8, %if.end
  call void @llvm.lifetime.end.p0(i64 8, ptr %new_data) #3
  call void @llvm.lifetime.end.p0(i64 8, ptr %old_data) #3
  call void @llvm.lifetime.end.p0(i64 8, ptr %new_capacity) #3
  call void @llvm.lifetime.end.p0(i64 8, ptr %old_capacity) #3
  ret void
}

; Function Attrs: mustprogress nounwind uwtable
define linkonce_odr void @_ZN3fmt2v619basic_memory_bufferIcLm500ESaIcEED0Ev(ptr noundef nonnull align 8 dereferenceable(532) %this) unnamed_addr #8 comdat align 2 {
entry:
  %this.addr = alloca ptr, align 8
  store ptr %this, ptr %this.addr, align 8, !tbaa !112
  %this1 = load ptr, ptr %this.addr, align 8
  call void @_ZN3fmt2v619basic_memory_bufferIcLm500ESaIcEED2Ev(ptr noundef nonnull align 8 dereferenceable(532) %this1) #3
  call void @_ZdlPvm(ptr noundef %this1, i64 noundef 536) #25
  ret void
}

declare void @__cxa_pure_virtual() unnamed_addr

; Function Attrs: mustprogress nounwind uwtable
define linkonce_odr void @_ZN3fmt2v68internal6bufferIcED2Ev(ptr noundef nonnull align 8 dereferenceable(32) %this) unnamed_addr #8 comdat align 2 {
entry:
  %this.addr = alloca ptr, align 8
  store ptr %this, ptr %this.addr, align 8, !tbaa !116
  %this1 = load ptr, ptr %this.addr, align 8
  ret void
}

; Function Attrs: mustprogress nounwind uwtable
define linkonce_odr void @_ZN3fmt2v68internal6bufferIcED0Ev(ptr noundef nonnull align 8 dereferenceable(32) %this) unnamed_addr #8 comdat align 2 {
entry:
  %this.addr = alloca ptr, align 8
  store ptr %this, ptr %this.addr, align 8, !tbaa !116
  %this1 = load ptr, ptr %this.addr, align 8
  call void @llvm.trap() #23
  unreachable
}

; Function Attrs: cold noreturn nounwind memory(inaccessiblemem: write)
declare void @llvm.trap() #15

; Function Attrs: mustprogress nounwind uwtable
define linkonce_odr noundef i64 @_ZNK3fmt2v68internal6bufferIcE8capacityEv(ptr noundef nonnull align 8 dereferenceable(32) %this) #8 comdat align 2 {
entry:
  %this.addr = alloca ptr, align 8
  store ptr %this, ptr %this.addr, align 8, !tbaa !116
  %this1 = load ptr, ptr %this.addr, align 8
  %capacity_ = getelementptr inbounds nuw %"class.fmt::v6::internal::buffer", ptr %this1, i32 0, i32 3
  %0 = load i64, ptr %capacity_, align 8, !tbaa !121
  ret i64 %0
}

; Function Attrs: mustprogress nounwind uwtable
define linkonce_odr noundef ptr @_ZN3fmt2v68internal6bufferIcE4dataEv(ptr noundef nonnull align 8 dereferenceable(32) %this) #8 comdat align 2 {
entry:
  %this.addr = alloca ptr, align 8
  store ptr %this, ptr %this.addr, align 8, !tbaa !116
  %this1 = load ptr, ptr %this.addr, align 8
  %ptr_ = getelementptr inbounds nuw %"class.fmt::v6::internal::buffer", ptr %this1, i32 0, i32 1
  %0 = load ptr, ptr %ptr_, align 8, !tbaa !118
  ret ptr %0
}

; Function Attrs: mustprogress uwtable
define linkonce_odr noundef ptr @_ZNSt16allocator_traitsISaIcEE8allocateERS0_m(ptr noundef nonnull align 1 dereferenceable(1) %__a, i64 noundef %__n) #4 comdat align 2 {
entry:
  %__a.addr = alloca ptr, align 8
  %__n.addr = alloca i64, align 8
  store ptr %__a, ptr %__a.addr, align 8, !tbaa !66
  store i64 %__n, ptr %__n.addr, align 8, !tbaa !28
  %0 = load ptr, ptr %__a.addr, align 8, !tbaa !66
  %1 = load i64, ptr %__n.addr, align 8, !tbaa !28
  %call = call noundef ptr @_ZNSt15__new_allocatorIcE8allocateEmPKv(ptr noundef nonnull align 1 dereferenceable(1) %0, i64 noundef %1, ptr noundef null)
  ret ptr %call
}

; Function Attrs: inlinehint mustprogress uwtable
define linkonce_odr noundef ptr @_ZSt18uninitialized_copyIPcS0_ET0_T_S2_S1_(ptr noundef %__first, ptr noundef %__last, ptr noundef %__result) #5 comdat {
entry:
  %__first.addr = alloca ptr, align 8
  %__last.addr = alloca ptr, align 8
  %__result.addr = alloca ptr, align 8
  %__can_memmove = alloca i8, align 1
  %__assignable = alloca i8, align 1
  store ptr %__first, ptr %__first.addr, align 8, !tbaa !57
  store ptr %__last, ptr %__last.addr, align 8, !tbaa !57
  store ptr %__result, ptr %__result.addr, align 8, !tbaa !57
  call void @llvm.lifetime.start.p0(i64 1, ptr %__can_memmove) #3
  store i8 1, ptr %__can_memmove, align 1, !tbaa !122
  call void @llvm.lifetime.start.p0(i64 1, ptr %__assignable) #3
  store i8 1, ptr %__assignable, align 1, !tbaa !122
  %0 = load ptr, ptr %__first.addr, align 8, !tbaa !57
  %1 = load ptr, ptr %__last.addr, align 8, !tbaa !57
  %2 = load ptr, ptr %__result.addr, align 8, !tbaa !57
  %call = call noundef ptr @_ZNSt20__uninitialized_copyILb1EE13__uninit_copyIPcS2_EET0_T_S4_S3_(ptr noundef %0, ptr noundef %1, ptr noundef %2)
  call void @llvm.lifetime.end.p0(i64 1, ptr %__assignable) #3
  call void @llvm.lifetime.end.p0(i64 1, ptr %__can_memmove) #3
  ret ptr %call
}

; Function Attrs: mustprogress nounwind uwtable
define linkonce_odr noundef i64 @_ZNK3fmt2v68internal6bufferIcE4sizeEv(ptr noundef nonnull align 8 dereferenceable(32) %this) #8 comdat align 2 {
entry:
  %this.addr = alloca ptr, align 8
  store ptr %this, ptr %this.addr, align 8, !tbaa !116
  %this1 = load ptr, ptr %this.addr, align 8
  %size_ = getelementptr inbounds nuw %"class.fmt::v6::internal::buffer", ptr %this1, i32 0, i32 2
  %0 = load i64, ptr %size_, align 8, !tbaa !120
  ret i64 %0
}

; Function Attrs: inlinehint mustprogress nounwind uwtable
define linkonce_odr noundef ptr @_ZN3fmt2v68internal12make_checkedIcEEPT_S4_m(ptr noundef %p, i64 noundef %0) #14 comdat {
entry:
  %p.addr = alloca ptr, align 8
  %.addr = alloca i64, align 8
  store ptr %p, ptr %p.addr, align 8, !tbaa !57
  store i64 %0, ptr %.addr, align 8, !tbaa !28
  %1 = load ptr, ptr %p.addr, align 8, !tbaa !57
  ret ptr %1
}

; Function Attrs: mustprogress uwtable
define linkonce_odr noundef ptr @_ZNSt15__new_allocatorIcE8allocateEmPKv(ptr noundef nonnull align 1 dereferenceable(1) %this, i64 noundef %__n, ptr noundef %0) #4 comdat align 2 {
entry:
  %this.addr = alloca ptr, align 8
  %__n.addr = alloca i64, align 8
  %.addr = alloca ptr, align 8
  store ptr %this, ptr %this.addr, align 8, !tbaa !68
  store i64 %__n, ptr %__n.addr, align 8, !tbaa !28
  store ptr %0, ptr %.addr, align 8, !tbaa !56
  %this1 = load ptr, ptr %this.addr, align 8
  %1 = load i64, ptr %__n.addr, align 8, !tbaa !28
  %call = call noundef i64 @_ZNKSt15__new_allocatorIcE11_M_max_sizeEv(ptr noundef nonnull align 1 dereferenceable(1) %this1) #3
  %cmp = icmp ugt i64 %1, %call
  %conv = zext i1 %cmp to i64
  %expval = call i64 @llvm.expect.i64(i64 %conv, i64 0)
  %tobool = icmp ne i64 %expval, 0
  br i1 %tobool, label %if.then, label %if.end4

if.then:                                          ; preds = %entry
  %2 = load i64, ptr %__n.addr, align 8, !tbaa !28
  %cmp2 = icmp ugt i64 %2, -1
  br i1 %cmp2, label %if.then3, label %if.end

if.then3:                                         ; preds = %if.then
  call void @_ZSt28__throw_bad_array_new_lengthv() #22
  unreachable

if.end:                                           ; preds = %if.then
  call void @_ZSt17__throw_bad_allocv() #22
  unreachable

if.end4:                                          ; preds = %entry
  %3 = load i64, ptr %__n.addr, align 8, !tbaa !28
  %mul = mul i64 %3, 1
  %call5 = call noalias noundef nonnull ptr @_Znwm(i64 noundef %mul) #26
  ret ptr %call5
}

; Function Attrs: mustprogress nounwind uwtable
define linkonce_odr noundef i64 @_ZNKSt15__new_allocatorIcE11_M_max_sizeEv(ptr noundef nonnull align 1 dereferenceable(1) %this) #8 comdat align 2 {
entry:
  %this.addr = alloca ptr, align 8
  store ptr %this, ptr %this.addr, align 8, !tbaa !68
  %this1 = load ptr, ptr %this.addr, align 8
  ret i64 9223372036854775807
}

; Function Attrs: nocallback nofree nosync nounwind willreturn memory(none)
declare i64 @llvm.expect.i64(i64, i64) #16

; Function Attrs: noreturn
declare void @_ZSt28__throw_bad_array_new_lengthv() #9

; Function Attrs: noreturn
declare void @_ZSt17__throw_bad_allocv() #9

; Function Attrs: nobuiltin allocsize(0)
declare noundef nonnull ptr @_Znwm(i64 noundef) #17

; Function Attrs: mustprogress uwtable
define linkonce_odr noundef ptr @_ZNSt20__uninitialized_copyILb1EE13__uninit_copyIPcS2_EET0_T_S4_S3_(ptr noundef %__first, ptr noundef %__last, ptr noundef %__result) #4 comdat align 2 {
entry:
  %__first.addr = alloca ptr, align 8
  %__last.addr = alloca ptr, align 8
  %__result.addr = alloca ptr, align 8
  store ptr %__first, ptr %__first.addr, align 8, !tbaa !57
  store ptr %__last, ptr %__last.addr, align 8, !tbaa !57
  store ptr %__result, ptr %__result.addr, align 8, !tbaa !57
  %0 = load ptr, ptr %__first.addr, align 8, !tbaa !57
  %1 = load ptr, ptr %__last.addr, align 8, !tbaa !57
  %2 = load ptr, ptr %__result.addr, align 8, !tbaa !57
  %call = call noundef ptr @_ZSt4copyIPcS0_ET0_T_S2_S1_(ptr noundef %0, ptr noundef %1, ptr noundef %2)
  ret ptr %call
}

; Function Attrs: inlinehint mustprogress uwtable
define linkonce_odr noundef ptr @_ZSt4copyIPcS0_ET0_T_S2_S1_(ptr noundef %__first, ptr noundef %__last, ptr noundef %__result) #5 comdat {
entry:
  %__first.addr = alloca ptr, align 8
  %__last.addr = alloca ptr, align 8
  %__result.addr = alloca ptr, align 8
  store ptr %__first, ptr %__first.addr, align 8, !tbaa !57
  store ptr %__last, ptr %__last.addr, align 8, !tbaa !57
  store ptr %__result, ptr %__result.addr, align 8, !tbaa !57
  %0 = load ptr, ptr %__first.addr, align 8, !tbaa !57
  %call = call noundef ptr @_ZSt12__miter_baseIPcET_S1_(ptr noundef %0)
  %1 = load ptr, ptr %__last.addr, align 8, !tbaa !57
  %call1 = call noundef ptr @_ZSt12__miter_baseIPcET_S1_(ptr noundef %1)
  %2 = load ptr, ptr %__result.addr, align 8, !tbaa !57
  %call2 = call noundef ptr @_ZSt13__copy_move_aILb0EPcS0_ET1_T0_S2_S1_(ptr noundef %call, ptr noundef %call1, ptr noundef %2)
  ret ptr %call2
}

; Function Attrs: inlinehint mustprogress uwtable
define linkonce_odr noundef ptr @_ZSt13__copy_move_aILb0EPcS0_ET1_T0_S2_S1_(ptr noundef %__first, ptr noundef %__last, ptr noundef %__result) #5 comdat {
entry:
  %__first.addr = alloca ptr, align 8
  %__last.addr = alloca ptr, align 8
  %__result.addr = alloca ptr, align 8
  store ptr %__first, ptr %__first.addr, align 8, !tbaa !57
  store ptr %__last, ptr %__last.addr, align 8, !tbaa !57
  store ptr %__result, ptr %__result.addr, align 8, !tbaa !57
  %0 = load ptr, ptr %__first.addr, align 8, !tbaa !57
  %call = call noundef ptr @_ZSt12__niter_baseIPcET_S1_(ptr noundef %0) #3
  %1 = load ptr, ptr %__last.addr, align 8, !tbaa !57
  %call1 = call noundef ptr @_ZSt12__niter_baseIPcET_S1_(ptr noundef %1) #3
  %2 = load ptr, ptr %__result.addr, align 8, !tbaa !57
  %call2 = call noundef ptr @_ZSt12__niter_baseIPcET_S1_(ptr noundef %2) #3
  %call3 = call noundef ptr @_ZSt14__copy_move_a1ILb0EPcS0_ET1_T0_S2_S1_(ptr noundef %call, ptr noundef %call1, ptr noundef %call2)
  %call4 = call noundef ptr @_ZSt12__niter_wrapIPcET_RKS1_S1_(ptr noundef nonnull align 8 dereferenceable(8) %__result.addr, ptr noundef %call3)
  ret ptr %call4
}

; Function Attrs: inlinehint mustprogress nounwind uwtable
define linkonce_odr noundef ptr @_ZSt12__miter_baseIPcET_S1_(ptr noundef %__it) #14 comdat {
entry:
  %__it.addr = alloca ptr, align 8
  store ptr %__it, ptr %__it.addr, align 8, !tbaa !57
  %0 = load ptr, ptr %__it.addr, align 8, !tbaa !57
  ret ptr %0
}

; Function Attrs: inlinehint mustprogress nounwind uwtable
define linkonce_odr noundef ptr @_ZSt12__niter_wrapIPcET_RKS1_S1_(ptr noundef nonnull align 8 dereferenceable(8) %0, ptr noundef %__res) #14 comdat {
entry:
  %.addr = alloca ptr, align 8
  %__res.addr = alloca ptr, align 8
  store ptr %0, ptr %.addr, align 8, !tbaa !97
  store ptr %__res, ptr %__res.addr, align 8, !tbaa !57
  %1 = load ptr, ptr %__res.addr, align 8, !tbaa !57
  ret ptr %1
}

; Function Attrs: inlinehint mustprogress uwtable
define linkonce_odr noundef ptr @_ZSt14__copy_move_a1ILb0EPcS0_ET1_T0_S2_S1_(ptr noundef %__first, ptr noundef %__last, ptr noundef %__result) #5 comdat {
entry:
  %__first.addr = alloca ptr, align 8
  %__last.addr = alloca ptr, align 8
  %__result.addr = alloca ptr, align 8
  store ptr %__first, ptr %__first.addr, align 8, !tbaa !57
  store ptr %__last, ptr %__last.addr, align 8, !tbaa !57
  store ptr %__result, ptr %__result.addr, align 8, !tbaa !57
  %0 = load ptr, ptr %__first.addr, align 8, !tbaa !57
  %1 = load ptr, ptr %__last.addr, align 8, !tbaa !57
  %2 = load ptr, ptr %__result.addr, align 8, !tbaa !57
  %call = call noundef ptr @_ZSt14__copy_move_a2ILb0EPcS0_ET1_T0_S2_S1_(ptr noundef %0, ptr noundef %1, ptr noundef %2)
  ret ptr %call
}

; Function Attrs: inlinehint mustprogress nounwind uwtable
define linkonce_odr noundef ptr @_ZSt12__niter_baseIPcET_S1_(ptr noundef %__it) #14 comdat {
entry:
  %__it.addr = alloca ptr, align 8
  store ptr %__it, ptr %__it.addr, align 8, !tbaa !57
  %0 = load ptr, ptr %__it.addr, align 8, !tbaa !57
  ret ptr %0
}

; Function Attrs: inlinehint mustprogress uwtable
define linkonce_odr noundef ptr @_ZSt14__copy_move_a2ILb0EPcS0_ET1_T0_S2_S1_(ptr noundef %__first, ptr noundef %__last, ptr noundef %__result) #5 comdat {
entry:
  %__first.addr = alloca ptr, align 8
  %__last.addr = alloca ptr, align 8
  %__result.addr = alloca ptr, align 8
  store ptr %__first, ptr %__first.addr, align 8, !tbaa !57
  store ptr %__last, ptr %__last.addr, align 8, !tbaa !57
  store ptr %__result, ptr %__result.addr, align 8, !tbaa !57
  %0 = load ptr, ptr %__first.addr, align 8, !tbaa !57
  %1 = load ptr, ptr %__last.addr, align 8, !tbaa !57
  %2 = load ptr, ptr %__result.addr, align 8, !tbaa !57
  %call = call noundef ptr @_ZNSt11__copy_moveILb0ELb1ESt26random_access_iterator_tagE8__copy_mIcEEPT_PKS3_S6_S4_(ptr noundef %0, ptr noundef %1, ptr noundef %2)
  ret ptr %call
}

; Function Attrs: mustprogress nounwind uwtable
define linkonce_odr noundef ptr @_ZNSt11__copy_moveILb0ELb1ESt26random_access_iterator_tagE8__copy_mIcEEPT_PKS3_S6_S4_(ptr noundef %__first, ptr noundef %__last, ptr noundef %__result) #8 comdat align 2 {
entry:
  %__first.addr = alloca ptr, align 8
  %__last.addr = alloca ptr, align 8
  %__result.addr = alloca ptr, align 8
  %_Num = alloca i64, align 8
  store ptr %__first, ptr %__first.addr, align 8, !tbaa !57
  store ptr %__last, ptr %__last.addr, align 8, !tbaa !57
  store ptr %__result, ptr %__result.addr, align 8, !tbaa !57
  call void @llvm.lifetime.start.p0(i64 8, ptr %_Num) #3
  %0 = load ptr, ptr %__last.addr, align 8, !tbaa !57
  %1 = load ptr, ptr %__first.addr, align 8, !tbaa !57
  %sub.ptr.lhs.cast = ptrtoint ptr %0 to i64
  %sub.ptr.rhs.cast = ptrtoint ptr %1 to i64
  %sub.ptr.sub = sub i64 %sub.ptr.lhs.cast, %sub.ptr.rhs.cast
  store i64 %sub.ptr.sub, ptr %_Num, align 8, !tbaa !28
  %2 = load i64, ptr %_Num, align 8, !tbaa !28
  %tobool = icmp ne i64 %2, 0
  br i1 %tobool, label %if.then, label %if.end

if.then:                                          ; preds = %entry
  %3 = load ptr, ptr %__result.addr, align 8, !tbaa !57
  %4 = load ptr, ptr %__first.addr, align 8, !tbaa !57
  %5 = load i64, ptr %_Num, align 8, !tbaa !28
  %mul = mul i64 1, %5
  call void @llvm.memmove.p0.p0.i64(ptr align 1 %3, ptr align 1 %4, i64 %mul, i1 false)
  br label %if.end

if.end:                                           ; preds = %if.then, %entry
  %6 = load ptr, ptr %__result.addr, align 8, !tbaa !57
  %7 = load i64, ptr %_Num, align 8, !tbaa !28
  %add.ptr = getelementptr inbounds i8, ptr %6, i64 %7
  call void @llvm.lifetime.end.p0(i64 8, ptr %_Num) #3
  ret ptr %add.ptr
}

; Function Attrs: nocallback nofree nounwind willreturn memory(argmem: readwrite)
declare void @llvm.memmove.p0.p0.i64(ptr writeonly captures(none), ptr readonly captures(none), i64, i1 immarg) #7

; Function Attrs: mustprogress uwtable
define linkonce_odr ptr @_ZN3fmt2v610vformat_toINS0_13arg_formatterINS0_12buffer_rangeIcEEEEcNS0_20basic_format_contextISt20back_insert_iteratorINS0_8internal6bufferIcEEEcEEEENT1_8iteratorENT_5rangeENS0_17basic_string_viewIT0_EENS0_17basic_format_argsISD_EENS8_10locale_refE(ptr %out.coerce, ptr %format_str.coerce0, i64 %format_str.coerce1, i64 %args.coerce0, ptr %args.coerce1, ptr %loc.coerce) #4 comdat personality ptr @__gxx_personality_v0 {
entry:
  %retval = alloca %"class.std::back_insert_iterator", align 8
  %out = alloca %"class.fmt::v6::buffer_range", align 8
  %format_str = alloca %"class.fmt::v6::basic_string_view", align 8
  %args = alloca %"class.fmt::v6::basic_format_args", align 8
  %loc = alloca %"class.fmt::v6::internal::locale_ref", align 8
  %h = alloca %"struct.fmt::v6::format_handler", align 16
  %agg.tmp = alloca %"class.fmt::v6::buffer_range", align 8
  %agg.tmp4 = alloca %"class.fmt::v6::basic_string_view", align 8
  %agg.tmp5 = alloca %"class.fmt::v6::basic_format_args", align 8
  %agg.tmp6 = alloca %"class.fmt::v6::internal::locale_ref", align 8
  %agg.tmp11 = alloca %"class.fmt::v6::basic_string_view", align 8
  %exn.slot = alloca ptr, align 8
  %ehselector.slot = alloca i32, align 4
  %coerce.dive = getelementptr inbounds nuw %"class.fmt::v6::buffer_range", ptr %out, i32 0, i32 0
  %coerce.dive1 = getelementptr inbounds nuw %"class.fmt::v6::internal::output_range", ptr %coerce.dive, i32 0, i32 0
  %coerce.dive2 = getelementptr inbounds nuw %"class.std::back_insert_iterator", ptr %coerce.dive1, i32 0, i32 0
  store ptr %out.coerce, ptr %coerce.dive2, align 8
  %0 = getelementptr inbounds nuw { ptr, i64 }, ptr %format_str, i32 0, i32 0
  store ptr %format_str.coerce0, ptr %0, align 8
  %1 = getelementptr inbounds nuw { ptr, i64 }, ptr %format_str, i32 0, i32 1
  store i64 %format_str.coerce1, ptr %1, align 8
  %2 = getelementptr inbounds nuw { i64, ptr }, ptr %args, i32 0, i32 0
  store i64 %args.coerce0, ptr %2, align 8
  %3 = getelementptr inbounds nuw { i64, ptr }, ptr %args, i32 0, i32 1
  store ptr %args.coerce1, ptr %3, align 8
  %coerce.dive3 = getelementptr inbounds nuw %"class.fmt::v6::internal::locale_ref", ptr %loc, i32 0, i32 0
  store ptr %loc.coerce, ptr %coerce.dive3, align 8
  call void @llvm.lifetime.start.p0(i64 112, ptr %h) #3
  call void @llvm.memcpy.p0.p0.i64(ptr align 8 %agg.tmp, ptr align 8 %out, i64 8, i1 false)
  call void @llvm.memcpy.p0.p0.i64(ptr align 8 %agg.tmp4, ptr align 8 %format_str, i64 16, i1 false), !tbaa.struct !102
  call void @llvm.memcpy.p0.p0.i64(ptr align 8 %agg.tmp5, ptr align 8 %args, i64 16, i1 false), !tbaa.struct !103
  call void @llvm.memcpy.p0.p0.i64(ptr align 8 %agg.tmp6, ptr align 8 %loc, i64 8, i1 false), !tbaa.struct !123
  %coerce.dive7 = getelementptr inbounds nuw %"class.fmt::v6::buffer_range", ptr %agg.tmp, i32 0, i32 0
  %coerce.dive8 = getelementptr inbounds nuw %"class.fmt::v6::internal::output_range", ptr %coerce.dive7, i32 0, i32 0
  %coerce.dive9 = getelementptr inbounds nuw %"class.std::back_insert_iterator", ptr %coerce.dive8, i32 0, i32 0
  %4 = load ptr, ptr %coerce.dive9, align 8
  %5 = getelementptr inbounds nuw { ptr, i64 }, ptr %agg.tmp4, i32 0, i32 0
  %6 = load ptr, ptr %5, align 8
  %7 = getelementptr inbounds nuw { ptr, i64 }, ptr %agg.tmp4, i32 0, i32 1
  %8 = load i64, ptr %7, align 8
  %9 = getelementptr inbounds nuw { i64, ptr }, ptr %agg.tmp5, i32 0, i32 0
  %10 = load i64, ptr %9, align 8
  %11 = getelementptr inbounds nuw { i64, ptr }, ptr %agg.tmp5, i32 0, i32 1
  %12 = load ptr, ptr %11, align 8
  %coerce.dive10 = getelementptr inbounds nuw %"class.fmt::v6::internal::locale_ref", ptr %agg.tmp6, i32 0, i32 0
  %13 = load ptr, ptr %coerce.dive10, align 8
  %coerce.val.pi = ptrtoint ptr %13 to i64
  call void @_ZN3fmt2v614format_handlerINS0_13arg_formatterINS0_12buffer_rangeIcEEEEcNS0_20basic_format_contextISt20back_insert_iteratorINS0_8internal6bufferIcEEEcEEEC2ES4_NS0_17basic_string_viewIcEENS0_17basic_format_argsISC_EENS8_10locale_refE(ptr noundef nonnull align 16 dereferenceable(112) %h, ptr %4, ptr %6, i64 %8, i64 %10, ptr %12, i64 %coerce.val.pi)
  call void @llvm.memcpy.p0.p0.i64(ptr align 8 %agg.tmp11, ptr align 8 %format_str, i64 16, i1 false), !tbaa.struct !102
  %14 = getelementptr inbounds nuw { ptr, i64 }, ptr %agg.tmp11, i32 0, i32 0
  %15 = load ptr, ptr %14, align 8
  %16 = getelementptr inbounds nuw { ptr, i64 }, ptr %agg.tmp11, i32 0, i32 1
  %17 = load i64, ptr %16, align 8
  invoke void @_ZN3fmt2v68internal19parse_format_stringILb0EcRNS0_14format_handlerINS0_13arg_formatterINS0_12buffer_rangeIcEEEEcNS0_20basic_format_contextISt20back_insert_iteratorINS1_6bufferIcEEEcEEEEEEvNS0_17basic_string_viewIT0_EEOT1_(ptr %15, i64 %17, ptr noundef nonnull align 16 dereferenceable(112) %h)
          to label %invoke.cont unwind label %lpad

invoke.cont:                                      ; preds = %entry
  %context = getelementptr inbounds nuw %"struct.fmt::v6::format_handler", ptr %h, i32 0, i32 2
  %call = invoke ptr @_ZN3fmt2v620basic_format_contextISt20back_insert_iteratorINS0_8internal6bufferIcEEEcE3outEv(ptr noundef nonnull align 8 dereferenceable(48) %context)
          to label %invoke.cont12 unwind label %lpad

invoke.cont12:                                    ; preds = %invoke.cont
  %coerce.dive13 = getelementptr inbounds nuw %"class.std::back_insert_iterator", ptr %retval, i32 0, i32 0
  store ptr %call, ptr %coerce.dive13, align 8
  call void @_ZN3fmt2v614format_handlerINS0_13arg_formatterINS0_12buffer_rangeIcEEEEcNS0_20basic_format_contextISt20back_insert_iteratorINS0_8internal6bufferIcEEEcEEED2Ev(ptr noundef nonnull align 16 dereferenceable(112) %h) #3
  call void @llvm.lifetime.end.p0(i64 112, ptr %h) #3
  %coerce.dive14 = getelementptr inbounds nuw %"class.std::back_insert_iterator", ptr %retval, i32 0, i32 0
  %18 = load ptr, ptr %coerce.dive14, align 8
  ret ptr %18

lpad:                                             ; preds = %invoke.cont, %entry
  %19 = landingpad { ptr, i32 }
          cleanup
  %20 = extractvalue { ptr, i32 } %19, 0
  store ptr %20, ptr %exn.slot, align 8
  %21 = extractvalue { ptr, i32 } %19, 1
  store i32 %21, ptr %ehselector.slot, align 4
  call void @_ZN3fmt2v614format_handlerINS0_13arg_formatterINS0_12buffer_rangeIcEEEEcNS0_20basic_format_contextISt20back_insert_iteratorINS0_8internal6bufferIcEEEcEEED2Ev(ptr noundef nonnull align 16 dereferenceable(112) %h) #3
  call void @llvm.lifetime.end.p0(i64 112, ptr %h) #3
  br label %eh.resume

eh.resume:                                        ; preds = %lpad
  %exn = load ptr, ptr %exn.slot, align 8
  %sel = load i32, ptr %ehselector.slot, align 4
  %lpad.val = insertvalue { ptr, i32 } poison, ptr %exn, 0
  %lpad.val15 = insertvalue { ptr, i32 } %lpad.val, i32 %sel, 1
  resume { ptr, i32 } %lpad.val15
}

; Function Attrs: mustprogress uwtable
define linkonce_odr void @_ZN3fmt2v612buffer_rangeIcEC2ERNS0_8internal6bufferIcEE(ptr noundef nonnull align 8 dereferenceable(8) %this, ptr noundef nonnull align 8 dereferenceable(32) %buf) unnamed_addr #4 comdat align 2 {
entry:
  %this.addr = alloca ptr, align 8
  %buf.addr = alloca ptr, align 8
  %agg.tmp = alloca %"class.std::back_insert_iterator", align 8
  store ptr %this, ptr %this.addr, align 8, !tbaa !124
  store ptr %buf, ptr %buf.addr, align 8, !tbaa !116
  %this1 = load ptr, ptr %this.addr, align 8
  %0 = load ptr, ptr %buf.addr, align 8, !tbaa !116
  %call = call ptr @_ZSt13back_inserterIN3fmt2v68internal6bufferIcEEESt20back_insert_iteratorIT_ERS6_(ptr noundef nonnull align 8 dereferenceable(32) %0)
  %coerce.dive = getelementptr inbounds nuw %"class.std::back_insert_iterator", ptr %agg.tmp, i32 0, i32 0
  store ptr %call, ptr %coerce.dive, align 8
  %coerce.dive2 = getelementptr inbounds nuw %"class.std::back_insert_iterator", ptr %agg.tmp, i32 0, i32 0
  %1 = load ptr, ptr %coerce.dive2, align 8
  call void @_ZN3fmt2v68internal12output_rangeISt20back_insert_iteratorINS1_6bufferIcEEEcEC2ES6_(ptr noundef nonnull align 8 dereferenceable(8) %this1, ptr %1)
  ret void
}

; Function Attrs: inlinehint mustprogress nounwind uwtable
define linkonce_odr { ptr, i64 } @_ZN3fmt2v614to_string_viewIcEENS0_17basic_string_viewIT_EES4_(ptr %s.coerce0, i64 %s.coerce1) #14 comdat {
entry:
  %retval = alloca %"class.fmt::v6::basic_string_view", align 8
  %s = alloca %"class.fmt::v6::basic_string_view", align 8
  %0 = getelementptr inbounds nuw { ptr, i64 }, ptr %s, i32 0, i32 0
  store ptr %s.coerce0, ptr %0, align 8
  %1 = getelementptr inbounds nuw { ptr, i64 }, ptr %s, i32 0, i32 1
  store i64 %s.coerce1, ptr %1, align 8
  call void @llvm.memcpy.p0.p0.i64(ptr align 8 %retval, ptr align 8 %s, i64 16, i1 false), !tbaa.struct !102
  %2 = load { ptr, i64 }, ptr %retval, align 8
  ret { ptr, i64 } %2
}

; Function Attrs: mustprogress nounwind uwtable
define linkonce_odr void @_ZN3fmt2v68internal10locale_refC2Ev(ptr noundef nonnull align 8 dereferenceable(8) %this) unnamed_addr #8 comdat align 2 {
entry:
  %this.addr = alloca ptr, align 8
  store ptr %this, ptr %this.addr, align 8, !tbaa !126
  %this1 = load ptr, ptr %this.addr, align 8
  %locale_ = getelementptr inbounds nuw %"class.fmt::v6::internal::locale_ref", ptr %this1, i32 0, i32 0
  store ptr null, ptr %locale_, align 8, !tbaa !128
  ret void
}

; Function Attrs: mustprogress uwtable
define linkonce_odr void @_ZN3fmt2v614format_handlerINS0_13arg_formatterINS0_12buffer_rangeIcEEEEcNS0_20basic_format_contextISt20back_insert_iteratorINS0_8internal6bufferIcEEEcEEEC2ES4_NS0_17basic_string_viewIcEENS0_17basic_format_argsISC_EENS8_10locale_refE(ptr noundef nonnull align 16 dereferenceable(112) %this, ptr %r.coerce, ptr %str.coerce0, i64 %str.coerce1, i64 %format_args.coerce0, ptr %format_args.coerce1, i64 %loc.coerce) unnamed_addr #4 comdat align 2 personality ptr @__gxx_personality_v0 {
entry:
  %r = alloca %"class.fmt::v6::buffer_range", align 8
  %str = alloca %"class.fmt::v6::basic_string_view", align 8
  %format_args = alloca %"class.fmt::v6::basic_format_args", align 8
  %loc = alloca %"class.fmt::v6::internal::locale_ref", align 8
  %this.addr = alloca ptr, align 8
  %agg.tmp = alloca %"class.fmt::v6::basic_string_view", align 8
  %agg.tmp5 = alloca %"struct.fmt::v6::internal::error_handler", align 1
  %agg.tmp6 = alloca %"class.std::back_insert_iterator", align 8
  %agg.tmp8 = alloca %"class.fmt::v6::basic_format_args", align 8
  %agg.tmp9 = alloca %"class.fmt::v6::internal::locale_ref", align 8
  %exn.slot = alloca ptr, align 8
  %ehselector.slot = alloca i32, align 4
  %coerce.dive = getelementptr inbounds nuw %"class.fmt::v6::buffer_range", ptr %r, i32 0, i32 0
  %coerce.dive1 = getelementptr inbounds nuw %"class.fmt::v6::internal::output_range", ptr %coerce.dive, i32 0, i32 0
  %coerce.dive2 = getelementptr inbounds nuw %"class.std::back_insert_iterator", ptr %coerce.dive1, i32 0, i32 0
  store ptr %r.coerce, ptr %coerce.dive2, align 8
  %0 = getelementptr inbounds nuw { ptr, i64 }, ptr %str, i32 0, i32 0
  store ptr %str.coerce0, ptr %0, align 8
  %1 = getelementptr inbounds nuw { ptr, i64 }, ptr %str, i32 0, i32 1
  store i64 %str.coerce1, ptr %1, align 8
  %2 = getelementptr inbounds nuw { i64, ptr }, ptr %format_args, i32 0, i32 0
  store i64 %format_args.coerce0, ptr %2, align 8
  %3 = getelementptr inbounds nuw { i64, ptr }, ptr %format_args, i32 0, i32 1
  store ptr %format_args.coerce1, ptr %3, align 8
  %coerce.dive3 = getelementptr inbounds nuw %"class.fmt::v6::internal::locale_ref", ptr %loc, i32 0, i32 0
  %coerce.val.ip = inttoptr i64 %loc.coerce to ptr
  store ptr %coerce.val.ip, ptr %coerce.dive3, align 8
  store ptr %this, ptr %this.addr, align 8, !tbaa !130
  %this4 = load ptr, ptr %this.addr, align 8
  %parse_context = getelementptr inbounds nuw %"struct.fmt::v6::format_handler", ptr %this4, i32 0, i32 1
  call void @llvm.memcpy.p0.p0.i64(ptr align 8 %agg.tmp, ptr align 8 %str, i64 16, i1 false), !tbaa.struct !102
  %4 = getelementptr inbounds nuw { ptr, i64 }, ptr %agg.tmp, i32 0, i32 0
  %5 = load ptr, ptr %4, align 8
  %6 = getelementptr inbounds nuw { ptr, i64 }, ptr %agg.tmp, i32 0, i32 1
  %7 = load i64, ptr %6, align 8
  call void @_ZN3fmt2v626basic_format_parse_contextIcNS0_8internal13error_handlerEEC2ENS0_17basic_string_viewIcEES3_(ptr noundef nonnull align 8 dereferenceable(20) %parse_context, ptr %5, i64 %7)
  %context = getelementptr inbounds nuw %"struct.fmt::v6::format_handler", ptr %this4, i32 0, i32 2
  %call = call ptr @_ZNK3fmt2v68internal12output_rangeISt20back_insert_iteratorINS1_6bufferIcEEEcE5beginEv(ptr noundef nonnull align 8 dereferenceable(8) %r)
  %coerce.dive7 = getelementptr inbounds nuw %"class.std::back_insert_iterator", ptr %agg.tmp6, i32 0, i32 0
  store ptr %call, ptr %coerce.dive7, align 8
  call void @llvm.memcpy.p0.p0.i64(ptr align 8 %agg.tmp8, ptr align 8 %format_args, i64 16, i1 false), !tbaa.struct !103
  call void @llvm.memcpy.p0.p0.i64(ptr align 8 %agg.tmp9, ptr align 8 %loc, i64 8, i1 false), !tbaa.struct !123
  %coerce.dive10 = getelementptr inbounds nuw %"class.std::back_insert_iterator", ptr %agg.tmp6, i32 0, i32 0
  %8 = load ptr, ptr %coerce.dive10, align 8
  %9 = getelementptr inbounds nuw { i64, ptr }, ptr %agg.tmp8, i32 0, i32 0
  %10 = load i64, ptr %9, align 8
  %11 = getelementptr inbounds nuw { i64, ptr }, ptr %agg.tmp8, i32 0, i32 1
  %12 = load ptr, ptr %11, align 8
  %coerce.dive11 = getelementptr inbounds nuw %"class.fmt::v6::internal::locale_ref", ptr %agg.tmp9, i32 0, i32 0
  %13 = load ptr, ptr %coerce.dive11, align 8
  call void @_ZN3fmt2v620basic_format_contextISt20back_insert_iteratorINS0_8internal6bufferIcEEEcEC2ES6_NS0_17basic_format_argsIS7_EENS3_10locale_refE(ptr noundef nonnull align 8 dereferenceable(48) %context, ptr %8, i64 %10, ptr %12, ptr %13)
  %arg = getelementptr inbounds nuw %"struct.fmt::v6::format_handler", ptr %this4, i32 0, i32 3
  invoke void @_ZN3fmt2v616basic_format_argINS0_20basic_format_contextISt20back_insert_iteratorINS0_8internal6bufferIcEEEcEEEC2Ev(ptr noundef nonnull align 16 dereferenceable(20) %arg)
          to label %invoke.cont unwind label %lpad

invoke.cont:                                      ; preds = %entry
  ret void

lpad:                                             ; preds = %entry
  %14 = landingpad { ptr, i32 }
          cleanup
  %15 = extractvalue { ptr, i32 } %14, 0
  store ptr %15, ptr %exn.slot, align 8
  %16 = extractvalue { ptr, i32 } %14, 1
  store i32 %16, ptr %ehselector.slot, align 4
  call void @_ZN3fmt2v620basic_format_contextISt20back_insert_iteratorINS0_8internal6bufferIcEEEcED2Ev(ptr noundef nonnull align 8 dereferenceable(48) %context) #3
  br label %eh.resume

eh.resume:                                        ; preds = %lpad
  %exn = load ptr, ptr %exn.slot, align 8
  %sel = load i32, ptr %ehselector.slot, align 4
  %lpad.val = insertvalue { ptr, i32 } poison, ptr %exn, 0
  %lpad.val12 = insertvalue { ptr, i32 } %lpad.val, i32 %sel, 1
  resume { ptr, i32 } %lpad.val12
}

; Function Attrs: mustprogress uwtable
define linkonce_odr void @_ZN3fmt2v68internal19parse_format_stringILb0EcRNS0_14format_handlerINS0_13arg_formatterINS0_12buffer_rangeIcEEEEcNS0_20basic_format_contextISt20back_insert_iteratorINS1_6bufferIcEEEcEEEEEEvNS0_17basic_string_viewIT0_EEOT1_(ptr %format_str.coerce0, i64 %format_str.coerce1, ptr noundef nonnull align 16 dereferenceable(112) %handler) #4 comdat {
entry:
  %format_str = alloca %"class.fmt::v6::basic_string_view", align 8
  %handler.addr = alloca ptr, align 8
  %write = alloca %struct.pfs_writer, align 8
  %begin = alloca ptr, align 8
  %end = alloca ptr, align 8
  %p = alloca ptr, align 8
  %cleanup.dest.slot = alloca i32, align 4
  %ref.tmp = alloca %"struct.fmt::v6::internal::id_adapter", align 8
  %c = alloca i8, align 1
  %0 = getelementptr inbounds nuw { ptr, i64 }, ptr %format_str, i32 0, i32 0
  store ptr %format_str.coerce0, ptr %0, align 8
  %1 = getelementptr inbounds nuw { ptr, i64 }, ptr %format_str, i32 0, i32 1
  store i64 %format_str.coerce1, ptr %1, align 8
  store ptr %handler, ptr %handler.addr, align 8, !tbaa !130
  call void @llvm.lifetime.start.p0(i64 8, ptr %write) #3
  %handler_ = getelementptr inbounds nuw %struct.pfs_writer, ptr %write, i32 0, i32 0
  %2 = load ptr, ptr %handler.addr, align 8, !tbaa !130
  store ptr %2, ptr %handler_, align 8, !tbaa !130
  call void @llvm.lifetime.start.p0(i64 8, ptr %begin) #3
  %call = call noundef ptr @_ZNK3fmt2v617basic_string_viewIcE4dataEv(ptr noundef nonnull align 8 dereferenceable(16) %format_str)
  store ptr %call, ptr %begin, align 8, !tbaa !57
  call void @llvm.lifetime.start.p0(i64 8, ptr %end) #3
  %3 = load ptr, ptr %begin, align 8, !tbaa !57
  %call1 = call noundef i64 @_ZNK3fmt2v617basic_string_viewIcE4sizeEv(ptr noundef nonnull align 8 dereferenceable(16) %format_str)
  %add.ptr = getelementptr inbounds nuw i8, ptr %3, i64 %call1
  store ptr %add.ptr, ptr %end, align 8, !tbaa !57
  br label %while.cond

while.cond:                                       ; preds = %cleanup.cont40, %entry
  %4 = load ptr, ptr %begin, align 8, !tbaa !57
  %5 = load ptr, ptr %end, align 8, !tbaa !57
  %cmp = icmp ne ptr %4, %5
  br i1 %cmp, label %while.body, label %while.end

while.body:                                       ; preds = %while.cond
  call void @llvm.lifetime.start.p0(i64 8, ptr %p) #3
  %6 = load ptr, ptr %begin, align 8, !tbaa !57
  store ptr %6, ptr %p, align 8, !tbaa !57
  %7 = load ptr, ptr %begin, align 8, !tbaa !57
  %8 = load i8, ptr %7, align 1, !tbaa !19
  %conv = sext i8 %8 to i32
  %cmp2 = icmp ne i32 %conv, 123
  br i1 %cmp2, label %land.lhs.true, label %if.end

land.lhs.true:                                    ; preds = %while.body
  %9 = load ptr, ptr %begin, align 8, !tbaa !57
  %10 = load ptr, ptr %end, align 8, !tbaa !57
  %call3 = call noundef zeroext i1 @_ZN3fmt2v68internal4findILb0EcPKcEEbT1_S5_T0_RS5_(ptr noundef %9, ptr noundef %10, i8 noundef signext 123, ptr noundef nonnull align 8 dereferenceable(8) %p)
  br i1 %call3, label %if.end, label %if.then

if.then:                                          ; preds = %land.lhs.true
  %11 = load ptr, ptr %begin, align 8, !tbaa !57
  %12 = load ptr, ptr %end, align 8, !tbaa !57
  call void @_ZZN3fmt2v68internal19parse_format_stringILb0EcRNS0_14format_handlerINS0_13arg_formatterINS0_12buffer_rangeIcEEEEcNS0_20basic_format_contextISt20back_insert_iteratorINS1_6bufferIcEEEcEEEEEEvNS0_17basic_string_viewIT0_EEOT1_EN10pfs_writerclEPKcSN_(ptr noundef nonnull align 8 dereferenceable(8) %write, ptr noundef %11, ptr noundef %12)
  store i32 1, ptr %cleanup.dest.slot, align 4
  br label %cleanup38

if.end:                                           ; preds = %land.lhs.true, %while.body
  %13 = load ptr, ptr %begin, align 8, !tbaa !57
  %14 = load ptr, ptr %p, align 8, !tbaa !57
  call void @_ZZN3fmt2v68internal19parse_format_stringILb0EcRNS0_14format_handlerINS0_13arg_formatterINS0_12buffer_rangeIcEEEEcNS0_20basic_format_contextISt20back_insert_iteratorINS1_6bufferIcEEEcEEEEEEvNS0_17basic_string_viewIT0_EEOT1_EN10pfs_writerclEPKcSN_(ptr noundef nonnull align 8 dereferenceable(8) %write, ptr noundef %13, ptr noundef %14)
  %15 = load ptr, ptr %p, align 8, !tbaa !57
  %incdec.ptr = getelementptr inbounds nuw i8, ptr %15, i32 1
  store ptr %incdec.ptr, ptr %p, align 8, !tbaa !57
  %16 = load ptr, ptr %p, align 8, !tbaa !57
  %17 = load ptr, ptr %end, align 8, !tbaa !57
  %cmp4 = icmp eq ptr %16, %17
  br i1 %cmp4, label %if.then5, label %if.end6

if.then5:                                         ; preds = %if.end
  %18 = load ptr, ptr %handler.addr, align 8, !tbaa !130
  call void @_ZN3fmt2v68internal13error_handler8on_errorEPKc(ptr noundef nonnull align 1 dereferenceable(1) %18, ptr noundef @.str.16) #22
  unreachable

19:                                               ; No predecessors!
  store i32 1, ptr %cleanup.dest.slot, align 4
  br label %cleanup38

if.end6:                                          ; preds = %if.end
  %20 = load ptr, ptr %p, align 8, !tbaa !57
  %21 = load i8, ptr %20, align 1, !tbaa !19
  %conv7 = sext i8 %21 to i32
  %cmp8 = icmp eq i32 %conv7, 125
  br i1 %cmp8, label %if.then9, label %if.else

if.then9:                                         ; preds = %if.end6
  %22 = load ptr, ptr %handler.addr, align 8, !tbaa !130
  call void @_ZN3fmt2v614format_handlerINS0_13arg_formatterINS0_12buffer_rangeIcEEEEcNS0_20basic_format_contextISt20back_insert_iteratorINS0_8internal6bufferIcEEEcEEE9on_arg_idEv(ptr noundef nonnull align 16 dereferenceable(112) %22)
  %23 = load ptr, ptr %handler.addr, align 8, !tbaa !130
  %24 = load ptr, ptr %p, align 8, !tbaa !57
  call void @_ZN3fmt2v614format_handlerINS0_13arg_formatterINS0_12buffer_rangeIcEEEEcNS0_20basic_format_contextISt20back_insert_iteratorINS0_8internal6bufferIcEEEcEEE20on_replacement_fieldEPKc(ptr noundef nonnull align 16 dereferenceable(112) %23, ptr noundef %24)
  br label %if.end36

if.else:                                          ; preds = %if.end6
  %25 = load ptr, ptr %p, align 8, !tbaa !57
  %26 = load i8, ptr %25, align 1, !tbaa !19
  %conv10 = sext i8 %26 to i32
  %cmp11 = icmp eq i32 %conv10, 123
  br i1 %cmp11, label %if.then12, label %if.else14

if.then12:                                        ; preds = %if.else
  %27 = load ptr, ptr %handler.addr, align 8, !tbaa !130
  %28 = load ptr, ptr %p, align 8, !tbaa !57
  %29 = load ptr, ptr %p, align 8, !tbaa !57
  %add.ptr13 = getelementptr inbounds i8, ptr %29, i64 1
  call void @_ZN3fmt2v614format_handlerINS0_13arg_formatterINS0_12buffer_rangeIcEEEEcNS0_20basic_format_contextISt20back_insert_iteratorINS0_8internal6bufferIcEEEcEEE7on_textEPKcSF_(ptr noundef nonnull align 16 dereferenceable(112) %27, ptr noundef %28, ptr noundef %add.ptr13)
  br label %if.end35

if.else14:                                        ; preds = %if.else
  %30 = load ptr, ptr %p, align 8, !tbaa !57
  %31 = load ptr, ptr %end, align 8, !tbaa !57
  call void @llvm.lifetime.start.p0(i64 8, ptr %ref.tmp) #3
  %handler15 = getelementptr inbounds nuw %"struct.fmt::v6::internal::id_adapter", ptr %ref.tmp, i32 0, i32 0
  %32 = load ptr, ptr %handler.addr, align 8, !tbaa !130
  store ptr %32, ptr %handler15, align 8, !tbaa !130
  %call16 = call noundef ptr @_ZN3fmt2v68internal12parse_arg_idIcNS1_10id_adapterIRNS0_14format_handlerINS0_13arg_formatterINS0_12buffer_rangeIcEEEEcNS0_20basic_format_contextISt20back_insert_iteratorINS1_6bufferIcEEEcEEEEcEEEEPKT_SK_SK_OT0_(ptr noundef %30, ptr noundef %31, ptr noundef nonnull align 8 dereferenceable(8) %ref.tmp)
  store ptr %call16, ptr %p, align 8, !tbaa !57
  call void @llvm.lifetime.end.p0(i64 8, ptr %ref.tmp) #3
  call void @llvm.lifetime.start.p0(i64 1, ptr %c) #3
  %33 = load ptr, ptr %p, align 8, !tbaa !57
  %34 = load ptr, ptr %end, align 8, !tbaa !57
  %cmp17 = icmp ne ptr %33, %34
  br i1 %cmp17, label %cond.true, label %cond.false

cond.true:                                        ; preds = %if.else14
  %35 = load ptr, ptr %p, align 8, !tbaa !57
  %36 = load i8, ptr %35, align 1, !tbaa !19
  br label %cond.end

cond.false:                                       ; preds = %if.else14
  br label %cond.end

cond.end:                                         ; preds = %cond.false, %cond.true
  %cond = phi i8 [ %36, %cond.true ], [ 0, %cond.false ]
  store i8 %cond, ptr %c, align 1, !tbaa !19
  %37 = load i8, ptr %c, align 1, !tbaa !19
  %conv18 = sext i8 %37 to i32
  %cmp19 = icmp eq i32 %conv18, 125
  br i1 %cmp19, label %if.then20, label %if.else21

if.then20:                                        ; preds = %cond.end
  %38 = load ptr, ptr %handler.addr, align 8, !tbaa !130
  %39 = load ptr, ptr %p, align 8, !tbaa !57
  call void @_ZN3fmt2v614format_handlerINS0_13arg_formatterINS0_12buffer_rangeIcEEEEcNS0_20basic_format_contextISt20back_insert_iteratorINS0_8internal6bufferIcEEEcEEE20on_replacement_fieldEPKc(ptr noundef nonnull align 16 dereferenceable(112) %38, ptr noundef %39)
  br label %if.end34

if.else21:                                        ; preds = %cond.end
  %40 = load i8, ptr %c, align 1, !tbaa !19
  %conv22 = sext i8 %40 to i32
  %cmp23 = icmp eq i32 %conv22, 58
  br i1 %cmp23, label %if.then24, label %if.else32

if.then24:                                        ; preds = %if.else21
  %41 = load ptr, ptr %handler.addr, align 8, !tbaa !130
  %42 = load ptr, ptr %p, align 8, !tbaa !57
  %add.ptr25 = getelementptr inbounds i8, ptr %42, i64 1
  %43 = load ptr, ptr %end, align 8, !tbaa !57
  %call26 = call noundef ptr @_ZN3fmt2v614format_handlerINS0_13arg_formatterINS0_12buffer_rangeIcEEEEcNS0_20basic_format_contextISt20back_insert_iteratorINS0_8internal6bufferIcEEEcEEE15on_format_specsEPKcSF_(ptr noundef nonnull align 16 dereferenceable(112) %41, ptr noundef %add.ptr25, ptr noundef %43)
  store ptr %call26, ptr %p, align 8, !tbaa !57
  %44 = load ptr, ptr %p, align 8, !tbaa !57
  %45 = load ptr, ptr %end, align 8, !tbaa !57
  %cmp27 = icmp eq ptr %44, %45
  br i1 %cmp27, label %if.then30, label %lor.lhs.false

lor.lhs.false:                                    ; preds = %if.then24
  %46 = load ptr, ptr %p, align 8, !tbaa !57
  %47 = load i8, ptr %46, align 1, !tbaa !19
  %conv28 = sext i8 %47 to i32
  %cmp29 = icmp ne i32 %conv28, 125
  br i1 %cmp29, label %if.then30, label %if.end31

if.then30:                                        ; preds = %lor.lhs.false, %if.then24
  %48 = load ptr, ptr %handler.addr, align 8, !tbaa !130
  call void @_ZN3fmt2v68internal13error_handler8on_errorEPKc(ptr noundef nonnull align 1 dereferenceable(1) %48, ptr noundef @.str.17) #22
  unreachable

49:                                               ; No predecessors!
  store i32 1, ptr %cleanup.dest.slot, align 4
  br label %cleanup

if.end31:                                         ; preds = %lor.lhs.false
  br label %if.end33

if.else32:                                        ; preds = %if.else21
  %50 = load ptr, ptr %handler.addr, align 8, !tbaa !130
  call void @_ZN3fmt2v68internal13error_handler8on_errorEPKc(ptr noundef nonnull align 1 dereferenceable(1) %50, ptr noundef @.str.18) #22
  unreachable

51:                                               ; No predecessors!
  store i32 1, ptr %cleanup.dest.slot, align 4
  br label %cleanup

if.end33:                                         ; preds = %if.end31
  br label %if.end34

if.end34:                                         ; preds = %if.end33, %if.then20
  store i32 0, ptr %cleanup.dest.slot, align 4
  br label %cleanup

cleanup:                                          ; preds = %if.end34, %51, %49
  call void @llvm.lifetime.end.p0(i64 1, ptr %c) #3
  %cleanup.dest = load i32, ptr %cleanup.dest.slot, align 4
  switch i32 %cleanup.dest, label %cleanup38 [
    i32 0, label %cleanup.cont
  ]

cleanup.cont:                                     ; preds = %cleanup
  br label %if.end35

if.end35:                                         ; preds = %cleanup.cont, %if.then12
  br label %if.end36

if.end36:                                         ; preds = %if.end35, %if.then9
  %52 = load ptr, ptr %p, align 8, !tbaa !57
  %add.ptr37 = getelementptr inbounds i8, ptr %52, i64 1
  store ptr %add.ptr37, ptr %begin, align 8, !tbaa !57
  store i32 0, ptr %cleanup.dest.slot, align 4
  br label %cleanup38

cleanup38:                                        ; preds = %if.end36, %cleanup, %19, %if.then
  call void @llvm.lifetime.end.p0(i64 8, ptr %p) #3
  %cleanup.dest39 = load i32, ptr %cleanup.dest.slot, align 4
  switch i32 %cleanup.dest39, label %cleanup41 [
    i32 0, label %cleanup.cont40
  ]

cleanup.cont40:                                   ; preds = %cleanup38
  br label %while.cond, !llvm.loop !132

while.end:                                        ; preds = %while.cond
  store i32 0, ptr %cleanup.dest.slot, align 4
  br label %cleanup41

cleanup41:                                        ; preds = %while.end, %cleanup38
  call void @llvm.lifetime.end.p0(i64 8, ptr %end) #3
  call void @llvm.lifetime.end.p0(i64 8, ptr %begin) #3
  call void @llvm.lifetime.end.p0(i64 8, ptr %write) #3
  %cleanup.dest44 = load i32, ptr %cleanup.dest.slot, align 4
  switch i32 %cleanup.dest44, label %unreachable [
    i32 0, label %cleanup.cont45
    i32 1, label %cleanup.cont45
  ]

cleanup.cont45:                                   ; preds = %cleanup41, %cleanup41
  ret void

unreachable:                                      ; preds = %cleanup41
  unreachable
}

; Function Attrs: mustprogress nounwind uwtable
define linkonce_odr ptr @_ZN3fmt2v620basic_format_contextISt20back_insert_iteratorINS0_8internal6bufferIcEEEcE3outEv(ptr noundef nonnull align 8 dereferenceable(48) %this) #8 comdat align 2 {
entry:
  %retval = alloca %"class.std::back_insert_iterator", align 8
  %this.addr = alloca ptr, align 8
  store ptr %this, ptr %this.addr, align 8, !tbaa !133
  %this1 = load ptr, ptr %this.addr, align 8
  %out_ = getelementptr inbounds nuw %"class.fmt::v6::basic_format_context", ptr %this1, i32 0, i32 0
  call void @llvm.memcpy.p0.p0.i64(ptr align 8 %retval, ptr align 8 %out_, i64 8, i1 false)
  %coerce.dive = getelementptr inbounds nuw %"class.std::back_insert_iterator", ptr %retval, i32 0, i32 0
  %0 = load ptr, ptr %coerce.dive, align 8
  ret ptr %0
}

; Function Attrs: inlinehint mustprogress nounwind uwtable
define linkonce_odr void @_ZN3fmt2v614format_handlerINS0_13arg_formatterINS0_12buffer_rangeIcEEEEcNS0_20basic_format_contextISt20back_insert_iteratorINS0_8internal6bufferIcEEEcEEED2Ev(ptr noundef nonnull align 16 dereferenceable(112) %this) unnamed_addr #14 comdat align 2 {
entry:
  %this.addr = alloca ptr, align 8
  store ptr %this, ptr %this.addr, align 8, !tbaa !130
  %this1 = load ptr, ptr %this.addr, align 8
  %context = getelementptr inbounds nuw %"struct.fmt::v6::format_handler", ptr %this1, i32 0, i32 2
  call void @_ZN3fmt2v620basic_format_contextISt20back_insert_iteratorINS0_8internal6bufferIcEEEcED2Ev(ptr noundef nonnull align 8 dereferenceable(48) %context) #3
  ret void
}

; Function Attrs: mustprogress nounwind uwtable
define linkonce_odr void @_ZN3fmt2v626basic_format_parse_contextIcNS0_8internal13error_handlerEEC2ENS0_17basic_string_viewIcEES3_(ptr noundef nonnull align 8 dereferenceable(20) %this, ptr %format_str.coerce0, i64 %format_str.coerce1) unnamed_addr #8 comdat align 2 {
entry:
  %format_str = alloca %"class.fmt::v6::basic_string_view", align 8
  %eh = alloca %"struct.fmt::v6::internal::error_handler", align 1
  %this.addr = alloca ptr, align 8
  %0 = getelementptr inbounds nuw { ptr, i64 }, ptr %format_str, i32 0, i32 0
  store ptr %format_str.coerce0, ptr %0, align 8
  %1 = getelementptr inbounds nuw { ptr, i64 }, ptr %format_str, i32 0, i32 1
  store i64 %format_str.coerce1, ptr %1, align 8
  store ptr %this, ptr %this.addr, align 8, !tbaa !135
  %this1 = load ptr, ptr %this.addr, align 8
  %format_str_ = getelementptr inbounds nuw %"class.fmt::v6::basic_format_parse_context", ptr %this1, i32 0, i32 0
  call void @llvm.memcpy.p0.p0.i64(ptr align 8 %format_str_, ptr align 8 %format_str, i64 16, i1 false), !tbaa.struct !102
  %next_arg_id_ = getelementptr inbounds nuw %"class.fmt::v6::basic_format_parse_context", ptr %this1, i32 0, i32 1
  store i32 0, ptr %next_arg_id_, align 8, !tbaa !137
  ret void
}

; Function Attrs: mustprogress nounwind uwtable
define linkonce_odr ptr @_ZNK3fmt2v68internal12output_rangeISt20back_insert_iteratorINS1_6bufferIcEEEcE5beginEv(ptr noundef nonnull align 8 dereferenceable(8) %this) #8 comdat align 2 {
entry:
  %retval = alloca %"class.std::back_insert_iterator", align 8
  %this.addr = alloca ptr, align 8
  store ptr %this, ptr %this.addr, align 8, !tbaa !140
  %this1 = load ptr, ptr %this.addr, align 8
  %it_ = getelementptr inbounds nuw %"class.fmt::v6::internal::output_range", ptr %this1, i32 0, i32 0
  call void @llvm.memcpy.p0.p0.i64(ptr align 8 %retval, ptr align 8 %it_, i64 8, i1 false)
  %coerce.dive = getelementptr inbounds nuw %"class.std::back_insert_iterator", ptr %retval, i32 0, i32 0
  %0 = load ptr, ptr %coerce.dive, align 8
  ret ptr %0
}

; Function Attrs: mustprogress uwtable
define linkonce_odr void @_ZN3fmt2v620basic_format_contextISt20back_insert_iteratorINS0_8internal6bufferIcEEEcEC2ES6_NS0_17basic_format_argsIS7_EENS3_10locale_refE(ptr noundef nonnull align 8 dereferenceable(48) %this, ptr %out.coerce, i64 %ctx_args.coerce0, ptr %ctx_args.coerce1, ptr %loc.coerce) unnamed_addr #4 comdat align 2 {
entry:
  %out = alloca %"class.std::back_insert_iterator", align 8
  %ctx_args = alloca %"class.fmt::v6::basic_format_args", align 8
  %loc = alloca %"class.fmt::v6::internal::locale_ref", align 8
  %this.addr = alloca ptr, align 8
  %coerce.dive = getelementptr inbounds nuw %"class.std::back_insert_iterator", ptr %out, i32 0, i32 0
  store ptr %out.coerce, ptr %coerce.dive, align 8
  %0 = getelementptr inbounds nuw { i64, ptr }, ptr %ctx_args, i32 0, i32 0
  store i64 %ctx_args.coerce0, ptr %0, align 8
  %1 = getelementptr inbounds nuw { i64, ptr }, ptr %ctx_args, i32 0, i32 1
  store ptr %ctx_args.coerce1, ptr %1, align 8
  %coerce.dive1 = getelementptr inbounds nuw %"class.fmt::v6::internal::locale_ref", ptr %loc, i32 0, i32 0
  store ptr %loc.coerce, ptr %coerce.dive1, align 8
  store ptr %this, ptr %this.addr, align 8, !tbaa !133
  %this2 = load ptr, ptr %this.addr, align 8
  %out_ = getelementptr inbounds nuw %"class.fmt::v6::basic_format_context", ptr %this2, i32 0, i32 0
  call void @llvm.memcpy.p0.p0.i64(ptr align 8 %out_, ptr align 8 %out, i64 8, i1 false)
  %args_ = getelementptr inbounds nuw %"class.fmt::v6::basic_format_context", ptr %this2, i32 0, i32 1
  call void @llvm.memcpy.p0.p0.i64(ptr align 8 %args_, ptr align 8 %ctx_args, i64 16, i1 false), !tbaa.struct !103
  %map_ = getelementptr inbounds nuw %"class.fmt::v6::basic_format_context", ptr %this2, i32 0, i32 2
  call void @_ZN3fmt2v68internal7arg_mapINS0_20basic_format_contextISt20back_insert_iteratorINS1_6bufferIcEEEcEEEC2Ev(ptr noundef nonnull align 8 dereferenceable(12) %map_)
  %loc_ = getelementptr inbounds nuw %"class.fmt::v6::basic_format_context", ptr %this2, i32 0, i32 3
  call void @llvm.memcpy.p0.p0.i64(ptr align 8 %loc_, ptr align 8 %loc, i64 8, i1 false), !tbaa.struct !123
  ret void
}

; Function Attrs: mustprogress uwtable
define linkonce_odr void @_ZN3fmt2v616basic_format_argINS0_20basic_format_contextISt20back_insert_iteratorINS0_8internal6bufferIcEEEcEEEC2Ev(ptr noundef nonnull align 16 dereferenceable(20) %this) unnamed_addr #4 comdat align 2 {
entry:
  %this.addr = alloca ptr, align 8
  store ptr %this, ptr %this.addr, align 8, !tbaa !142
  %this1 = load ptr, ptr %this.addr, align 8
  %value_ = getelementptr inbounds nuw %"class.fmt::v6::basic_format_arg", ptr %this1, i32 0, i32 0
  call void @_ZN3fmt2v68internal5valueINS0_20basic_format_contextISt20back_insert_iteratorINS1_6bufferIcEEEcEEEC2Ei(ptr noundef nonnull align 16 dereferenceable(16) %value_, i32 noundef 0)
  %type_ = getelementptr inbounds nuw %"class.fmt::v6::basic_format_arg", ptr %this1, i32 0, i32 1
  store i32 0, ptr %type_, align 16, !tbaa !144
  ret void
}

; Function Attrs: inlinehint mustprogress nounwind uwtable
define linkonce_odr void @_ZN3fmt2v620basic_format_contextISt20back_insert_iteratorINS0_8internal6bufferIcEEEcED2Ev(ptr noundef nonnull align 8 dereferenceable(48) %this) unnamed_addr #14 comdat align 2 {
entry:
  %this.addr = alloca ptr, align 8
  store ptr %this, ptr %this.addr, align 8, !tbaa !133
  %this1 = load ptr, ptr %this.addr, align 8
  %map_ = getelementptr inbounds nuw %"class.fmt::v6::basic_format_context", ptr %this1, i32 0, i32 2
  call void @_ZN3fmt2v68internal7arg_mapINS0_20basic_format_contextISt20back_insert_iteratorINS1_6bufferIcEEEcEEED2Ev(ptr noundef nonnull align 8 dereferenceable(12) %map_) #3
  ret void
}

; Function Attrs: mustprogress nounwind uwtable
define linkonce_odr void @_ZN3fmt2v68internal7arg_mapINS0_20basic_format_contextISt20back_insert_iteratorINS1_6bufferIcEEEcEEEC2Ev(ptr noundef nonnull align 8 dereferenceable(12) %this) unnamed_addr #8 comdat align 2 {
entry:
  %this.addr = alloca ptr, align 8
  store ptr %this, ptr %this.addr, align 8, !tbaa !148
  %this1 = load ptr, ptr %this.addr, align 8
  %map_ = getelementptr inbounds nuw %"class.fmt::v6::internal::arg_map", ptr %this1, i32 0, i32 0
  store ptr null, ptr %map_, align 8, !tbaa !150
  %size_ = getelementptr inbounds nuw %"class.fmt::v6::internal::arg_map", ptr %this1, i32 0, i32 1
  store i32 0, ptr %size_, align 8, !tbaa !153
  ret void
}

; Function Attrs: mustprogress nounwind uwtable
define linkonce_odr void @_ZN3fmt2v68internal5valueINS0_20basic_format_contextISt20back_insert_iteratorINS1_6bufferIcEEEcEEEC2Ei(ptr noundef nonnull align 16 dereferenceable(16) %this, i32 noundef %val) unnamed_addr #8 comdat align 2 {
entry:
  %this.addr = alloca ptr, align 8
  %val.addr = alloca i32, align 4
  store ptr %this, ptr %this.addr, align 8, !tbaa !154
  store i32 %val, ptr %val.addr, align 4, !tbaa !26
  %this1 = load ptr, ptr %this.addr, align 8
  %0 = getelementptr inbounds nuw %"class.fmt::v6::internal::value", ptr %this1, i32 0, i32 0
  %1 = load i32, ptr %val.addr, align 4, !tbaa !26
  store i32 %1, ptr %0, align 16, !tbaa !19
  ret void
}

; Function Attrs: mustprogress nounwind uwtable
define linkonce_odr void @_ZN3fmt2v68internal7arg_mapINS0_20basic_format_contextISt20back_insert_iteratorINS1_6bufferIcEEEcEEED2Ev(ptr noundef nonnull align 8 dereferenceable(12) %this) unnamed_addr #8 comdat align 2 {
entry:
  %this.addr = alloca ptr, align 8
  store ptr %this, ptr %this.addr, align 8, !tbaa !148
  %this1 = load ptr, ptr %this.addr, align 8
  %map_ = getelementptr inbounds nuw %"class.fmt::v6::internal::arg_map", ptr %this1, i32 0, i32 0
  %0 = load ptr, ptr %map_, align 8, !tbaa !150
  %isnull = icmp eq ptr %0, null
  br i1 %isnull, label %delete.end, label %delete.notnull

delete.notnull:                                   ; preds = %entry
  call void @_ZdaPv(ptr noundef %0) #25
  br label %delete.end

delete.end:                                       ; preds = %delete.notnull, %entry
  ret void
}

; Function Attrs: nobuiltin nounwind
declare void @_ZdaPv(ptr noundef) #12

; Function Attrs: mustprogress nounwind uwtable
define linkonce_odr noundef ptr @_ZNK3fmt2v617basic_string_viewIcE4dataEv(ptr noundef nonnull align 8 dereferenceable(16) %this) #8 comdat align 2 {
entry:
  %this.addr = alloca ptr, align 8
  store ptr %this, ptr %this.addr, align 8, !tbaa !156
  %this1 = load ptr, ptr %this.addr, align 8
  %data_ = getelementptr inbounds nuw %"class.fmt::v6::basic_string_view", ptr %this1, i32 0, i32 0
  %0 = load ptr, ptr %data_, align 8, !tbaa !158
  ret ptr %0
}

; Function Attrs: mustprogress nounwind uwtable
define linkonce_odr noundef i64 @_ZNK3fmt2v617basic_string_viewIcE4sizeEv(ptr noundef nonnull align 8 dereferenceable(16) %this) #8 comdat align 2 {
entry:
  %this.addr = alloca ptr, align 8
  store ptr %this, ptr %this.addr, align 8, !tbaa !156
  %this1 = load ptr, ptr %this.addr, align 8
  %size_ = getelementptr inbounds nuw %"class.fmt::v6::basic_string_view", ptr %this1, i32 0, i32 1
  %0 = load i64, ptr %size_, align 8, !tbaa !159
  ret i64 %0
}

; Function Attrs: inlinehint mustprogress uwtable
define linkonce_odr noundef zeroext i1 @_ZN3fmt2v68internal4findILb0EcPKcEEbT1_S5_T0_RS5_(ptr noundef %first, ptr noundef %last, i8 noundef signext %value, ptr noundef nonnull align 8 dereferenceable(8) %out) #5 comdat {
entry:
  %first.addr = alloca ptr, align 8
  %last.addr = alloca ptr, align 8
  %value.addr = alloca i8, align 1
  %out.addr = alloca ptr, align 8
  store ptr %first, ptr %first.addr, align 8, !tbaa !57
  store ptr %last, ptr %last.addr, align 8, !tbaa !57
  store i8 %value, ptr %value.addr, align 1, !tbaa !19
  store ptr %out, ptr %out.addr, align 8, !tbaa !97
  %0 = load ptr, ptr %first.addr, align 8, !tbaa !57
  %1 = load i8, ptr %value.addr, align 1, !tbaa !19
  %conv = sext i8 %1 to i32
  %2 = load ptr, ptr %last.addr, align 8, !tbaa !57
  %3 = load ptr, ptr %first.addr, align 8, !tbaa !57
  %sub.ptr.lhs.cast = ptrtoint ptr %2 to i64
  %sub.ptr.rhs.cast = ptrtoint ptr %3 to i64
  %sub.ptr.sub = sub i64 %sub.ptr.lhs.cast, %sub.ptr.rhs.cast
  %call = call noundef i64 @_ZN3fmt2v68internal11to_unsignedIlEENSt13make_unsignedIT_E4typeES4_(i64 noundef %sub.ptr.sub)
  %call1 = call noundef ptr @memchr(ptr noundef %0, i32 noundef %conv, i64 noundef %call) #27
  %4 = load ptr, ptr %out.addr, align 8, !tbaa !97
  store ptr %call1, ptr %4, align 8, !tbaa !57
  %5 = load ptr, ptr %out.addr, align 8, !tbaa !97
  %6 = load ptr, ptr %5, align 8, !tbaa !57
  %cmp = icmp ne ptr %6, null
  ret i1 %cmp
}

; Function Attrs: mustprogress uwtable
define linkonce_odr void @_ZZN3fmt2v68internal19parse_format_stringILb0EcRNS0_14format_handlerINS0_13arg_formatterINS0_12buffer_rangeIcEEEEcNS0_20basic_format_contextISt20back_insert_iteratorINS1_6bufferIcEEEcEEEEEEvNS0_17basic_string_viewIT0_EEOT1_EN10pfs_writerclEPKcSN_(ptr noundef nonnull align 8 dereferenceable(8) %this, ptr noundef %begin, ptr noundef %end) #4 comdat align 2 {
entry:
  %this.addr = alloca ptr, align 8
  %begin.addr = alloca ptr, align 8
  %end.addr = alloca ptr, align 8
  %p = alloca ptr, align 8
  %cleanup.dest.slot = alloca i32, align 4
  store ptr %this, ptr %this.addr, align 8, !tbaa !160
  store ptr %begin, ptr %begin.addr, align 8, !tbaa !57
  store ptr %end, ptr %end.addr, align 8, !tbaa !57
  %this1 = load ptr, ptr %this.addr, align 8
  %0 = load ptr, ptr %begin.addr, align 8, !tbaa !57
  %1 = load ptr, ptr %end.addr, align 8, !tbaa !57
  %cmp = icmp eq ptr %0, %1
  br i1 %cmp, label %if.then, label %if.end

if.then:                                          ; preds = %entry
  br label %return

if.end:                                           ; preds = %entry
  br label %for.cond

for.cond:                                         ; preds = %cleanup.cont, %if.end
  call void @llvm.lifetime.start.p0(i64 8, ptr %p) #3
  store ptr null, ptr %p, align 8, !tbaa !57
  %2 = load ptr, ptr %begin.addr, align 8, !tbaa !57
  %3 = load ptr, ptr %end.addr, align 8, !tbaa !57
  %call = call noundef zeroext i1 @_ZN3fmt2v68internal4findILb0EcPKcEEbT1_S5_T0_RS5_(ptr noundef %2, ptr noundef %3, i8 noundef signext 125, ptr noundef nonnull align 8 dereferenceable(8) %p)
  br i1 %call, label %if.end3, label %if.then2

if.then2:                                         ; preds = %for.cond
  %handler_ = getelementptr inbounds nuw %struct.pfs_writer, ptr %this1, i32 0, i32 0
  %4 = load ptr, ptr %handler_, align 8, !tbaa !162
  %5 = load ptr, ptr %begin.addr, align 8, !tbaa !57
  %6 = load ptr, ptr %end.addr, align 8, !tbaa !57
  call void @_ZN3fmt2v614format_handlerINS0_13arg_formatterINS0_12buffer_rangeIcEEEEcNS0_20basic_format_contextISt20back_insert_iteratorINS0_8internal6bufferIcEEEcEEE7on_textEPKcSF_(ptr noundef nonnull align 16 dereferenceable(112) %4, ptr noundef %5, ptr noundef %6)
  store i32 1, ptr %cleanup.dest.slot, align 4
  br label %cleanup

if.end3:                                          ; preds = %for.cond
  %7 = load ptr, ptr %p, align 8, !tbaa !57
  %incdec.ptr = getelementptr inbounds nuw i8, ptr %7, i32 1
  store ptr %incdec.ptr, ptr %p, align 8, !tbaa !57
  %8 = load ptr, ptr %p, align 8, !tbaa !57
  %9 = load ptr, ptr %end.addr, align 8, !tbaa !57
  %cmp4 = icmp eq ptr %8, %9
  br i1 %cmp4, label %if.then6, label %lor.lhs.false

lor.lhs.false:                                    ; preds = %if.end3
  %10 = load ptr, ptr %p, align 8, !tbaa !57
  %11 = load i8, ptr %10, align 1, !tbaa !19
  %conv = sext i8 %11 to i32
  %cmp5 = icmp ne i32 %conv, 125
  br i1 %cmp5, label %if.then6, label %if.end8

if.then6:                                         ; preds = %lor.lhs.false, %if.end3
  %handler_7 = getelementptr inbounds nuw %struct.pfs_writer, ptr %this1, i32 0, i32 0
  %12 = load ptr, ptr %handler_7, align 8, !tbaa !162
  call void @_ZN3fmt2v68internal13error_handler8on_errorEPKc(ptr noundef nonnull align 1 dereferenceable(1) %12, ptr noundef @.str.21) #22
  unreachable

13:                                               ; No predecessors!
  store i32 1, ptr %cleanup.dest.slot, align 4
  br label %cleanup

if.end8:                                          ; preds = %lor.lhs.false
  %handler_9 = getelementptr inbounds nuw %struct.pfs_writer, ptr %this1, i32 0, i32 0
  %14 = load ptr, ptr %handler_9, align 8, !tbaa !162
  %15 = load ptr, ptr %begin.addr, align 8, !tbaa !57
  %16 = load ptr, ptr %p, align 8, !tbaa !57
  call void @_ZN3fmt2v614format_handlerINS0_13arg_formatterINS0_12buffer_rangeIcEEEEcNS0_20basic_format_contextISt20back_insert_iteratorINS0_8internal6bufferIcEEEcEEE7on_textEPKcSF_(ptr noundef nonnull align 16 dereferenceable(112) %14, ptr noundef %15, ptr noundef %16)
  %17 = load ptr, ptr %p, align 8, !tbaa !57
  %add.ptr = getelementptr inbounds i8, ptr %17, i64 1
  store ptr %add.ptr, ptr %begin.addr, align 8, !tbaa !57
  store i32 0, ptr %cleanup.dest.slot, align 4
  br label %cleanup

cleanup:                                          ; preds = %if.end8, %13, %if.then2
  call void @llvm.lifetime.end.p0(i64 8, ptr %p) #3
  %cleanup.dest = load i32, ptr %cleanup.dest.slot, align 4
  switch i32 %cleanup.dest, label %unreachable [
    i32 0, label %cleanup.cont
    i32 1, label %return
  ]

cleanup.cont:                                     ; preds = %cleanup
  br label %for.cond, !llvm.loop !164

return:                                           ; preds = %cleanup, %if.then
  ret void

unreachable:                                      ; preds = %cleanup
  unreachable
}

; Function Attrs: noreturn
declare void @_ZN3fmt2v68internal13error_handler8on_errorEPKc(ptr noundef nonnull align 1 dereferenceable(1), ptr noundef) #9

; Function Attrs: mustprogress uwtable
define linkonce_odr void @_ZN3fmt2v614format_handlerINS0_13arg_formatterINS0_12buffer_rangeIcEEEEcNS0_20basic_format_contextISt20back_insert_iteratorINS0_8internal6bufferIcEEEcEEE9on_arg_idEv(ptr noundef nonnull align 16 dereferenceable(112) %this) #4 comdat align 2 {
entry:
  %this.addr = alloca ptr, align 8
  store ptr %this, ptr %this.addr, align 8, !tbaa !130
  %this1 = load ptr, ptr %this.addr, align 8
  %parse_context = getelementptr inbounds nuw %"struct.fmt::v6::format_handler", ptr %this1, i32 0, i32 1
  %call = call noundef i32 @_ZN3fmt2v626basic_format_parse_contextIcNS0_8internal13error_handlerEE11next_arg_idEv(ptr noundef nonnull align 8 dereferenceable(20) %parse_context)
  call void @_ZN3fmt2v614format_handlerINS0_13arg_formatterINS0_12buffer_rangeIcEEEEcNS0_20basic_format_contextISt20back_insert_iteratorINS0_8internal6bufferIcEEEcEEE7get_argEi(ptr noundef nonnull align 16 dereferenceable(112) %this1, i32 noundef %call)
  ret void
}

; Function Attrs: mustprogress uwtable
define linkonce_odr void @_ZN3fmt2v614format_handlerINS0_13arg_formatterINS0_12buffer_rangeIcEEEEcNS0_20basic_format_contextISt20back_insert_iteratorINS0_8internal6bufferIcEEEcEEE20on_replacement_fieldEPKc(ptr noundef nonnull align 16 dereferenceable(112) %this, ptr noundef %p) #4 comdat align 2 {
entry:
  %this.addr = alloca ptr, align 8
  %p.addr = alloca ptr, align 8
  %agg.tmp = alloca %"class.std::back_insert_iterator", align 8
  %ref.tmp = alloca %"class.fmt::v6::arg_formatter", align 8
  store ptr %this, ptr %this.addr, align 8, !tbaa !130
  store ptr %p, ptr %p.addr, align 8, !tbaa !57
  %this1 = load ptr, ptr %this.addr, align 8
  %parse_context = getelementptr inbounds nuw %"struct.fmt::v6::format_handler", ptr %this1, i32 0, i32 1
  %0 = load ptr, ptr %p.addr, align 8, !tbaa !57
  call void @_ZN3fmt2v610advance_toIcNS0_8internal13error_handlerEEEvRNS0_26basic_format_parse_contextIT_T0_EEPKS5_(ptr noundef nonnull align 8 dereferenceable(20) %parse_context, ptr noundef %0)
  %context = getelementptr inbounds nuw %"struct.fmt::v6::format_handler", ptr %this1, i32 0, i32 2
  call void @llvm.lifetime.start.p0(i64 40, ptr %ref.tmp) #3
  %context2 = getelementptr inbounds nuw %"struct.fmt::v6::format_handler", ptr %this1, i32 0, i32 2
  %parse_context3 = getelementptr inbounds nuw %"struct.fmt::v6::format_handler", ptr %this1, i32 0, i32 1
  call void @_ZN3fmt2v613arg_formatterINS0_12buffer_rangeIcEEEC2ERNS0_20basic_format_contextISt20back_insert_iteratorINS0_8internal6bufferIcEEEcEEPNS0_26basic_format_parse_contextIcNS7_13error_handlerEEEPNS0_18basic_format_specsIcEE(ptr noundef nonnull align 8 dereferenceable(40) %ref.tmp, ptr noundef nonnull align 8 dereferenceable(48) %context2, ptr noundef %parse_context3, ptr noundef null)
  %arg = getelementptr inbounds nuw %"struct.fmt::v6::format_handler", ptr %this1, i32 0, i32 3
  %call = call ptr @_ZN3fmt2v616visit_format_argINS0_13arg_formatterINS0_12buffer_rangeIcEEEENS0_20basic_format_contextISt20back_insert_iteratorINS0_8internal6bufferIcEEEcEEEEDTclfp_Li0EEEOT_RKNS0_16basic_format_argIT0_EE(ptr noundef nonnull align 8 dereferenceable(40) %ref.tmp, ptr noundef nonnull align 16 dereferenceable(20) %arg)
  %coerce.dive = getelementptr inbounds nuw %"class.std::back_insert_iterator", ptr %agg.tmp, i32 0, i32 0
  store ptr %call, ptr %coerce.dive, align 8
  %coerce.dive4 = getelementptr inbounds nuw %"class.std::back_insert_iterator", ptr %agg.tmp, i32 0, i32 0
  %1 = load ptr, ptr %coerce.dive4, align 8
  call void @_ZN3fmt2v620basic_format_contextISt20back_insert_iteratorINS0_8internal6bufferIcEEEcE10advance_toES6_(ptr noundef nonnull align 8 dereferenceable(48) %context, ptr %1)
  call void @llvm.lifetime.end.p0(i64 40, ptr %ref.tmp) #3
  ret void
}

; Function Attrs: mustprogress uwtable
define linkonce_odr void @_ZN3fmt2v614format_handlerINS0_13arg_formatterINS0_12buffer_rangeIcEEEEcNS0_20basic_format_contextISt20back_insert_iteratorINS0_8internal6bufferIcEEEcEEE7on_textEPKcSF_(ptr noundef nonnull align 16 dereferenceable(112) %this, ptr noundef %begin, ptr noundef %end) #4 comdat align 2 {
entry:
  %this.addr = alloca ptr, align 8
  %begin.addr = alloca ptr, align 8
  %end.addr = alloca ptr, align 8
  %size = alloca i64, align 8
  %out = alloca %"class.std::back_insert_iterator", align 8
  %it = alloca ptr, align 8
  %ref.tmp = alloca ptr, align 8
  %agg.tmp = alloca %"class.std::back_insert_iterator", align 8
  store ptr %this, ptr %this.addr, align 8, !tbaa !130
  store ptr %begin, ptr %begin.addr, align 8, !tbaa !57
  store ptr %end, ptr %end.addr, align 8, !tbaa !57
  %this1 = load ptr, ptr %this.addr, align 8
  call void @llvm.lifetime.start.p0(i64 8, ptr %size) #3
  %0 = load ptr, ptr %end.addr, align 8, !tbaa !57
  %1 = load ptr, ptr %begin.addr, align 8, !tbaa !57
  %sub.ptr.lhs.cast = ptrtoint ptr %0 to i64
  %sub.ptr.rhs.cast = ptrtoint ptr %1 to i64
  %sub.ptr.sub = sub i64 %sub.ptr.lhs.cast, %sub.ptr.rhs.cast
  %call = call noundef i64 @_ZN3fmt2v68internal11to_unsignedIlEENSt13make_unsignedIT_E4typeES4_(i64 noundef %sub.ptr.sub)
  store i64 %call, ptr %size, align 8, !tbaa !28
  call void @llvm.lifetime.start.p0(i64 8, ptr %out) #3
  %context = getelementptr inbounds nuw %"struct.fmt::v6::format_handler", ptr %this1, i32 0, i32 2
  %call2 = call ptr @_ZN3fmt2v620basic_format_contextISt20back_insert_iteratorINS0_8internal6bufferIcEEEcE3outEv(ptr noundef nonnull align 8 dereferenceable(48) %context)
  %coerce.dive = getelementptr inbounds nuw %"class.std::back_insert_iterator", ptr %out, i32 0, i32 0
  store ptr %call2, ptr %coerce.dive, align 8
  call void @llvm.lifetime.start.p0(i64 8, ptr %it) #3
  call void @llvm.lifetime.start.p0(i64 8, ptr %ref.tmp) #3
  %2 = load i64, ptr %size, align 8, !tbaa !28
  %call3 = call noundef ptr @_ZN3fmt2v68internal7reserveINS1_6bufferIcEETnNSt9enable_ifIXsr13is_contiguousIT_EE5valueEiE4typeELi0EEEPNS6_10value_typeERSt20back_insert_iteratorIS6_Em(ptr noundef nonnull align 8 dereferenceable(8) %out, i64 noundef %2)
  store ptr %call3, ptr %ref.tmp, align 8, !tbaa !57
  store ptr %ref.tmp, ptr %it, align 8, !tbaa !97
  %3 = load ptr, ptr %begin.addr, align 8, !tbaa !57
  %4 = load i64, ptr %size, align 8, !tbaa !28
  %5 = load ptr, ptr %it, align 8, !tbaa !97
  %6 = load ptr, ptr %5, align 8, !tbaa !57
  %call4 = call noundef ptr @_ZSt6copy_nIPKcmPcET1_T_T0_S3_(ptr noundef %3, i64 noundef %4, ptr noundef %6)
  %7 = load ptr, ptr %it, align 8, !tbaa !97
  store ptr %call4, ptr %7, align 8, !tbaa !57
  %context5 = getelementptr inbounds nuw %"struct.fmt::v6::format_handler", ptr %this1, i32 0, i32 2
  call void @llvm.memcpy.p0.p0.i64(ptr align 8 %agg.tmp, ptr align 8 %out, i64 8, i1 false)
  %coerce.dive6 = getelementptr inbounds nuw %"class.std::back_insert_iterator", ptr %agg.tmp, i32 0, i32 0
  %8 = load ptr, ptr %coerce.dive6, align 8
  call void @_ZN3fmt2v620basic_format_contextISt20back_insert_iteratorINS0_8internal6bufferIcEEEcE10advance_toES6_(ptr noundef nonnull align 8 dereferenceable(48) %context5, ptr %8)
  call void @llvm.lifetime.end.p0(i64 8, ptr %ref.tmp) #3
  call void @llvm.lifetime.end.p0(i64 8, ptr %it) #3
  call void @llvm.lifetime.end.p0(i64 8, ptr %out) #3
  call void @llvm.lifetime.end.p0(i64 8, ptr %size) #3
  ret void
}

; Function Attrs: mustprogress uwtable
define linkonce_odr noundef ptr @_ZN3fmt2v68internal12parse_arg_idIcNS1_10id_adapterIRNS0_14format_handlerINS0_13arg_formatterINS0_12buffer_rangeIcEEEEcNS0_20basic_format_contextISt20back_insert_iteratorINS1_6bufferIcEEEcEEEEcEEEEPKT_SK_SK_OT0_(ptr noundef %begin, ptr noundef %end, ptr noundef nonnull align 8 dereferenceable(8) %handler) #4 comdat {
entry:
  %retval = alloca ptr, align 8
  %begin.addr = alloca ptr, align 8
  %end.addr = alloca ptr, align 8
  %handler.addr = alloca ptr, align 8
  %c = alloca i8, align 1
  %cleanup.dest.slot = alloca i32, align 4
  %index = alloca i32, align 4
  %it = alloca ptr, align 8
  %agg.tmp = alloca %"class.fmt::v6::basic_string_view", align 8
  store ptr %begin, ptr %begin.addr, align 8, !tbaa !57
  store ptr %end, ptr %end.addr, align 8, !tbaa !57
  store ptr %handler, ptr %handler.addr, align 8, !tbaa !165
  %0 = load ptr, ptr %begin.addr, align 8, !tbaa !57
  %1 = load ptr, ptr %end.addr, align 8, !tbaa !57
  %cmp = icmp ne ptr %0, %1
  br i1 %cmp, label %cond.true, label %cond.false

cond.true:                                        ; preds = %entry
  br label %cond.end

cond.false:                                       ; preds = %entry
  call void @_ZN3fmt2v68internal11assert_failEPKciS3_(ptr noundef @.str.25, i32 noundef 2263, ptr noundef @.str.39)
  br label %cond.end

cond.end:                                         ; preds = %cond.false, %cond.true
  call void @llvm.lifetime.start.p0(i64 1, ptr %c) #3
  %2 = load ptr, ptr %begin.addr, align 8, !tbaa !57
  %3 = load i8, ptr %2, align 1, !tbaa !19
  store i8 %3, ptr %c, align 1, !tbaa !19
  %4 = load i8, ptr %c, align 1, !tbaa !19
  %conv = sext i8 %4 to i32
  %cmp1 = icmp eq i32 %conv, 125
  br i1 %cmp1, label %if.then, label %lor.lhs.false

lor.lhs.false:                                    ; preds = %cond.end
  %5 = load i8, ptr %c, align 1, !tbaa !19
  %conv2 = sext i8 %5 to i32
  %cmp3 = icmp eq i32 %conv2, 58
  br i1 %cmp3, label %if.then, label %if.end

if.then:                                          ; preds = %lor.lhs.false, %cond.end
  %6 = load ptr, ptr %handler.addr, align 8, !tbaa !165
  call void @_ZN3fmt2v68internal10id_adapterIRNS0_14format_handlerINS0_13arg_formatterINS0_12buffer_rangeIcEEEEcNS0_20basic_format_contextISt20back_insert_iteratorINS1_6bufferIcEEEcEEEEcEclEv(ptr noundef nonnull align 8 dereferenceable(8) %6)
  %7 = load ptr, ptr %begin.addr, align 8, !tbaa !57
  store ptr %7, ptr %retval, align 8
  store i32 1, ptr %cleanup.dest.slot, align 4
  br label %cleanup

if.end:                                           ; preds = %lor.lhs.false
  %8 = load i8, ptr %c, align 1, !tbaa !19
  %conv4 = sext i8 %8 to i32
  %cmp5 = icmp sge i32 %conv4, 48
  br i1 %cmp5, label %land.lhs.true, label %if.end18

land.lhs.true:                                    ; preds = %if.end
  %9 = load i8, ptr %c, align 1, !tbaa !19
  %conv6 = sext i8 %9 to i32
  %cmp7 = icmp sle i32 %conv6, 57
  br i1 %cmp7, label %if.then8, label %if.end18

if.then8:                                         ; preds = %land.lhs.true
  call void @llvm.lifetime.start.p0(i64 4, ptr %index) #3
  %10 = load ptr, ptr %end.addr, align 8, !tbaa !57
  %11 = load ptr, ptr %handler.addr, align 8, !tbaa !165
  %call = call noundef i32 @_ZN3fmt2v68internal21parse_nonnegative_intIcRNS1_10id_adapterIRNS0_14format_handlerINS0_13arg_formatterINS0_12buffer_rangeIcEEEEcNS0_20basic_format_contextISt20back_insert_iteratorINS1_6bufferIcEEEcEEEEcEEEEiRPKT_SL_OT0_(ptr noundef nonnull align 8 dereferenceable(8) %begin.addr, ptr noundef %10, ptr noundef nonnull align 8 dereferenceable(8) %11)
  store i32 %call, ptr %index, align 4, !tbaa !26
  %12 = load ptr, ptr %begin.addr, align 8, !tbaa !57
  %13 = load ptr, ptr %end.addr, align 8, !tbaa !57
  %cmp9 = icmp eq ptr %12, %13
  br i1 %cmp9, label %if.then16, label %lor.lhs.false10

lor.lhs.false10:                                  ; preds = %if.then8
  %14 = load ptr, ptr %begin.addr, align 8, !tbaa !57
  %15 = load i8, ptr %14, align 1, !tbaa !19
  %conv11 = sext i8 %15 to i32
  %cmp12 = icmp ne i32 %conv11, 125
  br i1 %cmp12, label %land.lhs.true13, label %if.else

land.lhs.true13:                                  ; preds = %lor.lhs.false10
  %16 = load ptr, ptr %begin.addr, align 8, !tbaa !57
  %17 = load i8, ptr %16, align 1, !tbaa !19
  %conv14 = sext i8 %17 to i32
  %cmp15 = icmp ne i32 %conv14, 58
  br i1 %cmp15, label %if.then16, label %if.else

if.then16:                                        ; preds = %land.lhs.true13, %if.then8
  %18 = load ptr, ptr %handler.addr, align 8, !tbaa !165
  call void @_ZN3fmt2v68internal10id_adapterIRNS0_14format_handlerINS0_13arg_formatterINS0_12buffer_rangeIcEEEEcNS0_20basic_format_contextISt20back_insert_iteratorINS1_6bufferIcEEEcEEEEcE8on_errorEPKc(ptr noundef nonnull align 8 dereferenceable(8) %18, ptr noundef @.str.16)
  br label %if.end17

if.else:                                          ; preds = %land.lhs.true13, %lor.lhs.false10
  %19 = load ptr, ptr %handler.addr, align 8, !tbaa !165
  %20 = load i32, ptr %index, align 4, !tbaa !26
  call void @_ZN3fmt2v68internal10id_adapterIRNS0_14format_handlerINS0_13arg_formatterINS0_12buffer_rangeIcEEEEcNS0_20basic_format_contextISt20back_insert_iteratorINS1_6bufferIcEEEcEEEEcEclEi(ptr noundef nonnull align 8 dereferenceable(8) %19, i32 noundef %20)
  br label %if.end17

if.end17:                                         ; preds = %if.else, %if.then16
  %21 = load ptr, ptr %begin.addr, align 8, !tbaa !57
  store ptr %21, ptr %retval, align 8
  store i32 1, ptr %cleanup.dest.slot, align 4
  call void @llvm.lifetime.end.p0(i64 4, ptr %index) #3
  br label %cleanup

if.end18:                                         ; preds = %land.lhs.true, %if.end
  %22 = load i8, ptr %c, align 1, !tbaa !19
  %call19 = call noundef zeroext i1 @_ZN3fmt2v68internal13is_name_startIcEEbT_(i8 noundef signext %22)
  br i1 %call19, label %if.end21, label %if.then20

if.then20:                                        ; preds = %if.end18
  %23 = load ptr, ptr %handler.addr, align 8, !tbaa !165
  call void @_ZN3fmt2v68internal10id_adapterIRNS0_14format_handlerINS0_13arg_formatterINS0_12buffer_rangeIcEEEEcNS0_20basic_format_contextISt20back_insert_iteratorINS1_6bufferIcEEEcEEEEcE8on_errorEPKc(ptr noundef nonnull align 8 dereferenceable(8) %23, ptr noundef @.str.16)
  %24 = load ptr, ptr %begin.addr, align 8, !tbaa !57
  store ptr %24, ptr %retval, align 8
  store i32 1, ptr %cleanup.dest.slot, align 4
  br label %cleanup

if.end21:                                         ; preds = %if.end18
  call void @llvm.lifetime.start.p0(i64 8, ptr %it) #3
  %25 = load ptr, ptr %begin.addr, align 8, !tbaa !57
  store ptr %25, ptr %it, align 8, !tbaa !57
  br label %do.body

do.body:                                          ; preds = %land.end29, %if.end21
  %26 = load ptr, ptr %it, align 8, !tbaa !57
  %incdec.ptr = getelementptr inbounds nuw i8, ptr %26, i32 1
  store ptr %incdec.ptr, ptr %it, align 8, !tbaa !57
  br label %do.cond

do.cond:                                          ; preds = %do.body
  %27 = load ptr, ptr %it, align 8, !tbaa !57
  %28 = load ptr, ptr %end.addr, align 8, !tbaa !57
  %cmp22 = icmp ne ptr %27, %28
  br i1 %cmp22, label %land.rhs, label %land.end29

land.rhs:                                         ; preds = %do.cond
  %29 = load ptr, ptr %it, align 8, !tbaa !57
  %30 = load i8, ptr %29, align 1, !tbaa !19
  store i8 %30, ptr %c, align 1, !tbaa !19
  %call23 = call noundef zeroext i1 @_ZN3fmt2v68internal13is_name_startIcEEbT_(i8 noundef signext %30)
  br i1 %call23, label %lor.end, label %lor.rhs

lor.rhs:                                          ; preds = %land.rhs
  %31 = load i8, ptr %c, align 1, !tbaa !19
  %conv24 = sext i8 %31 to i32
  %cmp25 = icmp sle i32 48, %conv24
  br i1 %cmp25, label %land.rhs26, label %land.end

land.rhs26:                                       ; preds = %lor.rhs
  %32 = load i8, ptr %c, align 1, !tbaa !19
  %conv27 = sext i8 %32 to i32
  %cmp28 = icmp sle i32 %conv27, 57
  br label %land.end

land.end:                                         ; preds = %land.rhs26, %lor.rhs
  %33 = phi i1 [ false, %lor.rhs ], [ %cmp28, %land.rhs26 ]
  br label %lor.end

lor.end:                                          ; preds = %land.end, %land.rhs
  %34 = phi i1 [ true, %land.rhs ], [ %33, %land.end ]
  br label %land.end29

land.end29:                                       ; preds = %lor.end, %do.cond
  %35 = phi i1 [ false, %do.cond ], [ %34, %lor.end ]
  br i1 %35, label %do.body, label %do.end, !llvm.loop !167

do.end:                                           ; preds = %land.end29
  %36 = load ptr, ptr %handler.addr, align 8, !tbaa !165
  %37 = load ptr, ptr %begin.addr, align 8, !tbaa !57
  %38 = load ptr, ptr %it, align 8, !tbaa !57
  %39 = load ptr, ptr %begin.addr, align 8, !tbaa !57
  %sub.ptr.lhs.cast = ptrtoint ptr %38 to i64
  %sub.ptr.rhs.cast = ptrtoint ptr %39 to i64
  %sub.ptr.sub = sub i64 %sub.ptr.lhs.cast, %sub.ptr.rhs.cast
  %call30 = call noundef i64 @_ZN3fmt2v68internal11to_unsignedIlEENSt13make_unsignedIT_E4typeES4_(i64 noundef %sub.ptr.sub)
  call void @_ZN3fmt2v617basic_string_viewIcEC2EPKcm(ptr noundef nonnull align 8 dereferenceable(16) %agg.tmp, ptr noundef %37, i64 noundef %call30) #3
  %40 = getelementptr inbounds nuw { ptr, i64 }, ptr %agg.tmp, i32 0, i32 0
  %41 = load ptr, ptr %40, align 8
  %42 = getelementptr inbounds nuw { ptr, i64 }, ptr %agg.tmp, i32 0, i32 1
  %43 = load i64, ptr %42, align 8
  call void @_ZN3fmt2v68internal10id_adapterIRNS0_14format_handlerINS0_13arg_formatterINS0_12buffer_rangeIcEEEEcNS0_20basic_format_contextISt20back_insert_iteratorINS1_6bufferIcEEEcEEEEcEclENS0_17basic_string_viewIcEE(ptr noundef nonnull align 8 dereferenceable(8) %36, ptr %41, i64 %43)
  %44 = load ptr, ptr %it, align 8, !tbaa !57
  store ptr %44, ptr %retval, align 8
  store i32 1, ptr %cleanup.dest.slot, align 4
  call void @llvm.lifetime.end.p0(i64 8, ptr %it) #3
  br label %cleanup

cleanup:                                          ; preds = %do.end, %if.then20, %if.end17, %if.then
  call void @llvm.lifetime.end.p0(i64 1, ptr %c) #3
  %45 = load ptr, ptr %retval, align 8
  ret ptr %45
}

; Function Attrs: mustprogress uwtable
define linkonce_odr noundef ptr @_ZN3fmt2v614format_handlerINS0_13arg_formatterINS0_12buffer_rangeIcEEEEcNS0_20basic_format_contextISt20back_insert_iteratorINS0_8internal6bufferIcEEEcEEE15on_format_specsEPKcSF_(ptr noundef nonnull align 16 dereferenceable(112) %this, ptr noundef %begin, ptr noundef %end) #4 comdat align 2 {
entry:
  %retval = alloca ptr, align 8
  %this.addr = alloca ptr, align 8
  %begin.addr = alloca ptr, align 8
  %end.addr = alloca ptr, align 8
  %f = alloca %"class.fmt::v6::internal::custom_formatter", align 8
  %cleanup.dest.slot = alloca i32, align 4
  %specs = alloca %"struct.fmt::v6::basic_format_specs", align 4
  %handler = alloca %"class.fmt::v6::internal::specs_checker", align 8
  %ref.tmp = alloca %"class.fmt::v6::internal::specs_handler", align 8
  %agg.tmp = alloca %"class.std::back_insert_iterator", align 8
  %ref.tmp15 = alloca %"class.fmt::v6::arg_formatter", align 8
  store ptr %this, ptr %this.addr, align 8, !tbaa !130
  store ptr %begin, ptr %begin.addr, align 8, !tbaa !57
  store ptr %end, ptr %end.addr, align 8, !tbaa !57
  %this1 = load ptr, ptr %this.addr, align 8
  %parse_context = getelementptr inbounds nuw %"struct.fmt::v6::format_handler", ptr %this1, i32 0, i32 1
  %0 = load ptr, ptr %begin.addr, align 8, !tbaa !57
  call void @_ZN3fmt2v610advance_toIcNS0_8internal13error_handlerEEEvRNS0_26basic_format_parse_contextIT_T0_EEPKS5_(ptr noundef nonnull align 8 dereferenceable(20) %parse_context, ptr noundef %0)
  call void @llvm.lifetime.start.p0(i64 16, ptr %f) #3
  %parse_context2 = getelementptr inbounds nuw %"struct.fmt::v6::format_handler", ptr %this1, i32 0, i32 1
  %context = getelementptr inbounds nuw %"struct.fmt::v6::format_handler", ptr %this1, i32 0, i32 2
  call void @_ZN3fmt2v68internal16custom_formatterINS0_20basic_format_contextISt20back_insert_iteratorINS1_6bufferIcEEEcEEEC2ERNS0_26basic_format_parse_contextIcNS1_13error_handlerEEERS8_(ptr noundef nonnull align 8 dereferenceable(16) %f, ptr noundef nonnull align 8 dereferenceable(20) %parse_context2, ptr noundef nonnull align 8 dereferenceable(48) %context)
  %arg = getelementptr inbounds nuw %"struct.fmt::v6::format_handler", ptr %this1, i32 0, i32 3
  %call = call noundef zeroext i1 @_ZN3fmt2v616visit_format_argIRNS0_8internal16custom_formatterINS0_20basic_format_contextISt20back_insert_iteratorINS2_6bufferIcEEEcEEEES9_EEDTclfp_Li0EEEOT_RKNS0_16basic_format_argIT0_EE(ptr noundef nonnull align 8 dereferenceable(16) %f, ptr noundef nonnull align 16 dereferenceable(20) %arg)
  br i1 %call, label %if.then, label %if.end

if.then:                                          ; preds = %entry
  %parse_context3 = getelementptr inbounds nuw %"struct.fmt::v6::format_handler", ptr %this1, i32 0, i32 1
  %call4 = call noundef ptr @_ZNK3fmt2v626basic_format_parse_contextIcNS0_8internal13error_handlerEE5beginEv(ptr noundef nonnull align 8 dereferenceable(20) %parse_context3) #3
  store ptr %call4, ptr %retval, align 8
  store i32 1, ptr %cleanup.dest.slot, align 4
  br label %cleanup

if.end:                                           ; preds = %entry
  call void @llvm.lifetime.start.p0(i64 16, ptr %specs) #3
  call void @_ZN3fmt2v618basic_format_specsIcEC2Ev(ptr noundef nonnull align 4 dereferenceable(16) %specs)
  call void @llvm.lifetime.start.p0(i64 40, ptr %handler) #3
  call void @llvm.lifetime.start.p0(i64 24, ptr %ref.tmp) #3
  %parse_context5 = getelementptr inbounds nuw %"struct.fmt::v6::format_handler", ptr %this1, i32 0, i32 1
  %context6 = getelementptr inbounds nuw %"struct.fmt::v6::format_handler", ptr %this1, i32 0, i32 2
  call void @_ZN3fmt2v68internal13specs_handlerINS0_26basic_format_parse_contextIcNS1_13error_handlerEEENS0_20basic_format_contextISt20back_insert_iteratorINS1_6bufferIcEEEcEEEC2ERNS0_18basic_format_specsIcEERS5_RSB_(ptr noundef nonnull align 8 dereferenceable(24) %ref.tmp, ptr noundef nonnull align 4 dereferenceable(16) %specs, ptr noundef nonnull align 8 dereferenceable(20) %parse_context5, ptr noundef nonnull align 8 dereferenceable(48) %context6)
  %arg7 = getelementptr inbounds nuw %"struct.fmt::v6::format_handler", ptr %this1, i32 0, i32 3
  %call8 = call noundef i32 @_ZNK3fmt2v616basic_format_argINS0_20basic_format_contextISt20back_insert_iteratorINS0_8internal6bufferIcEEEcEEE4typeEv(ptr noundef nonnull align 16 dereferenceable(20) %arg7)
  call void @_ZN3fmt2v68internal13specs_checkerINS1_13specs_handlerINS0_26basic_format_parse_contextIcNS1_13error_handlerEEENS0_20basic_format_contextISt20back_insert_iteratorINS1_6bufferIcEEEcEEEEEC2ERKSD_NS1_4typeE(ptr noundef nonnull align 8 dereferenceable(40) %handler, ptr noundef nonnull align 8 dereferenceable(24) %ref.tmp, i32 noundef %call8)
  call void @llvm.lifetime.end.p0(i64 24, ptr %ref.tmp) #3
  %1 = load ptr, ptr %begin.addr, align 8, !tbaa !57
  %2 = load ptr, ptr %end.addr, align 8, !tbaa !57
  %call9 = call noundef ptr @_ZN3fmt2v68internal18parse_format_specsIcRNS1_13specs_checkerINS1_13specs_handlerINS0_26basic_format_parse_contextIcNS1_13error_handlerEEENS0_20basic_format_contextISt20back_insert_iteratorINS1_6bufferIcEEEcEEEEEEEEPKT_SJ_SJ_OT0_(ptr noundef %1, ptr noundef %2, ptr noundef nonnull align 8 dereferenceable(40) %handler)
  store ptr %call9, ptr %begin.addr, align 8, !tbaa !57
  %3 = load ptr, ptr %begin.addr, align 8, !tbaa !57
  %4 = load ptr, ptr %end.addr, align 8, !tbaa !57
  %cmp = icmp eq ptr %3, %4
  br i1 %cmp, label %if.then11, label %lor.lhs.false

lor.lhs.false:                                    ; preds = %if.end
  %5 = load ptr, ptr %begin.addr, align 8, !tbaa !57
  %6 = load i8, ptr %5, align 1, !tbaa !19
  %conv = sext i8 %6 to i32
  %cmp10 = icmp ne i32 %conv, 125
  br i1 %cmp10, label %if.then11, label %if.end12

if.then11:                                        ; preds = %lor.lhs.false, %if.end
  call void @_ZN3fmt2v68internal13error_handler8on_errorEPKc(ptr noundef nonnull align 1 dereferenceable(1) %this1, ptr noundef @.str.18) #22
  unreachable

if.end12:                                         ; preds = %lor.lhs.false
  %parse_context13 = getelementptr inbounds nuw %"struct.fmt::v6::format_handler", ptr %this1, i32 0, i32 1
  %7 = load ptr, ptr %begin.addr, align 8, !tbaa !57
  call void @_ZN3fmt2v610advance_toIcNS0_8internal13error_handlerEEEvRNS0_26basic_format_parse_contextIT_T0_EEPKS5_(ptr noundef nonnull align 8 dereferenceable(20) %parse_context13, ptr noundef %7)
  %context14 = getelementptr inbounds nuw %"struct.fmt::v6::format_handler", ptr %this1, i32 0, i32 2
  call void @llvm.lifetime.start.p0(i64 40, ptr %ref.tmp15) #3
  %context16 = getelementptr inbounds nuw %"struct.fmt::v6::format_handler", ptr %this1, i32 0, i32 2
  %parse_context17 = getelementptr inbounds nuw %"struct.fmt::v6::format_handler", ptr %this1, i32 0, i32 1
  call void @_ZN3fmt2v613arg_formatterINS0_12buffer_rangeIcEEEC2ERNS0_20basic_format_contextISt20back_insert_iteratorINS0_8internal6bufferIcEEEcEEPNS0_26basic_format_parse_contextIcNS7_13error_handlerEEEPNS0_18basic_format_specsIcEE(ptr noundef nonnull align 8 dereferenceable(40) %ref.tmp15, ptr noundef nonnull align 8 dereferenceable(48) %context16, ptr noundef %parse_context17, ptr noundef %specs)
  %arg18 = getelementptr inbounds nuw %"struct.fmt::v6::format_handler", ptr %this1, i32 0, i32 3
  %call19 = call ptr @_ZN3fmt2v616visit_format_argINS0_13arg_formatterINS0_12buffer_rangeIcEEEENS0_20basic_format_contextISt20back_insert_iteratorINS0_8internal6bufferIcEEEcEEEEDTclfp_Li0EEEOT_RKNS0_16basic_format_argIT0_EE(ptr noundef nonnull align 8 dereferenceable(40) %ref.tmp15, ptr noundef nonnull align 16 dereferenceable(20) %arg18)
  %coerce.dive = getelementptr inbounds nuw %"class.std::back_insert_iterator", ptr %agg.tmp, i32 0, i32 0
  store ptr %call19, ptr %coerce.dive, align 8
  %coerce.dive20 = getelementptr inbounds nuw %"class.std::back_insert_iterator", ptr %agg.tmp, i32 0, i32 0
  %8 = load ptr, ptr %coerce.dive20, align 8
  call void @_ZN3fmt2v620basic_format_contextISt20back_insert_iteratorINS0_8internal6bufferIcEEEcE10advance_toES6_(ptr noundef nonnull align 8 dereferenceable(48) %context14, ptr %8)
  call void @llvm.lifetime.end.p0(i64 40, ptr %ref.tmp15) #3
  %9 = load ptr, ptr %begin.addr, align 8, !tbaa !57
  store ptr %9, ptr %retval, align 8
  store i32 1, ptr %cleanup.dest.slot, align 4
  call void @llvm.lifetime.end.p0(i64 40, ptr %handler) #3
  call void @llvm.lifetime.end.p0(i64 16, ptr %specs) #3
  br label %cleanup

cleanup:                                          ; preds = %if.end12, %if.then
  call void @llvm.lifetime.end.p0(i64 16, ptr %f) #3
  %10 = load ptr, ptr %retval, align 8
  ret ptr %10
}

; Function Attrs: nounwind willreturn memory(read)
declare noundef ptr @memchr(ptr noundef, i32 noundef, i64 noundef) #18

; Function Attrs: mustprogress uwtable
define linkonce_odr noundef i64 @_ZN3fmt2v68internal11to_unsignedIlEENSt13make_unsignedIT_E4typeES4_(i64 noundef %value) #4 comdat {
entry:
  %value.addr = alloca i64, align 8
  store i64 %value, ptr %value.addr, align 8, !tbaa !28
  %0 = load i64, ptr %value.addr, align 8, !tbaa !28
  %cmp = icmp sge i64 %0, 0
  br i1 %cmp, label %cond.true, label %cond.false

cond.true:                                        ; preds = %entry
  br label %cond.end

cond.false:                                       ; preds = %entry
  call void @_ZN3fmt2v68internal11assert_failEPKciS3_(ptr noundef @.str.19, i32 noundef 284, ptr noundef @.str.20)
  br label %cond.end

cond.end:                                         ; preds = %cond.false, %cond.true
  %1 = load i64, ptr %value.addr, align 8, !tbaa !28
  ret i64 %1
}

declare void @_ZN3fmt2v68internal11assert_failEPKciS3_(ptr noundef, i32 noundef, ptr noundef) #1

; Function Attrs: mustprogress uwtable
define linkonce_odr void @_ZN3fmt2v614format_handlerINS0_13arg_formatterINS0_12buffer_rangeIcEEEEcNS0_20basic_format_contextISt20back_insert_iteratorINS0_8internal6bufferIcEEEcEEE7get_argEi(ptr noundef nonnull align 16 dereferenceable(112) %this, i32 noundef %id) #4 comdat align 2 {
entry:
  %this.addr = alloca ptr, align 8
  %id.addr = alloca i32, align 4
  %ref.tmp = alloca %"class.fmt::v6::basic_format_arg", align 16
  store ptr %this, ptr %this.addr, align 8, !tbaa !130
  store i32 %id, ptr %id.addr, align 4, !tbaa !26
  %this1 = load ptr, ptr %this.addr, align 8
  call void @llvm.lifetime.start.p0(i64 32, ptr %ref.tmp) #3
  %context = getelementptr inbounds nuw %"struct.fmt::v6::format_handler", ptr %this1, i32 0, i32 2
  %0 = load i32, ptr %id.addr, align 4, !tbaa !26
  call void @_ZN3fmt2v68internal7get_argINS0_20basic_format_contextISt20back_insert_iteratorINS1_6bufferIcEEEcEEEENT_10format_argERS9_i(ptr dead_on_unwind writable sret(%"class.fmt::v6::basic_format_arg") align 16 %ref.tmp, ptr noundef nonnull align 8 dereferenceable(48) %context, i32 noundef %0)
  %arg = getelementptr inbounds nuw %"struct.fmt::v6::format_handler", ptr %this1, i32 0, i32 3
  call void @llvm.memcpy.p0.p0.i64(ptr align 16 %arg, ptr align 16 %ref.tmp, i64 20, i1 false), !tbaa.struct !168
  call void @llvm.lifetime.end.p0(i64 32, ptr %ref.tmp) #3
  ret void
}

; Function Attrs: mustprogress uwtable
define linkonce_odr noundef i32 @_ZN3fmt2v626basic_format_parse_contextIcNS0_8internal13error_handlerEE11next_arg_idEv(ptr noundef nonnull align 8 dereferenceable(20) %this) #4 comdat align 2 {
entry:
  %retval = alloca i32, align 4
  %this.addr = alloca ptr, align 8
  store ptr %this, ptr %this.addr, align 8, !tbaa !135
  %this1 = load ptr, ptr %this.addr, align 8
  %next_arg_id_ = getelementptr inbounds nuw %"class.fmt::v6::basic_format_parse_context", ptr %this1, i32 0, i32 1
  %0 = load i32, ptr %next_arg_id_, align 8, !tbaa !137
  %cmp = icmp sge i32 %0, 0
  br i1 %cmp, label %if.then, label %if.end

if.then:                                          ; preds = %entry
  %next_arg_id_2 = getelementptr inbounds nuw %"class.fmt::v6::basic_format_parse_context", ptr %this1, i32 0, i32 1
  %1 = load i32, ptr %next_arg_id_2, align 8, !tbaa !137
  %inc = add nsw i32 %1, 1
  store i32 %inc, ptr %next_arg_id_2, align 8, !tbaa !137
  store i32 %1, ptr %retval, align 4
  br label %return

if.end:                                           ; preds = %entry
  call void @_ZN3fmt2v626basic_format_parse_contextIcNS0_8internal13error_handlerEE8on_errorEPKc(ptr noundef nonnull align 8 dereferenceable(20) %this1, ptr noundef @.str.23)
  store i32 0, ptr %retval, align 4
  br label %return

return:                                           ; preds = %if.end, %if.then
  %2 = load i32, ptr %retval, align 4
  ret i32 %2
}

; Function Attrs: mustprogress uwtable
define linkonce_odr void @_ZN3fmt2v68internal7get_argINS0_20basic_format_contextISt20back_insert_iteratorINS1_6bufferIcEEEcEEEENT_10format_argERS9_i(ptr dead_on_unwind noalias writable sret(%"class.fmt::v6::basic_format_arg") align 16 %agg.result, ptr noundef nonnull align 8 dereferenceable(48) %ctx, i32 noundef %id) #4 comdat {
entry:
  %ctx.addr = alloca ptr, align 8
  %id.addr = alloca i32, align 4
  store ptr %ctx, ptr %ctx.addr, align 8, !tbaa !133
  store i32 %id, ptr %id.addr, align 4, !tbaa !26
  %0 = load ptr, ptr %ctx.addr, align 8, !tbaa !133
  %1 = load i32, ptr %id.addr, align 4, !tbaa !26
  call void @_ZNK3fmt2v620basic_format_contextISt20back_insert_iteratorINS0_8internal6bufferIcEEEcE3argEi(ptr dead_on_unwind writable sret(%"class.fmt::v6::basic_format_arg") align 16 %agg.result, ptr noundef nonnull align 8 dereferenceable(48) %0, i32 noundef %1)
  %call = call noundef zeroext i1 @_ZNK3fmt2v616basic_format_argINS0_20basic_format_contextISt20back_insert_iteratorINS0_8internal6bufferIcEEEcEEEcvbEv(ptr noundef nonnull align 16 dereferenceable(20) %agg.result) #3
  br i1 %call, label %if.end, label %if.then

if.then:                                          ; preds = %entry
  %2 = load ptr, ptr %ctx.addr, align 8, !tbaa !133
  call void @_ZN3fmt2v620basic_format_contextISt20back_insert_iteratorINS0_8internal6bufferIcEEEcE8on_errorEPKc(ptr noundef nonnull align 8 dereferenceable(48) %2, ptr noundef @.str.22)
  br label %if.end

if.end:                                           ; preds = %if.then, %entry
  ret void
}

; Function Attrs: mustprogress uwtable
define linkonce_odr void @_ZNK3fmt2v620basic_format_contextISt20back_insert_iteratorINS0_8internal6bufferIcEEEcE3argEi(ptr dead_on_unwind noalias writable sret(%"class.fmt::v6::basic_format_arg") align 16 %agg.result, ptr noundef nonnull align 8 dereferenceable(48) %this, i32 noundef %id) #4 comdat align 2 {
entry:
  %this.addr = alloca ptr, align 8
  %id.addr = alloca i32, align 4
  store ptr %this, ptr %this.addr, align 8, !tbaa !133
  store i32 %id, ptr %id.addr, align 4, !tbaa !26
  %this1 = load ptr, ptr %this.addr, align 8
  %args_ = getelementptr inbounds nuw %"class.fmt::v6::basic_format_context", ptr %this1, i32 0, i32 1
  %0 = load i32, ptr %id.addr, align 4, !tbaa !26
  call void @_ZNK3fmt2v617basic_format_argsINS0_20basic_format_contextISt20back_insert_iteratorINS0_8internal6bufferIcEEEcEEE3getEi(ptr dead_on_unwind writable sret(%"class.fmt::v6::basic_format_arg") align 16 %agg.result, ptr noundef nonnull align 8 dereferenceable(16) %args_, i32 noundef %0)
  ret void
}

; Function Attrs: mustprogress nounwind uwtable
define linkonce_odr noundef zeroext i1 @_ZNK3fmt2v616basic_format_argINS0_20basic_format_contextISt20back_insert_iteratorINS0_8internal6bufferIcEEEcEEEcvbEv(ptr noundef nonnull align 16 dereferenceable(20) %this) #8 comdat align 2 {
entry:
  %this.addr = alloca ptr, align 8
  store ptr %this, ptr %this.addr, align 8, !tbaa !142
  %this1 = load ptr, ptr %this.addr, align 8
  %type_ = getelementptr inbounds nuw %"class.fmt::v6::basic_format_arg", ptr %this1, i32 0, i32 1
  %0 = load i32, ptr %type_, align 16, !tbaa !144
  %cmp = icmp ne i32 %0, 0
  ret i1 %cmp
}

; Function Attrs: mustprogress uwtable
define linkonce_odr void @_ZN3fmt2v620basic_format_contextISt20back_insert_iteratorINS0_8internal6bufferIcEEEcE8on_errorEPKc(ptr noundef nonnull align 8 dereferenceable(48) %this, ptr noundef %message) #4 comdat align 2 {
entry:
  %this.addr = alloca ptr, align 8
  %message.addr = alloca ptr, align 8
  %ref.tmp = alloca %"struct.fmt::v6::internal::error_handler", align 1
  %undef.agg.tmp = alloca %"struct.fmt::v6::internal::error_handler", align 1
  store ptr %this, ptr %this.addr, align 8, !tbaa !133
  store ptr %message, ptr %message.addr, align 8, !tbaa !57
  %this1 = load ptr, ptr %this.addr, align 8
  call void @llvm.lifetime.start.p0(i64 1, ptr %ref.tmp) #3
  call void @_ZN3fmt2v620basic_format_contextISt20back_insert_iteratorINS0_8internal6bufferIcEEEcE13error_handlerEv(ptr noundef nonnull align 8 dereferenceable(48) %this1)
  %0 = load ptr, ptr %message.addr, align 8, !tbaa !57
  call void @_ZN3fmt2v68internal13error_handler8on_errorEPKc(ptr noundef nonnull align 1 dereferenceable(1) %ref.tmp, ptr noundef %0) #22
  unreachable
}

; Function Attrs: mustprogress uwtable
define linkonce_odr void @_ZNK3fmt2v617basic_format_argsINS0_20basic_format_contextISt20back_insert_iteratorINS0_8internal6bufferIcEEEcEEE3getEi(ptr dead_on_unwind noalias writable sret(%"class.fmt::v6::basic_format_arg") align 16 %agg.result, ptr noundef nonnull align 8 dereferenceable(16) %this, i32 noundef %index) #4 comdat align 2 {
entry:
  %this.addr = alloca ptr, align 8
  %index.addr = alloca i32, align 4
  %ref.tmp = alloca %"class.fmt::v6::basic_format_arg", align 16
  store ptr %this, ptr %this.addr, align 8, !tbaa !106
  store i32 %index, ptr %index.addr, align 4, !tbaa !26
  %this1 = load ptr, ptr %this.addr, align 8
  %0 = load i32, ptr %index.addr, align 4, !tbaa !26
  call void @_ZNK3fmt2v617basic_format_argsINS0_20basic_format_contextISt20back_insert_iteratorINS0_8internal6bufferIcEEEcEEE6do_getEi(ptr dead_on_unwind writable sret(%"class.fmt::v6::basic_format_arg") align 16 %agg.result, ptr noundef nonnull align 8 dereferenceable(16) %this1, i32 noundef %0)
  %type_ = getelementptr inbounds nuw %"class.fmt::v6::basic_format_arg", ptr %agg.result, i32 0, i32 1
  %1 = load i32, ptr %type_, align 16, !tbaa !144
  %cmp = icmp eq i32 %1, 1
  br i1 %cmp, label %if.then, label %if.end

if.then:                                          ; preds = %entry
  call void @llvm.lifetime.start.p0(i64 32, ptr %ref.tmp) #3
  %value_ = getelementptr inbounds nuw %"class.fmt::v6::basic_format_arg", ptr %agg.result, i32 0, i32 0
  %2 = getelementptr inbounds nuw %"class.fmt::v6::internal::value", ptr %value_, i32 0, i32 0
  %3 = load ptr, ptr %2, align 16, !tbaa !19
  call void @_ZNK3fmt2v68internal14named_arg_baseIcE11deserializeINS0_20basic_format_contextISt20back_insert_iteratorINS1_6bufferIcEEEcEEEENS0_16basic_format_argIT_EEv(ptr dead_on_unwind writable sret(%"class.fmt::v6::basic_format_arg") align 16 %ref.tmp, ptr noundef nonnull align 8 dereferenceable(48) %3)
  call void @llvm.memcpy.p0.p0.i64(ptr align 16 %agg.result, ptr align 16 %ref.tmp, i64 20, i1 false), !tbaa.struct !168
  call void @llvm.lifetime.end.p0(i64 32, ptr %ref.tmp) #3
  br label %if.end

if.end:                                           ; preds = %if.then, %entry
  ret void
}

; Function Attrs: mustprogress uwtable
define linkonce_odr void @_ZNK3fmt2v617basic_format_argsINS0_20basic_format_contextISt20back_insert_iteratorINS0_8internal6bufferIcEEEcEEE6do_getEi(ptr dead_on_unwind noalias writable sret(%"class.fmt::v6::basic_format_arg") align 16 %agg.result, ptr noundef nonnull align 8 dereferenceable(16) %this, i32 noundef %index) #4 comdat align 2 {
entry:
  %this.addr = alloca ptr, align 8
  %index.addr = alloca i32, align 4
  %num_args = alloca i32, align 4
  %val = alloca ptr, align 8
  store ptr %this, ptr %this.addr, align 8, !tbaa !106
  store i32 %index, ptr %index.addr, align 4, !tbaa !26
  %this1 = load ptr, ptr %this.addr, align 8
  call void @_ZN3fmt2v616basic_format_argINS0_20basic_format_contextISt20back_insert_iteratorINS0_8internal6bufferIcEEEcEEEC2Ev(ptr noundef nonnull align 16 dereferenceable(20) %agg.result)
  %call = call noundef zeroext i1 @_ZNK3fmt2v617basic_format_argsINS0_20basic_format_contextISt20back_insert_iteratorINS0_8internal6bufferIcEEEcEEE9is_packedEv(ptr noundef nonnull align 8 dereferenceable(16) %this1)
  br i1 %call, label %if.end4, label %if.then

if.then:                                          ; preds = %entry
  call void @llvm.lifetime.start.p0(i64 4, ptr %num_args) #3
  %call2 = call noundef i32 @_ZNK3fmt2v617basic_format_argsINS0_20basic_format_contextISt20back_insert_iteratorINS0_8internal6bufferIcEEEcEEE8max_sizeEv(ptr noundef nonnull align 8 dereferenceable(16) %this1)
  store i32 %call2, ptr %num_args, align 4, !tbaa !26
  %0 = load i32, ptr %index.addr, align 4, !tbaa !26
  %1 = load i32, ptr %num_args, align 4, !tbaa !26
  %cmp = icmp slt i32 %0, %1
  br i1 %cmp, label %if.then3, label %if.end

if.then3:                                         ; preds = %if.then
  %2 = getelementptr inbounds nuw %"class.fmt::v6::basic_format_args", ptr %this1, i32 0, i32 1
  %3 = load ptr, ptr %2, align 8, !tbaa !19
  %4 = load i32, ptr %index.addr, align 4, !tbaa !26
  %idxprom = sext i32 %4 to i64
  %arrayidx = getelementptr inbounds %"class.fmt::v6::basic_format_arg", ptr %3, i64 %idxprom
  call void @llvm.memcpy.p0.p0.i64(ptr align 16 %agg.result, ptr align 16 %arrayidx, i64 20, i1 false), !tbaa.struct !168
  br label %if.end

if.end:                                           ; preds = %if.then3, %if.then
  call void @llvm.lifetime.end.p0(i64 4, ptr %num_args) #3
  br label %return

if.end4:                                          ; preds = %entry
  %5 = load i32, ptr %index.addr, align 4, !tbaa !26
  %cmp5 = icmp sgt i32 %5, 12
  br i1 %cmp5, label %if.then6, label %if.end7

if.then6:                                         ; preds = %if.end4
  br label %return

if.end7:                                          ; preds = %if.end4
  %6 = load i32, ptr %index.addr, align 4, !tbaa !26
  %call8 = call noundef i32 @_ZNK3fmt2v617basic_format_argsINS0_20basic_format_contextISt20back_insert_iteratorINS0_8internal6bufferIcEEEcEEE4typeEi(ptr noundef nonnull align 8 dereferenceable(16) %this1, i32 noundef %6)
  %type_ = getelementptr inbounds nuw %"class.fmt::v6::basic_format_arg", ptr %agg.result, i32 0, i32 1
  store i32 %call8, ptr %type_, align 16, !tbaa !144
  %type_9 = getelementptr inbounds nuw %"class.fmt::v6::basic_format_arg", ptr %agg.result, i32 0, i32 1
  %7 = load i32, ptr %type_9, align 16, !tbaa !144
  %cmp10 = icmp eq i32 %7, 0
  br i1 %cmp10, label %if.then11, label %if.end12

if.then11:                                        ; preds = %if.end7
  br label %return

if.end12:                                         ; preds = %if.end7
  call void @llvm.lifetime.start.p0(i64 8, ptr %val) #3
  %value_ = getelementptr inbounds nuw %"class.fmt::v6::basic_format_arg", ptr %agg.result, i32 0, i32 0
  store ptr %value_, ptr %val, align 8, !tbaa !154
  %8 = getelementptr inbounds nuw %"class.fmt::v6::basic_format_args", ptr %this1, i32 0, i32 1
  %9 = load ptr, ptr %8, align 8, !tbaa !19
  %10 = load i32, ptr %index.addr, align 4, !tbaa !26
  %idxprom13 = sext i32 %10 to i64
  %arrayidx14 = getelementptr inbounds %"class.fmt::v6::internal::value", ptr %9, i64 %idxprom13
  %11 = load ptr, ptr %val, align 8, !tbaa !154
  call void @llvm.memcpy.p0.p0.i64(ptr align 16 %11, ptr align 16 %arrayidx14, i64 16, i1 false), !tbaa.struct !170
  call void @llvm.lifetime.end.p0(i64 8, ptr %val) #3
  br label %return

return:                                           ; preds = %if.end12, %if.then11, %if.then6, %if.end
  ret void
}

; Function Attrs: mustprogress uwtable
define linkonce_odr void @_ZNK3fmt2v68internal14named_arg_baseIcE11deserializeINS0_20basic_format_contextISt20back_insert_iteratorINS1_6bufferIcEEEcEEEENS0_16basic_format_argIT_EEv(ptr dead_on_unwind noalias writable sret(%"class.fmt::v6::basic_format_arg") align 16 %agg.result, ptr noundef nonnull align 8 dereferenceable(48) %this) #4 comdat align 2 {
entry:
  %this.addr = alloca ptr, align 8
  store ptr %this, ptr %this.addr, align 8, !tbaa !171
  %this1 = load ptr, ptr %this.addr, align 8
  call void @_ZN3fmt2v616basic_format_argINS0_20basic_format_contextISt20back_insert_iteratorINS0_8internal6bufferIcEEEcEEEC2Ev(ptr noundef nonnull align 16 dereferenceable(20) %agg.result)
  %data = getelementptr inbounds nuw %"struct.fmt::v6::internal::named_arg_base", ptr %this1, i32 0, i32 1
  %arraydecay = getelementptr inbounds [32 x i8], ptr %data, i64 0, i64 0
  call void @llvm.memcpy.p0.p0.i64(ptr align 16 %agg.result, ptr align 8 %arraydecay, i64 32, i1 false)
  ret void
}

; Function Attrs: mustprogress nounwind uwtable
define linkonce_odr noundef zeroext i1 @_ZNK3fmt2v617basic_format_argsINS0_20basic_format_contextISt20back_insert_iteratorINS0_8internal6bufferIcEEEcEEE9is_packedEv(ptr noundef nonnull align 8 dereferenceable(16) %this) #8 comdat align 2 {
entry:
  %this.addr = alloca ptr, align 8
  store ptr %this, ptr %this.addr, align 8, !tbaa !106
  %this1 = load ptr, ptr %this.addr, align 8
  %types_ = getelementptr inbounds nuw %"class.fmt::v6::basic_format_args", ptr %this1, i32 0, i32 0
  %0 = load i64, ptr %types_, align 8, !tbaa !110
  %and = and i64 %0, -9223372036854775808
  %cmp = icmp eq i64 %and, 0
  ret i1 %cmp
}

; Function Attrs: mustprogress nounwind uwtable
define linkonce_odr noundef i32 @_ZNK3fmt2v617basic_format_argsINS0_20basic_format_contextISt20back_insert_iteratorINS0_8internal6bufferIcEEEcEEE8max_sizeEv(ptr noundef nonnull align 8 dereferenceable(16) %this) #8 comdat align 2 {
entry:
  %this.addr = alloca ptr, align 8
  %max_packed = alloca i64, align 8
  store ptr %this, ptr %this.addr, align 8, !tbaa !106
  %this1 = load ptr, ptr %this.addr, align 8
  call void @llvm.lifetime.start.p0(i64 8, ptr %max_packed) #3
  store i64 12, ptr %max_packed, align 8, !tbaa !104
  %call = call noundef zeroext i1 @_ZNK3fmt2v617basic_format_argsINS0_20basic_format_contextISt20back_insert_iteratorINS0_8internal6bufferIcEEEcEEE9is_packedEv(ptr noundef nonnull align 8 dereferenceable(16) %this1)
  br i1 %call, label %cond.true, label %cond.false

cond.true:                                        ; preds = %entry
  %0 = load i64, ptr %max_packed, align 8, !tbaa !104
  br label %cond.end

cond.false:                                       ; preds = %entry
  %types_ = getelementptr inbounds nuw %"class.fmt::v6::basic_format_args", ptr %this1, i32 0, i32 0
  %1 = load i64, ptr %types_, align 8, !tbaa !110
  %and = and i64 %1, 9223372036854775807
  br label %cond.end

cond.end:                                         ; preds = %cond.false, %cond.true
  %cond = phi i64 [ %0, %cond.true ], [ %and, %cond.false ]
  %conv = trunc i64 %cond to i32
  call void @llvm.lifetime.end.p0(i64 8, ptr %max_packed) #3
  ret i32 %conv
}

; Function Attrs: mustprogress nounwind uwtable
define linkonce_odr noundef i32 @_ZNK3fmt2v617basic_format_argsINS0_20basic_format_contextISt20back_insert_iteratorINS0_8internal6bufferIcEEEcEEE4typeEi(ptr noundef nonnull align 8 dereferenceable(16) %this, i32 noundef %index) #8 comdat align 2 {
entry:
  %this.addr = alloca ptr, align 8
  %index.addr = alloca i32, align 4
  %shift = alloca i32, align 4
  %mask = alloca i32, align 4
  store ptr %this, ptr %this.addr, align 8, !tbaa !106
  store i32 %index, ptr %index.addr, align 4, !tbaa !26
  %this1 = load ptr, ptr %this.addr, align 8
  call void @llvm.lifetime.start.p0(i64 4, ptr %shift) #3
  %0 = load i32, ptr %index.addr, align 4, !tbaa !26
  %mul = mul nsw i32 %0, 5
  store i32 %mul, ptr %shift, align 4, !tbaa !26
  call void @llvm.lifetime.start.p0(i64 4, ptr %mask) #3
  store i32 31, ptr %mask, align 4, !tbaa !26
  %types_ = getelementptr inbounds nuw %"class.fmt::v6::basic_format_args", ptr %this1, i32 0, i32 0
  %1 = load i64, ptr %types_, align 8, !tbaa !110
  %2 = load i32, ptr %shift, align 4, !tbaa !26
  %sh_prom = zext i32 %2 to i64
  %shr = lshr i64 %1, %sh_prom
  %3 = load i32, ptr %mask, align 4, !tbaa !26
  %conv = zext i32 %3 to i64
  %and = and i64 %shr, %conv
  %conv2 = trunc i64 %and to i32
  call void @llvm.lifetime.end.p0(i64 4, ptr %mask) #3
  call void @llvm.lifetime.end.p0(i64 4, ptr %shift) #3
  ret i32 %conv2
}

; Function Attrs: mustprogress nounwind uwtable
define linkonce_odr void @_ZN3fmt2v620basic_format_contextISt20back_insert_iteratorINS0_8internal6bufferIcEEEcE13error_handlerEv(ptr noundef nonnull align 8 dereferenceable(48) %this) #8 comdat align 2 {
entry:
  %this.addr = alloca ptr, align 8
  store ptr %this, ptr %this.addr, align 8, !tbaa !133
  %this1 = load ptr, ptr %this.addr, align 8
  ret void
}

; Function Attrs: mustprogress uwtable
define linkonce_odr void @_ZN3fmt2v626basic_format_parse_contextIcNS0_8internal13error_handlerEE8on_errorEPKc(ptr noundef nonnull align 8 dereferenceable(20) %this, ptr noundef %message) #4 comdat align 2 {
entry:
  %this.addr = alloca ptr, align 8
  %message.addr = alloca ptr, align 8
  store ptr %this, ptr %this.addr, align 8, !tbaa !135
  store ptr %message, ptr %message.addr, align 8, !tbaa !57
  %this1 = load ptr, ptr %this.addr, align 8
  %0 = load ptr, ptr %message.addr, align 8, !tbaa !57
  call void @_ZN3fmt2v68internal13error_handler8on_errorEPKc(ptr noundef nonnull align 1 dereferenceable(1) %this1, ptr noundef %0) #22
  unreachable
}

; Function Attrs: mustprogress uwtable
define linkonce_odr void @_ZN3fmt2v610advance_toIcNS0_8internal13error_handlerEEEvRNS0_26basic_format_parse_contextIT_T0_EEPKS5_(ptr noundef nonnull align 8 dereferenceable(20) %ctx, ptr noundef %p) #4 comdat {
entry:
  %ctx.addr = alloca ptr, align 8
  %p.addr = alloca ptr, align 8
  store ptr %ctx, ptr %ctx.addr, align 8, !tbaa !135
  store ptr %p, ptr %p.addr, align 8, !tbaa !57
  %0 = load ptr, ptr %ctx.addr, align 8, !tbaa !135
  %1 = load ptr, ptr %ctx.addr, align 8, !tbaa !135
  %call = call noundef ptr @_ZNK3fmt2v626basic_format_parse_contextIcNS0_8internal13error_handlerEE5beginEv(ptr noundef nonnull align 8 dereferenceable(20) %1) #3
  %2 = load ptr, ptr %p.addr, align 8, !tbaa !57
  %3 = load ptr, ptr %ctx.addr, align 8, !tbaa !135
  %call1 = call noundef ptr @_ZNK3fmt2v626basic_format_parse_contextIcNS0_8internal13error_handlerEE5beginEv(ptr noundef nonnull align 8 dereferenceable(20) %3) #3
  %sub.ptr.lhs.cast = ptrtoint ptr %2 to i64
  %sub.ptr.rhs.cast = ptrtoint ptr %call1 to i64
  %sub.ptr.sub = sub i64 %sub.ptr.lhs.cast, %sub.ptr.rhs.cast
  %add.ptr = getelementptr inbounds i8, ptr %call, i64 %sub.ptr.sub
  call void @_ZN3fmt2v626basic_format_parse_contextIcNS0_8internal13error_handlerEE10advance_toEPKc(ptr noundef nonnull align 8 dereferenceable(20) %0, ptr noundef %add.ptr)
  ret void
}

; Function Attrs: mustprogress nounwind uwtable
define linkonce_odr void @_ZN3fmt2v620basic_format_contextISt20back_insert_iteratorINS0_8internal6bufferIcEEEcE10advance_toES6_(ptr noundef nonnull align 8 dereferenceable(48) %this, ptr %it.coerce) #8 comdat align 2 {
entry:
  %it = alloca %"class.std::back_insert_iterator", align 8
  %this.addr = alloca ptr, align 8
  %coerce.dive = getelementptr inbounds nuw %"class.std::back_insert_iterator", ptr %it, i32 0, i32 0
  store ptr %it.coerce, ptr %coerce.dive, align 8
  store ptr %this, ptr %this.addr, align 8, !tbaa !133
  %this1 = load ptr, ptr %this.addr, align 8
  %out_ = getelementptr inbounds nuw %"class.fmt::v6::basic_format_context", ptr %this1, i32 0, i32 0
  call void @llvm.memcpy.p0.p0.i64(ptr align 8 %out_, ptr align 8 %it, i64 8, i1 false)
  ret void
}

; Function Attrs: mustprogress uwtable
define linkonce_odr ptr @_ZN3fmt2v616visit_format_argINS0_13arg_formatterINS0_12buffer_rangeIcEEEENS0_20basic_format_contextISt20back_insert_iteratorINS0_8internal6bufferIcEEEcEEEEDTclfp_Li0EEEOT_RKNS0_16basic_format_argIT0_EE(ptr noundef nonnull align 8 dereferenceable(40) %vis, ptr noundef nonnull align 16 dereferenceable(20) %arg) #4 comdat {
entry:
  %retval = alloca %"class.std::back_insert_iterator", align 8
  %vis.addr = alloca ptr, align 8
  %arg.addr = alloca ptr, align 8
  %coerce = alloca i128, align 16
  %coerce20 = alloca i128, align 16
  %agg.tmp = alloca %"class.fmt::v6::basic_string_view", align 8
  %agg.tmp58 = alloca %"class.fmt::v6::basic_format_arg<fmt::v6::basic_format_context<std::back_insert_iterator<fmt::v6::internal::buffer<char>>, char>>::handle", align 8
  %agg.tmp59 = alloca %"struct.fmt::v6::internal::custom_value", align 8
  %agg.tmp63 = alloca %"struct.fmt::v6::monostate", align 1
  store ptr %vis, ptr %vis.addr, align 8, !tbaa !173
  store ptr %arg, ptr %arg.addr, align 8, !tbaa !142
  %0 = load ptr, ptr %arg.addr, align 8, !tbaa !142
  %type_ = getelementptr inbounds nuw %"class.fmt::v6::basic_format_arg", ptr %0, i32 0, i32 1
  %1 = load i32, ptr %type_, align 16, !tbaa !144
  switch i32 %1, label %sw.epilog [
    i32 0, label %sw.epilog
    i32 1, label %sw.bb
    i32 2, label %sw.bb1
    i32 3, label %sw.bb2
    i32 4, label %sw.bb6
    i32 5, label %sw.bb10
    i32 6, label %sw.bb14
    i32 7, label %sw.bb18
    i32 8, label %sw.bb23
    i32 9, label %sw.bb27
    i32 10, label %sw.bb31
    i32 11, label %sw.bb35
    i32 12, label %sw.bb39
    i32 13, label %sw.bb43
    i32 14, label %sw.bb47
    i32 15, label %sw.bb53
    i32 16, label %sw.bb57
  ]

sw.bb:                                            ; preds = %entry
  call void @_ZN3fmt2v68internal11assert_failEPKciS3_(ptr noundef @.str.19, i32 noundef 1041, ptr noundef @.str.24)
  br label %sw.epilog

sw.bb1:                                           ; preds = %entry
  %2 = load ptr, ptr %vis.addr, align 8, !tbaa !173
  %3 = load ptr, ptr %arg.addr, align 8, !tbaa !142
  %value_ = getelementptr inbounds nuw %"class.fmt::v6::basic_format_arg", ptr %3, i32 0, i32 0
  %4 = getelementptr inbounds nuw %"class.fmt::v6::internal::value", ptr %value_, i32 0, i32 0
  %5 = load i32, ptr %4, align 16, !tbaa !19
  %call = call ptr @_ZN3fmt2v68internal18arg_formatter_baseINS0_12buffer_rangeIcEENS1_13error_handlerEEclIiTnNSt9enable_ifIXsr11is_integralIT_EE5valueEiE4typeELi0EEESt20back_insert_iteratorINS1_6bufferIcEEES9_(ptr noundef nonnull align 8 dereferenceable(24) %2, i32 noundef %5)
  %coerce.dive = getelementptr inbounds nuw %"class.std::back_insert_iterator", ptr %retval, i32 0, i32 0
  store ptr %call, ptr %coerce.dive, align 8
  br label %return

sw.bb2:                                           ; preds = %entry
  %6 = load ptr, ptr %vis.addr, align 8, !tbaa !173
  %7 = load ptr, ptr %arg.addr, align 8, !tbaa !142
  %value_3 = getelementptr inbounds nuw %"class.fmt::v6::basic_format_arg", ptr %7, i32 0, i32 0
  %8 = getelementptr inbounds nuw %"class.fmt::v6::internal::value", ptr %value_3, i32 0, i32 0
  %9 = load i32, ptr %8, align 16, !tbaa !19
  %call4 = call ptr @_ZN3fmt2v68internal18arg_formatter_baseINS0_12buffer_rangeIcEENS1_13error_handlerEEclIjTnNSt9enable_ifIXsr11is_integralIT_EE5valueEiE4typeELi0EEESt20back_insert_iteratorINS1_6bufferIcEEES9_(ptr noundef nonnull align 8 dereferenceable(24) %6, i32 noundef %9)
  %coerce.dive5 = getelementptr inbounds nuw %"class.std::back_insert_iterator", ptr %retval, i32 0, i32 0
  store ptr %call4, ptr %coerce.dive5, align 8
  br label %return

sw.bb6:                                           ; preds = %entry
  %10 = load ptr, ptr %vis.addr, align 8, !tbaa !173
  %11 = load ptr, ptr %arg.addr, align 8, !tbaa !142
  %value_7 = getelementptr inbounds nuw %"class.fmt::v6::basic_format_arg", ptr %11, i32 0, i32 0
  %12 = getelementptr inbounds nuw %"class.fmt::v6::internal::value", ptr %value_7, i32 0, i32 0
  %13 = load i64, ptr %12, align 16, !tbaa !19
  %call8 = call ptr @_ZN3fmt2v68internal18arg_formatter_baseINS0_12buffer_rangeIcEENS1_13error_handlerEEclIxTnNSt9enable_ifIXsr11is_integralIT_EE5valueEiE4typeELi0EEESt20back_insert_iteratorINS1_6bufferIcEEES9_(ptr noundef nonnull align 8 dereferenceable(24) %10, i64 noundef %13)
  %coerce.dive9 = getelementptr inbounds nuw %"class.std::back_insert_iterator", ptr %retval, i32 0, i32 0
  store ptr %call8, ptr %coerce.dive9, align 8
  br label %return

sw.bb10:                                          ; preds = %entry
  %14 = load ptr, ptr %vis.addr, align 8, !tbaa !173
  %15 = load ptr, ptr %arg.addr, align 8, !tbaa !142
  %value_11 = getelementptr inbounds nuw %"class.fmt::v6::basic_format_arg", ptr %15, i32 0, i32 0
  %16 = getelementptr inbounds nuw %"class.fmt::v6::internal::value", ptr %value_11, i32 0, i32 0
  %17 = load i64, ptr %16, align 16, !tbaa !19
  %call12 = call ptr @_ZN3fmt2v68internal18arg_formatter_baseINS0_12buffer_rangeIcEENS1_13error_handlerEEclIyTnNSt9enable_ifIXsr11is_integralIT_EE5valueEiE4typeELi0EEESt20back_insert_iteratorINS1_6bufferIcEEES9_(ptr noundef nonnull align 8 dereferenceable(24) %14, i64 noundef %17)
  %coerce.dive13 = getelementptr inbounds nuw %"class.std::back_insert_iterator", ptr %retval, i32 0, i32 0
  store ptr %call12, ptr %coerce.dive13, align 8
  br label %return

sw.bb14:                                          ; preds = %entry
  %18 = load ptr, ptr %vis.addr, align 8, !tbaa !173
  %19 = load ptr, ptr %arg.addr, align 8, !tbaa !142
  %value_15 = getelementptr inbounds nuw %"class.fmt::v6::basic_format_arg", ptr %19, i32 0, i32 0
  %20 = getelementptr inbounds nuw %"class.fmt::v6::internal::value", ptr %value_15, i32 0, i32 0
  %21 = load i128, ptr %20, align 16, !tbaa !19
  store i128 %21, ptr %coerce, align 16, !tbaa !175
  %22 = getelementptr inbounds nuw { i64, i64 }, ptr %coerce, i32 0, i32 0
  %23 = load i64, ptr %22, align 16
  %24 = getelementptr inbounds nuw { i64, i64 }, ptr %coerce, i32 0, i32 1
  %25 = load i64, ptr %24, align 8
  %call16 = call ptr @_ZN3fmt2v68internal18arg_formatter_baseINS0_12buffer_rangeIcEENS1_13error_handlerEEclInTnNSt9enable_ifIXsr11is_integralIT_EE5valueEiE4typeELi0EEESt20back_insert_iteratorINS1_6bufferIcEEES9_(ptr noundef nonnull align 8 dereferenceable(24) %18, i64 noundef %23, i64 noundef %25)
  %coerce.dive17 = getelementptr inbounds nuw %"class.std::back_insert_iterator", ptr %retval, i32 0, i32 0
  store ptr %call16, ptr %coerce.dive17, align 8
  br label %return

sw.bb18:                                          ; preds = %entry
  %26 = load ptr, ptr %vis.addr, align 8, !tbaa !173
  %27 = load ptr, ptr %arg.addr, align 8, !tbaa !142
  %value_19 = getelementptr inbounds nuw %"class.fmt::v6::basic_format_arg", ptr %27, i32 0, i32 0
  %28 = getelementptr inbounds nuw %"class.fmt::v6::internal::value", ptr %value_19, i32 0, i32 0
  %29 = load i128, ptr %28, align 16, !tbaa !19
  store i128 %29, ptr %coerce20, align 16, !tbaa !175
  %30 = getelementptr inbounds nuw { i64, i64 }, ptr %coerce20, i32 0, i32 0
  %31 = load i64, ptr %30, align 16
  %32 = getelementptr inbounds nuw { i64, i64 }, ptr %coerce20, i32 0, i32 1
  %33 = load i64, ptr %32, align 8
  %call21 = call ptr @_ZN3fmt2v68internal18arg_formatter_baseINS0_12buffer_rangeIcEENS1_13error_handlerEEclIoTnNSt9enable_ifIXsr11is_integralIT_EE5valueEiE4typeELi0EEESt20back_insert_iteratorINS1_6bufferIcEEES9_(ptr noundef nonnull align 8 dereferenceable(24) %26, i64 noundef %31, i64 noundef %33)
  %coerce.dive22 = getelementptr inbounds nuw %"class.std::back_insert_iterator", ptr %retval, i32 0, i32 0
  store ptr %call21, ptr %coerce.dive22, align 8
  br label %return

sw.bb23:                                          ; preds = %entry
  %34 = load ptr, ptr %vis.addr, align 8, !tbaa !173
  %35 = load ptr, ptr %arg.addr, align 8, !tbaa !142
  %value_24 = getelementptr inbounds nuw %"class.fmt::v6::basic_format_arg", ptr %35, i32 0, i32 0
  %36 = getelementptr inbounds nuw %"class.fmt::v6::internal::value", ptr %value_24, i32 0, i32 0
  %37 = load i8, ptr %36, align 16, !tbaa !19, !range !177, !noundef !178
  %loadedv = trunc i8 %37 to i1
  %call25 = call ptr @_ZN3fmt2v68internal18arg_formatter_baseINS0_12buffer_rangeIcEENS1_13error_handlerEEclEb(ptr noundef nonnull align 8 dereferenceable(24) %34, i1 noundef zeroext %loadedv)
  %coerce.dive26 = getelementptr inbounds nuw %"class.std::back_insert_iterator", ptr %retval, i32 0, i32 0
  store ptr %call25, ptr %coerce.dive26, align 8
  br label %return

sw.bb27:                                          ; preds = %entry
  %38 = load ptr, ptr %vis.addr, align 8, !tbaa !173
  %39 = load ptr, ptr %arg.addr, align 8, !tbaa !142
  %value_28 = getelementptr inbounds nuw %"class.fmt::v6::basic_format_arg", ptr %39, i32 0, i32 0
  %40 = getelementptr inbounds nuw %"class.fmt::v6::internal::value", ptr %value_28, i32 0, i32 0
  %41 = load i8, ptr %40, align 16, !tbaa !19
  %call29 = call ptr @_ZN3fmt2v68internal18arg_formatter_baseINS0_12buffer_rangeIcEENS1_13error_handlerEEclEc(ptr noundef nonnull align 8 dereferenceable(24) %38, i8 noundef signext %41)
  %coerce.dive30 = getelementptr inbounds nuw %"class.std::back_insert_iterator", ptr %retval, i32 0, i32 0
  store ptr %call29, ptr %coerce.dive30, align 8
  br label %return

sw.bb31:                                          ; preds = %entry
  %42 = load ptr, ptr %vis.addr, align 8, !tbaa !173
  %43 = load ptr, ptr %arg.addr, align 8, !tbaa !142
  %value_32 = getelementptr inbounds nuw %"class.fmt::v6::basic_format_arg", ptr %43, i32 0, i32 0
  %44 = getelementptr inbounds nuw %"class.fmt::v6::internal::value", ptr %value_32, i32 0, i32 0
  %45 = load float, ptr %44, align 16, !tbaa !19
  %call33 = call ptr @_ZN3fmt2v68internal18arg_formatter_baseINS0_12buffer_rangeIcEENS1_13error_handlerEEclIfTnNSt9enable_ifIXsr3std17is_floating_pointIT_EE5valueEiE4typeELi0EEESt20back_insert_iteratorINS1_6bufferIcEEES9_(ptr noundef nonnull align 8 dereferenceable(24) %42, float noundef %45)
  %coerce.dive34 = getelementptr inbounds nuw %"class.std::back_insert_iterator", ptr %retval, i32 0, i32 0
  store ptr %call33, ptr %coerce.dive34, align 8
  br label %return

sw.bb35:                                          ; preds = %entry
  %46 = load ptr, ptr %vis.addr, align 8, !tbaa !173
  %47 = load ptr, ptr %arg.addr, align 8, !tbaa !142
  %value_36 = getelementptr inbounds nuw %"class.fmt::v6::basic_format_arg", ptr %47, i32 0, i32 0
  %48 = getelementptr inbounds nuw %"class.fmt::v6::internal::value", ptr %value_36, i32 0, i32 0
  %49 = load double, ptr %48, align 16, !tbaa !19
  %call37 = call ptr @_ZN3fmt2v68internal18arg_formatter_baseINS0_12buffer_rangeIcEENS1_13error_handlerEEclIdTnNSt9enable_ifIXsr3std17is_floating_pointIT_EE5valueEiE4typeELi0EEESt20back_insert_iteratorINS1_6bufferIcEEES9_(ptr noundef nonnull align 8 dereferenceable(24) %46, double noundef %49)
  %coerce.dive38 = getelementptr inbounds nuw %"class.std::back_insert_iterator", ptr %retval, i32 0, i32 0
  store ptr %call37, ptr %coerce.dive38, align 8
  br label %return

sw.bb39:                                          ; preds = %entry
  %50 = load ptr, ptr %vis.addr, align 8, !tbaa !173
  %51 = load ptr, ptr %arg.addr, align 8, !tbaa !142
  %value_40 = getelementptr inbounds nuw %"class.fmt::v6::basic_format_arg", ptr %51, i32 0, i32 0
  %52 = getelementptr inbounds nuw %"class.fmt::v6::internal::value", ptr %value_40, i32 0, i32 0
  %53 = load x86_fp80, ptr %52, align 16, !tbaa !19
  %call41 = call ptr @_ZN3fmt2v68internal18arg_formatter_baseINS0_12buffer_rangeIcEENS1_13error_handlerEEclIeTnNSt9enable_ifIXsr3std17is_floating_pointIT_EE5valueEiE4typeELi0EEESt20back_insert_iteratorINS1_6bufferIcEEES9_(ptr noundef nonnull align 8 dereferenceable(24) %50, x86_fp80 noundef %53)
  %coerce.dive42 = getelementptr inbounds nuw %"class.std::back_insert_iterator", ptr %retval, i32 0, i32 0
  store ptr %call41, ptr %coerce.dive42, align 8
  br label %return

sw.bb43:                                          ; preds = %entry
  %54 = load ptr, ptr %vis.addr, align 8, !tbaa !173
  %55 = load ptr, ptr %arg.addr, align 8, !tbaa !142
  %value_44 = getelementptr inbounds nuw %"class.fmt::v6::basic_format_arg", ptr %55, i32 0, i32 0
  %56 = getelementptr inbounds nuw %"class.fmt::v6::internal::value", ptr %value_44, i32 0, i32 0
  %data = getelementptr inbounds nuw %"struct.fmt::v6::internal::string_value", ptr %56, i32 0, i32 0
  %57 = load ptr, ptr %data, align 16, !tbaa !19
  %call45 = call ptr @_ZN3fmt2v68internal18arg_formatter_baseINS0_12buffer_rangeIcEENS1_13error_handlerEEclEPKc(ptr noundef nonnull align 8 dereferenceable(24) %54, ptr noundef %57)
  %coerce.dive46 = getelementptr inbounds nuw %"class.std::back_insert_iterator", ptr %retval, i32 0, i32 0
  store ptr %call45, ptr %coerce.dive46, align 8
  br label %return

sw.bb47:                                          ; preds = %entry
  %58 = load ptr, ptr %vis.addr, align 8, !tbaa !173
  %59 = load ptr, ptr %arg.addr, align 8, !tbaa !142
  %value_48 = getelementptr inbounds nuw %"class.fmt::v6::basic_format_arg", ptr %59, i32 0, i32 0
  %60 = getelementptr inbounds nuw %"class.fmt::v6::internal::value", ptr %value_48, i32 0, i32 0
  %data49 = getelementptr inbounds nuw %"struct.fmt::v6::internal::string_value", ptr %60, i32 0, i32 0
  %61 = load ptr, ptr %data49, align 16, !tbaa !19
  %62 = load ptr, ptr %arg.addr, align 8, !tbaa !142
  %value_50 = getelementptr inbounds nuw %"class.fmt::v6::basic_format_arg", ptr %62, i32 0, i32 0
  %63 = getelementptr inbounds nuw %"class.fmt::v6::internal::value", ptr %value_50, i32 0, i32 0
  %size = getelementptr inbounds nuw %"struct.fmt::v6::internal::string_value", ptr %63, i32 0, i32 1
  %64 = load i64, ptr %size, align 8, !tbaa !19
  call void @_ZN3fmt2v617basic_string_viewIcEC2EPKcm(ptr noundef nonnull align 8 dereferenceable(16) %agg.tmp, ptr noundef %61, i64 noundef %64) #3
  %65 = getelementptr inbounds nuw { ptr, i64 }, ptr %agg.tmp, i32 0, i32 0
  %66 = load ptr, ptr %65, align 8
  %67 = getelementptr inbounds nuw { ptr, i64 }, ptr %agg.tmp, i32 0, i32 1
  %68 = load i64, ptr %67, align 8
  %call51 = call ptr @_ZN3fmt2v68internal18arg_formatter_baseINS0_12buffer_rangeIcEENS1_13error_handlerEEclENS0_17basic_string_viewIcEE(ptr noundef nonnull align 8 dereferenceable(24) %58, ptr %66, i64 %68)
  %coerce.dive52 = getelementptr inbounds nuw %"class.std::back_insert_iterator", ptr %retval, i32 0, i32 0
  store ptr %call51, ptr %coerce.dive52, align 8
  br label %return

sw.bb53:                                          ; preds = %entry
  %69 = load ptr, ptr %vis.addr, align 8, !tbaa !173
  %70 = load ptr, ptr %arg.addr, align 8, !tbaa !142
  %value_54 = getelementptr inbounds nuw %"class.fmt::v6::basic_format_arg", ptr %70, i32 0, i32 0
  %71 = getelementptr inbounds nuw %"class.fmt::v6::internal::value", ptr %value_54, i32 0, i32 0
  %72 = load ptr, ptr %71, align 16, !tbaa !19
  %call55 = call ptr @_ZN3fmt2v68internal18arg_formatter_baseINS0_12buffer_rangeIcEENS1_13error_handlerEEclEPKv(ptr noundef nonnull align 8 dereferenceable(24) %69, ptr noundef %72)
  %coerce.dive56 = getelementptr inbounds nuw %"class.std::back_insert_iterator", ptr %retval, i32 0, i32 0
  store ptr %call55, ptr %coerce.dive56, align 8
  br label %return

sw.bb57:                                          ; preds = %entry
  %73 = load ptr, ptr %vis.addr, align 8, !tbaa !173
  %74 = load ptr, ptr %arg.addr, align 8, !tbaa !142
  %value_60 = getelementptr inbounds nuw %"class.fmt::v6::basic_format_arg", ptr %74, i32 0, i32 0
  %75 = getelementptr inbounds nuw %"class.fmt::v6::internal::value", ptr %value_60, i32 0, i32 0
  call void @llvm.memcpy.p0.p0.i64(ptr align 8 %agg.tmp59, ptr align 16 %75, i64 16, i1 false), !tbaa.struct !179
  %76 = getelementptr inbounds nuw { ptr, ptr }, ptr %agg.tmp59, i32 0, i32 0
  %77 = load ptr, ptr %76, align 8
  %78 = getelementptr inbounds nuw { ptr, ptr }, ptr %agg.tmp59, i32 0, i32 1
  %79 = load ptr, ptr %78, align 8
  call void @_ZN3fmt2v616basic_format_argINS0_20basic_format_contextISt20back_insert_iteratorINS0_8internal6bufferIcEEEcEEE6handleC2ENS4_12custom_valueIS8_EE(ptr noundef nonnull align 8 dereferenceable(16) %agg.tmp58, ptr %77, ptr %79)
  %80 = getelementptr inbounds nuw { ptr, ptr }, ptr %agg.tmp58, i32 0, i32 0
  %81 = load ptr, ptr %80, align 8
  %82 = getelementptr inbounds nuw { ptr, ptr }, ptr %agg.tmp58, i32 0, i32 1
  %83 = load ptr, ptr %82, align 8
  %call61 = call ptr @_ZN3fmt2v613arg_formatterINS0_12buffer_rangeIcEEEclENS0_16basic_format_argINS0_20basic_format_contextISt20back_insert_iteratorINS0_8internal6bufferIcEEEcEEE6handleE(ptr noundef nonnull align 8 dereferenceable(40) %73, ptr %81, ptr %83)
  %coerce.dive62 = getelementptr inbounds nuw %"class.std::back_insert_iterator", ptr %retval, i32 0, i32 0
  store ptr %call61, ptr %coerce.dive62, align 8
  br label %return

sw.epilog:                                        ; preds = %entry, %entry, %sw.bb
  %84 = load ptr, ptr %vis.addr, align 8, !tbaa !173
  %call64 = call ptr @_ZN3fmt2v68internal18arg_formatter_baseINS0_12buffer_rangeIcEENS1_13error_handlerEEclENS0_9monostateE(ptr noundef nonnull align 8 dereferenceable(24) %84)
  %coerce.dive65 = getelementptr inbounds nuw %"class.std::back_insert_iterator", ptr %retval, i32 0, i32 0
  store ptr %call64, ptr %coerce.dive65, align 8
  br label %return

return:                                           ; preds = %sw.epilog, %sw.bb57, %sw.bb53, %sw.bb47, %sw.bb43, %sw.bb39, %sw.bb35, %sw.bb31, %sw.bb27, %sw.bb23, %sw.bb18, %sw.bb14, %sw.bb10, %sw.bb6, %sw.bb2, %sw.bb1
  %coerce.dive66 = getelementptr inbounds nuw %"class.std::back_insert_iterator", ptr %retval, i32 0, i32 0
  %85 = load ptr, ptr %coerce.dive66, align 8
  ret ptr %85
}

; Function Attrs: mustprogress uwtable
define linkonce_odr void @_ZN3fmt2v613arg_formatterINS0_12buffer_rangeIcEEEC2ERNS0_20basic_format_contextISt20back_insert_iteratorINS0_8internal6bufferIcEEEcEEPNS0_26basic_format_parse_contextIcNS7_13error_handlerEEEPNS0_18basic_format_specsIcEE(ptr noundef nonnull align 8 dereferenceable(40) %this, ptr noundef nonnull align 8 dereferenceable(48) %ctx, ptr noundef %parse_ctx, ptr noundef %specs) unnamed_addr #4 comdat align 2 {
entry:
  %this.addr = alloca ptr, align 8
  %ctx.addr = alloca ptr, align 8
  %parse_ctx.addr = alloca ptr, align 8
  %specs.addr = alloca ptr, align 8
  %agg.tmp = alloca %"class.fmt::v6::buffer_range", align 8
  %agg.tmp2 = alloca %"class.std::back_insert_iterator", align 8
  %agg.tmp4 = alloca %"class.fmt::v6::internal::locale_ref", align 8
  store ptr %this, ptr %this.addr, align 8, !tbaa !173
  store ptr %ctx, ptr %ctx.addr, align 8, !tbaa !133
  store ptr %parse_ctx, ptr %parse_ctx.addr, align 8, !tbaa !135
  store ptr %specs, ptr %specs.addr, align 8, !tbaa !180
  %this1 = load ptr, ptr %this.addr, align 8
  %0 = load ptr, ptr %ctx.addr, align 8, !tbaa !133
  %call = call ptr @_ZN3fmt2v620basic_format_contextISt20back_insert_iteratorINS0_8internal6bufferIcEEEcE3outEv(ptr noundef nonnull align 8 dereferenceable(48) %0)
  %coerce.dive = getelementptr inbounds nuw %"class.std::back_insert_iterator", ptr %agg.tmp2, i32 0, i32 0
  store ptr %call, ptr %coerce.dive, align 8
  %coerce.dive3 = getelementptr inbounds nuw %"class.std::back_insert_iterator", ptr %agg.tmp2, i32 0, i32 0
  %1 = load ptr, ptr %coerce.dive3, align 8
  call void @_ZN3fmt2v612buffer_rangeIcECI2NS0_8internal12output_rangeISt20back_insert_iteratorINS3_6bufferIcEEEcEEES8_(ptr noundef nonnull align 8 dereferenceable(8) %agg.tmp, ptr %1)
  %2 = load ptr, ptr %specs.addr, align 8, !tbaa !180
  %3 = load ptr, ptr %ctx.addr, align 8, !tbaa !133
  %call5 = call ptr @_ZN3fmt2v620basic_format_contextISt20back_insert_iteratorINS0_8internal6bufferIcEEEcE6localeEv(ptr noundef nonnull align 8 dereferenceable(48) %3)
  %coerce.dive6 = getelementptr inbounds nuw %"class.fmt::v6::internal::locale_ref", ptr %agg.tmp4, i32 0, i32 0
  store ptr %call5, ptr %coerce.dive6, align 8
  %coerce.dive7 = getelementptr inbounds nuw %"class.fmt::v6::buffer_range", ptr %agg.tmp, i32 0, i32 0
  %coerce.dive8 = getelementptr inbounds nuw %"class.fmt::v6::internal::output_range", ptr %coerce.dive7, i32 0, i32 0
  %coerce.dive9 = getelementptr inbounds nuw %"class.std::back_insert_iterator", ptr %coerce.dive8, i32 0, i32 0
  %4 = load ptr, ptr %coerce.dive9, align 8
  %coerce.dive10 = getelementptr inbounds nuw %"class.fmt::v6::internal::locale_ref", ptr %agg.tmp4, i32 0, i32 0
  %5 = load ptr, ptr %coerce.dive10, align 8
  call void @_ZN3fmt2v68internal18arg_formatter_baseINS0_12buffer_rangeIcEENS1_13error_handlerEEC2ES4_PNS0_18basic_format_specsIcEENS1_10locale_refE(ptr noundef nonnull align 8 dereferenceable(24) %this1, ptr %4, ptr noundef %2, ptr %5)
  %ctx_ = getelementptr inbounds nuw %"class.fmt::v6::arg_formatter", ptr %this1, i32 0, i32 1
  %6 = load ptr, ptr %ctx.addr, align 8, !tbaa !133
  store ptr %6, ptr %ctx_, align 8, !tbaa !133
  %parse_ctx_ = getelementptr inbounds nuw %"class.fmt::v6::arg_formatter", ptr %this1, i32 0, i32 2
  %7 = load ptr, ptr %parse_ctx.addr, align 8, !tbaa !135
  store ptr %7, ptr %parse_ctx_, align 8, !tbaa !182
  ret void
}

; Function Attrs: mustprogress uwtable
define linkonce_odr void @_ZN3fmt2v626basic_format_parse_contextIcNS0_8internal13error_handlerEE10advance_toEPKc(ptr noundef nonnull align 8 dereferenceable(20) %this, ptr noundef %it) #4 comdat align 2 {
entry:
  %this.addr = alloca ptr, align 8
  %it.addr = alloca ptr, align 8
  store ptr %this, ptr %this.addr, align 8, !tbaa !135
  store ptr %it, ptr %it.addr, align 8, !tbaa !57
  %this1 = load ptr, ptr %this.addr, align 8
  %format_str_ = getelementptr inbounds nuw %"class.fmt::v6::basic_format_parse_context", ptr %this1, i32 0, i32 0
  %0 = load ptr, ptr %it.addr, align 8, !tbaa !57
  %call = call noundef ptr @_ZNK3fmt2v626basic_format_parse_contextIcNS0_8internal13error_handlerEE5beginEv(ptr noundef nonnull align 8 dereferenceable(20) %this1) #3
  %sub.ptr.lhs.cast = ptrtoint ptr %0 to i64
  %sub.ptr.rhs.cast = ptrtoint ptr %call to i64
  %sub.ptr.sub = sub i64 %sub.ptr.lhs.cast, %sub.ptr.rhs.cast
  %call2 = call noundef i64 @_ZN3fmt2v68internal11to_unsignedIlEENSt13make_unsignedIT_E4typeES4_(i64 noundef %sub.ptr.sub)
  call void @_ZN3fmt2v617basic_string_viewIcE13remove_prefixEm(ptr noundef nonnull align 8 dereferenceable(16) %format_str_, i64 noundef %call2)
  ret void
}

; Function Attrs: mustprogress nounwind uwtable
define linkonce_odr noundef ptr @_ZNK3fmt2v626basic_format_parse_contextIcNS0_8internal13error_handlerEE5beginEv(ptr noundef nonnull align 8 dereferenceable(20) %this) #8 comdat align 2 personality ptr @__gxx_personality_v0 {
entry:
  %this.addr = alloca ptr, align 8
  store ptr %this, ptr %this.addr, align 8, !tbaa !135
  %this1 = load ptr, ptr %this.addr, align 8
  %format_str_ = getelementptr inbounds nuw %"class.fmt::v6::basic_format_parse_context", ptr %this1, i32 0, i32 0
  %call = invoke noundef ptr @_ZNK3fmt2v617basic_string_viewIcE5beginEv(ptr noundef nonnull align 8 dereferenceable(16) %format_str_)
          to label %invoke.cont unwind label %terminate.lpad

invoke.cont:                                      ; preds = %entry
  ret ptr %call

terminate.lpad:                                   ; preds = %entry
  %0 = landingpad { ptr, i32 }
          catch ptr null
  %1 = extractvalue { ptr, i32 } %0, 0
  call void @__clang_call_terminate(ptr %1) #23
  unreachable
}

; Function Attrs: mustprogress nounwind uwtable
define linkonce_odr void @_ZN3fmt2v617basic_string_viewIcE13remove_prefixEm(ptr noundef nonnull align 8 dereferenceable(16) %this, i64 noundef %n) #8 comdat align 2 {
entry:
  %this.addr = alloca ptr, align 8
  %n.addr = alloca i64, align 8
  store ptr %this, ptr %this.addr, align 8, !tbaa !156
  store i64 %n, ptr %n.addr, align 8, !tbaa !28
  %this1 = load ptr, ptr %this.addr, align 8
  %0 = load i64, ptr %n.addr, align 8, !tbaa !28
  %data_ = getelementptr inbounds nuw %"class.fmt::v6::basic_string_view", ptr %this1, i32 0, i32 0
  %1 = load ptr, ptr %data_, align 8, !tbaa !158
  %add.ptr = getelementptr inbounds nuw i8, ptr %1, i64 %0
  store ptr %add.ptr, ptr %data_, align 8, !tbaa !158
  %2 = load i64, ptr %n.addr, align 8, !tbaa !28
  %size_ = getelementptr inbounds nuw %"class.fmt::v6::basic_string_view", ptr %this1, i32 0, i32 1
  %3 = load i64, ptr %size_, align 8, !tbaa !159
  %sub = sub i64 %3, %2
  store i64 %sub, ptr %size_, align 8, !tbaa !159
  ret void
}

; Function Attrs: mustprogress nounwind uwtable
define linkonce_odr noundef ptr @_ZNK3fmt2v617basic_string_viewIcE5beginEv(ptr noundef nonnull align 8 dereferenceable(16) %this) #8 comdat align 2 {
entry:
  %this.addr = alloca ptr, align 8
  store ptr %this, ptr %this.addr, align 8, !tbaa !156
  %this1 = load ptr, ptr %this.addr, align 8
  %data_ = getelementptr inbounds nuw %"class.fmt::v6::basic_string_view", ptr %this1, i32 0, i32 0
  %0 = load ptr, ptr %data_, align 8, !tbaa !158
  ret ptr %0
}

; Function Attrs: mustprogress uwtable
define linkonce_odr ptr @_ZN3fmt2v68internal18arg_formatter_baseINS0_12buffer_rangeIcEENS1_13error_handlerEEclIiTnNSt9enable_ifIXsr11is_integralIT_EE5valueEiE4typeELi0EEESt20back_insert_iteratorINS1_6bufferIcEEES9_(ptr noundef nonnull align 8 dereferenceable(24) %this, i32 noundef %value) #4 comdat align 2 {
entry:
  %retval = alloca %"class.std::back_insert_iterator", align 8
  %this.addr = alloca ptr, align 8
  %value.addr = alloca i32, align 4
  store ptr %this, ptr %this.addr, align 8, !tbaa !187
  store i32 %value, ptr %value.addr, align 4, !tbaa !26
  %this1 = load ptr, ptr %this.addr, align 8
  %specs_ = getelementptr inbounds nuw %"class.fmt::v6::internal::arg_formatter_base", ptr %this1, i32 0, i32 1
  %0 = load ptr, ptr %specs_, align 8, !tbaa !189
  %tobool = icmp ne ptr %0, null
  br i1 %tobool, label %if.then, label %if.else

if.then:                                          ; preds = %entry
  %writer_ = getelementptr inbounds nuw %"class.fmt::v6::internal::arg_formatter_base", ptr %this1, i32 0, i32 0
  %1 = load i32, ptr %value.addr, align 4, !tbaa !26
  %specs_2 = getelementptr inbounds nuw %"class.fmt::v6::internal::arg_formatter_base", ptr %this1, i32 0, i32 1
  %2 = load ptr, ptr %specs_2, align 8, !tbaa !189
  call void @_ZN3fmt2v68internal12basic_writerINS0_12buffer_rangeIcEEE9write_intIiNS0_18basic_format_specsIcEEEEvT_RKT0_(ptr noundef nonnull align 8 dereferenceable(16) %writer_, i32 noundef %1, ptr noundef nonnull align 4 dereferenceable(16) %2)
  br label %if.end

if.else:                                          ; preds = %entry
  %writer_3 = getelementptr inbounds nuw %"class.fmt::v6::internal::arg_formatter_base", ptr %this1, i32 0, i32 0
  %3 = load i32, ptr %value.addr, align 4, !tbaa !26
  call void @_ZN3fmt2v68internal12basic_writerINS0_12buffer_rangeIcEEE5writeEi(ptr noundef nonnull align 8 dereferenceable(16) %writer_3, i32 noundef %3)
  br label %if.end

if.end:                                           ; preds = %if.else, %if.then
  %call = call ptr @_ZN3fmt2v68internal18arg_formatter_baseINS0_12buffer_rangeIcEENS1_13error_handlerEE3outEv(ptr noundef nonnull align 8 dereferenceable(24) %this1)
  %coerce.dive = getelementptr inbounds nuw %"class.std::back_insert_iterator", ptr %retval, i32 0, i32 0
  store ptr %call, ptr %coerce.dive, align 8
  %coerce.dive4 = getelementptr inbounds nuw %"class.std::back_insert_iterator", ptr %retval, i32 0, i32 0
  %4 = load ptr, ptr %coerce.dive4, align 8
  ret ptr %4
}

; Function Attrs: mustprogress uwtable
define linkonce_odr ptr @_ZN3fmt2v68internal18arg_formatter_baseINS0_12buffer_rangeIcEENS1_13error_handlerEEclIjTnNSt9enable_ifIXsr11is_integralIT_EE5valueEiE4typeELi0EEESt20back_insert_iteratorINS1_6bufferIcEEES9_(ptr noundef nonnull align 8 dereferenceable(24) %this, i32 noundef %value) #4 comdat align 2 {
entry:
  %retval = alloca %"class.std::back_insert_iterator", align 8
  %this.addr = alloca ptr, align 8
  %value.addr = alloca i32, align 4
  store ptr %this, ptr %this.addr, align 8, !tbaa !187
  store i32 %value, ptr %value.addr, align 4, !tbaa !26
  %this1 = load ptr, ptr %this.addr, align 8
  %specs_ = getelementptr inbounds nuw %"class.fmt::v6::internal::arg_formatter_base", ptr %this1, i32 0, i32 1
  %0 = load ptr, ptr %specs_, align 8, !tbaa !189
  %tobool = icmp ne ptr %0, null
  br i1 %tobool, label %if.then, label %if.else

if.then:                                          ; preds = %entry
  %writer_ = getelementptr inbounds nuw %"class.fmt::v6::internal::arg_formatter_base", ptr %this1, i32 0, i32 0
  %1 = load i32, ptr %value.addr, align 4, !tbaa !26
  %specs_2 = getelementptr inbounds nuw %"class.fmt::v6::internal::arg_formatter_base", ptr %this1, i32 0, i32 1
  %2 = load ptr, ptr %specs_2, align 8, !tbaa !189
  call void @_ZN3fmt2v68internal12basic_writerINS0_12buffer_rangeIcEEE9write_intIjNS0_18basic_format_specsIcEEEEvT_RKT0_(ptr noundef nonnull align 8 dereferenceable(16) %writer_, i32 noundef %1, ptr noundef nonnull align 4 dereferenceable(16) %2)
  br label %if.end

if.else:                                          ; preds = %entry
  %writer_3 = getelementptr inbounds nuw %"class.fmt::v6::internal::arg_formatter_base", ptr %this1, i32 0, i32 0
  %3 = load i32, ptr %value.addr, align 4, !tbaa !26
  call void @_ZN3fmt2v68internal12basic_writerINS0_12buffer_rangeIcEEE5writeEj(ptr noundef nonnull align 8 dereferenceable(16) %writer_3, i32 noundef %3)
  br label %if.end

if.end:                                           ; preds = %if.else, %if.then
  %call = call ptr @_ZN3fmt2v68internal18arg_formatter_baseINS0_12buffer_rangeIcEENS1_13error_handlerEE3outEv(ptr noundef nonnull align 8 dereferenceable(24) %this1)
  %coerce.dive = getelementptr inbounds nuw %"class.std::back_insert_iterator", ptr %retval, i32 0, i32 0
  store ptr %call, ptr %coerce.dive, align 8
  %coerce.dive4 = getelementptr inbounds nuw %"class.std::back_insert_iterator", ptr %retval, i32 0, i32 0
  %4 = load ptr, ptr %coerce.dive4, align 8
  ret ptr %4
}

; Function Attrs: mustprogress uwtable
define linkonce_odr ptr @_ZN3fmt2v68internal18arg_formatter_baseINS0_12buffer_rangeIcEENS1_13error_handlerEEclIxTnNSt9enable_ifIXsr11is_integralIT_EE5valueEiE4typeELi0EEESt20back_insert_iteratorINS1_6bufferIcEEES9_(ptr noundef nonnull align 8 dereferenceable(24) %this, i64 noundef %value) #4 comdat align 2 {
entry:
  %retval = alloca %"class.std::back_insert_iterator", align 8
  %this.addr = alloca ptr, align 8
  %value.addr = alloca i64, align 8
  store ptr %this, ptr %this.addr, align 8, !tbaa !187
  store i64 %value, ptr %value.addr, align 8, !tbaa !104
  %this1 = load ptr, ptr %this.addr, align 8
  %specs_ = getelementptr inbounds nuw %"class.fmt::v6::internal::arg_formatter_base", ptr %this1, i32 0, i32 1
  %0 = load ptr, ptr %specs_, align 8, !tbaa !189
  %tobool = icmp ne ptr %0, null
  br i1 %tobool, label %if.then, label %if.else

if.then:                                          ; preds = %entry
  %writer_ = getelementptr inbounds nuw %"class.fmt::v6::internal::arg_formatter_base", ptr %this1, i32 0, i32 0
  %1 = load i64, ptr %value.addr, align 8, !tbaa !104
  %specs_2 = getelementptr inbounds nuw %"class.fmt::v6::internal::arg_formatter_base", ptr %this1, i32 0, i32 1
  %2 = load ptr, ptr %specs_2, align 8, !tbaa !189
  call void @_ZN3fmt2v68internal12basic_writerINS0_12buffer_rangeIcEEE9write_intIxNS0_18basic_format_specsIcEEEEvT_RKT0_(ptr noundef nonnull align 8 dereferenceable(16) %writer_, i64 noundef %1, ptr noundef nonnull align 4 dereferenceable(16) %2)
  br label %if.end

if.else:                                          ; preds = %entry
  %writer_3 = getelementptr inbounds nuw %"class.fmt::v6::internal::arg_formatter_base", ptr %this1, i32 0, i32 0
  %3 = load i64, ptr %value.addr, align 8, !tbaa !104
  call void @_ZN3fmt2v68internal12basic_writerINS0_12buffer_rangeIcEEE5writeEx(ptr noundef nonnull align 8 dereferenceable(16) %writer_3, i64 noundef %3)
  br label %if.end

if.end:                                           ; preds = %if.else, %if.then
  %call = call ptr @_ZN3fmt2v68internal18arg_formatter_baseINS0_12buffer_rangeIcEENS1_13error_handlerEE3outEv(ptr noundef nonnull align 8 dereferenceable(24) %this1)
  %coerce.dive = getelementptr inbounds nuw %"class.std::back_insert_iterator", ptr %retval, i32 0, i32 0
  store ptr %call, ptr %coerce.dive, align 8
  %coerce.dive4 = getelementptr inbounds nuw %"class.std::back_insert_iterator", ptr %retval, i32 0, i32 0
  %4 = load ptr, ptr %coerce.dive4, align 8
  ret ptr %4
}

; Function Attrs: mustprogress uwtable
define linkonce_odr ptr @_ZN3fmt2v68internal18arg_formatter_baseINS0_12buffer_rangeIcEENS1_13error_handlerEEclIyTnNSt9enable_ifIXsr11is_integralIT_EE5valueEiE4typeELi0EEESt20back_insert_iteratorINS1_6bufferIcEEES9_(ptr noundef nonnull align 8 dereferenceable(24) %this, i64 noundef %value) #4 comdat align 2 {
entry:
  %retval = alloca %"class.std::back_insert_iterator", align 8
  %this.addr = alloca ptr, align 8
  %value.addr = alloca i64, align 8
  store ptr %this, ptr %this.addr, align 8, !tbaa !187
  store i64 %value, ptr %value.addr, align 8, !tbaa !104
  %this1 = load ptr, ptr %this.addr, align 8
  %specs_ = getelementptr inbounds nuw %"class.fmt::v6::internal::arg_formatter_base", ptr %this1, i32 0, i32 1
  %0 = load ptr, ptr %specs_, align 8, !tbaa !189
  %tobool = icmp ne ptr %0, null
  br i1 %tobool, label %if.then, label %if.else

if.then:                                          ; preds = %entry
  %writer_ = getelementptr inbounds nuw %"class.fmt::v6::internal::arg_formatter_base", ptr %this1, i32 0, i32 0
  %1 = load i64, ptr %value.addr, align 8, !tbaa !104
  %specs_2 = getelementptr inbounds nuw %"class.fmt::v6::internal::arg_formatter_base", ptr %this1, i32 0, i32 1
  %2 = load ptr, ptr %specs_2, align 8, !tbaa !189
  call void @_ZN3fmt2v68internal12basic_writerINS0_12buffer_rangeIcEEE9write_intIyNS0_18basic_format_specsIcEEEEvT_RKT0_(ptr noundef nonnull align 8 dereferenceable(16) %writer_, i64 noundef %1, ptr noundef nonnull align 4 dereferenceable(16) %2)
  br label %if.end

if.else:                                          ; preds = %entry
  %writer_3 = getelementptr inbounds nuw %"class.fmt::v6::internal::arg_formatter_base", ptr %this1, i32 0, i32 0
  %3 = load i64, ptr %value.addr, align 8, !tbaa !104
  call void @_ZN3fmt2v68internal12basic_writerINS0_12buffer_rangeIcEEE5writeEy(ptr noundef nonnull align 8 dereferenceable(16) %writer_3, i64 noundef %3)
  br label %if.end

if.end:                                           ; preds = %if.else, %if.then
  %call = call ptr @_ZN3fmt2v68internal18arg_formatter_baseINS0_12buffer_rangeIcEENS1_13error_handlerEE3outEv(ptr noundef nonnull align 8 dereferenceable(24) %this1)
  %coerce.dive = getelementptr inbounds nuw %"class.std::back_insert_iterator", ptr %retval, i32 0, i32 0
  store ptr %call, ptr %coerce.dive, align 8
  %coerce.dive4 = getelementptr inbounds nuw %"class.std::back_insert_iterator", ptr %retval, i32 0, i32 0
  %4 = load ptr, ptr %coerce.dive4, align 8
  ret ptr %4
}

; Function Attrs: mustprogress uwtable
define linkonce_odr ptr @_ZN3fmt2v68internal18arg_formatter_baseINS0_12buffer_rangeIcEENS1_13error_handlerEEclInTnNSt9enable_ifIXsr11is_integralIT_EE5valueEiE4typeELi0EEESt20back_insert_iteratorINS1_6bufferIcEEES9_(ptr noundef nonnull align 8 dereferenceable(24) %this, i64 noundef %value.coerce0, i64 noundef %value.coerce1) #4 comdat align 2 {
entry:
  %retval = alloca %"class.std::back_insert_iterator", align 8
  %value = alloca i128, align 16
  %this.addr = alloca ptr, align 8
  %value.addr = alloca i128, align 16
  %coerce = alloca i128, align 16
  %coerce5 = alloca i128, align 16
  %0 = getelementptr inbounds nuw { i64, i64 }, ptr %value, i32 0, i32 0
  store i64 %value.coerce0, ptr %0, align 16
  %1 = getelementptr inbounds nuw { i64, i64 }, ptr %value, i32 0, i32 1
  store i64 %value.coerce1, ptr %1, align 8
  %value1 = load i128, ptr %value, align 16, !tbaa !175
  store ptr %this, ptr %this.addr, align 8, !tbaa !187
  store i128 %value1, ptr %value.addr, align 16, !tbaa !175
  %this2 = load ptr, ptr %this.addr, align 8
  %specs_ = getelementptr inbounds nuw %"class.fmt::v6::internal::arg_formatter_base", ptr %this2, i32 0, i32 1
  %2 = load ptr, ptr %specs_, align 8, !tbaa !189
  %tobool = icmp ne ptr %2, null
  br i1 %tobool, label %if.then, label %if.else

if.then:                                          ; preds = %entry
  %writer_ = getelementptr inbounds nuw %"class.fmt::v6::internal::arg_formatter_base", ptr %this2, i32 0, i32 0
  %3 = load i128, ptr %value.addr, align 16, !tbaa !175
  %specs_3 = getelementptr inbounds nuw %"class.fmt::v6::internal::arg_formatter_base", ptr %this2, i32 0, i32 1
  %4 = load ptr, ptr %specs_3, align 8, !tbaa !189
  store i128 %3, ptr %coerce, align 16, !tbaa !175
  %5 = getelementptr inbounds nuw { i64, i64 }, ptr %coerce, i32 0, i32 0
  %6 = load i64, ptr %5, align 16
  %7 = getelementptr inbounds nuw { i64, i64 }, ptr %coerce, i32 0, i32 1
  %8 = load i64, ptr %7, align 8
  call void @_ZN3fmt2v68internal12basic_writerINS0_12buffer_rangeIcEEE9write_intInNS0_18basic_format_specsIcEEEEvT_RKT0_(ptr noundef nonnull align 8 dereferenceable(16) %writer_, i64 noundef %6, i64 noundef %8, ptr noundef nonnull align 4 dereferenceable(16) %4)
  br label %if.end

if.else:                                          ; preds = %entry
  %writer_4 = getelementptr inbounds nuw %"class.fmt::v6::internal::arg_formatter_base", ptr %this2, i32 0, i32 0
  %9 = load i128, ptr %value.addr, align 16, !tbaa !175
  store i128 %9, ptr %coerce5, align 16, !tbaa !175
  %10 = getelementptr inbounds nuw { i64, i64 }, ptr %coerce5, i32 0, i32 0
  %11 = load i64, ptr %10, align 16
  %12 = getelementptr inbounds nuw { i64, i64 }, ptr %coerce5, i32 0, i32 1
  %13 = load i64, ptr %12, align 8
  call void @_ZN3fmt2v68internal12basic_writerINS0_12buffer_rangeIcEEE5writeEn(ptr noundef nonnull align 8 dereferenceable(16) %writer_4, i64 noundef %11, i64 noundef %13)
  br label %if.end

if.end:                                           ; preds = %if.else, %if.then
  %call = call ptr @_ZN3fmt2v68internal18arg_formatter_baseINS0_12buffer_rangeIcEENS1_13error_handlerEE3outEv(ptr noundef nonnull align 8 dereferenceable(24) %this2)
  %coerce.dive = getelementptr inbounds nuw %"class.std::back_insert_iterator", ptr %retval, i32 0, i32 0
  store ptr %call, ptr %coerce.dive, align 8
  %coerce.dive6 = getelementptr inbounds nuw %"class.std::back_insert_iterator", ptr %retval, i32 0, i32 0
  %14 = load ptr, ptr %coerce.dive6, align 8
  ret ptr %14
}

; Function Attrs: mustprogress uwtable
define linkonce_odr ptr @_ZN3fmt2v68internal18arg_formatter_baseINS0_12buffer_rangeIcEENS1_13error_handlerEEclIoTnNSt9enable_ifIXsr11is_integralIT_EE5valueEiE4typeELi0EEESt20back_insert_iteratorINS1_6bufferIcEEES9_(ptr noundef nonnull align 8 dereferenceable(24) %this, i64 noundef %value.coerce0, i64 noundef %value.coerce1) #4 comdat align 2 {
entry:
  %retval = alloca %"class.std::back_insert_iterator", align 8
  %value = alloca i128, align 16
  %this.addr = alloca ptr, align 8
  %value.addr = alloca i128, align 16
  %coerce = alloca i128, align 16
  %coerce5 = alloca i128, align 16
  %0 = getelementptr inbounds nuw { i64, i64 }, ptr %value, i32 0, i32 0
  store i64 %value.coerce0, ptr %0, align 16
  %1 = getelementptr inbounds nuw { i64, i64 }, ptr %value, i32 0, i32 1
  store i64 %value.coerce1, ptr %1, align 8
  %value1 = load i128, ptr %value, align 16, !tbaa !175
  store ptr %this, ptr %this.addr, align 8, !tbaa !187
  store i128 %value1, ptr %value.addr, align 16, !tbaa !175
  %this2 = load ptr, ptr %this.addr, align 8
  %specs_ = getelementptr inbounds nuw %"class.fmt::v6::internal::arg_formatter_base", ptr %this2, i32 0, i32 1
  %2 = load ptr, ptr %specs_, align 8, !tbaa !189
  %tobool = icmp ne ptr %2, null
  br i1 %tobool, label %if.then, label %if.else

if.then:                                          ; preds = %entry
  %writer_ = getelementptr inbounds nuw %"class.fmt::v6::internal::arg_formatter_base", ptr %this2, i32 0, i32 0
  %3 = load i128, ptr %value.addr, align 16, !tbaa !175
  %specs_3 = getelementptr inbounds nuw %"class.fmt::v6::internal::arg_formatter_base", ptr %this2, i32 0, i32 1
  %4 = load ptr, ptr %specs_3, align 8, !tbaa !189
  store i128 %3, ptr %coerce, align 16, !tbaa !175
  %5 = getelementptr inbounds nuw { i64, i64 }, ptr %coerce, i32 0, i32 0
  %6 = load i64, ptr %5, align 16
  %7 = getelementptr inbounds nuw { i64, i64 }, ptr %coerce, i32 0, i32 1
  %8 = load i64, ptr %7, align 8
  call void @_ZN3fmt2v68internal12basic_writerINS0_12buffer_rangeIcEEE9write_intIoNS0_18basic_format_specsIcEEEEvT_RKT0_(ptr noundef nonnull align 8 dereferenceable(16) %writer_, i64 noundef %6, i64 noundef %8, ptr noundef nonnull align 4 dereferenceable(16) %4)
  br label %if.end

if.else:                                          ; preds = %entry
  %writer_4 = getelementptr inbounds nuw %"class.fmt::v6::internal::arg_formatter_base", ptr %this2, i32 0, i32 0
  %9 = load i128, ptr %value.addr, align 16, !tbaa !175
  store i128 %9, ptr %coerce5, align 16, !tbaa !175
  %10 = getelementptr inbounds nuw { i64, i64 }, ptr %coerce5, i32 0, i32 0
  %11 = load i64, ptr %10, align 16
  %12 = getelementptr inbounds nuw { i64, i64 }, ptr %coerce5, i32 0, i32 1
  %13 = load i64, ptr %12, align 8
  call void @_ZN3fmt2v68internal12basic_writerINS0_12buffer_rangeIcEEE5writeEo(ptr noundef nonnull align 8 dereferenceable(16) %writer_4, i64 noundef %11, i64 noundef %13)
  br label %if.end

if.end:                                           ; preds = %if.else, %if.then
  %call = call ptr @_ZN3fmt2v68internal18arg_formatter_baseINS0_12buffer_rangeIcEENS1_13error_handlerEE3outEv(ptr noundef nonnull align 8 dereferenceable(24) %this2)
  %coerce.dive = getelementptr inbounds nuw %"class.std::back_insert_iterator", ptr %retval, i32 0, i32 0
  store ptr %call, ptr %coerce.dive, align 8
  %coerce.dive6 = getelementptr inbounds nuw %"class.std::back_insert_iterator", ptr %retval, i32 0, i32 0
  %14 = load ptr, ptr %coerce.dive6, align 8
  ret ptr %14
}

; Function Attrs: mustprogress uwtable
define linkonce_odr ptr @_ZN3fmt2v68internal18arg_formatter_baseINS0_12buffer_rangeIcEENS1_13error_handlerEEclEb(ptr noundef nonnull align 8 dereferenceable(24) %this, i1 noundef zeroext %value) #4 comdat align 2 {
entry:
  %retval = alloca %"class.std::back_insert_iterator", align 8
  %this.addr = alloca ptr, align 8
  %value.addr = alloca i8, align 1
  store ptr %this, ptr %this.addr, align 8, !tbaa !187
  %storedv = zext i1 %value to i8
  store i8 %storedv, ptr %value.addr, align 1, !tbaa !122
  %this1 = load ptr, ptr %this.addr, align 8
  %specs_ = getelementptr inbounds nuw %"class.fmt::v6::internal::arg_formatter_base", ptr %this1, i32 0, i32 1
  %0 = load ptr, ptr %specs_, align 8, !tbaa !189
  %tobool = icmp ne ptr %0, null
  br i1 %tobool, label %land.lhs.true, label %if.end

land.lhs.true:                                    ; preds = %entry
  %specs_2 = getelementptr inbounds nuw %"class.fmt::v6::internal::arg_formatter_base", ptr %this1, i32 0, i32 1
  %1 = load ptr, ptr %specs_2, align 8, !tbaa !189
  %type = getelementptr inbounds nuw %"struct.fmt::v6::basic_format_specs", ptr %1, i32 0, i32 2
  %2 = load i8, ptr %type, align 4, !tbaa !190
  %tobool3 = icmp ne i8 %2, 0
  br i1 %tobool3, label %if.then, label %if.end

if.then:                                          ; preds = %land.lhs.true
  %3 = load i8, ptr %value.addr, align 1, !tbaa !122, !range !177, !noundef !178
  %loadedv = trunc i8 %3 to i1
  %4 = zext i1 %loadedv to i64
  %cond = select i1 %loadedv, i32 1, i32 0
  %call = call ptr @_ZN3fmt2v68internal18arg_formatter_baseINS0_12buffer_rangeIcEENS1_13error_handlerEEclIiTnNSt9enable_ifIXsr11is_integralIT_EE5valueEiE4typeELi0EEESt20back_insert_iteratorINS1_6bufferIcEEES9_(ptr noundef nonnull align 8 dereferenceable(24) %this1, i32 noundef %cond)
  %coerce.dive = getelementptr inbounds nuw %"class.std::back_insert_iterator", ptr %retval, i32 0, i32 0
  store ptr %call, ptr %coerce.dive, align 8
  br label %return

if.end:                                           ; preds = %land.lhs.true, %entry
  %5 = load i8, ptr %value.addr, align 1, !tbaa !122, !range !177, !noundef !178
  %loadedv4 = trunc i8 %5 to i1
  %conv = zext i1 %loadedv4 to i32
  %cmp = icmp ne i32 %conv, 0
  call void @_ZN3fmt2v68internal18arg_formatter_baseINS0_12buffer_rangeIcEENS1_13error_handlerEE5writeEb(ptr noundef nonnull align 8 dereferenceable(24) %this1, i1 noundef zeroext %cmp)
  %call5 = call ptr @_ZN3fmt2v68internal18arg_formatter_baseINS0_12buffer_rangeIcEENS1_13error_handlerEE3outEv(ptr noundef nonnull align 8 dereferenceable(24) %this1)
  %coerce.dive6 = getelementptr inbounds nuw %"class.std::back_insert_iterator", ptr %retval, i32 0, i32 0
  store ptr %call5, ptr %coerce.dive6, align 8
  br label %return

return:                                           ; preds = %if.end, %if.then
  %coerce.dive7 = getelementptr inbounds nuw %"class.std::back_insert_iterator", ptr %retval, i32 0, i32 0
  %6 = load ptr, ptr %coerce.dive7, align 8
  ret ptr %6
}

; Function Attrs: mustprogress uwtable
define linkonce_odr ptr @_ZN3fmt2v68internal18arg_formatter_baseINS0_12buffer_rangeIcEENS1_13error_handlerEEclEc(ptr noundef nonnull align 8 dereferenceable(24) %this, i8 noundef signext %value) #4 comdat align 2 {
entry:
  %retval = alloca %"class.std::back_insert_iterator", align 8
  %this.addr = alloca ptr, align 8
  %value.addr = alloca i8, align 1
  %ref.tmp = alloca %"struct.fmt::v6::internal::arg_formatter_base<fmt::v6::buffer_range<char>>::char_spec_handler", align 8
  store ptr %this, ptr %this.addr, align 8, !tbaa !187
  store i8 %value, ptr %value.addr, align 1, !tbaa !19
  %this1 = load ptr, ptr %this.addr, align 8
  %specs_ = getelementptr inbounds nuw %"class.fmt::v6::internal::arg_formatter_base", ptr %this1, i32 0, i32 1
  %0 = load ptr, ptr %specs_, align 8, !tbaa !189
  call void @llvm.lifetime.start.p0(i64 16, ptr %ref.tmp) #3
  %1 = load i8, ptr %value.addr, align 1, !tbaa !19
  call void @_ZN3fmt2v68internal18arg_formatter_baseINS0_12buffer_rangeIcEENS1_13error_handlerEE17char_spec_handlerC2ERS6_c(ptr noundef nonnull align 8 dereferenceable(9) %ref.tmp, ptr noundef nonnull align 8 dereferenceable(24) %this1, i8 noundef signext %1)
  call void @_ZN3fmt2v68internal17handle_char_specsIcNS1_18arg_formatter_baseINS0_12buffer_rangeIcEENS1_13error_handlerEE17char_spec_handlerEEEvPKNS0_18basic_format_specsIT_EEOT0_(ptr noundef %0, ptr noundef nonnull align 8 dereferenceable(9) %ref.tmp)
  call void @llvm.lifetime.end.p0(i64 16, ptr %ref.tmp) #3
  %call = call ptr @_ZN3fmt2v68internal18arg_formatter_baseINS0_12buffer_rangeIcEENS1_13error_handlerEE3outEv(ptr noundef nonnull align 8 dereferenceable(24) %this1)
  %coerce.dive = getelementptr inbounds nuw %"class.std::back_insert_iterator", ptr %retval, i32 0, i32 0
  store ptr %call, ptr %coerce.dive, align 8
  %coerce.dive2 = getelementptr inbounds nuw %"class.std::back_insert_iterator", ptr %retval, i32 0, i32 0
  %2 = load ptr, ptr %coerce.dive2, align 8
  ret ptr %2
}

; Function Attrs: mustprogress uwtable
define linkonce_odr ptr @_ZN3fmt2v68internal18arg_formatter_baseINS0_12buffer_rangeIcEENS1_13error_handlerEEclIfTnNSt9enable_ifIXsr3std17is_floating_pointIT_EE5valueEiE4typeELi0EEESt20back_insert_iteratorINS1_6bufferIcEEES9_(ptr noundef nonnull align 8 dereferenceable(24) %this, float noundef %value) #4 comdat align 2 {
entry:
  %retval = alloca %"class.std::back_insert_iterator", align 8
  %this.addr = alloca ptr, align 8
  %value.addr = alloca float, align 4
  %agg.tmp = alloca %"struct.fmt::v6::basic_format_specs", align 4
  store ptr %this, ptr %this.addr, align 8, !tbaa !187
  store float %value, ptr %value.addr, align 4, !tbaa !195
  %this1 = load ptr, ptr %this.addr, align 8
  %writer_ = getelementptr inbounds nuw %"class.fmt::v6::internal::arg_formatter_base", ptr %this1, i32 0, i32 0
  %0 = load float, ptr %value.addr, align 4, !tbaa !195
  %specs_ = getelementptr inbounds nuw %"class.fmt::v6::internal::arg_formatter_base", ptr %this1, i32 0, i32 1
  %1 = load ptr, ptr %specs_, align 8, !tbaa !189
  %tobool = icmp ne ptr %1, null
  br i1 %tobool, label %cond.true, label %cond.false

cond.true:                                        ; preds = %entry
  %specs_2 = getelementptr inbounds nuw %"class.fmt::v6::internal::arg_formatter_base", ptr %this1, i32 0, i32 1
  %2 = load ptr, ptr %specs_2, align 8, !tbaa !189
  call void @llvm.memcpy.p0.p0.i64(ptr align 4 %agg.tmp, ptr align 4 %2, i64 16, i1 false), !tbaa.struct !197
  br label %cond.end

cond.false:                                       ; preds = %entry
  call void @_ZN3fmt2v618basic_format_specsIcEC2Ev(ptr noundef nonnull align 4 dereferenceable(16) %agg.tmp)
  br label %cond.end

cond.end:                                         ; preds = %cond.false, %cond.true
  %3 = getelementptr inbounds nuw { i64, i64 }, ptr %agg.tmp, i32 0, i32 0
  %4 = load i64, ptr %3, align 4
  %5 = getelementptr inbounds nuw { i64, i64 }, ptr %agg.tmp, i32 0, i32 1
  %6 = load i64, ptr %5, align 4
  call void @_ZN3fmt2v68internal12basic_writerINS0_12buffer_rangeIcEEE5writeIfTnNSt9enable_ifIXsr3std17is_floating_pointIT_EE5valueEiE4typeELi0EEEvS8_NS0_18basic_format_specsIcEE(ptr noundef nonnull align 8 dereferenceable(16) %writer_, float noundef %0, i64 %4, i64 %6)
  %call = call ptr @_ZN3fmt2v68internal18arg_formatter_baseINS0_12buffer_rangeIcEENS1_13error_handlerEE3outEv(ptr noundef nonnull align 8 dereferenceable(24) %this1)
  %coerce.dive = getelementptr inbounds nuw %"class.std::back_insert_iterator", ptr %retval, i32 0, i32 0
  store ptr %call, ptr %coerce.dive, align 8
  %coerce.dive3 = getelementptr inbounds nuw %"class.std::back_insert_iterator", ptr %retval, i32 0, i32 0
  %7 = load ptr, ptr %coerce.dive3, align 8
  ret ptr %7
}

; Function Attrs: mustprogress uwtable
define linkonce_odr ptr @_ZN3fmt2v68internal18arg_formatter_baseINS0_12buffer_rangeIcEENS1_13error_handlerEEclIdTnNSt9enable_ifIXsr3std17is_floating_pointIT_EE5valueEiE4typeELi0EEESt20back_insert_iteratorINS1_6bufferIcEEES9_(ptr noundef nonnull align 8 dereferenceable(24) %this, double noundef %value) #4 comdat align 2 {
entry:
  %retval = alloca %"class.std::back_insert_iterator", align 8
  %this.addr = alloca ptr, align 8
  %value.addr = alloca double, align 8
  %agg.tmp = alloca %"struct.fmt::v6::basic_format_specs", align 4
  store ptr %this, ptr %this.addr, align 8, !tbaa !187
  store double %value, ptr %value.addr, align 8, !tbaa !20
  %this1 = load ptr, ptr %this.addr, align 8
  %writer_ = getelementptr inbounds nuw %"class.fmt::v6::internal::arg_formatter_base", ptr %this1, i32 0, i32 0
  %0 = load double, ptr %value.addr, align 8, !tbaa !20
  %specs_ = getelementptr inbounds nuw %"class.fmt::v6::internal::arg_formatter_base", ptr %this1, i32 0, i32 1
  %1 = load ptr, ptr %specs_, align 8, !tbaa !189
  %tobool = icmp ne ptr %1, null
  br i1 %tobool, label %cond.true, label %cond.false

cond.true:                                        ; preds = %entry
  %specs_2 = getelementptr inbounds nuw %"class.fmt::v6::internal::arg_formatter_base", ptr %this1, i32 0, i32 1
  %2 = load ptr, ptr %specs_2, align 8, !tbaa !189
  call void @llvm.memcpy.p0.p0.i64(ptr align 4 %agg.tmp, ptr align 4 %2, i64 16, i1 false), !tbaa.struct !197
  br label %cond.end

cond.false:                                       ; preds = %entry
  call void @_ZN3fmt2v618basic_format_specsIcEC2Ev(ptr noundef nonnull align 4 dereferenceable(16) %agg.tmp)
  br label %cond.end

cond.end:                                         ; preds = %cond.false, %cond.true
  %3 = getelementptr inbounds nuw { i64, i64 }, ptr %agg.tmp, i32 0, i32 0
  %4 = load i64, ptr %3, align 4
  %5 = getelementptr inbounds nuw { i64, i64 }, ptr %agg.tmp, i32 0, i32 1
  %6 = load i64, ptr %5, align 4
  call void @_ZN3fmt2v68internal12basic_writerINS0_12buffer_rangeIcEEE5writeIdTnNSt9enable_ifIXsr3std17is_floating_pointIT_EE5valueEiE4typeELi0EEEvS8_NS0_18basic_format_specsIcEE(ptr noundef nonnull align 8 dereferenceable(16) %writer_, double noundef %0, i64 %4, i64 %6)
  %call = call ptr @_ZN3fmt2v68internal18arg_formatter_baseINS0_12buffer_rangeIcEENS1_13error_handlerEE3outEv(ptr noundef nonnull align 8 dereferenceable(24) %this1)
  %coerce.dive = getelementptr inbounds nuw %"class.std::back_insert_iterator", ptr %retval, i32 0, i32 0
  store ptr %call, ptr %coerce.dive, align 8
  %coerce.dive3 = getelementptr inbounds nuw %"class.std::back_insert_iterator", ptr %retval, i32 0, i32 0
  %7 = load ptr, ptr %coerce.dive3, align 8
  ret ptr %7
}

; Function Attrs: mustprogress uwtable
define linkonce_odr ptr @_ZN3fmt2v68internal18arg_formatter_baseINS0_12buffer_rangeIcEENS1_13error_handlerEEclIeTnNSt9enable_ifIXsr3std17is_floating_pointIT_EE5valueEiE4typeELi0EEESt20back_insert_iteratorINS1_6bufferIcEEES9_(ptr noundef nonnull align 8 dereferenceable(24) %this, x86_fp80 noundef %value) #4 comdat align 2 {
entry:
  %retval = alloca %"class.std::back_insert_iterator", align 8
  %this.addr = alloca ptr, align 8
  %value.addr = alloca x86_fp80, align 16
  %agg.tmp = alloca %"struct.fmt::v6::basic_format_specs", align 4
  store ptr %this, ptr %this.addr, align 8, !tbaa !187
  store x86_fp80 %value, ptr %value.addr, align 16, !tbaa !198
  %this1 = load ptr, ptr %this.addr, align 8
  %writer_ = getelementptr inbounds nuw %"class.fmt::v6::internal::arg_formatter_base", ptr %this1, i32 0, i32 0
  %0 = load x86_fp80, ptr %value.addr, align 16, !tbaa !198
  %specs_ = getelementptr inbounds nuw %"class.fmt::v6::internal::arg_formatter_base", ptr %this1, i32 0, i32 1
  %1 = load ptr, ptr %specs_, align 8, !tbaa !189
  %tobool = icmp ne ptr %1, null
  br i1 %tobool, label %cond.true, label %cond.false

cond.true:                                        ; preds = %entry
  %specs_2 = getelementptr inbounds nuw %"class.fmt::v6::internal::arg_formatter_base", ptr %this1, i32 0, i32 1
  %2 = load ptr, ptr %specs_2, align 8, !tbaa !189
  call void @llvm.memcpy.p0.p0.i64(ptr align 4 %agg.tmp, ptr align 4 %2, i64 16, i1 false), !tbaa.struct !197
  br label %cond.end

cond.false:                                       ; preds = %entry
  call void @_ZN3fmt2v618basic_format_specsIcEC2Ev(ptr noundef nonnull align 4 dereferenceable(16) %agg.tmp)
  br label %cond.end

cond.end:                                         ; preds = %cond.false, %cond.true
  %3 = getelementptr inbounds nuw { i64, i64 }, ptr %agg.tmp, i32 0, i32 0
  %4 = load i64, ptr %3, align 4
  %5 = getelementptr inbounds nuw { i64, i64 }, ptr %agg.tmp, i32 0, i32 1
  %6 = load i64, ptr %5, align 4
  call void @_ZN3fmt2v68internal12basic_writerINS0_12buffer_rangeIcEEE5writeIeTnNSt9enable_ifIXsr3std17is_floating_pointIT_EE5valueEiE4typeELi0EEEvS8_NS0_18basic_format_specsIcEE(ptr noundef nonnull align 8 dereferenceable(16) %writer_, x86_fp80 noundef %0, i64 %4, i64 %6)
  %call = call ptr @_ZN3fmt2v68internal18arg_formatter_baseINS0_12buffer_rangeIcEENS1_13error_handlerEE3outEv(ptr noundef nonnull align 8 dereferenceable(24) %this1)
  %coerce.dive = getelementptr inbounds nuw %"class.std::back_insert_iterator", ptr %retval, i32 0, i32 0
  store ptr %call, ptr %coerce.dive, align 8
  %coerce.dive3 = getelementptr inbounds nuw %"class.std::back_insert_iterator", ptr %retval, i32 0, i32 0
  %7 = load ptr, ptr %coerce.dive3, align 8
  ret ptr %7
}

; Function Attrs: mustprogress uwtable
define linkonce_odr ptr @_ZN3fmt2v68internal18arg_formatter_baseINS0_12buffer_rangeIcEENS1_13error_handlerEEclEPKc(ptr noundef nonnull align 8 dereferenceable(24) %this, ptr noundef %value) #4 comdat align 2 {
entry:
  %retval = alloca %"class.std::back_insert_iterator", align 8
  %this.addr = alloca ptr, align 8
  %value.addr = alloca ptr, align 8
  %ref.tmp = alloca %"struct.fmt::v6::internal::arg_formatter_base<fmt::v6::buffer_range<char>>::cstring_spec_handler", align 8
  store ptr %this, ptr %this.addr, align 8, !tbaa !187
  store ptr %value, ptr %value.addr, align 8, !tbaa !57
  %this1 = load ptr, ptr %this.addr, align 8
  %specs_ = getelementptr inbounds nuw %"class.fmt::v6::internal::arg_formatter_base", ptr %this1, i32 0, i32 1
  %0 = load ptr, ptr %specs_, align 8, !tbaa !189
  %tobool = icmp ne ptr %0, null
  br i1 %tobool, label %if.end, label %if.then

if.then:                                          ; preds = %entry
  %1 = load ptr, ptr %value.addr, align 8, !tbaa !57
  call void @_ZN3fmt2v68internal18arg_formatter_baseINS0_12buffer_rangeIcEENS1_13error_handlerEE5writeEPKc(ptr noundef nonnull align 8 dereferenceable(24) %this1, ptr noundef %1)
  %call = call ptr @_ZN3fmt2v68internal18arg_formatter_baseINS0_12buffer_rangeIcEENS1_13error_handlerEE3outEv(ptr noundef nonnull align 8 dereferenceable(24) %this1)
  %coerce.dive = getelementptr inbounds nuw %"class.std::back_insert_iterator", ptr %retval, i32 0, i32 0
  store ptr %call, ptr %coerce.dive, align 8
  br label %return

if.end:                                           ; preds = %entry
  %specs_2 = getelementptr inbounds nuw %"class.fmt::v6::internal::arg_formatter_base", ptr %this1, i32 0, i32 1
  %2 = load ptr, ptr %specs_2, align 8, !tbaa !189
  %type = getelementptr inbounds nuw %"struct.fmt::v6::basic_format_specs", ptr %2, i32 0, i32 2
  %3 = load i8, ptr %type, align 4, !tbaa !190
  call void @llvm.lifetime.start.p0(i64 16, ptr %ref.tmp) #3
  %4 = load ptr, ptr %value.addr, align 8, !tbaa !57
  call void @_ZN3fmt2v68internal18arg_formatter_baseINS0_12buffer_rangeIcEENS1_13error_handlerEE20cstring_spec_handlerC2ERS6_PKc(ptr noundef nonnull align 8 dereferenceable(16) %ref.tmp, ptr noundef nonnull align 8 dereferenceable(24) %this1, ptr noundef %4)
  call void @_ZN3fmt2v68internal24handle_cstring_type_specIcNS1_18arg_formatter_baseINS0_12buffer_rangeIcEENS1_13error_handlerEE20cstring_spec_handlerEEEvT_OT0_(i8 noundef signext %3, ptr noundef nonnull align 8 dereferenceable(16) %ref.tmp)
  call void @llvm.lifetime.end.p0(i64 16, ptr %ref.tmp) #3
  %call3 = call ptr @_ZN3fmt2v68internal18arg_formatter_baseINS0_12buffer_rangeIcEENS1_13error_handlerEE3outEv(ptr noundef nonnull align 8 dereferenceable(24) %this1)
  %coerce.dive4 = getelementptr inbounds nuw %"class.std::back_insert_iterator", ptr %retval, i32 0, i32 0
  store ptr %call3, ptr %coerce.dive4, align 8
  br label %return

return:                                           ; preds = %if.end, %if.then
  %coerce.dive5 = getelementptr inbounds nuw %"class.std::back_insert_iterator", ptr %retval, i32 0, i32 0
  %5 = load ptr, ptr %coerce.dive5, align 8
  ret ptr %5
}

; Function Attrs: mustprogress uwtable
define linkonce_odr ptr @_ZN3fmt2v68internal18arg_formatter_baseINS0_12buffer_rangeIcEENS1_13error_handlerEEclENS0_17basic_string_viewIcEE(ptr noundef nonnull align 8 dereferenceable(24) %this, ptr %value.coerce0, i64 %value.coerce1) #4 comdat align 2 {
entry:
  %retval = alloca %"class.std::back_insert_iterator", align 8
  %value = alloca %"class.fmt::v6::basic_string_view", align 8
  %this.addr = alloca ptr, align 8
  %ref.tmp = alloca %"struct.fmt::v6::internal::error_handler", align 1
  %agg.tmp = alloca %"class.fmt::v6::basic_string_view", align 8
  %agg.tmp5 = alloca %"class.fmt::v6::basic_string_view", align 8
  %0 = getelementptr inbounds nuw { ptr, i64 }, ptr %value, i32 0, i32 0
  store ptr %value.coerce0, ptr %0, align 8
  %1 = getelementptr inbounds nuw { ptr, i64 }, ptr %value, i32 0, i32 1
  store i64 %value.coerce1, ptr %1, align 8
  store ptr %this, ptr %this.addr, align 8, !tbaa !187
  %this1 = load ptr, ptr %this.addr, align 8
  %specs_ = getelementptr inbounds nuw %"class.fmt::v6::internal::arg_formatter_base", ptr %this1, i32 0, i32 1
  %2 = load ptr, ptr %specs_, align 8, !tbaa !189
  %tobool = icmp ne ptr %2, null
  br i1 %tobool, label %if.then, label %if.else

if.then:                                          ; preds = %entry
  %specs_2 = getelementptr inbounds nuw %"class.fmt::v6::internal::arg_formatter_base", ptr %this1, i32 0, i32 1
  %3 = load ptr, ptr %specs_2, align 8, !tbaa !189
  %type = getelementptr inbounds nuw %"struct.fmt::v6::basic_format_specs", ptr %3, i32 0, i32 2
  %4 = load i8, ptr %type, align 4, !tbaa !190
  call void @llvm.lifetime.start.p0(i64 1, ptr %ref.tmp) #3
  call void @_ZN3fmt2v68internal22check_string_type_specIcNS1_13error_handlerEEEvT_OT0_(i8 noundef signext %4, ptr noundef nonnull align 1 dereferenceable(1) %ref.tmp)
  call void @llvm.lifetime.end.p0(i64 1, ptr %ref.tmp) #3
  %writer_ = getelementptr inbounds nuw %"class.fmt::v6::internal::arg_formatter_base", ptr %this1, i32 0, i32 0
  call void @llvm.memcpy.p0.p0.i64(ptr align 8 %agg.tmp, ptr align 8 %value, i64 16, i1 false), !tbaa.struct !102
  %specs_3 = getelementptr inbounds nuw %"class.fmt::v6::internal::arg_formatter_base", ptr %this1, i32 0, i32 1
  %5 = load ptr, ptr %specs_3, align 8, !tbaa !189
  %6 = getelementptr inbounds nuw { ptr, i64 }, ptr %agg.tmp, i32 0, i32 0
  %7 = load ptr, ptr %6, align 8
  %8 = getelementptr inbounds nuw { ptr, i64 }, ptr %agg.tmp, i32 0, i32 1
  %9 = load i64, ptr %8, align 8
  call void @_ZN3fmt2v68internal12basic_writerINS0_12buffer_rangeIcEEE5writeIcEEvNS0_17basic_string_viewIT_EERKNS0_18basic_format_specsIcEE(ptr noundef nonnull align 8 dereferenceable(16) %writer_, ptr %7, i64 %9, ptr noundef nonnull align 4 dereferenceable(16) %5)
  br label %if.end

if.else:                                          ; preds = %entry
  %writer_4 = getelementptr inbounds nuw %"class.fmt::v6::internal::arg_formatter_base", ptr %this1, i32 0, i32 0
  call void @llvm.memcpy.p0.p0.i64(ptr align 8 %agg.tmp5, ptr align 8 %value, i64 16, i1 false), !tbaa.struct !102
  %10 = getelementptr inbounds nuw { ptr, i64 }, ptr %agg.tmp5, i32 0, i32 0
  %11 = load ptr, ptr %10, align 8
  %12 = getelementptr inbounds nuw { ptr, i64 }, ptr %agg.tmp5, i32 0, i32 1
  %13 = load i64, ptr %12, align 8
  call void @_ZN3fmt2v68internal12basic_writerINS0_12buffer_rangeIcEEE5writeENS0_17basic_string_viewIcEE(ptr noundef nonnull align 8 dereferenceable(16) %writer_4, ptr %11, i64 %13)
  br label %if.end

if.end:                                           ; preds = %if.else, %if.then
  %call = call ptr @_ZN3fmt2v68internal18arg_formatter_baseINS0_12buffer_rangeIcEENS1_13error_handlerEE3outEv(ptr noundef nonnull align 8 dereferenceable(24) %this1)
  %coerce.dive = getelementptr inbounds nuw %"class.std::back_insert_iterator", ptr %retval, i32 0, i32 0
  store ptr %call, ptr %coerce.dive, align 8
  %coerce.dive6 = getelementptr inbounds nuw %"class.std::back_insert_iterator", ptr %retval, i32 0, i32 0
  %14 = load ptr, ptr %coerce.dive6, align 8
  ret ptr %14
}

; Function Attrs: mustprogress nounwind uwtable
define linkonce_odr void @_ZN3fmt2v617basic_string_viewIcEC2EPKcm(ptr noundef nonnull align 8 dereferenceable(16) %this, ptr noundef %s, i64 noundef %count) unnamed_addr #8 comdat align 2 {
entry:
  %this.addr = alloca ptr, align 8
  %s.addr = alloca ptr, align 8
  %count.addr = alloca i64, align 8
  store ptr %this, ptr %this.addr, align 8, !tbaa !156
  store ptr %s, ptr %s.addr, align 8, !tbaa !57
  store i64 %count, ptr %count.addr, align 8, !tbaa !28
  %this1 = load ptr, ptr %this.addr, align 8
  %data_ = getelementptr inbounds nuw %"class.fmt::v6::basic_string_view", ptr %this1, i32 0, i32 0
  %0 = load ptr, ptr %s.addr, align 8, !tbaa !57
  store ptr %0, ptr %data_, align 8, !tbaa !158
  %size_ = getelementptr inbounds nuw %"class.fmt::v6::basic_string_view", ptr %this1, i32 0, i32 1
  %1 = load i64, ptr %count.addr, align 8, !tbaa !28
  store i64 %1, ptr %size_, align 8, !tbaa !159
  ret void
}

; Function Attrs: mustprogress uwtable
define linkonce_odr ptr @_ZN3fmt2v68internal18arg_formatter_baseINS0_12buffer_rangeIcEENS1_13error_handlerEEclEPKv(ptr noundef nonnull align 8 dereferenceable(24) %this, ptr noundef %value) #4 comdat align 2 {
entry:
  %retval = alloca %"class.std::back_insert_iterator", align 8
  %this.addr = alloca ptr, align 8
  %value.addr = alloca ptr, align 8
  %ref.tmp = alloca %"struct.fmt::v6::internal::error_handler", align 1
  store ptr %this, ptr %this.addr, align 8, !tbaa !187
  store ptr %value, ptr %value.addr, align 8, !tbaa !56
  %this1 = load ptr, ptr %this.addr, align 8
  %specs_ = getelementptr inbounds nuw %"class.fmt::v6::internal::arg_formatter_base", ptr %this1, i32 0, i32 1
  %0 = load ptr, ptr %specs_, align 8, !tbaa !189
  %tobool = icmp ne ptr %0, null
  br i1 %tobool, label %if.then, label %if.end

if.then:                                          ; preds = %entry
  %specs_2 = getelementptr inbounds nuw %"class.fmt::v6::internal::arg_formatter_base", ptr %this1, i32 0, i32 1
  %1 = load ptr, ptr %specs_2, align 8, !tbaa !189
  %type = getelementptr inbounds nuw %"struct.fmt::v6::basic_format_specs", ptr %1, i32 0, i32 2
  %2 = load i8, ptr %type, align 4, !tbaa !190
  call void @llvm.lifetime.start.p0(i64 1, ptr %ref.tmp) #3
  call void @_ZN3fmt2v68internal23check_pointer_type_specIcNS1_13error_handlerEEEvT_OT0_(i8 noundef signext %2, ptr noundef nonnull align 1 dereferenceable(1) %ref.tmp)
  call void @llvm.lifetime.end.p0(i64 1, ptr %ref.tmp) #3
  br label %if.end

if.end:                                           ; preds = %if.then, %entry
  %3 = load ptr, ptr %value.addr, align 8, !tbaa !56
  call void @_ZN3fmt2v68internal18arg_formatter_baseINS0_12buffer_rangeIcEENS1_13error_handlerEE13write_pointerEPKv(ptr noundef nonnull align 8 dereferenceable(24) %this1, ptr noundef %3)
  %call = call ptr @_ZN3fmt2v68internal18arg_formatter_baseINS0_12buffer_rangeIcEENS1_13error_handlerEE3outEv(ptr noundef nonnull align 8 dereferenceable(24) %this1)
  %coerce.dive = getelementptr inbounds nuw %"class.std::back_insert_iterator", ptr %retval, i32 0, i32 0
  store ptr %call, ptr %coerce.dive, align 8
  %coerce.dive3 = getelementptr inbounds nuw %"class.std::back_insert_iterator", ptr %retval, i32 0, i32 0
  %4 = load ptr, ptr %coerce.dive3, align 8
  ret ptr %4
}

; Function Attrs: mustprogress uwtable
define linkonce_odr ptr @_ZN3fmt2v613arg_formatterINS0_12buffer_rangeIcEEEclENS0_16basic_format_argINS0_20basic_format_contextISt20back_insert_iteratorINS0_8internal6bufferIcEEEcEEE6handleE(ptr noundef nonnull align 8 dereferenceable(40) %this, ptr %handle.coerce0, ptr %handle.coerce1) #4 comdat align 2 {
entry:
  %retval = alloca %"class.std::back_insert_iterator", align 8
  %handle = alloca %"class.fmt::v6::basic_format_arg<fmt::v6::basic_format_context<std::back_insert_iterator<fmt::v6::internal::buffer<char>>, char>>::handle", align 8
  %this.addr = alloca ptr, align 8
  %0 = getelementptr inbounds nuw { ptr, ptr }, ptr %handle, i32 0, i32 0
  store ptr %handle.coerce0, ptr %0, align 8
  %1 = getelementptr inbounds nuw { ptr, ptr }, ptr %handle, i32 0, i32 1
  store ptr %handle.coerce1, ptr %1, align 8
  store ptr %this, ptr %this.addr, align 8, !tbaa !173
  %this1 = load ptr, ptr %this.addr, align 8
  %parse_ctx_ = getelementptr inbounds nuw %"class.fmt::v6::arg_formatter", ptr %this1, i32 0, i32 2
  %2 = load ptr, ptr %parse_ctx_, align 8, !tbaa !182
  %ctx_ = getelementptr inbounds nuw %"class.fmt::v6::arg_formatter", ptr %this1, i32 0, i32 1
  %3 = load ptr, ptr %ctx_, align 8, !tbaa !200
  call void @_ZNK3fmt2v616basic_format_argINS0_20basic_format_contextISt20back_insert_iteratorINS0_8internal6bufferIcEEEcEEE6handle6formatERNS0_26basic_format_parse_contextIcNS4_13error_handlerEEERS8_(ptr noundef nonnull align 8 dereferenceable(16) %handle, ptr noundef nonnull align 8 dereferenceable(20) %2, ptr noundef nonnull align 8 dereferenceable(48) %3)
  %ctx_2 = getelementptr inbounds nuw %"class.fmt::v6::arg_formatter", ptr %this1, i32 0, i32 1
  %4 = load ptr, ptr %ctx_2, align 8, !tbaa !200
  %call = call ptr @_ZN3fmt2v620basic_format_contextISt20back_insert_iteratorINS0_8internal6bufferIcEEEcE3outEv(ptr noundef nonnull align 8 dereferenceable(48) %4)
  %coerce.dive = getelementptr inbounds nuw %"class.std::back_insert_iterator", ptr %retval, i32 0, i32 0
  store ptr %call, ptr %coerce.dive, align 8
  %coerce.dive3 = getelementptr inbounds nuw %"class.std::back_insert_iterator", ptr %retval, i32 0, i32 0
  %5 = load ptr, ptr %coerce.dive3, align 8
  ret ptr %5
}

; Function Attrs: mustprogress nounwind uwtable
define linkonce_odr void @_ZN3fmt2v616basic_format_argINS0_20basic_format_contextISt20back_insert_iteratorINS0_8internal6bufferIcEEEcEEE6handleC2ENS4_12custom_valueIS8_EE(ptr noundef nonnull align 8 dereferenceable(16) %this, ptr %custom.coerce0, ptr %custom.coerce1) unnamed_addr #8 comdat align 2 {
entry:
  %custom = alloca %"struct.fmt::v6::internal::custom_value", align 8
  %this.addr = alloca ptr, align 8
  %0 = getelementptr inbounds nuw { ptr, ptr }, ptr %custom, i32 0, i32 0
  store ptr %custom.coerce0, ptr %0, align 8
  %1 = getelementptr inbounds nuw { ptr, ptr }, ptr %custom, i32 0, i32 1
  store ptr %custom.coerce1, ptr %1, align 8
  store ptr %this, ptr %this.addr, align 8, !tbaa !201
  %this1 = load ptr, ptr %this.addr, align 8
  %custom_ = getelementptr inbounds nuw %"class.fmt::v6::basic_format_arg<fmt::v6::basic_format_context<std::back_insert_iterator<fmt::v6::internal::buffer<char>>, char>>::handle", ptr %this1, i32 0, i32 0
  call void @llvm.memcpy.p0.p0.i64(ptr align 8 %custom_, ptr align 8 %custom, i64 16, i1 false), !tbaa.struct !179
  ret void
}

; Function Attrs: mustprogress uwtable
define linkonce_odr ptr @_ZN3fmt2v68internal18arg_formatter_baseINS0_12buffer_rangeIcEENS1_13error_handlerEEclENS0_9monostateE(ptr noundef nonnull align 8 dereferenceable(24) %this) #4 comdat align 2 {
entry:
  %retval = alloca %"class.std::back_insert_iterator", align 8
  %0 = alloca %"struct.fmt::v6::monostate", align 1
  %this.addr = alloca ptr, align 8
  store ptr %this, ptr %this.addr, align 8, !tbaa !187
  %this1 = load ptr, ptr %this.addr, align 8
  call void @_ZN3fmt2v68internal11assert_failEPKciS3_(ptr noundef @.str.25, i32 noundef 1821, ptr noundef @.str.24)
  %call = call ptr @_ZN3fmt2v68internal18arg_formatter_baseINS0_12buffer_rangeIcEENS1_13error_handlerEE3outEv(ptr noundef nonnull align 8 dereferenceable(24) %this1)
  %coerce.dive = getelementptr inbounds nuw %"class.std::back_insert_iterator", ptr %retval, i32 0, i32 0
  store ptr %call, ptr %coerce.dive, align 8
  %coerce.dive2 = getelementptr inbounds nuw %"class.std::back_insert_iterator", ptr %retval, i32 0, i32 0
  %1 = load ptr, ptr %coerce.dive2, align 8
  ret ptr %1
}

; Function Attrs: mustprogress uwtable
define linkonce_odr void @_ZN3fmt2v68internal12basic_writerINS0_12buffer_rangeIcEEE9write_intIiNS0_18basic_format_specsIcEEEEvT_RKT0_(ptr noundef nonnull align 8 dereferenceable(16) %this, i32 noundef %value, ptr noundef nonnull align 4 dereferenceable(16) %spec) #4 comdat align 2 {
entry:
  %this.addr = alloca ptr, align 8
  %value.addr = alloca i32, align 4
  %spec.addr = alloca ptr, align 8
  %ref.tmp = alloca %"struct.fmt::v6::internal::basic_writer<fmt::v6::buffer_range<char>>::int_writer", align 8
  store ptr %this, ptr %this.addr, align 8, !tbaa !203
  store i32 %value, ptr %value.addr, align 4, !tbaa !26
  store ptr %spec, ptr %spec.addr, align 8, !tbaa !180
  %this1 = load ptr, ptr %this.addr, align 8
  %0 = load ptr, ptr %spec.addr, align 8, !tbaa !180
  %type = getelementptr inbounds nuw %"struct.fmt::v6::basic_format_specs", ptr %0, i32 0, i32 2
  %1 = load i8, ptr %type, align 4, !tbaa !190
  call void @llvm.lifetime.start.p0(i64 32, ptr %ref.tmp) #3
  %2 = load i32, ptr %value.addr, align 4, !tbaa !26
  %3 = load ptr, ptr %spec.addr, align 8, !tbaa !180
  call void @_ZN3fmt2v68internal12basic_writerINS0_12buffer_rangeIcEEE10int_writerIiNS0_18basic_format_specsIcEEEC2ERS5_iRKS8_(ptr noundef nonnull align 8 dereferenceable(28) %ref.tmp, ptr noundef nonnull align 8 dereferenceable(16) %this1, i32 noundef %2, ptr noundef nonnull align 4 dereferenceable(16) %3)
  call void @_ZN3fmt2v68internal20handle_int_type_specINS1_12basic_writerINS0_12buffer_rangeIcEEE10int_writerIiNS0_18basic_format_specsIcEEEEEEvcOT_(i8 noundef signext %1, ptr noundef nonnull align 8 dereferenceable(28) %ref.tmp)
  call void @llvm.lifetime.end.p0(i64 32, ptr %ref.tmp) #3
  ret void
}

; Function Attrs: mustprogress uwtable
define linkonce_odr void @_ZN3fmt2v68internal12basic_writerINS0_12buffer_rangeIcEEE5writeEi(ptr noundef nonnull align 8 dereferenceable(16) %this, i32 noundef %value) #4 comdat align 2 {
entry:
  %this.addr = alloca ptr, align 8
  %value.addr = alloca i32, align 4
  store ptr %this, ptr %this.addr, align 8, !tbaa !203
  store i32 %value, ptr %value.addr, align 4, !tbaa !26
  %this1 = load ptr, ptr %this.addr, align 8
  %0 = load i32, ptr %value.addr, align 4, !tbaa !26
  call void @_ZN3fmt2v68internal12basic_writerINS0_12buffer_rangeIcEEE13write_decimalIiEEvT_(ptr noundef nonnull align 8 dereferenceable(16) %this1, i32 noundef %0)
  ret void
}

; Function Attrs: mustprogress uwtable
define linkonce_odr ptr @_ZN3fmt2v68internal18arg_formatter_baseINS0_12buffer_rangeIcEENS1_13error_handlerEE3outEv(ptr noundef nonnull align 8 dereferenceable(24) %this) #4 comdat align 2 {
entry:
  %retval = alloca %"class.std::back_insert_iterator", align 8
  %this.addr = alloca ptr, align 8
  store ptr %this, ptr %this.addr, align 8, !tbaa !187
  %this1 = load ptr, ptr %this.addr, align 8
  %writer_ = getelementptr inbounds nuw %"class.fmt::v6::internal::arg_formatter_base", ptr %this1, i32 0, i32 0
  %call = call ptr @_ZNK3fmt2v68internal12basic_writerINS0_12buffer_rangeIcEEE3outEv(ptr noundef nonnull align 8 dereferenceable(16) %writer_)
  %coerce.dive = getelementptr inbounds nuw %"class.std::back_insert_iterator", ptr %retval, i32 0, i32 0
  store ptr %call, ptr %coerce.dive, align 8
  %coerce.dive2 = getelementptr inbounds nuw %"class.std::back_insert_iterator", ptr %retval, i32 0, i32 0
  %0 = load ptr, ptr %coerce.dive2, align 8
  ret ptr %0
}

; Function Attrs: mustprogress uwtable
define linkonce_odr void @_ZN3fmt2v68internal20handle_int_type_specINS1_12basic_writerINS0_12buffer_rangeIcEEE10int_writerIiNS0_18basic_format_specsIcEEEEEEvcOT_(i8 noundef signext %spec, ptr noundef nonnull align 8 dereferenceable(28) %handler) #4 comdat {
entry:
  %spec.addr = alloca i8, align 1
  %handler.addr = alloca ptr, align 8
  store i8 %spec, ptr %spec.addr, align 1, !tbaa !19
  store ptr %handler, ptr %handler.addr, align 8, !tbaa !205
  %0 = load i8, ptr %spec.addr, align 1, !tbaa !19
  %conv = sext i8 %0 to i32
  switch i32 %conv, label %sw.default [
    i32 0, label %sw.bb
    i32 100, label %sw.bb
    i32 120, label %sw.bb1
    i32 88, label %sw.bb1
    i32 98, label %sw.bb2
    i32 66, label %sw.bb2
    i32 111, label %sw.bb3
    i32 110, label %sw.bb4
  ]

sw.bb:                                            ; preds = %entry, %entry
  %1 = load ptr, ptr %handler.addr, align 8, !tbaa !205
  call void @_ZN3fmt2v68internal12basic_writerINS0_12buffer_rangeIcEEE10int_writerIiNS0_18basic_format_specsIcEEE6on_decEv(ptr noundef nonnull align 8 dereferenceable(28) %1)
  br label %sw.epilog

sw.bb1:                                           ; preds = %entry, %entry
  %2 = load ptr, ptr %handler.addr, align 8, !tbaa !205
  call void @_ZN3fmt2v68internal12basic_writerINS0_12buffer_rangeIcEEE10int_writerIiNS0_18basic_format_specsIcEEE6on_hexEv(ptr noundef nonnull align 8 dereferenceable(28) %2)
  br label %sw.epilog

sw.bb2:                                           ; preds = %entry, %entry
  %3 = load ptr, ptr %handler.addr, align 8, !tbaa !205
  call void @_ZN3fmt2v68internal12basic_writerINS0_12buffer_rangeIcEEE10int_writerIiNS0_18basic_format_specsIcEEE6on_binEv(ptr noundef nonnull align 8 dereferenceable(28) %3)
  br label %sw.epilog

sw.bb3:                                           ; preds = %entry
  %4 = load ptr, ptr %handler.addr, align 8, !tbaa !205
  call void @_ZN3fmt2v68internal12basic_writerINS0_12buffer_rangeIcEEE10int_writerIiNS0_18basic_format_specsIcEEE6on_octEv(ptr noundef nonnull align 8 dereferenceable(28) %4)
  br label %sw.epilog

sw.bb4:                                           ; preds = %entry
  %5 = load ptr, ptr %handler.addr, align 8, !tbaa !205
  call void @_ZN3fmt2v68internal12basic_writerINS0_12buffer_rangeIcEEE10int_writerIiNS0_18basic_format_specsIcEEE6on_numEv(ptr noundef nonnull align 8 dereferenceable(28) %5)
  br label %sw.epilog

sw.default:                                       ; preds = %entry
  %6 = load ptr, ptr %handler.addr, align 8, !tbaa !205
  call void @_ZN3fmt2v68internal12basic_writerINS0_12buffer_rangeIcEEE10int_writerIiNS0_18basic_format_specsIcEEE8on_errorEv(ptr noundef nonnull align 8 dereferenceable(28) %6) #22
  unreachable

sw.epilog:                                        ; preds = %sw.bb4, %sw.bb3, %sw.bb2, %sw.bb1, %sw.bb
  ret void
}

; Function Attrs: mustprogress uwtable
define linkonce_odr void @_ZN3fmt2v68internal12basic_writerINS0_12buffer_rangeIcEEE10int_writerIiNS0_18basic_format_specsIcEEEC2ERS5_iRKS8_(ptr noundef nonnull align 8 dereferenceable(28) %this, ptr noundef nonnull align 8 dereferenceable(16) %w, i32 noundef %value, ptr noundef nonnull align 4 dereferenceable(16) %s) unnamed_addr #4 comdat align 2 {
entry:
  %this.addr = alloca ptr, align 8
  %w.addr = alloca ptr, align 8
  %value.addr = alloca i32, align 4
  %s.addr = alloca ptr, align 8
  store ptr %this, ptr %this.addr, align 8, !tbaa !205
  store ptr %w, ptr %w.addr, align 8, !tbaa !203
  store i32 %value, ptr %value.addr, align 4, !tbaa !26
  store ptr %s, ptr %s.addr, align 8, !tbaa !180
  %this1 = load ptr, ptr %this.addr, align 8
  %writer = getelementptr inbounds nuw %"struct.fmt::v6::internal::basic_writer<fmt::v6::buffer_range<char>>::int_writer", ptr %this1, i32 0, i32 0
  %0 = load ptr, ptr %w.addr, align 8, !tbaa !203
  store ptr %0, ptr %writer, align 8, !tbaa !203
  %specs = getelementptr inbounds nuw %"struct.fmt::v6::internal::basic_writer<fmt::v6::buffer_range<char>>::int_writer", ptr %this1, i32 0, i32 1
  %1 = load ptr, ptr %s.addr, align 8, !tbaa !180
  store ptr %1, ptr %specs, align 8, !tbaa !180
  %abs_value = getelementptr inbounds nuw %"struct.fmt::v6::internal::basic_writer<fmt::v6::buffer_range<char>>::int_writer", ptr %this1, i32 0, i32 2
  %2 = load i32, ptr %value.addr, align 4, !tbaa !26
  store i32 %2, ptr %abs_value, align 8, !tbaa !207
  %prefix_size = getelementptr inbounds nuw %"struct.fmt::v6::internal::basic_writer<fmt::v6::buffer_range<char>>::int_writer", ptr %this1, i32 0, i32 4
  store i32 0, ptr %prefix_size, align 8, !tbaa !209
  %3 = load i32, ptr %value.addr, align 4, !tbaa !26
  %call = call noundef zeroext i1 @_ZN3fmt2v68internal11is_negativeIiTnNSt9enable_ifIXsr3std14numeric_limitsIT_EE9is_signedEiE4typeELi0EEEbS4_(i32 noundef %3)
  br i1 %call, label %if.then, label %if.else

if.then:                                          ; preds = %entry
  %prefix = getelementptr inbounds nuw %"struct.fmt::v6::internal::basic_writer<fmt::v6::buffer_range<char>>::int_writer", ptr %this1, i32 0, i32 3
  %arrayidx = getelementptr inbounds [4 x i8], ptr %prefix, i64 0, i64 0
  store i8 45, ptr %arrayidx, align 4, !tbaa !19
  %prefix_size2 = getelementptr inbounds nuw %"struct.fmt::v6::internal::basic_writer<fmt::v6::buffer_range<char>>::int_writer", ptr %this1, i32 0, i32 4
  %4 = load i32, ptr %prefix_size2, align 8, !tbaa !209
  %inc = add i32 %4, 1
  store i32 %inc, ptr %prefix_size2, align 8, !tbaa !209
  %abs_value3 = getelementptr inbounds nuw %"struct.fmt::v6::internal::basic_writer<fmt::v6::buffer_range<char>>::int_writer", ptr %this1, i32 0, i32 2
  %5 = load i32, ptr %abs_value3, align 8, !tbaa !207
  %sub = sub i32 0, %5
  %abs_value4 = getelementptr inbounds nuw %"struct.fmt::v6::internal::basic_writer<fmt::v6::buffer_range<char>>::int_writer", ptr %this1, i32 0, i32 2
  store i32 %sub, ptr %abs_value4, align 8, !tbaa !207
  br label %if.end25

if.else:                                          ; preds = %entry
  %specs5 = getelementptr inbounds nuw %"struct.fmt::v6::internal::basic_writer<fmt::v6::buffer_range<char>>::int_writer", ptr %this1, i32 0, i32 1
  %6 = load ptr, ptr %specs5, align 8, !tbaa !210
  %sign = getelementptr inbounds nuw %"struct.fmt::v6::basic_format_specs", ptr %6, i32 0, i32 3
  %bf.load = load i8, ptr %sign, align 1
  %bf.lshr = lshr i8 %bf.load, 4
  %bf.clear = and i8 %bf.lshr, 7
  %bf.cast = zext i8 %bf.clear to i32
  %cmp = icmp ne i32 %bf.cast, 0
  br i1 %cmp, label %land.lhs.true, label %if.end

land.lhs.true:                                    ; preds = %if.else
  %specs6 = getelementptr inbounds nuw %"struct.fmt::v6::internal::basic_writer<fmt::v6::buffer_range<char>>::int_writer", ptr %this1, i32 0, i32 1
  %7 = load ptr, ptr %specs6, align 8, !tbaa !210
  %sign7 = getelementptr inbounds nuw %"struct.fmt::v6::basic_format_specs", ptr %7, i32 0, i32 3
  %bf.load8 = load i8, ptr %sign7, align 1
  %bf.lshr9 = lshr i8 %bf.load8, 4
  %bf.clear10 = and i8 %bf.lshr9, 7
  %bf.cast11 = zext i8 %bf.clear10 to i32
  %cmp12 = icmp ne i32 %bf.cast11, 1
  br i1 %cmp12, label %if.then13, label %if.end

if.then13:                                        ; preds = %land.lhs.true
  %specs14 = getelementptr inbounds nuw %"struct.fmt::v6::internal::basic_writer<fmt::v6::buffer_range<char>>::int_writer", ptr %this1, i32 0, i32 1
  %8 = load ptr, ptr %specs14, align 8, !tbaa !210
  %sign15 = getelementptr inbounds nuw %"struct.fmt::v6::basic_format_specs", ptr %8, i32 0, i32 3
  %bf.load16 = load i8, ptr %sign15, align 1
  %bf.lshr17 = lshr i8 %bf.load16, 4
  %bf.clear18 = and i8 %bf.lshr17, 7
  %bf.cast19 = zext i8 %bf.clear18 to i32
  %cmp20 = icmp eq i32 %bf.cast19, 2
  %9 = zext i1 %cmp20 to i64
  %cond = select i1 %cmp20, i8 43, i8 32
  %prefix21 = getelementptr inbounds nuw %"struct.fmt::v6::internal::basic_writer<fmt::v6::buffer_range<char>>::int_writer", ptr %this1, i32 0, i32 3
  %arrayidx22 = getelementptr inbounds [4 x i8], ptr %prefix21, i64 0, i64 0
  store i8 %cond, ptr %arrayidx22, align 4, !tbaa !19
  %prefix_size23 = getelementptr inbounds nuw %"struct.fmt::v6::internal::basic_writer<fmt::v6::buffer_range<char>>::int_writer", ptr %this1, i32 0, i32 4
  %10 = load i32, ptr %prefix_size23, align 8, !tbaa !209
  %inc24 = add i32 %10, 1
  store i32 %inc24, ptr %prefix_size23, align 8, !tbaa !209
  br label %if.end

if.end:                                           ; preds = %if.then13, %land.lhs.true, %if.else
  br label %if.end25

if.end25:                                         ; preds = %if.end, %if.then
  ret void
}

; Function Attrs: mustprogress uwtable
define linkonce_odr void @_ZN3fmt2v68internal12basic_writerINS0_12buffer_rangeIcEEE10int_writerIiNS0_18basic_format_specsIcEEE6on_decEv(ptr noundef nonnull align 8 dereferenceable(28) %this) #4 comdat align 2 {
entry:
  %this.addr = alloca ptr, align 8
  %num_digits = alloca i32, align 4
  %agg.tmp = alloca %"class.fmt::v6::basic_string_view", align 8
  %agg.tmp3 = alloca %"struct.fmt::v6::basic_format_specs", align 4
  %agg.tmp4 = alloca %"struct.fmt::v6::internal::basic_writer<fmt::v6::buffer_range<char>>::int_writer<int, fmt::v6::basic_format_specs<char>>::dec_writer", align 4
  store ptr %this, ptr %this.addr, align 8, !tbaa !205
  %this1 = load ptr, ptr %this.addr, align 8
  call void @llvm.lifetime.start.p0(i64 4, ptr %num_digits) #3
  %abs_value = getelementptr inbounds nuw %"struct.fmt::v6::internal::basic_writer<fmt::v6::buffer_range<char>>::int_writer", ptr %this1, i32 0, i32 2
  %0 = load i32, ptr %abs_value, align 8, !tbaa !207
  %call = call noundef i32 @_ZN3fmt2v68internal12count_digitsEj(i32 noundef %0)
  store i32 %call, ptr %num_digits, align 4, !tbaa !26
  %writer = getelementptr inbounds nuw %"struct.fmt::v6::internal::basic_writer<fmt::v6::buffer_range<char>>::int_writer", ptr %this1, i32 0, i32 0
  %1 = load ptr, ptr %writer, align 8, !tbaa !211
  %2 = load i32, ptr %num_digits, align 4, !tbaa !26
  %call2 = call { ptr, i64 } @_ZNK3fmt2v68internal12basic_writerINS0_12buffer_rangeIcEEE10int_writerIiNS0_18basic_format_specsIcEEE10get_prefixEv(ptr noundef nonnull align 8 dereferenceable(28) %this1)
  %3 = getelementptr inbounds nuw { ptr, i64 }, ptr %agg.tmp, i32 0, i32 0
  %4 = extractvalue { ptr, i64 } %call2, 0
  store ptr %4, ptr %3, align 8
  %5 = getelementptr inbounds nuw { ptr, i64 }, ptr %agg.tmp, i32 0, i32 1
  %6 = extractvalue { ptr, i64 } %call2, 1
  store i64 %6, ptr %5, align 8
  %specs = getelementptr inbounds nuw %"struct.fmt::v6::internal::basic_writer<fmt::v6::buffer_range<char>>::int_writer", ptr %this1, i32 0, i32 1
  %7 = load ptr, ptr %specs, align 8, !tbaa !210
  call void @llvm.memcpy.p0.p0.i64(ptr align 4 %agg.tmp3, ptr align 4 %7, i64 16, i1 false), !tbaa.struct !197
  %abs_value5 = getelementptr inbounds nuw %"struct.fmt::v6::internal::basic_writer<fmt::v6::buffer_range<char>>::int_writer<int, fmt::v6::basic_format_specs<char>>::dec_writer", ptr %agg.tmp4, i32 0, i32 0
  %abs_value6 = getelementptr inbounds nuw %"struct.fmt::v6::internal::basic_writer<fmt::v6::buffer_range<char>>::int_writer", ptr %this1, i32 0, i32 2
  %8 = load i32, ptr %abs_value6, align 8, !tbaa !207
  store i32 %8, ptr %abs_value5, align 4, !tbaa !212
  %num_digits7 = getelementptr inbounds nuw %"struct.fmt::v6::internal::basic_writer<fmt::v6::buffer_range<char>>::int_writer<int, fmt::v6::basic_format_specs<char>>::dec_writer", ptr %agg.tmp4, i32 0, i32 1
  %9 = load i32, ptr %num_digits, align 4, !tbaa !26
  store i32 %9, ptr %num_digits7, align 4, !tbaa !214
  %10 = getelementptr inbounds nuw { ptr, i64 }, ptr %agg.tmp, i32 0, i32 0
  %11 = load ptr, ptr %10, align 8
  %12 = getelementptr inbounds nuw { ptr, i64 }, ptr %agg.tmp, i32 0, i32 1
  %13 = load i64, ptr %12, align 8
  %14 = getelementptr inbounds nuw { i64, i64 }, ptr %agg.tmp3, i32 0, i32 0
  %15 = load i64, ptr %14, align 4
  %16 = getelementptr inbounds nuw { i64, i64 }, ptr %agg.tmp3, i32 0, i32 1
  %17 = load i64, ptr %16, align 4
  %18 = load i64, ptr %agg.tmp4, align 4
  call void @_ZN3fmt2v68internal12basic_writerINS0_12buffer_rangeIcEEE9write_intINS5_10int_writerIiNS0_18basic_format_specsIcEEE10dec_writerEEEviNS0_17basic_string_viewIcEES9_T_(ptr noundef nonnull align 8 dereferenceable(16) %1, i32 noundef %2, ptr %11, i64 %13, i64 %15, i64 %17, i64 %18)
  call void @llvm.lifetime.end.p0(i64 4, ptr %num_digits) #3
  ret void
}

; Function Attrs: mustprogress uwtable
define linkonce_odr void @_ZN3fmt2v68internal12basic_writerINS0_12buffer_rangeIcEEE10int_writerIiNS0_18basic_format_specsIcEEE6on_hexEv(ptr noundef nonnull align 8 dereferenceable(28) %this) #4 comdat align 2 {
entry:
  %this.addr = alloca ptr, align 8
  %num_digits = alloca i32, align 4
  %agg.tmp = alloca %"class.fmt::v6::basic_string_view", align 8
  %agg.tmp9 = alloca %"struct.fmt::v6::basic_format_specs", align 4
  %agg.tmp11 = alloca %"struct.fmt::v6::internal::basic_writer<fmt::v6::buffer_range<char>>::int_writer<int, fmt::v6::basic_format_specs<char>>::hex_writer", align 8
  store ptr %this, ptr %this.addr, align 8, !tbaa !205
  %this1 = load ptr, ptr %this.addr, align 8
  %specs = getelementptr inbounds nuw %"struct.fmt::v6::internal::basic_writer<fmt::v6::buffer_range<char>>::int_writer", ptr %this1, i32 0, i32 1
  %0 = load ptr, ptr %specs, align 8, !tbaa !210
  %alt = getelementptr inbounds nuw %"struct.fmt::v6::basic_format_specs", ptr %0, i32 0, i32 3
  %bf.load = load i8, ptr %alt, align 1
  %bf.lshr = lshr i8 %bf.load, 7
  %bf.cast = trunc i8 %bf.lshr to i1
  br i1 %bf.cast, label %if.then, label %if.end

if.then:                                          ; preds = %entry
  %prefix = getelementptr inbounds nuw %"struct.fmt::v6::internal::basic_writer<fmt::v6::buffer_range<char>>::int_writer", ptr %this1, i32 0, i32 3
  %prefix_size = getelementptr inbounds nuw %"struct.fmt::v6::internal::basic_writer<fmt::v6::buffer_range<char>>::int_writer", ptr %this1, i32 0, i32 4
  %1 = load i32, ptr %prefix_size, align 8, !tbaa !209
  %inc = add i32 %1, 1
  store i32 %inc, ptr %prefix_size, align 8, !tbaa !209
  %idxprom = zext i32 %1 to i64
  %arrayidx = getelementptr inbounds nuw [4 x i8], ptr %prefix, i64 0, i64 %idxprom
  store i8 48, ptr %arrayidx, align 1, !tbaa !19
  %specs2 = getelementptr inbounds nuw %"struct.fmt::v6::internal::basic_writer<fmt::v6::buffer_range<char>>::int_writer", ptr %this1, i32 0, i32 1
  %2 = load ptr, ptr %specs2, align 8, !tbaa !210
  %type = getelementptr inbounds nuw %"struct.fmt::v6::basic_format_specs", ptr %2, i32 0, i32 2
  %3 = load i8, ptr %type, align 4, !tbaa !190
  %prefix3 = getelementptr inbounds nuw %"struct.fmt::v6::internal::basic_writer<fmt::v6::buffer_range<char>>::int_writer", ptr %this1, i32 0, i32 3
  %prefix_size4 = getelementptr inbounds nuw %"struct.fmt::v6::internal::basic_writer<fmt::v6::buffer_range<char>>::int_writer", ptr %this1, i32 0, i32 4
  %4 = load i32, ptr %prefix_size4, align 8, !tbaa !209
  %inc5 = add i32 %4, 1
  store i32 %inc5, ptr %prefix_size4, align 8, !tbaa !209
  %idxprom6 = zext i32 %4 to i64
  %arrayidx7 = getelementptr inbounds nuw [4 x i8], ptr %prefix3, i64 0, i64 %idxprom6
  store i8 %3, ptr %arrayidx7, align 1, !tbaa !19
  br label %if.end

if.end:                                           ; preds = %if.then, %entry
  call void @llvm.lifetime.start.p0(i64 4, ptr %num_digits) #3
  %abs_value = getelementptr inbounds nuw %"struct.fmt::v6::internal::basic_writer<fmt::v6::buffer_range<char>>::int_writer", ptr %this1, i32 0, i32 2
  %5 = load i32, ptr %abs_value, align 8, !tbaa !207
  %call = call noundef i32 @_ZN3fmt2v68internal12count_digitsILj4EjEEiT0_(i32 noundef %5)
  store i32 %call, ptr %num_digits, align 4, !tbaa !26
  %writer = getelementptr inbounds nuw %"struct.fmt::v6::internal::basic_writer<fmt::v6::buffer_range<char>>::int_writer", ptr %this1, i32 0, i32 0
  %6 = load ptr, ptr %writer, align 8, !tbaa !211
  %7 = load i32, ptr %num_digits, align 4, !tbaa !26
  %call8 = call { ptr, i64 } @_ZNK3fmt2v68internal12basic_writerINS0_12buffer_rangeIcEEE10int_writerIiNS0_18basic_format_specsIcEEE10get_prefixEv(ptr noundef nonnull align 8 dereferenceable(28) %this1)
  %8 = getelementptr inbounds nuw { ptr, i64 }, ptr %agg.tmp, i32 0, i32 0
  %9 = extractvalue { ptr, i64 } %call8, 0
  store ptr %9, ptr %8, align 8
  %10 = getelementptr inbounds nuw { ptr, i64 }, ptr %agg.tmp, i32 0, i32 1
  %11 = extractvalue { ptr, i64 } %call8, 1
  store i64 %11, ptr %10, align 8
  %specs10 = getelementptr inbounds nuw %"struct.fmt::v6::internal::basic_writer<fmt::v6::buffer_range<char>>::int_writer", ptr %this1, i32 0, i32 1
  %12 = load ptr, ptr %specs10, align 8, !tbaa !210
  call void @llvm.memcpy.p0.p0.i64(ptr align 4 %agg.tmp9, ptr align 4 %12, i64 16, i1 false), !tbaa.struct !197
  %self = getelementptr inbounds nuw %"struct.fmt::v6::internal::basic_writer<fmt::v6::buffer_range<char>>::int_writer<int, fmt::v6::basic_format_specs<char>>::hex_writer", ptr %agg.tmp11, i32 0, i32 0
  store ptr %this1, ptr %self, align 8, !tbaa !205
  %num_digits12 = getelementptr inbounds nuw %"struct.fmt::v6::internal::basic_writer<fmt::v6::buffer_range<char>>::int_writer<int, fmt::v6::basic_format_specs<char>>::hex_writer", ptr %agg.tmp11, i32 0, i32 1
  %13 = load i32, ptr %num_digits, align 4, !tbaa !26
  store i32 %13, ptr %num_digits12, align 8, !tbaa !215
  %14 = getelementptr inbounds nuw { ptr, i64 }, ptr %agg.tmp, i32 0, i32 0
  %15 = load ptr, ptr %14, align 8
  %16 = getelementptr inbounds nuw { ptr, i64 }, ptr %agg.tmp, i32 0, i32 1
  %17 = load i64, ptr %16, align 8
  %18 = getelementptr inbounds nuw { i64, i64 }, ptr %agg.tmp9, i32 0, i32 0
  %19 = load i64, ptr %18, align 4
  %20 = getelementptr inbounds nuw { i64, i64 }, ptr %agg.tmp9, i32 0, i32 1
  %21 = load i64, ptr %20, align 4
  call void @_ZN3fmt2v68internal12basic_writerINS0_12buffer_rangeIcEEE9write_intINS5_10int_writerIiNS0_18basic_format_specsIcEEE10hex_writerEEEviNS0_17basic_string_viewIcEES9_T_(ptr noundef nonnull align 8 dereferenceable(16) %6, i32 noundef %7, ptr %15, i64 %17, i64 %19, i64 %21, ptr noundef byval(%"struct.fmt::v6::internal::basic_writer<fmt::v6::buffer_range<char>>::int_writer<int, fmt::v6::basic_format_specs<char>>::hex_writer") align 8 %agg.tmp11)
  call void @llvm.lifetime.end.p0(i64 4, ptr %num_digits) #3
  ret void
}

; Function Attrs: mustprogress uwtable
define linkonce_odr void @_ZN3fmt2v68internal12basic_writerINS0_12buffer_rangeIcEEE10int_writerIiNS0_18basic_format_specsIcEEE6on_binEv(ptr noundef nonnull align 8 dereferenceable(28) %this) #4 comdat align 2 {
entry:
  %this.addr = alloca ptr, align 8
  %num_digits = alloca i32, align 4
  %agg.tmp = alloca %"class.fmt::v6::basic_string_view", align 8
  %agg.tmp9 = alloca %"struct.fmt::v6::basic_format_specs", align 4
  %agg.tmp11 = alloca %"struct.fmt::v6::internal::basic_writer<fmt::v6::buffer_range<char>>::int_writer<int, fmt::v6::basic_format_specs<char>>::bin_writer", align 4
  store ptr %this, ptr %this.addr, align 8, !tbaa !205
  %this1 = load ptr, ptr %this.addr, align 8
  %specs = getelementptr inbounds nuw %"struct.fmt::v6::internal::basic_writer<fmt::v6::buffer_range<char>>::int_writer", ptr %this1, i32 0, i32 1
  %0 = load ptr, ptr %specs, align 8, !tbaa !210
  %alt = getelementptr inbounds nuw %"struct.fmt::v6::basic_format_specs", ptr %0, i32 0, i32 3
  %bf.load = load i8, ptr %alt, align 1
  %bf.lshr = lshr i8 %bf.load, 7
  %bf.cast = trunc i8 %bf.lshr to i1
  br i1 %bf.cast, label %if.then, label %if.end

if.then:                                          ; preds = %entry
  %prefix = getelementptr inbounds nuw %"struct.fmt::v6::internal::basic_writer<fmt::v6::buffer_range<char>>::int_writer", ptr %this1, i32 0, i32 3
  %prefix_size = getelementptr inbounds nuw %"struct.fmt::v6::internal::basic_writer<fmt::v6::buffer_range<char>>::int_writer", ptr %this1, i32 0, i32 4
  %1 = load i32, ptr %prefix_size, align 8, !tbaa !209
  %inc = add i32 %1, 1
  store i32 %inc, ptr %prefix_size, align 8, !tbaa !209
  %idxprom = zext i32 %1 to i64
  %arrayidx = getelementptr inbounds nuw [4 x i8], ptr %prefix, i64 0, i64 %idxprom
  store i8 48, ptr %arrayidx, align 1, !tbaa !19
  %specs2 = getelementptr inbounds nuw %"struct.fmt::v6::internal::basic_writer<fmt::v6::buffer_range<char>>::int_writer", ptr %this1, i32 0, i32 1
  %2 = load ptr, ptr %specs2, align 8, !tbaa !210
  %type = getelementptr inbounds nuw %"struct.fmt::v6::basic_format_specs", ptr %2, i32 0, i32 2
  %3 = load i8, ptr %type, align 4, !tbaa !190
  %prefix3 = getelementptr inbounds nuw %"struct.fmt::v6::internal::basic_writer<fmt::v6::buffer_range<char>>::int_writer", ptr %this1, i32 0, i32 3
  %prefix_size4 = getelementptr inbounds nuw %"struct.fmt::v6::internal::basic_writer<fmt::v6::buffer_range<char>>::int_writer", ptr %this1, i32 0, i32 4
  %4 = load i32, ptr %prefix_size4, align 8, !tbaa !209
  %inc5 = add i32 %4, 1
  store i32 %inc5, ptr %prefix_size4, align 8, !tbaa !209
  %idxprom6 = zext i32 %4 to i64
  %arrayidx7 = getelementptr inbounds nuw [4 x i8], ptr %prefix3, i64 0, i64 %idxprom6
  store i8 %3, ptr %arrayidx7, align 1, !tbaa !19
  br label %if.end

if.end:                                           ; preds = %if.then, %entry
  call void @llvm.lifetime.start.p0(i64 4, ptr %num_digits) #3
  %abs_value = getelementptr inbounds nuw %"struct.fmt::v6::internal::basic_writer<fmt::v6::buffer_range<char>>::int_writer", ptr %this1, i32 0, i32 2
  %5 = load i32, ptr %abs_value, align 8, !tbaa !207
  %call = call noundef i32 @_ZN3fmt2v68internal12count_digitsILj1EjEEiT0_(i32 noundef %5)
  store i32 %call, ptr %num_digits, align 4, !tbaa !26
  %writer = getelementptr inbounds nuw %"struct.fmt::v6::internal::basic_writer<fmt::v6::buffer_range<char>>::int_writer", ptr %this1, i32 0, i32 0
  %6 = load ptr, ptr %writer, align 8, !tbaa !211
  %7 = load i32, ptr %num_digits, align 4, !tbaa !26
  %call8 = call { ptr, i64 } @_ZNK3fmt2v68internal12basic_writerINS0_12buffer_rangeIcEEE10int_writerIiNS0_18basic_format_specsIcEEE10get_prefixEv(ptr noundef nonnull align 8 dereferenceable(28) %this1)
  %8 = getelementptr inbounds nuw { ptr, i64 }, ptr %agg.tmp, i32 0, i32 0
  %9 = extractvalue { ptr, i64 } %call8, 0
  store ptr %9, ptr %8, align 8
  %10 = getelementptr inbounds nuw { ptr, i64 }, ptr %agg.tmp, i32 0, i32 1
  %11 = extractvalue { ptr, i64 } %call8, 1
  store i64 %11, ptr %10, align 8
  %specs10 = getelementptr inbounds nuw %"struct.fmt::v6::internal::basic_writer<fmt::v6::buffer_range<char>>::int_writer", ptr %this1, i32 0, i32 1
  %12 = load ptr, ptr %specs10, align 8, !tbaa !210
  call void @llvm.memcpy.p0.p0.i64(ptr align 4 %agg.tmp9, ptr align 4 %12, i64 16, i1 false), !tbaa.struct !197
  %abs_value12 = getelementptr inbounds nuw %"struct.fmt::v6::internal::basic_writer<fmt::v6::buffer_range<char>>::int_writer<int, fmt::v6::basic_format_specs<char>>::bin_writer", ptr %agg.tmp11, i32 0, i32 0
  %abs_value13 = getelementptr inbounds nuw %"struct.fmt::v6::internal::basic_writer<fmt::v6::buffer_range<char>>::int_writer", ptr %this1, i32 0, i32 2
  %13 = load i32, ptr %abs_value13, align 8, !tbaa !207
  store i32 %13, ptr %abs_value12, align 4, !tbaa !217
  %num_digits14 = getelementptr inbounds nuw %"struct.fmt::v6::internal::basic_writer<fmt::v6::buffer_range<char>>::int_writer<int, fmt::v6::basic_format_specs<char>>::bin_writer", ptr %agg.tmp11, i32 0, i32 1
  %14 = load i32, ptr %num_digits, align 4, !tbaa !26
  store i32 %14, ptr %num_digits14, align 4, !tbaa !219
  %15 = getelementptr inbounds nuw { ptr, i64 }, ptr %agg.tmp, i32 0, i32 0
  %16 = load ptr, ptr %15, align 8
  %17 = getelementptr inbounds nuw { ptr, i64 }, ptr %agg.tmp, i32 0, i32 1
  %18 = load i64, ptr %17, align 8
  %19 = getelementptr inbounds nuw { i64, i64 }, ptr %agg.tmp9, i32 0, i32 0
  %20 = load i64, ptr %19, align 4
  %21 = getelementptr inbounds nuw { i64, i64 }, ptr %agg.tmp9, i32 0, i32 1
  %22 = load i64, ptr %21, align 4
  %23 = load i64, ptr %agg.tmp11, align 4
  call void @_ZN3fmt2v68internal12basic_writerINS0_12buffer_rangeIcEEE9write_intINS5_10int_writerIiNS0_18basic_format_specsIcEEE10bin_writerILi1EEEEEviNS0_17basic_string_viewIcEES9_T_(ptr noundef nonnull align 8 dereferenceable(16) %6, i32 noundef %7, ptr %16, i64 %18, i64 %20, i64 %22, i64 %23)
  call void @llvm.lifetime.end.p0(i64 4, ptr %num_digits) #3
  ret void
}

; Function Attrs: mustprogress uwtable
define linkonce_odr void @_ZN3fmt2v68internal12basic_writerINS0_12buffer_rangeIcEEE10int_writerIiNS0_18basic_format_specsIcEEE6on_octEv(ptr noundef nonnull align 8 dereferenceable(28) %this) #4 comdat align 2 {
entry:
  %this.addr = alloca ptr, align 8
  %num_digits = alloca i32, align 4
  %agg.tmp = alloca %"class.fmt::v6::basic_string_view", align 8
  %agg.tmp7 = alloca %"struct.fmt::v6::basic_format_specs", align 4
  %agg.tmp9 = alloca %"struct.fmt::v6::internal::basic_writer<fmt::v6::buffer_range<char>>::int_writer<int, fmt::v6::basic_format_specs<char>>::bin_writer.20", align 4
  store ptr %this, ptr %this.addr, align 8, !tbaa !205
  %this1 = load ptr, ptr %this.addr, align 8
  call void @llvm.lifetime.start.p0(i64 4, ptr %num_digits) #3
  %abs_value = getelementptr inbounds nuw %"struct.fmt::v6::internal::basic_writer<fmt::v6::buffer_range<char>>::int_writer", ptr %this1, i32 0, i32 2
  %0 = load i32, ptr %abs_value, align 8, !tbaa !207
  %call = call noundef i32 @_ZN3fmt2v68internal12count_digitsILj3EjEEiT0_(i32 noundef %0)
  store i32 %call, ptr %num_digits, align 4, !tbaa !26
  %specs = getelementptr inbounds nuw %"struct.fmt::v6::internal::basic_writer<fmt::v6::buffer_range<char>>::int_writer", ptr %this1, i32 0, i32 1
  %1 = load ptr, ptr %specs, align 8, !tbaa !210
  %alt = getelementptr inbounds nuw %"struct.fmt::v6::basic_format_specs", ptr %1, i32 0, i32 3
  %bf.load = load i8, ptr %alt, align 1
  %bf.lshr = lshr i8 %bf.load, 7
  %bf.cast = trunc i8 %bf.lshr to i1
  br i1 %bf.cast, label %land.lhs.true, label %if.end

land.lhs.true:                                    ; preds = %entry
  %specs2 = getelementptr inbounds nuw %"struct.fmt::v6::internal::basic_writer<fmt::v6::buffer_range<char>>::int_writer", ptr %this1, i32 0, i32 1
  %2 = load ptr, ptr %specs2, align 8, !tbaa !210
  %precision = getelementptr inbounds nuw %"struct.fmt::v6::basic_format_specs", ptr %2, i32 0, i32 1
  %3 = load i32, ptr %precision, align 4, !tbaa !220
  %4 = load i32, ptr %num_digits, align 4, !tbaa !26
  %cmp = icmp sle i32 %3, %4
  br i1 %cmp, label %land.lhs.true3, label %if.end

land.lhs.true3:                                   ; preds = %land.lhs.true
  %abs_value4 = getelementptr inbounds nuw %"struct.fmt::v6::internal::basic_writer<fmt::v6::buffer_range<char>>::int_writer", ptr %this1, i32 0, i32 2
  %5 = load i32, ptr %abs_value4, align 8, !tbaa !207
  %cmp5 = icmp ne i32 %5, 0
  br i1 %cmp5, label %if.then, label %if.end

if.then:                                          ; preds = %land.lhs.true3
  %prefix = getelementptr inbounds nuw %"struct.fmt::v6::internal::basic_writer<fmt::v6::buffer_range<char>>::int_writer", ptr %this1, i32 0, i32 3
  %prefix_size = getelementptr inbounds nuw %"struct.fmt::v6::internal::basic_writer<fmt::v6::buffer_range<char>>::int_writer", ptr %this1, i32 0, i32 4
  %6 = load i32, ptr %prefix_size, align 8, !tbaa !209
  %inc = add i32 %6, 1
  store i32 %inc, ptr %prefix_size, align 8, !tbaa !209
  %idxprom = zext i32 %6 to i64
  %arrayidx = getelementptr inbounds nuw [4 x i8], ptr %prefix, i64 0, i64 %idxprom
  store i8 48, ptr %arrayidx, align 1, !tbaa !19
  br label %if.end

if.end:                                           ; preds = %if.then, %land.lhs.true3, %land.lhs.true, %entry
  %writer = getelementptr inbounds nuw %"struct.fmt::v6::internal::basic_writer<fmt::v6::buffer_range<char>>::int_writer", ptr %this1, i32 0, i32 0
  %7 = load ptr, ptr %writer, align 8, !tbaa !211
  %8 = load i32, ptr %num_digits, align 4, !tbaa !26
  %call6 = call { ptr, i64 } @_ZNK3fmt2v68internal12basic_writerINS0_12buffer_rangeIcEEE10int_writerIiNS0_18basic_format_specsIcEEE10get_prefixEv(ptr noundef nonnull align 8 dereferenceable(28) %this1)
  %9 = getelementptr inbounds nuw { ptr, i64 }, ptr %agg.tmp, i32 0, i32 0
  %10 = extractvalue { ptr, i64 } %call6, 0
  store ptr %10, ptr %9, align 8
  %11 = getelementptr inbounds nuw { ptr, i64 }, ptr %agg.tmp, i32 0, i32 1
  %12 = extractvalue { ptr, i64 } %call6, 1
  store i64 %12, ptr %11, align 8
  %specs8 = getelementptr inbounds nuw %"struct.fmt::v6::internal::basic_writer<fmt::v6::buffer_range<char>>::int_writer", ptr %this1, i32 0, i32 1
  %13 = load ptr, ptr %specs8, align 8, !tbaa !210
  call void @llvm.memcpy.p0.p0.i64(ptr align 4 %agg.tmp7, ptr align 4 %13, i64 16, i1 false), !tbaa.struct !197
  %abs_value10 = getelementptr inbounds nuw %"struct.fmt::v6::internal::basic_writer<fmt::v6::buffer_range<char>>::int_writer<int, fmt::v6::basic_format_specs<char>>::bin_writer.20", ptr %agg.tmp9, i32 0, i32 0
  %abs_value11 = getelementptr inbounds nuw %"struct.fmt::v6::internal::basic_writer<fmt::v6::buffer_range<char>>::int_writer", ptr %this1, i32 0, i32 2
  %14 = load i32, ptr %abs_value11, align 8, !tbaa !207
  store i32 %14, ptr %abs_value10, align 4, !tbaa !221
  %num_digits12 = getelementptr inbounds nuw %"struct.fmt::v6::internal::basic_writer<fmt::v6::buffer_range<char>>::int_writer<int, fmt::v6::basic_format_specs<char>>::bin_writer.20", ptr %agg.tmp9, i32 0, i32 1
  %15 = load i32, ptr %num_digits, align 4, !tbaa !26
  store i32 %15, ptr %num_digits12, align 4, !tbaa !223
  %16 = getelementptr inbounds nuw { ptr, i64 }, ptr %agg.tmp, i32 0, i32 0
  %17 = load ptr, ptr %16, align 8
  %18 = getelementptr inbounds nuw { ptr, i64 }, ptr %agg.tmp, i32 0, i32 1
  %19 = load i64, ptr %18, align 8
  %20 = getelementptr inbounds nuw { i64, i64 }, ptr %agg.tmp7, i32 0, i32 0
  %21 = load i64, ptr %20, align 4
  %22 = getelementptr inbounds nuw { i64, i64 }, ptr %agg.tmp7, i32 0, i32 1
  %23 = load i64, ptr %22, align 4
  %24 = load i64, ptr %agg.tmp9, align 4
  call void @_ZN3fmt2v68internal12basic_writerINS0_12buffer_rangeIcEEE9write_intINS5_10int_writerIiNS0_18basic_format_specsIcEEE10bin_writerILi3EEEEEviNS0_17basic_string_viewIcEES9_T_(ptr noundef nonnull align 8 dereferenceable(16) %7, i32 noundef %8, ptr %17, i64 %19, i64 %21, i64 %23, i64 %24)
  call void @llvm.lifetime.end.p0(i64 4, ptr %num_digits) #3
  ret void
}

; Function Attrs: mustprogress uwtable
define linkonce_odr void @_ZN3fmt2v68internal12basic_writerINS0_12buffer_rangeIcEEE10int_writerIiNS0_18basic_format_specsIcEEE6on_numEv(ptr noundef nonnull align 8 dereferenceable(28) %this) #4 comdat align 2 personality ptr @__gxx_personality_v0 {
entry:
  %this.addr = alloca ptr, align 8
  %groups = alloca %"class.std::__cxx11::basic_string", align 8
  %agg.tmp = alloca %"class.fmt::v6::internal::locale_ref", align 8
  %exn.slot = alloca ptr, align 8
  %ehselector.slot = alloca i32, align 4
  %cleanup.dest.slot = alloca i32, align 4
  %sep = alloca i8, align 1
  %agg.tmp2 = alloca %"class.fmt::v6::internal::locale_ref", align 8
  %num_digits = alloca i32, align 4
  %size = alloca i32, align 4
  %group = alloca %"class.__gnu_cxx::__normal_iterator", align 8
  %ref.tmp = alloca %"class.__gnu_cxx::__normal_iterator", align 8
  %ref.tmp33 = alloca %"class.__gnu_cxx::__normal_iterator", align 8
  %agg.tmp44 = alloca %"class.fmt::v6::basic_string_view", align 8
  %agg.tmp46 = alloca %"struct.fmt::v6::basic_format_specs", align 4
  %agg.tmp47 = alloca %"struct.fmt::v6::internal::basic_writer<fmt::v6::buffer_range<char>>::int_writer<int, fmt::v6::basic_format_specs<char>>::num_writer", align 8
  store ptr %this, ptr %this.addr, align 8, !tbaa !205
  %this1 = load ptr, ptr %this.addr, align 8
  call void @llvm.lifetime.start.p0(i64 32, ptr %groups) #3
  %writer = getelementptr inbounds nuw %"struct.fmt::v6::internal::basic_writer<fmt::v6::buffer_range<char>>::int_writer", ptr %this1, i32 0, i32 0
  %0 = load ptr, ptr %writer, align 8, !tbaa !211
  %locale_ = getelementptr inbounds nuw %"class.fmt::v6::internal::basic_writer", ptr %0, i32 0, i32 1
  call void @llvm.memcpy.p0.p0.i64(ptr align 8 %agg.tmp, ptr align 8 %locale_, i64 8, i1 false), !tbaa.struct !123
  %coerce.dive = getelementptr inbounds nuw %"class.fmt::v6::internal::locale_ref", ptr %agg.tmp, i32 0, i32 0
  %1 = load ptr, ptr %coerce.dive, align 8
  call void @_ZN3fmt2v68internal8groupingIcEENSt7__cxx1112basic_stringIcSt11char_traitsIcESaIcEEENS1_10locale_refE(ptr dead_on_unwind writable sret(%"class.std::__cxx11::basic_string") align 8 %groups, ptr %1)
  %call = call noundef zeroext i1 @_ZNKSt7__cxx1112basic_stringIcSt11char_traitsIcESaIcEE5emptyEv(ptr noundef nonnull align 8 dereferenceable(32) %groups) #3
  br i1 %call, label %if.then, label %if.end

if.then:                                          ; preds = %entry
  invoke void @_ZN3fmt2v68internal12basic_writerINS0_12buffer_rangeIcEEE10int_writerIiNS0_18basic_format_specsIcEEE6on_decEv(ptr noundef nonnull align 8 dereferenceable(28) %this1)
          to label %invoke.cont unwind label %lpad

invoke.cont:                                      ; preds = %if.then
  store i32 1, ptr %cleanup.dest.slot, align 4
  br label %cleanup58

lpad:                                             ; preds = %if.then
  %2 = landingpad { ptr, i32 }
          cleanup
  %3 = extractvalue { ptr, i32 } %2, 0
  store ptr %3, ptr %exn.slot, align 8
  %4 = extractvalue { ptr, i32 } %2, 1
  store i32 %4, ptr %ehselector.slot, align 4
  br label %ehcleanup59

if.end:                                           ; preds = %entry
  call void @llvm.lifetime.start.p0(i64 1, ptr %sep) #3
  %writer3 = getelementptr inbounds nuw %"struct.fmt::v6::internal::basic_writer<fmt::v6::buffer_range<char>>::int_writer", ptr %this1, i32 0, i32 0
  %5 = load ptr, ptr %writer3, align 8, !tbaa !211
  %locale_4 = getelementptr inbounds nuw %"class.fmt::v6::internal::basic_writer", ptr %5, i32 0, i32 1
  call void @llvm.memcpy.p0.p0.i64(ptr align 8 %agg.tmp2, ptr align 8 %locale_4, i64 8, i1 false), !tbaa.struct !123
  %coerce.dive5 = getelementptr inbounds nuw %"class.fmt::v6::internal::locale_ref", ptr %agg.tmp2, i32 0, i32 0
  %6 = load ptr, ptr %coerce.dive5, align 8
  %call8 = invoke noundef signext i8 @_ZN3fmt2v68internal13thousands_sepIcEET_NS1_10locale_refE(ptr %6)
          to label %invoke.cont7 unwind label %lpad6

invoke.cont7:                                     ; preds = %if.end
  store i8 %call8, ptr %sep, align 1, !tbaa !19
  %7 = load i8, ptr %sep, align 1, !tbaa !19
  %tobool = icmp ne i8 %7, 0
  br i1 %tobool, label %if.end11, label %if.then9

if.then9:                                         ; preds = %invoke.cont7
  invoke void @_ZN3fmt2v68internal12basic_writerINS0_12buffer_rangeIcEEE10int_writerIiNS0_18basic_format_specsIcEEE6on_decEv(ptr noundef nonnull align 8 dereferenceable(28) %this1)
          to label %invoke.cont10 unwind label %lpad6

invoke.cont10:                                    ; preds = %if.then9
  store i32 1, ptr %cleanup.dest.slot, align 4
  br label %cleanup

lpad6:                                            ; preds = %if.then9, %if.end
  %8 = landingpad { ptr, i32 }
          cleanup
  %9 = extractvalue { ptr, i32 } %8, 0
  store ptr %9, ptr %exn.slot, align 8
  %10 = extractvalue { ptr, i32 } %8, 1
  store i32 %10, ptr %ehselector.slot, align 4
  br label %ehcleanup57

if.end11:                                         ; preds = %invoke.cont7
  call void @llvm.lifetime.start.p0(i64 4, ptr %num_digits) #3
  %abs_value = getelementptr inbounds nuw %"struct.fmt::v6::internal::basic_writer<fmt::v6::buffer_range<char>>::int_writer", ptr %this1, i32 0, i32 2
  %11 = load i32, ptr %abs_value, align 8, !tbaa !207
  %call12 = call noundef i32 @_ZN3fmt2v68internal12count_digitsEj(i32 noundef %11)
  store i32 %call12, ptr %num_digits, align 4, !tbaa !26
  call void @llvm.lifetime.start.p0(i64 4, ptr %size) #3
  %12 = load i32, ptr %num_digits, align 4, !tbaa !26
  store i32 %12, ptr %size, align 4, !tbaa !26
  call void @llvm.lifetime.start.p0(i64 8, ptr %group) #3
  %call13 = call ptr @_ZNKSt7__cxx1112basic_stringIcSt11char_traitsIcESaIcEE6cbeginEv(ptr noundef nonnull align 8 dereferenceable(32) %groups) #3
  %coerce.dive14 = getelementptr inbounds nuw %"class.__gnu_cxx::__normal_iterator", ptr %group, i32 0, i32 0
  store ptr %call13, ptr %coerce.dive14, align 8
  br label %while.cond

while.cond:                                       ; preds = %while.body, %if.end11
  call void @llvm.lifetime.start.p0(i64 8, ptr %ref.tmp) #3
  %call15 = call ptr @_ZNKSt7__cxx1112basic_stringIcSt11char_traitsIcESaIcEE4cendEv(ptr noundef nonnull align 8 dereferenceable(32) %groups) #3
  %coerce.dive16 = getelementptr inbounds nuw %"class.__gnu_cxx::__normal_iterator", ptr %ref.tmp, i32 0, i32 0
  store ptr %call15, ptr %coerce.dive16, align 8
  %call17 = call noundef zeroext i1 @_ZN9__gnu_cxxneIPKcNSt7__cxx1112basic_stringIcSt11char_traitsIcESaIcEEEEEbRKNS_17__normal_iteratorIT_T0_EESE_(ptr noundef nonnull align 8 dereferenceable(8) %group, ptr noundef nonnull align 8 dereferenceable(8) %ref.tmp) #3
  br i1 %call17, label %land.lhs.true, label %land.end

land.lhs.true:                                    ; preds = %while.cond
  %13 = load i32, ptr %num_digits, align 4, !tbaa !26
  %call18 = call noundef nonnull align 1 dereferenceable(1) ptr @_ZNK9__gnu_cxx17__normal_iteratorIPKcNSt7__cxx1112basic_stringIcSt11char_traitsIcESaIcEEEEdeEv(ptr noundef nonnull align 8 dereferenceable(8) %group) #3
  %14 = load i8, ptr %call18, align 1, !tbaa !19
  %conv = sext i8 %14 to i32
  %cmp = icmp sgt i32 %13, %conv
  br i1 %cmp, label %land.lhs.true19, label %land.end

land.lhs.true19:                                  ; preds = %land.lhs.true
  %call20 = call noundef nonnull align 1 dereferenceable(1) ptr @_ZNK9__gnu_cxx17__normal_iteratorIPKcNSt7__cxx1112basic_stringIcSt11char_traitsIcESaIcEEEEdeEv(ptr noundef nonnull align 8 dereferenceable(8) %group) #3
  %15 = load i8, ptr %call20, align 1, !tbaa !19
  %conv21 = sext i8 %15 to i32
  %cmp22 = icmp sgt i32 %conv21, 0
  br i1 %cmp22, label %land.rhs, label %land.end

land.rhs:                                         ; preds = %land.lhs.true19
  %call23 = call noundef nonnull align 1 dereferenceable(1) ptr @_ZNK9__gnu_cxx17__normal_iteratorIPKcNSt7__cxx1112basic_stringIcSt11char_traitsIcESaIcEEEEdeEv(ptr noundef nonnull align 8 dereferenceable(8) %group) #3
  %16 = load i8, ptr %call23, align 1, !tbaa !19
  %conv24 = sext i8 %16 to i32
  %call27 = invoke noundef signext i8 @_ZN3fmt2v68internal9max_valueIcEET_v()
          to label %invoke.cont26 unwind label %lpad25

invoke.cont26:                                    ; preds = %land.rhs
  %conv28 = sext i8 %call27 to i32
  %cmp29 = icmp ne i32 %conv24, %conv28
  br label %land.end

land.end:                                         ; preds = %invoke.cont26, %land.lhs.true19, %land.lhs.true, %while.cond
  %17 = phi i1 [ false, %land.lhs.true19 ], [ false, %land.lhs.true ], [ false, %while.cond ], [ %cmp29, %invoke.cont26 ]
  call void @llvm.lifetime.end.p0(i64 8, ptr %ref.tmp) #3
  br i1 %17, label %while.body, label %while.end

while.body:                                       ; preds = %land.end
  %18 = load i32, ptr %size, align 4, !tbaa !26
  %add = add nsw i32 %18, 1
  store i32 %add, ptr %size, align 4, !tbaa !26
  %call30 = call noundef nonnull align 1 dereferenceable(1) ptr @_ZNK9__gnu_cxx17__normal_iteratorIPKcNSt7__cxx1112basic_stringIcSt11char_traitsIcESaIcEEEEdeEv(ptr noundef nonnull align 8 dereferenceable(8) %group) #3
  %19 = load i8, ptr %call30, align 1, !tbaa !19
  %conv31 = sext i8 %19 to i32
  %20 = load i32, ptr %num_digits, align 4, !tbaa !26
  %sub = sub nsw i32 %20, %conv31
  store i32 %sub, ptr %num_digits, align 4, !tbaa !26
  %call32 = call noundef nonnull align 8 dereferenceable(8) ptr @_ZN9__gnu_cxx17__normal_iteratorIPKcNSt7__cxx1112basic_stringIcSt11char_traitsIcESaIcEEEEppEv(ptr noundef nonnull align 8 dereferenceable(8) %group) #3
  br label %while.cond, !llvm.loop !224

lpad25:                                           ; preds = %land.rhs
  %21 = landingpad { ptr, i32 }
          cleanup
  %22 = extractvalue { ptr, i32 } %21, 0
  store ptr %22, ptr %exn.slot, align 8
  %23 = extractvalue { ptr, i32 } %21, 1
