; ModuleID = 'filter_universe-host-x86_64-unknown-linux-gnu.bc'
source_filename = "/g/g0/wright117/workspace/openmc/openmc-omp/openmc/src/tallies/filter_universe.cpp"
target datalayout = "e-m:e-p270:32:32-p271:32:32-p272:64:64-i64:64-i128:128-f80:128-n8:16:32:64-S128"
target triple = "x86_64-unknown-linux-gnu"

%"struct.std::array" = type { [6 x i32] }
%"class.std::ios_base::Init" = type { i8 }
%"class.std::unordered_map" = type { %"class.std::_Hashtable" }
%"class.std::_Hashtable" = type { ptr, i64, %"struct.std::__detail::_Hash_node_base", i64, %"struct.std::__detail::_Prime_rehash_policy", ptr }
%"struct.std::__detail::_Hash_node_base" = type { ptr }
%"struct.std::__detail::_Prime_rehash_policy" = type { float, i64 }
%"struct.std::nothrow_t" = type { i8 }
%"class.std::vector.97" = type { %"struct.std::_Vector_base.98" }
%"struct.std::_Vector_base.98" = type { %"struct.std::_Vector_base<openmc::Universe, std::allocator<openmc::Universe>>::_Vector_impl" }
%"struct.std::_Vector_base<openmc::Universe, std::allocator<openmc::Universe>>::_Vector_impl" = type { %"struct.std::_Vector_base<openmc::Universe, std::allocator<openmc::Universe>>::_Vector_impl_data" }
%"struct.std::_Vector_base<openmc::Universe, std::allocator<openmc::Universe>>::_Vector_impl_data" = type { ptr, ptr, ptr }
%"class.pugi::xml_node" = type { ptr }
%"class.std::vector" = type { %"struct.std::_Vector_base" }
%"struct.std::_Vector_base" = type { %"struct.std::_Vector_base<int, std::allocator<int>>::_Vector_impl" }
%"struct.std::_Vector_base<int, std::allocator<int>>::_Vector_impl" = type { %"struct.std::_Vector_base<int, std::allocator<int>>::_Vector_impl_data" }
%"struct.std::_Vector_base<int, std::allocator<int>>::_Vector_impl_data" = type { ptr, ptr, ptr }
%"class.__gnu_cxx::__normal_iterator" = type { ptr }
%"struct.std::__detail::_Node_iterator" = type { %"struct.std::__detail::_Node_iterator_base" }
%"struct.std::__detail::_Node_iterator_base" = type { ptr }
%"class.std::__cxx11::basic_string" = type { %"struct.std::__cxx11::basic_string<char>::_Alloc_hider", i64, %union.anon.8 }
%"struct.std::__cxx11::basic_string<char>::_Alloc_hider" = type { ptr }
%union.anon.8 = type { i64, [8 x i8] }
%"class.gsl::span" = type { ptr, ptr }
%"struct.std::pair" = type { i32, i32 }
%"class.std::__cxx11::basic_stringstream" = type { %"class.std::basic_iostream.base", %"class.std::__cxx11::basic_stringbuf", %"class.std::basic_ios" }
%"class.std::basic_iostream.base" = type { %"class.std::basic_istream.base", %"class.std::basic_ostream.base" }
%"class.std::basic_istream.base" = type { ptr, i64 }
%"class.std::basic_ostream.base" = type { ptr }
%"class.std::__cxx11::basic_stringbuf" = type { %"class.std::basic_streambuf", i32, %"class.std::__cxx11::basic_string" }
%"class.std::basic_streambuf" = type { ptr, ptr, ptr, ptr, ptr, ptr, ptr, %"class.std::locale" }
%"class.std::locale" = type { ptr }
%"class.std::basic_ios" = type { %"class.std::ios_base", ptr, i8, i8, ptr, ptr, ptr, ptr }
%"class.std::ios_base" = type { ptr, i64, i64, i32, i32, i32, ptr, %"struct.std::ios_base::_Words", [8 x %"struct.std::ios_base::_Words"], i32, ptr, %"class.std::locale" }
%"struct.std::ios_base::_Words" = type { ptr, i64 }
%"class.fmt::v6::basic_string_view" = type { ptr, i64 }
%"class.fmt::v6::basic_format_args" = type { i64, %union.anon.17 }
%union.anon.17 = type { ptr }
%"class.fmt::v6::format_arg_store" = type { [1 x %"class.fmt::v6::internal::value"] }
%"class.fmt::v6::internal::value" = type { %union.anon.18 }
%union.anon.18 = type { i128 }
%"struct.std::pair.85" = type { i32, i32 }
%"class.openmc::Filter" = type { i32, i32, i32, i64, %"class.openmc::vector", %"class.openmc::vector.9", %"class.openmc::static_map", %"class.openmc::vector.12", %"class.openmc::static_map.13", %"class.openmc::vector.9", i32, i8, %"class.openmc::vector", double, %"class.openmc::vector", double, double, i32, %"class.openmc::vector.9", i32, %"class.openmc::vector.16", i32, i32, double, double, %"class.openmc::vector.9", %"class.openmc::vector.9" }
%"class.openmc::static_map" = type <{ %"class.openmc::vector.10", %"class.openmc::vector.11", i8, [7 x i8] }>
%"class.openmc::vector.10" = type { ptr, i64, i64 }
%"class.openmc::vector.11" = type { ptr, i64, i64 }
%"class.openmc::vector.12" = type { ptr, i64, i64 }
%"class.openmc::static_map.13" = type <{ %"class.openmc::vector.14", %"class.openmc::vector.11", i8, [7 x i8] }>
%"class.openmc::vector.14" = type { ptr, i64, i64 }
%"class.openmc::vector" = type { ptr, i64, i64 }
%"class.openmc::vector.16" = type { ptr, i64, i64 }
%"class.openmc::vector.9" = type { ptr, i64, i64 }
%"class.std::allocator.5" = type { i8 }
%"class.std::basic_istream" = type { ptr, i64, %"class.std::basic_ios" }
%"struct.std::forward_iterator_tag" = type { i8 }
%struct._Guard = type { ptr }
%"struct.std::random_access_iterator_tag" = type { i8 }
%"struct.std::__detail::_Select1st" = type { i8 }
%"struct.std::__detail::_Hash_node_value_base" = type { %"struct.__gnu_cxx::__aligned_buffer" }
%"struct.__gnu_cxx::__aligned_buffer" = type { %"union.std::aligned_storage<8, 4>::type" }
%"union.std::aligned_storage<8, 4>::type" = type { [8 x i8] }
%"struct.std::__detail::_Mod_range_hashing" = type { i8 }
%"class.fmt::v6::basic_memory_buffer" = type <{ %"class.fmt::v6::internal::buffer", [500 x i8], [4 x i8] }>
%"class.fmt::v6::internal::buffer" = type { ptr, ptr, i64, i64 }
%"class.std::back_insert_iterator" = type { ptr }
%"class.fmt::v6::buffer_range" = type { %"class.fmt::v6::internal::output_range" }
%"class.fmt::v6::internal::output_range" = type { %"class.std::back_insert_iterator" }
%"class.fmt::v6::internal::locale_ref" = type { ptr }
%"struct.fmt::v6::format_handler" = type { [8 x i8], %"class.fmt::v6::basic_format_parse_context", %"class.fmt::v6::basic_format_context", %"class.fmt::v6::basic_format_arg" }
%"class.fmt::v6::basic_format_parse_context" = type <{ %"class.fmt::v6::basic_string_view", i32, [4 x i8] }>
%"class.fmt::v6::basic_format_context" = type { %"class.std::back_insert_iterator", %"class.fmt::v6::basic_format_args", %"class.fmt::v6::internal::arg_map", %"class.fmt::v6::internal::locale_ref" }
%"class.fmt::v6::internal::arg_map" = type <{ ptr, i32, [4 x i8] }>
%"class.fmt::v6::basic_format_arg" = type <{ %"class.fmt::v6::internal::value", i32, [12 x i8] }>
%"struct.fmt::v6::internal::error_handler" = type { i8 }
%struct.pfs_writer = type { ptr }
%"struct.fmt::v6::internal::id_adapter" = type { ptr }
%"class.fmt::v6::arg_formatter" = type { %"class.fmt::v6::internal::arg_formatter_base", ptr, ptr }
%"class.fmt::v6::internal::arg_formatter_base" = type { %"class.fmt::v6::internal::basic_writer", ptr }
%"class.fmt::v6::internal::basic_writer" = type { %"class.std::back_insert_iterator", %"class.fmt::v6::internal::locale_ref" }
%"class.fmt::v6::internal::custom_formatter" = type { ptr, ptr }
%"struct.fmt::v6::basic_format_specs" = type { i32, i32, i8, i8, %"struct.fmt::v6::internal::fill_t" }
%"struct.fmt::v6::internal::fill_t" = type { [6 x i8] }
%"class.fmt::v6::internal::specs_checker" = type { %"class.fmt::v6::internal::specs_handler", %"class.fmt::v6::internal::numeric_specs_checker" }
%"class.fmt::v6::internal::specs_handler" = type { %"class.fmt::v6::internal::specs_setter", ptr, ptr }
%"class.fmt::v6::internal::specs_setter" = type { ptr }
%"class.fmt::v6::internal::numeric_specs_checker" = type <{ ptr, i32, [4 x i8] }>
%"struct.fmt::v6::internal::named_arg_base" = type { %"class.fmt::v6::basic_string_view", [32 x i8] }
%"class.fmt::v6::basic_format_arg<fmt::v6::basic_format_context<std::back_insert_iterator<fmt::v6::internal::buffer<char>>, char>>::handle" = type { %"struct.fmt::v6::internal::custom_value" }
%"struct.fmt::v6::internal::custom_value" = type { ptr, ptr }
%"struct.fmt::v6::monostate" = type { i8 }
%"struct.fmt::v6::internal::string_value" = type { ptr, i64 }
%"struct.fmt::v6::internal::arg_formatter_base<fmt::v6::buffer_range<char>>::char_spec_handler" = type <{ ptr, i8, [7 x i8] }>
%"struct.fmt::v6::internal::arg_formatter_base<fmt::v6::buffer_range<char>>::cstring_spec_handler" = type { ptr, ptr }
%"struct.fmt::v6::internal::basic_writer<fmt::v6::buffer_range<char>>::int_writer" = type <{ ptr, ptr, i32, [4 x i8], i32, [4 x i8] }>
%"struct.fmt::v6::internal::basic_writer<fmt::v6::buffer_range<char>>::int_writer<int, fmt::v6::basic_format_specs<char>>::dec_writer" = type { i32, i32 }
%"struct.fmt::v6::internal::basic_writer<fmt::v6::buffer_range<char>>::int_writer<int, fmt::v6::basic_format_specs<char>>::hex_writer" = type <{ ptr, i32, [4 x i8] }>
%"struct.fmt::v6::internal::basic_writer<fmt::v6::buffer_range<char>>::int_writer<int, fmt::v6::basic_format_specs<char>>::bin_writer" = type { i32, i32 }
%"struct.fmt::v6::internal::basic_writer<fmt::v6::buffer_range<char>>::int_writer<int, fmt::v6::basic_format_specs<char>>::bin_writer.21" = type { i32, i32 }
%"class.__gnu_cxx::__normal_iterator.23" = type { ptr }
%"struct.fmt::v6::internal::basic_writer<fmt::v6::buffer_range<char>>::int_writer<int, fmt::v6::basic_format_specs<char>>::num_writer" = type <{ i32, i32, ptr, i8, [7 x i8] }>
%"struct.fmt::v6::internal::basic_writer<fmt::v6::buffer_range<char>>::padded_int_writer" = type { i64, %"class.fmt::v6::basic_string_view", i8, i64, %"struct.fmt::v6::internal::basic_writer<fmt::v6::buffer_range<char>>::int_writer<int, fmt::v6::basic_format_specs<char>>::dec_writer" }
%class.anon = type { i8 }
%struct.accessor = type { %"class.std::back_insert_iterator" }
%"struct.fmt::v6::internal::basic_writer<fmt::v6::buffer_range<char>>::padded_int_writer.19" = type { i64, %"class.fmt::v6::basic_string_view", i8, i64, %"struct.fmt::v6::internal::basic_writer<fmt::v6::buffer_range<char>>::int_writer<int, fmt::v6::basic_format_specs<char>>::hex_writer" }
%"struct.fmt::v6::internal::basic_writer<fmt::v6::buffer_range<char>>::padded_int_writer.20" = type { i64, %"class.fmt::v6::basic_string_view", i8, i64, %"struct.fmt::v6::internal::basic_writer<fmt::v6::buffer_range<char>>::int_writer<int, fmt::v6::basic_format_specs<char>>::bin_writer" }
%"struct.fmt::v6::internal::basic_writer<fmt::v6::buffer_range<char>>::padded_int_writer.22" = type { i64, %"class.fmt::v6::basic_string_view", i8, i64, %"struct.fmt::v6::internal::basic_writer<fmt::v6::buffer_range<char>>::int_writer<int, fmt::v6::basic_format_specs<char>>::bin_writer.21" }
%"struct.fmt::v6::internal::basic_writer<fmt::v6::buffer_range<char>>::padded_int_writer.24" = type { i64, %"class.fmt::v6::basic_string_view", i8, i64, %"struct.fmt::v6::internal::basic_writer<fmt::v6::buffer_range<char>>::int_writer<int, fmt::v6::basic_format_specs<char>>::num_writer" }
%class.anon.25 = type { ptr, %"class.fmt::v6::basic_string_view", ptr, ptr }
%"struct.fmt::v6::internal::basic_writer<fmt::v6::buffer_range<char>>::int_writer.26" = type <{ ptr, ptr, i32, [4 x i8], i32, [4 x i8] }>
%"struct.fmt::v6::internal::basic_writer<fmt::v6::buffer_range<char>>::int_writer<unsigned int, fmt::v6::basic_format_specs<char>>::dec_writer" = type { i32, i32 }
%"struct.fmt::v6::internal::basic_writer<fmt::v6::buffer_range<char>>::int_writer<unsigned int, fmt::v6::basic_format_specs<char>>::hex_writer" = type <{ ptr, i32, [4 x i8] }>
%"struct.fmt::v6::internal::basic_writer<fmt::v6::buffer_range<char>>::int_writer<unsigned int, fmt::v6::basic_format_specs<char>>::bin_writer" = type { i32, i32 }
%"struct.fmt::v6::internal::basic_writer<fmt::v6::buffer_range<char>>::int_writer<unsigned int, fmt::v6::basic_format_specs<char>>::bin_writer.31" = type { i32, i32 }
%"struct.fmt::v6::internal::basic_writer<fmt::v6::buffer_range<char>>::int_writer<unsigned int, fmt::v6::basic_format_specs<char>>::num_writer" = type <{ i32, i32, ptr, i8, [7 x i8] }>
%"struct.fmt::v6::internal::basic_writer<fmt::v6::buffer_range<char>>::padded_int_writer.28" = type { i64, %"class.fmt::v6::basic_string_view", i8, i64, %"struct.fmt::v6::internal::basic_writer<fmt::v6::buffer_range<char>>::int_writer<unsigned int, fmt::v6::basic_format_specs<char>>::dec_writer" }
%"struct.fmt::v6::internal::basic_writer<fmt::v6::buffer_range<char>>::padded_int_writer.29" = type { i64, %"class.fmt::v6::basic_string_view", i8, i64, %"struct.fmt::v6::internal::basic_writer<fmt::v6::buffer_range<char>>::int_writer<unsigned int, fmt::v6::basic_format_specs<char>>::hex_writer" }
%"struct.fmt::v6::internal::basic_writer<fmt::v6::buffer_range<char>>::padded_int_writer.30" = type { i64, %"class.fmt::v6::basic_string_view", i8, i64, %"struct.fmt::v6::internal::basic_writer<fmt::v6::buffer_range<char>>::int_writer<unsigned int, fmt::v6::basic_format_specs<char>>::bin_writer" }
%"struct.fmt::v6::internal::basic_writer<fmt::v6::buffer_range<char>>::padded_int_writer.32" = type { i64, %"class.fmt::v6::basic_string_view", i8, i64, %"struct.fmt::v6::internal::basic_writer<fmt::v6::buffer_range<char>>::int_writer<unsigned int, fmt::v6::basic_format_specs<char>>::bin_writer.31" }
%"struct.fmt::v6::internal::basic_writer<fmt::v6::buffer_range<char>>::padded_int_writer.33" = type { i64, %"class.fmt::v6::basic_string_view", i8, i64, %"struct.fmt::v6::internal::basic_writer<fmt::v6::buffer_range<char>>::int_writer<unsigned int, fmt::v6::basic_format_specs<char>>::num_writer" }
%class.anon.34 = type { ptr, %"class.fmt::v6::basic_string_view", ptr, ptr }
%"struct.fmt::v6::internal::basic_writer<fmt::v6::buffer_range<char>>::int_writer.35" = type { ptr, ptr, i64, [4 x i8], i32 }
%"struct.fmt::v6::internal::basic_writer<fmt::v6::buffer_range<char>>::int_writer<long long, fmt::v6::basic_format_specs<char>>::dec_writer" = type { i64, i32 }
%"struct.fmt::v6::internal::basic_writer<fmt::v6::buffer_range<char>>::int_writer<long long, fmt::v6::basic_format_specs<char>>::hex_writer" = type <{ ptr, i32, [4 x i8] }>
%"struct.fmt::v6::internal::basic_writer<fmt::v6::buffer_range<char>>::int_writer<long long, fmt::v6::basic_format_specs<char>>::bin_writer" = type { i64, i32 }
%"struct.fmt::v6::internal::basic_writer<fmt::v6::buffer_range<char>>::int_writer<long long, fmt::v6::basic_format_specs<char>>::bin_writer.41" = type { i64, i32 }
%"struct.fmt::v6::internal::basic_writer<fmt::v6::buffer_range<char>>::int_writer<long long, fmt::v6::basic_format_specs<char>>::num_writer" = type <{ i64, i32, [4 x i8], ptr, i8, [7 x i8] }>
%"struct.fmt::v6::internal::basic_writer<fmt::v6::buffer_range<char>>::padded_int_writer.36" = type { i64, %"class.fmt::v6::basic_string_view", i8, i64, %"struct.fmt::v6::internal::basic_writer<fmt::v6::buffer_range<char>>::int_writer<long long, fmt::v6::basic_format_specs<char>>::dec_writer" }
%class.anon.37 = type { i8 }
%"struct.fmt::v6::internal::basic_writer<fmt::v6::buffer_range<char>>::padded_int_writer.39" = type { i64, %"class.fmt::v6::basic_string_view", i8, i64, %"struct.fmt::v6::internal::basic_writer<fmt::v6::buffer_range<char>>::int_writer<long long, fmt::v6::basic_format_specs<char>>::hex_writer" }
%"struct.fmt::v6::internal::basic_writer<fmt::v6::buffer_range<char>>::padded_int_writer.40" = type { i64, %"class.fmt::v6::basic_string_view", i8, i64, %"struct.fmt::v6::internal::basic_writer<fmt::v6::buffer_range<char>>::int_writer<long long, fmt::v6::basic_format_specs<char>>::bin_writer" }
%"struct.fmt::v6::internal::basic_writer<fmt::v6::buffer_range<char>>::padded_int_writer.42" = type { i64, %"class.fmt::v6::basic_string_view", i8, i64, %"struct.fmt::v6::internal::basic_writer<fmt::v6::buffer_range<char>>::int_writer<long long, fmt::v6::basic_format_specs<char>>::bin_writer.41" }
%"struct.fmt::v6::internal::basic_writer<fmt::v6::buffer_range<char>>::padded_int_writer.43" = type { i64, %"class.fmt::v6::basic_string_view", i8, i64, %"struct.fmt::v6::internal::basic_writer<fmt::v6::buffer_range<char>>::int_writer<long long, fmt::v6::basic_format_specs<char>>::num_writer" }
%class.anon.44 = type { ptr, %"class.fmt::v6::basic_string_view", ptr, ptr }
%"struct.fmt::v6::internal::basic_writer<fmt::v6::buffer_range<char>>::int_writer.45" = type { ptr, ptr, i64, [4 x i8], i32 }
%"struct.fmt::v6::internal::basic_writer<fmt::v6::buffer_range<char>>::int_writer<unsigned long long, fmt::v6::basic_format_specs<char>>::dec_writer" = type { i64, i32 }
%"struct.fmt::v6::internal::basic_writer<fmt::v6::buffer_range<char>>::int_writer<unsigned long long, fmt::v6::basic_format_specs<char>>::hex_writer" = type <{ ptr, i32, [4 x i8] }>
%"struct.fmt::v6::internal::basic_writer<fmt::v6::buffer_range<char>>::int_writer<unsigned long long, fmt::v6::basic_format_specs<char>>::bin_writer" = type { i64, i32 }
%"struct.fmt::v6::internal::basic_writer<fmt::v6::buffer_range<char>>::int_writer<unsigned long long, fmt::v6::basic_format_specs<char>>::bin_writer.49" = type { i64, i32 }
%"struct.fmt::v6::internal::basic_writer<fmt::v6::buffer_range<char>>::int_writer<unsigned long long, fmt::v6::basic_format_specs<char>>::num_writer" = type <{ i64, i32, [4 x i8], ptr, i8, [7 x i8] }>
%"struct.fmt::v6::internal::basic_writer<fmt::v6::buffer_range<char>>::padded_int_writer.46" = type { i64, %"class.fmt::v6::basic_string_view", i8, i64, %"struct.fmt::v6::internal::basic_writer<fmt::v6::buffer_range<char>>::int_writer<unsigned long long, fmt::v6::basic_format_specs<char>>::dec_writer" }
%"struct.fmt::v6::internal::basic_writer<fmt::v6::buffer_range<char>>::padded_int_writer.47" = type { i64, %"class.fmt::v6::basic_string_view", i8, i64, %"struct.fmt::v6::internal::basic_writer<fmt::v6::buffer_range<char>>::int_writer<unsigned long long, fmt::v6::basic_format_specs<char>>::hex_writer" }
%"struct.fmt::v6::internal::basic_writer<fmt::v6::buffer_range<char>>::padded_int_writer.48" = type { i64, %"class.fmt::v6::basic_string_view", i8, i64, %"struct.fmt::v6::internal::basic_writer<fmt::v6::buffer_range<char>>::int_writer<unsigned long long, fmt::v6::basic_format_specs<char>>::bin_writer" }
%"struct.fmt::v6::internal::basic_writer<fmt::v6::buffer_range<char>>::padded_int_writer.50" = type { i64, %"class.fmt::v6::basic_string_view", i8, i64, %"struct.fmt::v6::internal::basic_writer<fmt::v6::buffer_range<char>>::int_writer<unsigned long long, fmt::v6::basic_format_specs<char>>::bin_writer.49" }
%"struct.fmt::v6::internal::basic_writer<fmt::v6::buffer_range<char>>::padded_int_writer.51" = type { i64, %"class.fmt::v6::basic_string_view", i8, i64, %"struct.fmt::v6::internal::basic_writer<fmt::v6::buffer_range<char>>::int_writer<unsigned long long, fmt::v6::basic_format_specs<char>>::num_writer" }
%class.anon.52 = type { ptr, %"class.fmt::v6::basic_string_view", ptr, ptr }
%"struct.fmt::v6::internal::basic_writer<fmt::v6::buffer_range<char>>::int_writer.53" = type <{ ptr, ptr, i128, [4 x i8], i32, [8 x i8] }>
%"struct.fmt::v6::internal::basic_writer<fmt::v6::buffer_range<char>>::int_writer<__int128, fmt::v6::basic_format_specs<char>>::dec_writer" = type { i128, i32 }
%"struct.fmt::v6::internal::basic_writer<fmt::v6::buffer_range<char>>::int_writer<__int128, fmt::v6::basic_format_specs<char>>::hex_writer" = type <{ ptr, i32, [4 x i8] }>
%"struct.fmt::v6::internal::basic_writer<fmt::v6::buffer_range<char>>::int_writer<__int128, fmt::v6::basic_format_specs<char>>::bin_writer" = type { i128, i32 }
%"struct.fmt::v6::internal::basic_writer<fmt::v6::buffer_range<char>>::int_writer<__int128, fmt::v6::basic_format_specs<char>>::bin_writer.60" = type { i128, i32 }
%"struct.fmt::v6::internal::basic_writer<fmt::v6::buffer_range<char>>::int_writer<__int128, fmt::v6::basic_format_specs<char>>::num_writer" = type <{ i128, i32, [4 x i8], ptr, i8, [15 x i8] }>
%"struct.fmt::v6::internal::basic_writer<fmt::v6::buffer_range<char>>::padded_int_writer.55" = type { i64, %"class.fmt::v6::basic_string_view", i8, i64, %"struct.fmt::v6::internal::basic_writer<fmt::v6::buffer_range<char>>::int_writer<__int128, fmt::v6::basic_format_specs<char>>::dec_writer" }
%class.anon.56 = type { i8 }
%"struct.fmt::v6::internal::basic_writer<fmt::v6::buffer_range<char>>::padded_int_writer.58" = type { i64, %"class.fmt::v6::basic_string_view", i8, i64, %"struct.fmt::v6::internal::basic_writer<fmt::v6::buffer_range<char>>::int_writer<__int128, fmt::v6::basic_format_specs<char>>::hex_writer" }
%"struct.fmt::v6::internal::basic_writer<fmt::v6::buffer_range<char>>::padded_int_writer.59" = type { i64, %"class.fmt::v6::basic_string_view", i8, i64, %"struct.fmt::v6::internal::basic_writer<fmt::v6::buffer_range<char>>::int_writer<__int128, fmt::v6::basic_format_specs<char>>::bin_writer" }
%"struct.fmt::v6::internal::basic_writer<fmt::v6::buffer_range<char>>::padded_int_writer.61" = type { i64, %"class.fmt::v6::basic_string_view", i8, i64, %"struct.fmt::v6::internal::basic_writer<fmt::v6::buffer_range<char>>::int_writer<__int128, fmt::v6::basic_format_specs<char>>::bin_writer.60" }
%"struct.fmt::v6::internal::basic_writer<fmt::v6::buffer_range<char>>::padded_int_writer.62" = type { i64, %"class.fmt::v6::basic_string_view", i8, i64, [8 x i8], %"struct.fmt::v6::internal::basic_writer<fmt::v6::buffer_range<char>>::int_writer<__int128, fmt::v6::basic_format_specs<char>>::num_writer" }
%class.anon.63 = type { ptr, %"class.fmt::v6::basic_string_view", ptr, ptr }
%"struct.fmt::v6::internal::basic_writer<fmt::v6::buffer_range<char>>::int_writer.64" = type <{ ptr, ptr, i128, [4 x i8], i32, [8 x i8] }>
%"struct.fmt::v6::internal::basic_writer<fmt::v6::buffer_range<char>>::int_writer<unsigned __int128, fmt::v6::basic_format_specs<char>>::dec_writer" = type { i128, i32 }
%"struct.fmt::v6::internal::basic_writer<fmt::v6::buffer_range<char>>::int_writer<unsigned __int128, fmt::v6::basic_format_specs<char>>::hex_writer" = type <{ ptr, i32, [4 x i8] }>
%"struct.fmt::v6::internal::basic_writer<fmt::v6::buffer_range<char>>::int_writer<unsigned __int128, fmt::v6::basic_format_specs<char>>::bin_writer" = type { i128, i32 }
%"struct.fmt::v6::internal::basic_writer<fmt::v6::buffer_range<char>>::int_writer<unsigned __int128, fmt::v6::basic_format_specs<char>>::bin_writer.69" = type { i128, i32 }
%"struct.fmt::v6::internal::basic_writer<fmt::v6::buffer_range<char>>::int_writer<unsigned __int128, fmt::v6::basic_format_specs<char>>::num_writer" = type <{ i128, i32, [4 x i8], ptr, i8, [15 x i8] }>
%"struct.fmt::v6::internal::basic_writer<fmt::v6::buffer_range<char>>::padded_int_writer.66" = type { i64, %"class.fmt::v6::basic_string_view", i8, i64, %"struct.fmt::v6::internal::basic_writer<fmt::v6::buffer_range<char>>::int_writer<unsigned __int128, fmt::v6::basic_format_specs<char>>::dec_writer" }
%"struct.fmt::v6::internal::basic_writer<fmt::v6::buffer_range<char>>::padded_int_writer.67" = type { i64, %"class.fmt::v6::basic_string_view", i8, i64, %"struct.fmt::v6::internal::basic_writer<fmt::v6::buffer_range<char>>::int_writer<unsigned __int128, fmt::v6::basic_format_specs<char>>::hex_writer" }
%"struct.fmt::v6::internal::basic_writer<fmt::v6::buffer_range<char>>::padded_int_writer.68" = type { i64, %"class.fmt::v6::basic_string_view", i8, i64, %"struct.fmt::v6::internal::basic_writer<fmt::v6::buffer_range<char>>::int_writer<unsigned __int128, fmt::v6::basic_format_specs<char>>::bin_writer" }
%"struct.fmt::v6::internal::basic_writer<fmt::v6::buffer_range<char>>::padded_int_writer.70" = type { i64, %"class.fmt::v6::basic_string_view", i8, i64, %"struct.fmt::v6::internal::basic_writer<fmt::v6::buffer_range<char>>::int_writer<unsigned __int128, fmt::v6::basic_format_specs<char>>::bin_writer.69" }
%"struct.fmt::v6::internal::basic_writer<fmt::v6::buffer_range<char>>::padded_int_writer.71" = type { i64, %"class.fmt::v6::basic_string_view", i8, i64, [8 x i8], %"struct.fmt::v6::internal::basic_writer<fmt::v6::buffer_range<char>>::int_writer<unsigned __int128, fmt::v6::basic_format_specs<char>>::num_writer" }
%class.anon.72 = type { ptr, %"class.fmt::v6::basic_string_view", ptr, ptr }
%"struct.fmt::v6::internal::basic_writer<fmt::v6::buffer_range<char>>::str_writer" = type { ptr, i64 }
%"struct.fmt::v6::internal::arg_formatter_base<fmt::v6::buffer_range<char>>::char_writer" = type { i8 }
%"struct.fmt::v6::internal::basic_writer<fmt::v6::buffer_range<char>>::int_writer.73" = type <{ ptr, ptr, i32, [4 x i8], i32, [4 x i8] }>
%"struct.fmt::v6::internal::basic_writer<fmt::v6::buffer_range<char>>::int_writer<char, fmt::v6::basic_format_specs<char>>::dec_writer" = type { i32, i32 }
%"struct.fmt::v6::internal::basic_writer<fmt::v6::buffer_range<char>>::int_writer<char, fmt::v6::basic_format_specs<char>>::hex_writer" = type <{ ptr, i32, [4 x i8] }>
%"struct.fmt::v6::internal::basic_writer<fmt::v6::buffer_range<char>>::int_writer<char, fmt::v6::basic_format_specs<char>>::bin_writer" = type { i32, i32 }
%"struct.fmt::v6::internal::basic_writer<fmt::v6::buffer_range<char>>::int_writer<char, fmt::v6::basic_format_specs<char>>::bin_writer.78" = type { i32, i32 }
%"struct.fmt::v6::internal::basic_writer<fmt::v6::buffer_range<char>>::int_writer<char, fmt::v6::basic_format_specs<char>>::num_writer" = type <{ i32, i32, ptr, i8, [7 x i8] }>
%"struct.fmt::v6::internal::basic_writer<fmt::v6::buffer_range<char>>::padded_int_writer.75" = type { i64, %"class.fmt::v6::basic_string_view", i8, i64, %"struct.fmt::v6::internal::basic_writer<fmt::v6::buffer_range<char>>::int_writer<char, fmt::v6::basic_format_specs<char>>::dec_writer" }
%"struct.fmt::v6::internal::basic_writer<fmt::v6::buffer_range<char>>::padded_int_writer.76" = type { i64, %"class.fmt::v6::basic_string_view", i8, i64, %"struct.fmt::v6::internal::basic_writer<fmt::v6::buffer_range<char>>::int_writer<char, fmt::v6::basic_format_specs<char>>::hex_writer" }
%"struct.fmt::v6::internal::basic_writer<fmt::v6::buffer_range<char>>::padded_int_writer.77" = type { i64, %"class.fmt::v6::basic_string_view", i8, i64, %"struct.fmt::v6::internal::basic_writer<fmt::v6::buffer_range<char>>::int_writer<char, fmt::v6::basic_format_specs<char>>::bin_writer" }
%"struct.fmt::v6::internal::basic_writer<fmt::v6::buffer_range<char>>::padded_int_writer.79" = type { i64, %"class.fmt::v6::basic_string_view", i8, i64, %"struct.fmt::v6::internal::basic_writer<fmt::v6::buffer_range<char>>::int_writer<char, fmt::v6::basic_format_specs<char>>::bin_writer.78" }
%"struct.fmt::v6::internal::basic_writer<fmt::v6::buffer_range<char>>::padded_int_writer.80" = type { i64, %"class.fmt::v6::basic_string_view", i8, i64, %"struct.fmt::v6::internal::basic_writer<fmt::v6::buffer_range<char>>::int_writer<char, fmt::v6::basic_format_specs<char>>::num_writer" }
%class.anon.81 = type { ptr, %"class.fmt::v6::basic_string_view", ptr, ptr }
%"struct.fmt::v6::internal::float_specs" = type { i32, i32 }
%"struct.fmt::v6::internal::nonfinite_writer" = type { i32, ptr }
%"struct.std::is_same" = type { i8 }
%"class.fmt::v6::internal::float_writer" = type <{ ptr, i32, i32, i64, %"struct.fmt::v6::internal::float_specs", i8, [7 x i8] }>
%"class.fmt::v6::internal::counting_iterator" = type { i64 }
%"struct.fmt::v6::internal::counting_iterator::value_type" = type { i8 }
%"struct.std::output_iterator_tag" = type { i8 }
%"struct.std::is_same.82" = type { i8 }
%"struct.std::is_same.84" = type { i8 }
%"struct.fmt::v6::internal::basic_writer<fmt::v6::buffer_range<char>>::pointer_writer" = type { i64, i32 }
%"struct.fmt::v6::internal::arg_map<fmt::v6::basic_format_context<std::back_insert_iterator<fmt::v6::internal::buffer<char>>, char>>::entry" = type { %"class.fmt::v6::basic_string_view", %"class.fmt::v6::basic_format_arg" }
%"struct.fmt::v6::internal::width_adapter" = type { ptr }
%"struct.fmt::v6::internal::precision_adapter" = type { ptr }
%"struct.fmt::v6::internal::auto_id" = type { i8 }
%"class.fmt::v6::internal::width_checker" = type { ptr }
%"class.fmt::v6::internal::precision_checker" = type { ptr }
%"struct.fmt::v6::internal::arg_mapper" = type { i8 }
%"struct.std::pair.87" = type { i64, i64 }
%"struct.openmc::static_map<int, int>::HashComparator" = type <{ ptr, i32, [4 x i8] }>
%"struct.__gnu_cxx::__ops::_Iter_comp_iter" = type { %"struct.openmc::static_map<int, int>::HashComparator" }
%"struct.__gnu_cxx::__ops::_Iter_less_val" = type { i8 }
%"class.std::_Temporary_buffer" = type { i64, i64, ptr }
%"struct.std::pair.89" = type { ptr, i64 }
%"struct.__gnu_cxx::__ops::_Val_comp_iter" = type { %"struct.openmc::static_map<int, int>::HashComparator" }
%"struct.__gnu_cxx::__ops::_Iter_comp_val" = type { %"struct.openmc::static_map<int, int>::HashComparator" }
%"class.openmc::Particle" = type { %"class.openmc::NuclideMicroXSCache", [9 x %"struct.openmc::ElementMicroXS"], %"struct.openmc::MacroXS", i64, i32, i32, i32, [4 x i8], [6 x %"class.openmc::LocalCoord"], i32, [6 x i32], double, double, i32, i32, double, double, %"struct.openmc::Position", %"struct.openmc::Position", %"struct.openmc::Position", double, i8, i32, i32, i32, i32, i32, i32, double, [8 x i32], i32, i32, i32, i32, %"struct.openmc::BoundaryInfo", double, double, i32, i8, [8 x i64], i32, [5 x %"struct.openmc::Particle::Bank"], i64, i64, [1 x double], ptr, %"class.std::vector.92", [16 x %"struct.openmc::Particle::NuBank"], double, double, double, double, i8, double, double, i32, i64 }
%"class.openmc::NuclideMicroXSCache" = type { [1 x %"struct.openmc::NuclideMicroXS"] }
%"struct.openmc::NuclideMicroXS" = type { double, double, double, double, double, double, double, double, [6 x double], i32, i32, double, i32, i32, double, i8, double, double }
%"struct.openmc::ElementMicroXS" = type { i32, double, double, double, double, double, double, double }
%"struct.openmc::MacroXS" = type { double, double, double, double, double, [6 x double], double, double, double, double }
%"class.openmc::LocalCoord" = type <{ %"struct.openmc::Position", %"struct.openmc::Position", i32, i32, i32, i32, i32, i32, i8, [7 x i8] }>
%"struct.openmc::Position" = type { double, double, double }
%"struct.openmc::BoundaryInfo" = type <{ double, i32, i32, %"struct.std::array.91", [4 x i8] }>
%"struct.std::array.91" = type { [3 x i32] }
%"struct.openmc::Particle::Bank" = type { %"struct.openmc::Position", %"struct.openmc::Position", double, double, i32, i32, i32, i64, i64 }
%"class.std::vector.92" = type { %"struct.std::_Vector_base.93" }
%"struct.std::_Vector_base.93" = type { %"struct.std::_Vector_base<std::vector<openmc::Position>, std::allocator<std::vector<openmc::Position>>>::_Vector_impl" }
%"struct.std::_Vector_base<std::vector<openmc::Position>, std::allocator<std::vector<openmc::Position>>>::_Vector_impl" = type { %"struct.std::_Vector_base<std::vector<openmc::Position>, std::allocator<std::vector<openmc::Position>>>::_Vector_impl_data" }
%"struct.std::_Vector_base<std::vector<openmc::Position>, std::allocator<std::vector<openmc::Position>>>::_Vector_impl_data" = type { ptr, ptr, ptr }
%"struct.openmc::Particle::NuBank" = type { double, double, i32 }
%"class.openmc::FilterMatch" = type <{ [125 x i32], [4 x i8], [125 x double], i32, i32, i8, [7 x i8] }>
%"class.openmc::Universe" = type { i32, %"class.openmc::vector.9", ptr }

$_ZN6openmc14get_node_arrayIiEESt6vectorIT_SaIS2_EEN4pugi8xml_nodeEPKcb = comdat any

$_ZNSt6vectorIiSaIiEE5beginEv = comdat any

$_ZNSt6vectorIiSaIiEE3endEv = comdat any

$_ZN9__gnu_cxxneIPiSt6vectorIiSaIiEEEEbRKNS_17__normal_iteratorIT_T0_EESA_ = comdat any

$_ZNK9__gnu_cxx17__normal_iteratorIPiSt6vectorIiSaIiEEEdeEv = comdat any

$_ZNSt13unordered_mapIiiSt4hashIiESt8equal_toIiESaISt4pairIKiiEEE4findERS5_ = comdat any

$_ZNSt8__detaileqERKNS_19_Node_iterator_baseISt4pairIKiiELb0EEES6_ = comdat any

$_ZNSt13unordered_mapIiiSt4hashIiESt8equal_toIiESaISt4pairIKiiEEE3endEv = comdat any

$_ZN3fmt2v66formatIA54_cJRiEcEENSt7__cxx1112basic_stringIT1_St11char_traitsIS6_ESaIS6_EEERKT_DpOT0_ = comdat any

$_ZNKSt8__detail14_Node_iteratorISt4pairIKiiELb0ELb0EEptEv = comdat any

$_ZN9__gnu_cxx17__normal_iteratorIPiSt6vectorIiSaIiEEEppEv = comdat any

$_ZN3gsl4spanIiEC2ISt6vectorIiSaIiEETnNSt9enable_ifIXsr6detail23is_compatible_containerIT_iEE5valueEiE4typeELi0EEERS7_ = comdat any

$_ZNSt6vectorIiSaIiEED2Ev = comdat any

$_ZStorSt13_Ios_OpenmodeS_ = comdat any

$_ZNSt6vectorIiSaIiEEC2Ev = comdat any

$_ZNSt6vectorIiSaIiEE9push_backERKi = comdat any

$_ZNSt7__cxx1115basic_stringbufIcSt11char_traitsIcESaIcEED2Ev = comdat any

$_ZNSt15__new_allocatorIcED2Ev = comdat any

$__clang_call_terminate = comdat any

$_ZNSt15__new_allocatorIcEC2ERKS0_ = comdat any

$_ZNSt7__cxx1112basic_stringIcSt11char_traitsIcESaIcEE12_M_constructIPKcEEvT_S8_St20forward_iterator_tag = comdat any

$_ZNSt19__ptr_traits_ptr_toIPccLb0EE10pointer_toERc = comdat any

$_ZSt8distanceIPKcENSt15iterator_traitsIT_E15difference_typeES3_S3_ = comdat any

$_ZZNSt7__cxx1112basic_stringIcSt11char_traitsIcESaIcEE12_M_constructIPKcEEvT_S8_St20forward_iterator_tagEN6_GuardC2EPS4_ = comdat any

$_ZZNSt7__cxx1112basic_stringIcSt11char_traitsIcESaIcEE12_M_constructIPKcEEvT_S8_St20forward_iterator_tagEN6_GuardD2Ev = comdat any

$_ZSt10__distanceIPKcENSt15iterator_traitsIT_E15difference_typeES3_S3_St26random_access_iterator_tag = comdat any

$_ZSt19__iterator_categoryIPKcENSt15iterator_traitsIT_E17iterator_categoryERKS3_ = comdat any

$_ZNSt11char_traitsIcE6assignERcRKc = comdat any

$_ZNSt11char_traitsIcE4copyEPcPKcm = comdat any

$_ZNSt19__ptr_traits_ptr_toIPKcS0_Lb0EE10pointer_toERS0_ = comdat any

$_ZNSt16allocator_traitsISaIcEE10deallocateERS0_Pcm = comdat any

$_ZNSt15__new_allocatorIcE10deallocateEPcm = comdat any

$_ZStanSt13_Ios_OpenmodeS_ = comdat any

$_ZNSt12_Vector_baseIiSaIiEEC2Ev = comdat any

$_ZNSt12_Vector_baseIiSaIiEE12_Vector_implC2Ev = comdat any

$_ZNSaIiEC2Ev = comdat any

$_ZNSt12_Vector_baseIiSaIiEE17_Vector_impl_dataC2Ev = comdat any

$_ZNSt15__new_allocatorIiEC2Ev = comdat any

$_ZStanSt12_Ios_IostateS_ = comdat any

$_ZStorSt12_Ios_IostateS_ = comdat any

$_ZNSt16allocator_traitsISaIiEE9constructIiJRKiEEEvRS0_PT_DpOT0_ = comdat any

$_ZNSt6vectorIiSaIiEE17_M_realloc_insertIJRKiEEEvN9__gnu_cxx17__normal_iteratorIPiS1_EEDpOT_ = comdat any

$_ZNSt15__new_allocatorIiE9constructIiJRKiEEEvPT_DpOT0_ = comdat any

$_ZNKSt6vectorIiSaIiEE12_M_check_lenEmPKc = comdat any

$_ZN9__gnu_cxxmiIPiSt6vectorIiSaIiEEEENS_17__normal_iteratorIT_T0_E15difference_typeERKS8_SB_ = comdat any

$_ZNSt12_Vector_baseIiSaIiEE11_M_allocateEm = comdat any

$_ZNSt6vectorIiSaIiEE11_S_relocateEPiS2_S2_RS0_ = comdat any

$_ZNK9__gnu_cxx17__normal_iteratorIPiSt6vectorIiSaIiEEE4baseEv = comdat any

$_ZNSt12_Vector_baseIiSaIiEE19_M_get_Tp_allocatorEv = comdat any

$_ZNSt12_Vector_baseIiSaIiEE13_M_deallocateEPim = comdat any

$_ZNKSt6vectorIiSaIiEE8max_sizeEv = comdat any

$_ZNKSt6vectorIiSaIiEE4sizeEv = comdat any

$_ZSt3maxImERKT_S2_S2_ = comdat any

$_ZNSt6vectorIiSaIiEE11_S_max_sizeERKS0_ = comdat any

$_ZNKSt12_Vector_baseIiSaIiEE19_M_get_Tp_allocatorEv = comdat any

$_ZNSt16allocator_traitsISaIiEE8max_sizeERKS0_ = comdat any

$_ZSt3minImERKT_S2_S2_ = comdat any

$_ZNKSt15__new_allocatorIiE8max_sizeEv = comdat any

$_ZNKSt15__new_allocatorIiE11_M_max_sizeEv = comdat any

$_ZNSt16allocator_traitsISaIiEE8allocateERS0_m = comdat any

$_ZNSt15__new_allocatorIiE8allocateEmPKv = comdat any

$_ZSt12__relocate_aIPiS0_SaIiEET0_T_S3_S2_RT1_ = comdat any

$_ZSt14__relocate_a_1IiiENSt9enable_ifIXsr3std24__is_bitwise_relocatableIT_EE5valueEPS1_E4typeES2_S2_S2_RSaIT0_E = comdat any

$_ZSt12__niter_baseIPiET_S1_ = comdat any

$_ZNSt16allocator_traitsISaIiEE10deallocateERS0_Pim = comdat any

$_ZNSt15__new_allocatorIiE10deallocateEPim = comdat any

$_ZN9__gnu_cxx17__normal_iteratorIPiSt6vectorIiSaIiEEEC2ERKS1_ = comdat any

$_ZNSt10_HashtableIiSt4pairIKiiESaIS2_ENSt8__detail10_Select1stESt8equal_toIiESt4hashIiENS4_18_Mod_range_hashingENS4_20_Default_ranged_hashENS4_20_Prime_rehash_policyENS4_17_Hashtable_traitsILb0ELb0ELb1EEEE4findERS1_ = comdat any

$_ZNKSt10_HashtableIiSt4pairIKiiESaIS2_ENSt8__detail10_Select1stESt8equal_toIiESt4hashIiENS4_18_Mod_range_hashingENS4_20_Default_ranged_hashENS4_20_Prime_rehash_policyENS4_17_Hashtable_traitsILb0ELb0ELb1EEEE4sizeEv = comdat any

$_ZNSt10_HashtableIiSt4pairIKiiESaIS2_ENSt8__detail10_Select1stESt8equal_toIiESt4hashIiENS4_18_Mod_range_hashingENS4_20_Default_ranged_hashENS4_20_Prime_rehash_policyENS4_17_Hashtable_traitsILb0ELb0ELb1EEEE22__small_size_thresholdEv = comdat any

$_ZNSt10_HashtableIiSt4pairIKiiESaIS2_ENSt8__detail10_Select1stESt8equal_toIiESt4hashIiENS4_18_Mod_range_hashingENS4_20_Default_ranged_hashENS4_20_Prime_rehash_policyENS4_17_Hashtable_traitsILb0ELb0ELb1EEEE5beginEv = comdat any

$_ZNSt8__detailneERKNS_19_Node_iterator_baseISt4pairIKiiELb0EEES6_ = comdat any

$_ZNSt10_HashtableIiSt4pairIKiiESaIS2_ENSt8__detail10_Select1stESt8equal_toIiESt4hashIiENS4_18_Mod_range_hashingENS4_20_Default_ranged_hashENS4_20_Prime_rehash_policyENS4_17_Hashtable_traitsILb0ELb0ELb1EEEE3endEv = comdat any

$_ZNKSt8__detail15_Hashtable_baseIiSt4pairIKiiENS_10_Select1stESt8equal_toIiESt4hashIiENS_18_Mod_range_hashingENS_20_Default_ranged_hashENS_17_Hashtable_traitsILb0ELb0ELb1EEEE13_M_key_equalsERS2_RKNS_16_Hash_node_valueIS3_Lb0EEE = comdat any

$_ZNSt8__detail14_Node_iteratorISt4pairIKiiELb0ELb0EEppEv = comdat any

$_ZNKSt8__detail15_Hash_code_baseIiSt4pairIKiiENS_10_Select1stESt4hashIiENS_18_Mod_range_hashingENS_20_Default_ranged_hashELb0EE12_M_hash_codeERS2_ = comdat any

$_ZNKSt10_HashtableIiSt4pairIKiiESaIS2_ENSt8__detail10_Select1stESt8equal_toIiESt4hashIiENS4_18_Mod_range_hashingENS4_20_Default_ranged_hashENS4_20_Prime_rehash_policyENS4_17_Hashtable_traitsILb0ELb0ELb1EEEE15_M_bucket_indexEm = comdat any

$_ZNKSt10_HashtableIiSt4pairIKiiESaIS2_ENSt8__detail10_Select1stESt8equal_toIiESt4hashIiENS4_18_Mod_range_hashingENS4_20_Default_ranged_hashENS4_20_Prime_rehash_policyENS4_17_Hashtable_traitsILb0ELb0ELb1EEEE12_M_find_nodeEmRS1_m = comdat any

$_ZNSt8__detail14_Node_iteratorISt4pairIKiiELb0ELb0EEC2EPNS_10_Hash_nodeIS3_Lb0EEE = comdat any

$_ZNSt8__detail22_Hashtable_hash_traitsISt4hashIiEE22__small_size_thresholdEv = comdat any

$_ZNKSt10_HashtableIiSt4pairIKiiESaIS2_ENSt8__detail10_Select1stESt8equal_toIiESt4hashIiENS4_18_Mod_range_hashingENS4_20_Default_ranged_hashENS4_20_Prime_rehash_policyENS4_17_Hashtable_traitsILb0ELb0ELb1EEEE8_M_beginEv = comdat any

$_ZNKSt8__detail15_Hashtable_baseIiSt4pairIKiiENS_10_Select1stESt8equal_toIiESt4hashIiENS_18_Mod_range_hashingENS_20_Default_ranged_hashENS_17_Hashtable_traitsILb0ELb0ELb1EEEE5_M_eqEv = comdat any

$_ZNKSt8equal_toIiEclERKiS2_ = comdat any

$_ZNKSt8__detail10_Select1stclIRKSt4pairIKiiEEEONS0_10__1st_typeIT_E4typeEOS8_ = comdat any

$_ZNKSt8__detail21_Hash_node_value_baseISt4pairIKiiEE4_M_vEv = comdat any

$_ZNKSt8__detail21_Hashtable_ebo_helperILi0ESt8equal_toIiELb1EE7_M_cgetEv = comdat any

$_ZNKSt8__detail21_Hash_node_value_baseISt4pairIKiiEE9_M_valptrEv = comdat any

$_ZNK9__gnu_cxx16__aligned_bufferISt4pairIKiiEE6_M_ptrEv = comdat any

$_ZNK9__gnu_cxx16__aligned_bufferISt4pairIKiiEE7_M_addrEv = comdat any

$_ZNSt8__detail19_Node_iterator_baseISt4pairIKiiELb0EE7_M_incrEv = comdat any

$_ZNKSt8__detail10_Hash_nodeISt4pairIKiiELb0EE7_M_nextEv = comdat any

$_ZNKSt8__detail15_Hash_code_baseIiSt4pairIKiiENS_10_Select1stESt4hashIiENS_18_Mod_range_hashingENS_20_Default_ranged_hashELb0EE7_M_hashEv = comdat any

$_ZNKSt4hashIiEclEi = comdat any

$_ZNKSt8__detail21_Hashtable_ebo_helperILi1ESt4hashIiELb1EE7_M_cgetEv = comdat any

$_ZNKSt8__detail15_Hash_code_baseIiSt4pairIKiiENS_10_Select1stESt4hashIiENS_18_Mod_range_hashingENS_20_Default_ranged_hashELb0EE15_M_bucket_indexEmm = comdat any

$_ZNKSt8__detail18_Mod_range_hashingclEmm = comdat any

$_ZNKSt10_HashtableIiSt4pairIKiiESaIS2_ENSt8__detail10_Select1stESt8equal_toIiESt4hashIiENS4_18_Mod_range_hashingENS4_20_Default_ranged_hashENS4_20_Prime_rehash_policyENS4_17_Hashtable_traitsILb0ELb0ELb1EEEE19_M_find_before_nodeEmRS1_m = comdat any

$_ZNKSt8__detail15_Hashtable_baseIiSt4pairIKiiENS_10_Select1stESt8equal_toIiESt4hashIiENS_18_Mod_range_hashingENS_20_Default_ranged_hashENS_17_Hashtable_traitsILb0ELb0ELb1EEEE9_M_equalsERS2_mRKNS_16_Hash_node_valueIS3_Lb0EEE = comdat any

$_ZNKSt10_HashtableIiSt4pairIKiiESaIS2_ENSt8__detail10_Select1stESt8equal_toIiESt4hashIiENS4_18_Mod_range_hashingENS4_20_Default_ranged_hashENS4_20_Prime_rehash_policyENS4_17_Hashtable_traitsILb0ELb0ELb1EEEE15_M_bucket_indexERKNS4_16_Hash_node_valueIS2_Lb0EEE = comdat any

$_ZNSt8__detail15_Hashtable_baseIiSt4pairIKiiENS_10_Select1stESt8equal_toIiESt4hashIiENS_18_Mod_range_hashingENS_20_Default_ranged_hashENS_17_Hashtable_traitsILb0ELb0ELb1EEEE9_S_equalsEmRKNS_21_Hash_node_code_cacheILb0EEE = comdat any

$_ZNKSt8__detail15_Hash_code_baseIiSt4pairIKiiENS_10_Select1stESt4hashIiENS_18_Mod_range_hashingENS_20_Default_ranged_hashELb0EE15_M_bucket_indexERKNS_16_Hash_node_valueIS3_Lb0EEEm = comdat any

$_ZNSt8__detail19_Node_iterator_baseISt4pairIKiiELb0EEC2EPNS_10_Hash_nodeIS3_Lb0EEE = comdat any

$_ZN3fmt2v68internal7vformatIcEENSt7__cxx1112basic_stringIT_St11char_traitsIS5_ESaIS5_EEENS0_17basic_string_viewIS5_EENS0_17basic_format_argsINS0_20basic_format_contextISt20back_insert_iteratorINS1_6bufferIS5_EEES5_EEEE = comdat any

$_ZN3fmt2v614to_string_viewIcTnNSt9enable_ifIXsr7is_charIT_EE5valueEiE4typeELi0EEENS0_17basic_string_viewIS3_EEPKS3_ = comdat any

$_ZN3fmt2v68internal17make_args_checkedIJRiEA54_ccEENS0_16format_arg_storeINS0_20basic_format_contextISt20back_insert_iteratorINS1_6bufferIT1_EEES9_EEJDpNSt16remove_referenceIT_E4typeEEEERKT0_DpRKSG_ = comdat any

$_ZN3fmt2v617basic_format_argsINS0_20basic_format_contextISt20back_insert_iteratorINS0_8internal6bufferIcEEEcEEEC2IJiEEERKNS0_16format_arg_storeIS8_JDpT_EEE = comdat any

$_ZN3fmt2v619basic_memory_bufferIcLm500ESaIcEEC2ERKS2_ = comdat any

$_ZN3fmt2v68internal10vformat_toIcEENS0_20basic_format_contextISt20back_insert_iteratorINS1_6bufferIT_EEES6_E8iteratorERS7_NS0_17basic_string_viewIS6_EENS0_17basic_format_argsIS9_EE = comdat any

$_ZN3fmt2v69to_stringIcLm500EEENSt7__cxx1112basic_stringIT_St11char_traitsIS4_ESaIS4_EEERKNS0_19basic_memory_bufferIS4_XT0_ES7_EE = comdat any

$_ZN3fmt2v619basic_memory_bufferIcLm500ESaIcEED2Ev = comdat any

$_ZNSt15__new_allocatorIcEC2Ev = comdat any

$_ZN3fmt2v68internal6bufferIcEC2EPcmm = comdat any

$_ZN3fmt2v68internal6bufferIcE3setEPcm = comdat any

$_ZN3fmt2v619basic_memory_bufferIcLm500ESaIcEE4growEm = comdat any

$_ZN3fmt2v619basic_memory_bufferIcLm500ESaIcEED0Ev = comdat any

$_ZN3fmt2v68internal6bufferIcED2Ev = comdat any

$_ZN3fmt2v68internal6bufferIcED0Ev = comdat any

$_ZNK3fmt2v68internal6bufferIcE8capacityEv = comdat any

$_ZN3fmt2v68internal6bufferIcE4dataEv = comdat any

$_ZNSt16allocator_traitsISaIcEE8allocateERS0_m = comdat any

$_ZSt18uninitialized_copyIPcS0_ET0_T_S2_S1_ = comdat any

$_ZNK3fmt2v68internal6bufferIcE4sizeEv = comdat any

$_ZN3fmt2v68internal12make_checkedIcEEPT_S4_m = comdat any

$_ZNSt15__new_allocatorIcE8allocateEmPKv = comdat any

$_ZNKSt15__new_allocatorIcE11_M_max_sizeEv = comdat any

$_ZNSt20__uninitialized_copyILb1EE13__uninit_copyIPcS2_EET0_T_S4_S3_ = comdat any

$_ZSt4copyIPcS0_ET0_T_S2_S1_ = comdat any

$_ZSt13__copy_move_aILb0EPcS0_ET1_T0_S2_S1_ = comdat any

$_ZSt12__miter_baseIPcET_S1_ = comdat any

$_ZSt12__niter_wrapIPcET_RKS1_S1_ = comdat any

$_ZSt14__copy_move_a1ILb0EPcS0_ET1_T0_S2_S1_ = comdat any

$_ZSt12__niter_baseIPcET_S1_ = comdat any

$_ZSt14__copy_move_a2ILb0EPcS0_ET1_T0_S2_S1_ = comdat any

$_ZNSt11__copy_moveILb0ELb1ESt26random_access_iterator_tagE8__copy_mIcEEPT_PKS3_S6_S4_ = comdat any

$_ZN3fmt2v610vformat_toINS0_13arg_formatterINS0_12buffer_rangeIcEEEEcNS0_20basic_format_contextISt20back_insert_iteratorINS0_8internal6bufferIcEEEcEEEENT1_8iteratorENT_5rangeENS0_17basic_string_viewIT0_EENS0_17basic_format_argsISD_EENS8_10locale_refE = comdat any

$_ZN3fmt2v612buffer_rangeIcEC2ERNS0_8internal6bufferIcEE = comdat any

$_ZN3fmt2v614to_string_viewIcEENS0_17basic_string_viewIT_EES4_ = comdat any

$_ZN3fmt2v68internal10locale_refC2Ev = comdat any

$_ZN3fmt2v614format_handlerINS0_13arg_formatterINS0_12buffer_rangeIcEEEEcNS0_20basic_format_contextISt20back_insert_iteratorINS0_8internal6bufferIcEEEcEEEC2ES4_NS0_17basic_string_viewIcEENS0_17basic_format_argsISC_EENS8_10locale_refE = comdat any

$_ZN3fmt2v68internal19parse_format_stringILb0EcRNS0_14format_handlerINS0_13arg_formatterINS0_12buffer_rangeIcEEEEcNS0_20basic_format_contextISt20back_insert_iteratorINS1_6bufferIcEEEcEEEEEEvNS0_17basic_string_viewIT0_EEOT1_ = comdat any

$_ZN3fmt2v620basic_format_contextISt20back_insert_iteratorINS0_8internal6bufferIcEEEcE3outEv = comdat any

$_ZN3fmt2v614format_handlerINS0_13arg_formatterINS0_12buffer_rangeIcEEEEcNS0_20basic_format_contextISt20back_insert_iteratorINS0_8internal6bufferIcEEEcEEED2Ev = comdat any

$_ZN3fmt2v626basic_format_parse_contextIcNS0_8internal13error_handlerEEC2ENS0_17basic_string_viewIcEES3_ = comdat any

$_ZNK3fmt2v68internal12output_rangeISt20back_insert_iteratorINS1_6bufferIcEEEcE5beginEv = comdat any

$_ZN3fmt2v620basic_format_contextISt20back_insert_iteratorINS0_8internal6bufferIcEEEcEC2ES6_NS0_17basic_format_argsIS7_EENS3_10locale_refE = comdat any

$_ZN3fmt2v616basic_format_argINS0_20basic_format_contextISt20back_insert_iteratorINS0_8internal6bufferIcEEEcEEEC2Ev = comdat any

$_ZN3fmt2v620basic_format_contextISt20back_insert_iteratorINS0_8internal6bufferIcEEEcED2Ev = comdat any

$_ZN3fmt2v68internal7arg_mapINS0_20basic_format_contextISt20back_insert_iteratorINS1_6bufferIcEEEcEEEC2Ev = comdat any

$_ZN3fmt2v68internal5valueINS0_20basic_format_contextISt20back_insert_iteratorINS1_6bufferIcEEEcEEEC2Ei = comdat any

$_ZN3fmt2v68internal7arg_mapINS0_20basic_format_contextISt20back_insert_iteratorINS1_6bufferIcEEEcEEED2Ev = comdat any

$_ZNK3fmt2v617basic_string_viewIcE4dataEv = comdat any

$_ZNK3fmt2v617basic_string_viewIcE4sizeEv = comdat any

$_ZN3fmt2v68internal4findILb0EcPKcEEbT1_S5_T0_RS5_ = comdat any

$_ZZN3fmt2v68internal19parse_format_stringILb0EcRNS0_14format_handlerINS0_13arg_formatterINS0_12buffer_rangeIcEEEEcNS0_20basic_format_contextISt20back_insert_iteratorINS1_6bufferIcEEEcEEEEEEvNS0_17basic_string_viewIT0_EEOT1_EN10pfs_writerclEPKcSN_ = comdat any

$_ZN3fmt2v614format_handlerINS0_13arg_formatterINS0_12buffer_rangeIcEEEEcNS0_20basic_format_contextISt20back_insert_iteratorINS0_8internal6bufferIcEEEcEEE9on_arg_idEv = comdat any

$_ZN3fmt2v614format_handlerINS0_13arg_formatterINS0_12buffer_rangeIcEEEEcNS0_20basic_format_contextISt20back_insert_iteratorINS0_8internal6bufferIcEEEcEEE20on_replacement_fieldEPKc = comdat any

$_ZN3fmt2v614format_handlerINS0_13arg_formatterINS0_12buffer_rangeIcEEEEcNS0_20basic_format_contextISt20back_insert_iteratorINS0_8internal6bufferIcEEEcEEE7on_textEPKcSF_ = comdat any

$_ZN3fmt2v68internal12parse_arg_idIcNS1_10id_adapterIRNS0_14format_handlerINS0_13arg_formatterINS0_12buffer_rangeIcEEEEcNS0_20basic_format_contextISt20back_insert_iteratorINS1_6bufferIcEEEcEEEEcEEEEPKT_SK_SK_OT0_ = comdat any

$_ZN3fmt2v614format_handlerINS0_13arg_formatterINS0_12buffer_rangeIcEEEEcNS0_20basic_format_contextISt20back_insert_iteratorINS0_8internal6bufferIcEEEcEEE15on_format_specsEPKcSF_ = comdat any

$_ZN3fmt2v68internal11to_unsignedIlEENSt13make_unsignedIT_E4typeES4_ = comdat any

$_ZN3fmt2v614format_handlerINS0_13arg_formatterINS0_12buffer_rangeIcEEEEcNS0_20basic_format_contextISt20back_insert_iteratorINS0_8internal6bufferIcEEEcEEE7get_argEi = comdat any

$_ZN3fmt2v626basic_format_parse_contextIcNS0_8internal13error_handlerEE11next_arg_idEv = comdat any

$_ZN3fmt2v68internal7get_argINS0_20basic_format_contextISt20back_insert_iteratorINS1_6bufferIcEEEcEEEENT_10format_argERS9_i = comdat any

$_ZNK3fmt2v620basic_format_contextISt20back_insert_iteratorINS0_8internal6bufferIcEEEcE3argEi = comdat any

$_ZNK3fmt2v616basic_format_argINS0_20basic_format_contextISt20back_insert_iteratorINS0_8internal6bufferIcEEEcEEEcvbEv = comdat any

$_ZN3fmt2v620basic_format_contextISt20back_insert_iteratorINS0_8internal6bufferIcEEEcE8on_errorEPKc = comdat any

$_ZNK3fmt2v617basic_format_argsINS0_20basic_format_contextISt20back_insert_iteratorINS0_8internal6bufferIcEEEcEEE3getEi = comdat any

$_ZNK3fmt2v617basic_format_argsINS0_20basic_format_contextISt20back_insert_iteratorINS0_8internal6bufferIcEEEcEEE6do_getEi = comdat any

$_ZNK3fmt2v68internal14named_arg_baseIcE11deserializeINS0_20basic_format_contextISt20back_insert_iteratorINS1_6bufferIcEEEcEEEENS0_16basic_format_argIT_EEv = comdat any

$_ZNK3fmt2v617basic_format_argsINS0_20basic_format_contextISt20back_insert_iteratorINS0_8internal6bufferIcEEEcEEE9is_packedEv = comdat any

$_ZNK3fmt2v617basic_format_argsINS0_20basic_format_contextISt20back_insert_iteratorINS0_8internal6bufferIcEEEcEEE8max_sizeEv = comdat any

$_ZNK3fmt2v617basic_format_argsINS0_20basic_format_contextISt20back_insert_iteratorINS0_8internal6bufferIcEEEcEEE4typeEi = comdat any

$_ZN3fmt2v620basic_format_contextISt20back_insert_iteratorINS0_8internal6bufferIcEEEcE13error_handlerEv = comdat any

$_ZN3fmt2v626basic_format_parse_contextIcNS0_8internal13error_handlerEE8on_errorEPKc = comdat any

$_ZN3fmt2v610advance_toIcNS0_8internal13error_handlerEEEvRNS0_26basic_format_parse_contextIT_T0_EEPKS5_ = comdat any

$_ZN3fmt2v620basic_format_contextISt20back_insert_iteratorINS0_8internal6bufferIcEEEcE10advance_toES6_ = comdat any

$_ZN3fmt2v616visit_format_argINS0_13arg_formatterINS0_12buffer_rangeIcEEEENS0_20basic_format_contextISt20back_insert_iteratorINS0_8internal6bufferIcEEEcEEEEDTclfp_Li0EEEOT_RKNS0_16basic_format_argIT0_EE = comdat any

$_ZN3fmt2v613arg_formatterINS0_12buffer_rangeIcEEEC2ERNS0_20basic_format_contextISt20back_insert_iteratorINS0_8internal6bufferIcEEEcEEPNS0_26basic_format_parse_contextIcNS7_13error_handlerEEEPNS0_18basic_format_specsIcEE = comdat any

$_ZN3fmt2v626basic_format_parse_contextIcNS0_8internal13error_handlerEE10advance_toEPKc = comdat any

$_ZNK3fmt2v626basic_format_parse_contextIcNS0_8internal13error_handlerEE5beginEv = comdat any

$_ZN3fmt2v617basic_string_viewIcE13remove_prefixEm = comdat any

$_ZNK3fmt2v617basic_string_viewIcE5beginEv = comdat any

$_ZN3fmt2v68internal18arg_formatter_baseINS0_12buffer_rangeIcEENS1_13error_handlerEEclIiTnNSt9enable_ifIXsr11is_integralIT_EE5valueEiE4typeELi0EEESt20back_insert_iteratorINS1_6bufferIcEEES9_ = comdat any

$_ZN3fmt2v68internal18arg_formatter_baseINS0_12buffer_rangeIcEENS1_13error_handlerEEclIjTnNSt9enable_ifIXsr11is_integralIT_EE5valueEiE4typeELi0EEESt20back_insert_iteratorINS1_6bufferIcEEES9_ = comdat any

$_ZN3fmt2v68internal18arg_formatter_baseINS0_12buffer_rangeIcEENS1_13error_handlerEEclIxTnNSt9enable_ifIXsr11is_integralIT_EE5valueEiE4typeELi0EEESt20back_insert_iteratorINS1_6bufferIcEEES9_ = comdat any

$_ZN3fmt2v68internal18arg_formatter_baseINS0_12buffer_rangeIcEENS1_13error_handlerEEclIyTnNSt9enable_ifIXsr11is_integralIT_EE5valueEiE4typeELi0EEESt20back_insert_iteratorINS1_6bufferIcEEES9_ = comdat any

$_ZN3fmt2v68internal18arg_formatter_baseINS0_12buffer_rangeIcEENS1_13error_handlerEEclInTnNSt9enable_ifIXsr11is_integralIT_EE5valueEiE4typeELi0EEESt20back_insert_iteratorINS1_6bufferIcEEES9_ = comdat any

$_ZN3fmt2v68internal18arg_formatter_baseINS0_12buffer_rangeIcEENS1_13error_handlerEEclIoTnNSt9enable_ifIXsr11is_integralIT_EE5valueEiE4typeELi0EEESt20back_insert_iteratorINS1_6bufferIcEEES9_ = comdat any

$_ZN3fmt2v68internal18arg_formatter_baseINS0_12buffer_rangeIcEENS1_13error_handlerEEclEb = comdat any

$_ZN3fmt2v68internal18arg_formatter_baseINS0_12buffer_rangeIcEENS1_13error_handlerEEclEc = comdat any

$_ZN3fmt2v68internal18arg_formatter_baseINS0_12buffer_rangeIcEENS1_13error_handlerEEclIfTnNSt9enable_ifIXsr3std17is_floating_pointIT_EE5valueEiE4typeELi0EEESt20back_insert_iteratorINS1_6bufferIcEEES9_ = comdat any

$_ZN3fmt2v68internal18arg_formatter_baseINS0_12buffer_rangeIcEENS1_13error_handlerEEclIdTnNSt9enable_ifIXsr3std17is_floating_pointIT_EE5valueEiE4typeELi0EEESt20back_insert_iteratorINS1_6bufferIcEEES9_ = comdat any

$_ZN3fmt2v68internal18arg_formatter_baseINS0_12buffer_rangeIcEENS1_13error_handlerEEclIeTnNSt9enable_ifIXsr3std17is_floating_pointIT_EE5valueEiE4typeELi0EEESt20back_insert_iteratorINS1_6bufferIcEEES9_ = comdat any

$_ZN3fmt2v68internal18arg_formatter_baseINS0_12buffer_rangeIcEENS1_13error_handlerEEclEPKc = comdat any

$_ZN3fmt2v68internal18arg_formatter_baseINS0_12buffer_rangeIcEENS1_13error_handlerEEclENS0_17basic_string_viewIcEE = comdat any

$_ZN3fmt2v617basic_string_viewIcEC2EPKcm = comdat any

$_ZN3fmt2v68internal18arg_formatter_baseINS0_12buffer_rangeIcEENS1_13error_handlerEEclEPKv = comdat any

$_ZN3fmt2v613arg_formatterINS0_12buffer_rangeIcEEEclENS0_16basic_format_argINS0_20basic_format_contextISt20back_insert_iteratorINS0_8internal6bufferIcEEEcEEE6handleE = comdat any

$_ZN3fmt2v616basic_format_argINS0_20basic_format_contextISt20back_insert_iteratorINS0_8internal6bufferIcEEEcEEE6handleC2ENS4_12custom_valueIS8_EE = comdat any

$_ZN3fmt2v68internal18arg_formatter_baseINS0_12buffer_rangeIcEENS1_13error_handlerEEclENS0_9monostateE = comdat any

$_ZN3fmt2v68internal12basic_writerINS0_12buffer_rangeIcEEE9write_intIiNS0_18basic_format_specsIcEEEEvT_RKT0_ = comdat any

$_ZN3fmt2v68internal12basic_writerINS0_12buffer_rangeIcEEE5writeEi = comdat any

$_ZN3fmt2v68internal18arg_formatter_baseINS0_12buffer_rangeIcEENS1_13error_handlerEE3outEv = comdat any

$_ZN3fmt2v68internal20handle_int_type_specINS1_12basic_writerINS0_12buffer_rangeIcEEE10int_writerIiNS0_18basic_format_specsIcEEEEEEvcOT_ = comdat any

$_ZN3fmt2v68internal12basic_writerINS0_12buffer_rangeIcEEE10int_writerIiNS0_18basic_format_specsIcEEEC2ERS5_iRKS8_ = comdat any

$_ZN3fmt2v68internal12basic_writerINS0_12buffer_rangeIcEEE10int_writerIiNS0_18basic_format_specsIcEEE6on_decEv = comdat any

$_ZN3fmt2v68internal12basic_writerINS0_12buffer_rangeIcEEE10int_writerIiNS0_18basic_format_specsIcEEE6on_hexEv = comdat any

$_ZN3fmt2v68internal12basic_writerINS0_12buffer_rangeIcEEE10int_writerIiNS0_18basic_format_specsIcEEE6on_binEv = comdat any

$_ZN3fmt2v68internal12basic_writerINS0_12buffer_rangeIcEEE10int_writerIiNS0_18basic_format_specsIcEEE6on_octEv = comdat any

$_ZN3fmt2v68internal12basic_writerINS0_12buffer_rangeIcEEE10int_writerIiNS0_18basic_format_specsIcEEE6on_numEv = comdat any

$_ZN3fmt2v68internal12basic_writerINS0_12buffer_rangeIcEEE10int_writerIiNS0_18basic_format_specsIcEEE8on_errorEv = comdat any

$_ZN3fmt2v68internal12count_digitsEj = comdat any

$_ZN3fmt2v68internal12basic_writerINS0_12buffer_rangeIcEEE9write_intINS5_10int_writerIiNS0_18basic_format_specsIcEEE10dec_writerEEEviNS0_17basic_string_viewIcEES9_T_ = comdat any

$_ZNK3fmt2v68internal12basic_writerINS0_12buffer_rangeIcEEE10int_writerIiNS0_18basic_format_specsIcEEE10get_prefixEv = comdat any

$_ZN3fmt2v68internal11to_unsignedIiEENSt13make_unsignedIT_E4typeES4_ = comdat any

$_ZN3fmt2v68internal6fill_tIcEixEm = comdat any

$_ZN3fmt2v68internal12basic_writerINS0_12buffer_rangeIcEEE12write_paddedINS5_17padded_int_writerINS5_10int_writerIiNS0_18basic_format_specsIcEEE10dec_writerEEEEEvRKSA_OT_ = comdat any

$_ZNK3fmt2v68internal12basic_writerINS0_12buffer_rangeIcEEE17padded_int_writerINS5_10int_writerIiNS0_18basic_format_specsIcEEE10dec_writerEE4sizeEv = comdat any

$_ZNK3fmt2v68internal12basic_writerINS0_12buffer_rangeIcEEE17padded_int_writerINS5_10int_writerIiNS0_18basic_format_specsIcEEE10dec_writerEE5widthEv = comdat any

$_ZNK3fmt2v68internal12basic_writerINS0_12buffer_rangeIcEEE17padded_int_writerINS5_10int_writerIiNS0_18basic_format_specsIcEEE10dec_writerEEclIPcEEvOT_ = comdat any

$_ZN3fmt2v68internal12basic_writerINS0_12buffer_rangeIcEEE7reserveEm = comdat any

$_ZNK3fmt2v68internal6fill_tIcEixEm = comdat any

$_ZSt6fill_nIPcmcET_S1_T0_RKT1_ = comdat any

$_ZNK3fmt2v68internal12basic_writerINS0_12buffer_rangeIcEEE17padded_int_writerINS5_10int_writerIiNS0_18basic_format_specsIcEEE10dec_writerEEclIRPcEEvOT_ = comdat any

$_ZN3fmt2v68internal8copy_strIcPKcPcTnNSt9enable_ifIXntsr16needs_conversionIT0_T_EE5valueEiE4typeELi0EEET1_S7_S7_SB_ = comdat any

$_ZNK3fmt2v617basic_string_viewIcE3endEv = comdat any

$_ZNK3fmt2v68internal12basic_writerINS0_12buffer_rangeIcEEE10int_writerIiNS0_18basic_format_specsIcEEE10dec_writerclIRPcEEvOT_ = comdat any

$_ZSt4copyIPKcPcET0_T_S4_S3_ = comdat any

$_ZSt13__copy_move_aILb0EPKcPcET1_T0_S4_S3_ = comdat any

$_ZSt12__miter_baseIPKcET_S2_ = comdat any

$_ZSt14__copy_move_a1ILb0EPKcPcET1_T0_S4_S3_ = comdat any

$_ZSt12__niter_baseIPKcET_S2_ = comdat any

$_ZSt14__copy_move_a2ILb0EPKcPcET1_T0_S4_S3_ = comdat any

$_ZN3fmt2v68internal14format_decimalIcPcjEET0_S4_T1_i = comdat any

$_ZN3fmt2v68internal14format_decimalIcjPcZNS1_14format_decimalIcS3_jEET0_S5_T1_iEUlS3_E_EES6_S6_S5_iT2_ = comdat any

$_ZN3fmt2v68internal14format_decimalIjcZNS1_14format_decimalIcPcjEET0_S5_T1_iEUlS4_E_EEPS5_S8_T_iS6_ = comdat any

$_ZN3fmt2v68internal8copy_strIcPcS3_TnNSt9enable_ifIXntsr16needs_conversionIT0_T_EE5valueEiE4typeELi0EEET1_S5_S5_S9_ = comdat any

$_ZZN3fmt2v68internal14format_decimalIcPcjEET0_S4_T1_iENKUlS3_E_clES3_ = comdat any

$_ZN3fmt2v68internal7reserveINS1_6bufferIcEETnNSt9enable_ifIXsr13is_contiguousIT_EE5valueEiE4typeELi0EEEPNS6_10value_typeERSt20back_insert_iteratorIS6_Em = comdat any

$_ZN3fmt2v68internal13get_containerINS1_6bufferIcEEEERT_St20back_insert_iteratorIS5_E = comdat any

$_ZN3fmt2v68internal6bufferIcE6resizeEm = comdat any

$_ZN3fmt2v68internal8get_dataINS1_6bufferIcEEEEPNT_10value_typeERS5_ = comdat any

$_ZZN3fmt2v68internal13get_containerINS1_6bufferIcEEEERT_St20back_insert_iteratorIS5_EEN8accessorC2ES7_IS4_E = comdat any

$_ZN3fmt2v68internal6bufferIcE7reserveEm = comdat any

$_ZSt10__fill_n_aIPcmcET_S1_T0_RKT1_St26random_access_iterator_tag = comdat any

$_ZSt17__size_to_integerm = comdat any

$_ZSt19__iterator_categoryIPcENSt15iterator_traitsIT_E17iterator_categoryERKS2_ = comdat any

$_ZSt8__fill_aIPccEvT_S1_RKT0_ = comdat any

$_ZSt9__fill_a1IcEN9__gnu_cxx11__enable_ifIXsr9__is_byteIT_EE7__valueEvE6__typeEPS2_S5_RKS2_ = comdat any

$_ZN3fmt2v68internal12count_digitsILj4EjEEiT0_ = comdat any

$_ZN3fmt2v68internal12basic_writerINS0_12buffer_rangeIcEEE9write_intINS5_10int_writerIiNS0_18basic_format_specsIcEEE10hex_writerEEEviNS0_17basic_string_viewIcEES9_T_ = comdat any

$_ZN3fmt2v68internal12basic_writerINS0_12buffer_rangeIcEEE12write_paddedINS5_17padded_int_writerINS5_10int_writerIiNS0_18basic_format_specsIcEEE10hex_writerEEEEEvRKSA_OT_ = comdat any

$_ZNK3fmt2v68internal12basic_writerINS0_12buffer_rangeIcEEE17padded_int_writerINS5_10int_writerIiNS0_18basic_format_specsIcEEE10hex_writerEE4sizeEv = comdat any

$_ZNK3fmt2v68internal12basic_writerINS0_12buffer_rangeIcEEE17padded_int_writerINS5_10int_writerIiNS0_18basic_format_specsIcEEE10hex_writerEE5widthEv = comdat any

$_ZNK3fmt2v68internal12basic_writerINS0_12buffer_rangeIcEEE17padded_int_writerINS5_10int_writerIiNS0_18basic_format_specsIcEEE10hex_writerEEclIPcEEvOT_ = comdat any

$_ZNK3fmt2v68internal12basic_writerINS0_12buffer_rangeIcEEE17padded_int_writerINS5_10int_writerIiNS0_18basic_format_specsIcEEE10hex_writerEEclIRPcEEvOT_ = comdat any

$_ZNK3fmt2v68internal12basic_writerINS0_12buffer_rangeIcEEE10int_writerIiNS0_18basic_format_specsIcEEE10hex_writerclIRPcEEvOT_ = comdat any

$_ZN3fmt2v68internal11format_uintILj4EcjEEPT0_S4_T1_ib = comdat any

$_ZN3fmt2v68internal12count_digitsILj1EjEEiT0_ = comdat any

$_ZN3fmt2v68internal12basic_writerINS0_12buffer_rangeIcEEE9write_intINS5_10int_writerIiNS0_18basic_format_specsIcEEE10bin_writerILi1EEEEEviNS0_17basic_string_viewIcEES9_T_ = comdat any

$_ZN3fmt2v68internal12basic_writerINS0_12buffer_rangeIcEEE12write_paddedINS5_17padded_int_writerINS5_10int_writerIiNS0_18basic_format_specsIcEEE10bin_writerILi1EEEEEEEvRKSA_OT_ = comdat any

$_ZNK3fmt2v68internal12basic_writerINS0_12buffer_rangeIcEEE17padded_int_writerINS5_10int_writerIiNS0_18basic_format_specsIcEEE10bin_writerILi1EEEE4sizeEv = comdat any

$_ZNK3fmt2v68internal12basic_writerINS0_12buffer_rangeIcEEE17padded_int_writerINS5_10int_writerIiNS0_18basic_format_specsIcEEE10bin_writerILi1EEEE5widthEv = comdat any

$_ZNK3fmt2v68internal12basic_writerINS0_12buffer_rangeIcEEE17padded_int_writerINS5_10int_writerIiNS0_18basic_format_specsIcEEE10bin_writerILi1EEEEclIPcEEvOT_ = comdat any

$_ZNK3fmt2v68internal12basic_writerINS0_12buffer_rangeIcEEE17padded_int_writerINS5_10int_writerIiNS0_18basic_format_specsIcEEE10bin_writerILi1EEEEclIRPcEEvOT_ = comdat any

$_ZNK3fmt2v68internal12basic_writerINS0_12buffer_rangeIcEEE10int_writerIiNS0_18basic_format_specsIcEEE10bin_writerILi1EEclIRPcEEvOT_ = comdat any

$_ZN3fmt2v68internal11format_uintILj1EcjEEPT0_S4_T1_ib = comdat any

$_ZN3fmt2v68internal12count_digitsILj3EjEEiT0_ = comdat any

$_ZN3fmt2v68internal12basic_writerINS0_12buffer_rangeIcEEE9write_intINS5_10int_writerIiNS0_18basic_format_specsIcEEE10bin_writerILi3EEEEEviNS0_17basic_string_viewIcEES9_T_ = comdat any

$_ZN3fmt2v68internal12basic_writerINS0_12buffer_rangeIcEEE12write_paddedINS5_17padded_int_writerINS5_10int_writerIiNS0_18basic_format_specsIcEEE10bin_writerILi3EEEEEEEvRKSA_OT_ = comdat any

$_ZNK3fmt2v68internal12basic_writerINS0_12buffer_rangeIcEEE17padded_int_writerINS5_10int_writerIiNS0_18basic_format_specsIcEEE10bin_writerILi3EEEE4sizeEv = comdat any

$_ZNK3fmt2v68internal12basic_writerINS0_12buffer_rangeIcEEE17padded_int_writerINS5_10int_writerIiNS0_18basic_format_specsIcEEE10bin_writerILi3EEEE5widthEv = comdat any

$_ZNK3fmt2v68internal12basic_writerINS0_12buffer_rangeIcEEE17padded_int_writerINS5_10int_writerIiNS0_18basic_format_specsIcEEE10bin_writerILi3EEEEclIPcEEvOT_ = comdat any

$_ZNK3fmt2v68internal12basic_writerINS0_12buffer_rangeIcEEE17padded_int_writerINS5_10int_writerIiNS0_18basic_format_specsIcEEE10bin_writerILi3EEEEclIRPcEEvOT_ = comdat any

$_ZNK3fmt2v68internal12basic_writerINS0_12buffer_rangeIcEEE10int_writerIiNS0_18basic_format_specsIcEEE10bin_writerILi3EEclIRPcEEvOT_ = comdat any

$_ZN3fmt2v68internal11format_uintILj3EcjEEPT0_S4_T1_ib = comdat any

$_ZN3fmt2v68internal8groupingIcEENSt7__cxx1112basic_stringIcSt11char_traitsIcESaIcEEENS1_10locale_refE = comdat any

$_ZN3fmt2v68internal13thousands_sepIcEET_NS1_10locale_refE = comdat any

$_ZN9__gnu_cxxneIPKcNSt7__cxx1112basic_stringIcSt11char_traitsIcESaIcEEEEEbRKNS_17__normal_iteratorIT_T0_EESE_ = comdat any

$_ZNK9__gnu_cxx17__normal_iteratorIPKcNSt7__cxx1112basic_stringIcSt11char_traitsIcESaIcEEEEdeEv = comdat any

$_ZN3fmt2v68internal9max_valueIcEET_v = comdat any

$_ZN9__gnu_cxx17__normal_iteratorIPKcNSt7__cxx1112basic_stringIcSt11char_traitsIcESaIcEEEEppEv = comdat any

$_ZN9__gnu_cxxeqIPKcNSt7__cxx1112basic_stringIcSt11char_traitsIcESaIcEEEEEbRKNS_17__normal_iteratorIT_T0_EESE_ = comdat any

$_ZN3fmt2v68internal12basic_writerINS0_12buffer_rangeIcEEE9write_intINS5_10int_writerIiNS0_18basic_format_specsIcEEE10num_writerEEEviNS0_17basic_string_viewIcEES9_T_ = comdat any

$_ZN9__gnu_cxx17__normal_iteratorIPKcNSt7__cxx1112basic_stringIcSt11char_traitsIcESaIcEEEEC2ERKS2_ = comdat any

$_ZNK9__gnu_cxx17__normal_iteratorIPKcNSt7__cxx1112basic_stringIcSt11char_traitsIcESaIcEEEE4baseEv = comdat any

$_ZNSt14numeric_limitsIcE3maxEv = comdat any

$_ZN3fmt2v68internal12basic_writerINS0_12buffer_rangeIcEEE12write_paddedINS5_17padded_int_writerINS5_10int_writerIiNS0_18basic_format_specsIcEEE10num_writerEEEEEvRKSA_OT_ = comdat any

$_ZNK3fmt2v68internal12basic_writerINS0_12buffer_rangeIcEEE17padded_int_writerINS5_10int_writerIiNS0_18basic_format_specsIcEEE10num_writerEE4sizeEv = comdat any

$_ZNK3fmt2v68internal12basic_writerINS0_12buffer_rangeIcEEE17padded_int_writerINS5_10int_writerIiNS0_18basic_format_specsIcEEE10num_writerEE5widthEv = comdat any

$_ZNK3fmt2v68internal12basic_writerINS0_12buffer_rangeIcEEE17padded_int_writerINS5_10int_writerIiNS0_18basic_format_specsIcEEE10num_writerEEclIPcEEvOT_ = comdat any

$_ZNK3fmt2v68internal12basic_writerINS0_12buffer_rangeIcEEE17padded_int_writerINS5_10int_writerIiNS0_18basic_format_specsIcEEE10num_writerEEclIRPcEEvOT_ = comdat any

$_ZNK3fmt2v68internal12basic_writerINS0_12buffer_rangeIcEEE10int_writerIiNS0_18basic_format_specsIcEEE10num_writerclIRPcEEvOT_ = comdat any

$_ZN3fmt2v68internal14format_decimalIcjPcZNKS1_12basic_writerINS0_12buffer_rangeIcEEE10int_writerIiNS0_18basic_format_specsIcEEE10num_writerclIRS3_EEvOT_EUlSE_E_EET1_SI_T0_iT2_ = comdat any

$_ZN3fmt2v68internal14format_decimalIjcZNKS1_12basic_writerINS0_12buffer_rangeIcEEE10int_writerIiNS0_18basic_format_specsIcEEE10num_writerclIRPcEEvOT_EUlSE_E_EEPT0_SJ_SF_iT1_ = comdat any

$_ZZNK3fmt2v68internal12basic_writerINS0_12buffer_rangeIcEEE10int_writerIiNS0_18basic_format_specsIcEEE10num_writerclIRPcEEvOT_ENKUlSD_E_clESD_ = comdat any

$_ZNK9__gnu_cxx17__normal_iteratorIPKcNSt7__cxx1112basic_stringIcSt11char_traitsIcESaIcEEEEplEl = comdat any

$_ZSt18uninitialized_copyIPKcPcET0_T_S4_S3_ = comdat any

$_ZNSt20__uninitialized_copyILb1EE13__uninit_copyIPKcPcEET0_T_S6_S5_ = comdat any

$_ZN3fmt2v612format_errorC2EPKc = comdat any

$_ZN3fmt2v68internal11is_negativeIiTnNSt9enable_ifIXsr3std14numeric_limitsIT_EE9is_signedEiE4typeELi0EEEbS4_ = comdat any

$_ZN3fmt2v68internal12basic_writerINS0_12buffer_rangeIcEEE13write_decimalIiEEvT_ = comdat any

$_ZNK3fmt2v68internal12basic_writerINS0_12buffer_rangeIcEEE3outEv = comdat any

$_ZN3fmt2v68internal12basic_writerINS0_12buffer_rangeIcEEE9write_intIjNS0_18basic_format_specsIcEEEEvT_RKT0_ = comdat any

$_ZN3fmt2v68internal12basic_writerINS0_12buffer_rangeIcEEE5writeEj = comdat any

$_ZN3fmt2v68internal20handle_int_type_specINS1_12basic_writerINS0_12buffer_rangeIcEEE10int_writerIjNS0_18basic_format_specsIcEEEEEEvcOT_ = comdat any

$_ZN3fmt2v68internal12basic_writerINS0_12buffer_rangeIcEEE10int_writerIjNS0_18basic_format_specsIcEEEC2ERS5_jRKS8_ = comdat any

$_ZN3fmt2v68internal12basic_writerINS0_12buffer_rangeIcEEE10int_writerIjNS0_18basic_format_specsIcEEE6on_decEv = comdat any

$_ZN3fmt2v68internal12basic_writerINS0_12buffer_rangeIcEEE10int_writerIjNS0_18basic_format_specsIcEEE6on_hexEv = comdat any

$_ZN3fmt2v68internal12basic_writerINS0_12buffer_rangeIcEEE10int_writerIjNS0_18basic_format_specsIcEEE6on_binEv = comdat any

$_ZN3fmt2v68internal12basic_writerINS0_12buffer_rangeIcEEE10int_writerIjNS0_18basic_format_specsIcEEE6on_octEv = comdat any

$_ZN3fmt2v68internal12basic_writerINS0_12buffer_rangeIcEEE10int_writerIjNS0_18basic_format_specsIcEEE6on_numEv = comdat any

$_ZN3fmt2v68internal12basic_writerINS0_12buffer_rangeIcEEE10int_writerIjNS0_18basic_format_specsIcEEE8on_errorEv = comdat any

$_ZN3fmt2v68internal12basic_writerINS0_12buffer_rangeIcEEE9write_intINS5_10int_writerIjNS0_18basic_format_specsIcEEE10dec_writerEEEviNS0_17basic_string_viewIcEES9_T_ = comdat any

$_ZNK3fmt2v68internal12basic_writerINS0_12buffer_rangeIcEEE10int_writerIjNS0_18basic_format_specsIcEEE10get_prefixEv = comdat any

$_ZN3fmt2v68internal12basic_writerINS0_12buffer_rangeIcEEE12write_paddedINS5_17padded_int_writerINS5_10int_writerIjNS0_18basic_format_specsIcEEE10dec_writerEEEEEvRKSA_OT_ = comdat any

$_ZNK3fmt2v68internal12basic_writerINS0_12buffer_rangeIcEEE17padded_int_writerINS5_10int_writerIjNS0_18basic_format_specsIcEEE10dec_writerEE4sizeEv = comdat any

$_ZNK3fmt2v68internal12basic_writerINS0_12buffer_rangeIcEEE17padded_int_writerINS5_10int_writerIjNS0_18basic_format_specsIcEEE10dec_writerEE5widthEv = comdat any

$_ZNK3fmt2v68internal12basic_writerINS0_12buffer_rangeIcEEE17padded_int_writerINS5_10int_writerIjNS0_18basic_format_specsIcEEE10dec_writerEEclIPcEEvOT_ = comdat any

$_ZNK3fmt2v68internal12basic_writerINS0_12buffer_rangeIcEEE17padded_int_writerINS5_10int_writerIjNS0_18basic_format_specsIcEEE10dec_writerEEclIRPcEEvOT_ = comdat any

$_ZNK3fmt2v68internal12basic_writerINS0_12buffer_rangeIcEEE10int_writerIjNS0_18basic_format_specsIcEEE10dec_writerclIRPcEEvOT_ = comdat any

$_ZN3fmt2v68internal12basic_writerINS0_12buffer_rangeIcEEE9write_intINS5_10int_writerIjNS0_18basic_format_specsIcEEE10hex_writerEEEviNS0_17basic_string_viewIcEES9_T_ = comdat any

$_ZN3fmt2v68internal12basic_writerINS0_12buffer_rangeIcEEE12write_paddedINS5_17padded_int_writerINS5_10int_writerIjNS0_18basic_format_specsIcEEE10hex_writerEEEEEvRKSA_OT_ = comdat any

$_ZNK3fmt2v68internal12basic_writerINS0_12buffer_rangeIcEEE17padded_int_writerINS5_10int_writerIjNS0_18basic_format_specsIcEEE10hex_writerEE4sizeEv = comdat any

$_ZNK3fmt2v68internal12basic_writerINS0_12buffer_rangeIcEEE17padded_int_writerINS5_10int_writerIjNS0_18basic_format_specsIcEEE10hex_writerEE5widthEv = comdat any

$_ZNK3fmt2v68internal12basic_writerINS0_12buffer_rangeIcEEE17padded_int_writerINS5_10int_writerIjNS0_18basic_format_specsIcEEE10hex_writerEEclIPcEEvOT_ = comdat any

$_ZNK3fmt2v68internal12basic_writerINS0_12buffer_rangeIcEEE17padded_int_writerINS5_10int_writerIjNS0_18basic_format_specsIcEEE10hex_writerEEclIRPcEEvOT_ = comdat any

$_ZNK3fmt2v68internal12basic_writerINS0_12buffer_rangeIcEEE10int_writerIjNS0_18basic_format_specsIcEEE10hex_writerclIRPcEEvOT_ = comdat any

$_ZN3fmt2v68internal12basic_writerINS0_12buffer_rangeIcEEE9write_intINS5_10int_writerIjNS0_18basic_format_specsIcEEE10bin_writerILi1EEEEEviNS0_17basic_string_viewIcEES9_T_ = comdat any

$_ZN3fmt2v68internal12basic_writerINS0_12buffer_rangeIcEEE12write_paddedINS5_17padded_int_writerINS5_10int_writerIjNS0_18basic_format_specsIcEEE10bin_writerILi1EEEEEEEvRKSA_OT_ = comdat any

$_ZNK3fmt2v68internal12basic_writerINS0_12buffer_rangeIcEEE17padded_int_writerINS5_10int_writerIjNS0_18basic_format_specsIcEEE10bin_writerILi1EEEE4sizeEv = comdat any

$_ZNK3fmt2v68internal12basic_writerINS0_12buffer_rangeIcEEE17padded_int_writerINS5_10int_writerIjNS0_18basic_format_specsIcEEE10bin_writerILi1EEEE5widthEv = comdat any

$_ZNK3fmt2v68internal12basic_writerINS0_12buffer_rangeIcEEE17padded_int_writerINS5_10int_writerIjNS0_18basic_format_specsIcEEE10bin_writerILi1EEEEclIPcEEvOT_ = comdat any

$_ZNK3fmt2v68internal12basic_writerINS0_12buffer_rangeIcEEE17padded_int_writerINS5_10int_writerIjNS0_18basic_format_specsIcEEE10bin_writerILi1EEEEclIRPcEEvOT_ = comdat any

$_ZNK3fmt2v68internal12basic_writerINS0_12buffer_rangeIcEEE10int_writerIjNS0_18basic_format_specsIcEEE10bin_writerILi1EEclIRPcEEvOT_ = comdat any

$_ZN3fmt2v68internal12basic_writerINS0_12buffer_rangeIcEEE9write_intINS5_10int_writerIjNS0_18basic_format_specsIcEEE10bin_writerILi3EEEEEviNS0_17basic_string_viewIcEES9_T_ = comdat any

$_ZN3fmt2v68internal12basic_writerINS0_12buffer_rangeIcEEE12write_paddedINS5_17padded_int_writerINS5_10int_writerIjNS0_18basic_format_specsIcEEE10bin_writerILi3EEEEEEEvRKSA_OT_ = comdat any

$_ZNK3fmt2v68internal12basic_writerINS0_12buffer_rangeIcEEE17padded_int_writerINS5_10int_writerIjNS0_18basic_format_specsIcEEE10bin_writerILi3EEEE4sizeEv = comdat any

$_ZNK3fmt2v68internal12basic_writerINS0_12buffer_rangeIcEEE17padded_int_writerINS5_10int_writerIjNS0_18basic_format_specsIcEEE10bin_writerILi3EEEE5widthEv = comdat any

$_ZNK3fmt2v68internal12basic_writerINS0_12buffer_rangeIcEEE17padded_int_writerINS5_10int_writerIjNS0_18basic_format_specsIcEEE10bin_writerILi3EEEEclIPcEEvOT_ = comdat any

$_ZNK3fmt2v68internal12basic_writerINS0_12buffer_rangeIcEEE17padded_int_writerINS5_10int_writerIjNS0_18basic_format_specsIcEEE10bin_writerILi3EEEEclIRPcEEvOT_ = comdat any

$_ZNK3fmt2v68internal12basic_writerINS0_12buffer_rangeIcEEE10int_writerIjNS0_18basic_format_specsIcEEE10bin_writerILi3EEclIRPcEEvOT_ = comdat any

$_ZN3fmt2v68internal12basic_writerINS0_12buffer_rangeIcEEE9write_intINS5_10int_writerIjNS0_18basic_format_specsIcEEE10num_writerEEEviNS0_17basic_string_viewIcEES9_T_ = comdat any

$_ZN3fmt2v68internal12basic_writerINS0_12buffer_rangeIcEEE12write_paddedINS5_17padded_int_writerINS5_10int_writerIjNS0_18basic_format_specsIcEEE10num_writerEEEEEvRKSA_OT_ = comdat any

$_ZNK3fmt2v68internal12basic_writerINS0_12buffer_rangeIcEEE17padded_int_writerINS5_10int_writerIjNS0_18basic_format_specsIcEEE10num_writerEE4sizeEv = comdat any

$_ZNK3fmt2v68internal12basic_writerINS0_12buffer_rangeIcEEE17padded_int_writerINS5_10int_writerIjNS0_18basic_format_specsIcEEE10num_writerEE5widthEv = comdat any

$_ZNK3fmt2v68internal12basic_writerINS0_12buffer_rangeIcEEE17padded_int_writerINS5_10int_writerIjNS0_18basic_format_specsIcEEE10num_writerEEclIPcEEvOT_ = comdat any

$_ZNK3fmt2v68internal12basic_writerINS0_12buffer_rangeIcEEE17padded_int_writerINS5_10int_writerIjNS0_18basic_format_specsIcEEE10num_writerEEclIRPcEEvOT_ = comdat any

$_ZNK3fmt2v68internal12basic_writerINS0_12buffer_rangeIcEEE10int_writerIjNS0_18basic_format_specsIcEEE10num_writerclIRPcEEvOT_ = comdat any

$_ZN3fmt2v68internal14format_decimalIcjPcZNKS1_12basic_writerINS0_12buffer_rangeIcEEE10int_writerIjNS0_18basic_format_specsIcEEE10num_writerclIRS3_EEvOT_EUlSE_E_EET1_SI_T0_iT2_ = comdat any

$_ZN3fmt2v68internal14format_decimalIjcZNKS1_12basic_writerINS0_12buffer_rangeIcEEE10int_writerIjNS0_18basic_format_specsIcEEE10num_writerclIRPcEEvOT_EUlSE_E_EEPT0_SJ_SF_iT1_ = comdat any

$_ZZNK3fmt2v68internal12basic_writerINS0_12buffer_rangeIcEEE10int_writerIjNS0_18basic_format_specsIcEEE10num_writerclIRPcEEvOT_ENKUlSD_E_clESD_ = comdat any

$_ZN3fmt2v68internal11is_negativeIjTnNSt9enable_ifIXntsr3std14numeric_limitsIT_EE9is_signedEiE4typeELi0EEEbS4_ = comdat any

$_ZN3fmt2v68internal12basic_writerINS0_12buffer_rangeIcEEE13write_decimalIjEEvT_ = comdat any

$_ZN3fmt2v68internal12basic_writerINS0_12buffer_rangeIcEEE9write_intIxNS0_18basic_format_specsIcEEEEvT_RKT0_ = comdat any

$_ZN3fmt2v68internal12basic_writerINS0_12buffer_rangeIcEEE5writeEx = comdat any

$_ZN3fmt2v68internal20handle_int_type_specINS1_12basic_writerINS0_12buffer_rangeIcEEE10int_writerIxNS0_18basic_format_specsIcEEEEEEvcOT_ = comdat any

$_ZN3fmt2v68internal12basic_writerINS0_12buffer_rangeIcEEE10int_writerIxNS0_18basic_format_specsIcEEEC2ERS5_xRKS8_ = comdat any

$_ZN3fmt2v68internal12basic_writerINS0_12buffer_rangeIcEEE10int_writerIxNS0_18basic_format_specsIcEEE6on_decEv = comdat any

$_ZN3fmt2v68internal12basic_writerINS0_12buffer_rangeIcEEE10int_writerIxNS0_18basic_format_specsIcEEE6on_hexEv = comdat any

$_ZN3fmt2v68internal12basic_writerINS0_12buffer_rangeIcEEE10int_writerIxNS0_18basic_format_specsIcEEE6on_binEv = comdat any

$_ZN3fmt2v68internal12basic_writerINS0_12buffer_rangeIcEEE10int_writerIxNS0_18basic_format_specsIcEEE6on_octEv = comdat any

$_ZN3fmt2v68internal12basic_writerINS0_12buffer_rangeIcEEE10int_writerIxNS0_18basic_format_specsIcEEE6on_numEv = comdat any

$_ZN3fmt2v68internal12basic_writerINS0_12buffer_rangeIcEEE10int_writerIxNS0_18basic_format_specsIcEEE8on_errorEv = comdat any

$_ZN3fmt2v68internal12count_digitsEm = comdat any

$_ZN3fmt2v68internal12basic_writerINS0_12buffer_rangeIcEEE9write_intINS5_10int_writerIxNS0_18basic_format_specsIcEEE10dec_writerEEEviNS0_17basic_string_viewIcEES9_T_ = comdat any

$_ZNK3fmt2v68internal12basic_writerINS0_12buffer_rangeIcEEE10int_writerIxNS0_18basic_format_specsIcEEE10get_prefixEv = comdat any

$_ZN3fmt2v68internal12basic_writerINS0_12buffer_rangeIcEEE12write_paddedINS5_17padded_int_writerINS5_10int_writerIxNS0_18basic_format_specsIcEEE10dec_writerEEEEEvRKSA_OT_ = comdat any

$_ZNK3fmt2v68internal12basic_writerINS0_12buffer_rangeIcEEE17padded_int_writerINS5_10int_writerIxNS0_18basic_format_specsIcEEE10dec_writerEE4sizeEv = comdat any

$_ZNK3fmt2v68internal12basic_writerINS0_12buffer_rangeIcEEE17padded_int_writerINS5_10int_writerIxNS0_18basic_format_specsIcEEE10dec_writerEE5widthEv = comdat any

$_ZNK3fmt2v68internal12basic_writerINS0_12buffer_rangeIcEEE17padded_int_writerINS5_10int_writerIxNS0_18basic_format_specsIcEEE10dec_writerEEclIPcEEvOT_ = comdat any

$_ZNK3fmt2v68internal12basic_writerINS0_12buffer_rangeIcEEE17padded_int_writerINS5_10int_writerIxNS0_18basic_format_specsIcEEE10dec_writerEEclIRPcEEvOT_ = comdat any

$_ZNK3fmt2v68internal12basic_writerINS0_12buffer_rangeIcEEE10int_writerIxNS0_18basic_format_specsIcEEE10dec_writerclIRPcEEvOT_ = comdat any

$_ZN3fmt2v68internal14format_decimalIcPcmEET0_S4_T1_i = comdat any

$_ZN3fmt2v68internal14format_decimalIcmPcZNS1_14format_decimalIcS3_mEET0_S5_T1_iEUlS3_E_EES6_S6_S5_iT2_ = comdat any

$_ZN3fmt2v68internal14format_decimalImcZNS1_14format_decimalIcPcmEET0_S5_T1_iEUlS4_E_EEPS5_S8_T_iS6_ = comdat any

$_ZZN3fmt2v68internal14format_decimalIcPcmEET0_S4_T1_iENKUlS3_E_clES3_ = comdat any

$_ZN3fmt2v68internal12count_digitsILj4EmEEiT0_ = comdat any

$_ZN3fmt2v68internal12basic_writerINS0_12buffer_rangeIcEEE9write_intINS5_10int_writerIxNS0_18basic_format_specsIcEEE10hex_writerEEEviNS0_17basic_string_viewIcEES9_T_ = comdat any

$_ZN3fmt2v68internal12basic_writerINS0_12buffer_rangeIcEEE12write_paddedINS5_17padded_int_writerINS5_10int_writerIxNS0_18basic_format_specsIcEEE10hex_writerEEEEEvRKSA_OT_ = comdat any

$_ZNK3fmt2v68internal12basic_writerINS0_12buffer_rangeIcEEE17padded_int_writerINS5_10int_writerIxNS0_18basic_format_specsIcEEE10hex_writerEE4sizeEv = comdat any

$_ZNK3fmt2v68internal12basic_writerINS0_12buffer_rangeIcEEE17padded_int_writerINS5_10int_writerIxNS0_18basic_format_specsIcEEE10hex_writerEE5widthEv = comdat any

$_ZNK3fmt2v68internal12basic_writerINS0_12buffer_rangeIcEEE17padded_int_writerINS5_10int_writerIxNS0_18basic_format_specsIcEEE10hex_writerEEclIPcEEvOT_ = comdat any

$_ZNK3fmt2v68internal12basic_writerINS0_12buffer_rangeIcEEE17padded_int_writerINS5_10int_writerIxNS0_18basic_format_specsIcEEE10hex_writerEEclIRPcEEvOT_ = comdat any

$_ZNK3fmt2v68internal12basic_writerINS0_12buffer_rangeIcEEE10int_writerIxNS0_18basic_format_specsIcEEE10hex_writerclIRPcEEvOT_ = comdat any

$_ZN3fmt2v68internal11format_uintILj4EcmEEPT0_S4_T1_ib = comdat any

$_ZN3fmt2v68internal12count_digitsILj1EmEEiT0_ = comdat any

$_ZN3fmt2v68internal12basic_writerINS0_12buffer_rangeIcEEE9write_intINS5_10int_writerIxNS0_18basic_format_specsIcEEE10bin_writerILi1EEEEEviNS0_17basic_string_viewIcEES9_T_ = comdat any

$_ZN3fmt2v68internal12basic_writerINS0_12buffer_rangeIcEEE12write_paddedINS5_17padded_int_writerINS5_10int_writerIxNS0_18basic_format_specsIcEEE10bin_writerILi1EEEEEEEvRKSA_OT_ = comdat any

$_ZNK3fmt2v68internal12basic_writerINS0_12buffer_rangeIcEEE17padded_int_writerINS5_10int_writerIxNS0_18basic_format_specsIcEEE10bin_writerILi1EEEE4sizeEv = comdat any

$_ZNK3fmt2v68internal12basic_writerINS0_12buffer_rangeIcEEE17padded_int_writerINS5_10int_writerIxNS0_18basic_format_specsIcEEE10bin_writerILi1EEEE5widthEv = comdat any

$_ZNK3fmt2v68internal12basic_writerINS0_12buffer_rangeIcEEE17padded_int_writerINS5_10int_writerIxNS0_18basic_format_specsIcEEE10bin_writerILi1EEEEclIPcEEvOT_ = comdat any

$_ZNK3fmt2v68internal12basic_writerINS0_12buffer_rangeIcEEE17padded_int_writerINS5_10int_writerIxNS0_18basic_format_specsIcEEE10bin_writerILi1EEEEclIRPcEEvOT_ = comdat any

$_ZNK3fmt2v68internal12basic_writerINS0_12buffer_rangeIcEEE10int_writerIxNS0_18basic_format_specsIcEEE10bin_writerILi1EEclIRPcEEvOT_ = comdat any

$_ZN3fmt2v68internal11format_uintILj1EcmEEPT0_S4_T1_ib = comdat any

$_ZN3fmt2v68internal12count_digitsILj3EmEEiT0_ = comdat any

$_ZN3fmt2v68internal12basic_writerINS0_12buffer_rangeIcEEE9write_intINS5_10int_writerIxNS0_18basic_format_specsIcEEE10bin_writerILi3EEEEEviNS0_17basic_string_viewIcEES9_T_ = comdat any

$_ZN3fmt2v68internal12basic_writerINS0_12buffer_rangeIcEEE12write_paddedINS5_17padded_int_writerINS5_10int_writerIxNS0_18basic_format_specsIcEEE10bin_writerILi3EEEEEEEvRKSA_OT_ = comdat any

$_ZNK3fmt2v68internal12basic_writerINS0_12buffer_rangeIcEEE17padded_int_writerINS5_10int_writerIxNS0_18basic_format_specsIcEEE10bin_writerILi3EEEE4sizeEv = comdat any

$_ZNK3fmt2v68internal12basic_writerINS0_12buffer_rangeIcEEE17padded_int_writerINS5_10int_writerIxNS0_18basic_format_specsIcEEE10bin_writerILi3EEEE5widthEv = comdat any

$_ZNK3fmt2v68internal12basic_writerINS0_12buffer_rangeIcEEE17padded_int_writerINS5_10int_writerIxNS0_18basic_format_specsIcEEE10bin_writerILi3EEEEclIPcEEvOT_ = comdat any

$_ZNK3fmt2v68internal12basic_writerINS0_12buffer_rangeIcEEE17padded_int_writerINS5_10int_writerIxNS0_18basic_format_specsIcEEE10bin_writerILi3EEEEclIRPcEEvOT_ = comdat any

$_ZNK3fmt2v68internal12basic_writerINS0_12buffer_rangeIcEEE10int_writerIxNS0_18basic_format_specsIcEEE10bin_writerILi3EEclIRPcEEvOT_ = comdat any

$_ZN3fmt2v68internal11format_uintILj3EcmEEPT0_S4_T1_ib = comdat any

$_ZN3fmt2v68internal12basic_writerINS0_12buffer_rangeIcEEE9write_intINS5_10int_writerIxNS0_18basic_format_specsIcEEE10num_writerEEEviNS0_17basic_string_viewIcEES9_T_ = comdat any

$_ZN3fmt2v68internal12basic_writerINS0_12buffer_rangeIcEEE12write_paddedINS5_17padded_int_writerINS5_10int_writerIxNS0_18basic_format_specsIcEEE10num_writerEEEEEvRKSA_OT_ = comdat any

$_ZNK3fmt2v68internal12basic_writerINS0_12buffer_rangeIcEEE17padded_int_writerINS5_10int_writerIxNS0_18basic_format_specsIcEEE10num_writerEE4sizeEv = comdat any

$_ZNK3fmt2v68internal12basic_writerINS0_12buffer_rangeIcEEE17padded_int_writerINS5_10int_writerIxNS0_18basic_format_specsIcEEE10num_writerEE5widthEv = comdat any

$_ZNK3fmt2v68internal12basic_writerINS0_12buffer_rangeIcEEE17padded_int_writerINS5_10int_writerIxNS0_18basic_format_specsIcEEE10num_writerEEclIPcEEvOT_ = comdat any

$_ZNK3fmt2v68internal12basic_writerINS0_12buffer_rangeIcEEE17padded_int_writerINS5_10int_writerIxNS0_18basic_format_specsIcEEE10num_writerEEclIRPcEEvOT_ = comdat any

$_ZNK3fmt2v68internal12basic_writerINS0_12buffer_rangeIcEEE10int_writerIxNS0_18basic_format_specsIcEEE10num_writerclIRPcEEvOT_ = comdat any

$_ZN3fmt2v68internal14format_decimalIcmPcZNKS1_12basic_writerINS0_12buffer_rangeIcEEE10int_writerIxNS0_18basic_format_specsIcEEE10num_writerclIRS3_EEvOT_EUlSE_E_EET1_SI_T0_iT2_ = comdat any

$_ZN3fmt2v68internal14format_decimalImcZNKS1_12basic_writerINS0_12buffer_rangeIcEEE10int_writerIxNS0_18basic_format_specsIcEEE10num_writerclIRPcEEvOT_EUlSE_E_EEPT0_SJ_SF_iT1_ = comdat any

$_ZZNK3fmt2v68internal12basic_writerINS0_12buffer_rangeIcEEE10int_writerIxNS0_18basic_format_specsIcEEE10num_writerclIRPcEEvOT_ENKUlSD_E_clESD_ = comdat any

$_ZN3fmt2v68internal11is_negativeIxTnNSt9enable_ifIXsr3std14numeric_limitsIT_EE9is_signedEiE4typeELi0EEEbS4_ = comdat any

$_ZN3fmt2v68internal12basic_writerINS0_12buffer_rangeIcEEE13write_decimalIxEEvT_ = comdat any

$_ZN3fmt2v68internal12basic_writerINS0_12buffer_rangeIcEEE9write_intIyNS0_18basic_format_specsIcEEEEvT_RKT0_ = comdat any

$_ZN3fmt2v68internal12basic_writerINS0_12buffer_rangeIcEEE5writeEy = comdat any

$_ZN3fmt2v68internal20handle_int_type_specINS1_12basic_writerINS0_12buffer_rangeIcEEE10int_writerIyNS0_18basic_format_specsIcEEEEEEvcOT_ = comdat any

$_ZN3fmt2v68internal12basic_writerINS0_12buffer_rangeIcEEE10int_writerIyNS0_18basic_format_specsIcEEEC2ERS5_yRKS8_ = comdat any

$_ZN3fmt2v68internal12basic_writerINS0_12buffer_rangeIcEEE10int_writerIyNS0_18basic_format_specsIcEEE6on_decEv = comdat any

$_ZN3fmt2v68internal12basic_writerINS0_12buffer_rangeIcEEE10int_writerIyNS0_18basic_format_specsIcEEE6on_hexEv = comdat any

$_ZN3fmt2v68internal12basic_writerINS0_12buffer_rangeIcEEE10int_writerIyNS0_18basic_format_specsIcEEE6on_binEv = comdat any

$_ZN3fmt2v68internal12basic_writerINS0_12buffer_rangeIcEEE10int_writerIyNS0_18basic_format_specsIcEEE6on_octEv = comdat any

$_ZN3fmt2v68internal12basic_writerINS0_12buffer_rangeIcEEE10int_writerIyNS0_18basic_format_specsIcEEE6on_numEv = comdat any

$_ZN3fmt2v68internal12basic_writerINS0_12buffer_rangeIcEEE10int_writerIyNS0_18basic_format_specsIcEEE8on_errorEv = comdat any

$_ZN3fmt2v68internal12basic_writerINS0_12buffer_rangeIcEEE9write_intINS5_10int_writerIyNS0_18basic_format_specsIcEEE10dec_writerEEEviNS0_17basic_string_viewIcEES9_T_ = comdat any

$_ZNK3fmt2v68internal12basic_writerINS0_12buffer_rangeIcEEE10int_writerIyNS0_18basic_format_specsIcEEE10get_prefixEv = comdat any

$_ZN3fmt2v68internal12basic_writerINS0_12buffer_rangeIcEEE12write_paddedINS5_17padded_int_writerINS5_10int_writerIyNS0_18basic_format_specsIcEEE10dec_writerEEEEEvRKSA_OT_ = comdat any

$_ZNK3fmt2v68internal12basic_writerINS0_12buffer_rangeIcEEE17padded_int_writerINS5_10int_writerIyNS0_18basic_format_specsIcEEE10dec_writerEE4sizeEv = comdat any

$_ZNK3fmt2v68internal12basic_writerINS0_12buffer_rangeIcEEE17padded_int_writerINS5_10int_writerIyNS0_18basic_format_specsIcEEE10dec_writerEE5widthEv = comdat any

$_ZNK3fmt2v68internal12basic_writerINS0_12buffer_rangeIcEEE17padded_int_writerINS5_10int_writerIyNS0_18basic_format_specsIcEEE10dec_writerEEclIPcEEvOT_ = comdat any

$_ZNK3fmt2v68internal12basic_writerINS0_12buffer_rangeIcEEE17padded_int_writerINS5_10int_writerIyNS0_18basic_format_specsIcEEE10dec_writerEEclIRPcEEvOT_ = comdat any

$_ZNK3fmt2v68internal12basic_writerINS0_12buffer_rangeIcEEE10int_writerIyNS0_18basic_format_specsIcEEE10dec_writerclIRPcEEvOT_ = comdat any

$_ZN3fmt2v68internal12basic_writerINS0_12buffer_rangeIcEEE9write_intINS5_10int_writerIyNS0_18basic_format_specsIcEEE10hex_writerEEEviNS0_17basic_string_viewIcEES9_T_ = comdat any

$_ZN3fmt2v68internal12basic_writerINS0_12buffer_rangeIcEEE12write_paddedINS5_17padded_int_writerINS5_10int_writerIyNS0_18basic_format_specsIcEEE10hex_writerEEEEEvRKSA_OT_ = comdat any

$_ZNK3fmt2v68internal12basic_writerINS0_12buffer_rangeIcEEE17padded_int_writerINS5_10int_writerIyNS0_18basic_format_specsIcEEE10hex_writerEE4sizeEv = comdat any

$_ZNK3fmt2v68internal12basic_writerINS0_12buffer_rangeIcEEE17padded_int_writerINS5_10int_writerIyNS0_18basic_format_specsIcEEE10hex_writerEE5widthEv = comdat any

$_ZNK3fmt2v68internal12basic_writerINS0_12buffer_rangeIcEEE17padded_int_writerINS5_10int_writerIyNS0_18basic_format_specsIcEEE10hex_writerEEclIPcEEvOT_ = comdat any

$_ZNK3fmt2v68internal12basic_writerINS0_12buffer_rangeIcEEE17padded_int_writerINS5_10int_writerIyNS0_18basic_format_specsIcEEE10hex_writerEEclIRPcEEvOT_ = comdat any

$_ZNK3fmt2v68internal12basic_writerINS0_12buffer_rangeIcEEE10int_writerIyNS0_18basic_format_specsIcEEE10hex_writerclIRPcEEvOT_ = comdat any

$_ZN3fmt2v68internal12basic_writerINS0_12buffer_rangeIcEEE9write_intINS5_10int_writerIyNS0_18basic_format_specsIcEEE10bin_writerILi1EEEEEviNS0_17basic_string_viewIcEES9_T_ = comdat any

$_ZN3fmt2v68internal12basic_writerINS0_12buffer_rangeIcEEE12write_paddedINS5_17padded_int_writerINS5_10int_writerIyNS0_18basic_format_specsIcEEE10bin_writerILi1EEEEEEEvRKSA_OT_ = comdat any

$_ZNK3fmt2v68internal12basic_writerINS0_12buffer_rangeIcEEE17padded_int_writerINS5_10int_writerIyNS0_18basic_format_specsIcEEE10bin_writerILi1EEEE4sizeEv = comdat any

$_ZNK3fmt2v68internal12basic_writerINS0_12buffer_rangeIcEEE17padded_int_writerINS5_10int_writerIyNS0_18basic_format_specsIcEEE10bin_writerILi1EEEE5widthEv = comdat any

$_ZNK3fmt2v68internal12basic_writerINS0_12buffer_rangeIcEEE17padded_int_writerINS5_10int_writerIyNS0_18basic_format_specsIcEEE10bin_writerILi1EEEEclIPcEEvOT_ = comdat any

$_ZNK3fmt2v68internal12basic_writerINS0_12buffer_rangeIcEEE17padded_int_writerINS5_10int_writerIyNS0_18basic_format_specsIcEEE10bin_writerILi1EEEEclIRPcEEvOT_ = comdat any

$_ZNK3fmt2v68internal12basic_writerINS0_12buffer_rangeIcEEE10int_writerIyNS0_18basic_format_specsIcEEE10bin_writerILi1EEclIRPcEEvOT_ = comdat any

$_ZN3fmt2v68internal12basic_writerINS0_12buffer_rangeIcEEE9write_intINS5_10int_writerIyNS0_18basic_format_specsIcEEE10bin_writerILi3EEEEEviNS0_17basic_string_viewIcEES9_T_ = comdat any

$_ZN3fmt2v68internal12basic_writerINS0_12buffer_rangeIcEEE12write_paddedINS5_17padded_int_writerINS5_10int_writerIyNS0_18basic_format_specsIcEEE10bin_writerILi3EEEEEEEvRKSA_OT_ = comdat any

$_ZNK3fmt2v68internal12basic_writerINS0_12buffer_rangeIcEEE17padded_int_writerINS5_10int_writerIyNS0_18basic_format_specsIcEEE10bin_writerILi3EEEE4sizeEv = comdat any

$_ZNK3fmt2v68internal12basic_writerINS0_12buffer_rangeIcEEE17padded_int_writerINS5_10int_writerIyNS0_18basic_format_specsIcEEE10bin_writerILi3EEEE5widthEv = comdat any

$_ZNK3fmt2v68internal12basic_writerINS0_12buffer_rangeIcEEE17padded_int_writerINS5_10int_writerIyNS0_18basic_format_specsIcEEE10bin_writerILi3EEEEclIPcEEvOT_ = comdat any

$_ZNK3fmt2v68internal12basic_writerINS0_12buffer_rangeIcEEE17padded_int_writerINS5_10int_writerIyNS0_18basic_format_specsIcEEE10bin_writerILi3EEEEclIRPcEEvOT_ = comdat any

$_ZNK3fmt2v68internal12basic_writerINS0_12buffer_rangeIcEEE10int_writerIyNS0_18basic_format_specsIcEEE10bin_writerILi3EEclIRPcEEvOT_ = comdat any

$_ZN3fmt2v68internal12basic_writerINS0_12buffer_rangeIcEEE9write_intINS5_10int_writerIyNS0_18basic_format_specsIcEEE10num_writerEEEviNS0_17basic_string_viewIcEES9_T_ = comdat any

$_ZN3fmt2v68internal12basic_writerINS0_12buffer_rangeIcEEE12write_paddedINS5_17padded_int_writerINS5_10int_writerIyNS0_18basic_format_specsIcEEE10num_writerEEEEEvRKSA_OT_ = comdat any

$_ZNK3fmt2v68internal12basic_writerINS0_12buffer_rangeIcEEE17padded_int_writerINS5_10int_writerIyNS0_18basic_format_specsIcEEE10num_writerEE4sizeEv = comdat any

$_ZNK3fmt2v68internal12basic_writerINS0_12buffer_rangeIcEEE17padded_int_writerINS5_10int_writerIyNS0_18basic_format_specsIcEEE10num_writerEE5widthEv = comdat any

$_ZNK3fmt2v68internal12basic_writerINS0_12buffer_rangeIcEEE17padded_int_writerINS5_10int_writerIyNS0_18basic_format_specsIcEEE10num_writerEEclIPcEEvOT_ = comdat any

$_ZNK3fmt2v68internal12basic_writerINS0_12buffer_rangeIcEEE17padded_int_writerINS5_10int_writerIyNS0_18basic_format_specsIcEEE10num_writerEEclIRPcEEvOT_ = comdat any

$_ZNK3fmt2v68internal12basic_writerINS0_12buffer_rangeIcEEE10int_writerIyNS0_18basic_format_specsIcEEE10num_writerclIRPcEEvOT_ = comdat any

$_ZN3fmt2v68internal14format_decimalIcmPcZNKS1_12basic_writerINS0_12buffer_rangeIcEEE10int_writerIyNS0_18basic_format_specsIcEEE10num_writerclIRS3_EEvOT_EUlSE_E_EET1_SI_T0_iT2_ = comdat any

$_ZN3fmt2v68internal14format_decimalImcZNKS1_12basic_writerINS0_12buffer_rangeIcEEE10int_writerIyNS0_18basic_format_specsIcEEE10num_writerclIRPcEEvOT_EUlSE_E_EEPT0_SJ_SF_iT1_ = comdat any

$_ZZNK3fmt2v68internal12basic_writerINS0_12buffer_rangeIcEEE10int_writerIyNS0_18basic_format_specsIcEEE10num_writerclIRPcEEvOT_ENKUlSD_E_clESD_ = comdat any

$_ZN3fmt2v68internal11is_negativeIyTnNSt9enable_ifIXntsr3std14numeric_limitsIT_EE9is_signedEiE4typeELi0EEEbS4_ = comdat any

$_ZN3fmt2v68internal12basic_writerINS0_12buffer_rangeIcEEE13write_decimalIyEEvT_ = comdat any

$_ZN3fmt2v68internal12basic_writerINS0_12buffer_rangeIcEEE9write_intInNS0_18basic_format_specsIcEEEEvT_RKT0_ = comdat any

$_ZN3fmt2v68internal12basic_writerINS0_12buffer_rangeIcEEE5writeEn = comdat any

$_ZN3fmt2v68internal20handle_int_type_specINS1_12basic_writerINS0_12buffer_rangeIcEEE10int_writerInNS0_18basic_format_specsIcEEEEEEvcOT_ = comdat any

$_ZN3fmt2v68internal12basic_writerINS0_12buffer_rangeIcEEE10int_writerInNS0_18basic_format_specsIcEEEC2ERS5_nRKS8_ = comdat any

$_ZN3fmt2v68internal12basic_writerINS0_12buffer_rangeIcEEE10int_writerInNS0_18basic_format_specsIcEEE6on_decEv = comdat any

$_ZN3fmt2v68internal12basic_writerINS0_12buffer_rangeIcEEE10int_writerInNS0_18basic_format_specsIcEEE6on_hexEv = comdat any

$_ZN3fmt2v68internal12basic_writerINS0_12buffer_rangeIcEEE10int_writerInNS0_18basic_format_specsIcEEE6on_binEv = comdat any

$_ZN3fmt2v68internal12basic_writerINS0_12buffer_rangeIcEEE10int_writerInNS0_18basic_format_specsIcEEE6on_octEv = comdat any

$_ZN3fmt2v68internal12basic_writerINS0_12buffer_rangeIcEEE10int_writerInNS0_18basic_format_specsIcEEE6on_numEv = comdat any

$_ZN3fmt2v68internal12basic_writerINS0_12buffer_rangeIcEEE10int_writerInNS0_18basic_format_specsIcEEE8on_errorEv = comdat any

$_ZN3fmt2v68internal12count_digitsEo = comdat any

$_ZN3fmt2v68internal12basic_writerINS0_12buffer_rangeIcEEE9write_intINS5_10int_writerInNS0_18basic_format_specsIcEEE10dec_writerEEEviNS0_17basic_string_viewIcEES9_T_ = comdat any

$_ZNK3fmt2v68internal12basic_writerINS0_12buffer_rangeIcEEE10int_writerInNS0_18basic_format_specsIcEEE10get_prefixEv = comdat any

$_ZN3fmt2v68internal12basic_writerINS0_12buffer_rangeIcEEE12write_paddedINS5_17padded_int_writerINS5_10int_writerInNS0_18basic_format_specsIcEEE10dec_writerEEEEEvRKSA_OT_ = comdat any

$_ZNK3fmt2v68internal12basic_writerINS0_12buffer_rangeIcEEE17padded_int_writerINS5_10int_writerInNS0_18basic_format_specsIcEEE10dec_writerEE4sizeEv = comdat any

$_ZNK3fmt2v68internal12basic_writerINS0_12buffer_rangeIcEEE17padded_int_writerINS5_10int_writerInNS0_18basic_format_specsIcEEE10dec_writerEE5widthEv = comdat any

$_ZNK3fmt2v68internal12basic_writerINS0_12buffer_rangeIcEEE17padded_int_writerINS5_10int_writerInNS0_18basic_format_specsIcEEE10dec_writerEEclIPcEEvOT_ = comdat any

$_ZNK3fmt2v68internal12basic_writerINS0_12buffer_rangeIcEEE17padded_int_writerINS5_10int_writerInNS0_18basic_format_specsIcEEE10dec_writerEEclIRPcEEvOT_ = comdat any

$_ZNK3fmt2v68internal12basic_writerINS0_12buffer_rangeIcEEE10int_writerInNS0_18basic_format_specsIcEEE10dec_writerclIRPcEEvOT_ = comdat any

$_ZN3fmt2v68internal14format_decimalIcPcoEET0_S4_T1_i = comdat any

$_ZN3fmt2v68internal14format_decimalIcoPcZNS1_14format_decimalIcS3_oEET0_S5_T1_iEUlS3_E_EES6_S6_S5_iT2_ = comdat any

$_ZN3fmt2v68internal14format_decimalIocZNS1_14format_decimalIcPcoEET0_S5_T1_iEUlS4_E_EEPS5_S8_T_iS6_ = comdat any

$_ZZN3fmt2v68internal14format_decimalIcPcoEET0_S4_T1_iENKUlS3_E_clES3_ = comdat any

$_ZN3fmt2v68internal12count_digitsILj4EoEEiT0_ = comdat any

$_ZN3fmt2v68internal12basic_writerINS0_12buffer_rangeIcEEE9write_intINS5_10int_writerInNS0_18basic_format_specsIcEEE10hex_writerEEEviNS0_17basic_string_viewIcEES9_T_ = comdat any

$_ZN3fmt2v68internal12basic_writerINS0_12buffer_rangeIcEEE12write_paddedINS5_17padded_int_writerINS5_10int_writerInNS0_18basic_format_specsIcEEE10hex_writerEEEEEvRKSA_OT_ = comdat any

$_ZNK3fmt2v68internal12basic_writerINS0_12buffer_rangeIcEEE17padded_int_writerINS5_10int_writerInNS0_18basic_format_specsIcEEE10hex_writerEE4sizeEv = comdat any

$_ZNK3fmt2v68internal12basic_writerINS0_12buffer_rangeIcEEE17padded_int_writerINS5_10int_writerInNS0_18basic_format_specsIcEEE10hex_writerEE5widthEv = comdat any

$_ZNK3fmt2v68internal12basic_writerINS0_12buffer_rangeIcEEE17padded_int_writerINS5_10int_writerInNS0_18basic_format_specsIcEEE10hex_writerEEclIPcEEvOT_ = comdat any

$_ZNK3fmt2v68internal12basic_writerINS0_12buffer_rangeIcEEE17padded_int_writerINS5_10int_writerInNS0_18basic_format_specsIcEEE10hex_writerEEclIRPcEEvOT_ = comdat any

$_ZNK3fmt2v68internal12basic_writerINS0_12buffer_rangeIcEEE10int_writerInNS0_18basic_format_specsIcEEE10hex_writerclIRPcEEvOT_ = comdat any

$_ZN3fmt2v68internal11format_uintILj4EcoEEPT0_S4_T1_ib = comdat any

$_ZN3fmt2v68internal12count_digitsILj1EoEEiT0_ = comdat any

$_ZN3fmt2v68internal12basic_writerINS0_12buffer_rangeIcEEE9write_intINS5_10int_writerInNS0_18basic_format_specsIcEEE10bin_writerILi1EEEEEviNS0_17basic_string_viewIcEES9_T_ = comdat any

$_ZN3fmt2v68internal12basic_writerINS0_12buffer_rangeIcEEE12write_paddedINS5_17padded_int_writerINS5_10int_writerInNS0_18basic_format_specsIcEEE10bin_writerILi1EEEEEEEvRKSA_OT_ = comdat any

$_ZNK3fmt2v68internal12basic_writerINS0_12buffer_rangeIcEEE17padded_int_writerINS5_10int_writerInNS0_18basic_format_specsIcEEE10bin_writerILi1EEEE4sizeEv = comdat any

$_ZNK3fmt2v68internal12basic_writerINS0_12buffer_rangeIcEEE17padded_int_writerINS5_10int_writerInNS0_18basic_format_specsIcEEE10bin_writerILi1EEEE5widthEv = comdat any

$_ZNK3fmt2v68internal12basic_writerINS0_12buffer_rangeIcEEE17padded_int_writerINS5_10int_writerInNS0_18basic_format_specsIcEEE10bin_writerILi1EEEEclIPcEEvOT_ = comdat any

$_ZNK3fmt2v68internal12basic_writerINS0_12buffer_rangeIcEEE17padded_int_writerINS5_10int_writerInNS0_18basic_format_specsIcEEE10bin_writerILi1EEEEclIRPcEEvOT_ = comdat any

$_ZNK3fmt2v68internal12basic_writerINS0_12buffer_rangeIcEEE10int_writerInNS0_18basic_format_specsIcEEE10bin_writerILi1EEclIRPcEEvOT_ = comdat any

$_ZN3fmt2v68internal11format_uintILj1EcoEEPT0_S4_T1_ib = comdat any

$_ZN3fmt2v68internal12count_digitsILj3EoEEiT0_ = comdat any

$_ZN3fmt2v68internal12basic_writerINS0_12buffer_rangeIcEEE9write_intINS5_10int_writerInNS0_18basic_format_specsIcEEE10bin_writerILi3EEEEEviNS0_17basic_string_viewIcEES9_T_ = comdat any

$_ZN3fmt2v68internal12basic_writerINS0_12buffer_rangeIcEEE12write_paddedINS5_17padded_int_writerINS5_10int_writerInNS0_18basic_format_specsIcEEE10bin_writerILi3EEEEEEEvRKSA_OT_ = comdat any

$_ZNK3fmt2v68internal12basic_writerINS0_12buffer_rangeIcEEE17padded_int_writerINS5_10int_writerInNS0_18basic_format_specsIcEEE10bin_writerILi3EEEE4sizeEv = comdat any

$_ZNK3fmt2v68internal12basic_writerINS0_12buffer_rangeIcEEE17padded_int_writerINS5_10int_writerInNS0_18basic_format_specsIcEEE10bin_writerILi3EEEE5widthEv = comdat any

$_ZNK3fmt2v68internal12basic_writerINS0_12buffer_rangeIcEEE17padded_int_writerINS5_10int_writerInNS0_18basic_format_specsIcEEE10bin_writerILi3EEEEclIPcEEvOT_ = comdat any

$_ZNK3fmt2v68internal12basic_writerINS0_12buffer_rangeIcEEE17padded_int_writerINS5_10int_writerInNS0_18basic_format_specsIcEEE10bin_writerILi3EEEEclIRPcEEvOT_ = comdat any

$_ZNK3fmt2v68internal12basic_writerINS0_12buffer_rangeIcEEE10int_writerInNS0_18basic_format_specsIcEEE10bin_writerILi3EEclIRPcEEvOT_ = comdat any

$_ZN3fmt2v68internal11format_uintILj3EcoEEPT0_S4_T1_ib = comdat any

$_ZN3fmt2v68internal12basic_writerINS0_12buffer_rangeIcEEE9write_intINS5_10int_writerInNS0_18basic_format_specsIcEEE10num_writerEEEviNS0_17basic_string_viewIcEES9_T_ = comdat any

$_ZN3fmt2v68internal12basic_writerINS0_12buffer_rangeIcEEE12write_paddedINS5_17padded_int_writerINS5_10int_writerInNS0_18basic_format_specsIcEEE10num_writerEEEEEvRKSA_OT_ = comdat any

$_ZNK3fmt2v68internal12basic_writerINS0_12buffer_rangeIcEEE17padded_int_writerINS5_10int_writerInNS0_18basic_format_specsIcEEE10num_writerEE4sizeEv = comdat any

$_ZNK3fmt2v68internal12basic_writerINS0_12buffer_rangeIcEEE17padded_int_writerINS5_10int_writerInNS0_18basic_format_specsIcEEE10num_writerEE5widthEv = comdat any

$_ZNK3fmt2v68internal12basic_writerINS0_12buffer_rangeIcEEE17padded_int_writerINS5_10int_writerInNS0_18basic_format_specsIcEEE10num_writerEEclIPcEEvOT_ = comdat any

$_ZNK3fmt2v68internal12basic_writerINS0_12buffer_rangeIcEEE17padded_int_writerINS5_10int_writerInNS0_18basic_format_specsIcEEE10num_writerEEclIRPcEEvOT_ = comdat any

$_ZNK3fmt2v68internal12basic_writerINS0_12buffer_rangeIcEEE10int_writerInNS0_18basic_format_specsIcEEE10num_writerclIRPcEEvOT_ = comdat any

$_ZN3fmt2v68internal14format_decimalIcoPcZNKS1_12basic_writerINS0_12buffer_rangeIcEEE10int_writerInNS0_18basic_format_specsIcEEE10num_writerclIRS3_EEvOT_EUlSE_E_EET1_SI_T0_iT2_ = comdat any

$_ZN3fmt2v68internal14format_decimalIocZNKS1_12basic_writerINS0_12buffer_rangeIcEEE10int_writerInNS0_18basic_format_specsIcEEE10num_writerclIRPcEEvOT_EUlSE_E_EEPT0_SJ_SF_iT1_ = comdat any

$_ZZNK3fmt2v68internal12basic_writerINS0_12buffer_rangeIcEEE10int_writerInNS0_18basic_format_specsIcEEE10num_writerclIRPcEEvOT_ENKUlSD_E_clESD_ = comdat any

$_ZN3fmt2v68internal11is_negativeInTnNSt9enable_ifIXsr3std14numeric_limitsIT_EE9is_signedEiE4typeELi0EEEbS4_ = comdat any

$_ZN3fmt2v68internal12basic_writerINS0_12buffer_rangeIcEEE13write_decimalInEEvT_ = comdat any

$_ZN3fmt2v68internal12basic_writerINS0_12buffer_rangeIcEEE9write_intIoNS0_18basic_format_specsIcEEEEvT_RKT0_ = comdat any

$_ZN3fmt2v68internal12basic_writerINS0_12buffer_rangeIcEEE5writeEo = comdat any

$_ZN3fmt2v68internal20handle_int_type_specINS1_12basic_writerINS0_12buffer_rangeIcEEE10int_writerIoNS0_18basic_format_specsIcEEEEEEvcOT_ = comdat any

$_ZN3fmt2v68internal12basic_writerINS0_12buffer_rangeIcEEE10int_writerIoNS0_18basic_format_specsIcEEEC2ERS5_oRKS8_ = comdat any

$_ZN3fmt2v68internal12basic_writerINS0_12buffer_rangeIcEEE10int_writerIoNS0_18basic_format_specsIcEEE6on_decEv = comdat any

$_ZN3fmt2v68internal12basic_writerINS0_12buffer_rangeIcEEE10int_writerIoNS0_18basic_format_specsIcEEE6on_hexEv = comdat any

$_ZN3fmt2v68internal12basic_writerINS0_12buffer_rangeIcEEE10int_writerIoNS0_18basic_format_specsIcEEE6on_binEv = comdat any

$_ZN3fmt2v68internal12basic_writerINS0_12buffer_rangeIcEEE10int_writerIoNS0_18basic_format_specsIcEEE6on_octEv = comdat any

$_ZN3fmt2v68internal12basic_writerINS0_12buffer_rangeIcEEE10int_writerIoNS0_18basic_format_specsIcEEE6on_numEv = comdat any

$_ZN3fmt2v68internal12basic_writerINS0_12buffer_rangeIcEEE10int_writerIoNS0_18basic_format_specsIcEEE8on_errorEv = comdat any

$_ZN3fmt2v68internal12basic_writerINS0_12buffer_rangeIcEEE9write_intINS5_10int_writerIoNS0_18basic_format_specsIcEEE10dec_writerEEEviNS0_17basic_string_viewIcEES9_T_ = comdat any

$_ZNK3fmt2v68internal12basic_writerINS0_12buffer_rangeIcEEE10int_writerIoNS0_18basic_format_specsIcEEE10get_prefixEv = comdat any

$_ZN3fmt2v68internal12basic_writerINS0_12buffer_rangeIcEEE12write_paddedINS5_17padded_int_writerINS5_10int_writerIoNS0_18basic_format_specsIcEEE10dec_writerEEEEEvRKSA_OT_ = comdat any

$_ZNK3fmt2v68internal12basic_writerINS0_12buffer_rangeIcEEE17padded_int_writerINS5_10int_writerIoNS0_18basic_format_specsIcEEE10dec_writerEE4sizeEv = comdat any

$_ZNK3fmt2v68internal12basic_writerINS0_12buffer_rangeIcEEE17padded_int_writerINS5_10int_writerIoNS0_18basic_format_specsIcEEE10dec_writerEE5widthEv = comdat any

$_ZNK3fmt2v68internal12basic_writerINS0_12buffer_rangeIcEEE17padded_int_writerINS5_10int_writerIoNS0_18basic_format_specsIcEEE10dec_writerEEclIPcEEvOT_ = comdat any

$_ZNK3fmt2v68internal12basic_writerINS0_12buffer_rangeIcEEE17padded_int_writerINS5_10int_writerIoNS0_18basic_format_specsIcEEE10dec_writerEEclIRPcEEvOT_ = comdat any

$_ZNK3fmt2v68internal12basic_writerINS0_12buffer_rangeIcEEE10int_writerIoNS0_18basic_format_specsIcEEE10dec_writerclIRPcEEvOT_ = comdat any

$_ZN3fmt2v68internal12basic_writerINS0_12buffer_rangeIcEEE9write_intINS5_10int_writerIoNS0_18basic_format_specsIcEEE10hex_writerEEEviNS0_17basic_string_viewIcEES9_T_ = comdat any

$_ZN3fmt2v68internal12basic_writerINS0_12buffer_rangeIcEEE12write_paddedINS5_17padded_int_writerINS5_10int_writerIoNS0_18basic_format_specsIcEEE10hex_writerEEEEEvRKSA_OT_ = comdat any

$_ZNK3fmt2v68internal12basic_writerINS0_12buffer_rangeIcEEE17padded_int_writerINS5_10int_writerIoNS0_18basic_format_specsIcEEE10hex_writerEE4sizeEv = comdat any

$_ZNK3fmt2v68internal12basic_writerINS0_12buffer_rangeIcEEE17padded_int_writerINS5_10int_writerIoNS0_18basic_format_specsIcEEE10hex_writerEE5widthEv = comdat any

$_ZNK3fmt2v68internal12basic_writerINS0_12buffer_rangeIcEEE17padded_int_writerINS5_10int_writerIoNS0_18basic_format_specsIcEEE10hex_writerEEclIPcEEvOT_ = comdat any

$_ZNK3fmt2v68internal12basic_writerINS0_12buffer_rangeIcEEE17padded_int_writerINS5_10int_writerIoNS0_18basic_format_specsIcEEE10hex_writerEEclIRPcEEvOT_ = comdat any

$_ZNK3fmt2v68internal12basic_writerINS0_12buffer_rangeIcEEE10int_writerIoNS0_18basic_format_specsIcEEE10hex_writerclIRPcEEvOT_ = comdat any

$_ZN3fmt2v68internal12basic_writerINS0_12buffer_rangeIcEEE9write_intINS5_10int_writerIoNS0_18basic_format_specsIcEEE10bin_writerILi1EEEEEviNS0_17basic_string_viewIcEES9_T_ = comdat any

$_ZN3fmt2v68internal12basic_writerINS0_12buffer_rangeIcEEE12write_paddedINS5_17padded_int_writerINS5_10int_writerIoNS0_18basic_format_specsIcEEE10bin_writerILi1EEEEEEEvRKSA_OT_ = comdat any

$_ZNK3fmt2v68internal12basic_writerINS0_12buffer_rangeIcEEE17padded_int_writerINS5_10int_writerIoNS0_18basic_format_specsIcEEE10bin_writerILi1EEEE4sizeEv = comdat any

$_ZNK3fmt2v68internal12basic_writerINS0_12buffer_rangeIcEEE17padded_int_writerINS5_10int_writerIoNS0_18basic_format_specsIcEEE10bin_writerILi1EEEE5widthEv = comdat any

$_ZNK3fmt2v68internal12basic_writerINS0_12buffer_rangeIcEEE17padded_int_writerINS5_10int_writerIoNS0_18basic_format_specsIcEEE10bin_writerILi1EEEEclIPcEEvOT_ = comdat any

$_ZNK3fmt2v68internal12basic_writerINS0_12buffer_rangeIcEEE17padded_int_writerINS5_10int_writerIoNS0_18basic_format_specsIcEEE10bin_writerILi1EEEEclIRPcEEvOT_ = comdat any

$_ZNK3fmt2v68internal12basic_writerINS0_12buffer_rangeIcEEE10int_writerIoNS0_18basic_format_specsIcEEE10bin_writerILi1EEclIRPcEEvOT_ = comdat any

$_ZN3fmt2v68internal12basic_writerINS0_12buffer_rangeIcEEE9write_intINS5_10int_writerIoNS0_18basic_format_specsIcEEE10bin_writerILi3EEEEEviNS0_17basic_string_viewIcEES9_T_ = comdat any

$_ZN3fmt2v68internal12basic_writerINS0_12buffer_rangeIcEEE12write_paddedINS5_17padded_int_writerINS5_10int_writerIoNS0_18basic_format_specsIcEEE10bin_writerILi3EEEEEEEvRKSA_OT_ = comdat any

$_ZNK3fmt2v68internal12basic_writerINS0_12buffer_rangeIcEEE17padded_int_writerINS5_10int_writerIoNS0_18basic_format_specsIcEEE10bin_writerILi3EEEE4sizeEv = comdat any

$_ZNK3fmt2v68internal12basic_writerINS0_12buffer_rangeIcEEE17padded_int_writerINS5_10int_writerIoNS0_18basic_format_specsIcEEE10bin_writerILi3EEEE5widthEv = comdat any

$_ZNK3fmt2v68internal12basic_writerINS0_12buffer_rangeIcEEE17padded_int_writerINS5_10int_writerIoNS0_18basic_format_specsIcEEE10bin_writerILi3EEEEclIPcEEvOT_ = comdat any

$_ZNK3fmt2v68internal12basic_writerINS0_12buffer_rangeIcEEE17padded_int_writerINS5_10int_writerIoNS0_18basic_format_specsIcEEE10bin_writerILi3EEEEclIRPcEEvOT_ = comdat any

$_ZNK3fmt2v68internal12basic_writerINS0_12buffer_rangeIcEEE10int_writerIoNS0_18basic_format_specsIcEEE10bin_writerILi3EEclIRPcEEvOT_ = comdat any

$_ZN3fmt2v68internal12basic_writerINS0_12buffer_rangeIcEEE9write_intINS5_10int_writerIoNS0_18basic_format_specsIcEEE10num_writerEEEviNS0_17basic_string_viewIcEES9_T_ = comdat any

$_ZN3fmt2v68internal12basic_writerINS0_12buffer_rangeIcEEE12write_paddedINS5_17padded_int_writerINS5_10int_writerIoNS0_18basic_format_specsIcEEE10num_writerEEEEEvRKSA_OT_ = comdat any

$_ZNK3fmt2v68internal12basic_writerINS0_12buffer_rangeIcEEE17padded_int_writerINS5_10int_writerIoNS0_18basic_format_specsIcEEE10num_writerEE4sizeEv = comdat any

$_ZNK3fmt2v68internal12basic_writerINS0_12buffer_rangeIcEEE17padded_int_writerINS5_10int_writerIoNS0_18basic_format_specsIcEEE10num_writerEE5widthEv = comdat any

$_ZNK3fmt2v68internal12basic_writerINS0_12buffer_rangeIcEEE17padded_int_writerINS5_10int_writerIoNS0_18basic_format_specsIcEEE10num_writerEEclIPcEEvOT_ = comdat any

$_ZNK3fmt2v68internal12basic_writerINS0_12buffer_rangeIcEEE17padded_int_writerINS5_10int_writerIoNS0_18basic_format_specsIcEEE10num_writerEEclIRPcEEvOT_ = comdat any

$_ZNK3fmt2v68internal12basic_writerINS0_12buffer_rangeIcEEE10int_writerIoNS0_18basic_format_specsIcEEE10num_writerclIRPcEEvOT_ = comdat any

$_ZN3fmt2v68internal14format_decimalIcoPcZNKS1_12basic_writerINS0_12buffer_rangeIcEEE10int_writerIoNS0_18basic_format_specsIcEEE10num_writerclIRS3_EEvOT_EUlSE_E_EET1_SI_T0_iT2_ = comdat any

$_ZN3fmt2v68internal14format_decimalIocZNKS1_12basic_writerINS0_12buffer_rangeIcEEE10int_writerIoNS0_18basic_format_specsIcEEE10num_writerclIRPcEEvOT_EUlSE_E_EEPT0_SJ_SF_iT1_ = comdat any

$_ZZNK3fmt2v68internal12basic_writerINS0_12buffer_rangeIcEEE10int_writerIoNS0_18basic_format_specsIcEEE10num_writerclIRPcEEvOT_ENKUlSD_E_clESD_ = comdat any

$_ZN3fmt2v68internal11is_negativeIoTnNSt9enable_ifIXntsr3std14numeric_limitsIT_EE9is_signedEiE4typeELi0EEEbS4_ = comdat any

$_ZN3fmt2v68internal12basic_writerINS0_12buffer_rangeIcEEE13write_decimalIoEEvT_ = comdat any

$_ZN3fmt2v68internal18arg_formatter_baseINS0_12buffer_rangeIcEENS1_13error_handlerEE5writeEb = comdat any

$_ZN3fmt2v617basic_string_viewIcEC2EPKc = comdat any

$_ZN3fmt2v68internal12basic_writerINS0_12buffer_rangeIcEEE5writeIcEEvNS0_17basic_string_viewIT_EERKNS0_18basic_format_specsIcEE = comdat any

$_ZN3fmt2v68internal12basic_writerINS0_12buffer_rangeIcEEE5writeENS0_17basic_string_viewIcEE = comdat any

$_ZNSt11char_traitsIcE6lengthEPKc = comdat any

$_ZN3fmt2v68internal16code_point_indexIcEEmNS0_17basic_string_viewIT_EEm = comdat any

$_ZN3fmt2v68internal12basic_writerINS0_12buffer_rangeIcEEE5writeIcEEvPKT_mRKNS0_18basic_format_specsIcEE = comdat any

$_ZN3fmt2v68internal12basic_writerINS0_12buffer_rangeIcEEE12write_paddedINS5_10str_writerIcEEEEvRKNS0_18basic_format_specsIcEEOT_ = comdat any

$_ZNK3fmt2v68internal12basic_writerINS0_12buffer_rangeIcEEE10str_writerIcE4sizeEv = comdat any

$_ZNK3fmt2v68internal12basic_writerINS0_12buffer_rangeIcEEE10str_writerIcE5widthEv = comdat any

$_ZNK3fmt2v68internal12basic_writerINS0_12buffer_rangeIcEEE10str_writerIcEclIPcEEvOT_ = comdat any

$_ZNK3fmt2v68internal12basic_writerINS0_12buffer_rangeIcEEE10str_writerIcEclIRPcEEvOT_ = comdat any

$_ZN3fmt2v68internal17count_code_pointsIcEEmNS0_17basic_string_viewIT_EE = comdat any

$_ZN3fmt2v68internal17handle_char_specsIcNS1_18arg_formatter_baseINS0_12buffer_rangeIcEENS1_13error_handlerEE17char_spec_handlerEEEvPKNS0_18basic_format_specsIT_EEOT0_ = comdat any

$_ZN3fmt2v68internal18arg_formatter_baseINS0_12buffer_rangeIcEENS1_13error_handlerEE17char_spec_handlerC2ERS6_c = comdat any

$_ZN3fmt2v68internal18arg_formatter_baseINS0_12buffer_rangeIcEENS1_13error_handlerEE17char_spec_handler7on_charEv = comdat any

$_ZN3fmt2v68internal18arg_formatter_baseINS0_12buffer_rangeIcEENS1_13error_handlerEE17char_spec_handler6on_intEv = comdat any

$_ZN3fmt2v68internal18arg_formatter_baseINS0_12buffer_rangeIcEENS1_13error_handlerEE10write_charEc = comdat any

$_ZN3fmt2v68internal12basic_writerINS0_12buffer_rangeIcEEE12write_paddedINS1_18arg_formatter_baseIS4_NS1_13error_handlerEE11char_writerEEEvRKNS0_18basic_format_specsIcEEOT_ = comdat any

$_ZN3fmt2v68internal12basic_writerINS0_12buffer_rangeIcEEE5writeEc = comdat any

$_ZNK3fmt2v68internal18arg_formatter_baseINS0_12buffer_rangeIcEENS1_13error_handlerEE11char_writer4sizeEv = comdat any

$_ZNK3fmt2v68internal18arg_formatter_baseINS0_12buffer_rangeIcEENS1_13error_handlerEE11char_writer5widthEv = comdat any

$_ZNK3fmt2v68internal18arg_formatter_baseINS0_12buffer_rangeIcEENS1_13error_handlerEE11char_writerclIPcEEvOT_ = comdat any

$_ZNK3fmt2v68internal18arg_formatter_baseINS0_12buffer_rangeIcEENS1_13error_handlerEE11char_writerclIRPcEEvOT_ = comdat any

$_ZN3fmt2v68internal12basic_writerINS0_12buffer_rangeIcEEE9write_intIcNS0_18basic_format_specsIcEEEEvT_RKT0_ = comdat any

$_ZN3fmt2v68internal20handle_int_type_specINS1_12basic_writerINS0_12buffer_rangeIcEEE10int_writerIcNS0_18basic_format_specsIcEEEEEEvcOT_ = comdat any

$_ZN3fmt2v68internal12basic_writerINS0_12buffer_rangeIcEEE10int_writerIcNS0_18basic_format_specsIcEEEC2ERS5_cRKS8_ = comdat any

$_ZN3fmt2v68internal12basic_writerINS0_12buffer_rangeIcEEE10int_writerIcNS0_18basic_format_specsIcEEE6on_decEv = comdat any

$_ZN3fmt2v68internal12basic_writerINS0_12buffer_rangeIcEEE10int_writerIcNS0_18basic_format_specsIcEEE6on_hexEv = comdat any

$_ZN3fmt2v68internal12basic_writerINS0_12buffer_rangeIcEEE10int_writerIcNS0_18basic_format_specsIcEEE6on_binEv = comdat any

$_ZN3fmt2v68internal12basic_writerINS0_12buffer_rangeIcEEE10int_writerIcNS0_18basic_format_specsIcEEE6on_octEv = comdat any

$_ZN3fmt2v68internal12basic_writerINS0_12buffer_rangeIcEEE10int_writerIcNS0_18basic_format_specsIcEEE6on_numEv = comdat any

$_ZN3fmt2v68internal12basic_writerINS0_12buffer_rangeIcEEE10int_writerIcNS0_18basic_format_specsIcEEE8on_errorEv = comdat any

$_ZN3fmt2v68internal12basic_writerINS0_12buffer_rangeIcEEE9write_intINS5_10int_writerIcNS0_18basic_format_specsIcEEE10dec_writerEEEviNS0_17basic_string_viewIcEES9_T_ = comdat any

$_ZNK3fmt2v68internal12basic_writerINS0_12buffer_rangeIcEEE10int_writerIcNS0_18basic_format_specsIcEEE10get_prefixEv = comdat any

$_ZN3fmt2v68internal12basic_writerINS0_12buffer_rangeIcEEE12write_paddedINS5_17padded_int_writerINS5_10int_writerIcNS0_18basic_format_specsIcEEE10dec_writerEEEEEvRKSA_OT_ = comdat any

$_ZNK3fmt2v68internal12basic_writerINS0_12buffer_rangeIcEEE17padded_int_writerINS5_10int_writerIcNS0_18basic_format_specsIcEEE10dec_writerEE4sizeEv = comdat any

$_ZNK3fmt2v68internal12basic_writerINS0_12buffer_rangeIcEEE17padded_int_writerINS5_10int_writerIcNS0_18basic_format_specsIcEEE10dec_writerEE5widthEv = comdat any

$_ZNK3fmt2v68internal12basic_writerINS0_12buffer_rangeIcEEE17padded_int_writerINS5_10int_writerIcNS0_18basic_format_specsIcEEE10dec_writerEEclIPcEEvOT_ = comdat any

$_ZNK3fmt2v68internal12basic_writerINS0_12buffer_rangeIcEEE17padded_int_writerINS5_10int_writerIcNS0_18basic_format_specsIcEEE10dec_writerEEclIRPcEEvOT_ = comdat any

$_ZNK3fmt2v68internal12basic_writerINS0_12buffer_rangeIcEEE10int_writerIcNS0_18basic_format_specsIcEEE10dec_writerclIRPcEEvOT_ = comdat any

$_ZN3fmt2v68internal12basic_writerINS0_12buffer_rangeIcEEE9write_intINS5_10int_writerIcNS0_18basic_format_specsIcEEE10hex_writerEEEviNS0_17basic_string_viewIcEES9_T_ = comdat any

$_ZN3fmt2v68internal12basic_writerINS0_12buffer_rangeIcEEE12write_paddedINS5_17padded_int_writerINS5_10int_writerIcNS0_18basic_format_specsIcEEE10hex_writerEEEEEvRKSA_OT_ = comdat any

$_ZNK3fmt2v68internal12basic_writerINS0_12buffer_rangeIcEEE17padded_int_writerINS5_10int_writerIcNS0_18basic_format_specsIcEEE10hex_writerEE4sizeEv = comdat any

$_ZNK3fmt2v68internal12basic_writerINS0_12buffer_rangeIcEEE17padded_int_writerINS5_10int_writerIcNS0_18basic_format_specsIcEEE10hex_writerEE5widthEv = comdat any

$_ZNK3fmt2v68internal12basic_writerINS0_12buffer_rangeIcEEE17padded_int_writerINS5_10int_writerIcNS0_18basic_format_specsIcEEE10hex_writerEEclIPcEEvOT_ = comdat any

$_ZNK3fmt2v68internal12basic_writerINS0_12buffer_rangeIcEEE17padded_int_writerINS5_10int_writerIcNS0_18basic_format_specsIcEEE10hex_writerEEclIRPcEEvOT_ = comdat any

$_ZNK3fmt2v68internal12basic_writerINS0_12buffer_rangeIcEEE10int_writerIcNS0_18basic_format_specsIcEEE10hex_writerclIRPcEEvOT_ = comdat any

$_ZN3fmt2v68internal12basic_writerINS0_12buffer_rangeIcEEE9write_intINS5_10int_writerIcNS0_18basic_format_specsIcEEE10bin_writerILi1EEEEEviNS0_17basic_string_viewIcEES9_T_ = comdat any

$_ZN3fmt2v68internal12basic_writerINS0_12buffer_rangeIcEEE12write_paddedINS5_17padded_int_writerINS5_10int_writerIcNS0_18basic_format_specsIcEEE10bin_writerILi1EEEEEEEvRKSA_OT_ = comdat any

$_ZNK3fmt2v68internal12basic_writerINS0_12buffer_rangeIcEEE17padded_int_writerINS5_10int_writerIcNS0_18basic_format_specsIcEEE10bin_writerILi1EEEE4sizeEv = comdat any

$_ZNK3fmt2v68internal12basic_writerINS0_12buffer_rangeIcEEE17padded_int_writerINS5_10int_writerIcNS0_18basic_format_specsIcEEE10bin_writerILi1EEEE5widthEv = comdat any

$_ZNK3fmt2v68internal12basic_writerINS0_12buffer_rangeIcEEE17padded_int_writerINS5_10int_writerIcNS0_18basic_format_specsIcEEE10bin_writerILi1EEEEclIPcEEvOT_ = comdat any

$_ZNK3fmt2v68internal12basic_writerINS0_12buffer_rangeIcEEE17padded_int_writerINS5_10int_writerIcNS0_18basic_format_specsIcEEE10bin_writerILi1EEEEclIRPcEEvOT_ = comdat any

$_ZNK3fmt2v68internal12basic_writerINS0_12buffer_rangeIcEEE10int_writerIcNS0_18basic_format_specsIcEEE10bin_writerILi1EEclIRPcEEvOT_ = comdat any

$_ZN3fmt2v68internal12basic_writerINS0_12buffer_rangeIcEEE9write_intINS5_10int_writerIcNS0_18basic_format_specsIcEEE10bin_writerILi3EEEEEviNS0_17basic_string_viewIcEES9_T_ = comdat any

$_ZN3fmt2v68internal12basic_writerINS0_12buffer_rangeIcEEE12write_paddedINS5_17padded_int_writerINS5_10int_writerIcNS0_18basic_format_specsIcEEE10bin_writerILi3EEEEEEEvRKSA_OT_ = comdat any

$_ZNK3fmt2v68internal12basic_writerINS0_12buffer_rangeIcEEE17padded_int_writerINS5_10int_writerIcNS0_18basic_format_specsIcEEE10bin_writerILi3EEEE4sizeEv = comdat any

$_ZNK3fmt2v68internal12basic_writerINS0_12buffer_rangeIcEEE17padded_int_writerINS5_10int_writerIcNS0_18basic_format_specsIcEEE10bin_writerILi3EEEE5widthEv = comdat any

$_ZNK3fmt2v68internal12basic_writerINS0_12buffer_rangeIcEEE17padded_int_writerINS5_10int_writerIcNS0_18basic_format_specsIcEEE10bin_writerILi3EEEEclIPcEEvOT_ = comdat any

$_ZNK3fmt2v68internal12basic_writerINS0_12buffer_rangeIcEEE17padded_int_writerINS5_10int_writerIcNS0_18basic_format_specsIcEEE10bin_writerILi3EEEEclIRPcEEvOT_ = comdat any

$_ZNK3fmt2v68internal12basic_writerINS0_12buffer_rangeIcEEE10int_writerIcNS0_18basic_format_specsIcEEE10bin_writerILi3EEclIRPcEEvOT_ = comdat any

$_ZN3fmt2v68internal12basic_writerINS0_12buffer_rangeIcEEE9write_intINS5_10int_writerIcNS0_18basic_format_specsIcEEE10num_writerEEEviNS0_17basic_string_viewIcEES9_T_ = comdat any

$_ZN3fmt2v68internal12basic_writerINS0_12buffer_rangeIcEEE12write_paddedINS5_17padded_int_writerINS5_10int_writerIcNS0_18basic_format_specsIcEEE10num_writerEEEEEvRKSA_OT_ = comdat any

$_ZNK3fmt2v68internal12basic_writerINS0_12buffer_rangeIcEEE17padded_int_writerINS5_10int_writerIcNS0_18basic_format_specsIcEEE10num_writerEE4sizeEv = comdat any

$_ZNK3fmt2v68internal12basic_writerINS0_12buffer_rangeIcEEE17padded_int_writerINS5_10int_writerIcNS0_18basic_format_specsIcEEE10num_writerEE5widthEv = comdat any

$_ZNK3fmt2v68internal12basic_writerINS0_12buffer_rangeIcEEE17padded_int_writerINS5_10int_writerIcNS0_18basic_format_specsIcEEE10num_writerEEclIPcEEvOT_ = comdat any

$_ZNK3fmt2v68internal12basic_writerINS0_12buffer_rangeIcEEE17padded_int_writerINS5_10int_writerIcNS0_18basic_format_specsIcEEE10num_writerEEclIRPcEEvOT_ = comdat any

$_ZNK3fmt2v68internal12basic_writerINS0_12buffer_rangeIcEEE10int_writerIcNS0_18basic_format_specsIcEEE10num_writerclIRPcEEvOT_ = comdat any

$_ZN3fmt2v68internal14format_decimalIcjPcZNKS1_12basic_writerINS0_12buffer_rangeIcEEE10int_writerIcNS0_18basic_format_specsIcEEE10num_writerclIRS3_EEvOT_EUlSE_E_EET1_SI_T0_iT2_ = comdat any

$_ZN3fmt2v68internal14format_decimalIjcZNKS1_12basic_writerINS0_12buffer_rangeIcEEE10int_writerIcNS0_18basic_format_specsIcEEE10num_writerclIRPcEEvOT_EUlSE_E_EEPT0_SJ_SF_iT1_ = comdat any

$_ZZNK3fmt2v68internal12basic_writerINS0_12buffer_rangeIcEEE10int_writerIcNS0_18basic_format_specsIcEEE10num_writerclIRPcEEvOT_ENKUlSD_E_clESD_ = comdat any

$_ZN3fmt2v68internal11is_negativeIcTnNSt9enable_ifIXsr3std14numeric_limitsIT_EE9is_signedEiE4typeELi0EEEbS4_ = comdat any

$_ZN3fmt2v68internal12basic_writerINS0_12buffer_rangeIcEEE5writeIfTnNSt9enable_ifIXsr3std17is_floating_pointIT_EE5valueEiE4typeELi0EEEvS8_NS0_18basic_format_specsIcEE = comdat any

$_ZN3fmt2v618basic_format_specsIcEC2Ev = comdat any

$_ZN3fmt2v68internal21parse_float_type_specINS1_13error_handlerEcEENS1_11float_specsERKNS0_18basic_format_specsIT0_EEOT_ = comdat any

$_ZSt7signbitf = comdat any

$_ZSt8isfinitef = comdat any

$_ZSt5isinff = comdat any

$_ZN3fmt2v68internal12basic_writerINS0_12buffer_rangeIcEEE12write_paddedINS1_16nonfinite_writerIcEEEEvRKNS0_18basic_format_specsIcEEOT_ = comdat any

$_ZN3fmt2v68internal6bufferIcE9push_backERKc = comdat any

$_ZN3fmt2v68internal13promote_floatEf = comdat any

$_ZN3fmt2v68internal9max_valueIiEET_v = comdat any

$_ZN3fmt2v68internal11const_checkISt7is_sameIffEEET_S5_ = comdat any

$_ZNKSt17integral_constantIbLb1EEcvbEv = comdat any

$_ZN3fmt2v68internal9use_grisuIfEEbv = comdat any

$_ZN3fmt2v68internal11const_checkIiEET_S3_ = comdat any

$_ZN3fmt2v68internal13decimal_pointIcEET_NS1_10locale_refE = comdat any

$_ZN3fmt2v68internal12basic_writerINS0_12buffer_rangeIcEEE12write_paddedINS1_12float_writerIcEEEEvRKNS0_18basic_format_specsIcEEOT_ = comdat any

$_ZN3fmt2v68internal12float_writerIcEC2EPKciiNS1_11float_specsEc = comdat any

$_ZNK3fmt2v68internal16nonfinite_writerIcE4sizeEv = comdat any

$_ZNK3fmt2v68internal16nonfinite_writerIcE5widthEv = comdat any

$_ZNK3fmt2v68internal16nonfinite_writerIcEclIPcEEvOT_ = comdat any

$_ZNK3fmt2v68internal16nonfinite_writerIcEclIRPcEEvOT_ = comdat any

$_ZNSt14numeric_limitsIiE3maxEv = comdat any

$_ZNK3fmt2v68internal12float_writerIcE4sizeEv = comdat any

$_ZNK3fmt2v68internal12float_writerIcE5widthEv = comdat any

$_ZN3fmt2v68internal12float_writerIcEclIPcEEvOT_ = comdat any

$_ZN3fmt2v68internal12float_writerIcEclIRPcEEvOT_ = comdat any

$_ZNK3fmt2v68internal12float_writerIcE8prettifyIPcEET_S6_ = comdat any

$_ZSt6fill_nIPcicET_S1_T0_RKT1_ = comdat any

$_ZN3fmt2v68internal14write_exponentIcPcEET0_iS4_ = comdat any

$_ZSt10__fill_n_aIPcicET_S1_T0_RKT1_St26random_access_iterator_tag = comdat any

$_ZSt17__size_to_integeri = comdat any

$_ZNK3fmt2v68internal12float_writerIcE8prettifyINS1_17counting_iteratorEEET_S6_ = comdat any

$_ZN3fmt2v68internal17counting_iteratorC2Ev = comdat any

$_ZNK3fmt2v68internal17counting_iterator5countEv = comdat any

$_ZN3fmt2v68internal17counting_iteratorppEi = comdat any

$_ZNK3fmt2v68internal17counting_iteratordeEv = comdat any

$_ZN3fmt2v68internal17counting_iterator10value_typeaSIcEEvRKT_ = comdat any

$_ZN3fmt2v68internal8copy_strIcPKcNS1_17counting_iteratorETnNSt9enable_ifIXntsr16needs_conversionIT0_T_EE5valueEiE4typeELi0EEET1_S7_S7_SB_ = comdat any

$_ZSt6fill_nIN3fmt2v68internal17counting_iteratorEicET_S4_T0_RKT1_ = comdat any

$_ZN3fmt2v68internal14write_exponentIcNS1_17counting_iteratorEEET0_iS4_ = comdat any

$_ZN3fmt2v68internal17counting_iteratorppEv = comdat any

$_ZSt4copyIPKcN3fmt2v68internal17counting_iteratorEET0_T_S7_S6_ = comdat any

$_ZSt13__copy_move_aILb0EPKcN3fmt2v68internal17counting_iteratorEET1_T0_S7_S6_ = comdat any

$_ZSt12__niter_wrapIN3fmt2v68internal17counting_iteratorEET_RKS4_S4_ = comdat any

$_ZSt14__copy_move_a1ILb0EPKcN3fmt2v68internal17counting_iteratorEET1_T0_S7_S6_ = comdat any

$_ZSt12__niter_baseIN3fmt2v68internal17counting_iteratorEET_S4_ = comdat any

$_ZSt14__copy_move_a2ILb0EPKcN3fmt2v68internal17counting_iteratorEET1_T0_S7_S6_ = comdat any

$_ZNSt11__copy_moveILb0ELb0ESt26random_access_iterator_tagE8__copy_mIPKcN3fmt2v68internal17counting_iteratorEEET0_T_SA_S9_ = comdat any

$_ZSt10__fill_n_aIN3fmt2v68internal17counting_iteratorEicET_S4_T0_RKT1_St19output_iterator_tag = comdat any

$_ZSt19__iterator_categoryIN3fmt2v68internal17counting_iteratorEENSt15iterator_traitsIT_E17iterator_categoryERKS5_ = comdat any

$_ZSt11__fill_n_a1IN3fmt2v68internal17counting_iteratorEicEN9__gnu_cxx11__enable_ifIXsr11__is_scalarIT1_EE7__valueET_E6__typeES7_T0_RKS6_ = comdat any

$_ZN3fmt2v68internal6fill_tIcE4makeEv = comdat any

$_ZN3fmt2v68internal12basic_writerINS0_12buffer_rangeIcEEE5writeIdTnNSt9enable_ifIXsr3std17is_floating_pointIT_EE5valueEiE4typeELi0EEEvS8_NS0_18basic_format_specsIcEE = comdat any

$_ZSt7signbitd = comdat any

$_ZSt8isfinited = comdat any

$_ZSt5isinfd = comdat any

$_ZN3fmt2v68internal13promote_floatIdEET_S3_ = comdat any

$_ZN3fmt2v68internal11const_checkISt7is_sameIdfEEET_S5_ = comdat any

$_ZNKSt17integral_constantIbLb0EEcvbEv = comdat any

$_ZN3fmt2v68internal9use_grisuIdEEbv = comdat any

$_ZN3fmt2v68internal12basic_writerINS0_12buffer_rangeIcEEE5writeIeTnNSt9enable_ifIXsr3std17is_floating_pointIT_EE5valueEiE4typeELi0EEEvS8_NS0_18basic_format_specsIcEE = comdat any

$_ZSt7signbite = comdat any

$_ZSt8isfinitee = comdat any

$_ZSt5isinfe = comdat any

$_ZN3fmt2v68internal13promote_floatIeEET_S3_ = comdat any

$_ZN3fmt2v68internal11const_checkISt7is_sameIefEEET_S5_ = comdat any

$_ZN3fmt2v68internal9use_grisuIeEEbv = comdat any

$_ZN3fmt2v68internal18arg_formatter_baseINS0_12buffer_rangeIcEENS1_13error_handlerEE5writeEPKc = comdat any

$_ZN3fmt2v68internal24handle_cstring_type_specIcNS1_18arg_formatter_baseINS0_12buffer_rangeIcEENS1_13error_handlerEE20cstring_spec_handlerEEEvT_OT0_ = comdat any

$_ZN3fmt2v68internal18arg_formatter_baseINS0_12buffer_rangeIcEENS1_13error_handlerEE20cstring_spec_handlerC2ERS6_PKc = comdat any

$_ZN3fmt2v68internal18arg_formatter_baseINS0_12buffer_rangeIcEENS1_13error_handlerEE20cstring_spec_handler9on_stringEv = comdat any

$_ZN3fmt2v68internal18arg_formatter_baseINS0_12buffer_rangeIcEENS1_13error_handlerEE20cstring_spec_handler10on_pointerEv = comdat any

$_ZN3fmt2v68internal18arg_formatter_baseINS0_12buffer_rangeIcEENS1_13error_handlerEE13write_pointerEPKv = comdat any

$_ZN3fmt2v68internal12basic_writerINS0_12buffer_rangeIcEEE13write_pointerImEEvT_PKNS0_18basic_format_specsIcEE = comdat any

$_ZN3fmt2v68internal10to_uintptrEPKv = comdat any

$_ZNK3fmt2v68internal12basic_writerINS0_12buffer_rangeIcEEE14pointer_writerImEclIPcEEvOT_ = comdat any

$_ZN3fmt2v68internal12basic_writerINS0_12buffer_rangeIcEEE12write_paddedIRNS5_14pointer_writerImEEEEvRKNS0_18basic_format_specsIcEEOT_ = comdat any

$_ZNK3fmt2v68internal12basic_writerINS0_12buffer_rangeIcEEE14pointer_writerImE4sizeEv = comdat any

$_ZNK3fmt2v68internal12basic_writerINS0_12buffer_rangeIcEEE14pointer_writerImE5widthEv = comdat any

$_ZNK3fmt2v68internal12basic_writerINS0_12buffer_rangeIcEEE14pointer_writerImEclIRPcEEvOT_ = comdat any

$_ZN3fmt2v68internal8bit_castImPKvEET_RKT0_ = comdat any

$_ZN3fmt2v68internal22check_string_type_specIcNS1_13error_handlerEEEvT_OT0_ = comdat any

$_ZN3fmt2v68internal23check_pointer_type_specIcNS1_13error_handlerEEEvT_OT0_ = comdat any

$_ZNK3fmt2v616basic_format_argINS0_20basic_format_contextISt20back_insert_iteratorINS0_8internal6bufferIcEEEcEEE6handle6formatERNS0_26basic_format_parse_contextIcNS4_13error_handlerEEERS8_ = comdat any

$_ZN3fmt2v612buffer_rangeIcECI2NS0_8internal12output_rangeISt20back_insert_iteratorINS3_6bufferIcEEEcEEES8_ = comdat any

$_ZN3fmt2v620basic_format_contextISt20back_insert_iteratorINS0_8internal6bufferIcEEEcE6localeEv = comdat any

$_ZN3fmt2v68internal18arg_formatter_baseINS0_12buffer_rangeIcEENS1_13error_handlerEEC2ES4_PNS0_18basic_format_specsIcEENS1_10locale_refE = comdat any

$_ZN3fmt2v68internal12output_rangeISt20back_insert_iteratorINS1_6bufferIcEEEcEC2ES6_ = comdat any

$_ZN3fmt2v68internal12basic_writerINS0_12buffer_rangeIcEEEC2ES4_NS1_10locale_refE = comdat any

$_ZSt6copy_nIPKcmPcET1_T_T0_S3_ = comdat any

$_ZSt8__copy_nIPKcmPcET1_T_T0_S3_St26random_access_iterator_tag = comdat any

$_ZN3fmt2v68internal10id_adapterIRNS0_14format_handlerINS0_13arg_formatterINS0_12buffer_rangeIcEEEEcNS0_20basic_format_contextISt20back_insert_iteratorINS1_6bufferIcEEEcEEEEcEclEv = comdat any

$_ZN3fmt2v68internal21parse_nonnegative_intIcRNS1_10id_adapterIRNS0_14format_handlerINS0_13arg_formatterINS0_12buffer_rangeIcEEEEcNS0_20basic_format_contextISt20back_insert_iteratorINS1_6bufferIcEEEcEEEEcEEEEiRPKT_SL_OT0_ = comdat any

$_ZN3fmt2v68internal10id_adapterIRNS0_14format_handlerINS0_13arg_formatterINS0_12buffer_rangeIcEEEEcNS0_20basic_format_contextISt20back_insert_iteratorINS1_6bufferIcEEEcEEEEcE8on_errorEPKc = comdat any

$_ZN3fmt2v68internal10id_adapterIRNS0_14format_handlerINS0_13arg_formatterINS0_12buffer_rangeIcEEEEcNS0_20basic_format_contextISt20back_insert_iteratorINS1_6bufferIcEEEcEEEEcEclEi = comdat any

$_ZN3fmt2v68internal13is_name_startIcEEbT_ = comdat any

$_ZN3fmt2v68internal10id_adapterIRNS0_14format_handlerINS0_13arg_formatterINS0_12buffer_rangeIcEEEEcNS0_20basic_format_contextISt20back_insert_iteratorINS1_6bufferIcEEEcEEEEcEclENS0_17basic_string_viewIcEE = comdat any

$_ZN3fmt2v614format_handlerINS0_13arg_formatterINS0_12buffer_rangeIcEEEEcNS0_20basic_format_contextISt20back_insert_iteratorINS0_8internal6bufferIcEEEcEEE9on_arg_idEi = comdat any

$_ZN3fmt2v626basic_format_parse_contextIcNS0_8internal13error_handlerEE12check_arg_idEi = comdat any

$_ZN3fmt2v614format_handlerINS0_13arg_formatterINS0_12buffer_rangeIcEEEEcNS0_20basic_format_contextISt20back_insert_iteratorINS0_8internal6bufferIcEEEcEEE9on_arg_idENS0_17basic_string_viewIcEE = comdat any

$_ZN3fmt2v620basic_format_contextISt20back_insert_iteratorINS0_8internal6bufferIcEEEcE3argENS0_17basic_string_viewIcEE = comdat any

$_ZN3fmt2v68internal7arg_mapINS0_20basic_format_contextISt20back_insert_iteratorINS1_6bufferIcEEEcEEE4initERKNS0_17basic_format_argsIS8_EE = comdat any

$_ZNK3fmt2v68internal7arg_mapINS0_20basic_format_contextISt20back_insert_iteratorINS1_6bufferIcEEEcEEE4findENS0_17basic_string_viewIcEE = comdat any

$_ZNK3fmt2v616basic_format_argINS0_20basic_format_contextISt20back_insert_iteratorINS0_8internal6bufferIcEEEcEEE4typeEv = comdat any

$_ZN3fmt2v68internal7arg_mapINS0_20basic_format_contextISt20back_insert_iteratorINS1_6bufferIcEEEcEEE5entryC2Ev = comdat any

$_ZN3fmt2v68internal7arg_mapINS0_20basic_format_contextISt20back_insert_iteratorINS1_6bufferIcEEEcEEE9push_backENS1_5valueIS8_EE = comdat any

$_ZN3fmt2v617basic_string_viewIcEC2Ev = comdat any

$_ZN3fmt2v6eqENS0_17basic_string_viewIcEES2_ = comdat any

$_ZNK3fmt2v617basic_string_viewIcE7compareES2_ = comdat any

$_ZNSt11char_traitsIcE7compareEPKcS2_m = comdat any

$_ZN3fmt2v68internal16custom_formatterINS0_20basic_format_contextISt20back_insert_iteratorINS1_6bufferIcEEEcEEEC2ERNS0_26basic_format_parse_contextIcNS1_13error_handlerEEERS8_ = comdat any

$_ZN3fmt2v616visit_format_argIRNS0_8internal16custom_formatterINS0_20basic_format_contextISt20back_insert_iteratorINS2_6bufferIcEEEcEEEES9_EEDTclfp_Li0EEEOT_RKNS0_16basic_format_argIT0_EE = comdat any

$_ZN3fmt2v68internal13specs_handlerINS0_26basic_format_parse_contextIcNS1_13error_handlerEEENS0_20basic_format_contextISt20back_insert_iteratorINS1_6bufferIcEEEcEEEC2ERNS0_18basic_format_specsIcEERS5_RSB_ = comdat any

$_ZN3fmt2v68internal13specs_checkerINS1_13specs_handlerINS0_26basic_format_parse_contextIcNS1_13error_handlerEEENS0_20basic_format_contextISt20back_insert_iteratorINS1_6bufferIcEEEcEEEEEC2ERKSD_NS1_4typeE = comdat any

$_ZN3fmt2v68internal18parse_format_specsIcRNS1_13specs_checkerINS1_13specs_handlerINS0_26basic_format_parse_contextIcNS1_13error_handlerEEENS0_20basic_format_contextISt20back_insert_iteratorINS1_6bufferIcEEEcEEEEEEEEPKT_SJ_SJ_OT0_ = comdat any

$_ZNK3fmt2v68internal16custom_formatterINS0_20basic_format_contextISt20back_insert_iteratorINS1_6bufferIcEEEcEEEclIiEEbT_ = comdat any

$_ZNK3fmt2v68internal16custom_formatterINS0_20basic_format_contextISt20back_insert_iteratorINS1_6bufferIcEEEcEEEclIjEEbT_ = comdat any

$_ZNK3fmt2v68internal16custom_formatterINS0_20basic_format_contextISt20back_insert_iteratorINS1_6bufferIcEEEcEEEclIxEEbT_ = comdat any

$_ZNK3fmt2v68internal16custom_formatterINS0_20basic_format_contextISt20back_insert_iteratorINS1_6bufferIcEEEcEEEclIyEEbT_ = comdat any

$_ZNK3fmt2v68internal16custom_formatterINS0_20basic_format_contextISt20back_insert_iteratorINS1_6bufferIcEEEcEEEclInEEbT_ = comdat any

$_ZNK3fmt2v68internal16custom_formatterINS0_20basic_format_contextISt20back_insert_iteratorINS1_6bufferIcEEEcEEEclIoEEbT_ = comdat any

$_ZNK3fmt2v68internal16custom_formatterINS0_20basic_format_contextISt20back_insert_iteratorINS1_6bufferIcEEEcEEEclIbEEbT_ = comdat any

$_ZNK3fmt2v68internal16custom_formatterINS0_20basic_format_contextISt20back_insert_iteratorINS1_6bufferIcEEEcEEEclIcEEbT_ = comdat any

$_ZNK3fmt2v68internal16custom_formatterINS0_20basic_format_contextISt20back_insert_iteratorINS1_6bufferIcEEEcEEEclIfEEbT_ = comdat any

$_ZNK3fmt2v68internal16custom_formatterINS0_20basic_format_contextISt20back_insert_iteratorINS1_6bufferIcEEEcEEEclIdEEbT_ = comdat any

$_ZNK3fmt2v68internal16custom_formatterINS0_20basic_format_contextISt20back_insert_iteratorINS1_6bufferIcEEEcEEEclIeEEbT_ = comdat any

$_ZNK3fmt2v68internal16custom_formatterINS0_20basic_format_contextISt20back_insert_iteratorINS1_6bufferIcEEEcEEEclIPKcEEbT_ = comdat any

$_ZNK3fmt2v68internal16custom_formatterINS0_20basic_format_contextISt20back_insert_iteratorINS1_6bufferIcEEEcEEEclINS0_17basic_string_viewIcEEEEbT_ = comdat any

$_ZNK3fmt2v68internal16custom_formatterINS0_20basic_format_contextISt20back_insert_iteratorINS1_6bufferIcEEEcEEEclIPKvEEbT_ = comdat any

$_ZNK3fmt2v68internal16custom_formatterINS0_20basic_format_contextISt20back_insert_iteratorINS1_6bufferIcEEEcEEEclENS0_16basic_format_argIS8_E6handleE = comdat any

$_ZNK3fmt2v68internal16custom_formatterINS0_20basic_format_contextISt20back_insert_iteratorINS1_6bufferIcEEEcEEEclINS0_9monostateEEEbT_ = comdat any

$_ZN3fmt2v68internal12specs_setterIcEC2ERNS0_18basic_format_specsIcEE = comdat any

$_ZN3fmt2v68internal13specs_handlerINS0_26basic_format_parse_contextIcNS1_13error_handlerEEENS0_20basic_format_contextISt20back_insert_iteratorINS1_6bufferIcEEEcEEEC2ERKSC_ = comdat any

$_ZN3fmt2v68internal21numeric_specs_checkerINS1_13specs_handlerINS0_26basic_format_parse_contextIcNS1_13error_handlerEEENS0_20basic_format_contextISt20back_insert_iteratorINS1_6bufferIcEEEcEEEEEC2ERSD_NS1_4typeE = comdat any

$_ZN3fmt2v68internal12specs_setterIcEC2ERKS3_ = comdat any

$_ZN3fmt2v68internal11parse_alignIcRNS1_13specs_checkerINS1_13specs_handlerINS0_26basic_format_parse_contextIcNS1_13error_handlerEEENS0_20basic_format_contextISt20back_insert_iteratorINS1_6bufferIcEEEcEEEEEEEEPKT_SJ_SJ_OT0_ = comdat any

$_ZN3fmt2v68internal13specs_checkerINS1_13specs_handlerINS0_26basic_format_parse_contextIcNS1_13error_handlerEEENS0_20basic_format_contextISt20back_insert_iteratorINS1_6bufferIcEEEcEEEEE7on_plusEv = comdat any

$_ZN3fmt2v68internal13specs_checkerINS1_13specs_handlerINS0_26basic_format_parse_contextIcNS1_13error_handlerEEENS0_20basic_format_contextISt20back_insert_iteratorINS1_6bufferIcEEEcEEEEE8on_minusEv = comdat any

$_ZN3fmt2v68internal13specs_checkerINS1_13specs_handlerINS0_26basic_format_parse_contextIcNS1_13error_handlerEEENS0_20basic_format_contextISt20back_insert_iteratorINS1_6bufferIcEEEcEEEEE8on_spaceEv = comdat any

$_ZN3fmt2v68internal13specs_checkerINS1_13specs_handlerINS0_26basic_format_parse_contextIcNS1_13error_handlerEEENS0_20basic_format_contextISt20back_insert_iteratorINS1_6bufferIcEEEcEEEEE7on_hashEv = comdat any

$_ZN3fmt2v68internal13specs_checkerINS1_13specs_handlerINS0_26basic_format_parse_contextIcNS1_13error_handlerEEENS0_20basic_format_contextISt20back_insert_iteratorINS1_6bufferIcEEEcEEEEE7on_zeroEv = comdat any

$_ZN3fmt2v68internal11parse_widthIcRNS1_13specs_checkerINS1_13specs_handlerINS0_26basic_format_parse_contextIcNS1_13error_handlerEEENS0_20basic_format_contextISt20back_insert_iteratorINS1_6bufferIcEEEcEEEEEEEEPKT_SJ_SJ_OT0_ = comdat any

$_ZN3fmt2v68internal15parse_precisionIcRNS1_13specs_checkerINS1_13specs_handlerINS0_26basic_format_parse_contextIcNS1_13error_handlerEEENS0_20basic_format_contextISt20back_insert_iteratorINS1_6bufferIcEEEcEEEEEEEEPKT_SJ_SJ_OT0_ = comdat any

$_ZN3fmt2v68internal12specs_setterIcE7on_typeEc = comdat any

$_ZN3fmt2v68internal13specs_handlerINS0_26basic_format_parse_contextIcNS1_13error_handlerEEENS0_20basic_format_contextISt20back_insert_iteratorINS1_6bufferIcEEEcEEE8on_errorEPKc = comdat any

$_ZN3fmt2v68internal12specs_setterIcE7on_fillEc = comdat any

$_ZN3fmt2v68internal13specs_checkerINS1_13specs_handlerINS0_26basic_format_parse_contextIcNS1_13error_handlerEEENS0_20basic_format_contextISt20back_insert_iteratorINS1_6bufferIcEEEcEEEEE8on_alignENS0_5align4typeE = comdat any

$_ZN3fmt2v68internal21numeric_specs_checkerINS1_13specs_handlerINS0_26basic_format_parse_contextIcNS1_13error_handlerEEENS0_20basic_format_contextISt20back_insert_iteratorINS1_6bufferIcEEEcEEEEE24require_numeric_argumentEv = comdat any

$_ZN3fmt2v68internal12specs_setterIcE8on_alignENS0_5align4typeE = comdat any

$_ZN3fmt2v68internal18is_arithmetic_typeENS1_4typeE = comdat any

$_ZN3fmt2v68internal21numeric_specs_checkerINS1_13specs_handlerINS0_26basic_format_parse_contextIcNS1_13error_handlerEEENS0_20basic_format_contextISt20back_insert_iteratorINS1_6bufferIcEEEcEEEEE10check_signEv = comdat any

$_ZN3fmt2v68internal12specs_setterIcE7on_plusEv = comdat any

$_ZN3fmt2v68internal16is_integral_typeENS1_4typeE = comdat any

$_ZN3fmt2v68internal12specs_setterIcE8on_minusEv = comdat any

$_ZN3fmt2v68internal12specs_setterIcE8on_spaceEv = comdat any

$_ZN3fmt2v68internal12specs_setterIcE7on_hashEv = comdat any

$_ZN3fmt2v68internal12specs_setterIcE7on_zeroEv = comdat any

$_ZN3fmt2v68internal12specs_setterIcE8on_widthEi = comdat any

$_ZN3fmt2v68internal21parse_nonnegative_intIcRNS1_13specs_checkerINS1_13specs_handlerINS0_26basic_format_parse_contextIcNS1_13error_handlerEEENS0_20basic_format_contextISt20back_insert_iteratorINS1_6bufferIcEEEcEEEEEEEEiRPKT_SJ_OT0_ = comdat any

$_ZN3fmt2v68internal12parse_arg_idIcNS1_13width_adapterIRNS1_13specs_checkerINS1_13specs_handlerINS0_26basic_format_parse_contextIcNS1_13error_handlerEEENS0_20basic_format_contextISt20back_insert_iteratorINS1_6bufferIcEEEcEEEEEEcEEEEPKT_SL_SL_OT0_ = comdat any

$_ZN3fmt2v68internal13width_adapterIRNS1_13specs_checkerINS1_13specs_handlerINS0_26basic_format_parse_contextIcNS1_13error_handlerEEENS0_20basic_format_contextISt20back_insert_iteratorINS1_6bufferIcEEEcEEEEEEcEC2ESG_ = comdat any

$_ZN3fmt2v68internal13width_adapterIRNS1_13specs_checkerINS1_13specs_handlerINS0_26basic_format_parse_contextIcNS1_13error_handlerEEENS0_20basic_format_contextISt20back_insert_iteratorINS1_6bufferIcEEEcEEEEEEcEclEv = comdat any

$_ZN3fmt2v68internal21parse_nonnegative_intIcRNS1_13width_adapterIRNS1_13specs_checkerINS1_13specs_handlerINS0_26basic_format_parse_contextIcNS1_13error_handlerEEENS0_20basic_format_contextISt20back_insert_iteratorINS1_6bufferIcEEEcEEEEEEcEEEEiRPKT_SM_OT0_ = comdat any

$_ZN3fmt2v68internal13width_adapterIRNS1_13specs_checkerINS1_13specs_handlerINS0_26basic_format_parse_contextIcNS1_13error_handlerEEENS0_20basic_format_contextISt20back_insert_iteratorINS1_6bufferIcEEEcEEEEEEcE8on_errorEPKc = comdat any

$_ZN3fmt2v68internal13width_adapterIRNS1_13specs_checkerINS1_13specs_handlerINS0_26basic_format_parse_contextIcNS1_13error_handlerEEENS0_20basic_format_contextISt20back_insert_iteratorINS1_6bufferIcEEEcEEEEEEcEclEi = comdat any

$_ZN3fmt2v68internal13width_adapterIRNS1_13specs_checkerINS1_13specs_handlerINS0_26basic_format_parse_contextIcNS1_13error_handlerEEENS0_20basic_format_contextISt20back_insert_iteratorINS1_6bufferIcEEEcEEEEEEcEclENS0_17basic_string_viewIcEE = comdat any

$_ZN3fmt2v68internal13specs_handlerINS0_26basic_format_parse_contextIcNS1_13error_handlerEEENS0_20basic_format_contextISt20back_insert_iteratorINS1_6bufferIcEEEcEEE16on_dynamic_widthINS1_7auto_idEEEvT_ = comdat any

$_ZN3fmt2v68internal16get_dynamic_specINS1_13width_checkerENS0_16basic_format_argINS0_20basic_format_contextISt20back_insert_iteratorINS1_6bufferIcEEEcEEEENS1_13error_handlerEEEiT0_T1_ = comdat any

$_ZN3fmt2v68internal13specs_handlerINS0_26basic_format_parse_contextIcNS1_13error_handlerEEENS0_20basic_format_contextISt20back_insert_iteratorINS1_6bufferIcEEEcEEE7get_argENS1_7auto_idE = comdat any

$_ZN3fmt2v616visit_format_argINS0_8internal13width_checkerINS2_13error_handlerEEENS0_20basic_format_contextISt20back_insert_iteratorINS2_6bufferIcEEEcEEEEDTclfp_Li0EEEOT_RKNS0_16basic_format_argIT0_EE = comdat any

$_ZN3fmt2v68internal13width_checkerINS1_13error_handlerEEC2ERS3_ = comdat any

$_ZN3fmt2v68internal13width_checkerINS1_13error_handlerEEclIiTnNSt9enable_ifIXsr10is_integerIT_EE5valueEiE4typeELi0EEEyS7_ = comdat any

$_ZN3fmt2v68internal13width_checkerINS1_13error_handlerEEclIjTnNSt9enable_ifIXsr10is_integerIT_EE5valueEiE4typeELi0EEEyS7_ = comdat any

$_ZN3fmt2v68internal13width_checkerINS1_13error_handlerEEclIxTnNSt9enable_ifIXsr10is_integerIT_EE5valueEiE4typeELi0EEEyS7_ = comdat any

$_ZN3fmt2v68internal13width_checkerINS1_13error_handlerEEclIyTnNSt9enable_ifIXsr10is_integerIT_EE5valueEiE4typeELi0EEEyS7_ = comdat any

$_ZN3fmt2v68internal13width_checkerINS1_13error_handlerEEclInTnNSt9enable_ifIXsr10is_integerIT_EE5valueEiE4typeELi0EEEyS7_ = comdat any

$_ZN3fmt2v68internal13width_checkerINS1_13error_handlerEEclIoTnNSt9enable_ifIXsr10is_integerIT_EE5valueEiE4typeELi0EEEyS7_ = comdat any

$_ZN3fmt2v68internal13width_checkerINS1_13error_handlerEEclIbTnNSt9enable_ifIXntsr10is_integerIT_EE5valueEiE4typeELi0EEEyS7_ = comdat any

$_ZN3fmt2v68internal13width_checkerINS1_13error_handlerEEclIcTnNSt9enable_ifIXntsr10is_integerIT_EE5valueEiE4typeELi0EEEyS7_ = comdat any

$_ZN3fmt2v68internal13width_checkerINS1_13error_handlerEEclIfTnNSt9enable_ifIXntsr10is_integerIT_EE5valueEiE4typeELi0EEEyS7_ = comdat any

$_ZN3fmt2v68internal13width_checkerINS1_13error_handlerEEclIdTnNSt9enable_ifIXntsr10is_integerIT_EE5valueEiE4typeELi0EEEyS7_ = comdat any

$_ZN3fmt2v68internal13width_checkerINS1_13error_handlerEEclIeTnNSt9enable_ifIXntsr10is_integerIT_EE5valueEiE4typeELi0EEEyS7_ = comdat any

$_ZN3fmt2v68internal13width_checkerINS1_13error_handlerEEclIPKcTnNSt9enable_ifIXntsr10is_integerIT_EE5valueEiE4typeELi0EEEyS9_ = comdat any

$_ZN3fmt2v68internal13width_checkerINS1_13error_handlerEEclINS0_17basic_string_viewIcEETnNSt9enable_ifIXntsr10is_integerIT_EE5valueEiE4typeELi0EEEyS9_ = comdat any

$_ZN3fmt2v68internal13width_checkerINS1_13error_handlerEEclIPKvTnNSt9enable_ifIXntsr10is_integerIT_EE5valueEiE4typeELi0EEEyS9_ = comdat any

$_ZN3fmt2v68internal13width_checkerINS1_13error_handlerEEclINS0_16basic_format_argINS0_20basic_format_contextISt20back_insert_iteratorINS1_6bufferIcEEEcEEE6handleETnNSt9enable_ifIXntsr10is_integerIT_EE5valueEiE4typeELi0EEEySG_ = comdat any

$_ZN3fmt2v68internal13width_checkerINS1_13error_handlerEEclINS0_9monostateETnNSt9enable_ifIXntsr10is_integerIT_EE5valueEiE4typeELi0EEEyS8_ = comdat any

$_ZN3fmt2v68internal13specs_handlerINS0_26basic_format_parse_contextIcNS1_13error_handlerEEENS0_20basic_format_contextISt20back_insert_iteratorINS1_6bufferIcEEEcEEE16on_dynamic_widthIiEEvT_ = comdat any

$_ZN3fmt2v68internal13specs_handlerINS0_26basic_format_parse_contextIcNS1_13error_handlerEEENS0_20basic_format_contextISt20back_insert_iteratorINS1_6bufferIcEEEcEEE7get_argEi = comdat any

$_ZN3fmt2v68internal13specs_handlerINS0_26basic_format_parse_contextIcNS1_13error_handlerEEENS0_20basic_format_contextISt20back_insert_iteratorINS1_6bufferIcEEEcEEE16on_dynamic_widthINS0_17basic_string_viewIcEEEEvT_ = comdat any

$_ZN3fmt2v68internal13specs_handlerINS0_26basic_format_parse_contextIcNS1_13error_handlerEEENS0_20basic_format_contextISt20back_insert_iteratorINS1_6bufferIcEEEcEEE7get_argENS0_17basic_string_viewIcEE = comdat any

$_ZN3fmt2v626basic_format_parse_contextIcNS0_8internal13error_handlerEE12check_arg_idENS0_17basic_string_viewIcEE = comdat any

$_ZN3fmt2v68internal12specs_setterIcE12on_precisionEi = comdat any

$_ZN3fmt2v68internal12parse_arg_idIcNS1_17precision_adapterIRNS1_13specs_checkerINS1_13specs_handlerINS0_26basic_format_parse_contextIcNS1_13error_handlerEEENS0_20basic_format_contextISt20back_insert_iteratorINS1_6bufferIcEEEcEEEEEEcEEEEPKT_SL_SL_OT0_ = comdat any

$_ZN3fmt2v68internal17precision_adapterIRNS1_13specs_checkerINS1_13specs_handlerINS0_26basic_format_parse_contextIcNS1_13error_handlerEEENS0_20basic_format_contextISt20back_insert_iteratorINS1_6bufferIcEEEcEEEEEEcEC2ESG_ = comdat any

$_ZN3fmt2v68internal13specs_checkerINS1_13specs_handlerINS0_26basic_format_parse_contextIcNS1_13error_handlerEEENS0_20basic_format_contextISt20back_insert_iteratorINS1_6bufferIcEEEcEEEEE13end_precisionEv = comdat any

$_ZN3fmt2v68internal17precision_adapterIRNS1_13specs_checkerINS1_13specs_handlerINS0_26basic_format_parse_contextIcNS1_13error_handlerEEENS0_20basic_format_contextISt20back_insert_iteratorINS1_6bufferIcEEEcEEEEEEcEclEv = comdat any

$_ZN3fmt2v68internal21parse_nonnegative_intIcRNS1_17precision_adapterIRNS1_13specs_checkerINS1_13specs_handlerINS0_26basic_format_parse_contextIcNS1_13error_handlerEEENS0_20basic_format_contextISt20back_insert_iteratorINS1_6bufferIcEEEcEEEEEEcEEEEiRPKT_SM_OT0_ = comdat any

$_ZN3fmt2v68internal17precision_adapterIRNS1_13specs_checkerINS1_13specs_handlerINS0_26basic_format_parse_contextIcNS1_13error_handlerEEENS0_20basic_format_contextISt20back_insert_iteratorINS1_6bufferIcEEEcEEEEEEcE8on_errorEPKc = comdat any

$_ZN3fmt2v68internal17precision_adapterIRNS1_13specs_checkerINS1_13specs_handlerINS0_26basic_format_parse_contextIcNS1_13error_handlerEEENS0_20basic_format_contextISt20back_insert_iteratorINS1_6bufferIcEEEcEEEEEEcEclEi = comdat any

$_ZN3fmt2v68internal17precision_adapterIRNS1_13specs_checkerINS1_13specs_handlerINS0_26basic_format_parse_contextIcNS1_13error_handlerEEENS0_20basic_format_contextISt20back_insert_iteratorINS1_6bufferIcEEEcEEEEEEcEclENS0_17basic_string_viewIcEE = comdat any

$_ZN3fmt2v68internal13specs_handlerINS0_26basic_format_parse_contextIcNS1_13error_handlerEEENS0_20basic_format_contextISt20back_insert_iteratorINS1_6bufferIcEEEcEEE20on_dynamic_precisionINS1_7auto_idEEEvT_ = comdat any

$_ZN3fmt2v68internal16get_dynamic_specINS1_17precision_checkerENS0_16basic_format_argINS0_20basic_format_contextISt20back_insert_iteratorINS1_6bufferIcEEEcEEEENS1_13error_handlerEEEiT0_T1_ = comdat any

$_ZN3fmt2v616visit_format_argINS0_8internal17precision_checkerINS2_13error_handlerEEENS0_20basic_format_contextISt20back_insert_iteratorINS2_6bufferIcEEEcEEEEDTclfp_Li0EEEOT_RKNS0_16basic_format_argIT0_EE = comdat any

$_ZN3fmt2v68internal17precision_checkerINS1_13error_handlerEEC2ERS3_ = comdat any

$_ZN3fmt2v68internal17precision_checkerINS1_13error_handlerEEclIiTnNSt9enable_ifIXsr10is_integerIT_EE5valueEiE4typeELi0EEEyS7_ = comdat any

$_ZN3fmt2v68internal17precision_checkerINS1_13error_handlerEEclIjTnNSt9enable_ifIXsr10is_integerIT_EE5valueEiE4typeELi0EEEyS7_ = comdat any

$_ZN3fmt2v68internal17precision_checkerINS1_13error_handlerEEclIxTnNSt9enable_ifIXsr10is_integerIT_EE5valueEiE4typeELi0EEEyS7_ = comdat any

$_ZN3fmt2v68internal17precision_checkerINS1_13error_handlerEEclIyTnNSt9enable_ifIXsr10is_integerIT_EE5valueEiE4typeELi0EEEyS7_ = comdat any

$_ZN3fmt2v68internal17precision_checkerINS1_13error_handlerEEclInTnNSt9enable_ifIXsr10is_integerIT_EE5valueEiE4typeELi0EEEyS7_ = comdat any

$_ZN3fmt2v68internal17precision_checkerINS1_13error_handlerEEclIoTnNSt9enable_ifIXsr10is_integerIT_EE5valueEiE4typeELi0EEEyS7_ = comdat any

$_ZN3fmt2v68internal17precision_checkerINS1_13error_handlerEEclIbTnNSt9enable_ifIXntsr10is_integerIT_EE5valueEiE4typeELi0EEEyS7_ = comdat any

$_ZN3fmt2v68internal17precision_checkerINS1_13error_handlerEEclIcTnNSt9enable_ifIXntsr10is_integerIT_EE5valueEiE4typeELi0EEEyS7_ = comdat any

$_ZN3fmt2v68internal17precision_checkerINS1_13error_handlerEEclIfTnNSt9enable_ifIXntsr10is_integerIT_EE5valueEiE4typeELi0EEEyS7_ = comdat any

$_ZN3fmt2v68internal17precision_checkerINS1_13error_handlerEEclIdTnNSt9enable_ifIXntsr10is_integerIT_EE5valueEiE4typeELi0EEEyS7_ = comdat any

$_ZN3fmt2v68internal17precision_checkerINS1_13error_handlerEEclIeTnNSt9enable_ifIXntsr10is_integerIT_EE5valueEiE4typeELi0EEEyS7_ = comdat any

$_ZN3fmt2v68internal17precision_checkerINS1_13error_handlerEEclIPKcTnNSt9enable_ifIXntsr10is_integerIT_EE5valueEiE4typeELi0EEEyS9_ = comdat any

$_ZN3fmt2v68internal17precision_checkerINS1_13error_handlerEEclINS0_17basic_string_viewIcEETnNSt9enable_ifIXntsr10is_integerIT_EE5valueEiE4typeELi0EEEyS9_ = comdat any

$_ZN3fmt2v68internal17precision_checkerINS1_13error_handlerEEclIPKvTnNSt9enable_ifIXntsr10is_integerIT_EE5valueEiE4typeELi0EEEyS9_ = comdat any

$_ZN3fmt2v68internal17precision_checkerINS1_13error_handlerEEclINS0_16basic_format_argINS0_20basic_format_contextISt20back_insert_iteratorINS1_6bufferIcEEEcEEE6handleETnNSt9enable_ifIXntsr10is_integerIT_EE5valueEiE4typeELi0EEEySG_ = comdat any

$_ZN3fmt2v68internal17precision_checkerINS1_13error_handlerEEclINS0_9monostateETnNSt9enable_ifIXntsr10is_integerIT_EE5valueEiE4typeELi0EEEyS8_ = comdat any

$_ZN3fmt2v68internal13specs_handlerINS0_26basic_format_parse_contextIcNS1_13error_handlerEEENS0_20basic_format_contextISt20back_insert_iteratorINS1_6bufferIcEEEcEEE20on_dynamic_precisionIiEEvT_ = comdat any

$_ZN3fmt2v68internal13specs_handlerINS0_26basic_format_parse_contextIcNS1_13error_handlerEEENS0_20basic_format_contextISt20back_insert_iteratorINS1_6bufferIcEEEcEEE20on_dynamic_precisionINS0_17basic_string_viewIcEEEEvT_ = comdat any

$_ZN3fmt2v68internal21numeric_specs_checkerINS1_13specs_handlerINS0_26basic_format_parse_contextIcNS1_13error_handlerEEENS0_20basic_format_contextISt20back_insert_iteratorINS1_6bufferIcEEEcEEEEE15check_precisionEv = comdat any

$_ZSt13back_inserterIN3fmt2v68internal6bufferIcEEESt20back_insert_iteratorIT_ERS6_ = comdat any

$_ZNSt20back_insert_iteratorIN3fmt2v68internal6bufferIcEEEC2ERS4_ = comdat any

$_ZNK3fmt2v68internal6bufferIcE4dataEv = comdat any

$_ZN3fmt2v619basic_memory_bufferIcLm500ESaIcEE10deallocateEv = comdat any

$_ZN3fmt2v68internal19check_format_stringIJiEA54_cTnNSt9enable_ifIXntsr17is_compile_stringIT0_EE5valueEiE4typeELi0EEEvRKS5_ = comdat any

$_ZN3fmt2v616format_arg_storeINS0_20basic_format_contextISt20back_insert_iteratorINS0_8internal6bufferIcEEEcEEJiEEC2ERKi = comdat any

$_ZN3fmt2v68internal8make_argILb1ENS0_20basic_format_contextISt20back_insert_iteratorINS1_6bufferIcEEEcEEiTnNSt9enable_ifIXT_EiE4typeELi0EEENS1_5valueIT0_EERKT1_ = comdat any

$_ZN3fmt2v68internal10arg_mapperINS0_20basic_format_contextISt20back_insert_iteratorINS1_6bufferIcEEEcEEE3mapEi = comdat any

$_ZN3fmt2v617basic_format_argsINS0_20basic_format_contextISt20back_insert_iteratorINS0_8internal6bufferIcEEEcEEE8set_dataEPKNS4_5valueIS8_EE = comdat any

$_ZNSt8__detail21_Hash_node_value_baseISt4pairIKiiEE9_M_valptrEv = comdat any

$_ZN9__gnu_cxx16__aligned_bufferISt4pairIKiiEE6_M_ptrEv = comdat any

$_ZN9__gnu_cxx16__aligned_bufferISt4pairIKiiEE7_M_addrEv = comdat any

$_ZSt4dataISt6vectorIiSaIiEEEDTcldtfp_4dataEERT_ = comdat any

$_ZSt4sizeISt6vectorIiSaIiEEEDTcldtfp_4sizeEERKT_ = comdat any

$_ZNSt6vectorIiSaIiEE4dataEv = comdat any

$_ZNKSt6vectorIiSaIiEE11_M_data_ptrIiEEPT_S4_ = comdat any

$_ZSt8_DestroyIPiiEvT_S1_RSaIT0_E = comdat any

$_ZNSt12_Vector_baseIiSaIiEED2Ev = comdat any

$_ZSt8_DestroyIPiEvT_S1_ = comdat any

$_ZNSt12_Destroy_auxILb1EE9__destroyIPiEEvT_S3_ = comdat any

$_ZNSt15__new_allocatorIiED2Ev = comdat any

$_ZN6openmc6vectorIiE5clearEv = comdat any

$_ZN6openmc6vectorIiE7reserveEm = comdat any

$_ZNK3gsl4spanIiE4sizeEv = comdat any

$_ZN6openmc10static_mapIiiNS_12integer_hashIiEEE5clearEv = comdat any

$_ZNK3gsl4spanIiE5beginEv = comdat any

$_ZNK3gsl4spanIiE3endEv = comdat any

$_ZN6openmc6vectorIiE9push_backERKi = comdat any

$_ZN6openmc10static_mapIiiNS_12integer_hashIiEEE6insertESt4pairIiiE = comdat any

$_ZNK6openmc6vectorIiE4sizeEv = comdat any

$_ZNSt4pairIiiEC2IRimTnNSt9enable_ifIXaaclsr5_PCCPE22_MoveConstructiblePairIT_T0_EEclsr5_PCCPE30_ImplicitlyMoveConvertiblePairIS4_S5_EEEbE4typeELb1EEEOS4_OS5_ = comdat any

$_ZN6openmc10static_mapIiiNS_12integer_hashIiEEE8finalizeEv = comdat any

$_ZN3gsl11narrow_castImlEET_OT0_ = comdat any

$_ZN6openmc6vectorISt4pairIiiEE5clearEv = comdat any

$_ZN6openmc6vectorISt4pairImmEE5clearEv = comdat any

$_ZN6openmc6vectorISt4pairIiiEE9push_backERKS2_ = comdat any

$_ZN6openmc6vectorISt4pairIiiEE7reserveEm = comdat any

$_ZNSt4pairIiiEaSERKS0_ = comdat any

$_ZNK6openmc10static_mapIiiNS_12integer_hashIiEEE5emptyEv = comdat any

$_ZN6openmc6vectorISt4pairImmEE6resizeEmRKS2_ = comdat any

$_ZNK6openmc10static_mapIiiNS_12integer_hashIiEEE16calc_num_bucketsEm = comdat any

$_ZNK6openmc10static_mapIiiNS_12integer_hashIiEEE4sizeEv = comdat any

$_ZNSt4pairImmEC2IiiTnNSt9enable_ifIXaaclsr5_PCCPE22_MoveConstructiblePairIT_T0_EEclsr5_PCCPE30_ImplicitlyMoveConvertiblePairIS3_S4_EEEbE4typeELb1EEEOS3_OS4_ = comdat any

$_ZSt11stable_sortIPSt4pairIiiEN6openmc10static_mapIiiNS3_12integer_hashIiEEE14HashComparatorEEvT_S9_T0_ = comdat any

$_ZN6openmc6vectorISt4pairIiiEE5beginEv = comdat any

$_ZN6openmc6vectorISt4pairIiiEE3endEv = comdat any

$_ZNK6openmc10static_mapIiiNS_12integer_hashIiEEE12bucket_countEv = comdat any

$_ZN6openmc10static_mapIiiNS_12integer_hashIiEEE14HashComparatorC2ERKS2_i = comdat any

$_ZNK6openmc10static_mapIiiNS_12integer_hashIiEEE12bucket_indexERKi = comdat any

$_ZN6openmc6vectorISt4pairIiiEE5frontEv = comdat any

$_ZN6openmc6vectorISt4pairIiiEEixEm = comdat any

$_ZN6openmc6vectorISt4pairImmEEixEm = comdat any

$_ZNK6openmc6vectorISt4pairIiiEE5emptyEv = comdat any

$_ZN6openmc6vectorISt4pairImmEE7reserveEm = comdat any

$_ZSt4fillIPSt4pairImmES1_EvT_S3_RKT0_ = comdat any

$_ZN6openmc6vectorISt4pairImmEE3endEv = comdat any

$_ZN6openmc6vectorISt4pairImmEE5beginEv = comdat any

$_ZSt8__fill_aIPSt4pairImmES1_EvT_S3_RKT0_ = comdat any

$_ZSt9__fill_a1IPSt4pairImmES1_EN9__gnu_cxx11__enable_ifIXntsr11__is_scalarIT0_EE7__valueEvE6__typeET_S8_RKS5_ = comdat any

$_ZNSt4pairImmEaSERKS0_ = comdat any

$_ZSt11lower_boundIPKmmET_S2_S2_RKT0_ = comdat any

$_ZSt5beginIKmLm30EEPT_RAT0__S1_ = comdat any

$_ZSt3endIKmLm30EEPT_RAT0__S1_ = comdat any

$_ZSt13__lower_boundIPKmmN9__gnu_cxx5__ops14_Iter_less_valEET_S5_S5_RKT0_T1_ = comdat any

$_ZN9__gnu_cxx5__ops15__iter_less_valEv = comdat any

$_ZSt8distanceIPKmENSt15iterator_traitsIT_E15difference_typeES3_S3_ = comdat any

$_ZSt7advanceIPKmlEvRT_T0_ = comdat any

$_ZNK9__gnu_cxx5__ops14_Iter_less_valclIPKmS3_EEbT_RT0_ = comdat any

$_ZSt10__distanceIPKmENSt15iterator_traitsIT_E15difference_typeES3_S3_St26random_access_iterator_tag = comdat any

$_ZSt19__iterator_categoryIPKmENSt15iterator_traitsIT_E17iterator_categoryERKS3_ = comdat any

$_ZSt9__advanceIPKmlEvRT_T0_St26random_access_iterator_tag = comdat any

$_ZNK6openmc6vectorISt4pairIiiEE4sizeEv = comdat any

$_ZSt13__stable_sortIPSt4pairIiiEN9__gnu_cxx5__ops15_Iter_comp_iterIN6openmc10static_mapIiiNS6_12integer_hashIiEEE14HashComparatorEEEEvT_SD_T0_ = comdat any

$_ZN9__gnu_cxx5__ops16__iter_comp_iterIN6openmc10static_mapIiiNS2_12integer_hashIiEEE14HashComparatorEEENS0_15_Iter_comp_iterIT_EES9_ = comdat any

$_ZNSt17_Temporary_bufferIPSt4pairIiiES1_EC2ES2_l = comdat any

$_ZNSt17_Temporary_bufferIPSt4pairIiiES1_E5beginEv = comdat any

$_ZSt21__inplace_stable_sortIPSt4pairIiiEN9__gnu_cxx5__ops15_Iter_comp_iterIN6openmc10static_mapIiiNS6_12integer_hashIiEEE14HashComparatorEEEEvT_SD_T0_ = comdat any

$_ZSt22__stable_sort_adaptiveIPSt4pairIiiES2_lN9__gnu_cxx5__ops15_Iter_comp_iterIN6openmc10static_mapIiiNS6_12integer_hashIiEEE14HashComparatorEEEEvT_SD_T0_T1_T2_ = comdat any

$_ZNKSt17_Temporary_bufferIPSt4pairIiiES1_E4sizeEv = comdat any

$_ZNSt17_Temporary_bufferIPSt4pairIiiES1_ED2Ev = comdat any

$_ZSt20get_temporary_bufferISt4pairIiiEES0_IPT_lEl = comdat any

$_ZSt29__uninitialized_construct_bufIPSt4pairIiiES2_EvT_S3_T0_ = comdat any

$_ZNSt8__detail25__return_temporary_bufferISt4pairIiiEEEvPT_m = comdat any

$_ZNSt4pairIPS_IiiElEC2IRS1_RlTnNSt9enable_ifIXaaclsr5_PCCPE22_MoveConstructiblePairIT_T0_EEclsr5_PCCPE30_ImplicitlyMoveConvertiblePairIS7_S8_EEEbE4typeELb1EEEOS7_OS8_ = comdat any

$_ZNSt4pairIPS_IiiElEC2IS1_iTnNSt9enable_ifIXaaclsr5_PCCPE22_MoveConstructiblePairIT_T0_EEclsr5_PCCPE30_ImplicitlyMoveConvertiblePairIS5_S6_EEEbE4typeELb1EEEOS5_OS6_ = comdat any

$_ZNSt38__uninitialized_construct_buf_dispatchILb0EE5__ucrIPSt4pairIiiES4_EEvT_S5_T0_ = comdat any

$_ZSt10_ConstructISt4pairIiiEJS1_EEvPT_DpOT0_ = comdat any

$_ZNSt4pairIiiEaSEOS0_ = comdat any

$_ZSt8_DestroyIPSt4pairIiiEEvT_S3_ = comdat any

$_ZNSt12_Destroy_auxILb1EE9__destroyIPSt4pairIiiEEEvT_S5_ = comdat any

$_ZSt16__insertion_sortIPSt4pairIiiEN9__gnu_cxx5__ops15_Iter_comp_iterIN6openmc10static_mapIiiNS6_12integer_hashIiEEE14HashComparatorEEEEvT_SD_T0_ = comdat any

$_ZSt22__merge_without_bufferIPSt4pairIiiElN9__gnu_cxx5__ops15_Iter_comp_iterIN6openmc10static_mapIiiNS6_12integer_hashIiEEE14HashComparatorEEEEvT_SD_SD_T0_SE_T1_ = comdat any

$_ZN9__gnu_cxx5__ops15_Iter_comp_iterIN6openmc10static_mapIiiNS2_12integer_hashIiEEE14HashComparatorEEclIPSt4pairIiiESC_EEbT_T0_ = comdat any

$_ZSt13move_backwardIPSt4pairIiiES2_ET0_T_S4_S3_ = comdat any

$_ZSt25__unguarded_linear_insertIPSt4pairIiiEN9__gnu_cxx5__ops14_Val_comp_iterIN6openmc10static_mapIiiNS6_12integer_hashIiEEE14HashComparatorEEEEvT_T0_ = comdat any

$_ZN9__gnu_cxx5__ops15__val_comp_iterIN6openmc10static_mapIiiNS2_12integer_hashIiEEE14HashComparatorEEENS0_14_Val_comp_iterIT_EENS0_15_Iter_comp_iterIS9_EE = comdat any

$_ZNK6openmc10static_mapIiiNS_12integer_hashIiEEE14HashComparatorclERKSt4pairIiiES8_ = comdat any

$_ZNK6openmc12integer_hashIiEclEi = comdat any

$_ZSt22__copy_move_backward_aILb1EPSt4pairIiiES2_ET1_T0_S4_S3_ = comdat any

$_ZSt12__miter_baseIPSt4pairIiiEET_S3_ = comdat any

$_ZSt12__niter_wrapIPSt4pairIiiEET_RKS3_S3_ = comdat any

$_ZSt23__copy_move_backward_a1ILb1EPSt4pairIiiES2_ET1_T0_S4_S3_ = comdat any

$_ZSt12__niter_baseIPSt4pairIiiEET_S3_ = comdat any

$_ZSt23__copy_move_backward_a2ILb1EPSt4pairIiiES2_ET1_T0_S4_S3_ = comdat any

$_ZNSt20__copy_move_backwardILb1ELb0ESt26random_access_iterator_tagE13__copy_move_bIPSt4pairIiiES5_EET0_T_S7_S6_ = comdat any

$_ZN9__gnu_cxx5__ops14_Val_comp_iterIN6openmc10static_mapIiiNS2_12integer_hashIiEEE14HashComparatorEEclISt4pairIiiEPSB_EEbRT_T0_ = comdat any

$_ZN9__gnu_cxx5__ops14_Val_comp_iterIN6openmc10static_mapIiiNS2_12integer_hashIiEEE14HashComparatorEEC2EONS0_15_Iter_comp_iterIS7_EE = comdat any

$_ZSt9iter_swapIPSt4pairIiiES2_EvT_T0_ = comdat any

$_ZSt7advanceIPSt4pairIiiElEvRT_T0_ = comdat any

$_ZSt13__lower_boundIPSt4pairIiiES1_N9__gnu_cxx5__ops14_Iter_comp_valIN6openmc10static_mapIiiNS6_12integer_hashIiEEE14HashComparatorEEEET_SD_SD_RKT0_T1_ = comdat any

$_ZN9__gnu_cxx5__ops15__iter_comp_valIN6openmc10static_mapIiiNS2_12integer_hashIiEEE14HashComparatorEEENS0_14_Iter_comp_valIT_EENS0_15_Iter_comp_iterIS9_EE = comdat any

$_ZSt8distanceIPSt4pairIiiEENSt15iterator_traitsIT_E15difference_typeES4_S4_ = comdat any

$_ZSt13__upper_boundIPSt4pairIiiES1_N9__gnu_cxx5__ops14_Val_comp_iterIN6openmc10static_mapIiiNS6_12integer_hashIiEEE14HashComparatorEEEET_SD_SD_RKT0_T1_ = comdat any

$_ZNSt3_V26rotateIPSt4pairIiiEEET_S4_S4_S4_ = comdat any

$_ZSt4swapIiiENSt9enable_ifIXsr6__and_ISt14__is_swappableIT_ES1_IT0_EEE5valueEvE4typeERSt4pairIS2_S4_ESA_ = comdat any

$_ZNSt4pairIiiE4swapERS0_ = comdat any

$_ZSt4swapIiENSt9enable_ifIXsr6__and_ISt6__not_ISt15__is_tuple_likeIT_EESt21is_move_constructibleIS3_ESt18is_move_assignableIS3_EEE5valueEvE4typeERS3_SC_ = comdat any

$_ZSt9__advanceIPSt4pairIiiElEvRT_T0_St26random_access_iterator_tag = comdat any

$_ZSt19__iterator_categoryIPSt4pairIiiEENSt15iterator_traitsIT_E17iterator_categoryERKS4_ = comdat any

$_ZN9__gnu_cxx5__ops14_Iter_comp_valIN6openmc10static_mapIiiNS2_12integer_hashIiEEE14HashComparatorEEclIPSt4pairIiiEKSB_EEbT_RT0_ = comdat any

$_ZN9__gnu_cxx5__ops14_Iter_comp_valIN6openmc10static_mapIiiNS2_12integer_hashIiEEE14HashComparatorEEC2EONS0_15_Iter_comp_iterIS7_EE = comdat any

$_ZSt10__distanceIPSt4pairIiiEENSt15iterator_traitsIT_E15difference_typeES4_S4_St26random_access_iterator_tag = comdat any

$_ZN9__gnu_cxx5__ops14_Val_comp_iterIN6openmc10static_mapIiiNS2_12integer_hashIiEEE14HashComparatorEEclIKSt4pairIiiEPSB_EEbRT_T0_ = comdat any

$_ZNSt3_V28__rotateIPSt4pairIiiEEET_S4_S4_S4_St26random_access_iterator_tag = comdat any

$_ZSt11swap_rangesIPSt4pairIiiES2_ET0_T_S4_S3_ = comdat any

$_ZSt4swapIlENSt9enable_ifIXsr6__and_ISt6__not_ISt15__is_tuple_likeIT_EESt21is_move_constructibleIS3_ESt18is_move_assignableIS3_EEE5valueEvE4typeERS3_SC_ = comdat any

$_ZSt24__merge_sort_with_bufferIPSt4pairIiiES2_N9__gnu_cxx5__ops15_Iter_comp_iterIN6openmc10static_mapIiiNS6_12integer_hashIiEEE14HashComparatorEEEEvT_SD_T0_T1_ = comdat any

$_ZSt16__merge_adaptiveIPSt4pairIiiElS2_N9__gnu_cxx5__ops15_Iter_comp_iterIN6openmc10static_mapIiiNS6_12integer_hashIiEEE14HashComparatorEEEEvT_SD_SD_T0_SE_T1_SE_T2_ = comdat any

$_ZSt22__chunk_insertion_sortIPSt4pairIiiElN9__gnu_cxx5__ops15_Iter_comp_iterIN6openmc10static_mapIiiNS6_12integer_hashIiEEE14HashComparatorEEEEvT_SD_T0_T1_ = comdat any

$_ZSt17__merge_sort_loopIPSt4pairIiiES2_lN9__gnu_cxx5__ops15_Iter_comp_iterIN6openmc10static_mapIiiNS6_12integer_hashIiEEE14HashComparatorEEEEvT_SD_T0_T1_T2_ = comdat any

$_ZSt12__move_mergeIPSt4pairIiiES2_N9__gnu_cxx5__ops15_Iter_comp_iterIN6openmc10static_mapIiiNS6_12integer_hashIiEEE14HashComparatorEEEET0_T_SE_SE_SE_SD_T1_ = comdat any

$_ZSt3minIlERKT_S2_S2_ = comdat any

$_ZSt4moveIPSt4pairIiiES2_ET0_T_S4_S3_ = comdat any

$_ZSt13__copy_move_aILb1EPSt4pairIiiES2_ET1_T0_S4_S3_ = comdat any

$_ZSt14__copy_move_a1ILb1EPSt4pairIiiES2_ET1_T0_S4_S3_ = comdat any

$_ZSt14__copy_move_a2ILb1EPSt4pairIiiES2_ET1_T0_S4_S3_ = comdat any

$_ZNSt11__copy_moveILb1ELb0ESt26random_access_iterator_tagE8__copy_mIPSt4pairIiiES5_EET0_T_S7_S6_ = comdat any

$_ZSt21__move_merge_adaptiveIPSt4pairIiiES2_S2_N9__gnu_cxx5__ops15_Iter_comp_iterIN6openmc10static_mapIiiNS6_12integer_hashIiEEE14HashComparatorEEEEvT_SD_T0_SE_T1_T2_ = comdat any

$_ZSt30__move_merge_adaptive_backwardIPSt4pairIiiES2_S2_N9__gnu_cxx5__ops15_Iter_comp_iterIN6openmc10static_mapIiiNS6_12integer_hashIiEEE14HashComparatorEEEEvT_SD_T0_SE_T1_T2_ = comdat any

$_ZSt17__rotate_adaptiveIPSt4pairIiiES2_lET_S3_S3_S3_T1_S4_T0_S4_ = comdat any

$_ZN9__gnu_cxx5__ops15_Iter_comp_iterIN6openmc10static_mapIiiNS2_12integer_hashIiEEE14HashComparatorEEC2ES7_ = comdat any

$_ZNK6openmc6vectorISt4pairImmEE4sizeEv = comdat any

$_ZNK6openmc10static_mapIiiNS_12integer_hashIiEEE4findEi = comdat any

$_ZNK6openmc10static_mapIiiNS_12integer_hashIiEEE3endEv = comdat any

$_ZN6openmc11FilterMatch9push_backEid = comdat any

$_ZNK6openmc6vectorISt4pairImmEEixEm = comdat any

$_ZNK6openmc6vectorISt4pairIiiEE5beginEv = comdat any

$_ZNK6openmc6vectorISt4pairIiiEE3endEv = comdat any

$_ZN6openmc11FilterMatch7is_fullEv = comdat any

$_ZNK6openmc6vectorIiE5beginEv = comdat any

$_ZNK6openmc6vectorIiE3endEv = comdat any

$_ZNSt6vectorIN6openmc8UniverseESaIS1_EEixEm = comdat any

$_ZN6openmc13write_datasetIiEEvlPKcRKSt6vectorIT_SaIS4_EE = comdat any

$_ZNKSt6vectorIiSaIiEE4dataEv = comdat any

$_ZN3fmt2v66formatIA12_cJRiEcEENSt7__cxx1112basic_stringIT1_St11char_traitsIS6_ESaIS6_EEERKT_DpOT0_ = comdat any

$_ZNK6openmc6vectorIiEixEm = comdat any

$_ZN3fmt2v68internal17make_args_checkedIJRiEA12_ccEENS0_16format_arg_storeINS0_20basic_format_contextISt20back_insert_iteratorINS1_6bufferIT1_EEES9_EEJDpNSt16remove_referenceIT_E4typeEEEERKT0_DpRKSG_ = comdat any

$_ZN3fmt2v68internal19check_format_stringIJiEA12_cTnNSt9enable_ifIXntsr17is_compile_stringIT0_EE5valueEiE4typeELi0EEEvRKS5_ = comdat any

$_ZTVN3fmt2v619basic_memory_bufferIcLm500ESaIcEEE = comdat any

$_ZTIN3fmt2v619basic_memory_bufferIcLm500ESaIcEEE = comdat any

$_ZTSN3fmt2v619basic_memory_bufferIcLm500ESaIcEEE = comdat any

$_ZTISaIcE = comdat any

$_ZTSSaIcE = comdat any

$_ZTISt15__new_allocatorIcE = comdat any

$_ZTSSt15__new_allocatorIcE = comdat any

$_ZTIN3fmt2v68internal6bufferIcEE = comdat any

$_ZTSN3fmt2v68internal6bufferIcEE = comdat any

$_ZTVN3fmt2v68internal6bufferIcEE = comdat any

$_ZZNK6openmc10static_mapIiiNS_12integer_hashIiEEE16calc_num_bucketsEmE6primes = comdat any

@dagmc = external global i8, align 1
@run_CE = external global i8, align 1
@max_lost_particles = external global i32, align 4
@gen_per_batch = external global i32, align 4
@n_particles = external global i64, align 8
@_ZN6openmcL12DEPLETION_RXE = internal constant %"struct.std::array" { [6 x i32] [i32 102, i32 103, i32 107, i32 16, i32 17, i32 37] }, align 4
@_ZStL8__ioinit = internal global %"class.std::ios_base::Init" zeroinitializer, align 1
@__dso_handle = external hidden global i8
@.str = private unnamed_addr constant [5 x i8] c"bins\00", align 1
@_ZN6openmc5model12universe_mapE = external global %"class.std::unordered_map", align 8
@.str.1 = private unnamed_addr constant [54 x i8] c"Could not find universe {} specified on tally filter.\00", align 1
@_ZTISt13runtime_error = external constant ptr
@_ZTVNSt7__cxx1118basic_stringstreamIcSt11char_traitsIcESaIcEEE = external unnamed_addr constant { [5 x ptr], [5 x ptr], [5 x ptr] }, align 8
@_ZTTNSt7__cxx1118basic_stringstreamIcSt11char_traitsIcESaIcEEE = external unnamed_addr constant [10 x ptr], align 8
@_ZTVSt9basic_iosIcSt11char_traitsIcEE = external unnamed_addr constant { [4 x ptr] }, align 8
@_ZTVNSt7__cxx1115basic_stringbufIcSt11char_traitsIcESaIcEEE = external unnamed_addr constant { [16 x ptr] }, align 8
@_ZTVSt15basic_streambufIcSt11char_traitsIcEE = external unnamed_addr constant { [16 x ptr] }, align 8
@.str.2 = private unnamed_addr constant [50 x i8] c"basic_string: construction from null is not valid\00", align 1
@.str.3 = private unnamed_addr constant [26 x i8] c"vector::_M_realloc_insert\00", align 1
@_ZTVN3fmt2v619basic_memory_bufferIcLm500ESaIcEEE = linkonce_odr unnamed_addr constant { [5 x ptr] } { [5 x ptr] [ptr null, ptr @_ZTIN3fmt2v619basic_memory_bufferIcLm500ESaIcEEE, ptr @_ZN3fmt2v619basic_memory_bufferIcLm500ESaIcEE4growEm, ptr @_ZN3fmt2v619basic_memory_bufferIcLm500ESaIcEED2Ev, ptr @_ZN3fmt2v619basic_memory_bufferIcLm500ESaIcEED0Ev] }, comdat, align 8
@_ZTIN3fmt2v619basic_memory_bufferIcLm500ESaIcEEE = linkonce_odr constant { ptr, ptr, i32, i32, ptr, i64, ptr, i64 } { ptr getelementptr inbounds (ptr, ptr @_ZTVN10__cxxabiv121__vmi_class_type_infoE, i64 2), ptr @_ZTSN3fmt2v619basic_memory_bufferIcLm500ESaIcEEE, i32 0, i32 2, ptr @_ZTISaIcE, i64 0, ptr @_ZTIN3fmt2v68internal6bufferIcEE, i64 2 }, comdat, align 8
@_ZTVN10__cxxabiv121__vmi_class_type_infoE = external global [0 x ptr]
@_ZTSN3fmt2v619basic_memory_bufferIcLm500ESaIcEEE = linkonce_odr constant [45 x i8] c"N3fmt2v619basic_memory_bufferIcLm500ESaIcEEE\00", comdat, align 1
@_ZTISaIcE = linkonce_odr constant { ptr, ptr, ptr } { ptr getelementptr inbounds (ptr, ptr @_ZTVN10__cxxabiv120__si_class_type_infoE, i64 2), ptr @_ZTSSaIcE, ptr @_ZTISt15__new_allocatorIcE }, comdat, align 8
@_ZTVN10__cxxabiv120__si_class_type_infoE = external global [0 x ptr]
@_ZTSSaIcE = linkonce_odr constant [6 x i8] c"SaIcE\00", comdat, align 1
@_ZTISt15__new_allocatorIcE = linkonce_odr constant { ptr, ptr } { ptr getelementptr inbounds (ptr, ptr @_ZTVN10__cxxabiv117__class_type_infoE, i64 2), ptr @_ZTSSt15__new_allocatorIcE }, comdat, align 8
@_ZTVN10__cxxabiv117__class_type_infoE = external global [0 x ptr]
@_ZTSSt15__new_allocatorIcE = linkonce_odr constant [23 x i8] c"St15__new_allocatorIcE\00", comdat, align 1
@_ZTIN3fmt2v68internal6bufferIcEE = linkonce_odr constant { ptr, ptr } { ptr getelementptr inbounds (ptr, ptr @_ZTVN10__cxxabiv117__class_type_infoE, i64 2), ptr @_ZTSN3fmt2v68internal6bufferIcEE }, comdat, align 8
@_ZTSN3fmt2v68internal6bufferIcEE = linkonce_odr constant [29 x i8] c"N3fmt2v68internal6bufferIcEE\00", comdat, align 1
@_ZTVN3fmt2v68internal6bufferIcEE = linkonce_odr unnamed_addr constant { [5 x ptr] } { [5 x ptr] [ptr null, ptr @_ZTIN3fmt2v68internal6bufferIcEE, ptr @__cxa_pure_virtual, ptr @_ZN3fmt2v68internal6bufferIcED2Ev, ptr @_ZN3fmt2v68internal6bufferIcED0Ev] }, comdat, align 8
@.str.4 = private unnamed_addr constant [22 x i8] c"invalid format string\00", align 1
@.str.5 = private unnamed_addr constant [25 x i8] c"unknown format specifier\00", align 1
@.str.6 = private unnamed_addr constant [29 x i8] c"missing '}' in format string\00", align 1
@.str.7 = private unnamed_addr constant [81 x i8] c"/g/g0/wright117/workspace/openmc/openmc-omp/openmc/vendor/fmt/include/fmt/core.h\00", align 1
@.str.8 = private unnamed_addr constant [15 x i8] c"negative value\00", align 1
@.str.9 = private unnamed_addr constant [31 x i8] c"unmatched '}' in format string\00", align 1
@.str.10 = private unnamed_addr constant [28 x i8] c"argument index out of range\00", align 1
@.str.11 = private unnamed_addr constant [57 x i8] c"cannot switch from manual to automatic argument indexing\00", align 1
@.str.12 = private unnamed_addr constant [22 x i8] c"invalid argument type\00", align 1
@_ZN3fmt2v68internal10basic_dataIvE23zero_or_powers_of_10_32E = external constant [0 x i32], align 4
@.str.13 = private unnamed_addr constant [83 x i8] c"/g/g0/wright117/workspace/openmc/openmc-omp/openmc/vendor/fmt/include/fmt/format.h\00", align 1
@.str.14 = private unnamed_addr constant [20 x i8] c"invalid digit count\00", align 1
@_ZN3fmt2v68internal10basic_dataIvE6digitsE = external constant [0 x i8], align 1
@.str.15 = private unnamed_addr constant [17 x i8] c"0123456789ABCDEF\00", align 1
@_ZN3fmt2v68internal10basic_dataIvE10hex_digitsE = external constant [0 x i8], align 1
@.str.16 = private unnamed_addr constant [23 x i8] c"invalid type specifier\00", align 1
@_ZTIN3fmt2v612format_errorE = external constant ptr
@_ZTVN3fmt2v612format_errorE = available_externally unnamed_addr constant { [5 x ptr] } { [5 x ptr] [ptr null, ptr @_ZTIN3fmt2v612format_errorE, ptr @_ZN3fmt2v612format_errorD1Ev, ptr @_ZN3fmt2v612format_errorD0Ev, ptr @_ZNKSt13runtime_error4whatEv] }, align 8
@_ZN3fmt2v68internal10basic_dataIvE23zero_or_powers_of_10_64E = external constant [0 x i64], align 8
@.str.17 = private unnamed_addr constant [5 x i8] c"true\00", align 1
@.str.18 = private unnamed_addr constant [6 x i8] c"false\00", align 1
@.str.19 = private unnamed_addr constant [34 x i8] c"invalid format specifier for char\00", align 1
@.str.20 = private unnamed_addr constant [4 x i8] c"INF\00", align 1
@.str.21 = private unnamed_addr constant [4 x i8] c"inf\00", align 1
@.str.22 = private unnamed_addr constant [4 x i8] c"NAN\00", align 1
@.str.23 = private unnamed_addr constant [4 x i8] c"nan\00", align 1
@_ZN3fmt2v68internal10basic_dataIvE5signsE = external constant [0 x i8], align 1
@.str.24 = private unnamed_addr constant [18 x i8] c"number is too big\00", align 1
@.str.25 = private unnamed_addr constant [22 x i8] c"exponent out of range\00", align 1
@.str.26 = private unnamed_addr constant [23 x i8] c"string pointer is null\00", align 1
@.str.27 = private unnamed_addr constant [1 x i8] zeroinitializer, align 1
@.str.28 = private unnamed_addr constant [57 x i8] c"cannot switch from automatic to manual argument indexing\00", align 1
@.str.29 = private unnamed_addr constant [19 x i8] c"argument not found\00", align 1
@.str.30 = private unnamed_addr constant [27 x i8] c"invalid fill character '{'\00", align 1
@.str.31 = private unnamed_addr constant [43 x i8] c"format specifier requires numeric argument\00", align 1
@.str.32 = private unnamed_addr constant [42 x i8] c"format specifier requires signed argument\00", align 1
@.str.33 = private unnamed_addr constant [15 x i8] c"negative width\00", align 1
@.str.34 = private unnamed_addr constant [21 x i8] c"width is not integer\00", align 1
@.str.35 = private unnamed_addr constant [28 x i8] c"missing precision specifier\00", align 1
@.str.36 = private unnamed_addr constant [19 x i8] c"negative precision\00", align 1
@.str.37 = private unnamed_addr constant [25 x i8] c"precision is not integer\00", align 1
@.str.38 = private unnamed_addr constant [45 x i8] c"precision not allowed for this argument type\00", align 1
@_ZZNK6openmc10static_mapIiiNS_12integer_hashIiEEE16calc_num_bucketsEmE6primes = linkonce_odr constant [30 x i64] [i64 3, i64 7, i64 13, i64 31, i64 61, i64 127, i64 251, i64 509, i64 1021, i64 2039, i64 4093, i64 8191, i64 16381, i64 32749, i64 65521, i64 131071, i64 262139, i64 524287, i64 1048573, i64 2097143, i64 4194301, i64 8388593, i64 16777213, i64 33554393, i64 67108859, i64 134217689, i64 268435399, i64 536870909, i64 1073741789, i64 2147483647], comdat, align 16
@_ZSt7nothrow = external global %"struct.std::nothrow_t", align 1
@_ZN6openmc5model9universesE = external global %"class.std::vector.97", align 8
@_ZN6openmc9H5TypeMapIiE7type_idE = external constant i64, align 8
@.str.39 = private unnamed_addr constant [12 x i8] c"Universe {}\00", align 1
@llvm.global_ctors = appending global [1 x { i32, ptr, ptr }] [{ i32, ptr, ptr } { i32 65535, ptr @_GLOBAL__sub_I_filter_universe.cpp, ptr null }]

; Function Attrs: uwtable
define internal void @__cxx_global_var_init() #0 section ".text.startup" {
entry:
  call void @_ZNSt8ios_base4InitC1Ev(ptr noundef nonnull align 1 dereferenceable(1) @_ZStL8__ioinit)
  %0 = call i32 @__cxa_atexit(ptr @_ZNSt8ios_base4InitD1Ev, ptr @_ZStL8__ioinit, ptr @__dso_handle) #3
  ret void
}

declare void @_ZNSt8ios_base4InitC1Ev(ptr noundef nonnull align 1 dereferenceable(1)) unnamed_addr #1

; Function Attrs: nounwind
declare void @_ZNSt8ios_base4InitD1Ev(ptr noundef nonnull align 1 dereferenceable(1)) unnamed_addr #2

; Function Attrs: nounwind
declare i32 @__cxa_atexit(ptr, ptr, ptr) #3

; Function Attrs: mustprogress uwtable
define void @_ZN6openmc6Filter23UniverseFilter_from_xmlEN4pugi8xml_nodeE(ptr noundef nonnull align 8 dereferenceable(448) %this, ptr %node.coerce) #4 align 2 personality ptr @__gxx_personality_v0 {
entry:
  %node = alloca %"class.pugi::xml_node", align 8
  %this.addr = alloca ptr, align 8
  %universes = alloca %"class.std::vector", align 8
  %agg.tmp = alloca %"class.pugi::xml_node", align 8
  %__range1 = alloca ptr, align 8
  %__begin1 = alloca %"class.__gnu_cxx::__normal_iterator", align 8
  %__end1 = alloca %"class.__gnu_cxx::__normal_iterator", align 8
  %u = alloca ptr, align 8
  %search = alloca %"struct.std::__detail::_Node_iterator", align 8
  %exn.slot = alloca ptr, align 8
  %ehselector.slot = alloca i32, align 4
  %ref.tmp = alloca %"struct.std::__detail::_Node_iterator", align 8
  %ref.tmp15 = alloca %"class.std::__cxx11::basic_string", align 8
  %cleanup.isactive = alloca i1, align 1
  %agg.tmp28 = alloca %"class.gsl::span", align 8
  %coerce.dive = getelementptr inbounds nuw %"class.pugi::xml_node", ptr %node, i32 0, i32 0
  store ptr %node.coerce, ptr %coerce.dive, align 8
  store ptr %this, ptr %this.addr, align 8, !tbaa !11
  %this1 = load ptr, ptr %this.addr, align 8
  call void @llvm.lifetime.start.p0(i64 24, ptr %universes) #3
  call void @llvm.memcpy.p0.p0.i64(ptr align 8 %agg.tmp, ptr align 8 %node, i64 8, i1 false), !tbaa.struct !16
  %coerce.dive2 = getelementptr inbounds nuw %"class.pugi::xml_node", ptr %agg.tmp, i32 0, i32 0
  %0 = load ptr, ptr %coerce.dive2, align 8
  call void @_ZN6openmc14get_node_arrayIiEESt6vectorIT_SaIS2_EEN4pugi8xml_nodeEPKcb(ptr dead_on_unwind writable sret(%"class.std::vector") align 8 %universes, ptr %0, ptr noundef @.str, i1 noundef zeroext false)
  call void @llvm.lifetime.start.p0(i64 8, ptr %__range1) #3
  store ptr %universes, ptr %__range1, align 8, !tbaa !19
  call void @llvm.lifetime.start.p0(i64 8, ptr %__begin1) #3
  %1 = load ptr, ptr %__range1, align 8, !tbaa !19
  %call = call ptr @_ZNSt6vectorIiSaIiEE5beginEv(ptr noundef nonnull align 8 dereferenceable(24) %1) #3
  %coerce.dive3 = getelementptr inbounds nuw %"class.__gnu_cxx::__normal_iterator", ptr %__begin1, i32 0, i32 0
  store ptr %call, ptr %coerce.dive3, align 8
  call void @llvm.lifetime.start.p0(i64 8, ptr %__end1) #3
  %2 = load ptr, ptr %__range1, align 8, !tbaa !19
  %call4 = call ptr @_ZNSt6vectorIiSaIiEE3endEv(ptr noundef nonnull align 8 dereferenceable(24) %2) #3
  %coerce.dive5 = getelementptr inbounds nuw %"class.__gnu_cxx::__normal_iterator", ptr %__end1, i32 0, i32 0
  store ptr %call4, ptr %coerce.dive5, align 8
  br label %for.cond

for.cond:                                         ; preds = %for.inc, %entry
  %call6 = call noundef zeroext i1 @_ZN9__gnu_cxxneIPiSt6vectorIiSaIiEEEEbRKNS_17__normal_iteratorIT_T0_EESA_(ptr noundef nonnull align 8 dereferenceable(8) %__begin1, ptr noundef nonnull align 8 dereferenceable(8) %__end1) #3
  br i1 %call6, label %for.body, label %for.cond.cleanup

for.cond.cleanup:                                 ; preds = %for.cond
  call void @llvm.lifetime.end.p0(i64 8, ptr %__end1) #3
  call void @llvm.lifetime.end.p0(i64 8, ptr %__begin1) #3
  call void @llvm.lifetime.end.p0(i64 8, ptr %__range1) #3
  br label %for.end

for.body:                                         ; preds = %for.cond
  call void @llvm.lifetime.start.p0(i64 8, ptr %u) #3
  %call7 = call noundef nonnull align 4 dereferenceable(4) ptr @_ZNK9__gnu_cxx17__normal_iteratorIPiSt6vectorIiSaIiEEEdeEv(ptr noundef nonnull align 8 dereferenceable(8) %__begin1) #3
  store ptr %call7, ptr %u, align 8, !tbaa !21
  call void @llvm.lifetime.start.p0(i64 8, ptr %search) #3
  %3 = load ptr, ptr %u, align 8, !tbaa !21
  %call8 = invoke ptr @_ZNSt13unordered_mapIiiSt4hashIiESt8equal_toIiESaISt4pairIKiiEEE4findERS5_(ptr noundef nonnull align 8 dereferenceable(56) @_ZN6openmc5model12universe_mapE, ptr noundef nonnull align 4 dereferenceable(4) %3)
          to label %invoke.cont unwind label %lpad

invoke.cont:                                      ; preds = %for.body
  %coerce.dive9 = getelementptr inbounds nuw %"struct.std::__detail::_Node_iterator", ptr %search, i32 0, i32 0
  %coerce.dive10 = getelementptr inbounds nuw %"struct.std::__detail::_Node_iterator_base", ptr %coerce.dive9, i32 0, i32 0
  store ptr %call8, ptr %coerce.dive10, align 8
  call void @llvm.lifetime.start.p0(i64 8, ptr %ref.tmp) #3
  %call11 = call ptr @_ZNSt13unordered_mapIiiSt4hashIiESt8equal_toIiESaISt4pairIKiiEEE3endEv(ptr noundef nonnull align 8 dereferenceable(56) @_ZN6openmc5model12universe_mapE) #3
  %coerce.dive12 = getelementptr inbounds nuw %"struct.std::__detail::_Node_iterator", ptr %ref.tmp, i32 0, i32 0
  %coerce.dive13 = getelementptr inbounds nuw %"struct.std::__detail::_Node_iterator_base", ptr %coerce.dive12, i32 0, i32 0
  store ptr %call11, ptr %coerce.dive13, align 8
  %call14 = call noundef zeroext i1 @_ZNSt8__detaileqERKNS_19_Node_iterator_baseISt4pairIKiiELb0EEES6_(ptr noundef nonnull align 8 dereferenceable(8) %search, ptr noundef nonnull align 8 dereferenceable(8) %ref.tmp) #3
  call void @llvm.lifetime.end.p0(i64 8, ptr %ref.tmp) #3
  br i1 %call14, label %if.then, label %if.end

if.then:                                          ; preds = %invoke.cont
  store i1 true, ptr %cleanup.isactive, align 1
  %exception = call ptr @__cxa_allocate_exception(i64 16) #3
  call void @llvm.lifetime.start.p0(i64 32, ptr %ref.tmp15) #3
  %4 = load ptr, ptr %u, align 8, !tbaa !21
  invoke void @_ZN3fmt2v66formatIA54_cJRiEcEENSt7__cxx1112basic_stringIT1_St11char_traitsIS6_ESaIS6_EEERKT_DpOT0_(ptr dead_on_unwind writable sret(%"class.std::__cxx11::basic_string") align 8 %ref.tmp15, ptr noundef nonnull align 1 dereferenceable(54) @.str.1, ptr noundef nonnull align 4 dereferenceable(4) %4)
          to label %invoke.cont17 unwind label %lpad16

invoke.cont17:                                    ; preds = %if.then
  invoke void @_ZNSt13runtime_errorC1ERKNSt7__cxx1112basic_stringIcSt11char_traitsIcESaIcEEE(ptr noundef nonnull align 8 dereferenceable(16) %exception, ptr noundef nonnull align 8 dereferenceable(32) %ref.tmp15)
          to label %invoke.cont19 unwind label %lpad18

invoke.cont19:                                    ; preds = %invoke.cont17
  store i1 false, ptr %cleanup.isactive, align 1
  invoke void @__cxa_throw(ptr %exception, ptr @_ZTISt13runtime_error, ptr @_ZNSt13runtime_errorD1Ev) #25
          to label %unreachable unwind label %lpad18

lpad:                                             ; preds = %for.body
  %5 = landingpad { ptr, i32 }
          cleanup
  %6 = extractvalue { ptr, i32 } %5, 0
  store ptr %6, ptr %exn.slot, align 8
  %7 = extractvalue { ptr, i32 } %5, 1
  store i32 %7, ptr %ehselector.slot, align 4
  br label %ehcleanup22

lpad16:                                           ; preds = %if.then
  %8 = landingpad { ptr, i32 }
          cleanup
  %9 = extractvalue { ptr, i32 } %8, 0
  store ptr %9, ptr %exn.slot, align 8
  %10 = extractvalue { ptr, i32 } %8, 1
  store i32 %10, ptr %ehselector.slot, align 4
  br label %ehcleanup

lpad18:                                           ; preds = %invoke.cont19, %invoke.cont17
  %11 = landingpad { ptr, i32 }
          cleanup
  %12 = extractvalue { ptr, i32 } %11, 0
  store ptr %12, ptr %exn.slot, align 8
  %13 = extractvalue { ptr, i32 } %11, 1
  store i32 %13, ptr %ehselector.slot, align 4
  call void @_ZNSt7__cxx1112basic_stringIcSt11char_traitsIcESaIcEED2Ev(ptr noundef nonnull align 8 dereferenceable(32) %ref.tmp15) #3
  br label %ehcleanup

ehcleanup:                                        ; preds = %lpad18, %lpad16
  call void @llvm.lifetime.end.p0(i64 32, ptr %ref.tmp15) #3
  %cleanup.is_active = load i1, ptr %cleanup.isactive, align 1
  br i1 %cleanup.is_active, label %cleanup.action, label %cleanup.done

cleanup.action:                                   ; preds = %ehcleanup
  call void @__cxa_free_exception(ptr %exception) #3
  br label %cleanup.done

cleanup.done:                                     ; preds = %cleanup.action, %ehcleanup
  br label %ehcleanup22

if.end:                                           ; preds = %invoke.cont
  %call21 = call noundef ptr @_ZNKSt8__detail14_Node_iteratorISt4pairIKiiELb0ELb0EEptEv(ptr noundef nonnull align 8 dereferenceable(8) %search) #3
  %second = getelementptr inbounds nuw %"struct.std::pair", ptr %call21, i32 0, i32 1
  %14 = load i32, ptr %second, align 4, !tbaa !23
  %15 = load ptr, ptr %u, align 8, !tbaa !21
  store i32 %14, ptr %15, align 4, !tbaa !26
  call void @llvm.lifetime.end.p0(i64 8, ptr %search) #3
  call void @llvm.lifetime.end.p0(i64 8, ptr %u) #3
  br label %for.inc

for.inc:                                          ; preds = %if.end
  %call24 = call noundef nonnull align 8 dereferenceable(8) ptr @_ZN9__gnu_cxx17__normal_iteratorIPiSt6vectorIiSaIiEEEppEv(ptr noundef nonnull align 8 dereferenceable(8) %__begin1) #3
  br label %for.cond

ehcleanup22:                                      ; preds = %cleanup.done, %lpad
  call void @llvm.lifetime.end.p0(i64 8, ptr %search) #3
  call void @llvm.lifetime.end.p0(i64 8, ptr %u) #3
  call void @llvm.lifetime.end.p0(i64 8, ptr %__end1) #3
  call void @llvm.lifetime.end.p0(i64 8, ptr %__begin1) #3
  call void @llvm.lifetime.end.p0(i64 8, ptr %__range1) #3
  br label %ehcleanup31

for.end:                                          ; preds = %for.cond.cleanup
  call void @_ZN3gsl4spanIiEC2ISt6vectorIiSaIiEETnNSt9enable_ifIXsr6detail23is_compatible_containerIT_iEE5valueEiE4typeELi0EEERS7_(ptr noundef nonnull align 8 dereferenceable(16) %agg.tmp28, ptr noundef nonnull align 8 dereferenceable(24) %universes) #3
  %16 = getelementptr inbounds nuw { ptr, ptr }, ptr %agg.tmp28, i32 0, i32 0
  %17 = load ptr, ptr %16, align 8
  %18 = getelementptr inbounds nuw { ptr, ptr }, ptr %agg.tmp28, i32 0, i32 1
  %19 = load ptr, ptr %18, align 8
  invoke void @_ZN6openmc6Filter13set_universesEN3gsl4spanIiEE(ptr noundef nonnull align 8 dereferenceable(448) %this1, ptr %17, ptr %19)
          to label %invoke.cont30 unwind label %lpad29

invoke.cont30:                                    ; preds = %for.end
  call void @_ZNSt6vectorIiSaIiEED2Ev(ptr noundef nonnull align 8 dereferenceable(24) %universes) #3
  call void @llvm.lifetime.end.p0(i64 24, ptr %universes) #3
  ret void

lpad29:                                           ; preds = %for.end
  %20 = landingpad { ptr, i32 }
          cleanup
  %21 = extractvalue { ptr, i32 } %20, 0
  store ptr %21, ptr %exn.slot, align 8
  %22 = extractvalue { ptr, i32 } %20, 1
  store i32 %22, ptr %ehselector.slot, align 4
  br label %ehcleanup31

ehcleanup31:                                      ; preds = %lpad29, %ehcleanup22
  call void @_ZNSt6vectorIiSaIiEED2Ev(ptr noundef nonnull align 8 dereferenceable(24) %universes) #3
  call void @llvm.lifetime.end.p0(i64 24, ptr %universes) #3
  br label %eh.resume

eh.resume:                                        ; preds = %ehcleanup31
  %exn = load ptr, ptr %exn.slot, align 8
  %sel = load i32, ptr %ehselector.slot, align 4
  %lpad.val = insertvalue { ptr, i32 } poison, ptr %exn, 0
  %lpad.val33 = insertvalue { ptr, i32 } %lpad.val, i32 %sel, 1
  resume { ptr, i32 } %lpad.val33

unreachable:                                      ; preds = %invoke.cont19
  unreachable
}

; Function Attrs: nocallback nofree nosync nounwind willreturn memory(argmem: readwrite)
declare void @llvm.lifetime.start.p0(i64 immarg, ptr captures(none)) #5

; Function Attrs: mustprogress uwtable
define linkonce_odr void @_ZN6openmc14get_node_arrayIiEESt6vectorIT_SaIS2_EEN4pugi8xml_nodeEPKcb(ptr dead_on_unwind noalias writable sret(%"class.std::vector") align 8 %agg.result, ptr %node.coerce, ptr noundef %name, i1 noundef zeroext %lowercase) #4 comdat personality ptr @__gxx_personality_v0 {
entry:
  %result.ptr = alloca ptr, align 8
  %node = alloca %"class.pugi::xml_node", align 8
  %name.addr = alloca ptr, align 8
  %lowercase.addr = alloca i8, align 1
  %s = alloca %"class.std::__cxx11::basic_string", align 8
  %agg.tmp = alloca %"class.pugi::xml_node", align 8
  %iss = alloca %"class.std::__cxx11::basic_stringstream", align 8
  %exn.slot = alloca ptr, align 8
  %ehselector.slot = alloca i32, align 4
  %value = alloca i32, align 4
  %nrvo = alloca i1, align 1
  store ptr %agg.result, ptr %result.ptr, align 8
  %coerce.dive = getelementptr inbounds nuw %"class.pugi::xml_node", ptr %node, i32 0, i32 0
  store ptr %node.coerce, ptr %coerce.dive, align 8
  store ptr %name, ptr %name.addr, align 8, !tbaa !27
  %storedv = zext i1 %lowercase to i8
  store i8 %storedv, ptr %lowercase.addr, align 1, !tbaa !29
  call void @llvm.lifetime.start.p0(i64 32, ptr %s) #3
  call void @llvm.memcpy.p0.p0.i64(ptr align 8 %agg.tmp, ptr align 8 %node, i64 8, i1 false), !tbaa.struct !16
  %0 = load ptr, ptr %name.addr, align 8, !tbaa !27
  %1 = load i8, ptr %lowercase.addr, align 1, !tbaa !29, !range !31, !noundef !32
  %loadedv = trunc i8 %1 to i1
  %coerce.dive1 = getelementptr inbounds nuw %"class.pugi::xml_node", ptr %agg.tmp, i32 0, i32 0
  %2 = load ptr, ptr %coerce.dive1, align 8
  call void @_ZN6openmc14get_node_valueB5cxx11EN4pugi8xml_nodeEPKcbb(ptr dead_on_unwind writable sret(%"class.std::__cxx11::basic_string") align 8 %s, ptr %2, ptr noundef %0, i1 noundef zeroext %loadedv, i1 noundef zeroext false)
  call void @llvm.lifetime.start.p0(i64 392, ptr %iss) #3
  %call = invoke noundef i32 @_ZStorSt13_Ios_OpenmodeS_(i32 noundef 16, i32 noundef 8)
          to label %invoke.cont unwind label %lpad

invoke.cont:                                      ; preds = %entry
  invoke void @_ZNSt7__cxx1118basic_stringstreamIcSt11char_traitsIcESaIcEEC1ERKNS_12basic_stringIcS2_S3_EESt13_Ios_Openmode(ptr noundef nonnull align 8 dereferenceable(128) %iss, ptr noundef nonnull align 8 dereferenceable(32) %s, i32 noundef %call)
          to label %invoke.cont2 unwind label %lpad

invoke.cont2:                                     ; preds = %invoke.cont
  call void @llvm.lifetime.start.p0(i64 4, ptr %value) #3
  store i1 false, ptr %nrvo, align 1
  call void @_ZNSt6vectorIiSaIiEEC2Ev(ptr noundef nonnull align 8 dereferenceable(24) %agg.result) #3
  br label %while.cond

while.cond:                                       ; preds = %invoke.cont8, %invoke.cont2
  %call5 = invoke noundef nonnull align 8 dereferenceable(16) ptr @_ZNSirsERi(ptr noundef nonnull align 8 dereferenceable(16) %iss, ptr noundef nonnull align 4 dereferenceable(4) %value)
          to label %invoke.cont4 unwind label %lpad3

invoke.cont4:                                     ; preds = %while.cond
  %vtable = load ptr, ptr %call5, align 8, !tbaa !33
  %vbase.offset.ptr = getelementptr i8, ptr %vtable, i64 -24
  %vbase.offset = load i64, ptr %vbase.offset.ptr, align 8
  %add.ptr = getelementptr inbounds i8, ptr %call5, i64 %vbase.offset
  %call7 = invoke noundef zeroext i1 @_ZNKSt9basic_iosIcSt11char_traitsIcEEcvbEv(ptr noundef nonnull align 8 dereferenceable(264) %add.ptr)
          to label %invoke.cont6 unwind label %lpad3

invoke.cont6:                                     ; preds = %invoke.cont4
  br i1 %call7, label %while.body, label %while.end

while.body:                                       ; preds = %invoke.cont6
  invoke void @_ZNSt6vectorIiSaIiEE9push_backERKi(ptr noundef nonnull align 8 dereferenceable(24) %agg.result, ptr noundef nonnull align 4 dereferenceable(4) %value)
          to label %invoke.cont8 unwind label %lpad3

invoke.cont8:                                     ; preds = %while.body
  br label %while.cond, !llvm.loop !35

lpad:                                             ; preds = %invoke.cont, %entry
  %3 = landingpad { ptr, i32 }
          cleanup
  %4 = extractvalue { ptr, i32 } %3, 0
  store ptr %4, ptr %exn.slot, align 8
  %5 = extractvalue { ptr, i32 } %3, 1
  store i32 %5, ptr %ehselector.slot, align 4
  br label %ehcleanup

lpad3:                                            ; preds = %while.body, %invoke.cont4, %while.cond
  %6 = landingpad { ptr, i32 }
          cleanup
  %7 = extractvalue { ptr, i32 } %6, 0
  store ptr %7, ptr %exn.slot, align 8
  %8 = extractvalue { ptr, i32 } %6, 1
  store i32 %8, ptr %ehselector.slot, align 4
  call void @_ZNSt6vectorIiSaIiEED2Ev(ptr noundef nonnull align 8 dereferenceable(24) %agg.result) #3
  call void @llvm.lifetime.end.p0(i64 4, ptr %value) #3
  call void @_ZNSt7__cxx1118basic_stringstreamIcSt11char_traitsIcESaIcEED1Ev(ptr noundef nonnull align 8 dereferenceable(128) %iss) #3
  br label %ehcleanup

while.end:                                        ; preds = %invoke.cont6
  store i1 true, ptr %nrvo, align 1
  %nrvo.val = load i1, ptr %nrvo, align 1
  br i1 %nrvo.val, label %nrvo.skipdtor, label %nrvo.unused

nrvo.unused:                                      ; preds = %while.end
  call void @_ZNSt6vectorIiSaIiEED2Ev(ptr noundef nonnull align 8 dereferenceable(24) %agg.result) #3
  br label %nrvo.skipdtor

nrvo.skipdtor:                                    ; preds = %nrvo.unused, %while.end
  call void @llvm.lifetime.end.p0(i64 4, ptr %value) #3
  call void @_ZNSt7__cxx1118basic_stringstreamIcSt11char_traitsIcESaIcEED1Ev(ptr noundef nonnull align 8 dereferenceable(128) %iss) #3
  call void @llvm.lifetime.end.p0(i64 392, ptr %iss) #3
  call void @_ZNSt7__cxx1112basic_stringIcSt11char_traitsIcESaIcEED2Ev(ptr noundef nonnull align 8 dereferenceable(32) %s) #3
  call void @llvm.lifetime.end.p0(i64 32, ptr %s) #3
  ret void

ehcleanup:                                        ; preds = %lpad3, %lpad
  call void @llvm.lifetime.end.p0(i64 392, ptr %iss) #3
  call void @_ZNSt7__cxx1112basic_stringIcSt11char_traitsIcESaIcEED2Ev(ptr noundef nonnull align 8 dereferenceable(32) %s) #3
  call void @llvm.lifetime.end.p0(i64 32, ptr %s) #3
  br label %eh.resume

eh.resume:                                        ; preds = %ehcleanup
  %exn = load ptr, ptr %exn.slot, align 8
  %sel = load i32, ptr %ehselector.slot, align 4
  %lpad.val = insertvalue { ptr, i32 } poison, ptr %exn, 0
  %lpad.val11 = insertvalue { ptr, i32 } %lpad.val, i32 %sel, 1
  resume { ptr, i32 } %lpad.val11
}

; Function Attrs: nocallback nofree nounwind willreturn memory(argmem: readwrite)
declare void @llvm.memcpy.p0.p0.i64(ptr noalias writeonly captures(none), ptr noalias readonly captures(none), i64, i1 immarg) #6

; Function Attrs: mustprogress nounwind uwtable
define linkonce_odr ptr @_ZNSt6vectorIiSaIiEE5beginEv(ptr noundef nonnull align 8 dereferenceable(24) %this) #7 comdat align 2 {
entry:
  %retval = alloca %"class.__gnu_cxx::__normal_iterator", align 8
  %this.addr = alloca ptr, align 8
  store ptr %this, ptr %this.addr, align 8, !tbaa !19
  %this1 = load ptr, ptr %this.addr, align 8
  %_M_impl = getelementptr inbounds nuw %"struct.std::_Vector_base", ptr %this1, i32 0, i32 0
  %_M_start = getelementptr inbounds nuw %"struct.std::_Vector_base<int, std::allocator<int>>::_Vector_impl_data", ptr %_M_impl, i32 0, i32 0
  call void @_ZN9__gnu_cxx17__normal_iteratorIPiSt6vectorIiSaIiEEEC2ERKS1_(ptr noundef nonnull align 8 dereferenceable(8) %retval, ptr noundef nonnull align 8 dereferenceable(8) %_M_start) #3
  %coerce.dive = getelementptr inbounds nuw %"class.__gnu_cxx::__normal_iterator", ptr %retval, i32 0, i32 0
  %0 = load ptr, ptr %coerce.dive, align 8
  ret ptr %0
}

; Function Attrs: mustprogress nounwind uwtable
define linkonce_odr ptr @_ZNSt6vectorIiSaIiEE3endEv(ptr noundef nonnull align 8 dereferenceable(24) %this) #7 comdat align 2 {
entry:
  %retval = alloca %"class.__gnu_cxx::__normal_iterator", align 8
  %this.addr = alloca ptr, align 8
  store ptr %this, ptr %this.addr, align 8, !tbaa !19
  %this1 = load ptr, ptr %this.addr, align 8
  %_M_impl = getelementptr inbounds nuw %"struct.std::_Vector_base", ptr %this1, i32 0, i32 0
  %_M_finish = getelementptr inbounds nuw %"struct.std::_Vector_base<int, std::allocator<int>>::_Vector_impl_data", ptr %_M_impl, i32 0, i32 1
  call void @_ZN9__gnu_cxx17__normal_iteratorIPiSt6vectorIiSaIiEEEC2ERKS1_(ptr noundef nonnull align 8 dereferenceable(8) %retval, ptr noundef nonnull align 8 dereferenceable(8) %_M_finish) #3
  %coerce.dive = getelementptr inbounds nuw %"class.__gnu_cxx::__normal_iterator", ptr %retval, i32 0, i32 0
  %0 = load ptr, ptr %coerce.dive, align 8
  ret ptr %0
}

; Function Attrs: inlinehint mustprogress nounwind uwtable
define linkonce_odr noundef zeroext i1 @_ZN9__gnu_cxxneIPiSt6vectorIiSaIiEEEEbRKNS_17__normal_iteratorIT_T0_EESA_(ptr noundef nonnull align 8 dereferenceable(8) %__lhs, ptr noundef nonnull align 8 dereferenceable(8) %__rhs) #8 comdat {
entry:
  %__lhs.addr = alloca ptr, align 8
  %__rhs.addr = alloca ptr, align 8
  store ptr %__lhs, ptr %__lhs.addr, align 8, !tbaa !37
  store ptr %__rhs, ptr %__rhs.addr, align 8, !tbaa !37
  %0 = load ptr, ptr %__lhs.addr, align 8, !tbaa !37
  %call = call noundef nonnull align 8 dereferenceable(8) ptr @_ZNK9__gnu_cxx17__normal_iteratorIPiSt6vectorIiSaIiEEE4baseEv(ptr noundef nonnull align 8 dereferenceable(8) %0) #3
  %1 = load ptr, ptr %call, align 8, !tbaa !21
  %2 = load ptr, ptr %__rhs.addr, align 8, !tbaa !37
  %call1 = call noundef nonnull align 8 dereferenceable(8) ptr @_ZNK9__gnu_cxx17__normal_iteratorIPiSt6vectorIiSaIiEEE4baseEv(ptr noundef nonnull align 8 dereferenceable(8) %2) #3
  %3 = load ptr, ptr %call1, align 8, !tbaa !21
  %cmp = icmp ne ptr %1, %3
  ret i1 %cmp
}

; Function Attrs: mustprogress nounwind uwtable
define linkonce_odr noundef nonnull align 4 dereferenceable(4) ptr @_ZNK9__gnu_cxx17__normal_iteratorIPiSt6vectorIiSaIiEEEdeEv(ptr noundef nonnull align 8 dereferenceable(8) %this) #7 comdat align 2 {
entry:
  %this.addr = alloca ptr, align 8
  store ptr %this, ptr %this.addr, align 8, !tbaa !37
  %this1 = load ptr, ptr %this.addr, align 8
  %_M_current = getelementptr inbounds nuw %"class.__gnu_cxx::__normal_iterator", ptr %this1, i32 0, i32 0
  %0 = load ptr, ptr %_M_current, align 8, !tbaa !39
  ret ptr %0
}

; Function Attrs: mustprogress uwtable
define linkonce_odr ptr @_ZNSt13unordered_mapIiiSt4hashIiESt8equal_toIiESaISt4pairIKiiEEE4findERS5_(ptr noundef nonnull align 8 dereferenceable(56) %this, ptr noundef nonnull align 4 dereferenceable(4) %__x) #4 comdat align 2 {
entry:
  %retval = alloca %"struct.std::__detail::_Node_iterator", align 8
  %this.addr = alloca ptr, align 8
  %__x.addr = alloca ptr, align 8
  store ptr %this, ptr %this.addr, align 8, !tbaa !41
  store ptr %__x, ptr %__x.addr, align 8, !tbaa !21
  %this1 = load ptr, ptr %this.addr, align 8
  %_M_h = getelementptr inbounds nuw %"class.std::unordered_map", ptr %this1, i32 0, i32 0
  %0 = load ptr, ptr %__x.addr, align 8, !tbaa !21
  %call = call ptr @_ZNSt10_HashtableIiSt4pairIKiiESaIS2_ENSt8__detail10_Select1stESt8equal_toIiESt4hashIiENS4_18_Mod_range_hashingENS4_20_Default_ranged_hashENS4_20_Prime_rehash_policyENS4_17_Hashtable_traitsILb0ELb0ELb1EEEE4findERS1_(ptr noundef nonnull align 8 dereferenceable(56) %_M_h, ptr noundef nonnull align 4 dereferenceable(4) %0)
  %coerce.dive = getelementptr inbounds nuw %"struct.std::__detail::_Node_iterator", ptr %retval, i32 0, i32 0
  %coerce.dive2 = getelementptr inbounds nuw %"struct.std::__detail::_Node_iterator_base", ptr %coerce.dive, i32 0, i32 0
  store ptr %call, ptr %coerce.dive2, align 8
  %coerce.dive3 = getelementptr inbounds nuw %"struct.std::__detail::_Node_iterator", ptr %retval, i32 0, i32 0
  %coerce.dive4 = getelementptr inbounds nuw %"struct.std::__detail::_Node_iterator_base", ptr %coerce.dive3, i32 0, i32 0
  %1 = load ptr, ptr %coerce.dive4, align 8
  ret ptr %1
}

declare i32 @__gxx_personality_v0(...)

; Function Attrs: mustprogress nounwind uwtable
define linkonce_odr noundef zeroext i1 @_ZNSt8__detaileqERKNS_19_Node_iterator_baseISt4pairIKiiELb0EEES6_(ptr noundef nonnull align 8 dereferenceable(8) %__x, ptr noundef nonnull align 8 dereferenceable(8) %__y) #7 comdat {
entry:
  %__x.addr = alloca ptr, align 8
  %__y.addr = alloca ptr, align 8
  store ptr %__x, ptr %__x.addr, align 8, !tbaa !43
  store ptr %__y, ptr %__y.addr, align 8, !tbaa !43
  %0 = load ptr, ptr %__x.addr, align 8, !tbaa !43
  %_M_cur = getelementptr inbounds nuw %"struct.std::__detail::_Node_iterator_base", ptr %0, i32 0, i32 0
  %1 = load ptr, ptr %_M_cur, align 8, !tbaa !45
  %2 = load ptr, ptr %__y.addr, align 8, !tbaa !43
  %_M_cur1 = getelementptr inbounds nuw %"struct.std::__detail::_Node_iterator_base", ptr %2, i32 0, i32 0
  %3 = load ptr, ptr %_M_cur1, align 8, !tbaa !45
  %cmp = icmp eq ptr %1, %3
  ret i1 %cmp
}

; Function Attrs: mustprogress nounwind uwtable
define linkonce_odr ptr @_ZNSt13unordered_mapIiiSt4hashIiESt8equal_toIiESaISt4pairIKiiEEE3endEv(ptr noundef nonnull align 8 dereferenceable(56) %this) #7 comdat align 2 {
entry:
  %retval = alloca %"struct.std::__detail::_Node_iterator", align 8
  %this.addr = alloca ptr, align 8
  store ptr %this, ptr %this.addr, align 8, !tbaa !41
  %this1 = load ptr, ptr %this.addr, align 8
  %_M_h = getelementptr inbounds nuw %"class.std::unordered_map", ptr %this1, i32 0, i32 0
  %call = call ptr @_ZNSt10_HashtableIiSt4pairIKiiESaIS2_ENSt8__detail10_Select1stESt8equal_toIiESt4hashIiENS4_18_Mod_range_hashingENS4_20_Default_ranged_hashENS4_20_Prime_rehash_policyENS4_17_Hashtable_traitsILb0ELb0ELb1EEEE3endEv(ptr noundef nonnull align 8 dereferenceable(56) %_M_h) #3
  %coerce.dive = getelementptr inbounds nuw %"struct.std::__detail::_Node_iterator", ptr %retval, i32 0, i32 0
  %coerce.dive2 = getelementptr inbounds nuw %"struct.std::__detail::_Node_iterator_base", ptr %coerce.dive, i32 0, i32 0
  store ptr %call, ptr %coerce.dive2, align 8
  %coerce.dive3 = getelementptr inbounds nuw %"struct.std::__detail::_Node_iterator", ptr %retval, i32 0, i32 0
  %coerce.dive4 = getelementptr inbounds nuw %"struct.std::__detail::_Node_iterator_base", ptr %coerce.dive3, i32 0, i32 0
  %0 = load ptr, ptr %coerce.dive4, align 8
  ret ptr %0
}

; Function Attrs: nocallback nofree nosync nounwind willreturn memory(argmem: readwrite)
declare void @llvm.lifetime.end.p0(i64 immarg, ptr captures(none)) #5

declare ptr @__cxa_allocate_exception(i64)

; Function Attrs: inlinehint mustprogress uwtable
define linkonce_odr void @_ZN3fmt2v66formatIA54_cJRiEcEENSt7__cxx1112basic_stringIT1_St11char_traitsIS6_ESaIS6_EEERKT_DpOT0_(ptr dead_on_unwind noalias writable sret(%"class.std::__cxx11::basic_string") align 8 %agg.result, ptr noundef nonnull align 1 dereferenceable(54) %format_str, ptr noundef nonnull align 4 dereferenceable(4) %args) #9 comdat {
entry:
  %result.ptr = alloca ptr, align 8
  %format_str.addr = alloca ptr, align 8
  %args.addr = alloca ptr, align 8
  %agg.tmp = alloca %"class.fmt::v6::basic_string_view", align 8
  %agg.tmp1 = alloca %"class.fmt::v6::basic_format_args", align 8
  %ref.tmp = alloca %"class.fmt::v6::format_arg_store", align 16
  store ptr %agg.result, ptr %result.ptr, align 8
  store ptr %format_str, ptr %format_str.addr, align 8, !tbaa !27
  store ptr %args, ptr %args.addr, align 8, !tbaa !21
  %0 = load ptr, ptr %format_str.addr, align 8, !tbaa !27
  %arraydecay = getelementptr inbounds [54 x i8], ptr %0, i64 0, i64 0
  %call = call { ptr, i64 } @_ZN3fmt2v614to_string_viewIcTnNSt9enable_ifIXsr7is_charIT_EE5valueEiE4typeELi0EEENS0_17basic_string_viewIS3_EEPKS3_(ptr noundef %arraydecay)
  %1 = getelementptr inbounds nuw { ptr, i64 }, ptr %agg.tmp, i32 0, i32 0
  %2 = extractvalue { ptr, i64 } %call, 0
  store ptr %2, ptr %1, align 8
  %3 = getelementptr inbounds nuw { ptr, i64 }, ptr %agg.tmp, i32 0, i32 1
  %4 = extractvalue { ptr, i64 } %call, 1
  store i64 %4, ptr %3, align 8
  call void @llvm.lifetime.start.p0(i64 16, ptr %ref.tmp) #3
  %5 = load ptr, ptr %format_str.addr, align 8, !tbaa !27
  %6 = load ptr, ptr %args.addr, align 8, !tbaa !21
  %call2 = call { i64, i64 } @_ZN3fmt2v68internal17make_args_checkedIJRiEA54_ccEENS0_16format_arg_storeINS0_20basic_format_contextISt20back_insert_iteratorINS1_6bufferIT1_EEES9_EEJDpNSt16remove_referenceIT_E4typeEEEERKT0_DpRKSG_(ptr noundef nonnull align 1 dereferenceable(54) %5, ptr noundef nonnull align 4 dereferenceable(4) %6)
  %coerce.dive = getelementptr inbounds nuw %"class.fmt::v6::format_arg_store", ptr %ref.tmp, i32 0, i32 0
  %7 = getelementptr inbounds nuw { i64, i64 }, ptr %coerce.dive, i32 0, i32 0
  %8 = extractvalue { i64, i64 } %call2, 0
  store i64 %8, ptr %7, align 16
  %9 = getelementptr inbounds nuw { i64, i64 }, ptr %coerce.dive, i32 0, i32 1
  %10 = extractvalue { i64, i64 } %call2, 1
  store i64 %10, ptr %9, align 8
  call void @_ZN3fmt2v617basic_format_argsINS0_20basic_format_contextISt20back_insert_iteratorINS0_8internal6bufferIcEEEcEEEC2IJiEEERKNS0_16format_arg_storeIS8_JDpT_EEE(ptr noundef nonnull align 8 dereferenceable(16) %agg.tmp1, ptr noundef nonnull align 16 dereferenceable(16) %ref.tmp)
  %11 = getelementptr inbounds nuw { ptr, i64 }, ptr %agg.tmp, i32 0, i32 0
  %12 = load ptr, ptr %11, align 8
  %13 = getelementptr inbounds nuw { ptr, i64 }, ptr %agg.tmp, i32 0, i32 1
  %14 = load i64, ptr %13, align 8
  %15 = getelementptr inbounds nuw { i64, ptr }, ptr %agg.tmp1, i32 0, i32 0
  %16 = load i64, ptr %15, align 8
  %17 = getelementptr inbounds nuw { i64, ptr }, ptr %agg.tmp1, i32 0, i32 1
  %18 = load ptr, ptr %17, align 8
  call void @_ZN3fmt2v68internal7vformatIcEENSt7__cxx1112basic_stringIT_St11char_traitsIS5_ESaIS5_EEENS0_17basic_string_viewIS5_EENS0_17basic_format_argsINS0_20basic_format_contextISt20back_insert_iteratorINS1_6bufferIS5_EEES5_EEEE(ptr dead_on_unwind writable sret(%"class.std::__cxx11::basic_string") align 8 %agg.result, ptr %12, i64 %14, i64 %16, ptr %18)
  call void @llvm.lifetime.end.p0(i64 16, ptr %ref.tmp) #3
  ret void
}

declare void @_ZNSt13runtime_errorC1ERKNSt7__cxx1112basic_stringIcSt11char_traitsIcESaIcEEE(ptr noundef nonnull align 8 dereferenceable(16), ptr noundef nonnull align 8 dereferenceable(32)) unnamed_addr #1

; Function Attrs: nounwind
declare void @_ZNSt13runtime_errorD1Ev(ptr noundef nonnull align 8 dereferenceable(16)) unnamed_addr #2

declare void @__cxa_throw(ptr, ptr, ptr)

; Function Attrs: mustprogress nounwind uwtable
define available_externally void @_ZNSt7__cxx1112basic_stringIcSt11char_traitsIcESaIcEED2Ev(ptr noundef nonnull align 8 dereferenceable(32) %this) unnamed_addr #7 align 2 personality ptr @__gxx_personality_v0 {
entry:
  %this.addr = alloca ptr, align 8
  store ptr %this, ptr %this.addr, align 8, !tbaa !48
  %this1 = load ptr, ptr %this.addr, align 8
  invoke void @_ZNSt7__cxx1112basic_stringIcSt11char_traitsIcESaIcEE10_M_disposeEv(ptr noundef nonnull align 8 dereferenceable(32) %this1)
          to label %invoke.cont unwind label %terminate.lpad

invoke.cont:                                      ; preds = %entry
  %_M_dataplus = getelementptr inbounds nuw %"class.std::__cxx11::basic_string", ptr %this1, i32 0, i32 0
  call void @_ZNSt15__new_allocatorIcED2Ev(ptr noundef nonnull align 8 dereferenceable(8) %_M_dataplus) #3
  ret void

terminate.lpad:                                   ; preds = %entry
  %0 = landingpad { ptr, i32 }
          catch ptr null
  %1 = extractvalue { ptr, i32 } %0, 0
  call void @__clang_call_terminate(ptr %1) #26
  unreachable
}

declare void @__cxa_free_exception(ptr)

; Function Attrs: mustprogress nounwind uwtable
define linkonce_odr noundef ptr @_ZNKSt8__detail14_Node_iteratorISt4pairIKiiELb0ELb0EEptEv(ptr noundef nonnull align 8 dereferenceable(8) %this) #7 comdat align 2 {
entry:
  %this.addr = alloca ptr, align 8
  store ptr %this, ptr %this.addr, align 8, !tbaa !50
  %this1 = load ptr, ptr %this.addr, align 8
  %_M_cur = getelementptr inbounds nuw %"struct.std::__detail::_Node_iterator_base", ptr %this1, i32 0, i32 0
  %0 = load ptr, ptr %_M_cur, align 8, !tbaa !45
  %add.ptr = getelementptr inbounds i8, ptr %0, i64 8
  %call = call noundef ptr @_ZNSt8__detail21_Hash_node_value_baseISt4pairIKiiEE9_M_valptrEv(ptr noundef nonnull align 4 dereferenceable(8) %add.ptr) #3
  ret ptr %call
}

; Function Attrs: mustprogress nounwind uwtable
define linkonce_odr noundef nonnull align 8 dereferenceable(8) ptr @_ZN9__gnu_cxx17__normal_iteratorIPiSt6vectorIiSaIiEEEppEv(ptr noundef nonnull align 8 dereferenceable(8) %this) #7 comdat align 2 {
entry:
  %this.addr = alloca ptr, align 8
  store ptr %this, ptr %this.addr, align 8, !tbaa !37
  %this1 = load ptr, ptr %this.addr, align 8
  %_M_current = getelementptr inbounds nuw %"class.__gnu_cxx::__normal_iterator", ptr %this1, i32 0, i32 0
  %0 = load ptr, ptr %_M_current, align 8, !tbaa !39
  %incdec.ptr = getelementptr inbounds nuw i32, ptr %0, i32 1
  store ptr %incdec.ptr, ptr %_M_current, align 8, !tbaa !39
  ret ptr %this1
}

; Function Attrs: mustprogress uwtable
define void @_ZN6openmc6Filter13set_universesEN3gsl4spanIiEE(ptr noundef nonnull align 8 dereferenceable(448) %this, ptr %universes.coerce0, ptr %universes.coerce1) #4 align 2 {
entry:
  %universes = alloca %"class.gsl::span", align 8
  %this.addr = alloca ptr, align 8
  %__range1 = alloca ptr, align 8
  %__begin1 = alloca ptr, align 8
  %__end1 = alloca ptr, align 8
  %index = alloca ptr, align 8
  %agg.tmp = alloca %"struct.std::pair.85", align 4
  %ref.tmp = alloca i64, align 8
  %0 = getelementptr inbounds nuw { ptr, ptr }, ptr %universes, i32 0, i32 0
  store ptr %universes.coerce0, ptr %0, align 8
  %1 = getelementptr inbounds nuw { ptr, ptr }, ptr %universes, i32 0, i32 1
  store ptr %universes.coerce1, ptr %1, align 8
  store ptr %this, ptr %this.addr, align 8, !tbaa !11
  %this1 = load ptr, ptr %this.addr, align 8
  %universes_ = getelementptr inbounds nuw %"class.openmc::Filter", ptr %this1, i32 0, i32 26
  call void @_ZN6openmc6vectorIiE5clearEv(ptr noundef nonnull align 8 dereferenceable(24) %universes_)
  %universes_2 = getelementptr inbounds nuw %"class.openmc::Filter", ptr %this1, i32 0, i32 26
  %call = call noundef i64 @_ZNK3gsl4spanIiE4sizeEv(ptr noundef nonnull align 8 dereferenceable(16) %universes) #3
  call void @_ZN6openmc6vectorIiE7reserveEm(ptr noundef nonnull align 8 dereferenceable(24) %universes_2, i64 noundef %call)
  %map_ = getelementptr inbounds nuw %"class.openmc::Filter", ptr %this1, i32 0, i32 6
  call void @_ZN6openmc10static_mapIiiNS_12integer_hashIiEEE5clearEv(ptr noundef nonnull align 8 dereferenceable(50) %map_)
  call void @llvm.lifetime.start.p0(i64 8, ptr %__range1) #3
  store ptr %universes, ptr %__range1, align 8, !tbaa !52
  call void @llvm.lifetime.start.p0(i64 8, ptr %__begin1) #3
  %2 = load ptr, ptr %__range1, align 8, !tbaa !52
  %call3 = call noundef ptr @_ZNK3gsl4spanIiE5beginEv(ptr noundef nonnull align 8 dereferenceable(16) %2) #3
  store ptr %call3, ptr %__begin1, align 8, !tbaa !21
  call void @llvm.lifetime.start.p0(i64 8, ptr %__end1) #3
  %3 = load ptr, ptr %__range1, align 8, !tbaa !52
  %call4 = call noundef ptr @_ZNK3gsl4spanIiE3endEv(ptr noundef nonnull align 8 dereferenceable(16) %3) #3
  store ptr %call4, ptr %__end1, align 8, !tbaa !21
  br label %for.cond

for.cond:                                         ; preds = %for.inc, %entry
  %4 = load ptr, ptr %__begin1, align 8, !tbaa !21
  %5 = load ptr, ptr %__end1, align 8, !tbaa !21
  %cmp = icmp ne ptr %4, %5
  br i1 %cmp, label %for.body, label %for.cond.cleanup

for.cond.cleanup:                                 ; preds = %for.cond
  call void @llvm.lifetime.end.p0(i64 8, ptr %__end1) #3
  call void @llvm.lifetime.end.p0(i64 8, ptr %__begin1) #3
  call void @llvm.lifetime.end.p0(i64 8, ptr %__range1) #3
  br label %for.end

for.body:                                         ; preds = %for.cond
  call void @llvm.lifetime.start.p0(i64 8, ptr %index) #3
  %6 = load ptr, ptr %__begin1, align 8, !tbaa !21
  store ptr %6, ptr %index, align 8, !tbaa !21
  %universes_5 = getelementptr inbounds nuw %"class.openmc::Filter", ptr %this1, i32 0, i32 26
  %7 = load ptr, ptr %index, align 8, !tbaa !21
  call void @_ZN6openmc6vectorIiE9push_backERKi(ptr noundef nonnull align 8 dereferenceable(24) %universes_5, ptr noundef nonnull align 4 dereferenceable(4) %7)
  %map_6 = getelementptr inbounds nuw %"class.openmc::Filter", ptr %this1, i32 0, i32 6
  %8 = load ptr, ptr %index, align 8, !tbaa !21
  call void @llvm.lifetime.start.p0(i64 8, ptr %ref.tmp) #3
  %universes_7 = getelementptr inbounds nuw %"class.openmc::Filter", ptr %this1, i32 0, i32 26
  %call8 = call noundef i64 @_ZNK6openmc6vectorIiE4sizeEv(ptr noundef nonnull align 8 dereferenceable(24) %universes_7)
  %sub = sub i64 %call8, 1
  store i64 %sub, ptr %ref.tmp, align 8, !tbaa !54
  call void @_ZNSt4pairIiiEC2IRimTnNSt9enable_ifIXaaclsr5_PCCPE22_MoveConstructiblePairIT_T0_EEclsr5_PCCPE30_ImplicitlyMoveConvertiblePairIS4_S5_EEEbE4typeELb1EEEOS4_OS5_(ptr noundef nonnull align 4 dereferenceable(8) %agg.tmp, ptr noundef nonnull align 4 dereferenceable(4) %8, ptr noundef nonnull align 8 dereferenceable(8) %ref.tmp)
  %9 = load i64, ptr %agg.tmp, align 4
  call void @_ZN6openmc10static_mapIiiNS_12integer_hashIiEEE6insertESt4pairIiiE(ptr noundef nonnull align 8 dereferenceable(50) %map_6, i64 %9)
  call void @llvm.lifetime.end.p0(i64 8, ptr %ref.tmp) #3
  call void @llvm.lifetime.end.p0(i64 8, ptr %index) #3
  br label %for.inc

for.inc:                                          ; preds = %for.body
  %10 = load ptr, ptr %__begin1, align 8, !tbaa !21
  %incdec.ptr = getelementptr inbounds nuw i32, ptr %10, i32 1
  store ptr %incdec.ptr, ptr %__begin1, align 8, !tbaa !21
  br label %for.cond

for.end:                                          ; preds = %for.cond.cleanup
  %map_9 = getelementptr inbounds nuw %"class.openmc::Filter", ptr %this1, i32 0, i32 6
  call void @_ZN6openmc10static_mapIiiNS_12integer_hashIiEEE8finalizeEv(ptr noundef nonnull align 8 dereferenceable(50) %map_9)
  %universes_10 = getelementptr inbounds nuw %"class.openmc::Filter", ptr %this1, i32 0, i32 26
  %call11 = call noundef i64 @_ZNK6openmc6vectorIiE4sizeEv(ptr noundef nonnull align 8 dereferenceable(24) %universes_10)
  %conv = trunc i64 %call11 to i32
  %n_bins_ = getelementptr inbounds nuw %"class.openmc::Filter", ptr %this1, i32 0, i32 1
  store i32 %conv, ptr %n_bins_, align 4, !tbaa !56
  ret void
}

; Function Attrs: mustprogress nounwind uwtable
define linkonce_odr void @_ZN3gsl4spanIiEC2ISt6vectorIiSaIiEETnNSt9enable_ifIXsr6detail23is_compatible_containerIT_iEE5valueEiE4typeELi0EEERS7_(ptr noundef nonnull align 8 dereferenceable(16) %this, ptr noundef nonnull align 8 dereferenceable(24) %cont) unnamed_addr #7 comdat align 2 {
entry:
  %this.addr = alloca ptr, align 8
  %cont.addr = alloca ptr, align 8
  store ptr %this, ptr %this.addr, align 8, !tbaa !52
  store ptr %cont, ptr %cont.addr, align 8, !tbaa !19
  %this1 = load ptr, ptr %this.addr, align 8
  %first_ = getelementptr inbounds nuw %"class.gsl::span", ptr %this1, i32 0, i32 0
  %0 = load ptr, ptr %cont.addr, align 8, !tbaa !19
  %call = call noundef ptr @_ZSt4dataISt6vectorIiSaIiEEEDTcldtfp_4dataEERT_(ptr noundef nonnull align 8 dereferenceable(24) %0) #3
  store ptr %call, ptr %first_, align 8, !tbaa !78
  %last_ = getelementptr inbounds nuw %"class.gsl::span", ptr %this1, i32 0, i32 1
  %1 = load ptr, ptr %cont.addr, align 8, !tbaa !19
  %call2 = call noundef ptr @_ZSt4dataISt6vectorIiSaIiEEEDTcldtfp_4dataEERT_(ptr noundef nonnull align 8 dereferenceable(24) %1) #3
  %2 = load ptr, ptr %cont.addr, align 8, !tbaa !19
  %call3 = call noundef i64 @_ZSt4sizeISt6vectorIiSaIiEEEDTcldtfp_4sizeEERKT_(ptr noundef nonnull align 8 dereferenceable(24) %2) #3
  %add.ptr = getelementptr inbounds nuw i32, ptr %call2, i64 %call3
  store ptr %add.ptr, ptr %last_, align 8, !tbaa !80
  ret void
}

; Function Attrs: mustprogress nounwind uwtable
define linkonce_odr void @_ZNSt6vectorIiSaIiEED2Ev(ptr noundef nonnull align 8 dereferenceable(24) %this) unnamed_addr #7 comdat align 2 personality ptr @__gxx_personality_v0 {
entry:
  %this.addr = alloca ptr, align 8
  store ptr %this, ptr %this.addr, align 8, !tbaa !19
  %this1 = load ptr, ptr %this.addr, align 8
  %_M_impl = getelementptr inbounds nuw %"struct.std::_Vector_base", ptr %this1, i32 0, i32 0
  %_M_start = getelementptr inbounds nuw %"struct.std::_Vector_base<int, std::allocator<int>>::_Vector_impl_data", ptr %_M_impl, i32 0, i32 0
  %0 = load ptr, ptr %_M_start, align 8, !tbaa !81
  %_M_impl2 = getelementptr inbounds nuw %"struct.std::_Vector_base", ptr %this1, i32 0, i32 0
  %_M_finish = getelementptr inbounds nuw %"struct.std::_Vector_base<int, std::allocator<int>>::_Vector_impl_data", ptr %_M_impl2, i32 0, i32 1
  %1 = load ptr, ptr %_M_finish, align 8, !tbaa !83
  %call = call noundef nonnull align 1 dereferenceable(1) ptr @_ZNSt12_Vector_baseIiSaIiEE19_M_get_Tp_allocatorEv(ptr noundef nonnull align 8 dereferenceable(24) %this1) #3
  invoke void @_ZSt8_DestroyIPiiEvT_S1_RSaIT0_E(ptr noundef %0, ptr noundef %1, ptr noundef nonnull align 1 dereferenceable(1) %call)
          to label %invoke.cont unwind label %terminate.lpad

invoke.cont:                                      ; preds = %entry
  call void @_ZNSt12_Vector_baseIiSaIiEED2Ev(ptr noundef nonnull align 8 dereferenceable(24) %this1) #3
  ret void

terminate.lpad:                                   ; preds = %entry
  %2 = landingpad { ptr, i32 }
          catch ptr null
  %3 = extractvalue { ptr, i32 } %2, 0
  call void @__clang_call_terminate(ptr %3) #26
  unreachable
}

declare void @_ZN6openmc14get_node_valueB5cxx11EN4pugi8xml_nodeEPKcbb(ptr dead_on_unwind writable sret(%"class.std::__cxx11::basic_string") align 8, ptr, ptr noundef, i1 noundef zeroext, i1 noundef zeroext) #1

; Function Attrs: inlinehint mustprogress nounwind uwtable
define linkonce_odr noundef i32 @_ZStorSt13_Ios_OpenmodeS_(i32 noundef %__a, i32 noundef %__b) #8 comdat {
entry:
  %__a.addr = alloca i32, align 4
  %__b.addr = alloca i32, align 4
  store i32 %__a, ptr %__a.addr, align 4, !tbaa !84
  store i32 %__b, ptr %__b.addr, align 4, !tbaa !84
  %0 = load i32, ptr %__a.addr, align 4, !tbaa !84
  %1 = load i32, ptr %__b.addr, align 4, !tbaa !84
  %or = or i32 %0, %1
  ret i32 %or
}

; Function Attrs: mustprogress uwtable
define available_externally void @_ZNSt7__cxx1118basic_stringstreamIcSt11char_traitsIcESaIcEEC1ERKNS_12basic_stringIcS2_S3_EESt13_Ios_Openmode(ptr noundef nonnull align 8 dereferenceable(128) %this, ptr noundef nonnull align 8 dereferenceable(32) %__str, i32 noundef %__m) unnamed_addr #4 align 2 personality ptr @__gxx_personality_v0 {
entry:
  %this.addr = alloca ptr, align 8
  %__str.addr = alloca ptr, align 8
  %__m.addr = alloca i32, align 4
  %exn.slot = alloca ptr, align 8
  %ehselector.slot = alloca i32, align 4
  store ptr %this, ptr %this.addr, align 8, !tbaa !86
  store ptr %__str, ptr %__str.addr, align 8, !tbaa !48
  store i32 %__m, ptr %__m.addr, align 4, !tbaa !84
  %this1 = load ptr, ptr %this.addr, align 8
  %0 = getelementptr inbounds i8, ptr %this1, i64 128
  call void @_ZNSt9basic_iosIcSt11char_traitsIcEEC2Ev(ptr noundef nonnull align 8 dereferenceable(264) %0)
  invoke void @_ZNSdC2Ev(ptr noundef nonnull align 8 dereferenceable(24) %this1, ptr noundef getelementptr inbounds ([10 x ptr], ptr @_ZTTNSt7__cxx1118basic_stringstreamIcSt11char_traitsIcESaIcEEE, i64 0, i64 1))
          to label %invoke.cont unwind label %lpad

invoke.cont:                                      ; preds = %entry
  store ptr getelementptr inbounds inrange(-24, 16) ({ [5 x ptr], [5 x ptr], [5 x ptr] }, ptr @_ZTVNSt7__cxx1118basic_stringstreamIcSt11char_traitsIcESaIcEEE, i32 0, i32 0, i32 3), ptr %this1, align 8, !tbaa !33
  %add.ptr = getelementptr inbounds i8, ptr %this1, i64 128
  store ptr getelementptr inbounds inrange(-24, 16) ({ [5 x ptr], [5 x ptr], [5 x ptr] }, ptr @_ZTVNSt7__cxx1118basic_stringstreamIcSt11char_traitsIcESaIcEEE, i32 0, i32 2, i32 3), ptr %add.ptr, align 8, !tbaa !33
  %add.ptr2 = getelementptr inbounds i8, ptr %this1, i64 16
  store ptr getelementptr inbounds inrange(-24, 16) ({ [5 x ptr], [5 x ptr], [5 x ptr] }, ptr @_ZTVNSt7__cxx1118basic_stringstreamIcSt11char_traitsIcESaIcEEE, i32 0, i32 1, i32 3), ptr %add.ptr2, align 8, !tbaa !33
  %_M_stringbuf = getelementptr inbounds nuw %"class.std::__cxx11::basic_stringstream", ptr %this1, i32 0, i32 1
  %1 = load ptr, ptr %__str.addr, align 8, !tbaa !48
  %2 = load i32, ptr %__m.addr, align 4, !tbaa !84
  invoke void @_ZNSt7__cxx1115basic_stringbufIcSt11char_traitsIcESaIcEEC2ERKNS_12basic_stringIcS2_S3_EESt13_Ios_Openmode(ptr noundef nonnull align 8 dereferenceable(104) %_M_stringbuf, ptr noundef nonnull align 8 dereferenceable(32) %1, i32 noundef %2)
          to label %invoke.cont4 unwind label %lpad3

invoke.cont4:                                     ; preds = %invoke.cont
  %vtable = load ptr, ptr %this1, align 8, !tbaa !33
  %vbase.offset.ptr = getelementptr i8, ptr %vtable, i64 -24
  %vbase.offset = load i64, ptr %vbase.offset.ptr, align 8
  %add.ptr5 = getelementptr inbounds i8, ptr %this1, i64 %vbase.offset
  %_M_stringbuf6 = getelementptr inbounds nuw %"class.std::__cxx11::basic_stringstream", ptr %this1, i32 0, i32 1
  invoke void @_ZNSt9basic_iosIcSt11char_traitsIcEE4initEPSt15basic_streambufIcS1_E(ptr noundef nonnull align 8 dereferenceable(264) %add.ptr5, ptr noundef %_M_stringbuf6)
          to label %invoke.cont8 unwind label %lpad7

invoke.cont8:                                     ; preds = %invoke.cont4
  ret void

lpad:                                             ; preds = %entry
  %3 = landingpad { ptr, i32 }
          cleanup
  %4 = extractvalue { ptr, i32 } %3, 0
  store ptr %4, ptr %exn.slot, align 8
  %5 = extractvalue { ptr, i32 } %3, 1
  store i32 %5, ptr %ehselector.slot, align 4
  br label %ehcleanup9

lpad3:                                            ; preds = %invoke.cont
  %6 = landingpad { ptr, i32 }
          cleanup
  %7 = extractvalue { ptr, i32 } %6, 0
  store ptr %7, ptr %exn.slot, align 8
  %8 = extractvalue { ptr, i32 } %6, 1
  store i32 %8, ptr %ehselector.slot, align 4
  br label %ehcleanup

lpad7:                                            ; preds = %invoke.cont4
  %9 = landingpad { ptr, i32 }
          cleanup
  %10 = extractvalue { ptr, i32 } %9, 0
  store ptr %10, ptr %exn.slot, align 8
  %11 = extractvalue { ptr, i32 } %9, 1
  store i32 %11, ptr %ehselector.slot, align 4
  call void @_ZNSt7__cxx1115basic_stringbufIcSt11char_traitsIcESaIcEED2Ev(ptr noundef nonnull align 8 dereferenceable(104) %_M_stringbuf) #3
  br label %ehcleanup

ehcleanup:                                        ; preds = %lpad7, %lpad3
  call void @_ZNSdD2Ev(ptr noundef nonnull align 8 dereferenceable(24) %this1, ptr noundef getelementptr inbounds ([10 x ptr], ptr @_ZTTNSt7__cxx1118basic_stringstreamIcSt11char_traitsIcESaIcEEE, i64 0, i64 1)) #3
  br label %ehcleanup9

ehcleanup9:                                       ; preds = %ehcleanup, %lpad
  %12 = getelementptr inbounds i8, ptr %this1, i64 128
  call void @_ZNSt8ios_baseD2Ev(ptr noundef nonnull align 8 dereferenceable(264) %12) #3
  br label %eh.resume

eh.resume:                                        ; preds = %ehcleanup9
  %exn = load ptr, ptr %exn.slot, align 8
  %sel = load i32, ptr %ehselector.slot, align 4
  %lpad.val = insertvalue { ptr, i32 } poison, ptr %exn, 0
  %lpad.val10 = insertvalue { ptr, i32 } %lpad.val, i32 %sel, 1
  resume { ptr, i32 } %lpad.val10
}

; Function Attrs: mustprogress nounwind uwtable
define linkonce_odr void @_ZNSt6vectorIiSaIiEEC2Ev(ptr noundef nonnull align 8 dereferenceable(24) %this) unnamed_addr #7 comdat align 2 {
entry:
  %this.addr = alloca ptr, align 8
  store ptr %this, ptr %this.addr, align 8, !tbaa !19
  %this1 = load ptr, ptr %this.addr, align 8
  call void @_ZNSt12_Vector_baseIiSaIiEEC2Ev(ptr noundef nonnull align 8 dereferenceable(24) %this1) #3
  ret void
}

declare noundef nonnull align 8 dereferenceable(16) ptr @_ZNSirsERi(ptr noundef nonnull align 8 dereferenceable(16), ptr noundef nonnull align 4 dereferenceable(4)) #1

; Function Attrs: mustprogress uwtable
define available_externally noundef zeroext i1 @_ZNKSt9basic_iosIcSt11char_traitsIcEEcvbEv(ptr noundef nonnull align 8 dereferenceable(264) %this) #4 align 2 {
entry:
  %this.addr = alloca ptr, align 8
  store ptr %this, ptr %this.addr, align 8, !tbaa !88
  %this1 = load ptr, ptr %this.addr, align 8
  %call = call noundef zeroext i1 @_ZNKSt9basic_iosIcSt11char_traitsIcEE4failEv(ptr noundef nonnull align 8 dereferenceable(264) %this1)
  %lnot = xor i1 %call, true
  ret i1 %lnot
}

; Function Attrs: mustprogress uwtable
define linkonce_odr void @_ZNSt6vectorIiSaIiEE9push_backERKi(ptr noundef nonnull align 8 dereferenceable(24) %this, ptr noundef nonnull align 4 dereferenceable(4) %__x) #4 comdat align 2 {
entry:
  %this.addr = alloca ptr, align 8
  %__x.addr = alloca ptr, align 8
  %agg.tmp = alloca %"class.__gnu_cxx::__normal_iterator", align 8
  store ptr %this, ptr %this.addr, align 8, !tbaa !19
  store ptr %__x, ptr %__x.addr, align 8, !tbaa !21
  %this1 = load ptr, ptr %this.addr, align 8
  %_M_impl = getelementptr inbounds nuw %"struct.std::_Vector_base", ptr %this1, i32 0, i32 0
  %_M_finish = getelementptr inbounds nuw %"struct.std::_Vector_base<int, std::allocator<int>>::_Vector_impl_data", ptr %_M_impl, i32 0, i32 1
  %0 = load ptr, ptr %_M_finish, align 8, !tbaa !83
  %_M_impl2 = getelementptr inbounds nuw %"struct.std::_Vector_base", ptr %this1, i32 0, i32 0
  %_M_end_of_storage = getelementptr inbounds nuw %"struct.std::_Vector_base<int, std::allocator<int>>::_Vector_impl_data", ptr %_M_impl2, i32 0, i32 2
  %1 = load ptr, ptr %_M_end_of_storage, align 8, !tbaa !90
  %cmp = icmp ne ptr %0, %1
  br i1 %cmp, label %if.then, label %if.else

if.then:                                          ; preds = %entry
  %_M_impl3 = getelementptr inbounds nuw %"struct.std::_Vector_base", ptr %this1, i32 0, i32 0
  %_M_impl4 = getelementptr inbounds nuw %"struct.std::_Vector_base", ptr %this1, i32 0, i32 0
  %_M_finish5 = getelementptr inbounds nuw %"struct.std::_Vector_base<int, std::allocator<int>>::_Vector_impl_data", ptr %_M_impl4, i32 0, i32 1
  %2 = load ptr, ptr %_M_finish5, align 8, !tbaa !83
  %3 = load ptr, ptr %__x.addr, align 8, !tbaa !21
  call void @_ZNSt16allocator_traitsISaIiEE9constructIiJRKiEEEvRS0_PT_DpOT0_(ptr noundef nonnull align 1 dereferenceable(1) %_M_impl3, ptr noundef %2, ptr noundef nonnull align 4 dereferenceable(4) %3) #3
  %_M_impl6 = getelementptr inbounds nuw %"struct.std::_Vector_base", ptr %this1, i32 0, i32 0
  %_M_finish7 = getelementptr inbounds nuw %"struct.std::_Vector_base<int, std::allocator<int>>::_Vector_impl_data", ptr %_M_impl6, i32 0, i32 1
  %4 = load ptr, ptr %_M_finish7, align 8, !tbaa !83
  %incdec.ptr = getelementptr inbounds nuw i32, ptr %4, i32 1
  store ptr %incdec.ptr, ptr %_M_finish7, align 8, !tbaa !83
  br label %if.end

if.else:                                          ; preds = %entry
  %call = call ptr @_ZNSt6vectorIiSaIiEE3endEv(ptr noundef nonnull align 8 dereferenceable(24) %this1) #3
  %coerce.dive = getelementptr inbounds nuw %"class.__gnu_cxx::__normal_iterator", ptr %agg.tmp, i32 0, i32 0
  store ptr %call, ptr %coerce.dive, align 8
  %5 = load ptr, ptr %__x.addr, align 8, !tbaa !21
  %coerce.dive8 = getelementptr inbounds nuw %"class.__gnu_cxx::__normal_iterator", ptr %agg.tmp, i32 0, i32 0
  %6 = load ptr, ptr %coerce.dive8, align 8
  call void @_ZNSt6vectorIiSaIiEE17_M_realloc_insertIJRKiEEEvN9__gnu_cxx17__normal_iteratorIPiS1_EEDpOT_(ptr noundef nonnull align 8 dereferenceable(24) %this1, ptr %6, ptr noundef nonnull align 4 dereferenceable(4) %5)
  br label %if.end

if.end:                                           ; preds = %if.else, %if.then
  ret void
}

; Function Attrs: mustprogress nounwind uwtable
define available_externally void @_ZNSt7__cxx1118basic_stringstreamIcSt11char_traitsIcESaIcEED1Ev(ptr noundef nonnull align 8 dereferenceable(128) %this) unnamed_addr #7 align 2 {
entry:
  %this.addr = alloca ptr, align 8
  store ptr %this, ptr %this.addr, align 8, !tbaa !86
  %this1 = load ptr, ptr %this.addr, align 8
  call void @_ZNSt7__cxx1118basic_stringstreamIcSt11char_traitsIcESaIcEED2Ev(ptr noundef nonnull align 8 dereferenceable(128) %this1, ptr noundef @_ZTTNSt7__cxx1118basic_stringstreamIcSt11char_traitsIcESaIcEEE) #3
  %0 = getelementptr inbounds i8, ptr %this1, i64 128
  call void @_ZNSt8ios_baseD2Ev(ptr noundef nonnull align 8 dereferenceable(264) %0) #3
  ret void
}

; Function Attrs: mustprogress nounwind uwtable
define available_externally void @_ZNSt9basic_iosIcSt11char_traitsIcEEC2Ev(ptr noundef nonnull align 8 dereferenceable(264) %this) unnamed_addr #7 align 2 {
entry:
  %this.addr = alloca ptr, align 8
  store ptr %this, ptr %this.addr, align 8, !tbaa !88
  %this1 = load ptr, ptr %this.addr, align 8
  call void @_ZNSt8ios_baseC2Ev(ptr noundef nonnull align 8 dereferenceable(216) %this1) #3
  store ptr getelementptr inbounds inrange(-16, 16) ({ [4 x ptr] }, ptr @_ZTVSt9basic_iosIcSt11char_traitsIcEE, i32 0, i32 0, i32 2), ptr %this1, align 8, !tbaa !33
  %_M_tie = getelementptr inbounds nuw %"class.std::basic_ios", ptr %this1, i32 0, i32 1
  store ptr null, ptr %_M_tie, align 8, !tbaa !91
  %_M_fill = getelementptr inbounds nuw %"class.std::basic_ios", ptr %this1, i32 0, i32 2
  store i8 0, ptr %_M_fill, align 8, !tbaa !106
  %_M_fill_init = getelementptr inbounds nuw %"class.std::basic_ios", ptr %this1, i32 0, i32 3
  store i8 0, ptr %_M_fill_init, align 1, !tbaa !107
  %_M_streambuf = getelementptr inbounds nuw %"class.std::basic_ios", ptr %this1, i32 0, i32 4
  store ptr null, ptr %_M_streambuf, align 8, !tbaa !108
  %_M_ctype = getelementptr inbounds nuw %"class.std::basic_ios", ptr %this1, i32 0, i32 5
  store ptr null, ptr %_M_ctype, align 8, !tbaa !109
  %_M_num_put = getelementptr inbounds nuw %"class.std::basic_ios", ptr %this1, i32 0, i32 6
  store ptr null, ptr %_M_num_put, align 8, !tbaa !110
  %_M_num_get = getelementptr inbounds nuw %"class.std::basic_ios", ptr %this1, i32 0, i32 7
  store ptr null, ptr %_M_num_get, align 8, !tbaa !111
  ret void
}

; Function Attrs: mustprogress uwtable
define available_externally void @_ZNSdC2Ev(ptr noundef nonnull align 8 dereferenceable(24) %this, ptr noundef %vtt) unnamed_addr #4 align 2 personality ptr @__gxx_personality_v0 {
entry:
  %this.addr = alloca ptr, align 8
  %vtt.addr = alloca ptr, align 8
  %exn.slot = alloca ptr, align 8
  %ehselector.slot = alloca i32, align 4
  store ptr %this, ptr %this.addr, align 8, !tbaa !112
  store ptr %vtt, ptr %vtt.addr, align 8, !tbaa !114
  %this1 = load ptr, ptr %this.addr, align 8
  %vtt2 = load ptr, ptr %vtt.addr, align 8
  %0 = getelementptr inbounds ptr, ptr %vtt2, i64 1
  call void @_ZNSiC2Ev(ptr noundef nonnull align 8 dereferenceable(16) %this1, ptr noundef %0)
  %1 = getelementptr inbounds i8, ptr %this1, i64 16
  %2 = getelementptr inbounds ptr, ptr %vtt2, i64 3
  invoke void @_ZNSoC2Ev(ptr noundef nonnull align 8 dereferenceable(8) %1, ptr noundef %2)
          to label %invoke.cont unwind label %lpad

invoke.cont:                                      ; preds = %entry
  %3 = load ptr, ptr %vtt2, align 8
  store ptr %3, ptr %this1, align 8, !tbaa !33
  %4 = getelementptr inbounds ptr, ptr %vtt2, i64 5
  %5 = load ptr, ptr %4, align 8
  %vtable = load ptr, ptr %this1, align 8, !tbaa !33
  %vbase.offset.ptr = getelementptr i8, ptr %vtable, i64 -24
  %vbase.offset = load i64, ptr %vbase.offset.ptr, align 8
  %add.ptr = getelementptr inbounds i8, ptr %this1, i64 %vbase.offset
  store ptr %5, ptr %add.ptr, align 8, !tbaa !33
  %6 = getelementptr inbounds ptr, ptr %vtt2, i64 6
  %7 = load ptr, ptr %6, align 8
  %add.ptr3 = getelementptr inbounds i8, ptr %this1, i64 16
  store ptr %7, ptr %add.ptr3, align 8, !tbaa !33
  ret void

lpad:                                             ; preds = %entry
  %8 = landingpad { ptr, i32 }
          cleanup
  %9 = extractvalue { ptr, i32 } %8, 0
  store ptr %9, ptr %exn.slot, align 8
  %10 = extractvalue { ptr, i32 } %8, 1
  store i32 %10, ptr %ehselector.slot, align 4
  %11 = getelementptr inbounds ptr, ptr %vtt2, i64 1
  call void @_ZNSiD2Ev(ptr noundef nonnull align 8 dereferenceable(16) %this1, ptr noundef %11) #3
  br label %eh.resume

eh.resume:                                        ; preds = %lpad
  %exn = load ptr, ptr %exn.slot, align 8
  %sel = load i32, ptr %ehselector.slot, align 4
  %lpad.val = insertvalue { ptr, i32 } poison, ptr %exn, 0
  %lpad.val4 = insertvalue { ptr, i32 } %lpad.val, i32 %sel, 1
  resume { ptr, i32 } %lpad.val4
}

; Function Attrs: mustprogress uwtable
define available_externally void @_ZNSt7__cxx1115basic_stringbufIcSt11char_traitsIcESaIcEEC2ERKNS_12basic_stringIcS2_S3_EESt13_Ios_Openmode(ptr noundef nonnull align 8 dereferenceable(104) %this, ptr noundef nonnull align 8 dereferenceable(32) %__str, i32 noundef %__mode) unnamed_addr #4 align 2 personality ptr @__gxx_personality_v0 {
entry:
  %this.addr = alloca ptr, align 8
  %__str.addr = alloca ptr, align 8
  %__mode.addr = alloca i32, align 4
  %ref.tmp = alloca %"class.std::allocator.5", align 1
  %exn.slot = alloca ptr, align 8
  %ehselector.slot = alloca i32, align 4
  store ptr %this, ptr %this.addr, align 8, !tbaa !116
  store ptr %__str, ptr %__str.addr, align 8, !tbaa !48
  store i32 %__mode, ptr %__mode.addr, align 4, !tbaa !84
  %this1 = load ptr, ptr %this.addr, align 8
  call void @_ZNSt15basic_streambufIcSt11char_traitsIcEEC2Ev(ptr noundef nonnull align 8 dereferenceable(64) %this1)
  store ptr getelementptr inbounds inrange(-16, 112) ({ [16 x ptr] }, ptr @_ZTVNSt7__cxx1115basic_stringbufIcSt11char_traitsIcESaIcEEE, i32 0, i32 0, i32 2), ptr %this1, align 8, !tbaa !33
  %_M_mode = getelementptr inbounds nuw %"class.std::__cxx11::basic_stringbuf", ptr %this1, i32 0, i32 1
  store i32 0, ptr %_M_mode, align 8, !tbaa !118
  %_M_string = getelementptr inbounds nuw %"class.std::__cxx11::basic_stringbuf", ptr %this1, i32 0, i32 2
  %0 = load ptr, ptr %__str.addr, align 8, !tbaa !48
  %call = call noundef ptr @_ZNKSt7__cxx1112basic_stringIcSt11char_traitsIcESaIcEE4dataEv(ptr noundef nonnull align 8 dereferenceable(32) %0) #3
  %1 = load ptr, ptr %__str.addr, align 8, !tbaa !48
  %call2 = call noundef i64 @_ZNKSt7__cxx1112basic_stringIcSt11char_traitsIcESaIcEE4sizeEv(ptr noundef nonnull align 8 dereferenceable(32) %1) #3
  call void @llvm.lifetime.start.p0(i64 1, ptr %ref.tmp) #3
  %2 = load ptr, ptr %__str.addr, align 8, !tbaa !48
  call void @_ZNKSt7__cxx1112basic_stringIcSt11char_traitsIcESaIcEE13get_allocatorEv(ptr dead_on_unwind writable sret(%"class.std::allocator.5") align 1 %ref.tmp, ptr noundef nonnull align 8 dereferenceable(32) %2) #3
  invoke void @_ZNSt7__cxx1112basic_stringIcSt11char_traitsIcESaIcEEC2EPKcmRKS3_(ptr noundef nonnull align 8 dereferenceable(32) %_M_string, ptr noundef %call, i64 noundef %call2, ptr noundef nonnull align 1 dereferenceable(1) %ref.tmp)
          to label %invoke.cont unwind label %lpad

invoke.cont:                                      ; preds = %entry
  call void @_ZNSt15__new_allocatorIcED2Ev(ptr noundef nonnull align 1 dereferenceable(1) %ref.tmp) #3
  call void @llvm.lifetime.end.p0(i64 1, ptr %ref.tmp) #3
  %3 = load i32, ptr %__mode.addr, align 4, !tbaa !84
  invoke void @_ZNSt7__cxx1115basic_stringbufIcSt11char_traitsIcESaIcEE17_M_stringbuf_initESt13_Ios_Openmode(ptr noundef nonnull align 8 dereferenceable(104) %this1, i32 noundef %3)
          to label %invoke.cont4 unwind label %lpad3

invoke.cont4:                                     ; preds = %invoke.cont
  ret void

lpad:                                             ; preds = %entry
  %4 = landingpad { ptr, i32 }
          cleanup
  %5 = extractvalue { ptr, i32 } %4, 0
  store ptr %5, ptr %exn.slot, align 8
  %6 = extractvalue { ptr, i32 } %4, 1
  store i32 %6, ptr %ehselector.slot, align 4
  call void @_ZNSt15__new_allocatorIcED2Ev(ptr noundef nonnull align 1 dereferenceable(1) %ref.tmp) #3
  call void @llvm.lifetime.end.p0(i64 1, ptr %ref.tmp) #3
  br label %ehcleanup

lpad3:                                            ; preds = %invoke.cont
  %7 = landingpad { ptr, i32 }
          cleanup
  %8 = extractvalue { ptr, i32 } %7, 0
  store ptr %8, ptr %exn.slot, align 8
  %9 = extractvalue { ptr, i32 } %7, 1
  store i32 %9, ptr %ehselector.slot, align 4
  call void @_ZNSt7__cxx1112basic_stringIcSt11char_traitsIcESaIcEED2Ev(ptr noundef nonnull align 8 dereferenceable(32) %_M_string) #3
  br label %ehcleanup

ehcleanup:                                        ; preds = %lpad3, %lpad
  call void @_ZNSt15basic_streambufIcSt11char_traitsIcEED2Ev(ptr noundef nonnull align 8 dereferenceable(64) %this1) #3
  br label %eh.resume

eh.resume:                                        ; preds = %ehcleanup
  %exn = load ptr, ptr %exn.slot, align 8
  %sel = load i32, ptr %ehselector.slot, align 4
  %lpad.val = insertvalue { ptr, i32 } poison, ptr %exn, 0
  %lpad.val5 = insertvalue { ptr, i32 } %lpad.val, i32 %sel, 1
  resume { ptr, i32 } %lpad.val5
}

declare void @_ZNSt9basic_iosIcSt11char_traitsIcEE4initEPSt15basic_streambufIcS1_E(ptr noundef nonnull align 8 dereferenceable(264), ptr noundef) #1

; Function Attrs: inlinehint mustprogress nounwind uwtable
define linkonce_odr void @_ZNSt7__cxx1115basic_stringbufIcSt11char_traitsIcESaIcEED2Ev(ptr noundef nonnull align 8 dereferenceable(104) %this) unnamed_addr #8 comdat align 2 {
entry:
  %this.addr = alloca ptr, align 8
  store ptr %this, ptr %this.addr, align 8, !tbaa !116
  %this1 = load ptr, ptr %this.addr, align 8
  store ptr getelementptr inbounds inrange(-16, 112) ({ [16 x ptr] }, ptr @_ZTVNSt7__cxx1115basic_stringbufIcSt11char_traitsIcESaIcEEE, i32 0, i32 0, i32 2), ptr %this1, align 8, !tbaa !33
  %_M_string = getelementptr inbounds nuw %"class.std::__cxx11::basic_stringbuf", ptr %this1, i32 0, i32 2
  call void @_ZNSt7__cxx1112basic_stringIcSt11char_traitsIcESaIcEED2Ev(ptr noundef nonnull align 8 dereferenceable(32) %_M_string) #3
  call void @_ZNSt15basic_streambufIcSt11char_traitsIcEED2Ev(ptr noundef nonnull align 8 dereferenceable(64) %this1) #3
  ret void
}

; Function Attrs: mustprogress nounwind uwtable
define available_externally void @_ZNSdD2Ev(ptr noundef nonnull align 8 dereferenceable(24) %this, ptr noundef %vtt) unnamed_addr #7 align 2 {
entry:
  %this.addr = alloca ptr, align 8
  %vtt.addr = alloca ptr, align 8
  store ptr %this, ptr %this.addr, align 8, !tbaa !112
  store ptr %vtt, ptr %vtt.addr, align 8, !tbaa !114
  %this1 = load ptr, ptr %this.addr, align 8
  %vtt2 = load ptr, ptr %vtt.addr, align 8
  %0 = getelementptr inbounds i8, ptr %this1, i64 16
  %1 = getelementptr inbounds ptr, ptr %vtt2, i64 3
  call void @_ZNSoD2Ev(ptr noundef nonnull align 8 dereferenceable(8) %0, ptr noundef %1) #3
  %2 = getelementptr inbounds ptr, ptr %vtt2, i64 1
  call void @_ZNSiD2Ev(ptr noundef nonnull align 8 dereferenceable(16) %this1, ptr noundef %2) #3
  ret void
}

; Function Attrs: nounwind
declare void @_ZNSt8ios_baseD2Ev(ptr noundef nonnull align 8 dereferenceable(216)) unnamed_addr #2

; Function Attrs: nounwind
declare void @_ZNSt8ios_baseC2Ev(ptr noundef nonnull align 8 dereferenceable(216)) unnamed_addr #2

; Function Attrs: mustprogress uwtable
define available_externally void @_ZNSiC2Ev(ptr noundef nonnull align 8 dereferenceable(16) %this, ptr noundef %vtt) unnamed_addr #4 align 2 {
entry:
  %this.addr = alloca ptr, align 8
  %vtt.addr = alloca ptr, align 8
  store ptr %this, ptr %this.addr, align 8, !tbaa !123
  store ptr %vtt, ptr %vtt.addr, align 8, !tbaa !114
  %this1 = load ptr, ptr %this.addr, align 8
  %vtt2 = load ptr, ptr %vtt.addr, align 8
  %0 = load ptr, ptr %vtt2, align 8
  store ptr %0, ptr %this1, align 8, !tbaa !33
  %1 = getelementptr inbounds ptr, ptr %vtt2, i64 1
  %2 = load ptr, ptr %1, align 8
  %vtable = load ptr, ptr %this1, align 8, !tbaa !33
  %vbase.offset.ptr = getelementptr i8, ptr %vtable, i64 -24
  %vbase.offset = load i64, ptr %vbase.offset.ptr, align 8
  %add.ptr = getelementptr inbounds i8, ptr %this1, i64 %vbase.offset
  store ptr %2, ptr %add.ptr, align 8, !tbaa !33
  %_M_gcount = getelementptr inbounds nuw %"class.std::basic_istream", ptr %this1, i32 0, i32 1
  store i64 0, ptr %_M_gcount, align 8, !tbaa !125
  %vtable3 = load ptr, ptr %this1, align 8, !tbaa !33
  %vbase.offset.ptr4 = getelementptr i8, ptr %vtable3, i64 -24
  %vbase.offset5 = load i64, ptr %vbase.offset.ptr4, align 8
  %add.ptr6 = getelementptr inbounds i8, ptr %this1, i64 %vbase.offset5
  call void @_ZNSt9basic_iosIcSt11char_traitsIcEE4initEPSt15basic_streambufIcS1_E(ptr noundef nonnull align 8 dereferenceable(264) %add.ptr6, ptr noundef null)
  ret void
}

; Function Attrs: mustprogress uwtable
define available_externally void @_ZNSoC2Ev(ptr noundef nonnull align 8 dereferenceable(8) %this, ptr noundef %vtt) unnamed_addr #4 align 2 {
entry:
  %this.addr = alloca ptr, align 8
  %vtt.addr = alloca ptr, align 8
  store ptr %this, ptr %this.addr, align 8, !tbaa !127
  store ptr %vtt, ptr %vtt.addr, align 8, !tbaa !114
  %this1 = load ptr, ptr %this.addr, align 8
  %vtt2 = load ptr, ptr %vtt.addr, align 8
  %0 = load ptr, ptr %vtt2, align 8
  store ptr %0, ptr %this1, align 8, !tbaa !33
  %1 = getelementptr inbounds ptr, ptr %vtt2, i64 1
  %2 = load ptr, ptr %1, align 8
  %vtable = load ptr, ptr %this1, align 8, !tbaa !33
  %vbase.offset.ptr = getelementptr i8, ptr %vtable, i64 -24
  %vbase.offset = load i64, ptr %vbase.offset.ptr, align 8
  %add.ptr = getelementptr inbounds i8, ptr %this1, i64 %vbase.offset
  store ptr %2, ptr %add.ptr, align 8, !tbaa !33
  %vtable3 = load ptr, ptr %this1, align 8, !tbaa !33
  %vbase.offset.ptr4 = getelementptr i8, ptr %vtable3, i64 -24
  %vbase.offset5 = load i64, ptr %vbase.offset.ptr4, align 8
  %add.ptr6 = getelementptr inbounds i8, ptr %this1, i64 %vbase.offset5
  call void @_ZNSt9basic_iosIcSt11char_traitsIcEE4initEPSt15basic_streambufIcS1_E(ptr noundef nonnull align 8 dereferenceable(264) %add.ptr6, ptr noundef null)
  ret void
}

; Function Attrs: mustprogress nounwind uwtable
define available_externally void @_ZNSiD2Ev(ptr noundef nonnull align 8 dereferenceable(16) %this, ptr noundef %vtt) unnamed_addr #7 align 2 {
entry:
  %this.addr = alloca ptr, align 8
  %vtt.addr = alloca ptr, align 8
  store ptr %this, ptr %this.addr, align 8, !tbaa !123
  store ptr %vtt, ptr %vtt.addr, align 8, !tbaa !114
  %this1 = load ptr, ptr %this.addr, align 8
  %vtt2 = load ptr, ptr %vtt.addr, align 8
  %0 = load ptr, ptr %vtt2, align 8
  store ptr %0, ptr %this1, align 8, !tbaa !33
  %1 = getelementptr inbounds ptr, ptr %vtt2, i64 1
  %2 = load ptr, ptr %1, align 8
  %vtable = load ptr, ptr %this1, align 8, !tbaa !33
  %vbase.offset.ptr = getelementptr i8, ptr %vtable, i64 -24
  %vbase.offset = load i64, ptr %vbase.offset.ptr, align 8
  %add.ptr = getelementptr inbounds i8, ptr %this1, i64 %vbase.offset
  store ptr %2, ptr %add.ptr, align 8, !tbaa !33
  %_M_gcount = getelementptr inbounds nuw %"class.std::basic_istream", ptr %this1, i32 0, i32 1
  store i64 0, ptr %_M_gcount, align 8, !tbaa !125
  ret void
}

; Function Attrs: mustprogress nounwind uwtable
define available_externally void @_ZNSt15basic_streambufIcSt11char_traitsIcEEC2Ev(ptr noundef nonnull align 8 dereferenceable(64) %this) unnamed_addr #7 align 2 {
entry:
  %this.addr = alloca ptr, align 8
  store ptr %this, ptr %this.addr, align 8, !tbaa !128
  %this1 = load ptr, ptr %this.addr, align 8
  store ptr getelementptr inbounds inrange(-16, 112) ({ [16 x ptr] }, ptr @_ZTVSt15basic_streambufIcSt11char_traitsIcEE, i32 0, i32 0, i32 2), ptr %this1, align 8, !tbaa !33
  %_M_in_beg = getelementptr inbounds nuw %"class.std::basic_streambuf", ptr %this1, i32 0, i32 1
  store ptr null, ptr %_M_in_beg, align 8, !tbaa !129
  %_M_in_cur = getelementptr inbounds nuw %"class.std::basic_streambuf", ptr %this1, i32 0, i32 2
  store ptr null, ptr %_M_in_cur, align 8, !tbaa !130
  %_M_in_end = getelementptr inbounds nuw %"class.std::basic_streambuf", ptr %this1, i32 0, i32 3
  store ptr null, ptr %_M_in_end, align 8, !tbaa !131
  %_M_out_beg = getelementptr inbounds nuw %"class.std::basic_streambuf", ptr %this1, i32 0, i32 4
  store ptr null, ptr %_M_out_beg, align 8, !tbaa !132
  %_M_out_cur = getelementptr inbounds nuw %"class.std::basic_streambuf", ptr %this1, i32 0, i32 5
  store ptr null, ptr %_M_out_cur, align 8, !tbaa !133
  %_M_out_end = getelementptr inbounds nuw %"class.std::basic_streambuf", ptr %this1, i32 0, i32 6
  store ptr null, ptr %_M_out_end, align 8, !tbaa !134
  %_M_buf_locale = getelementptr inbounds nuw %"class.std::basic_streambuf", ptr %this1, i32 0, i32 7
  call void @_ZNSt6localeC1Ev(ptr noundef nonnull align 8 dereferenceable(8) %_M_buf_locale) #3
  ret void
}

; Function Attrs: mustprogress nounwind uwtable
define available_externally noundef ptr @_ZNKSt7__cxx1112basic_stringIcSt11char_traitsIcESaIcEE4dataEv(ptr noundef nonnull align 8 dereferenceable(32) %this) #7 align 2 personality ptr @__gxx_personality_v0 {
entry:
  %this.addr = alloca ptr, align 8
  store ptr %this, ptr %this.addr, align 8, !tbaa !48
  %this1 = load ptr, ptr %this.addr, align 8
  %call = invoke noundef ptr @_ZNKSt7__cxx1112basic_stringIcSt11char_traitsIcESaIcEE7_M_dataEv(ptr noundef nonnull align 8 dereferenceable(32) %this1)
          to label %invoke.cont unwind label %terminate.lpad

invoke.cont:                                      ; preds = %entry
  ret ptr %call

terminate.lpad:                                   ; preds = %entry
  %0 = landingpad { ptr, i32 }
          catch ptr null
  %1 = extractvalue { ptr, i32 } %0, 0
  call void @__clang_call_terminate(ptr %1) #26
  unreachable
}

; Function Attrs: mustprogress nounwind uwtable
define available_externally noundef i64 @_ZNKSt7__cxx1112basic_stringIcSt11char_traitsIcESaIcEE4sizeEv(ptr noundef nonnull align 8 dereferenceable(32) %this) #7 align 2 {
entry:
  %this.addr = alloca ptr, align 8
  store ptr %this, ptr %this.addr, align 8, !tbaa !48
  %this1 = load ptr, ptr %this.addr, align 8
  %_M_string_length = getelementptr inbounds nuw %"class.std::__cxx11::basic_string", ptr %this1, i32 0, i32 1
  %0 = load i64, ptr %_M_string_length, align 8, !tbaa !135
  ret i64 %0
}

; Function Attrs: mustprogress nounwind uwtable
define available_externally void @_ZNKSt7__cxx1112basic_stringIcSt11char_traitsIcESaIcEE13get_allocatorEv(ptr dead_on_unwind noalias writable sret(%"class.std::allocator.5") align 1 %agg.result, ptr noundef nonnull align 8 dereferenceable(32) %this) #7 align 2 personality ptr @__gxx_personality_v0 {
entry:
  %result.ptr = alloca ptr, align 8
  %this.addr = alloca ptr, align 8
  store ptr %agg.result, ptr %result.ptr, align 8
  store ptr %this, ptr %this.addr, align 8, !tbaa !48
  %this1 = load ptr, ptr %this.addr, align 8
  %call = invoke noundef nonnull align 1 dereferenceable(1) ptr @_ZNKSt7__cxx1112basic_stringIcSt11char_traitsIcESaIcEE16_M_get_allocatorEv(ptr noundef nonnull align 8 dereferenceable(32) %this1)
          to label %invoke.cont unwind label %terminate.lpad

invoke.cont:                                      ; preds = %entry
  call void @_ZNSaIcEC2ERKS_(ptr noundef nonnull align 1 dereferenceable(1) %agg.result, ptr noundef nonnull align 1 dereferenceable(1) %call) #3
  ret void

terminate.lpad:                                   ; preds = %entry
  %0 = landingpad { ptr, i32 }
          catch ptr null
  %1 = extractvalue { ptr, i32 } %0, 0
  call void @__clang_call_terminate(ptr %1) #26
  unreachable
}

; Function Attrs: mustprogress uwtable
define available_externally void @_ZNSt7__cxx1112basic_stringIcSt11char_traitsIcESaIcEEC2EPKcmRKS3_(ptr noundef nonnull align 8 dereferenceable(32) %this, ptr noundef %__s, i64 noundef %__n, ptr noundef nonnull align 1 dereferenceable(1) %__a) unnamed_addr #4 align 2 personality ptr @__gxx_personality_v0 {
entry:
  %this.addr = alloca ptr, align 8
  %__s.addr = alloca ptr, align 8
  %__n.addr = alloca i64, align 8
  %__a.addr = alloca ptr, align 8
  %exn.slot = alloca ptr, align 8
  %ehselector.slot = alloca i32, align 4
  %agg.tmp = alloca %"struct.std::forward_iterator_tag", align 1
  store ptr %this, ptr %this.addr, align 8, !tbaa !48
  store ptr %__s, ptr %__s.addr, align 8, !tbaa !27
  store i64 %__n, ptr %__n.addr, align 8, !tbaa !54
  store ptr %__a, ptr %__a.addr, align 8, !tbaa !136
  %this1 = load ptr, ptr %this.addr, align 8
  %_M_dataplus = getelementptr inbounds nuw %"class.std::__cxx11::basic_string", ptr %this1, i32 0, i32 0
  %call = call noundef ptr @_ZNSt7__cxx1112basic_stringIcSt11char_traitsIcESaIcEE13_M_local_dataEv(ptr noundef nonnull align 8 dereferenceable(32) %this1)
  %0 = load ptr, ptr %__a.addr, align 8, !tbaa !136
  call void @_ZNSt7__cxx1112basic_stringIcSt11char_traitsIcESaIcEE12_Alloc_hiderC2EPcRKS3_(ptr noundef nonnull align 8 dereferenceable(8) %_M_dataplus, ptr noundef %call, ptr noundef nonnull align 1 dereferenceable(1) %0)
  %1 = load ptr, ptr %__s.addr, align 8, !tbaa !27
  %cmp = icmp eq ptr %1, null
  br i1 %cmp, label %land.lhs.true, label %if.end

land.lhs.true:                                    ; preds = %entry
  %2 = load i64, ptr %__n.addr, align 8, !tbaa !54
  %cmp2 = icmp ugt i64 %2, 0
  br i1 %cmp2, label %if.then, label %if.end

if.then:                                          ; preds = %land.lhs.true
  invoke void @_ZSt19__throw_logic_errorPKc(ptr noundef @.str.2) #25
          to label %invoke.cont unwind label %lpad

invoke.cont:                                      ; preds = %if.then
  unreachable

lpad:                                             ; preds = %if.end, %if.then
  %3 = landingpad { ptr, i32 }
          cleanup
  %4 = extractvalue { ptr, i32 } %3, 0
  store ptr %4, ptr %exn.slot, align 8
  %5 = extractvalue { ptr, i32 } %3, 1
  store i32 %5, ptr %ehselector.slot, align 4
  call void @_ZNSt15__new_allocatorIcED2Ev(ptr noundef nonnull align 8 dereferenceable(8) %_M_dataplus) #3
  br label %eh.resume

if.end:                                           ; preds = %land.lhs.true, %entry
  %6 = load ptr, ptr %__s.addr, align 8, !tbaa !27
  %7 = load ptr, ptr %__s.addr, align 8, !tbaa !27
  %8 = load i64, ptr %__n.addr, align 8, !tbaa !54
  %add.ptr = getelementptr inbounds nuw i8, ptr %7, i64 %8
  invoke void @_ZNSt7__cxx1112basic_stringIcSt11char_traitsIcESaIcEE12_M_constructIPKcEEvT_S8_St20forward_iterator_tag(ptr noundef nonnull align 8 dereferenceable(32) %this1, ptr noundef %6, ptr noundef %add.ptr)
          to label %invoke.cont3 unwind label %lpad

invoke.cont3:                                     ; preds = %if.end
  ret void

eh.resume:                                        ; preds = %lpad
  %exn = load ptr, ptr %exn.slot, align 8
  %sel = load i32, ptr %ehselector.slot, align 4
  %lpad.val = insertvalue { ptr, i32 } poison, ptr %exn, 0
  %lpad.val4 = insertvalue { ptr, i32 } %lpad.val, i32 %sel, 1
  resume { ptr, i32 } %lpad.val4
}

; Function Attrs: mustprogress nounwind uwtable
define linkonce_odr void @_ZNSt15__new_allocatorIcED2Ev(ptr noundef nonnull align 1 dereferenceable(1) %this) unnamed_addr #7 comdat align 2 {
entry:
  %this.addr = alloca ptr, align 8
  store ptr %this, ptr %this.addr, align 8, !tbaa !138
  %this1 = load ptr, ptr %this.addr, align 8
  ret void
}

; Function Attrs: mustprogress uwtable
define available_externally void @_ZNSt7__cxx1115basic_stringbufIcSt11char_traitsIcESaIcEE17_M_stringbuf_initESt13_Ios_Openmode(ptr noundef nonnull align 8 dereferenceable(104) %this, i32 noundef %__mode) #4 align 2 {
entry:
  %this.addr = alloca ptr, align 8
  %__mode.addr = alloca i32, align 4
  %__len = alloca i64, align 8
  store ptr %this, ptr %this.addr, align 8, !tbaa !116
  store i32 %__mode, ptr %__mode.addr, align 4, !tbaa !84
  %this1 = load ptr, ptr %this.addr, align 8
  %0 = load i32, ptr %__mode.addr, align 4, !tbaa !84
  %_M_mode = getelementptr inbounds nuw %"class.std::__cxx11::basic_stringbuf", ptr %this1, i32 0, i32 1
  store i32 %0, ptr %_M_mode, align 8, !tbaa !118
  call void @llvm.lifetime.start.p0(i64 8, ptr %__len) #3
  store i64 0, ptr %__len, align 8, !tbaa !54
  %_M_mode2 = getelementptr inbounds nuw %"class.std::__cxx11::basic_stringbuf", ptr %this1, i32 0, i32 1
  %1 = load i32, ptr %_M_mode2, align 8, !tbaa !118
  %call = call noundef i32 @_ZStorSt13_Ios_OpenmodeS_(i32 noundef 2, i32 noundef 1)
  %call3 = call noundef i32 @_ZStanSt13_Ios_OpenmodeS_(i32 noundef %1, i32 noundef %call)
  %tobool = icmp ne i32 %call3, 0
  br i1 %tobool, label %if.then, label %if.end

if.then:                                          ; preds = %entry
  %_M_string = getelementptr inbounds nuw %"class.std::__cxx11::basic_stringbuf", ptr %this1, i32 0, i32 2
  %call4 = call noundef i64 @_ZNKSt7__cxx1112basic_stringIcSt11char_traitsIcESaIcEE4sizeEv(ptr noundef nonnull align 8 dereferenceable(32) %_M_string) #3
  store i64 %call4, ptr %__len, align 8, !tbaa !54
  br label %if.end

if.end:                                           ; preds = %if.then, %entry
  %_M_string5 = getelementptr inbounds nuw %"class.std::__cxx11::basic_stringbuf", ptr %this1, i32 0, i32 2
  %call6 = call noundef ptr @_ZNSt7__cxx1112basic_stringIcSt11char_traitsIcESaIcEE4dataEv(ptr noundef nonnull align 8 dereferenceable(32) %_M_string5) #3
  %2 = load i64, ptr %__len, align 8, !tbaa !54
  call void @_ZNSt7__cxx1115basic_stringbufIcSt11char_traitsIcESaIcEE7_M_syncEPcmm(ptr noundef nonnull align 8 dereferenceable(104) %this1, ptr noundef %call6, i64 noundef 0, i64 noundef %2)
  call void @llvm.lifetime.end.p0(i64 8, ptr %__len) #3
  ret void
}

; Function Attrs: mustprogress nounwind uwtable
define available_externally void @_ZNSt15basic_streambufIcSt11char_traitsIcEED2Ev(ptr noundef nonnull align 8 dereferenceable(64) %this) unnamed_addr #7 align 2 {
entry:
  %this.addr = alloca ptr, align 8
  store ptr %this, ptr %this.addr, align 8, !tbaa !128
  %this1 = load ptr, ptr %this.addr, align 8
  store ptr getelementptr inbounds inrange(-16, 112) ({ [16 x ptr] }, ptr @_ZTVSt15basic_streambufIcSt11char_traitsIcEE, i32 0, i32 0, i32 2), ptr %this1, align 8, !tbaa !33
  %_M_buf_locale = getelementptr inbounds nuw %"class.std::basic_streambuf", ptr %this1, i32 0, i32 7
  call void @_ZNSt6localeD1Ev(ptr noundef nonnull align 8 dereferenceable(8) %_M_buf_locale) #3
  ret void
}

; Function Attrs: nounwind
declare void @_ZNSt6localeC1Ev(ptr noundef nonnull align 8 dereferenceable(8)) unnamed_addr #2

; Function Attrs: mustprogress nounwind uwtable
define available_externally noundef ptr @_ZNKSt7__cxx1112basic_stringIcSt11char_traitsIcESaIcEE7_M_dataEv(ptr noundef nonnull align 8 dereferenceable(32) %this) #7 align 2 {
entry:
  %this.addr = alloca ptr, align 8
  store ptr %this, ptr %this.addr, align 8, !tbaa !48
  %this1 = load ptr, ptr %this.addr, align 8
  %_M_dataplus = getelementptr inbounds nuw %"class.std::__cxx11::basic_string", ptr %this1, i32 0, i32 0
  %_M_p = getelementptr inbounds nuw %"struct.std::__cxx11::basic_string<char>::_Alloc_hider", ptr %_M_dataplus, i32 0, i32 0
  %0 = load ptr, ptr %_M_p, align 8, !tbaa !140
  ret ptr %0
}

; Function Attrs: noinline noreturn nounwind uwtable
define linkonce_odr hidden void @__clang_call_terminate(ptr noundef %0) #10 comdat {
  %2 = call ptr @__cxa_begin_catch(ptr %0) #3
  call void @_ZSt9terminatev() #26
  unreachable
}

declare ptr @__cxa_begin_catch(ptr)

declare void @_ZSt9terminatev()

; Function Attrs: mustprogress nounwind uwtable
define available_externally noundef nonnull align 1 dereferenceable(1) ptr @_ZNKSt7__cxx1112basic_stringIcSt11char_traitsIcESaIcEE16_M_get_allocatorEv(ptr noundef nonnull align 8 dereferenceable(32) %this) #7 align 2 {
entry:
  %this.addr = alloca ptr, align 8
  store ptr %this, ptr %this.addr, align 8, !tbaa !48
  %this1 = load ptr, ptr %this.addr, align 8
  %_M_dataplus = getelementptr inbounds nuw %"class.std::__cxx11::basic_string", ptr %this1, i32 0, i32 0
  ret ptr %_M_dataplus
}

; Function Attrs: mustprogress nounwind uwtable
define available_externally void @_ZNSaIcEC2ERKS_(ptr noundef nonnull align 1 dereferenceable(1) %this, ptr noundef nonnull align 1 dereferenceable(1) %__a) unnamed_addr #7 align 2 {
entry:
  %this.addr = alloca ptr, align 8
  %__a.addr = alloca ptr, align 8
  store ptr %this, ptr %this.addr, align 8, !tbaa !136
  store ptr %__a, ptr %__a.addr, align 8, !tbaa !136
  %this1 = load ptr, ptr %this.addr, align 8
  %0 = load ptr, ptr %__a.addr, align 8, !tbaa !136
  call void @_ZNSt15__new_allocatorIcEC2ERKS0_(ptr noundef nonnull align 1 dereferenceable(1) %this1, ptr noundef nonnull align 1 dereferenceable(1) %0) #3
  ret void
}

; Function Attrs: mustprogress nounwind uwtable
define linkonce_odr void @_ZNSt15__new_allocatorIcEC2ERKS0_(ptr noundef nonnull align 1 dereferenceable(1) %this, ptr noundef nonnull align 1 dereferenceable(1) %0) unnamed_addr #7 comdat align 2 {
entry:
  %this.addr = alloca ptr, align 8
  %.addr = alloca ptr, align 8
  store ptr %this, ptr %this.addr, align 8, !tbaa !138
  store ptr %0, ptr %.addr, align 8, !tbaa !138
  %this1 = load ptr, ptr %this.addr, align 8
  ret void
}

; Function Attrs: mustprogress nounwind uwtable
define available_externally noundef ptr @_ZNSt7__cxx1112basic_stringIcSt11char_traitsIcESaIcEE13_M_local_dataEv(ptr noundef nonnull align 8 dereferenceable(32) %this) #7 align 2 {
entry:
  %this.addr = alloca ptr, align 8
  store ptr %this, ptr %this.addr, align 8, !tbaa !48
  %this1 = load ptr, ptr %this.addr, align 8
  %0 = getelementptr inbounds nuw %"class.std::__cxx11::basic_string", ptr %this1, i32 0, i32 2
  %arraydecay = getelementptr inbounds [16 x i8], ptr %0, i64 0, i64 0
  %call = call noundef ptr @_ZNSt19__ptr_traits_ptr_toIPccLb0EE10pointer_toERc(ptr noundef nonnull align 1 dereferenceable(1) %arraydecay) #3
  ret ptr %call
}

; Function Attrs: mustprogress nounwind uwtable
define available_externally void @_ZNSt7__cxx1112basic_stringIcSt11char_traitsIcESaIcEE12_Alloc_hiderC2EPcRKS3_(ptr noundef nonnull align 8 dereferenceable(8) %this, ptr noundef %__dat, ptr noundef nonnull align 1 dereferenceable(1) %__a) unnamed_addr #7 align 2 {
entry:
  %this.addr = alloca ptr, align 8
  %__dat.addr = alloca ptr, align 8
  %__a.addr = alloca ptr, align 8
  store ptr %this, ptr %this.addr, align 8, !tbaa !141
  store ptr %__dat, ptr %__dat.addr, align 8, !tbaa !27
  store ptr %__a, ptr %__a.addr, align 8, !tbaa !136
  %this1 = load ptr, ptr %this.addr, align 8
  %0 = load ptr, ptr %__a.addr, align 8, !tbaa !136
  call void @_ZNSaIcEC2ERKS_(ptr noundef nonnull align 1 dereferenceable(1) %this1, ptr noundef nonnull align 1 dereferenceable(1) %0) #3
  %_M_p = getelementptr inbounds nuw %"struct.std::__cxx11::basic_string<char>::_Alloc_hider", ptr %this1, i32 0, i32 0
  %1 = load ptr, ptr %__dat.addr, align 8, !tbaa !27
  store ptr %1, ptr %_M_p, align 8, !tbaa !143
  ret void
}

; Function Attrs: noreturn
declare void @_ZSt19__throw_logic_errorPKc(ptr noundef) #11

; Function Attrs: mustprogress uwtable
define linkonce_odr void @_ZNSt7__cxx1112basic_stringIcSt11char_traitsIcESaIcEE12_M_constructIPKcEEvT_S8_St20forward_iterator_tag(ptr noundef nonnull align 8 dereferenceable(32) %this, ptr noundef %__beg, ptr noundef %__end) #4 comdat align 2 personality ptr @__gxx_personality_v0 {
entry:
  %0 = alloca %"struct.std::forward_iterator_tag", align 1
  %this.addr = alloca ptr, align 8
  %__beg.addr = alloca ptr, align 8
  %__end.addr = alloca ptr, align 8
  %__dnew = alloca i64, align 8
  %__guard = alloca %struct._Guard, align 8
  %exn.slot = alloca ptr, align 8
  %ehselector.slot = alloca i32, align 4
  store ptr %this, ptr %this.addr, align 8, !tbaa !48
  store ptr %__beg, ptr %__beg.addr, align 8, !tbaa !27
  store ptr %__end, ptr %__end.addr, align 8, !tbaa !27
  %this1 = load ptr, ptr %this.addr, align 8
  call void @llvm.lifetime.start.p0(i64 8, ptr %__dnew) #3
  %1 = load ptr, ptr %__beg.addr, align 8, !tbaa !27
  %2 = load ptr, ptr %__end.addr, align 8, !tbaa !27
  %call = call noundef i64 @_ZSt8distanceIPKcENSt15iterator_traitsIT_E15difference_typeES3_S3_(ptr noundef %1, ptr noundef %2)
  store i64 %call, ptr %__dnew, align 8, !tbaa !54
  %3 = load i64, ptr %__dnew, align 8, !tbaa !54
  %cmp = icmp ugt i64 %3, 15
  br i1 %cmp, label %if.then, label %if.else

if.then:                                          ; preds = %entry
  %call2 = call noundef ptr @_ZNSt7__cxx1112basic_stringIcSt11char_traitsIcESaIcEE9_M_createERmm(ptr noundef nonnull align 8 dereferenceable(32) %this1, ptr noundef nonnull align 8 dereferenceable(8) %__dnew, i64 noundef 0)
  call void @_ZNSt7__cxx1112basic_stringIcSt11char_traitsIcESaIcEE7_M_dataEPc(ptr noundef nonnull align 8 dereferenceable(32) %this1, ptr noundef %call2)
  %4 = load i64, ptr %__dnew, align 8, !tbaa !54
  call void @_ZNSt7__cxx1112basic_stringIcSt11char_traitsIcESaIcEE11_M_capacityEm(ptr noundef nonnull align 8 dereferenceable(32) %this1, i64 noundef %4)
  br label %if.end

if.else:                                          ; preds = %entry
  %call3 = call noundef ptr @_ZNSt7__cxx1112basic_stringIcSt11char_traitsIcESaIcEE17_M_use_local_dataEv(ptr noundef nonnull align 8 dereferenceable(32) %this1) #3
  br label %if.end

if.end:                                           ; preds = %if.else, %if.then
  call void @llvm.lifetime.start.p0(i64 8, ptr %__guard) #3
  call void @_ZZNSt7__cxx1112basic_stringIcSt11char_traitsIcESaIcEE12_M_constructIPKcEEvT_S8_St20forward_iterator_tagEN6_GuardC2EPS4_(ptr noundef nonnull align 8 dereferenceable(8) %__guard, ptr noundef %this1)
  %call4 = call noundef ptr @_ZNKSt7__cxx1112basic_stringIcSt11char_traitsIcESaIcEE7_M_dataEv(ptr noundef nonnull align 8 dereferenceable(32) %this1)
  %5 = load ptr, ptr %__beg.addr, align 8, !tbaa !27
  %6 = load ptr, ptr %__end.addr, align 8, !tbaa !27
  call void @_ZNSt7__cxx1112basic_stringIcSt11char_traitsIcESaIcEE13_S_copy_charsEPcPKcS7_(ptr noundef %call4, ptr noundef %5, ptr noundef %6) #3
  %_M_guarded = getelementptr inbounds nuw %struct._Guard, ptr %__guard, i32 0, i32 0
  store ptr null, ptr %_M_guarded, align 8, !tbaa !144
  %7 = load i64, ptr %__dnew, align 8, !tbaa !54
  invoke void @_ZNSt7__cxx1112basic_stringIcSt11char_traitsIcESaIcEE13_M_set_lengthEm(ptr noundef nonnull align 8 dereferenceable(32) %this1, i64 noundef %7)
          to label %invoke.cont unwind label %lpad

invoke.cont:                                      ; preds = %if.end
  call void @_ZZNSt7__cxx1112basic_stringIcSt11char_traitsIcESaIcEE12_M_constructIPKcEEvT_S8_St20forward_iterator_tagEN6_GuardD2Ev(ptr noundef nonnull align 8 dereferenceable(8) %__guard) #3
  call void @llvm.lifetime.end.p0(i64 8, ptr %__guard) #3
  call void @llvm.lifetime.end.p0(i64 8, ptr %__dnew) #3
  ret void

lpad:                                             ; preds = %if.end
  %8 = landingpad { ptr, i32 }
          cleanup
  %9 = extractvalue { ptr, i32 } %8, 0
  store ptr %9, ptr %exn.slot, align 8
  %10 = extractvalue { ptr, i32 } %8, 1
  store i32 %10, ptr %ehselector.slot, align 4
  call void @_ZZNSt7__cxx1112basic_stringIcSt11char_traitsIcESaIcEE12_M_constructIPKcEEvT_S8_St20forward_iterator_tagEN6_GuardD2Ev(ptr noundef nonnull align 8 dereferenceable(8) %__guard) #3
  call void @llvm.lifetime.end.p0(i64 8, ptr %__guard) #3
  call void @llvm.lifetime.end.p0(i64 8, ptr %__dnew) #3
  br label %eh.resume

eh.resume:                                        ; preds = %lpad
  %exn = load ptr, ptr %exn.slot, align 8
  %sel = load i32, ptr %ehselector.slot, align 4
  %lpad.val = insertvalue { ptr, i32 } poison, ptr %exn, 0
  %lpad.val5 = insertvalue { ptr, i32 } %lpad.val, i32 %sel, 1
  resume { ptr, i32 } %lpad.val5
}

; Function Attrs: mustprogress nounwind uwtable
define linkonce_odr noundef ptr @_ZNSt19__ptr_traits_ptr_toIPccLb0EE10pointer_toERc(ptr noundef nonnull align 1 dereferenceable(1) %__r) #7 comdat align 2 {
entry:
  %__r.addr = alloca ptr, align 8
  store ptr %__r, ptr %__r.addr, align 8, !tbaa !27
  %0 = load ptr, ptr %__r.addr, align 8, !tbaa !27
  ret ptr %0
}

; Function Attrs: inlinehint mustprogress uwtable
define linkonce_odr noundef i64 @_ZSt8distanceIPKcENSt15iterator_traitsIT_E15difference_typeES3_S3_(ptr noundef %__first, ptr noundef %__last) #9 comdat {
entry:
  %__first.addr = alloca ptr, align 8
  %__last.addr = alloca ptr, align 8
  %agg.tmp = alloca %"struct.std::random_access_iterator_tag", align 1
  %undef.agg.tmp = alloca %"struct.std::random_access_iterator_tag", align 1
  store ptr %__first, ptr %__first.addr, align 8, !tbaa !27
  store ptr %__last, ptr %__last.addr, align 8, !tbaa !27
  %0 = load ptr, ptr %__first.addr, align 8, !tbaa !27
  %1 = load ptr, ptr %__last.addr, align 8, !tbaa !27
  call void @_ZSt19__iterator_categoryIPKcENSt15iterator_traitsIT_E17iterator_categoryERKS3_(ptr noundef nonnull align 8 dereferenceable(8) %__first.addr)
  %call = call noundef i64 @_ZSt10__distanceIPKcENSt15iterator_traitsIT_E15difference_typeES3_S3_St26random_access_iterator_tag(ptr noundef %0, ptr noundef %1)
  ret i64 %call
}

; Function Attrs: mustprogress nounwind uwtable
define available_externally void @_ZNSt7__cxx1112basic_stringIcSt11char_traitsIcESaIcEE7_M_dataEPc(ptr noundef nonnull align 8 dereferenceable(32) %this, ptr noundef %__p) #7 align 2 {
entry:
  %this.addr = alloca ptr, align 8
  %__p.addr = alloca ptr, align 8
  store ptr %this, ptr %this.addr, align 8, !tbaa !48
  store ptr %__p, ptr %__p.addr, align 8, !tbaa !27
  %this1 = load ptr, ptr %this.addr, align 8
  %0 = load ptr, ptr %__p.addr, align 8, !tbaa !27
  %_M_dataplus = getelementptr inbounds nuw %"class.std::__cxx11::basic_string", ptr %this1, i32 0, i32 0
  %_M_p = getelementptr inbounds nuw %"struct.std::__cxx11::basic_string<char>::_Alloc_hider", ptr %_M_dataplus, i32 0, i32 0
  store ptr %0, ptr %_M_p, align 8, !tbaa !140
  ret void
}

declare noundef ptr @_ZNSt7__cxx1112basic_stringIcSt11char_traitsIcESaIcEE9_M_createERmm(ptr noundef nonnull align 8 dereferenceable(32), ptr noundef nonnull align 8 dereferenceable(8), i64 noundef) #1

; Function Attrs: mustprogress nounwind uwtable
define available_externally void @_ZNSt7__cxx1112basic_stringIcSt11char_traitsIcESaIcEE11_M_capacityEm(ptr noundef nonnull align 8 dereferenceable(32) %this, i64 noundef %__capacity) #7 align 2 {
entry:
  %this.addr = alloca ptr, align 8
  %__capacity.addr = alloca i64, align 8
  store ptr %this, ptr %this.addr, align 8, !tbaa !48
  store i64 %__capacity, ptr %__capacity.addr, align 8, !tbaa !54
  %this1 = load ptr, ptr %this.addr, align 8
  %0 = load i64, ptr %__capacity.addr, align 8, !tbaa !54
  %1 = getelementptr inbounds nuw %"class.std::__cxx11::basic_string", ptr %this1, i32 0, i32 2
  store i64 %0, ptr %1, align 8, !tbaa !146
  ret void
}

; Function Attrs: alwaysinline mustprogress nounwind uwtable
define available_externally noundef ptr @_ZNSt7__cxx1112basic_stringIcSt11char_traitsIcESaIcEE17_M_use_local_dataEv(ptr noundef nonnull align 8 dereferenceable(32) %this) #12 align 2 {
entry:
  %this.addr = alloca ptr, align 8
  store ptr %this, ptr %this.addr, align 8, !tbaa !48
  %this1 = load ptr, ptr %this.addr, align 8
  %call = call noundef ptr @_ZNSt7__cxx1112basic_stringIcSt11char_traitsIcESaIcEE13_M_local_dataEv(ptr noundef nonnull align 8 dereferenceable(32) %this1)
  ret ptr %call
}

; Function Attrs: mustprogress nounwind uwtable
define linkonce_odr void @_ZZNSt7__cxx1112basic_stringIcSt11char_traitsIcESaIcEE12_M_constructIPKcEEvT_S8_St20forward_iterator_tagEN6_GuardC2EPS4_(ptr noundef nonnull align 8 dereferenceable(8) %this, ptr noundef %__s) unnamed_addr #7 comdat align 2 {
entry:
  %this.addr = alloca ptr, align 8
  %__s.addr = alloca ptr, align 8
  store ptr %this, ptr %this.addr, align 8, !tbaa !147
  store ptr %__s, ptr %__s.addr, align 8, !tbaa !48
  %this1 = load ptr, ptr %this.addr, align 8
  %_M_guarded = getelementptr inbounds nuw %struct._Guard, ptr %this1, i32 0, i32 0
  %0 = load ptr, ptr %__s.addr, align 8, !tbaa !48
  store ptr %0, ptr %_M_guarded, align 8, !tbaa !144
  ret void
}

; Function Attrs: mustprogress nounwind uwtable
define available_externally void @_ZNSt7__cxx1112basic_stringIcSt11char_traitsIcESaIcEE13_S_copy_charsEPcPKcS7_(ptr noundef %__p, ptr noundef %__k1, ptr noundef %__k2) #7 align 2 personality ptr @__gxx_personality_v0 {
entry:
  %__p.addr = alloca ptr, align 8
  %__k1.addr = alloca ptr, align 8
  %__k2.addr = alloca ptr, align 8
  store ptr %__p, ptr %__p.addr, align 8, !tbaa !27
  store ptr %__k1, ptr %__k1.addr, align 8, !tbaa !27
  store ptr %__k2, ptr %__k2.addr, align 8, !tbaa !27
  %0 = load ptr, ptr %__p.addr, align 8, !tbaa !27
  %1 = load ptr, ptr %__k1.addr, align 8, !tbaa !27
  %2 = load ptr, ptr %__k2.addr, align 8, !tbaa !27
  %3 = load ptr, ptr %__k1.addr, align 8, !tbaa !27
  %sub.ptr.lhs.cast = ptrtoint ptr %2 to i64
  %sub.ptr.rhs.cast = ptrtoint ptr %3 to i64
  %sub.ptr.sub = sub i64 %sub.ptr.lhs.cast, %sub.ptr.rhs.cast
  invoke void @_ZNSt7__cxx1112basic_stringIcSt11char_traitsIcESaIcEE7_S_copyEPcPKcm(ptr noundef %0, ptr noundef %1, i64 noundef %sub.ptr.sub)
          to label %invoke.cont unwind label %terminate.lpad

invoke.cont:                                      ; preds = %entry
  ret void

terminate.lpad:                                   ; preds = %entry
  %4 = landingpad { ptr, i32 }
          catch ptr null
  %5 = extractvalue { ptr, i32 } %4, 0
  call void @__clang_call_terminate(ptr %5) #26
  unreachable
}

; Function Attrs: mustprogress uwtable
define available_externally void @_ZNSt7__cxx1112basic_stringIcSt11char_traitsIcESaIcEE13_M_set_lengthEm(ptr noundef nonnull align 8 dereferenceable(32) %this, i64 noundef %__n) #4 align 2 {
entry:
  %this.addr = alloca ptr, align 8
  %__n.addr = alloca i64, align 8
  %ref.tmp = alloca i8, align 1
  store ptr %this, ptr %this.addr, align 8, !tbaa !48
  store i64 %__n, ptr %__n.addr, align 8, !tbaa !54
  %this1 = load ptr, ptr %this.addr, align 8
  %0 = load i64, ptr %__n.addr, align 8, !tbaa !54
  call void @_ZNSt7__cxx1112basic_stringIcSt11char_traitsIcESaIcEE9_M_lengthEm(ptr noundef nonnull align 8 dereferenceable(32) %this1, i64 noundef %0)
  %call = call noundef ptr @_ZNKSt7__cxx1112basic_stringIcSt11char_traitsIcESaIcEE7_M_dataEv(ptr noundef nonnull align 8 dereferenceable(32) %this1)
  %1 = load i64, ptr %__n.addr, align 8, !tbaa !54
  %arrayidx = getelementptr inbounds nuw i8, ptr %call, i64 %1
  call void @llvm.lifetime.start.p0(i64 1, ptr %ref.tmp) #3
  store i8 0, ptr %ref.tmp, align 1, !tbaa !146
  call void @_ZNSt11char_traitsIcE6assignERcRKc(ptr noundef nonnull align 1 dereferenceable(1) %arrayidx, ptr noundef nonnull align 1 dereferenceable(1) %ref.tmp) #3
  call void @llvm.lifetime.end.p0(i64 1, ptr %ref.tmp) #3
  ret void
}

; Function Attrs: mustprogress nounwind uwtable
define linkonce_odr void @_ZZNSt7__cxx1112basic_stringIcSt11char_traitsIcESaIcEE12_M_constructIPKcEEvT_S8_St20forward_iterator_tagEN6_GuardD2Ev(ptr noundef nonnull align 8 dereferenceable(8) %this) unnamed_addr #7 comdat align 2 personality ptr @__gxx_personality_v0 {
entry:
  %this.addr = alloca ptr, align 8
  store ptr %this, ptr %this.addr, align 8, !tbaa !147
  %this1 = load ptr, ptr %this.addr, align 8
  %_M_guarded = getelementptr inbounds nuw %struct._Guard, ptr %this1, i32 0, i32 0
  %0 = load ptr, ptr %_M_guarded, align 8, !tbaa !144
  %tobool = icmp ne ptr %0, null
  br i1 %tobool, label %if.then, label %if.end

if.then:                                          ; preds = %entry
  %_M_guarded2 = getelementptr inbounds nuw %struct._Guard, ptr %this1, i32 0, i32 0
  %1 = load ptr, ptr %_M_guarded2, align 8, !tbaa !144
  invoke void @_ZNSt7__cxx1112basic_stringIcSt11char_traitsIcESaIcEE10_M_disposeEv(ptr noundef nonnull align 8 dereferenceable(32) %1)
          to label %invoke.cont unwind label %terminate.lpad

invoke.cont:                                      ; preds = %if.then
  br label %if.end

if.end:                                           ; preds = %invoke.cont, %entry
  ret void

terminate.lpad:                                   ; preds = %if.then
  %2 = landingpad { ptr, i32 }
          catch ptr null
  %3 = extractvalue { ptr, i32 } %2, 0
  call void @__clang_call_terminate(ptr %3) #26
  unreachable
}

; Function Attrs: inlinehint mustprogress nounwind uwtable
define linkonce_odr noundef i64 @_ZSt10__distanceIPKcENSt15iterator_traitsIT_E15difference_typeES3_S3_St26random_access_iterator_tag(ptr noundef %__first, ptr noundef %__last) #8 comdat {
entry:
  %0 = alloca %"struct.std::random_access_iterator_tag", align 1
  %__first.addr = alloca ptr, align 8
  %__last.addr = alloca ptr, align 8
  store ptr %__first, ptr %__first.addr, align 8, !tbaa !27
  store ptr %__last, ptr %__last.addr, align 8, !tbaa !27
  %1 = load ptr, ptr %__last.addr, align 8, !tbaa !27
  %2 = load ptr, ptr %__first.addr, align 8, !tbaa !27
  %sub.ptr.lhs.cast = ptrtoint ptr %1 to i64
  %sub.ptr.rhs.cast = ptrtoint ptr %2 to i64
  %sub.ptr.sub = sub i64 %sub.ptr.lhs.cast, %sub.ptr.rhs.cast
  ret i64 %sub.ptr.sub
}

; Function Attrs: inlinehint mustprogress nounwind uwtable
define linkonce_odr void @_ZSt19__iterator_categoryIPKcENSt15iterator_traitsIT_E17iterator_categoryERKS3_(ptr noundef nonnull align 8 dereferenceable(8) %0) #8 comdat {
entry:
  %.addr = alloca ptr, align 8
  store ptr %0, ptr %.addr, align 8, !tbaa !149
  ret void
}

; Function Attrs: mustprogress uwtable
define available_externally void @_ZNSt7__cxx1112basic_stringIcSt11char_traitsIcESaIcEE7_S_copyEPcPKcm(ptr noundef %__d, ptr noundef %__s, i64 noundef %__n) #4 align 2 {
entry:
  %__d.addr = alloca ptr, align 8
  %__s.addr = alloca ptr, align 8
  %__n.addr = alloca i64, align 8
  store ptr %__d, ptr %__d.addr, align 8, !tbaa !27
  store ptr %__s, ptr %__s.addr, align 8, !tbaa !27
  store i64 %__n, ptr %__n.addr, align 8, !tbaa !54
  %0 = load i64, ptr %__n.addr, align 8, !tbaa !54
  %cmp = icmp eq i64 %0, 1
  br i1 %cmp, label %if.then, label %if.else

if.then:                                          ; preds = %entry
  %1 = load ptr, ptr %__d.addr, align 8, !tbaa !27
  %2 = load ptr, ptr %__s.addr, align 8, !tbaa !27
  call void @_ZNSt11char_traitsIcE6assignERcRKc(ptr noundef nonnull align 1 dereferenceable(1) %1, ptr noundef nonnull align 1 dereferenceable(1) %2) #3
  br label %if.end

if.else:                                          ; preds = %entry
  %3 = load ptr, ptr %__d.addr, align 8, !tbaa !27
  %4 = load ptr, ptr %__s.addr, align 8, !tbaa !27
  %5 = load i64, ptr %__n.addr, align 8, !tbaa !54
  %call = call noundef ptr @_ZNSt11char_traitsIcE4copyEPcPKcm(ptr noundef %3, ptr noundef %4, i64 noundef %5)
  br label %if.end

if.end:                                           ; preds = %if.else, %if.then
  ret void
}

; Function Attrs: mustprogress nounwind uwtable
define linkonce_odr void @_ZNSt11char_traitsIcE6assignERcRKc(ptr noundef nonnull align 1 dereferenceable(1) %__c1, ptr noundef nonnull align 1 dereferenceable(1) %__c2) #7 comdat align 2 {
entry:
  %__c1.addr = alloca ptr, align 8
  %__c2.addr = alloca ptr, align 8
  store ptr %__c1, ptr %__c1.addr, align 8, !tbaa !27
  store ptr %__c2, ptr %__c2.addr, align 8, !tbaa !27
  %0 = load ptr, ptr %__c2.addr, align 8, !tbaa !27
  %1 = load i8, ptr %0, align 1, !tbaa !146
  %2 = load ptr, ptr %__c1.addr, align 8, !tbaa !27
  store i8 %1, ptr %2, align 1, !tbaa !146
  ret void
}

; Function Attrs: mustprogress nounwind uwtable
define linkonce_odr noundef ptr @_ZNSt11char_traitsIcE4copyEPcPKcm(ptr noundef %__s1, ptr noundef %__s2, i64 noundef %__n) #7 comdat align 2 {
entry:
  %retval = alloca ptr, align 8
  %__s1.addr = alloca ptr, align 8
  %__s2.addr = alloca ptr, align 8
  %__n.addr = alloca i64, align 8
  store ptr %__s1, ptr %__s1.addr, align 8, !tbaa !27
  store ptr %__s2, ptr %__s2.addr, align 8, !tbaa !27
  store i64 %__n, ptr %__n.addr, align 8, !tbaa !54
  %0 = load i64, ptr %__n.addr, align 8, !tbaa !54
  %cmp = icmp eq i64 %0, 0
  br i1 %cmp, label %if.then, label %if.end

if.then:                                          ; preds = %entry
  %1 = load ptr, ptr %__s1.addr, align 8, !tbaa !27
  store ptr %1, ptr %retval, align 8
  br label %return

if.end:                                           ; preds = %entry
  %2 = load ptr, ptr %__s1.addr, align 8, !tbaa !27
  %3 = load ptr, ptr %__s2.addr, align 8, !tbaa !27
  %4 = load i64, ptr %__n.addr, align 8, !tbaa !54
  call void @llvm.memcpy.p0.p0.i64(ptr align 1 %2, ptr align 1 %3, i64 %4, i1 false)
  store ptr %2, ptr %retval, align 8
  br label %return

return:                                           ; preds = %if.end, %if.then
  %5 = load ptr, ptr %retval, align 8
  ret ptr %5
}

; Function Attrs: mustprogress nounwind uwtable
define available_externally void @_ZNSt7__cxx1112basic_stringIcSt11char_traitsIcESaIcEE9_M_lengthEm(ptr noundef nonnull align 8 dereferenceable(32) %this, i64 noundef %__length) #7 align 2 {
entry:
  %this.addr = alloca ptr, align 8
  %__length.addr = alloca i64, align 8
  store ptr %this, ptr %this.addr, align 8, !tbaa !48
  store i64 %__length, ptr %__length.addr, align 8, !tbaa !54
  %this1 = load ptr, ptr %this.addr, align 8
  %0 = load i64, ptr %__length.addr, align 8, !tbaa !54
  %_M_string_length = getelementptr inbounds nuw %"class.std::__cxx11::basic_string", ptr %this1, i32 0, i32 1
  store i64 %0, ptr %_M_string_length, align 8, !tbaa !135
  ret void
}

; Function Attrs: mustprogress uwtable
define available_externally void @_ZNSt7__cxx1112basic_stringIcSt11char_traitsIcESaIcEE10_M_disposeEv(ptr noundef nonnull align 8 dereferenceable(32) %this) #4 align 2 {
entry:
  %this.addr = alloca ptr, align 8
  store ptr %this, ptr %this.addr, align 8, !tbaa !48
  %this1 = load ptr, ptr %this.addr, align 8
  %call = call noundef zeroext i1 @_ZNKSt7__cxx1112basic_stringIcSt11char_traitsIcESaIcEE11_M_is_localEv(ptr noundef nonnull align 8 dereferenceable(32) %this1)
  br i1 %call, label %if.end, label %if.then

if.then:                                          ; preds = %entry
  %0 = getelementptr inbounds nuw %"class.std::__cxx11::basic_string", ptr %this1, i32 0, i32 2
  %1 = load i64, ptr %0, align 8, !tbaa !146
  call void @_ZNSt7__cxx1112basic_stringIcSt11char_traitsIcESaIcEE10_M_destroyEm(ptr noundef nonnull align 8 dereferenceable(32) %this1, i64 noundef %1) #3
  br label %if.end

if.end:                                           ; preds = %if.then, %entry
  ret void
}

; Function Attrs: mustprogress uwtable
define available_externally noundef zeroext i1 @_ZNKSt7__cxx1112basic_stringIcSt11char_traitsIcESaIcEE11_M_is_localEv(ptr noundef nonnull align 8 dereferenceable(32) %this) #4 align 2 {
entry:
  %this.addr = alloca ptr, align 8
  store ptr %this, ptr %this.addr, align 8, !tbaa !48
  %this1 = load ptr, ptr %this.addr, align 8
  %call = call noundef ptr @_ZNKSt7__cxx1112basic_stringIcSt11char_traitsIcESaIcEE7_M_dataEv(ptr noundef nonnull align 8 dereferenceable(32) %this1)
  %call2 = call noundef ptr @_ZNKSt7__cxx1112basic_stringIcSt11char_traitsIcESaIcEE13_M_local_dataEv(ptr noundef nonnull align 8 dereferenceable(32) %this1)
  %cmp = icmp eq ptr %call, %call2
  ret i1 %cmp
}

; Function Attrs: mustprogress nounwind uwtable
define available_externally void @_ZNSt7__cxx1112basic_stringIcSt11char_traitsIcESaIcEE10_M_destroyEm(ptr noundef nonnull align 8 dereferenceable(32) %this, i64 noundef %__size) #7 align 2 personality ptr @__gxx_personality_v0 {
entry:
  %this.addr = alloca ptr, align 8
  %__size.addr = alloca i64, align 8
  store ptr %this, ptr %this.addr, align 8, !tbaa !48
  store i64 %__size, ptr %__size.addr, align 8, !tbaa !54
  %this1 = load ptr, ptr %this.addr, align 8
  %call = invoke noundef nonnull align 1 dereferenceable(1) ptr @_ZNSt7__cxx1112basic_stringIcSt11char_traitsIcESaIcEE16_M_get_allocatorEv(ptr noundef nonnull align 8 dereferenceable(32) %this1)
          to label %invoke.cont unwind label %terminate.lpad

invoke.cont:                                      ; preds = %entry
  %call2 = call noundef ptr @_ZNKSt7__cxx1112basic_stringIcSt11char_traitsIcESaIcEE7_M_dataEv(ptr noundef nonnull align 8 dereferenceable(32) %this1)
  %0 = load i64, ptr %__size.addr, align 8, !tbaa !54
  %add = add i64 %0, 1
  invoke void @_ZNSt16allocator_traitsISaIcEE10deallocateERS0_Pcm(ptr noundef nonnull align 1 dereferenceable(1) %call, ptr noundef %call2, i64 noundef %add)
          to label %invoke.cont3 unwind label %terminate.lpad

invoke.cont3:                                     ; preds = %invoke.cont
  ret void

terminate.lpad:                                   ; preds = %invoke.cont, %entry
  %1 = landingpad { ptr, i32 }
          catch ptr null
  %2 = extractvalue { ptr, i32 } %1, 0
  call void @__clang_call_terminate(ptr %2) #26
  unreachable
}

; Function Attrs: mustprogress nounwind uwtable
define available_externally noundef ptr @_ZNKSt7__cxx1112basic_stringIcSt11char_traitsIcESaIcEE13_M_local_dataEv(ptr noundef nonnull align 8 dereferenceable(32) %this) #7 align 2 {
entry:
  %this.addr = alloca ptr, align 8
  store ptr %this, ptr %this.addr, align 8, !tbaa !48
  %this1 = load ptr, ptr %this.addr, align 8
  %0 = getelementptr inbounds nuw %"class.std::__cxx11::basic_string", ptr %this1, i32 0, i32 2
  %arraydecay = getelementptr inbounds [16 x i8], ptr %0, i64 0, i64 0
  %call = call noundef ptr @_ZNSt19__ptr_traits_ptr_toIPKcS0_Lb0EE10pointer_toERS0_(ptr noundef nonnull align 1 dereferenceable(1) %arraydecay) #3
  ret ptr %call
}

; Function Attrs: mustprogress nounwind uwtable
define linkonce_odr noundef ptr @_ZNSt19__ptr_traits_ptr_toIPKcS0_Lb0EE10pointer_toERS0_(ptr noundef nonnull align 1 dereferenceable(1) %__r) #7 comdat align 2 {
entry:
  %__r.addr = alloca ptr, align 8
  store ptr %__r, ptr %__r.addr, align 8, !tbaa !27
  %0 = load ptr, ptr %__r.addr, align 8, !tbaa !27
  ret ptr %0
}

; Function Attrs: mustprogress uwtable
define linkonce_odr void @_ZNSt16allocator_traitsISaIcEE10deallocateERS0_Pcm(ptr noundef nonnull align 1 dereferenceable(1) %__a, ptr noundef %__p, i64 noundef %__n) #4 comdat align 2 {
entry:
  %__a.addr = alloca ptr, align 8
  %__p.addr = alloca ptr, align 8
  %__n.addr = alloca i64, align 8
  store ptr %__a, ptr %__a.addr, align 8, !tbaa !136
  store ptr %__p, ptr %__p.addr, align 8, !tbaa !27
  store i64 %__n, ptr %__n.addr, align 8, !tbaa !54
  %0 = load ptr, ptr %__a.addr, align 8, !tbaa !136
  %1 = load ptr, ptr %__p.addr, align 8, !tbaa !27
  %2 = load i64, ptr %__n.addr, align 8, !tbaa !54
  call void @_ZNSt15__new_allocatorIcE10deallocateEPcm(ptr noundef nonnull align 1 dereferenceable(1) %0, ptr noundef %1, i64 noundef %2)
  ret void
}

; Function Attrs: mustprogress nounwind uwtable
define available_externally noundef nonnull align 1 dereferenceable(1) ptr @_ZNSt7__cxx1112basic_stringIcSt11char_traitsIcESaIcEE16_M_get_allocatorEv(ptr noundef nonnull align 8 dereferenceable(32) %this) #7 align 2 {
entry:
  %this.addr = alloca ptr, align 8
  store ptr %this, ptr %this.addr, align 8, !tbaa !48
  %this1 = load ptr, ptr %this.addr, align 8
  %_M_dataplus = getelementptr inbounds nuw %"class.std::__cxx11::basic_string", ptr %this1, i32 0, i32 0
  ret ptr %_M_dataplus
}

; Function Attrs: mustprogress nounwind uwtable
define linkonce_odr void @_ZNSt15__new_allocatorIcE10deallocateEPcm(ptr noundef nonnull align 1 dereferenceable(1) %this, ptr noundef %__p, i64 noundef %__n) #7 comdat align 2 {
entry:
  %this.addr = alloca ptr, align 8
  %__p.addr = alloca ptr, align 8
  %__n.addr = alloca i64, align 8
  store ptr %this, ptr %this.addr, align 8, !tbaa !138
  store ptr %__p, ptr %__p.addr, align 8, !tbaa !27
  store i64 %__n, ptr %__n.addr, align 8, !tbaa !54
  %this1 = load ptr, ptr %this.addr, align 8
  %0 = load ptr, ptr %__p.addr, align 8, !tbaa !27
  %1 = load i64, ptr %__n.addr, align 8, !tbaa !54
  %mul = mul i64 %1, 1
  call void @_ZdlPvm(ptr noundef %0, i64 noundef %mul) #27
  ret void
}

; Function Attrs: nobuiltin nounwind
declare void @_ZdlPvm(ptr noundef, i64 noundef) #13

; Function Attrs: inlinehint mustprogress nounwind uwtable
define linkonce_odr noundef i32 @_ZStanSt13_Ios_OpenmodeS_(i32 noundef %__a, i32 noundef %__b) #8 comdat {
entry:
  %__a.addr = alloca i32, align 4
  %__b.addr = alloca i32, align 4
  store i32 %__a, ptr %__a.addr, align 4, !tbaa !84
  store i32 %__b, ptr %__b.addr, align 4, !tbaa !84
  %0 = load i32, ptr %__a.addr, align 4, !tbaa !84
  %1 = load i32, ptr %__b.addr, align 4, !tbaa !84
  %and = and i32 %0, %1
  ret i32 %and
}

declare void @_ZNSt7__cxx1115basic_stringbufIcSt11char_traitsIcESaIcEE7_M_syncEPcmm(ptr noundef nonnull align 8 dereferenceable(104), ptr noundef, i64 noundef, i64 noundef) #1

; Function Attrs: mustprogress nounwind uwtable
define available_externally noundef ptr @_ZNSt7__cxx1112basic_stringIcSt11char_traitsIcESaIcEE4dataEv(ptr noundef nonnull align 8 dereferenceable(32) %this) #7 align 2 {
entry:
  %this.addr = alloca ptr, align 8
  store ptr %this, ptr %this.addr, align 8, !tbaa !48
  %this1 = load ptr, ptr %this.addr, align 8
  %call = call noundef ptr @_ZNKSt7__cxx1112basic_stringIcSt11char_traitsIcESaIcEE7_M_dataEv(ptr noundef nonnull align 8 dereferenceable(32) %this1)
  ret ptr %call
}

; Function Attrs: nounwind
declare void @_ZNSt6localeD1Ev(ptr noundef nonnull align 8 dereferenceable(8)) unnamed_addr #2

; Function Attrs: mustprogress nounwind uwtable
define available_externally void @_ZNSoD2Ev(ptr noundef nonnull align 8 dereferenceable(8) %this, ptr noundef %vtt) unnamed_addr #7 align 2 {
entry:
  %this.addr = alloca ptr, align 8
  %vtt.addr = alloca ptr, align 8
  store ptr %this, ptr %this.addr, align 8, !tbaa !127
  store ptr %vtt, ptr %vtt.addr, align 8, !tbaa !114
  %this1 = load ptr, ptr %this.addr, align 8
  %vtt2 = load ptr, ptr %vtt.addr, align 8
  ret void
}

; Function Attrs: mustprogress nounwind uwtable
define linkonce_odr void @_ZNSt12_Vector_baseIiSaIiEEC2Ev(ptr noundef nonnull align 8 dereferenceable(24) %this) unnamed_addr #7 comdat align 2 {
entry:
  %this.addr = alloca ptr, align 8
  store ptr %this, ptr %this.addr, align 8, !tbaa !151
  %this1 = load ptr, ptr %this.addr, align 8
  %_M_impl = getelementptr inbounds nuw %"struct.std::_Vector_base", ptr %this1, i32 0, i32 0
  call void @_ZNSt12_Vector_baseIiSaIiEE12_Vector_implC2Ev(ptr noundef nonnull align 8 dereferenceable(24) %_M_impl) #3
  ret void
}

; Function Attrs: mustprogress nounwind uwtable
define linkonce_odr void @_ZNSt12_Vector_baseIiSaIiEE12_Vector_implC2Ev(ptr noundef nonnull align 8 dereferenceable(24) %this) unnamed_addr #7 comdat align 2 {
entry:
  %this.addr = alloca ptr, align 8
  store ptr %this, ptr %this.addr, align 8, !tbaa !153
  %this1 = load ptr, ptr %this.addr, align 8
  call void @_ZNSaIiEC2Ev(ptr noundef nonnull align 1 dereferenceable(1) %this1) #3
  call void @_ZNSt12_Vector_baseIiSaIiEE17_Vector_impl_dataC2Ev(ptr noundef nonnull align 8 dereferenceable(24) %this1) #3
  ret void
}

; Function Attrs: mustprogress nounwind uwtable
define linkonce_odr void @_ZNSaIiEC2Ev(ptr noundef nonnull align 1 dereferenceable(1) %this) unnamed_addr #7 comdat align 2 {
entry:
  %this.addr = alloca ptr, align 8
  store ptr %this, ptr %this.addr, align 8, !tbaa !155
  %this1 = load ptr, ptr %this.addr, align 8
  call void @_ZNSt15__new_allocatorIiEC2Ev(ptr noundef nonnull align 1 dereferenceable(1) %this1) #3
  ret void
}

; Function Attrs: mustprogress nounwind uwtable
define linkonce_odr void @_ZNSt12_Vector_baseIiSaIiEE17_Vector_impl_dataC2Ev(ptr noundef nonnull align 8 dereferenceable(24) %this) unnamed_addr #7 comdat align 2 {
entry:
  %this.addr = alloca ptr, align 8
  store ptr %this, ptr %this.addr, align 8, !tbaa !157
  %this1 = load ptr, ptr %this.addr, align 8
  %_M_start = getelementptr inbounds nuw %"struct.std::_Vector_base<int, std::allocator<int>>::_Vector_impl_data", ptr %this1, i32 0, i32 0
  store ptr null, ptr %_M_start, align 8, !tbaa !81
  %_M_finish = getelementptr inbounds nuw %"struct.std::_Vector_base<int, std::allocator<int>>::_Vector_impl_data", ptr %this1, i32 0, i32 1
  store ptr null, ptr %_M_finish, align 8, !tbaa !83
  %_M_end_of_storage = getelementptr inbounds nuw %"struct.std::_Vector_base<int, std::allocator<int>>::_Vector_impl_data", ptr %this1, i32 0, i32 2
  store ptr null, ptr %_M_end_of_storage, align 8, !tbaa !90
  ret void
}

; Function Attrs: mustprogress nounwind uwtable
define linkonce_odr void @_ZNSt15__new_allocatorIiEC2Ev(ptr noundef nonnull align 1 dereferenceable(1) %this) unnamed_addr #7 comdat align 2 {
entry:
  %this.addr = alloca ptr, align 8
  store ptr %this, ptr %this.addr, align 8, !tbaa !159
  %this1 = load ptr, ptr %this.addr, align 8
  ret void
}

; Function Attrs: mustprogress uwtable
define available_externally noundef zeroext i1 @_ZNKSt9basic_iosIcSt11char_traitsIcEE4failEv(ptr noundef nonnull align 8 dereferenceable(264) %this) #4 align 2 {
entry:
  %this.addr = alloca ptr, align 8
  store ptr %this, ptr %this.addr, align 8, !tbaa !88
  %this1 = load ptr, ptr %this.addr, align 8
  %call = call noundef i32 @_ZNKSt9basic_iosIcSt11char_traitsIcEE7rdstateEv(ptr noundef nonnull align 8 dereferenceable(264) %this1)
  %call2 = call noundef i32 @_ZStorSt12_Ios_IostateS_(i32 noundef 1, i32 noundef 4)
  %call3 = call noundef i32 @_ZStanSt12_Ios_IostateS_(i32 noundef %call, i32 noundef %call2)
  %cmp = icmp ne i32 %call3, 0
  ret i1 %cmp
}

; Function Attrs: inlinehint mustprogress nounwind uwtable
define linkonce_odr noundef i32 @_ZStanSt12_Ios_IostateS_(i32 noundef %__a, i32 noundef %__b) #8 comdat {
entry:
  %__a.addr = alloca i32, align 4
  %__b.addr = alloca i32, align 4
  store i32 %__a, ptr %__a.addr, align 4, !tbaa !161
  store i32 %__b, ptr %__b.addr, align 4, !tbaa !161
  %0 = load i32, ptr %__a.addr, align 4, !tbaa !161
  %1 = load i32, ptr %__b.addr, align 4, !tbaa !161
  %and = and i32 %0, %1
  ret i32 %and
}

; Function Attrs: mustprogress nounwind uwtable
define available_externally noundef i32 @_ZNKSt9basic_iosIcSt11char_traitsIcEE7rdstateEv(ptr noundef nonnull align 8 dereferenceable(264) %this) #7 align 2 {
entry:
  %this.addr = alloca ptr, align 8
  store ptr %this, ptr %this.addr, align 8, !tbaa !88
  %this1 = load ptr, ptr %this.addr, align 8
  %_M_streambuf_state = getelementptr inbounds nuw %"class.std::ios_base", ptr %this1, i32 0, i32 5
  %0 = load i32, ptr %_M_streambuf_state, align 8, !tbaa !162
  ret i32 %0
}

; Function Attrs: inlinehint mustprogress nounwind uwtable
define linkonce_odr noundef i32 @_ZStorSt12_Ios_IostateS_(i32 noundef %__a, i32 noundef %__b) #8 comdat {
entry:
  %__a.addr = alloca i32, align 4
  %__b.addr = alloca i32, align 4
  store i32 %__a, ptr %__a.addr, align 4, !tbaa !161
  store i32 %__b, ptr %__b.addr, align 4, !tbaa !161
  %0 = load i32, ptr %__a.addr, align 4, !tbaa !161
  %1 = load i32, ptr %__b.addr, align 4, !tbaa !161
  %or = or i32 %0, %1
  ret i32 %or
}

; Function Attrs: mustprogress nounwind uwtable
define linkonce_odr void @_ZNSt16allocator_traitsISaIiEE9constructIiJRKiEEEvRS0_PT_DpOT0_(ptr noundef nonnull align 1 dereferenceable(1) %__a, ptr noundef %__p, ptr noundef nonnull align 4 dereferenceable(4) %__args) #7 comdat align 2 {
entry:
  %__a.addr = alloca ptr, align 8
  %__p.addr = alloca ptr, align 8
  %__args.addr = alloca ptr, align 8
  store ptr %__a, ptr %__a.addr, align 8, !tbaa !155
  store ptr %__p, ptr %__p.addr, align 8, !tbaa !21
  store ptr %__args, ptr %__args.addr, align 8, !tbaa !21
  %0 = load ptr, ptr %__a.addr, align 8, !tbaa !155
  %1 = load ptr, ptr %__p.addr, align 8, !tbaa !21
  %2 = load ptr, ptr %__args.addr, align 8, !tbaa !21
  call void @_ZNSt15__new_allocatorIiE9constructIiJRKiEEEvPT_DpOT0_(ptr noundef nonnull align 1 dereferenceable(1) %0, ptr noundef %1, ptr noundef nonnull align 4 dereferenceable(4) %2) #3
  ret void
}

; Function Attrs: mustprogress uwtable
define linkonce_odr void @_ZNSt6vectorIiSaIiEE17_M_realloc_insertIJRKiEEEvN9__gnu_cxx17__normal_iteratorIPiS1_EEDpOT_(ptr noundef nonnull align 8 dereferenceable(24) %this, ptr %__position.coerce, ptr noundef nonnull align 4 dereferenceable(4) %__args) #4 comdat align 2 {
entry:
  %__position = alloca %"class.__gnu_cxx::__normal_iterator", align 8
  %this.addr = alloca ptr, align 8
  %__args.addr = alloca ptr, align 8
  %__len = alloca i64, align 8
  %__old_start = alloca ptr, align 8
  %__old_finish = alloca ptr, align 8
  %__elems_before = alloca i64, align 8
  %ref.tmp = alloca %"class.__gnu_cxx::__normal_iterator", align 8
  %__new_start = alloca ptr, align 8
  %__new_finish = alloca ptr, align 8
  %coerce.dive = getelementptr inbounds nuw %"class.__gnu_cxx::__normal_iterator", ptr %__position, i32 0, i32 0
  store ptr %__position.coerce, ptr %coerce.dive, align 8
  store ptr %this, ptr %this.addr, align 8, !tbaa !19
  store ptr %__args, ptr %__args.addr, align 8, !tbaa !21
  %this1 = load ptr, ptr %this.addr, align 8
  call void @llvm.lifetime.start.p0(i64 8, ptr %__len) #3
  %call = call noundef i64 @_ZNKSt6vectorIiSaIiEE12_M_check_lenEmPKc(ptr noundef nonnull align 8 dereferenceable(24) %this1, i64 noundef 1, ptr noundef @.str.3)
  store i64 %call, ptr %__len, align 8, !tbaa !54
  call void @llvm.lifetime.start.p0(i64 8, ptr %__old_start) #3
  %_M_impl = getelementptr inbounds nuw %"struct.std::_Vector_base", ptr %this1, i32 0, i32 0
  %_M_start = getelementptr inbounds nuw %"struct.std::_Vector_base<int, std::allocator<int>>::_Vector_impl_data", ptr %_M_impl, i32 0, i32 0
  %0 = load ptr, ptr %_M_start, align 8, !tbaa !81
  store ptr %0, ptr %__old_start, align 8, !tbaa !21
  call void @llvm.lifetime.start.p0(i64 8, ptr %__old_finish) #3
  %_M_impl2 = getelementptr inbounds nuw %"struct.std::_Vector_base", ptr %this1, i32 0, i32 0
  %_M_finish = getelementptr inbounds nuw %"struct.std::_Vector_base<int, std::allocator<int>>::_Vector_impl_data", ptr %_M_impl2, i32 0, i32 1
  %1 = load ptr, ptr %_M_finish, align 8, !tbaa !83
  store ptr %1, ptr %__old_finish, align 8, !tbaa !21
  call void @llvm.lifetime.start.p0(i64 8, ptr %__elems_before) #3
  call void @llvm.lifetime.start.p0(i64 8, ptr %ref.tmp) #3
  %call3 = call ptr @_ZNSt6vectorIiSaIiEE5beginEv(ptr noundef nonnull align 8 dereferenceable(24) %this1) #3
  %coerce.dive4 = getelementptr inbounds nuw %"class.__gnu_cxx::__normal_iterator", ptr %ref.tmp, i32 0, i32 0
  store ptr %call3, ptr %coerce.dive4, align 8
  %call5 = call noundef i64 @_ZN9__gnu_cxxmiIPiSt6vectorIiSaIiEEEENS_17__normal_iteratorIT_T0_E15difference_typeERKS8_SB_(ptr noundef nonnull align 8 dereferenceable(8) %__position, ptr noundef nonnull align 8 dereferenceable(8) %ref.tmp) #3
  call void @llvm.lifetime.end.p0(i64 8, ptr %ref.tmp) #3
  store i64 %call5, ptr %__elems_before, align 8, !tbaa !54
  call void @llvm.lifetime.start.p0(i64 8, ptr %__new_start) #3
  %2 = load i64, ptr %__len, align 8, !tbaa !54
  %call6 = call noundef ptr @_ZNSt12_Vector_baseIiSaIiEE11_M_allocateEm(ptr noundef nonnull align 8 dereferenceable(24) %this1, i64 noundef %2)
  store ptr %call6, ptr %__new_start, align 8, !tbaa !21
  call void @llvm.lifetime.start.p0(i64 8, ptr %__new_finish) #3
  %3 = load ptr, ptr %__new_start, align 8, !tbaa !21
  store ptr %3, ptr %__new_finish, align 8, !tbaa !21
  %_M_impl7 = getelementptr inbounds nuw %"struct.std::_Vector_base", ptr %this1, i32 0, i32 0
  %4 = load ptr, ptr %__new_start, align 8, !tbaa !21
  %5 = load i64, ptr %__elems_before, align 8, !tbaa !54
  %add.ptr = getelementptr inbounds nuw i32, ptr %4, i64 %5
  %6 = load ptr, ptr %__args.addr, align 8, !tbaa !21
  call void @_ZNSt16allocator_traitsISaIiEE9constructIiJRKiEEEvRS0_PT_DpOT0_(ptr noundef nonnull align 1 dereferenceable(1) %_M_impl7, ptr noundef %add.ptr, ptr noundef nonnull align 4 dereferenceable(4) %6) #3
  store ptr null, ptr %__new_finish, align 8, !tbaa !21
  %7 = load ptr, ptr %__old_start, align 8, !tbaa !21
  %call8 = call noundef nonnull align 8 dereferenceable(8) ptr @_ZNK9__gnu_cxx17__normal_iteratorIPiSt6vectorIiSaIiEEE4baseEv(ptr noundef nonnull align 8 dereferenceable(8) %__position) #3
  %8 = load ptr, ptr %call8, align 8, !tbaa !21
  %9 = load ptr, ptr %__new_start, align 8, !tbaa !21
  %call9 = call noundef nonnull align 1 dereferenceable(1) ptr @_ZNSt12_Vector_baseIiSaIiEE19_M_get_Tp_allocatorEv(ptr noundef nonnull align 8 dereferenceable(24) %this1) #3
  %call10 = call noundef ptr @_ZNSt6vectorIiSaIiEE11_S_relocateEPiS2_S2_RS0_(ptr noundef %7, ptr noundef %8, ptr noundef %9, ptr noundef nonnull align 1 dereferenceable(1) %call9) #3
  store ptr %call10, ptr %__new_finish, align 8, !tbaa !21
  %10 = load ptr, ptr %__new_finish, align 8, !tbaa !21
  %incdec.ptr = getelementptr inbounds nuw i32, ptr %10, i32 1
  store ptr %incdec.ptr, ptr %__new_finish, align 8, !tbaa !21
  %call11 = call noundef nonnull align 8 dereferenceable(8) ptr @_ZNK9__gnu_cxx17__normal_iteratorIPiSt6vectorIiSaIiEEE4baseEv(ptr noundef nonnull align 8 dereferenceable(8) %__position) #3
  %11 = load ptr, ptr %call11, align 8, !tbaa !21
  %12 = load ptr, ptr %__old_finish, align 8, !tbaa !21
  %13 = load ptr, ptr %__new_finish, align 8, !tbaa !21
  %call12 = call noundef nonnull align 1 dereferenceable(1) ptr @_ZNSt12_Vector_baseIiSaIiEE19_M_get_Tp_allocatorEv(ptr noundef nonnull align 8 dereferenceable(24) %this1) #3
  %call13 = call noundef ptr @_ZNSt6vectorIiSaIiEE11_S_relocateEPiS2_S2_RS0_(ptr noundef %11, ptr noundef %12, ptr noundef %13, ptr noundef nonnull align 1 dereferenceable(1) %call12) #3
  store ptr %call13, ptr %__new_finish, align 8, !tbaa !21
  %14 = load ptr, ptr %__old_start, align 8, !tbaa !21
  %_M_impl14 = getelementptr inbounds nuw %"struct.std::_Vector_base", ptr %this1, i32 0, i32 0
  %_M_end_of_storage = getelementptr inbounds nuw %"struct.std::_Vector_base<int, std::allocator<int>>::_Vector_impl_data", ptr %_M_impl14, i32 0, i32 2
  %15 = load ptr, ptr %_M_end_of_storage, align 8, !tbaa !90
  %16 = load ptr, ptr %__old_start, align 8, !tbaa !21
  %sub.ptr.lhs.cast = ptrtoint ptr %15 to i64
  %sub.ptr.rhs.cast = ptrtoint ptr %16 to i64
  %sub.ptr.sub = sub i64 %sub.ptr.lhs.cast, %sub.ptr.rhs.cast
  %sub.ptr.div = sdiv exact i64 %sub.ptr.sub, 4
  call void @_ZNSt12_Vector_baseIiSaIiEE13_M_deallocateEPim(ptr noundef nonnull align 8 dereferenceable(24) %this1, ptr noundef %14, i64 noundef %sub.ptr.div)
  %17 = load ptr, ptr %__new_start, align 8, !tbaa !21
  %_M_impl15 = getelementptr inbounds nuw %"struct.std::_Vector_base", ptr %this1, i32 0, i32 0
  %_M_start16 = getelementptr inbounds nuw %"struct.std::_Vector_base<int, std::allocator<int>>::_Vector_impl_data", ptr %_M_impl15, i32 0, i32 0
  store ptr %17, ptr %_M_start16, align 8, !tbaa !81
  %18 = load ptr, ptr %__new_finish, align 8, !tbaa !21
  %_M_impl17 = getelementptr inbounds nuw %"struct.std::_Vector_base", ptr %this1, i32 0, i32 0
  %_M_finish18 = getelementptr inbounds nuw %"struct.std::_Vector_base<int, std::allocator<int>>::_Vector_impl_data", ptr %_M_impl17, i32 0, i32 1
  store ptr %18, ptr %_M_finish18, align 8, !tbaa !83
  %19 = load ptr, ptr %__new_start, align 8, !tbaa !21
  %20 = load i64, ptr %__len, align 8, !tbaa !54
  %add.ptr19 = getelementptr inbounds nuw i32, ptr %19, i64 %20
  %_M_impl20 = getelementptr inbounds nuw %"struct.std::_Vector_base", ptr %this1, i32 0, i32 0
  %_M_end_of_storage21 = getelementptr inbounds nuw %"struct.std::_Vector_base<int, std::allocator<int>>::_Vector_impl_data", ptr %_M_impl20, i32 0, i32 2
  store ptr %add.ptr19, ptr %_M_end_of_storage21, align 8, !tbaa !90
  call void @llvm.lifetime.end.p0(i64 8, ptr %__new_finish) #3
  call void @llvm.lifetime.end.p0(i64 8, ptr %__new_start) #3
  call void @llvm.lifetime.end.p0(i64 8, ptr %__elems_before) #3
  call void @llvm.lifetime.end.p0(i64 8, ptr %__old_finish) #3
  call void @llvm.lifetime.end.p0(i64 8, ptr %__old_start) #3
  call void @llvm.lifetime.end.p0(i64 8, ptr %__len) #3
  ret void
}

; Function Attrs: mustprogress nounwind uwtable
define linkonce_odr void @_ZNSt15__new_allocatorIiE9constructIiJRKiEEEvPT_DpOT0_(ptr noundef nonnull align 1 dereferenceable(1) %this, ptr noundef %__p, ptr noundef nonnull align 4 dereferenceable(4) %__args) #7 comdat align 2 {
entry:
  %this.addr = alloca ptr, align 8
  %__p.addr = alloca ptr, align 8
  %__args.addr = alloca ptr, align 8
  store ptr %this, ptr %this.addr, align 8, !tbaa !159
  store ptr %__p, ptr %__p.addr, align 8, !tbaa !21
  store ptr %__args, ptr %__args.addr, align 8, !tbaa !21
  %this1 = load ptr, ptr %this.addr, align 8
  %0 = load ptr, ptr %__p.addr, align 8, !tbaa !21
  %1 = load ptr, ptr %__args.addr, align 8, !tbaa !21
  %2 = load i32, ptr %1, align 4, !tbaa !26
  store i32 %2, ptr %0, align 4, !tbaa !26
  ret void
}

; Function Attrs: mustprogress uwtable
define linkonce_odr noundef i64 @_ZNKSt6vectorIiSaIiEE12_M_check_lenEmPKc(ptr noundef nonnull align 8 dereferenceable(24) %this, i64 noundef %__n, ptr noundef %__s) #4 comdat align 2 {
entry:
  %this.addr = alloca ptr, align 8
  %__n.addr = alloca i64, align 8
  %__s.addr = alloca ptr, align 8
  %__len = alloca i64, align 8
  %ref.tmp = alloca i64, align 8
  store ptr %this, ptr %this.addr, align 8, !tbaa !19
  store i64 %__n, ptr %__n.addr, align 8, !tbaa !54
  store ptr %__s, ptr %__s.addr, align 8, !tbaa !27
  %this1 = load ptr, ptr %this.addr, align 8
  %call = call noundef i64 @_ZNKSt6vectorIiSaIiEE8max_sizeEv(ptr noundef nonnull align 8 dereferenceable(24) %this1) #3
  %call2 = call noundef i64 @_ZNKSt6vectorIiSaIiEE4sizeEv(ptr noundef nonnull align 8 dereferenceable(24) %this1) #3
  %sub = sub i64 %call, %call2
  %0 = load i64, ptr %__n.addr, align 8, !tbaa !54
  %cmp = icmp ult i64 %sub, %0
  br i1 %cmp, label %if.then, label %if.end

if.then:                                          ; preds = %entry
  %1 = load ptr, ptr %__s.addr, align 8, !tbaa !27
  call void @_ZSt20__throw_length_errorPKc(ptr noundef %1) #25
  unreachable

if.end:                                           ; preds = %entry
  call void @llvm.lifetime.start.p0(i64 8, ptr %__len) #3
  %call3 = call noundef i64 @_ZNKSt6vectorIiSaIiEE4sizeEv(ptr noundef nonnull align 8 dereferenceable(24) %this1) #3
  call void @llvm.lifetime.start.p0(i64 8, ptr %ref.tmp) #3
  %call4 = call noundef i64 @_ZNKSt6vectorIiSaIiEE4sizeEv(ptr noundef nonnull align 8 dereferenceable(24) %this1) #3
  store i64 %call4, ptr %ref.tmp, align 8, !tbaa !54
  %call5 = call noundef nonnull align 8 dereferenceable(8) ptr @_ZSt3maxImERKT_S2_S2_(ptr noundef nonnull align 8 dereferenceable(8) %ref.tmp, ptr noundef nonnull align 8 dereferenceable(8) %__n.addr)
  %2 = load i64, ptr %call5, align 8, !tbaa !54
  %add = add i64 %call3, %2
  call void @llvm.lifetime.end.p0(i64 8, ptr %ref.tmp) #3
  store i64 %add, ptr %__len, align 8, !tbaa !54
  %3 = load i64, ptr %__len, align 8, !tbaa !54
  %call6 = call noundef i64 @_ZNKSt6vectorIiSaIiEE4sizeEv(ptr noundef nonnull align 8 dereferenceable(24) %this1) #3
  %cmp7 = icmp ult i64 %3, %call6
  br i1 %cmp7, label %cond.true, label %lor.lhs.false

lor.lhs.false:                                    ; preds = %if.end
  %4 = load i64, ptr %__len, align 8, !tbaa !54
  %call8 = call noundef i64 @_ZNKSt6vectorIiSaIiEE8max_sizeEv(ptr noundef nonnull align 8 dereferenceable(24) %this1) #3
  %cmp9 = icmp ugt i64 %4, %call8
  br i1 %cmp9, label %cond.true, label %cond.false

cond.true:                                        ; preds = %lor.lhs.false, %if.end
  %call10 = call noundef i64 @_ZNKSt6vectorIiSaIiEE8max_sizeEv(ptr noundef nonnull align 8 dereferenceable(24) %this1) #3
  br label %cond.end

cond.false:                                       ; preds = %lor.lhs.false
  %5 = load i64, ptr %__len, align 8, !tbaa !54
  br label %cond.end

cond.end:                                         ; preds = %cond.false, %cond.true
  %cond = phi i64 [ %call10, %cond.true ], [ %5, %cond.false ]
  call void @llvm.lifetime.end.p0(i64 8, ptr %__len) #3
  ret i64 %cond
}

; Function Attrs: inlinehint mustprogress nounwind uwtable
define linkonce_odr noundef i64 @_ZN9__gnu_cxxmiIPiSt6vectorIiSaIiEEEENS_17__normal_iteratorIT_T0_E15difference_typeERKS8_SB_(ptr noundef nonnull align 8 dereferenceable(8) %__lhs, ptr noundef nonnull align 8 dereferenceable(8) %__rhs) #8 comdat {
entry:
  %__lhs.addr = alloca ptr, align 8
  %__rhs.addr = alloca ptr, align 8
  store ptr %__lhs, ptr %__lhs.addr, align 8, !tbaa !37
  store ptr %__rhs, ptr %__rhs.addr, align 8, !tbaa !37
  %0 = load ptr, ptr %__lhs.addr, align 8, !tbaa !37
  %call = call noundef nonnull align 8 dereferenceable(8) ptr @_ZNK9__gnu_cxx17__normal_iteratorIPiSt6vectorIiSaIiEEE4baseEv(ptr noundef nonnull align 8 dereferenceable(8) %0) #3
  %1 = load ptr, ptr %call, align 8, !tbaa !21
  %2 = load ptr, ptr %__rhs.addr, align 8, !tbaa !37
  %call1 = call noundef nonnull align 8 dereferenceable(8) ptr @_ZNK9__gnu_cxx17__normal_iteratorIPiSt6vectorIiSaIiEEE4baseEv(ptr noundef nonnull align 8 dereferenceable(8) %2) #3
  %3 = load ptr, ptr %call1, align 8, !tbaa !21
  %sub.ptr.lhs.cast = ptrtoint ptr %1 to i64
  %sub.ptr.rhs.cast = ptrtoint ptr %3 to i64
  %sub.ptr.sub = sub i64 %sub.ptr.lhs.cast, %sub.ptr.rhs.cast
  %sub.ptr.div = sdiv exact i64 %sub.ptr.sub, 4
  ret i64 %sub.ptr.div
}

; Function Attrs: mustprogress uwtable
define linkonce_odr noundef ptr @_ZNSt12_Vector_baseIiSaIiEE11_M_allocateEm(ptr noundef nonnull align 8 dereferenceable(24) %this, i64 noundef %__n) #4 comdat align 2 {
entry:
  %this.addr = alloca ptr, align 8
  %__n.addr = alloca i64, align 8
  store ptr %this, ptr %this.addr, align 8, !tbaa !151
  store i64 %__n, ptr %__n.addr, align 8, !tbaa !54
  %this1 = load ptr, ptr %this.addr, align 8
  %0 = load i64, ptr %__n.addr, align 8, !tbaa !54
  %cmp = icmp ne i64 %0, 0
  br i1 %cmp, label %cond.true, label %cond.false

cond.true:                                        ; preds = %entry
  %_M_impl = getelementptr inbounds nuw %"struct.std::_Vector_base", ptr %this1, i32 0, i32 0
  %1 = load i64, ptr %__n.addr, align 8, !tbaa !54
  %call = call noundef ptr @_ZNSt16allocator_traitsISaIiEE8allocateERS0_m(ptr noundef nonnull align 1 dereferenceable(1) %_M_impl, i64 noundef %1)
  br label %cond.end

cond.false:                                       ; preds = %entry
  br label %cond.end

cond.end:                                         ; preds = %cond.false, %cond.true
  %cond = phi ptr [ %call, %cond.true ], [ null, %cond.false ]
  ret ptr %cond
}

; Function Attrs: mustprogress nounwind uwtable
define linkonce_odr noundef ptr @_ZNSt6vectorIiSaIiEE11_S_relocateEPiS2_S2_RS0_(ptr noundef %__first, ptr noundef %__last, ptr noundef %__result, ptr noundef nonnull align 1 dereferenceable(1) %__alloc) #7 comdat align 2 {
entry:
  %__first.addr = alloca ptr, align 8
  %__last.addr = alloca ptr, align 8
  %__result.addr = alloca ptr, align 8
  %__alloc.addr = alloca ptr, align 8
  store ptr %__first, ptr %__first.addr, align 8, !tbaa !21
  store ptr %__last, ptr %__last.addr, align 8, !tbaa !21
  store ptr %__result, ptr %__result.addr, align 8, !tbaa !21
  store ptr %__alloc, ptr %__alloc.addr, align 8, !tbaa !155
  %0 = load ptr, ptr %__first.addr, align 8, !tbaa !21
  %1 = load ptr, ptr %__last.addr, align 8, !tbaa !21
  %2 = load ptr, ptr %__result.addr, align 8, !tbaa !21
  %3 = load ptr, ptr %__alloc.addr, align 8, !tbaa !155
  %call = call noundef ptr @_ZSt12__relocate_aIPiS0_SaIiEET0_T_S3_S2_RT1_(ptr noundef %0, ptr noundef %1, ptr noundef %2, ptr noundef nonnull align 1 dereferenceable(1) %3) #3
  ret ptr %call
}

; Function Attrs: mustprogress nounwind uwtable
define linkonce_odr noundef nonnull align 8 dereferenceable(8) ptr @_ZNK9__gnu_cxx17__normal_iteratorIPiSt6vectorIiSaIiEEE4baseEv(ptr noundef nonnull align 8 dereferenceable(8) %this) #7 comdat align 2 {
entry:
  %this.addr = alloca ptr, align 8
  store ptr %this, ptr %this.addr, align 8, !tbaa !37
  %this1 = load ptr, ptr %this.addr, align 8
  %_M_current = getelementptr inbounds nuw %"class.__gnu_cxx::__normal_iterator", ptr %this1, i32 0, i32 0
  ret ptr %_M_current
}

; Function Attrs: mustprogress nounwind uwtable
define linkonce_odr noundef nonnull align 1 dereferenceable(1) ptr @_ZNSt12_Vector_baseIiSaIiEE19_M_get_Tp_allocatorEv(ptr noundef nonnull align 8 dereferenceable(24) %this) #7 comdat align 2 {
entry:
  %this.addr = alloca ptr, align 8
  store ptr %this, ptr %this.addr, align 8, !tbaa !151
  %this1 = load ptr, ptr %this.addr, align 8
  %_M_impl = getelementptr inbounds nuw %"struct.std::_Vector_base", ptr %this1, i32 0, i32 0
  ret ptr %_M_impl
}

; Function Attrs: mustprogress uwtable
define linkonce_odr void @_ZNSt12_Vector_baseIiSaIiEE13_M_deallocateEPim(ptr noundef nonnull align 8 dereferenceable(24) %this, ptr noundef %__p, i64 noundef %__n) #4 comdat align 2 {
entry:
  %this.addr = alloca ptr, align 8
  %__p.addr = alloca ptr, align 8
  %__n.addr = alloca i64, align 8
  store ptr %this, ptr %this.addr, align 8, !tbaa !151
  store ptr %__p, ptr %__p.addr, align 8, !tbaa !21
  store i64 %__n, ptr %__n.addr, align 8, !tbaa !54
  %this1 = load ptr, ptr %this.addr, align 8
  %0 = load ptr, ptr %__p.addr, align 8, !tbaa !21
  %tobool = icmp ne ptr %0, null
  br i1 %tobool, label %if.then, label %if.end

if.then:                                          ; preds = %entry
  %_M_impl = getelementptr inbounds nuw %"struct.std::_Vector_base", ptr %this1, i32 0, i32 0
  %1 = load ptr, ptr %__p.addr, align 8, !tbaa !21
  %2 = load i64, ptr %__n.addr, align 8, !tbaa !54
  call void @_ZNSt16allocator_traitsISaIiEE10deallocateERS0_Pim(ptr noundef nonnull align 1 dereferenceable(1) %_M_impl, ptr noundef %1, i64 noundef %2)
  br label %if.end

if.end:                                           ; preds = %if.then, %entry
  ret void
}

; Function Attrs: mustprogress nounwind uwtable
define linkonce_odr noundef i64 @_ZNKSt6vectorIiSaIiEE8max_sizeEv(ptr noundef nonnull align 8 dereferenceable(24) %this) #7 comdat align 2 {
entry:
  %this.addr = alloca ptr, align 8
  store ptr %this, ptr %this.addr, align 8, !tbaa !19
  %this1 = load ptr, ptr %this.addr, align 8
  %call = call noundef nonnull align 1 dereferenceable(1) ptr @_ZNKSt12_Vector_baseIiSaIiEE19_M_get_Tp_allocatorEv(ptr noundef nonnull align 8 dereferenceable(24) %this1) #3
  %call2 = call noundef i64 @_ZNSt6vectorIiSaIiEE11_S_max_sizeERKS0_(ptr noundef nonnull align 1 dereferenceable(1) %call) #3
  ret i64 %call2
}

; Function Attrs: mustprogress nounwind uwtable
define linkonce_odr noundef i64 @_ZNKSt6vectorIiSaIiEE4sizeEv(ptr noundef nonnull align 8 dereferenceable(24) %this) #7 comdat align 2 {
entry:
  %this.addr = alloca ptr, align 8
  store ptr %this, ptr %this.addr, align 8, !tbaa !19
  %this1 = load ptr, ptr %this.addr, align 8
  %_M_impl = getelementptr inbounds nuw %"struct.std::_Vector_base", ptr %this1, i32 0, i32 0
  %_M_finish = getelementptr inbounds nuw %"struct.std::_Vector_base<int, std::allocator<int>>::_Vector_impl_data", ptr %_M_impl, i32 0, i32 1
  %0 = load ptr, ptr %_M_finish, align 8, !tbaa !83
  %_M_impl2 = getelementptr inbounds nuw %"struct.std::_Vector_base", ptr %this1, i32 0, i32 0
  %_M_start = getelementptr inbounds nuw %"struct.std::_Vector_base<int, std::allocator<int>>::_Vector_impl_data", ptr %_M_impl2, i32 0, i32 0
  %1 = load ptr, ptr %_M_start, align 8, !tbaa !81
  %sub.ptr.lhs.cast = ptrtoint ptr %0 to i64
  %sub.ptr.rhs.cast = ptrtoint ptr %1 to i64
  %sub.ptr.sub = sub i64 %sub.ptr.lhs.cast, %sub.ptr.rhs.cast
  %sub.ptr.div = sdiv exact i64 %sub.ptr.sub, 4
  ret i64 %sub.ptr.div
}

; Function Attrs: noreturn
declare void @_ZSt20__throw_length_errorPKc(ptr noundef) #11

; Function Attrs: inlinehint mustprogress nounwind uwtable
define linkonce_odr noundef nonnull align 8 dereferenceable(8) ptr @_ZSt3maxImERKT_S2_S2_(ptr noundef nonnull align 8 dereferenceable(8) %__a, ptr noundef nonnull align 8 dereferenceable(8) %__b) #8 comdat {
entry:
  %retval = alloca ptr, align 8
  %__a.addr = alloca ptr, align 8
  %__b.addr = alloca ptr, align 8
  store ptr %__a, ptr %__a.addr, align 8, !tbaa !163
  store ptr %__b, ptr %__b.addr, align 8, !tbaa !163
  %0 = load ptr, ptr %__a.addr, align 8, !tbaa !163
  %1 = load i64, ptr %0, align 8, !tbaa !54
  %2 = load ptr, ptr %__b.addr, align 8, !tbaa !163
  %3 = load i64, ptr %2, align 8, !tbaa !54
  %cmp = icmp ult i64 %1, %3
  br i1 %cmp, label %if.then, label %if.end

if.then:                                          ; preds = %entry
  %4 = load ptr, ptr %__b.addr, align 8, !tbaa !163
  store ptr %4, ptr %retval, align 8
  br label %return

if.end:                                           ; preds = %entry
  %5 = load ptr, ptr %__a.addr, align 8, !tbaa !163
  store ptr %5, ptr %retval, align 8
  br label %return

return:                                           ; preds = %if.end, %if.then
  %6 = load ptr, ptr %retval, align 8
  ret ptr %6
}

; Function Attrs: mustprogress nounwind uwtable
define linkonce_odr noundef i64 @_ZNSt6vectorIiSaIiEE11_S_max_sizeERKS0_(ptr noundef nonnull align 1 dereferenceable(1) %__a) #7 comdat align 2 personality ptr @__gxx_personality_v0 {
entry:
  %__a.addr = alloca ptr, align 8
  %__diffmax = alloca i64, align 8
  %__allocmax = alloca i64, align 8
  store ptr %__a, ptr %__a.addr, align 8, !tbaa !155
  call void @llvm.lifetime.start.p0(i64 8, ptr %__diffmax) #3
  store i64 2305843009213693951, ptr %__diffmax, align 8, !tbaa !54
  call void @llvm.lifetime.start.p0(i64 8, ptr %__allocmax) #3
  %0 = load ptr, ptr %__a.addr, align 8, !tbaa !155
  %call = call noundef i64 @_ZNSt16allocator_traitsISaIiEE8max_sizeERKS0_(ptr noundef nonnull align 1 dereferenceable(1) %0) #3
  store i64 %call, ptr %__allocmax, align 8, !tbaa !54
  %call1 = invoke noundef nonnull align 8 dereferenceable(8) ptr @_ZSt3minImERKT_S2_S2_(ptr noundef nonnull align 8 dereferenceable(8) %__diffmax, ptr noundef nonnull align 8 dereferenceable(8) %__allocmax)
          to label %invoke.cont unwind label %terminate.lpad

invoke.cont:                                      ; preds = %entry
  %1 = load i64, ptr %call1, align 8, !tbaa !54
  call void @llvm.lifetime.end.p0(i64 8, ptr %__allocmax) #3
  call void @llvm.lifetime.end.p0(i64 8, ptr %__diffmax) #3
  ret i64 %1

terminate.lpad:                                   ; preds = %entry
  %2 = landingpad { ptr, i32 }
          catch ptr null
  %3 = extractvalue { ptr, i32 } %2, 0
  call void @__clang_call_terminate(ptr %3) #26
  unreachable
}

; Function Attrs: mustprogress nounwind uwtable
define linkonce_odr noundef nonnull align 1 dereferenceable(1) ptr @_ZNKSt12_Vector_baseIiSaIiEE19_M_get_Tp_allocatorEv(ptr noundef nonnull align 8 dereferenceable(24) %this) #7 comdat align 2 {
entry:
  %this.addr = alloca ptr, align 8
  store ptr %this, ptr %this.addr, align 8, !tbaa !151
  %this1 = load ptr, ptr %this.addr, align 8
  %_M_impl = getelementptr inbounds nuw %"struct.std::_Vector_base", ptr %this1, i32 0, i32 0
  ret ptr %_M_impl
}

; Function Attrs: mustprogress nounwind uwtable
define linkonce_odr noundef i64 @_ZNSt16allocator_traitsISaIiEE8max_sizeERKS0_(ptr noundef nonnull align 1 dereferenceable(1) %__a) #7 comdat align 2 {
entry:
  %__a.addr = alloca ptr, align 8
  store ptr %__a, ptr %__a.addr, align 8, !tbaa !155
  %0 = load ptr, ptr %__a.addr, align 8, !tbaa !155
  %call = call noundef i64 @_ZNKSt15__new_allocatorIiE8max_sizeEv(ptr noundef nonnull align 1 dereferenceable(1) %0) #3
  ret i64 %call
}

; Function Attrs: inlinehint mustprogress nounwind uwtable
define linkonce_odr noundef nonnull align 8 dereferenceable(8) ptr @_ZSt3minImERKT_S2_S2_(ptr noundef nonnull align 8 dereferenceable(8) %__a, ptr noundef nonnull align 8 dereferenceable(8) %__b) #8 comdat {
entry:
  %retval = alloca ptr, align 8
  %__a.addr = alloca ptr, align 8
  %__b.addr = alloca ptr, align 8
  store ptr %__a, ptr %__a.addr, align 8, !tbaa !163
  store ptr %__b, ptr %__b.addr, align 8, !tbaa !163
  %0 = load ptr, ptr %__b.addr, align 8, !tbaa !163
  %1 = load i64, ptr %0, align 8, !tbaa !54
  %2 = load ptr, ptr %__a.addr, align 8, !tbaa !163
  %3 = load i64, ptr %2, align 8, !tbaa !54
  %cmp = icmp ult i64 %1, %3
  br i1 %cmp, label %if.then, label %if.end

if.then:                                          ; preds = %entry
  %4 = load ptr, ptr %__b.addr, align 8, !tbaa !163
  store ptr %4, ptr %retval, align 8
  br label %return

if.end:                                           ; preds = %entry
  %5 = load ptr, ptr %__a.addr, align 8, !tbaa !163
  store ptr %5, ptr %retval, align 8
  br label %return

return:                                           ; preds = %if.end, %if.then
  %6 = load ptr, ptr %retval, align 8
  ret ptr %6
}

; Function Attrs: mustprogress nounwind uwtable
define linkonce_odr noundef i64 @_ZNKSt15__new_allocatorIiE8max_sizeEv(ptr noundef nonnull align 1 dereferenceable(1) %this) #7 comdat align 2 {
entry:
  %this.addr = alloca ptr, align 8
  store ptr %this, ptr %this.addr, align 8, !tbaa !159
  %this1 = load ptr, ptr %this.addr, align 8
  %call = call noundef i64 @_ZNKSt15__new_allocatorIiE11_M_max_sizeEv(ptr noundef nonnull align 1 dereferenceable(1) %this1) #3
  ret i64 %call
}

; Function Attrs: mustprogress nounwind uwtable
define linkonce_odr noundef i64 @_ZNKSt15__new_allocatorIiE11_M_max_sizeEv(ptr noundef nonnull align 1 dereferenceable(1) %this) #7 comdat align 2 {
entry:
  %this.addr = alloca ptr, align 8
  store ptr %this, ptr %this.addr, align 8, !tbaa !159
  %this1 = load ptr, ptr %this.addr, align 8
  ret i64 2305843009213693951
}

; Function Attrs: mustprogress uwtable
define linkonce_odr noundef ptr @_ZNSt16allocator_traitsISaIiEE8allocateERS0_m(ptr noundef nonnull align 1 dereferenceable(1) %__a, i64 noundef %__n) #4 comdat align 2 {
entry:
  %__a.addr = alloca ptr, align 8
  %__n.addr = alloca i64, align 8
  store ptr %__a, ptr %__a.addr, align 8, !tbaa !155
  store i64 %__n, ptr %__n.addr, align 8, !tbaa !54
  %0 = load ptr, ptr %__a.addr, align 8, !tbaa !155
  %1 = load i64, ptr %__n.addr, align 8, !tbaa !54
  %call = call noundef ptr @_ZNSt15__new_allocatorIiE8allocateEmPKv(ptr noundef nonnull align 1 dereferenceable(1) %0, i64 noundef %1, ptr noundef null)
  ret ptr %call
}

; Function Attrs: mustprogress uwtable
define linkonce_odr noundef ptr @_ZNSt15__new_allocatorIiE8allocateEmPKv(ptr noundef nonnull align 1 dereferenceable(1) %this, i64 noundef %__n, ptr noundef %0) #4 comdat align 2 {
entry:
  %this.addr = alloca ptr, align 8
  %__n.addr = alloca i64, align 8
  %.addr = alloca ptr, align 8
  store ptr %this, ptr %this.addr, align 8, !tbaa !159
  store i64 %__n, ptr %__n.addr, align 8, !tbaa !54
  store ptr %0, ptr %.addr, align 8, !tbaa !165
  %this1 = load ptr, ptr %this.addr, align 8
  %1 = load i64, ptr %__n.addr, align 8, !tbaa !54
  %call = call noundef i64 @_ZNKSt15__new_allocatorIiE11_M_max_sizeEv(ptr noundef nonnull align 1 dereferenceable(1) %this1) #3
  %cmp = icmp ugt i64 %1, %call
  %conv = zext i1 %cmp to i64
  %expval = call i64 @llvm.expect.i64(i64 %conv, i64 0)
  %tobool = icmp ne i64 %expval, 0
  br i1 %tobool, label %if.then, label %if.end4

if.then:                                          ; preds = %entry
  %2 = load i64, ptr %__n.addr, align 8, !tbaa !54
  %cmp2 = icmp ugt i64 %2, 4611686018427387903
  br i1 %cmp2, label %if.then3, label %if.end

if.then3:                                         ; preds = %if.then
  call void @_ZSt28__throw_bad_array_new_lengthv() #25
  unreachable

if.end:                                           ; preds = %if.then
  call void @_ZSt17__throw_bad_allocv() #25
  unreachable

if.end4:                                          ; preds = %entry
  %3 = load i64, ptr %__n.addr, align 8, !tbaa !54
  %mul = mul i64 %3, 4
  %call5 = call noalias noundef nonnull ptr @_Znwm(i64 noundef %mul) #28
  ret ptr %call5
}

; Function Attrs: nocallback nofree nosync nounwind willreturn memory(none)
declare i64 @llvm.expect.i64(i64, i64) #14

; Function Attrs: noreturn
declare void @_ZSt28__throw_bad_array_new_lengthv() #11

; Function Attrs: noreturn
declare void @_ZSt17__throw_bad_allocv() #11

; Function Attrs: nobuiltin allocsize(0)
declare noundef nonnull ptr @_Znwm(i64 noundef) #15

; Function Attrs: inlinehint mustprogress nounwind uwtable
define linkonce_odr noundef ptr @_ZSt12__relocate_aIPiS0_SaIiEET0_T_S3_S2_RT1_(ptr noundef %__first, ptr noundef %__last, ptr noundef %__result, ptr noundef nonnull align 1 dereferenceable(1) %__alloc) #8 comdat {
entry:
  %__first.addr = alloca ptr, align 8
  %__last.addr = alloca ptr, align 8
  %__result.addr = alloca ptr, align 8
  %__alloc.addr = alloca ptr, align 8
  store ptr %__first, ptr %__first.addr, align 8, !tbaa !21
  store ptr %__last, ptr %__last.addr, align 8, !tbaa !21
  store ptr %__result, ptr %__result.addr, align 8, !tbaa !21
  store ptr %__alloc, ptr %__alloc.addr, align 8, !tbaa !155
  %0 = load ptr, ptr %__first.addr, align 8, !tbaa !21
  %call = call noundef ptr @_ZSt12__niter_baseIPiET_S1_(ptr noundef %0) #3
  %1 = load ptr, ptr %__last.addr, align 8, !tbaa !21
  %call1 = call noundef ptr @_ZSt12__niter_baseIPiET_S1_(ptr noundef %1) #3
  %2 = load ptr, ptr %__result.addr, align 8, !tbaa !21
  %call2 = call noundef ptr @_ZSt12__niter_baseIPiET_S1_(ptr noundef %2) #3
  %3 = load ptr, ptr %__alloc.addr, align 8, !tbaa !155
  %call3 = call noundef ptr @_ZSt14__relocate_a_1IiiENSt9enable_ifIXsr3std24__is_bitwise_relocatableIT_EE5valueEPS1_E4typeES2_S2_S2_RSaIT0_E(ptr noundef %call, ptr noundef %call1, ptr noundef %call2, ptr noundef nonnull align 1 dereferenceable(1) %3) #3
  ret ptr %call3
}

; Function Attrs: inlinehint mustprogress nounwind uwtable
define linkonce_odr noundef ptr @_ZSt14__relocate_a_1IiiENSt9enable_ifIXsr3std24__is_bitwise_relocatableIT_EE5valueEPS1_E4typeES2_S2_S2_RSaIT0_E(ptr noundef %__first, ptr noundef %__last, ptr noundef %__result, ptr noundef nonnull align 1 dereferenceable(1) %__alloc) #8 comdat {
entry:
  %__first.addr = alloca ptr, align 8
  %__last.addr = alloca ptr, align 8
  %__result.addr = alloca ptr, align 8
  %__alloc.addr = alloca ptr, align 8
  %__count = alloca i64, align 8
  store ptr %__first, ptr %__first.addr, align 8, !tbaa !21
  store ptr %__last, ptr %__last.addr, align 8, !tbaa !21
  store ptr %__result, ptr %__result.addr, align 8, !tbaa !21
  store ptr %__alloc, ptr %__alloc.addr, align 8, !tbaa !155
  call void @llvm.lifetime.start.p0(i64 8, ptr %__count) #3
  %0 = load ptr, ptr %__last.addr, align 8, !tbaa !21
  %1 = load ptr, ptr %__first.addr, align 8, !tbaa !21
  %sub.ptr.lhs.cast = ptrtoint ptr %0 to i64
  %sub.ptr.rhs.cast = ptrtoint ptr %1 to i64
  %sub.ptr.sub = sub i64 %sub.ptr.lhs.cast, %sub.ptr.rhs.cast
  %sub.ptr.div = sdiv exact i64 %sub.ptr.sub, 4
  store i64 %sub.ptr.div, ptr %__count, align 8, !tbaa !54
  %2 = load i64, ptr %__count, align 8, !tbaa !54
  %cmp = icmp sgt i64 %2, 0
  br i1 %cmp, label %if.then, label %if.end

if.then:                                          ; preds = %entry
  %3 = load ptr, ptr %__result.addr, align 8, !tbaa !21
  %4 = load ptr, ptr %__first.addr, align 8, !tbaa !21
  %5 = load i64, ptr %__count, align 8, !tbaa !54
  %mul = mul i64 %5, 4
  call void @llvm.memmove.p0.p0.i64(ptr align 4 %3, ptr align 4 %4, i64 %mul, i1 false)
  br label %if.end

if.end:                                           ; preds = %if.then, %entry
  %6 = load ptr, ptr %__result.addr, align 8, !tbaa !21
  %7 = load i64, ptr %__count, align 8, !tbaa !54
  %add.ptr = getelementptr inbounds i32, ptr %6, i64 %7
  call void @llvm.lifetime.end.p0(i64 8, ptr %__count) #3
  ret ptr %add.ptr
}

; Function Attrs: inlinehint mustprogress nounwind uwtable
define linkonce_odr noundef ptr @_ZSt12__niter_baseIPiET_S1_(ptr noundef %__it) #8 comdat {
entry:
  %__it.addr = alloca ptr, align 8
  store ptr %__it, ptr %__it.addr, align 8, !tbaa !21
  %0 = load ptr, ptr %__it.addr, align 8, !tbaa !21
  ret ptr %0
}

; Function Attrs: nocallback nofree nounwind willreturn memory(argmem: readwrite)
declare void @llvm.memmove.p0.p0.i64(ptr writeonly captures(none), ptr readonly captures(none), i64, i1 immarg) #6

; Function Attrs: mustprogress uwtable
define linkonce_odr void @_ZNSt16allocator_traitsISaIiEE10deallocateERS0_Pim(ptr noundef nonnull align 1 dereferenceable(1) %__a, ptr noundef %__p, i64 noundef %__n) #4 comdat align 2 {
entry:
  %__a.addr = alloca ptr, align 8
  %__p.addr = alloca ptr, align 8
  %__n.addr = alloca i64, align 8
  store ptr %__a, ptr %__a.addr, align 8, !tbaa !155
  store ptr %__p, ptr %__p.addr, align 8, !tbaa !21
  store i64 %__n, ptr %__n.addr, align 8, !tbaa !54
  %0 = load ptr, ptr %__a.addr, align 8, !tbaa !155
  %1 = load ptr, ptr %__p.addr, align 8, !tbaa !21
  %2 = load i64, ptr %__n.addr, align 8, !tbaa !54
  call void @_ZNSt15__new_allocatorIiE10deallocateEPim(ptr noundef nonnull align 1 dereferenceable(1) %0, ptr noundef %1, i64 noundef %2)
  ret void
}

; Function Attrs: mustprogress nounwind uwtable
define linkonce_odr void @_ZNSt15__new_allocatorIiE10deallocateEPim(ptr noundef nonnull align 1 dereferenceable(1) %this, ptr noundef %__p, i64 noundef %__n) #7 comdat align 2 {
entry:
  %this.addr = alloca ptr, align 8
  %__p.addr = alloca ptr, align 8
  %__n.addr = alloca i64, align 8
  store ptr %this, ptr %this.addr, align 8, !tbaa !159
  store ptr %__p, ptr %__p.addr, align 8, !tbaa !21
  store i64 %__n, ptr %__n.addr, align 8, !tbaa !54
  %this1 = load ptr, ptr %this.addr, align 8
  %0 = load ptr, ptr %__p.addr, align 8, !tbaa !21
  %1 = load i64, ptr %__n.addr, align 8, !tbaa !54
  %mul = mul i64 %1, 4
  call void @_ZdlPvm(ptr noundef %0, i64 noundef %mul) #27
  ret void
}

; Function Attrs: mustprogress nounwind uwtable
define available_externally void @_ZNSt7__cxx1118basic_stringstreamIcSt11char_traitsIcESaIcEED2Ev(ptr noundef nonnull align 8 dereferenceable(128) %this, ptr noundef %vtt) unnamed_addr #7 align 2 {
entry:
  %this.addr = alloca ptr, align 8
  %vtt.addr = alloca ptr, align 8
  store ptr %this, ptr %this.addr, align 8, !tbaa !86
  store ptr %vtt, ptr %vtt.addr, align 8, !tbaa !114
  %this1 = load ptr, ptr %this.addr, align 8
  %vtt2 = load ptr, ptr %vtt.addr, align 8
  %0 = load ptr, ptr %vtt2, align 8
  store ptr %0, ptr %this1, align 8, !tbaa !33
  %1 = getelementptr inbounds ptr, ptr %vtt2, i64 8
  %2 = load ptr, ptr %1, align 8
  %vtable = load ptr, ptr %this1, align 8, !tbaa !33
  %vbase.offset.ptr = getelementptr i8, ptr %vtable, i64 -24
  %vbase.offset = load i64, ptr %vbase.offset.ptr, align 8
  %add.ptr = getelementptr inbounds i8, ptr %this1, i64 %vbase.offset
  store ptr %2, ptr %add.ptr, align 8, !tbaa !33
  %3 = getelementptr inbounds ptr, ptr %vtt2, i64 9
  %4 = load ptr, ptr %3, align 8
  %add.ptr3 = getelementptr inbounds i8, ptr %this1, i64 16
  store ptr %4, ptr %add.ptr3, align 8, !tbaa !33
  %_M_stringbuf = getelementptr inbounds nuw %"class.std::__cxx11::basic_stringstream", ptr %this1, i32 0, i32 1
  call void @_ZNSt7__cxx1115basic_stringbufIcSt11char_traitsIcESaIcEED2Ev(ptr noundef nonnull align 8 dereferenceable(104) %_M_stringbuf) #3
  %5 = getelementptr inbounds ptr, ptr %vtt2, i64 1
  call void @_ZNSdD2Ev(ptr noundef nonnull align 8 dereferenceable(24) %this1, ptr noundef %5) #3
  ret void
}

; Function Attrs: nounwind uwtable
define available_externally void @_ZThn16_NSt7__cxx1118basic_stringstreamIcSt11char_traitsIcESaIcEED1Ev(ptr noundef %this) unnamed_addr #16 align 2 {
entry:
  %this.addr = alloca ptr, align 8
  store ptr %this, ptr %this.addr, align 8, !tbaa !86
  %this1 = load ptr, ptr %this.addr, align 8
  %0 = getelementptr inbounds i8, ptr %this1, i64 -16
  tail call void @_ZNSt7__cxx1118basic_stringstreamIcSt11char_traitsIcESaIcEED1Ev(ptr noundef nonnull align 8 dereferenceable(128) %0) #3
  ret void
}

; Function Attrs: nounwind uwtable
define available_externally void @_ZTv0_n24_NSt7__cxx1118basic_stringstreamIcSt11char_traitsIcESaIcEED1Ev(ptr noundef %this) unnamed_addr #16 align 2 {
entry:
  %this.addr = alloca ptr, align 8
  store ptr %this, ptr %this.addr, align 8, !tbaa !86
  %this1 = load ptr, ptr %this.addr, align 8
  %vtable = load ptr, ptr %this1, align 8, !tbaa !33
  %0 = getelementptr inbounds i8, ptr %vtable, i64 -24
  %1 = load i64, ptr %0, align 8
  %2 = getelementptr inbounds i8, ptr %this1, i64 %1
  tail call void @_ZNSt7__cxx1118basic_stringstreamIcSt11char_traitsIcESaIcEED1Ev(ptr noundef nonnull align 8 dereferenceable(128) %2) #3
  ret void
}

; Function Attrs: mustprogress nounwind uwtable
define linkonce_odr void @_ZN9__gnu_cxx17__normal_iteratorIPiSt6vectorIiSaIiEEEC2ERKS1_(ptr noundef nonnull align 8 dereferenceable(8) %this, ptr noundef nonnull align 8 dereferenceable(8) %__i) unnamed_addr #7 comdat align 2 {
entry:
  %this.addr = alloca ptr, align 8
  %__i.addr = alloca ptr, align 8
  store ptr %this, ptr %this.addr, align 8, !tbaa !37
  store ptr %__i, ptr %__i.addr, align 8, !tbaa !166
  %this1 = load ptr, ptr %this.addr, align 8
  %_M_current = getelementptr inbounds nuw %"class.__gnu_cxx::__normal_iterator", ptr %this1, i32 0, i32 0
  %0 = load ptr, ptr %__i.addr, align 8, !tbaa !166
  %1 = load ptr, ptr %0, align 8, !tbaa !21
  store ptr %1, ptr %_M_current, align 8, !tbaa !39
  ret void
}

; Function Attrs: mustprogress uwtable
define linkonce_odr ptr @_ZNSt10_HashtableIiSt4pairIKiiESaIS2_ENSt8__detail10_Select1stESt8equal_toIiESt4hashIiENS4_18_Mod_range_hashingENS4_20_Default_ranged_hashENS4_20_Prime_rehash_policyENS4_17_Hashtable_traitsILb0ELb0ELb1EEEE4findERS1_(ptr noundef nonnull align 8 dereferenceable(56) %this, ptr noundef nonnull align 4 dereferenceable(4) %__k) #4 comdat align 2 {
entry:
  %retval = alloca %"struct.std::__detail::_Node_iterator", align 8
  %this.addr = alloca ptr, align 8
  %__k.addr = alloca ptr, align 8
  %ref.tmp = alloca %"struct.std::__detail::_Node_iterator", align 8
  %__code = alloca i64, align 8
  %__bkt = alloca i64, align 8
  store ptr %this, ptr %this.addr, align 8, !tbaa !168
  store ptr %__k, ptr %__k.addr, align 8, !tbaa !21
  %this1 = load ptr, ptr %this.addr, align 8
  %call = call noundef i64 @_ZNKSt10_HashtableIiSt4pairIKiiESaIS2_ENSt8__detail10_Select1stESt8equal_toIiESt4hashIiENS4_18_Mod_range_hashingENS4_20_Default_ranged_hashENS4_20_Prime_rehash_policyENS4_17_Hashtable_traitsILb0ELb0ELb1EEEE4sizeEv(ptr noundef nonnull align 8 dereferenceable(56) %this1) #3
  %call2 = call noundef i64 @_ZNSt10_HashtableIiSt4pairIKiiESaIS2_ENSt8__detail10_Select1stESt8equal_toIiESt4hashIiENS4_18_Mod_range_hashingENS4_20_Default_ranged_hashENS4_20_Prime_rehash_policyENS4_17_Hashtable_traitsILb0ELb0ELb1EEEE22__small_size_thresholdEv() #3
  %cmp = icmp ule i64 %call, %call2
  br i1 %cmp, label %if.then, label %if.end15

if.then:                                          ; preds = %entry
  %call3 = call ptr @_ZNSt10_HashtableIiSt4pairIKiiESaIS2_ENSt8__detail10_Select1stESt8equal_toIiESt4hashIiENS4_18_Mod_range_hashingENS4_20_Default_ranged_hashENS4_20_Prime_rehash_policyENS4_17_Hashtable_traitsILb0ELb0ELb1EEEE5beginEv(ptr noundef nonnull align 8 dereferenceable(56) %this1) #3
  %coerce.dive = getelementptr inbounds nuw %"struct.std::__detail::_Node_iterator", ptr %retval, i32 0, i32 0
  %coerce.dive4 = getelementptr inbounds nuw %"struct.std::__detail::_Node_iterator_base", ptr %coerce.dive, i32 0, i32 0
  store ptr %call3, ptr %coerce.dive4, align 8
  br label %for.cond

for.cond:                                         ; preds = %for.inc, %if.then
  call void @llvm.lifetime.start.p0(i64 8, ptr %ref.tmp) #3
  %call5 = call ptr @_ZNSt10_HashtableIiSt4pairIKiiESaIS2_ENSt8__detail10_Select1stESt8equal_toIiESt4hashIiENS4_18_Mod_range_hashingENS4_20_Default_ranged_hashENS4_20_Prime_rehash_policyENS4_17_Hashtable_traitsILb0ELb0ELb1EEEE3endEv(ptr noundef nonnull align 8 dereferenceable(56) %this1) #3
  %coerce.dive6 = getelementptr inbounds nuw %"struct.std::__detail::_Node_iterator", ptr %ref.tmp, i32 0, i32 0
  %coerce.dive7 = getelementptr inbounds nuw %"struct.std::__detail::_Node_iterator_base", ptr %coerce.dive6, i32 0, i32 0
  store ptr %call5, ptr %coerce.dive7, align 8
  %call8 = call noundef zeroext i1 @_ZNSt8__detailneERKNS_19_Node_iterator_baseISt4pairIKiiELb0EEES6_(ptr noundef nonnull align 8 dereferenceable(8) %retval, ptr noundef nonnull align 8 dereferenceable(8) %ref.tmp) #3
  call void @llvm.lifetime.end.p0(i64 8, ptr %ref.tmp) #3
  br i1 %call8, label %for.body, label %for.end

for.body:                                         ; preds = %for.cond
  %0 = load ptr, ptr %__k.addr, align 8, !tbaa !21
  %_M_cur = getelementptr inbounds nuw %"struct.std::__detail::_Node_iterator_base", ptr %retval, i32 0, i32 0
  %1 = load ptr, ptr %_M_cur, align 8, !tbaa !45
  %add.ptr = getelementptr inbounds i8, ptr %1, i64 8
  %call9 = call noundef zeroext i1 @_ZNKSt8__detail15_Hashtable_baseIiSt4pairIKiiENS_10_Select1stESt8equal_toIiESt4hashIiENS_18_Mod_range_hashingENS_20_Default_ranged_hashENS_17_Hashtable_traitsILb0ELb0ELb1EEEE13_M_key_equalsERS2_RKNS_16_Hash_node_valueIS3_Lb0EEE(ptr noundef nonnull align 1 dereferenceable(1) %this1, ptr noundef nonnull align 4 dereferenceable(4) %0, ptr noundef nonnull align 4 dereferenceable(8) %add.ptr)
  br i1 %call9, label %if.then10, label %if.end

if.then10:                                        ; preds = %for.body
  br label %return

if.end:                                           ; preds = %for.body
  br label %for.inc

for.inc:                                          ; preds = %if.end
  %call11 = call noundef nonnull align 8 dereferenceable(8) ptr @_ZNSt8__detail14_Node_iteratorISt4pairIKiiELb0ELb0EEppEv(ptr noundef nonnull align 8 dereferenceable(8) %retval) #3
  br label %for.cond, !llvm.loop !170

for.end:                                          ; preds = %for.cond
  %call12 = call ptr @_ZNSt10_HashtableIiSt4pairIKiiESaIS2_ENSt8__detail10_Select1stESt8equal_toIiESt4hashIiENS4_18_Mod_range_hashingENS4_20_Default_ranged_hashENS4_20_Prime_rehash_policyENS4_17_Hashtable_traitsILb0ELb0ELb1EEEE3endEv(ptr noundef nonnull align 8 dereferenceable(56) %this1) #3
  %coerce.dive13 = getelementptr inbounds nuw %"struct.std::__detail::_Node_iterator", ptr %retval, i32 0, i32 0
  %coerce.dive14 = getelementptr inbounds nuw %"struct.std::__detail::_Node_iterator_base", ptr %coerce.dive13, i32 0, i32 0
  store ptr %call12, ptr %coerce.dive14, align 8
  br label %return

if.end15:                                         ; preds = %entry
  call void @llvm.lifetime.start.p0(i64 8, ptr %__code) #3
  %2 = load ptr, ptr %__k.addr, align 8, !tbaa !21
  %call16 = call noundef i64 @_ZNKSt8__detail15_Hash_code_baseIiSt4pairIKiiENS_10_Select1stESt4hashIiENS_18_Mod_range_hashingENS_20_Default_ranged_hashELb0EE12_M_hash_codeERS2_(ptr noundef nonnull align 1 dereferenceable(1) %this1, ptr noundef nonnull align 4 dereferenceable(4) %2)
  store i64 %call16, ptr %__code, align 8, !tbaa !54
  call void @llvm.lifetime.start.p0(i64 8, ptr %__bkt) #3
  %3 = load i64, ptr %__code, align 8, !tbaa !54
  %call17 = call noundef i64 @_ZNKSt10_HashtableIiSt4pairIKiiESaIS2_ENSt8__detail10_Select1stESt8equal_toIiESt4hashIiENS4_18_Mod_range_hashingENS4_20_Default_ranged_hashENS4_20_Prime_rehash_policyENS4_17_Hashtable_traitsILb0ELb0ELb1EEEE15_M_bucket_indexEm(ptr noundef nonnull align 8 dereferenceable(56) %this1, i64 noundef %3)
  store i64 %call17, ptr %__bkt, align 8, !tbaa !54
  %4 = load i64, ptr %__bkt, align 8, !tbaa !54
  %5 = load ptr, ptr %__k.addr, align 8, !tbaa !21
  %6 = load i64, ptr %__code, align 8, !tbaa !54
  %call18 = call noundef ptr @_ZNKSt10_HashtableIiSt4pairIKiiESaIS2_ENSt8__detail10_Select1stESt8equal_toIiESt4hashIiENS4_18_Mod_range_hashingENS4_20_Default_ranged_hashENS4_20_Prime_rehash_policyENS4_17_Hashtable_traitsILb0ELb0ELb1EEEE12_M_find_nodeEmRS1_m(ptr noundef nonnull align 8 dereferenceable(56) %this1, i64 noundef %4, ptr noundef nonnull align 4 dereferenceable(4) %5, i64 noundef %6)
  call void @_ZNSt8__detail14_Node_iteratorISt4pairIKiiELb0ELb0EEC2EPNS_10_Hash_nodeIS3_Lb0EEE(ptr noundef nonnull align 8 dereferenceable(8) %retval, ptr noundef %call18) #3
  call void @llvm.lifetime.end.p0(i64 8, ptr %__bkt) #3
  call void @llvm.lifetime.end.p0(i64 8, ptr %__code) #3
  br label %return

return:                                           ; preds = %if.end15, %for.end, %if.then10
  %coerce.dive19 = getelementptr inbounds nuw %"struct.std::__detail::_Node_iterator", ptr %retval, i32 0, i32 0
  %coerce.dive20 = getelementptr inbounds nuw %"struct.std::__detail::_Node_iterator_base", ptr %coerce.dive19, i32 0, i32 0
  %7 = load ptr, ptr %coerce.dive20, align 8
  ret ptr %7
}

; Function Attrs: mustprogress nounwind uwtable
define linkonce_odr noundef i64 @_ZNKSt10_HashtableIiSt4pairIKiiESaIS2_ENSt8__detail10_Select1stESt8equal_toIiESt4hashIiENS4_18_Mod_range_hashingENS4_20_Default_ranged_hashENS4_20_Prime_rehash_policyENS4_17_Hashtable_traitsILb0ELb0ELb1EEEE4sizeEv(ptr noundef nonnull align 8 dereferenceable(56) %this) #7 comdat align 2 {
entry:
  %this.addr = alloca ptr, align 8
  store ptr %this, ptr %this.addr, align 8, !tbaa !168
  %this1 = load ptr, ptr %this.addr, align 8
  %_M_element_count = getelementptr inbounds nuw %"class.std::_Hashtable", ptr %this1, i32 0, i32 3
  %0 = load i64, ptr %_M_element_count, align 8, !tbaa !171
  ret i64 %0
}

; Function Attrs: mustprogress nounwind uwtable
define linkonce_odr noundef i64 @_ZNSt10_HashtableIiSt4pairIKiiESaIS2_ENSt8__detail10_Select1stESt8equal_toIiESt4hashIiENS4_18_Mod_range_hashingENS4_20_Default_ranged_hashENS4_20_Prime_rehash_policyENS4_17_Hashtable_traitsILb0ELb0ELb1EEEE22__small_size_thresholdEv() #7 comdat align 2 {
entry:
  %call = call noundef i64 @_ZNSt8__detail22_Hashtable_hash_traitsISt4hashIiEE22__small_size_thresholdEv() #3
  ret i64 %call
}

; Function Attrs: mustprogress nounwind uwtable
define linkonce_odr ptr @_ZNSt10_HashtableIiSt4pairIKiiESaIS2_ENSt8__detail10_Select1stESt8equal_toIiESt4hashIiENS4_18_Mod_range_hashingENS4_20_Default_ranged_hashENS4_20_Prime_rehash_policyENS4_17_Hashtable_traitsILb0ELb0ELb1EEEE5beginEv(ptr noundef nonnull align 8 dereferenceable(56) %this) #7 comdat align 2 personality ptr @__gxx_personality_v0 {
entry:
  %retval = alloca %"struct.std::__detail::_Node_iterator", align 8
  %this.addr = alloca ptr, align 8
  store ptr %this, ptr %this.addr, align 8, !tbaa !168
  %this1 = load ptr, ptr %this.addr, align 8
  %call = invoke noundef ptr @_ZNKSt10_HashtableIiSt4pairIKiiESaIS2_ENSt8__detail10_Select1stESt8equal_toIiESt4hashIiENS4_18_Mod_range_hashingENS4_20_Default_ranged_hashENS4_20_Prime_rehash_policyENS4_17_Hashtable_traitsILb0ELb0ELb1EEEE8_M_beginEv(ptr noundef nonnull align 8 dereferenceable(56) %this1)
          to label %invoke.cont unwind label %terminate.lpad

invoke.cont:                                      ; preds = %entry
  call void @_ZNSt8__detail14_Node_iteratorISt4pairIKiiELb0ELb0EEC2EPNS_10_Hash_nodeIS3_Lb0EEE(ptr noundef nonnull align 8 dereferenceable(8) %retval, ptr noundef %call) #3
  %coerce.dive = getelementptr inbounds nuw %"struct.std::__detail::_Node_iterator", ptr %retval, i32 0, i32 0
  %coerce.dive2 = getelementptr inbounds nuw %"struct.std::__detail::_Node_iterator_base", ptr %coerce.dive, i32 0, i32 0
  %0 = load ptr, ptr %coerce.dive2, align 8
  ret ptr %0

terminate.lpad:                                   ; preds = %entry
  %1 = landingpad { ptr, i32 }
          catch ptr null
  %2 = extractvalue { ptr, i32 } %1, 0
  call void @__clang_call_terminate(ptr %2) #26
  unreachable
}

; Function Attrs: mustprogress nounwind uwtable
define linkonce_odr noundef zeroext i1 @_ZNSt8__detailneERKNS_19_Node_iterator_baseISt4pairIKiiELb0EEES6_(ptr noundef nonnull align 8 dereferenceable(8) %__x, ptr noundef nonnull align 8 dereferenceable(8) %__y) #7 comdat {
entry:
  %__x.addr = alloca ptr, align 8
  %__y.addr = alloca ptr, align 8
  store ptr %__x, ptr %__x.addr, align 8, !tbaa !43
  store ptr %__y, ptr %__y.addr, align 8, !tbaa !43
  %0 = load ptr, ptr %__x.addr, align 8, !tbaa !43
  %_M_cur = getelementptr inbounds nuw %"struct.std::__detail::_Node_iterator_base", ptr %0, i32 0, i32 0
  %1 = load ptr, ptr %_M_cur, align 8, !tbaa !45
  %2 = load ptr, ptr %__y.addr, align 8, !tbaa !43
  %_M_cur1 = getelementptr inbounds nuw %"struct.std::__detail::_Node_iterator_base", ptr %2, i32 0, i32 0
  %3 = load ptr, ptr %_M_cur1, align 8, !tbaa !45
  %cmp = icmp ne ptr %1, %3
  ret i1 %cmp
}

; Function Attrs: mustprogress nounwind uwtable
define linkonce_odr ptr @_ZNSt10_HashtableIiSt4pairIKiiESaIS2_ENSt8__detail10_Select1stESt8equal_toIiESt4hashIiENS4_18_Mod_range_hashingENS4_20_Default_ranged_hashENS4_20_Prime_rehash_policyENS4_17_Hashtable_traitsILb0ELb0ELb1EEEE3endEv(ptr noundef nonnull align 8 dereferenceable(56) %this) #7 comdat align 2 {
entry:
  %retval = alloca %"struct.std::__detail::_Node_iterator", align 8
  %this.addr = alloca ptr, align 8
  store ptr %this, ptr %this.addr, align 8, !tbaa !168
  %this1 = load ptr, ptr %this.addr, align 8
  call void @_ZNSt8__detail14_Node_iteratorISt4pairIKiiELb0ELb0EEC2EPNS_10_Hash_nodeIS3_Lb0EEE(ptr noundef nonnull align 8 dereferenceable(8) %retval, ptr noundef null) #3
  %coerce.dive = getelementptr inbounds nuw %"struct.std::__detail::_Node_iterator", ptr %retval, i32 0, i32 0
  %coerce.dive2 = getelementptr inbounds nuw %"struct.std::__detail::_Node_iterator_base", ptr %coerce.dive, i32 0, i32 0
  %0 = load ptr, ptr %coerce.dive2, align 8
  ret ptr %0
}

; Function Attrs: mustprogress uwtable
define linkonce_odr noundef zeroext i1 @_ZNKSt8__detail15_Hashtable_baseIiSt4pairIKiiENS_10_Select1stESt8equal_toIiESt4hashIiENS_18_Mod_range_hashingENS_20_Default_ranged_hashENS_17_Hashtable_traitsILb0ELb0ELb1EEEE13_M_key_equalsERS2_RKNS_16_Hash_node_valueIS3_Lb0EEE(ptr noundef nonnull align 1 dereferenceable(1) %this, ptr noundef nonnull align 4 dereferenceable(4) %__k, ptr noundef nonnull align 4 dereferenceable(8) %__n) #4 comdat align 2 {
entry:
  %this.addr = alloca ptr, align 8
  %__k.addr = alloca ptr, align 8
  %__n.addr = alloca ptr, align 8
  %ref.tmp = alloca %"struct.std::__detail::_Select1st", align 1
  store ptr %this, ptr %this.addr, align 8, !tbaa !178
  store ptr %__k, ptr %__k.addr, align 8, !tbaa !21
  store ptr %__n, ptr %__n.addr, align 8, !tbaa !180
  %this1 = load ptr, ptr %this.addr, align 8
  %call = call noundef nonnull align 1 dereferenceable(1) ptr @_ZNKSt8__detail15_Hashtable_baseIiSt4pairIKiiENS_10_Select1stESt8equal_toIiESt4hashIiENS_18_Mod_range_hashingENS_20_Default_ranged_hashENS_17_Hashtable_traitsILb0ELb0ELb1EEEE5_M_eqEv(ptr noundef nonnull align 1 dereferenceable(1) %this1)
  %0 = load ptr, ptr %__k.addr, align 8, !tbaa !21
  call void @llvm.lifetime.start.p0(i64 1, ptr %ref.tmp) #3
  %1 = load ptr, ptr %__n.addr, align 8, !tbaa !180
  %call2 = call noundef nonnull align 4 dereferenceable(8) ptr @_ZNKSt8__detail21_Hash_node_value_baseISt4pairIKiiEE4_M_vEv(ptr noundef nonnull align 4 dereferenceable(8) %1) #3
  %call3 = call noundef nonnull align 4 dereferenceable(4) ptr @_ZNKSt8__detail10_Select1stclIRKSt4pairIKiiEEEONS0_10__1st_typeIT_E4typeEOS8_(ptr noundef nonnull align 1 dereferenceable(1) %ref.tmp, ptr noundef nonnull align 4 dereferenceable(8) %call2) #3
  %call4 = call noundef zeroext i1 @_ZNKSt8equal_toIiEclERKiS2_(ptr noundef nonnull align 1 dereferenceable(1) %call, ptr noundef nonnull align 4 dereferenceable(4) %0, ptr noundef nonnull align 4 dereferenceable(4) %call3)
  call void @llvm.lifetime.end.p0(i64 1, ptr %ref.tmp) #3
  ret i1 %call4
}

; Function Attrs: mustprogress nounwind uwtable
define linkonce_odr noundef nonnull align 8 dereferenceable(8) ptr @_ZNSt8__detail14_Node_iteratorISt4pairIKiiELb0ELb0EEppEv(ptr noundef nonnull align 8 dereferenceable(8) %this) #7 comdat align 2 {
entry:
  %this.addr = alloca ptr, align 8
  store ptr %this, ptr %this.addr, align 8, !tbaa !50
  %this1 = load ptr, ptr %this.addr, align 8
  call void @_ZNSt8__detail19_Node_iterator_baseISt4pairIKiiELb0EE7_M_incrEv(ptr noundef nonnull align 8 dereferenceable(8) %this1) #3
  ret ptr %this1
}

; Function Attrs: mustprogress uwtable
define linkonce_odr noundef i64 @_ZNKSt8__detail15_Hash_code_baseIiSt4pairIKiiENS_10_Select1stESt4hashIiENS_18_Mod_range_hashingENS_20_Default_ranged_hashELb0EE12_M_hash_codeERS2_(ptr noundef nonnull align 1 dereferenceable(1) %this, ptr noundef nonnull align 4 dereferenceable(4) %__k) #4 comdat align 2 {
entry:
  %this.addr = alloca ptr, align 8
  %__k.addr = alloca ptr, align 8
  store ptr %this, ptr %this.addr, align 8, !tbaa !182
  store ptr %__k, ptr %__k.addr, align 8, !tbaa !21
  %this1 = load ptr, ptr %this.addr, align 8
  %call = call noundef nonnull align 1 dereferenceable(1) ptr @_ZNKSt8__detail15_Hash_code_baseIiSt4pairIKiiENS_10_Select1stESt4hashIiENS_18_Mod_range_hashingENS_20_Default_ranged_hashELb0EE7_M_hashEv(ptr noundef nonnull align 1 dereferenceable(1) %this1)
  %0 = load ptr, ptr %__k.addr, align 8, !tbaa !21
  %1 = load i32, ptr %0, align 4, !tbaa !26
  %call2 = call noundef i64 @_ZNKSt4hashIiEclEi(ptr noundef nonnull align 1 dereferenceable(1) %call, i32 noundef %1) #3
  ret i64 %call2
}

; Function Attrs: mustprogress uwtable
define linkonce_odr noundef i64 @_ZNKSt10_HashtableIiSt4pairIKiiESaIS2_ENSt8__detail10_Select1stESt8equal_toIiESt4hashIiENS4_18_Mod_range_hashingENS4_20_Default_ranged_hashENS4_20_Prime_rehash_policyENS4_17_Hashtable_traitsILb0ELb0ELb1EEEE15_M_bucket_indexEm(ptr noundef nonnull align 8 dereferenceable(56) %this, i64 noundef %__c) #4 comdat align 2 {
entry:
  %this.addr = alloca ptr, align 8
  %__c.addr = alloca i64, align 8
  store ptr %this, ptr %this.addr, align 8, !tbaa !168
  store i64 %__c, ptr %__c.addr, align 8, !tbaa !54
  %this1 = load ptr, ptr %this.addr, align 8
  %0 = load i64, ptr %__c.addr, align 8, !tbaa !54
  %_M_bucket_count = getelementptr inbounds nuw %"class.std::_Hashtable", ptr %this1, i32 0, i32 1
  %1 = load i64, ptr %_M_bucket_count, align 8, !tbaa !184
  %call = call noundef i64 @_ZNKSt8__detail15_Hash_code_baseIiSt4pairIKiiENS_10_Select1stESt4hashIiENS_18_Mod_range_hashingENS_20_Default_ranged_hashELb0EE15_M_bucket_indexEmm(ptr noundef nonnull align 1 dereferenceable(1) %this1, i64 noundef %0, i64 noundef %1)
  ret i64 %call
}

; Function Attrs: mustprogress uwtable
define linkonce_odr noundef ptr @_ZNKSt10_HashtableIiSt4pairIKiiESaIS2_ENSt8__detail10_Select1stESt8equal_toIiESt4hashIiENS4_18_Mod_range_hashingENS4_20_Default_ranged_hashENS4_20_Prime_rehash_policyENS4_17_Hashtable_traitsILb0ELb0ELb1EEEE12_M_find_nodeEmRS1_m(ptr noundef nonnull align 8 dereferenceable(56) %this, i64 noundef %__bkt, ptr noundef nonnull align 4 dereferenceable(4) %__key, i64 noundef %__c) #4 comdat align 2 {
entry:
  %retval = alloca ptr, align 8
  %this.addr = alloca ptr, align 8
  %__bkt.addr = alloca i64, align 8
  %__key.addr = alloca ptr, align 8
  %__c.addr = alloca i64, align 8
  %__before_n = alloca ptr, align 8
  %cleanup.dest.slot = alloca i32, align 4
  store ptr %this, ptr %this.addr, align 8, !tbaa !168
  store i64 %__bkt, ptr %__bkt.addr, align 8, !tbaa !54
  store ptr %__key, ptr %__key.addr, align 8, !tbaa !21
  store i64 %__c, ptr %__c.addr, align 8, !tbaa !54
  %this1 = load ptr, ptr %this.addr, align 8
  call void @llvm.lifetime.start.p0(i64 8, ptr %__before_n) #3
  %0 = load i64, ptr %__bkt.addr, align 8, !tbaa !54
  %1 = load ptr, ptr %__key.addr, align 8, !tbaa !21
  %2 = load i64, ptr %__c.addr, align 8, !tbaa !54
  %call = call noundef ptr @_ZNKSt10_HashtableIiSt4pairIKiiESaIS2_ENSt8__detail10_Select1stESt8equal_toIiESt4hashIiENS4_18_Mod_range_hashingENS4_20_Default_ranged_hashENS4_20_Prime_rehash_policyENS4_17_Hashtable_traitsILb0ELb0ELb1EEEE19_M_find_before_nodeEmRS1_m(ptr noundef nonnull align 8 dereferenceable(56) %this1, i64 noundef %0, ptr noundef nonnull align 4 dereferenceable(4) %1, i64 noundef %2)
  store ptr %call, ptr %__before_n, align 8, !tbaa !185
  %3 = load ptr, ptr %__before_n, align 8, !tbaa !185
  %tobool = icmp ne ptr %3, null
  br i1 %tobool, label %if.then, label %if.end

if.then:                                          ; preds = %entry
  %4 = load ptr, ptr %__before_n, align 8, !tbaa !185
  %_M_nxt = getelementptr inbounds nuw %"struct.std::__detail::_Hash_node_base", ptr %4, i32 0, i32 0
  %5 = load ptr, ptr %_M_nxt, align 8, !tbaa !186
  store ptr %5, ptr %retval, align 8
  store i32 1, ptr %cleanup.dest.slot, align 4
  br label %cleanup

if.end:                                           ; preds = %entry
  store ptr null, ptr %retval, align 8
  store i32 1, ptr %cleanup.dest.slot, align 4
  br label %cleanup

cleanup:                                          ; preds = %if.end, %if.then
  call void @llvm.lifetime.end.p0(i64 8, ptr %__before_n) #3
  %6 = load ptr, ptr %retval, align 8
  ret ptr %6
}

; Function Attrs: mustprogress nounwind uwtable
define linkonce_odr void @_ZNSt8__detail14_Node_iteratorISt4pairIKiiELb0ELb0EEC2EPNS_10_Hash_nodeIS3_Lb0EEE(ptr noundef nonnull align 8 dereferenceable(8) %this, ptr noundef %__p) unnamed_addr #7 comdat align 2 {
entry:
  %this.addr = alloca ptr, align 8
  %__p.addr = alloca ptr, align 8
  store ptr %this, ptr %this.addr, align 8, !tbaa !50
  store ptr %__p, ptr %__p.addr, align 8, !tbaa !187
  %this1 = load ptr, ptr %this.addr, align 8
  %0 = load ptr, ptr %__p.addr, align 8, !tbaa !187
  call void @_ZNSt8__detail19_Node_iterator_baseISt4pairIKiiELb0EEC2EPNS_10_Hash_nodeIS3_Lb0EEE(ptr noundef nonnull align 8 dereferenceable(8) %this1, ptr noundef %0) #3
  ret void
}

; Function Attrs: mustprogress nounwind uwtable
define linkonce_odr noundef i64 @_ZNSt8__detail22_Hashtable_hash_traitsISt4hashIiEE22__small_size_thresholdEv() #7 comdat align 2 {
entry:
  ret i64 0
}

; Function Attrs: mustprogress nounwind uwtable
define linkonce_odr noundef ptr @_ZNKSt10_HashtableIiSt4pairIKiiESaIS2_ENSt8__detail10_Select1stESt8equal_toIiESt4hashIiENS4_18_Mod_range_hashingENS4_20_Default_ranged_hashENS4_20_Prime_rehash_policyENS4_17_Hashtable_traitsILb0ELb0ELb1EEEE8_M_beginEv(ptr noundef nonnull align 8 dereferenceable(56) %this) #7 comdat align 2 {
entry:
  %this.addr = alloca ptr, align 8
  store ptr %this, ptr %this.addr, align 8, !tbaa !168
  %this1 = load ptr, ptr %this.addr, align 8
  %_M_before_begin = getelementptr inbounds nuw %"class.std::_Hashtable", ptr %this1, i32 0, i32 2
  %_M_nxt = getelementptr inbounds nuw %"struct.std::__detail::_Hash_node_base", ptr %_M_before_begin, i32 0, i32 0
  %0 = load ptr, ptr %_M_nxt, align 8, !tbaa !188
  ret ptr %0
}

; Function Attrs: mustprogress uwtable
define linkonce_odr noundef nonnull align 1 dereferenceable(1) ptr @_ZNKSt8__detail15_Hashtable_baseIiSt4pairIKiiENS_10_Select1stESt8equal_toIiESt4hashIiENS_18_Mod_range_hashingENS_20_Default_ranged_hashENS_17_Hashtable_traitsILb0ELb0ELb1EEEE5_M_eqEv(ptr noundef nonnull align 1 dereferenceable(1) %this) #4 comdat align 2 {
entry:
  %this.addr = alloca ptr, align 8
  store ptr %this, ptr %this.addr, align 8, !tbaa !178
  %this1 = load ptr, ptr %this.addr, align 8
  %call = call noundef nonnull align 1 dereferenceable(1) ptr @_ZNKSt8__detail21_Hashtable_ebo_helperILi0ESt8equal_toIiELb1EE7_M_cgetEv(ptr noundef nonnull align 1 dereferenceable(1) %this1)
  ret ptr %call
}

; Function Attrs: mustprogress nounwind uwtable
define linkonce_odr noundef zeroext i1 @_ZNKSt8equal_toIiEclERKiS2_(ptr noundef nonnull align 1 dereferenceable(1) %this, ptr noundef nonnull align 4 dereferenceable(4) %__x, ptr noundef nonnull align 4 dereferenceable(4) %__y) #7 comdat align 2 {
entry:
  %this.addr = alloca ptr, align 8
  %__x.addr = alloca ptr, align 8
  %__y.addr = alloca ptr, align 8
  store ptr %this, ptr %this.addr, align 8, !tbaa !189
  store ptr %__x, ptr %__x.addr, align 8, !tbaa !21
  store ptr %__y, ptr %__y.addr, align 8, !tbaa !21
  %this1 = load ptr, ptr %this.addr, align 8
  %0 = load ptr, ptr %__x.addr, align 8, !tbaa !21
  %1 = load i32, ptr %0, align 4, !tbaa !26
  %2 = load ptr, ptr %__y.addr, align 8, !tbaa !21
  %3 = load i32, ptr %2, align 4, !tbaa !26
  %cmp = icmp eq i32 %1, %3
  ret i1 %cmp
}

; Function Attrs: mustprogress nounwind uwtable
define linkonce_odr noundef nonnull align 4 dereferenceable(4) ptr @_ZNKSt8__detail10_Select1stclIRKSt4pairIKiiEEEONS0_10__1st_typeIT_E4typeEOS8_(ptr noundef nonnull align 1 dereferenceable(1) %this, ptr noundef nonnull align 4 dereferenceable(8) %__x) #7 comdat align 2 {
entry:
  %this.addr = alloca ptr, align 8
  %__x.addr = alloca ptr, align 8
  store ptr %this, ptr %this.addr, align 8, !tbaa !191
  store ptr %__x, ptr %__x.addr, align 8, !tbaa !193
  %this1 = load ptr, ptr %this.addr, align 8
  %0 = load ptr, ptr %__x.addr, align 8, !tbaa !193
  %first = getelementptr inbounds nuw %"struct.std::pair", ptr %0, i32 0, i32 0
  ret ptr %first
}

; Function Attrs: mustprogress nounwind uwtable
define linkonce_odr noundef nonnull align 4 dereferenceable(8) ptr @_ZNKSt8__detail21_Hash_node_value_baseISt4pairIKiiEE4_M_vEv(ptr noundef nonnull align 4 dereferenceable(8) %this) #7 comdat align 2 {
entry:
  %this.addr = alloca ptr, align 8
  store ptr %this, ptr %this.addr, align 8, !tbaa !195
  %this1 = load ptr, ptr %this.addr, align 8
  %call = call noundef ptr @_ZNKSt8__detail21_Hash_node_value_baseISt4pairIKiiEE9_M_valptrEv(ptr noundef nonnull align 4 dereferenceable(8) %this1) #3
  ret ptr %call
}

; Function Attrs: mustprogress nounwind uwtable
define linkonce_odr noundef nonnull align 1 dereferenceable(1) ptr @_ZNKSt8__detail21_Hashtable_ebo_helperILi0ESt8equal_toIiELb1EE7_M_cgetEv(ptr noundef nonnull align 1 dereferenceable(1) %this) #7 comdat align 2 {
entry:
  %this.addr = alloca ptr, align 8
  store ptr %this, ptr %this.addr, align 8, !tbaa !197
  %this1 = load ptr, ptr %this.addr, align 8
  ret ptr %this1
}

; Function Attrs: mustprogress nounwind uwtable
define linkonce_odr noundef ptr @_ZNKSt8__detail21_Hash_node_value_baseISt4pairIKiiEE9_M_valptrEv(ptr noundef nonnull align 4 dereferenceable(8) %this) #7 comdat align 2 {
entry:
  %this.addr = alloca ptr, align 8
  store ptr %this, ptr %this.addr, align 8, !tbaa !195
  %this1 = load ptr, ptr %this.addr, align 8
  %_M_storage = getelementptr inbounds nuw %"struct.std::__detail::_Hash_node_value_base", ptr %this1, i32 0, i32 0
  %call = call noundef ptr @_ZNK9__gnu_cxx16__aligned_bufferISt4pairIKiiEE6_M_ptrEv(ptr noundef nonnull align 4 dereferenceable(8) %_M_storage) #3
  ret ptr %call
}

; Function Attrs: mustprogress nounwind uwtable
define linkonce_odr noundef ptr @_ZNK9__gnu_cxx16__aligned_bufferISt4pairIKiiEE6_M_ptrEv(ptr noundef nonnull align 4 dereferenceable(8) %this) #7 comdat align 2 {
entry:
  %this.addr = alloca ptr, align 8
  store ptr %this, ptr %this.addr, align 8, !tbaa !199
  %this1 = load ptr, ptr %this.addr, align 8
  %call = call noundef ptr @_ZNK9__gnu_cxx16__aligned_bufferISt4pairIKiiEE7_M_addrEv(ptr noundef nonnull align 4 dereferenceable(8) %this1) #3
  ret ptr %call
}

; Function Attrs: mustprogress nounwind uwtable
define linkonce_odr noundef ptr @_ZNK9__gnu_cxx16__aligned_bufferISt4pairIKiiEE7_M_addrEv(ptr noundef nonnull align 4 dereferenceable(8) %this) #7 comdat align 2 {
entry:
  %this.addr = alloca ptr, align 8
  store ptr %this, ptr %this.addr, align 8, !tbaa !199
  %this1 = load ptr, ptr %this.addr, align 8
  %_M_storage = getelementptr inbounds nuw %"struct.__gnu_cxx::__aligned_buffer", ptr %this1, i32 0, i32 0
  ret ptr %_M_storage
}

; Function Attrs: mustprogress nounwind uwtable
define linkonce_odr void @_ZNSt8__detail19_Node_iterator_baseISt4pairIKiiELb0EE7_M_incrEv(ptr noundef nonnull align 8 dereferenceable(8) %this) #7 comdat align 2 {
entry:
  %this.addr = alloca ptr, align 8
  store ptr %this, ptr %this.addr, align 8, !tbaa !43
  %this1 = load ptr, ptr %this.addr, align 8
  %_M_cur = getelementptr inbounds nuw %"struct.std::__detail::_Node_iterator_base", ptr %this1, i32 0, i32 0
  %0 = load ptr, ptr %_M_cur, align 8, !tbaa !45
  %call = call noundef ptr @_ZNKSt8__detail10_Hash_nodeISt4pairIKiiELb0EE7_M_nextEv(ptr noundef nonnull align 8 dereferenceable(16) %0) #3
  %_M_cur2 = getelementptr inbounds nuw %"struct.std::__detail::_Node_iterator_base", ptr %this1, i32 0, i32 0
  store ptr %call, ptr %_M_cur2, align 8, !tbaa !45
  ret void
}

; Function Attrs: mustprogress nounwind uwtable
define linkonce_odr noundef ptr @_ZNKSt8__detail10_Hash_nodeISt4pairIKiiELb0EE7_M_nextEv(ptr noundef nonnull align 8 dereferenceable(16) %this) #7 comdat align 2 {
entry:
  %this.addr = alloca ptr, align 8
  store ptr %this, ptr %this.addr, align 8, !tbaa !187
  %this1 = load ptr, ptr %this.addr, align 8
  %_M_nxt = getelementptr inbounds nuw %"struct.std::__detail::_Hash_node_base", ptr %this1, i32 0, i32 0
  %0 = load ptr, ptr %_M_nxt, align 8, !tbaa !186
  ret ptr %0
}

; Function Attrs: mustprogress uwtable
define linkonce_odr noundef nonnull align 1 dereferenceable(1) ptr @_ZNKSt8__detail15_Hash_code_baseIiSt4pairIKiiENS_10_Select1stESt4hashIiENS_18_Mod_range_hashingENS_20_Default_ranged_hashELb0EE7_M_hashEv(ptr noundef nonnull align 1 dereferenceable(1) %this) #4 comdat align 2 {
entry:
  %this.addr = alloca ptr, align 8
  store ptr %this, ptr %this.addr, align 8, !tbaa !182
  %this1 = load ptr, ptr %this.addr, align 8
  %call = call noundef nonnull align 1 dereferenceable(1) ptr @_ZNKSt8__detail21_Hashtable_ebo_helperILi1ESt4hashIiELb1EE7_M_cgetEv(ptr noundef nonnull align 1 dereferenceable(1) %this1)
  ret ptr %call
}

; Function Attrs: mustprogress nounwind uwtable
define linkonce_odr noundef i64 @_ZNKSt4hashIiEclEi(ptr noundef nonnull align 1 dereferenceable(1) %this, i32 noundef %__val) #7 comdat align 2 {
entry:
  %this.addr = alloca ptr, align 8
  %__val.addr = alloca i32, align 4
  store ptr %this, ptr %this.addr, align 8, !tbaa !201
  store i32 %__val, ptr %__val.addr, align 4, !tbaa !26
  %this1 = load ptr, ptr %this.addr, align 8
  %0 = load i32, ptr %__val.addr, align 4, !tbaa !26
  %conv = sext i32 %0 to i64
  ret i64 %conv
}

; Function Attrs: mustprogress nounwind uwtable
define linkonce_odr noundef nonnull align 1 dereferenceable(1) ptr @_ZNKSt8__detail21_Hashtable_ebo_helperILi1ESt4hashIiELb1EE7_M_cgetEv(ptr noundef nonnull align 1 dereferenceable(1) %this) #7 comdat align 2 {
entry:
  %this.addr = alloca ptr, align 8
  store ptr %this, ptr %this.addr, align 8, !tbaa !203
  %this1 = load ptr, ptr %this.addr, align 8
  ret ptr %this1
}

; Function Attrs: mustprogress nounwind uwtable
define linkonce_odr noundef i64 @_ZNKSt8__detail15_Hash_code_baseIiSt4pairIKiiENS_10_Select1stESt4hashIiENS_18_Mod_range_hashingENS_20_Default_ranged_hashELb0EE15_M_bucket_indexEmm(ptr noundef nonnull align 1 dereferenceable(1) %this, i64 noundef %__c, i64 noundef %__bkt_count) #7 comdat align 2 {
entry:
  %this.addr = alloca ptr, align 8
  %__c.addr = alloca i64, align 8
  %__bkt_count.addr = alloca i64, align 8
  %ref.tmp = alloca %"struct.std::__detail::_Mod_range_hashing", align 1
  store ptr %this, ptr %this.addr, align 8, !tbaa !182
  store i64 %__c, ptr %__c.addr, align 8, !tbaa !54
  store i64 %__bkt_count, ptr %__bkt_count.addr, align 8, !tbaa !54
  %this1 = load ptr, ptr %this.addr, align 8
  call void @llvm.lifetime.start.p0(i64 1, ptr %ref.tmp) #3
  %0 = load i64, ptr %__c.addr, align 8, !tbaa !54
  %1 = load i64, ptr %__bkt_count.addr, align 8, !tbaa !54
  %call = call noundef i64 @_ZNKSt8__detail18_Mod_range_hashingclEmm(ptr noundef nonnull align 1 dereferenceable(1) %ref.tmp, i64 noundef %0, i64 noundef %1) #3
  call void @llvm.lifetime.end.p0(i64 1, ptr %ref.tmp) #3
  ret i64 %call
}

; Function Attrs: mustprogress nounwind uwtable
define linkonce_odr noundef i64 @_ZNKSt8__detail18_Mod_range_hashingclEmm(ptr noundef nonnull align 1 dereferenceable(1) %this, i64 noundef %__num, i64 noundef %__den) #7 comdat align 2 {
entry:
  %this.addr = alloca ptr, align 8
  %__num.addr = alloca i64, align 8
  %__den.addr = alloca i64, align 8
  store ptr %this, ptr %this.addr, align 8, !tbaa !205
  store i64 %__num, ptr %__num.addr, align 8, !tbaa !54
  store i64 %__den, ptr %__den.addr, align 8, !tbaa !54
  %this1 = load ptr, ptr %this.addr, align 8
  %0 = load i64, ptr %__num.addr, align 8, !tbaa !54
  %1 = load i64, ptr %__den.addr, align 8, !tbaa !54
  %rem = urem i64 %0, %1
  ret i64 %rem
}

; Function Attrs: mustprogress uwtable
define linkonce_odr noundef ptr @_ZNKSt10_HashtableIiSt4pairIKiiESaIS2_ENSt8__detail10_Select1stESt8equal_toIiESt4hashIiENS4_18_Mod_range_hashingENS4_20_Default_ranged_hashENS4_20_Prime_rehash_policyENS4_17_Hashtable_traitsILb0ELb0ELb1EEEE19_M_find_before_nodeEmRS1_m(ptr noundef nonnull align 8 dereferenceable(56) %this, i64 noundef %__bkt, ptr noundef nonnull align 4 dereferenceable(4) %__k, i64 noundef %__code) #4 comdat align 2 {
entry:
  %retval = alloca ptr, align 8
  %this.addr = alloca ptr, align 8
  %__bkt.addr = alloca i64, align 8
  %__k.addr = alloca ptr, align 8
  %__code.addr = alloca i64, align 8
  %__prev_p = alloca ptr, align 8
  %cleanup.dest.slot = alloca i32, align 4
  %__p = alloca ptr, align 8
  store ptr %this, ptr %this.addr, align 8, !tbaa !168
  store i64 %__bkt, ptr %__bkt.addr, align 8, !tbaa !54
  store ptr %__k, ptr %__k.addr, align 8, !tbaa !21
  store i64 %__code, ptr %__code.addr, align 8, !tbaa !54
  %this1 = load ptr, ptr %this.addr, align 8
  call void @llvm.lifetime.start.p0(i64 8, ptr %__prev_p) #3
  %_M_buckets = getelementptr inbounds nuw %"class.std::_Hashtable", ptr %this1, i32 0, i32 0
  %0 = load ptr, ptr %_M_buckets, align 8, !tbaa !207
  %1 = load i64, ptr %__bkt.addr, align 8, !tbaa !54
  %arrayidx = getelementptr inbounds nuw ptr, ptr %0, i64 %1
  %2 = load ptr, ptr %arrayidx, align 8, !tbaa !185
  store ptr %2, ptr %__prev_p, align 8, !tbaa !185
  %3 = load ptr, ptr %__prev_p, align 8, !tbaa !185
  %tobool = icmp ne ptr %3, null
  br i1 %tobool, label %if.end, label %if.then

if.then:                                          ; preds = %entry
  store ptr null, ptr %retval, align 8
  store i32 1, ptr %cleanup.dest.slot, align 4
  br label %cleanup12

if.end:                                           ; preds = %entry
  call void @llvm.lifetime.start.p0(i64 8, ptr %__p) #3
  %4 = load ptr, ptr %__prev_p, align 8, !tbaa !185
  %_M_nxt = getelementptr inbounds nuw %"struct.std::__detail::_Hash_node_base", ptr %4, i32 0, i32 0
  %5 = load ptr, ptr %_M_nxt, align 8, !tbaa !186
  store ptr %5, ptr %__p, align 8, !tbaa !187
  br label %for.cond

for.cond:                                         ; preds = %for.inc, %if.end
  %6 = load ptr, ptr %__k.addr, align 8, !tbaa !21
  %7 = load i64, ptr %__code.addr, align 8, !tbaa !54
  %8 = load ptr, ptr %__p, align 8, !tbaa !187
  %add.ptr = getelementptr inbounds i8, ptr %8, i64 8
  %call = call noundef zeroext i1 @_ZNKSt8__detail15_Hashtable_baseIiSt4pairIKiiENS_10_Select1stESt8equal_toIiESt4hashIiENS_18_Mod_range_hashingENS_20_Default_ranged_hashENS_17_Hashtable_traitsILb0ELb0ELb1EEEE9_M_equalsERS2_mRKNS_16_Hash_node_valueIS3_Lb0EEE(ptr noundef nonnull align 1 dereferenceable(1) %this1, ptr noundef nonnull align 4 dereferenceable(4) %6, i64 noundef %7, ptr noundef nonnull align 4 dereferenceable(8) %add.ptr)
  br i1 %call, label %if.then2, label %if.end3

if.then2:                                         ; preds = %for.cond
  %9 = load ptr, ptr %__prev_p, align 8, !tbaa !185
  store ptr %9, ptr %retval, align 8
  store i32 1, ptr %cleanup.dest.slot, align 4
  br label %cleanup

if.end3:                                          ; preds = %for.cond
  %10 = load ptr, ptr %__p, align 8, !tbaa !187
  %_M_nxt4 = getelementptr inbounds nuw %"struct.std::__detail::_Hash_node_base", ptr %10, i32 0, i32 0
  %11 = load ptr, ptr %_M_nxt4, align 8, !tbaa !186
  %tobool5 = icmp ne ptr %11, null
  br i1 %tobool5, label %lor.lhs.false, label %if.then9

lor.lhs.false:                                    ; preds = %if.end3
  %12 = load ptr, ptr %__p, align 8, !tbaa !187
  %call6 = call noundef ptr @_ZNKSt8__detail10_Hash_nodeISt4pairIKiiELb0EE7_M_nextEv(ptr noundef nonnull align 8 dereferenceable(16) %12) #3
  %add.ptr7 = getelementptr inbounds i8, ptr %call6, i64 8
  %call8 = call noundef i64 @_ZNKSt10_HashtableIiSt4pairIKiiESaIS2_ENSt8__detail10_Select1stESt8equal_toIiESt4hashIiENS4_18_Mod_range_hashingENS4_20_Default_ranged_hashENS4_20_Prime_rehash_policyENS4_17_Hashtable_traitsILb0ELb0ELb1EEEE15_M_bucket_indexERKNS4_16_Hash_node_valueIS2_Lb0EEE(ptr noundef nonnull align 8 dereferenceable(56) %this1, ptr noundef nonnull align 4 dereferenceable(8) %add.ptr7) #3
  %13 = load i64, ptr %__bkt.addr, align 8, !tbaa !54
  %cmp = icmp ne i64 %call8, %13
  br i1 %cmp, label %if.then9, label %if.end10

if.then9:                                         ; preds = %lor.lhs.false, %if.end3
  store i32 2, ptr %cleanup.dest.slot, align 4
  br label %cleanup

if.end10:                                         ; preds = %lor.lhs.false
  %14 = load ptr, ptr %__p, align 8, !tbaa !187
  store ptr %14, ptr %__prev_p, align 8, !tbaa !185
  br label %for.inc

for.inc:                                          ; preds = %if.end10
  %15 = load ptr, ptr %__p, align 8, !tbaa !187
  %call11 = call noundef ptr @_ZNKSt8__detail10_Hash_nodeISt4pairIKiiELb0EE7_M_nextEv(ptr noundef nonnull align 8 dereferenceable(16) %15) #3
  store ptr %call11, ptr %__p, align 8, !tbaa !187
  br label %for.cond, !llvm.loop !208

cleanup:                                          ; preds = %if.then9, %if.then2
  call void @llvm.lifetime.end.p0(i64 8, ptr %__p) #3
  %cleanup.dest = load i32, ptr %cleanup.dest.slot, align 4
  switch i32 %cleanup.dest, label %cleanup12 [
    i32 2, label %for.end
  ]

for.end:                                          ; preds = %cleanup
  store ptr null, ptr %retval, align 8
  store i32 1, ptr %cleanup.dest.slot, align 4
  br label %cleanup12

cleanup12:                                        ; preds = %for.end, %cleanup, %if.then
  call void @llvm.lifetime.end.p0(i64 8, ptr %__prev_p) #3
  %16 = load ptr, ptr %retval, align 8
  ret ptr %16
}

; Function Attrs: mustprogress uwtable
define linkonce_odr noundef zeroext i1 @_ZNKSt8__detail15_Hashtable_baseIiSt4pairIKiiENS_10_Select1stESt8equal_toIiESt4hashIiENS_18_Mod_range_hashingENS_20_Default_ranged_hashENS_17_Hashtable_traitsILb0ELb0ELb1EEEE9_M_equalsERS2_mRKNS_16_Hash_node_valueIS3_Lb0EEE(ptr noundef nonnull align 1 dereferenceable(1) %this, ptr noundef nonnull align 4 dereferenceable(4) %__k, i64 noundef %__c, ptr noundef nonnull align 4 dereferenceable(8) %__n) #4 comdat align 2 {
entry:
  %this.addr = alloca ptr, align 8
  %__k.addr = alloca ptr, align 8
  %__c.addr = alloca i64, align 8
  %__n.addr = alloca ptr, align 8
  store ptr %this, ptr %this.addr, align 8, !tbaa !178
  store ptr %__k, ptr %__k.addr, align 8, !tbaa !21
  store i64 %__c, ptr %__c.addr, align 8, !tbaa !54
  store ptr %__n, ptr %__n.addr, align 8, !tbaa !180
  %this1 = load ptr, ptr %this.addr, align 8
  %0 = load i64, ptr %__c.addr, align 8, !tbaa !54
  %1 = load ptr, ptr %__n.addr, align 8, !tbaa !180
  %call = call noundef zeroext i1 @_ZNSt8__detail15_Hashtable_baseIiSt4pairIKiiENS_10_Select1stESt8equal_toIiESt4hashIiENS_18_Mod_range_hashingENS_20_Default_ranged_hashENS_17_Hashtable_traitsILb0ELb0ELb1EEEE9_S_equalsEmRKNS_21_Hash_node_code_cacheILb0EEE(i64 noundef %0, ptr noundef nonnull align 1 dereferenceable(1) %1)
  br i1 %call, label %land.rhs, label %land.end

land.rhs:                                         ; preds = %entry
  %2 = load ptr, ptr %__k.addr, align 8, !tbaa !21
  %3 = load ptr, ptr %__n.addr, align 8, !tbaa !180
  %call2 = call noundef zeroext i1 @_ZNKSt8__detail15_Hashtable_baseIiSt4pairIKiiENS_10_Select1stESt8equal_toIiESt4hashIiENS_18_Mod_range_hashingENS_20_Default_ranged_hashENS_17_Hashtable_traitsILb0ELb0ELb1EEEE13_M_key_equalsERS2_RKNS_16_Hash_node_valueIS3_Lb0EEE(ptr noundef nonnull align 1 dereferenceable(1) %this1, ptr noundef nonnull align 4 dereferenceable(4) %2, ptr noundef nonnull align 4 dereferenceable(8) %3)
  br label %land.end

land.end:                                         ; preds = %land.rhs, %entry
  %4 = phi i1 [ false, %entry ], [ %call2, %land.rhs ]
  ret i1 %4
}

; Function Attrs: mustprogress nounwind uwtable
define linkonce_odr noundef i64 @_ZNKSt10_HashtableIiSt4pairIKiiESaIS2_ENSt8__detail10_Select1stESt8equal_toIiESt4hashIiENS4_18_Mod_range_hashingENS4_20_Default_ranged_hashENS4_20_Prime_rehash_policyENS4_17_Hashtable_traitsILb0ELb0ELb1EEEE15_M_bucket_indexERKNS4_16_Hash_node_valueIS2_Lb0EEE(ptr noundef nonnull align 8 dereferenceable(56) %this, ptr noundef nonnull align 4 dereferenceable(8) %__n) #7 comdat align 2 {
entry:
  %this.addr = alloca ptr, align 8
  %__n.addr = alloca ptr, align 8
  store ptr %this, ptr %this.addr, align 8, !tbaa !168
  store ptr %__n, ptr %__n.addr, align 8, !tbaa !180
  %this1 = load ptr, ptr %this.addr, align 8
  %0 = load ptr, ptr %__n.addr, align 8, !tbaa !180
  %_M_bucket_count = getelementptr inbounds nuw %"class.std::_Hashtable", ptr %this1, i32 0, i32 1
  %1 = load i64, ptr %_M_bucket_count, align 8, !tbaa !184
  %call = call noundef i64 @_ZNKSt8__detail15_Hash_code_baseIiSt4pairIKiiENS_10_Select1stESt4hashIiENS_18_Mod_range_hashingENS_20_Default_ranged_hashELb0EE15_M_bucket_indexERKNS_16_Hash_node_valueIS3_Lb0EEEm(ptr noundef nonnull align 1 dereferenceable(1) %this1, ptr noundef nonnull align 4 dereferenceable(8) %0, i64 noundef %1) #3
  ret i64 %call
}

; Function Attrs: mustprogress nounwind uwtable
define linkonce_odr noundef zeroext i1 @_ZNSt8__detail15_Hashtable_baseIiSt4pairIKiiENS_10_Select1stESt8equal_toIiESt4hashIiENS_18_Mod_range_hashingENS_20_Default_ranged_hashENS_17_Hashtable_traitsILb0ELb0ELb1EEEE9_S_equalsEmRKNS_21_Hash_node_code_cacheILb0EEE(i64 noundef %0, ptr noundef nonnull align 1 dereferenceable(1) %1) #7 comdat align 2 {
entry:
  %.addr = alloca i64, align 8
  %.addr1 = alloca ptr, align 8
  store i64 %0, ptr %.addr, align 8, !tbaa !54
  store ptr %1, ptr %.addr1, align 8, !tbaa !209
  ret i1 true
}

; Function Attrs: mustprogress nounwind uwtable
define linkonce_odr noundef i64 @_ZNKSt8__detail15_Hash_code_baseIiSt4pairIKiiENS_10_Select1stESt4hashIiENS_18_Mod_range_hashingENS_20_Default_ranged_hashELb0EE15_M_bucket_indexERKNS_16_Hash_node_valueIS3_Lb0EEEm(ptr noundef nonnull align 1 dereferenceable(1) %this, ptr noundef nonnull align 4 dereferenceable(8) %__n, i64 noundef %__bkt_count) #7 comdat align 2 personality ptr @__gxx_personality_v0 {
entry:
  %this.addr = alloca ptr, align 8
  %__n.addr = alloca ptr, align 8
  %__bkt_count.addr = alloca i64, align 8
  %ref.tmp = alloca %"struct.std::__detail::_Mod_range_hashing", align 1
  %ref.tmp2 = alloca %"struct.std::__detail::_Select1st", align 1
  store ptr %this, ptr %this.addr, align 8, !tbaa !182
  store ptr %__n, ptr %__n.addr, align 8, !tbaa !180
  store i64 %__bkt_count, ptr %__bkt_count.addr, align 8, !tbaa !54
  %this1 = load ptr, ptr %this.addr, align 8
  call void @llvm.lifetime.start.p0(i64 1, ptr %ref.tmp) #3
  call void @llvm.lifetime.start.p0(i64 1, ptr %ref.tmp2) #3
  %0 = load ptr, ptr %__n.addr, align 8, !tbaa !180
  %call = call noundef nonnull align 4 dereferenceable(8) ptr @_ZNKSt8__detail21_Hash_node_value_baseISt4pairIKiiEE4_M_vEv(ptr noundef nonnull align 4 dereferenceable(8) %0) #3
  %call3 = call noundef nonnull align 4 dereferenceable(4) ptr @_ZNKSt8__detail10_Select1stclIRKSt4pairIKiiEEEONS0_10__1st_typeIT_E4typeEOS8_(ptr noundef nonnull align 1 dereferenceable(1) %ref.tmp2, ptr noundef nonnull align 4 dereferenceable(8) %call) #3
  %call4 = invoke noundef i64 @_ZNKSt8__detail15_Hash_code_baseIiSt4pairIKiiENS_10_Select1stESt4hashIiENS_18_Mod_range_hashingENS_20_Default_ranged_hashELb0EE12_M_hash_codeERS2_(ptr noundef nonnull align 1 dereferenceable(1) %this1, ptr noundef nonnull align 4 dereferenceable(4) %call3)
          to label %invoke.cont unwind label %terminate.lpad

invoke.cont:                                      ; preds = %entry
  %1 = load i64, ptr %__bkt_count.addr, align 8, !tbaa !54
  %call5 = call noundef i64 @_ZNKSt8__detail18_Mod_range_hashingclEmm(ptr noundef nonnull align 1 dereferenceable(1) %ref.tmp, i64 noundef %call4, i64 noundef %1) #3
  call void @llvm.lifetime.end.p0(i64 1, ptr %ref.tmp2) #3
  call void @llvm.lifetime.end.p0(i64 1, ptr %ref.tmp) #3
  ret i64 %call5

terminate.lpad:                                   ; preds = %entry
  %2 = landingpad { ptr, i32 }
          catch ptr null
  %3 = extractvalue { ptr, i32 } %2, 0
  call void @__clang_call_terminate(ptr %3) #26
  unreachable
}

; Function Attrs: mustprogress nounwind uwtable
define linkonce_odr void @_ZNSt8__detail19_Node_iterator_baseISt4pairIKiiELb0EEC2EPNS_10_Hash_nodeIS3_Lb0EEE(ptr noundef nonnull align 8 dereferenceable(8) %this, ptr noundef %__p) unnamed_addr #7 comdat align 2 {
entry:
  %this.addr = alloca ptr, align 8
  %__p.addr = alloca ptr, align 8
  store ptr %this, ptr %this.addr, align 8, !tbaa !43
  store ptr %__p, ptr %__p.addr, align 8, !tbaa !187
  %this1 = load ptr, ptr %this.addr, align 8
  %_M_cur = getelementptr inbounds nuw %"struct.std::__detail::_Node_iterator_base", ptr %this1, i32 0, i32 0
  %0 = load ptr, ptr %__p.addr, align 8, !tbaa !187
  store ptr %0, ptr %_M_cur, align 8, !tbaa !45
  ret void
}

; Function Attrs: inlinehint mustprogress uwtable
define linkonce_odr void @_ZN3fmt2v68internal7vformatIcEENSt7__cxx1112basic_stringIT_St11char_traitsIS5_ESaIS5_EEENS0_17basic_string_viewIS5_EENS0_17basic_format_argsINS0_20basic_format_contextISt20back_insert_iteratorINS1_6bufferIS5_EEES5_EEEE(ptr dead_on_unwind noalias writable sret(%"class.std::__cxx11::basic_string") align 8 %agg.result, ptr %format_str.coerce0, i64 %format_str.coerce1, i64 %args.coerce0, ptr %args.coerce1) #9 comdat personality ptr @__gxx_personality_v0 {
entry:
  %result.ptr = alloca ptr, align 8
  %format_str = alloca %"class.fmt::v6::basic_string_view", align 8
  %args = alloca %"class.fmt::v6::basic_format_args", align 8
  %buffer = alloca %"class.fmt::v6::basic_memory_buffer", align 8
  %ref.tmp = alloca %"class.std::allocator.5", align 1
  %exn.slot = alloca ptr, align 8
  %ehselector.slot = alloca i32, align 4
  %agg.tmp = alloca %"class.fmt::v6::basic_string_view", align 8
  %agg.tmp1 = alloca %"class.fmt::v6::basic_format_args", align 8
  %coerce = alloca %"class.std::back_insert_iterator", align 8
  store ptr %agg.result, ptr %result.ptr, align 8
  %0 = getelementptr inbounds nuw { ptr, i64 }, ptr %format_str, i32 0, i32 0
  store ptr %format_str.coerce0, ptr %0, align 8
  %1 = getelementptr inbounds nuw { ptr, i64 }, ptr %format_str, i32 0, i32 1
  store i64 %format_str.coerce1, ptr %1, align 8
  %2 = getelementptr inbounds nuw { i64, ptr }, ptr %args, i32 0, i32 0
  store i64 %args.coerce0, ptr %2, align 8
  %3 = getelementptr inbounds nuw { i64, ptr }, ptr %args, i32 0, i32 1
  store ptr %args.coerce1, ptr %3, align 8
  call void @llvm.lifetime.start.p0(i64 536, ptr %buffer) #3
  call void @llvm.lifetime.start.p0(i64 1, ptr %ref.tmp) #3
  call void @_ZNSaIcEC2Ev(ptr noundef nonnull align 1 dereferenceable(1) %ref.tmp) #3
  invoke void @_ZN3fmt2v619basic_memory_bufferIcLm500ESaIcEEC2ERKS2_(ptr noundef nonnull align 8 dereferenceable(532) %buffer, ptr noundef nonnull align 1 dereferenceable(1) %ref.tmp)
          to label %invoke.cont unwind label %lpad

invoke.cont:                                      ; preds = %entry
  call void @_ZNSt15__new_allocatorIcED2Ev(ptr noundef nonnull align 1 dereferenceable(1) %ref.tmp) #3
  call void @llvm.lifetime.end.p0(i64 1, ptr %ref.tmp) #3
  call void @llvm.memcpy.p0.p0.i64(ptr align 8 %agg.tmp, ptr align 8 %format_str, i64 16, i1 false), !tbaa.struct !211
  call void @llvm.memcpy.p0.p0.i64(ptr align 8 %agg.tmp1, ptr align 8 %args, i64 16, i1 false), !tbaa.struct !212
  %4 = getelementptr inbounds nuw { ptr, i64 }, ptr %agg.tmp, i32 0, i32 0
  %5 = load ptr, ptr %4, align 8
  %6 = getelementptr inbounds nuw { ptr, i64 }, ptr %agg.tmp, i32 0, i32 1
  %7 = load i64, ptr %6, align 8
  %8 = getelementptr inbounds nuw { i64, ptr }, ptr %agg.tmp1, i32 0, i32 0
  %9 = load i64, ptr %8, align 8
  %10 = getelementptr inbounds nuw { i64, ptr }, ptr %agg.tmp1, i32 0, i32 1
  %11 = load ptr, ptr %10, align 8
  %call = invoke ptr @_ZN3fmt2v68internal10vformat_toIcEENS0_20basic_format_contextISt20back_insert_iteratorINS1_6bufferIT_EEES6_E8iteratorERS7_NS0_17basic_string_viewIS6_EENS0_17basic_format_argsIS9_EE(ptr noundef nonnull align 8 dereferenceable(32) %buffer, ptr %5, i64 %7, i64 %9, ptr %11)
          to label %invoke.cont3 unwind label %lpad2

invoke.cont3:                                     ; preds = %invoke.cont
  %coerce.dive = getelementptr inbounds nuw %"class.std::back_insert_iterator", ptr %coerce, i32 0, i32 0
  store ptr %call, ptr %coerce.dive, align 8
  invoke void @_ZN3fmt2v69to_stringIcLm500EEENSt7__cxx1112basic_stringIT_St11char_traitsIS4_ESaIS4_EEERKNS0_19basic_memory_bufferIS4_XT0_ES7_EE(ptr dead_on_unwind writable sret(%"class.std::__cxx11::basic_string") align 8 %agg.result, ptr noundef nonnull align 8 dereferenceable(532) %buffer)
          to label %invoke.cont4 unwind label %lpad2

invoke.cont4:                                     ; preds = %invoke.cont3
  call void @_ZN3fmt2v619basic_memory_bufferIcLm500ESaIcEED2Ev(ptr noundef nonnull align 8 dereferenceable(532) %buffer) #3
  call void @llvm.lifetime.end.p0(i64 536, ptr %buffer) #3
  ret void

lpad:                                             ; preds = %entry
  %12 = landingpad { ptr, i32 }
          cleanup
  %13 = extractvalue { ptr, i32 } %12, 0
  store ptr %13, ptr %exn.slot, align 8
  %14 = extractvalue { ptr, i32 } %12, 1
  store i32 %14, ptr %ehselector.slot, align 4
  call void @_ZNSt15__new_allocatorIcED2Ev(ptr noundef nonnull align 1 dereferenceable(1) %ref.tmp) #3
  call void @llvm.lifetime.end.p0(i64 1, ptr %ref.tmp) #3
  br label %ehcleanup

lpad2:                                            ; preds = %invoke.cont3, %invoke.cont
  %15 = landingpad { ptr, i32 }
          cleanup
  %16 = extractvalue { ptr, i32 } %15, 0
  store ptr %16, ptr %exn.slot, align 8
  %17 = extractvalue { ptr, i32 } %15, 1
  store i32 %17, ptr %ehselector.slot, align 4
  call void @_ZN3fmt2v619basic_memory_bufferIcLm500ESaIcEED2Ev(ptr noundef nonnull align 8 dereferenceable(532) %buffer) #3
  br label %ehcleanup

ehcleanup:                                        ; preds = %lpad2, %lpad
  call void @llvm.lifetime.end.p0(i64 536, ptr %buffer) #3
  br label %eh.resume

eh.resume:                                        ; preds = %ehcleanup
  %exn = load ptr, ptr %exn.slot, align 8
  %sel = load i32, ptr %ehselector.slot, align 4
  %lpad.val = insertvalue { ptr, i32 } poison, ptr %exn, 0
  %lpad.val5 = insertvalue { ptr, i32 } %lpad.val, i32 %sel, 1
  resume { ptr, i32 } %lpad.val5
}

; Function Attrs: inlinehint mustprogress uwtable
define linkonce_odr { ptr, i64 } @_ZN3fmt2v614to_string_viewIcTnNSt9enable_ifIXsr7is_charIT_EE5valueEiE4typeELi0EEENS0_17basic_string_viewIS3_EEPKS3_(ptr noundef %s) #9 comdat {
entry:
  %retval = alloca %"class.fmt::v6::basic_string_view", align 8
  %s.addr = alloca ptr, align 8
  store ptr %s, ptr %s.addr, align 8, !tbaa !27
  %0 = load ptr, ptr %s.addr, align 8, !tbaa !27
  call void @_ZN3fmt2v617basic_string_viewIcEC2EPKc(ptr noundef nonnull align 8 dereferenceable(16) %retval, ptr noundef %0)
  %1 = load { ptr, i64 }, ptr %retval, align 8
  ret { ptr, i64 } %1
}

; Function Attrs: inlinehint mustprogress uwtable
define linkonce_odr { i64, i64 } @_ZN3fmt2v68internal17make_args_checkedIJRiEA54_ccEENS0_16format_arg_storeINS0_20basic_format_contextISt20back_insert_iteratorINS1_6bufferIT1_EEES9_EEJDpNSt16remove_referenceIT_E4typeEEEERKT0_DpRKSG_(ptr noundef nonnull align 1 dereferenceable(54) %format_str, ptr noundef nonnull align 4 dereferenceable(4) %args) #9 comdat {
entry:
  %retval = alloca %"class.fmt::v6::format_arg_store", align 16
  %format_str.addr = alloca ptr, align 8
  %args.addr = alloca ptr, align 8
  store ptr %format_str, ptr %format_str.addr, align 8, !tbaa !27
  store ptr %args, ptr %args.addr, align 8, !tbaa !21
  %0 = load ptr, ptr %format_str.addr, align 8, !tbaa !27
  call void @_ZN3fmt2v68internal19check_format_stringIJiEA54_cTnNSt9enable_ifIXntsr17is_compile_stringIT0_EE5valueEiE4typeELi0EEEvRKS5_(ptr noundef nonnull align 1 dereferenceable(54) %0)
  %1 = load ptr, ptr %args.addr, align 8, !tbaa !21
  call void @_ZN3fmt2v616format_arg_storeINS0_20basic_format_contextISt20back_insert_iteratorINS0_8internal6bufferIcEEEcEEJiEEC2ERKi(ptr noundef nonnull align 16 dereferenceable(16) %retval, ptr noundef nonnull align 4 dereferenceable(4) %1)
  %coerce.dive = getelementptr inbounds nuw %"class.fmt::v6::format_arg_store", ptr %retval, i32 0, i32 0
  %2 = load { i64, i64 }, ptr %coerce.dive, align 16
  ret { i64, i64 } %2
}

; Function Attrs: mustprogress uwtable
define linkonce_odr void @_ZN3fmt2v617basic_format_argsINS0_20basic_format_contextISt20back_insert_iteratorINS0_8internal6bufferIcEEEcEEEC2IJiEEERKNS0_16format_arg_storeIS8_JDpT_EEE(ptr noundef nonnull align 8 dereferenceable(16) %this, ptr noundef nonnull align 16 dereferenceable(16) %store) unnamed_addr #4 comdat align 2 {
entry:
  %this.addr = alloca ptr, align 8
  %store.addr = alloca ptr, align 8
  store ptr %this, ptr %this.addr, align 8, !tbaa !215
  store ptr %store, ptr %store.addr, align 8, !tbaa !217
  %this1 = load ptr, ptr %this.addr, align 8
  %types_ = getelementptr inbounds nuw %"class.fmt::v6::basic_format_args", ptr %this1, i32 0, i32 0
  %0 = load ptr, ptr %store.addr, align 8, !tbaa !217
  store i64 2, ptr %types_, align 8, !tbaa !219
  %1 = load ptr, ptr %store.addr, align 8, !tbaa !217
  %data_ = getelementptr inbounds nuw %"class.fmt::v6::format_arg_store", ptr %1, i32 0, i32 0
  %arraydecay = getelementptr inbounds [1 x %"class.fmt::v6::internal::value"], ptr %data_, i64 0, i64 0
  call void @_ZN3fmt2v617basic_format_argsINS0_20basic_format_contextISt20back_insert_iteratorINS0_8internal6bufferIcEEEcEEE8set_dataEPKNS4_5valueIS8_EE(ptr noundef nonnull align 8 dereferenceable(16) %this1, ptr noundef %arraydecay)
  ret void
}

; Function Attrs: mustprogress nounwind uwtable
define available_externally void @_ZNSaIcEC2Ev(ptr noundef nonnull align 1 dereferenceable(1) %this) unnamed_addr #7 align 2 {
entry:
  %this.addr = alloca ptr, align 8
  store ptr %this, ptr %this.addr, align 8, !tbaa !136
  %this1 = load ptr, ptr %this.addr, align 8
  call void @_ZNSt15__new_allocatorIcEC2Ev(ptr noundef nonnull align 1 dereferenceable(1) %this1) #3
  ret void
}

; Function Attrs: mustprogress nounwind uwtable
define linkonce_odr void @_ZN3fmt2v619basic_memory_bufferIcLm500ESaIcEEC2ERKS2_(ptr noundef nonnull align 8 dereferenceable(532) %this, ptr noundef nonnull align 1 dereferenceable(1) %alloc) unnamed_addr #7 comdat align 2 {
entry:
  %this.addr = alloca ptr, align 8
  %alloc.addr = alloca ptr, align 8
  store ptr %this, ptr %this.addr, align 8, !tbaa !221
  store ptr %alloc, ptr %alloc.addr, align 8, !tbaa !136
  %this1 = load ptr, ptr %this.addr, align 8
  %0 = load ptr, ptr %alloc.addr, align 8, !tbaa !136
  call void @_ZNSaIcEC2ERKS_(ptr noundef nonnull align 1 dereferenceable(1) %this1, ptr noundef nonnull align 1 dereferenceable(1) %0) #3
  call void @_ZN3fmt2v68internal6bufferIcEC2EPcmm(ptr noundef nonnull align 8 dereferenceable(32) %this1, ptr noundef null, i64 noundef 0, i64 noundef 0) #3
  store ptr getelementptr inbounds inrange(-16, 24) ({ [5 x ptr] }, ptr @_ZTVN3fmt2v619basic_memory_bufferIcLm500ESaIcEEE, i32 0, i32 0, i32 2), ptr %this1, align 8, !tbaa !33
  %store_ = getelementptr inbounds nuw %"class.fmt::v6::basic_memory_buffer", ptr %this1, i32 0, i32 1
  %arraydecay = getelementptr inbounds [500 x i8], ptr %store_, i64 0, i64 0
  call void @_ZN3fmt2v68internal6bufferIcE3setEPcm(ptr noundef nonnull align 8 dereferenceable(32) %this1, ptr noundef %arraydecay, i64 noundef 500) #3
  ret void
}

; Function Attrs: mustprogress uwtable
define linkonce_odr ptr @_ZN3fmt2v68internal10vformat_toIcEENS0_20basic_format_contextISt20back_insert_iteratorINS1_6bufferIT_EEES6_E8iteratorERS7_NS0_17basic_string_viewIS6_EENS0_17basic_format_argsIS9_EE(ptr noundef nonnull align 8 dereferenceable(32) %buf, ptr %format_str.coerce0, i64 %format_str.coerce1, i64 %args.coerce0, ptr %args.coerce1) #4 comdat {
entry:
  %retval = alloca %"class.std::back_insert_iterator", align 8
  %format_str = alloca %"class.fmt::v6::basic_string_view", align 8
  %args = alloca %"class.fmt::v6::basic_format_args", align 8
  %buf.addr = alloca ptr, align 8
  %agg.tmp = alloca %"class.fmt::v6::buffer_range", align 8
  %agg.tmp1 = alloca %"class.fmt::v6::basic_string_view", align 8
  %agg.tmp2 = alloca %"class.fmt::v6::basic_string_view", align 8
  %agg.tmp3 = alloca %"class.fmt::v6::basic_format_args", align 8
  %agg.tmp4 = alloca %"class.fmt::v6::internal::locale_ref", align 8
  %0 = getelementptr inbounds nuw { ptr, i64 }, ptr %format_str, i32 0, i32 0
  store ptr %format_str.coerce0, ptr %0, align 8
  %1 = getelementptr inbounds nuw { ptr, i64 }, ptr %format_str, i32 0, i32 1
  store i64 %format_str.coerce1, ptr %1, align 8
  %2 = getelementptr inbounds nuw { i64, ptr }, ptr %args, i32 0, i32 0
  store i64 %args.coerce0, ptr %2, align 8
  %3 = getelementptr inbounds nuw { i64, ptr }, ptr %args, i32 0, i32 1
  store ptr %args.coerce1, ptr %3, align 8
  store ptr %buf, ptr %buf.addr, align 8, !tbaa !223
  %4 = load ptr, ptr %buf.addr, align 8, !tbaa !223
  call void @_ZN3fmt2v612buffer_rangeIcEC2ERNS0_8internal6bufferIcEE(ptr noundef nonnull align 8 dereferenceable(8) %agg.tmp, ptr noundef nonnull align 8 dereferenceable(32) %4)
  call void @llvm.memcpy.p0.p0.i64(ptr align 8 %agg.tmp2, ptr align 8 %format_str, i64 16, i1 false), !tbaa.struct !211
  %5 = getelementptr inbounds nuw { ptr, i64 }, ptr %agg.tmp2, i32 0, i32 0
  %6 = load ptr, ptr %5, align 8
  %7 = getelementptr inbounds nuw { ptr, i64 }, ptr %agg.tmp2, i32 0, i32 1
  %8 = load i64, ptr %7, align 8
  %call = call { ptr, i64 } @_ZN3fmt2v614to_string_viewIcEENS0_17basic_string_viewIT_EES4_(ptr %6, i64 %8)
  %9 = getelementptr inbounds nuw { ptr, i64 }, ptr %agg.tmp1, i32 0, i32 0
  %10 = extractvalue { ptr, i64 } %call, 0
  store ptr %10, ptr %9, align 8
  %11 = getelementptr inbounds nuw { ptr, i64 }, ptr %agg.tmp1, i32 0, i32 1
  %12 = extractvalue { ptr, i64 } %call, 1
  store i64 %12, ptr %11, align 8
  call void @llvm.memcpy.p0.p0.i64(ptr align 8 %agg.tmp3, ptr align 8 %args, i64 16, i1 false), !tbaa.struct !212
  call void @_ZN3fmt2v68internal10locale_refC2Ev(ptr noundef nonnull align 8 dereferenceable(8) %agg.tmp4)
  %coerce.dive = getelementptr inbounds nuw %"class.fmt::v6::buffer_range", ptr %agg.tmp, i32 0, i32 0
  %coerce.dive5 = getelementptr inbounds nuw %"class.fmt::v6::internal::output_range", ptr %coerce.dive, i32 0, i32 0
  %coerce.dive6 = getelementptr inbounds nuw %"class.std::back_insert_iterator", ptr %coerce.dive5, i32 0, i32 0
  %13 = load ptr, ptr %coerce.dive6, align 8
  %14 = getelementptr inbounds nuw { ptr, i64 }, ptr %agg.tmp1, i32 0, i32 0
  %15 = load ptr, ptr %14, align 8
  %16 = getelementptr inbounds nuw { ptr, i64 }, ptr %agg.tmp1, i32 0, i32 1
  %17 = load i64, ptr %16, align 8
  %18 = getelementptr inbounds nuw { i64, ptr }, ptr %agg.tmp3, i32 0, i32 0
  %19 = load i64, ptr %18, align 8
  %20 = getelementptr inbounds nuw { i64, ptr }, ptr %agg.tmp3, i32 0, i32 1
  %21 = load ptr, ptr %20, align 8
  %coerce.dive7 = getelementptr inbounds nuw %"class.fmt::v6::internal::locale_ref", ptr %agg.tmp4, i32 0, i32 0
  %22 = load ptr, ptr %coerce.dive7, align 8
  %call8 = call ptr @_ZN3fmt2v610vformat_toINS0_13arg_formatterINS0_12buffer_rangeIcEEEEcNS0_20basic_format_contextISt20back_insert_iteratorINS0_8internal6bufferIcEEEcEEEENT1_8iteratorENT_5rangeENS0_17basic_string_viewIT0_EENS0_17basic_format_argsISD_EENS8_10locale_refE(ptr %13, ptr %15, i64 %17, i64 %19, ptr %21, ptr %22)
  %coerce.dive9 = getelementptr inbounds nuw %"class.std::back_insert_iterator", ptr %retval, i32 0, i32 0
  store ptr %call8, ptr %coerce.dive9, align 8
  %coerce.dive10 = getelementptr inbounds nuw %"class.std::back_insert_iterator", ptr %retval, i32 0, i32 0
  %23 = load ptr, ptr %coerce.dive10, align 8
  ret ptr %23
}

; Function Attrs: mustprogress uwtable
define linkonce_odr void @_ZN3fmt2v69to_stringIcLm500EEENSt7__cxx1112basic_stringIT_St11char_traitsIS4_ESaIS4_EEERKNS0_19basic_memory_bufferIS4_XT0_ES7_EE(ptr dead_on_unwind noalias writable sret(%"class.std::__cxx11::basic_string") align 8 %agg.result, ptr noundef nonnull align 8 dereferenceable(532) %buf) #4 comdat personality ptr @__gxx_personality_v0 {
entry:
  %result.ptr = alloca ptr, align 8
  %buf.addr = alloca ptr, align 8
  %ref.tmp = alloca %"class.std::allocator.5", align 1
  %exn.slot = alloca ptr, align 8
  %ehselector.slot = alloca i32, align 4
  store ptr %agg.result, ptr %result.ptr, align 8
  store ptr %buf, ptr %buf.addr, align 8, !tbaa !221
  %0 = load ptr, ptr %buf.addr, align 8, !tbaa !221
  %call = call noundef ptr @_ZNK3fmt2v68internal6bufferIcE4dataEv(ptr noundef nonnull align 8 dereferenceable(32) %0) #3
  %1 = load ptr, ptr %buf.addr, align 8, !tbaa !221
  %call1 = call noundef i64 @_ZNK3fmt2v68internal6bufferIcE4sizeEv(ptr noundef nonnull align 8 dereferenceable(32) %1) #3
  call void @llvm.lifetime.start.p0(i64 1, ptr %ref.tmp) #3
  call void @_ZNSaIcEC2Ev(ptr noundef nonnull align 1 dereferenceable(1) %ref.tmp) #3
  invoke void @_ZNSt7__cxx1112basic_stringIcSt11char_traitsIcESaIcEEC2EPKcmRKS3_(ptr noundef nonnull align 8 dereferenceable(32) %agg.result, ptr noundef %call, i64 noundef %call1, ptr noundef nonnull align 1 dereferenceable(1) %ref.tmp)
          to label %invoke.cont unwind label %lpad

invoke.cont:                                      ; preds = %entry
  call void @_ZNSt15__new_allocatorIcED2Ev(ptr noundef nonnull align 1 dereferenceable(1) %ref.tmp) #3
  call void @llvm.lifetime.end.p0(i64 1, ptr %ref.tmp) #3
  ret void

lpad:                                             ; preds = %entry
  %2 = landingpad { ptr, i32 }
          cleanup
  %3 = extractvalue { ptr, i32 } %2, 0
  store ptr %3, ptr %exn.slot, align 8
  %4 = extractvalue { ptr, i32 } %2, 1
  store i32 %4, ptr %ehselector.slot, align 4
  call void @_ZNSt15__new_allocatorIcED2Ev(ptr noundef nonnull align 1 dereferenceable(1) %ref.tmp) #3
  call void @llvm.lifetime.end.p0(i64 1, ptr %ref.tmp) #3
  br label %eh.resume

eh.resume:                                        ; preds = %lpad
  %exn = load ptr, ptr %exn.slot, align 8
  %sel = load i32, ptr %ehselector.slot, align 4
  %lpad.val = insertvalue { ptr, i32 } poison, ptr %exn, 0
  %lpad.val2 = insertvalue { ptr, i32 } %lpad.val, i32 %sel, 1
  resume { ptr, i32 } %lpad.val2
}

; Function Attrs: mustprogress nounwind uwtable
define linkonce_odr void @_ZN3fmt2v619basic_memory_bufferIcLm500ESaIcEED2Ev(ptr noundef nonnull align 8 dereferenceable(532) %this) unnamed_addr #7 comdat align 2 personality ptr @__gxx_personality_v0 {
entry:
  %this.addr = alloca ptr, align 8
  store ptr %this, ptr %this.addr, align 8, !tbaa !221
  %this1 = load ptr, ptr %this.addr, align 8
  store ptr getelementptr inbounds inrange(-16, 24) ({ [5 x ptr] }, ptr @_ZTVN3fmt2v619basic_memory_bufferIcLm500ESaIcEEE, i32 0, i32 0, i32 2), ptr %this1, align 8, !tbaa !33
  invoke void @_ZN3fmt2v619basic_memory_bufferIcLm500ESaIcEE10deallocateEv(ptr noundef nonnull align 8 dereferenceable(532) %this1)
          to label %invoke.cont unwind label %terminate.lpad

invoke.cont:                                      ; preds = %entry
  call void @_ZN3fmt2v68internal6bufferIcED2Ev(ptr noundef nonnull align 8 dereferenceable(32) %this1) #3
  call void @_ZNSt15__new_allocatorIcED2Ev(ptr noundef nonnull align 1 dereferenceable(1) %this1) #3
  ret void

terminate.lpad:                                   ; preds = %entry
  %0 = landingpad { ptr, i32 }
          catch ptr null
  %1 = extractvalue { ptr, i32 } %0, 0
  call void @__clang_call_terminate(ptr %1) #26
  unreachable
}

; Function Attrs: mustprogress nounwind uwtable
define linkonce_odr void @_ZNSt15__new_allocatorIcEC2Ev(ptr noundef nonnull align 1 dereferenceable(1) %this) unnamed_addr #7 comdat align 2 {
entry:
  %this.addr = alloca ptr, align 8
  store ptr %this, ptr %this.addr, align 8, !tbaa !138
  %this1 = load ptr, ptr %this.addr, align 8
  ret void
}

; Function Attrs: mustprogress nounwind uwtable
define linkonce_odr void @_ZN3fmt2v68internal6bufferIcEC2EPcmm(ptr noundef nonnull align 8 dereferenceable(32) %this, ptr noundef %p, i64 noundef %sz, i64 noundef %cap) unnamed_addr #7 comdat align 2 {
entry:
  %this.addr = alloca ptr, align 8
  %p.addr = alloca ptr, align 8
  %sz.addr = alloca i64, align 8
  %cap.addr = alloca i64, align 8
  store ptr %this, ptr %this.addr, align 8, !tbaa !223
  store ptr %p, ptr %p.addr, align 8, !tbaa !27
  store i64 %sz, ptr %sz.addr, align 8, !tbaa !54
  store i64 %cap, ptr %cap.addr, align 8, !tbaa !54
  %this1 = load ptr, ptr %this.addr, align 8
  store ptr getelementptr inbounds inrange(-16, 24) ({ [5 x ptr] }, ptr @_ZTVN3fmt2v68internal6bufferIcEE, i32 0, i32 0, i32 2), ptr %this1, align 8, !tbaa !33
  %ptr_ = getelementptr inbounds nuw %"class.fmt::v6::internal::buffer", ptr %this1, i32 0, i32 1
  %0 = load ptr, ptr %p.addr, align 8, !tbaa !27
  store ptr %0, ptr %ptr_, align 8, !tbaa !225
  %size_ = getelementptr inbounds nuw %"class.fmt::v6::internal::buffer", ptr %this1, i32 0, i32 2
  %1 = load i64, ptr %sz.addr, align 8, !tbaa !54
  store i64 %1, ptr %size_, align 8, !tbaa !227
  %capacity_ = getelementptr inbounds nuw %"class.fmt::v6::internal::buffer", ptr %this1, i32 0, i32 3
  %2 = load i64, ptr %cap.addr, align 8, !tbaa !54
  store i64 %2, ptr %capacity_, align 8, !tbaa !228
  ret void
}

; Function Attrs: mustprogress nounwind uwtable
define linkonce_odr void @_ZN3fmt2v68internal6bufferIcE3setEPcm(ptr noundef nonnull align 8 dereferenceable(32) %this, ptr noundef %buf_data, i64 noundef %buf_capacity) #7 comdat align 2 {
entry:
  %this.addr = alloca ptr, align 8
  %buf_data.addr = alloca ptr, align 8
  %buf_capacity.addr = alloca i64, align 8
  store ptr %this, ptr %this.addr, align 8, !tbaa !223
  store ptr %buf_data, ptr %buf_data.addr, align 8, !tbaa !27
  store i64 %buf_capacity, ptr %buf_capacity.addr, align 8, !tbaa !54
  %this1 = load ptr, ptr %this.addr, align 8
  %0 = load ptr, ptr %buf_data.addr, align 8, !tbaa !27
  %ptr_ = getelementptr inbounds nuw %"class.fmt::v6::internal::buffer", ptr %this1, i32 0, i32 1
  store ptr %0, ptr %ptr_, align 8, !tbaa !225
  %1 = load i64, ptr %buf_capacity.addr, align 8, !tbaa !54
  %capacity_ = getelementptr inbounds nuw %"class.fmt::v6::internal::buffer", ptr %this1, i32 0, i32 3
  store i64 %1, ptr %capacity_, align 8, !tbaa !228
  ret void
}

; Function Attrs: mustprogress uwtable
define linkonce_odr void @_ZN3fmt2v619basic_memory_bufferIcLm500ESaIcEE4growEm(ptr noundef nonnull align 8 dereferenceable(532) %this, i64 noundef %size) unnamed_addr #4 comdat align 2 {
entry:
  %this.addr = alloca ptr, align 8
  %size.addr = alloca i64, align 8
  %old_capacity = alloca i64, align 8
  %new_capacity = alloca i64, align 8
  %old_data = alloca ptr, align 8
  %new_data = alloca ptr, align 8
  store ptr %this, ptr %this.addr, align 8, !tbaa !221
  store i64 %size, ptr %size.addr, align 8, !tbaa !54
  %this1 = load ptr, ptr %this.addr, align 8
  call void @llvm.lifetime.start.p0(i64 8, ptr %old_capacity) #3
  %call = call noundef i64 @_ZNK3fmt2v68internal6bufferIcE8capacityEv(ptr noundef nonnull align 8 dereferenceable(32) %this1) #3
  store i64 %call, ptr %old_capacity, align 8, !tbaa !54
  call void @llvm.lifetime.start.p0(i64 8, ptr %new_capacity) #3
  %0 = load i64, ptr %old_capacity, align 8, !tbaa !54
  %1 = load i64, ptr %old_capacity, align 8, !tbaa !54
  %div = udiv i64 %1, 2
  %add = add i64 %0, %div
  store i64 %add, ptr %new_capacity, align 8, !tbaa !54
  %2 = load i64, ptr %size.addr, align 8, !tbaa !54
  %3 = load i64, ptr %new_capacity, align 8, !tbaa !54
  %cmp = icmp ugt i64 %2, %3
  br i1 %cmp, label %if.then, label %if.end

if.then:                                          ; preds = %entry
  %4 = load i64, ptr %size.addr, align 8, !tbaa !54
  store i64 %4, ptr %new_capacity, align 8, !tbaa !54
  br label %if.end

if.end:                                           ; preds = %if.then, %entry
  call void @llvm.lifetime.start.p0(i64 8, ptr %old_data) #3
  %call2 = call noundef ptr @_ZN3fmt2v68internal6bufferIcE4dataEv(ptr noundef nonnull align 8 dereferenceable(32) %this1) #3
  store ptr %call2, ptr %old_data, align 8, !tbaa !27
  call void @llvm.lifetime.start.p0(i64 8, ptr %new_data) #3
  %5 = load i64, ptr %new_capacity, align 8, !tbaa !54
  %call3 = call noundef ptr @_ZNSt16allocator_traitsISaIcEE8allocateERS0_m(ptr noundef nonnull align 1 dereferenceable(1) %this1, i64 noundef %5)
  store ptr %call3, ptr %new_data, align 8, !tbaa !27
  %6 = load ptr, ptr %old_data, align 8, !tbaa !27
  %7 = load ptr, ptr %old_data, align 8, !tbaa !27
  %call4 = call noundef i64 @_ZNK3fmt2v68internal6bufferIcE4sizeEv(ptr noundef nonnull align 8 dereferenceable(32) %this1) #3
  %add.ptr = getelementptr inbounds nuw i8, ptr %7, i64 %call4
  %8 = load ptr, ptr %new_data, align 8, !tbaa !27
  %9 = load i64, ptr %new_capacity, align 8, !tbaa !54
  %call5 = call noundef ptr @_ZN3fmt2v68internal12make_checkedIcEEPT_S4_m(ptr noundef %8, i64 noundef %9)
  %call6 = call noundef ptr @_ZSt18uninitialized_copyIPcS0_ET0_T_S2_S1_(ptr noundef %6, ptr noundef %add.ptr, ptr noundef %call5)
  %10 = load ptr, ptr %new_data, align 8, !tbaa !27
  %11 = load i64, ptr %new_capacity, align 8, !tbaa !54
  call void @_ZN3fmt2v68internal6bufferIcE3setEPcm(ptr noundef nonnull align 8 dereferenceable(32) %this1, ptr noundef %10, i64 noundef %11) #3
  %12 = load ptr, ptr %old_data, align 8, !tbaa !27
  %store_ = getelementptr inbounds nuw %"class.fmt::v6::basic_memory_buffer", ptr %this1, i32 0, i32 1
  %arraydecay = getelementptr inbounds [500 x i8], ptr %store_, i64 0, i64 0
  %cmp7 = icmp ne ptr %12, %arraydecay
  br i1 %cmp7, label %if.then8, label %if.end9

if.then8:                                         ; preds = %if.end
  %13 = load ptr, ptr %old_data, align 8, !tbaa !27
  %14 = load i64, ptr %old_capacity, align 8, !tbaa !54
  call void @_ZNSt15__new_allocatorIcE10deallocateEPcm(ptr noundef nonnull align 1 dereferenceable(1) %this1, ptr noundef %13, i64 noundef %14)
  br label %if.end9

if.end9:                                          ; preds = %if.then8, %if.end
  call void @llvm.lifetime.end.p0(i64 8, ptr %new_data) #3
  call void @llvm.lifetime.end.p0(i64 8, ptr %old_data) #3
  call void @llvm.lifetime.end.p0(i64 8, ptr %new_capacity) #3
  call void @llvm.lifetime.end.p0(i64 8, ptr %old_capacity) #3
  ret void
}

; Function Attrs: mustprogress nounwind uwtable
define linkonce_odr void @_ZN3fmt2v619basic_memory_bufferIcLm500ESaIcEED0Ev(ptr noundef nonnull align 8 dereferenceable(532) %this) unnamed_addr #7 comdat align 2 {
entry:
  %this.addr = alloca ptr, align 8
  store ptr %this, ptr %this.addr, align 8, !tbaa !221
  %this1 = load ptr, ptr %this.addr, align 8
  call void @_ZN3fmt2v619basic_memory_bufferIcLm500ESaIcEED2Ev(ptr noundef nonnull align 8 dereferenceable(532) %this1) #3
  call void @_ZdlPvm(ptr noundef %this1, i64 noundef 536) #27
  ret void
}

declare void @__cxa_pure_virtual() unnamed_addr

; Function Attrs: mustprogress nounwind uwtable
define linkonce_odr void @_ZN3fmt2v68internal6bufferIcED2Ev(ptr noundef nonnull align 8 dereferenceable(32) %this) unnamed_addr #7 comdat align 2 {
entry:
  %this.addr = alloca ptr, align 8
  store ptr %this, ptr %this.addr, align 8, !tbaa !223
  %this1 = load ptr, ptr %this.addr, align 8
  ret void
}

; Function Attrs: mustprogress nounwind uwtable
define linkonce_odr void @_ZN3fmt2v68internal6bufferIcED0Ev(ptr noundef nonnull align 8 dereferenceable(32) %this) unnamed_addr #7 comdat align 2 {
entry:
  %this.addr = alloca ptr, align 8
  store ptr %this, ptr %this.addr, align 8, !tbaa !223
  %this1 = load ptr, ptr %this.addr, align 8
  call void @llvm.trap() #26
  unreachable
}

; Function Attrs: cold noreturn nounwind memory(inaccessiblemem: write)
declare void @llvm.trap() #17

; Function Attrs: mustprogress nounwind uwtable
define linkonce_odr noundef i64 @_ZNK3fmt2v68internal6bufferIcE8capacityEv(ptr noundef nonnull align 8 dereferenceable(32) %this) #7 comdat align 2 {
entry:
  %this.addr = alloca ptr, align 8
  store ptr %this, ptr %this.addr, align 8, !tbaa !223
  %this1 = load ptr, ptr %this.addr, align 8
  %capacity_ = getelementptr inbounds nuw %"class.fmt::v6::internal::buffer", ptr %this1, i32 0, i32 3
  %0 = load i64, ptr %capacity_, align 8, !tbaa !228
  ret i64 %0
}

; Function Attrs: mustprogress nounwind uwtable
define linkonce_odr noundef ptr @_ZN3fmt2v68internal6bufferIcE4dataEv(ptr noundef nonnull align 8 dereferenceable(32) %this) #7 comdat align 2 {
entry:
  %this.addr = alloca ptr, align 8
  store ptr %this, ptr %this.addr, align 8, !tbaa !223
  %this1 = load ptr, ptr %this.addr, align 8
  %ptr_ = getelementptr inbounds nuw %"class.fmt::v6::internal::buffer", ptr %this1, i32 0, i32 1
  %0 = load ptr, ptr %ptr_, align 8, !tbaa !225
  ret ptr %0
}

; Function Attrs: mustprogress uwtable
define linkonce_odr noundef ptr @_ZNSt16allocator_traitsISaIcEE8allocateERS0_m(ptr noundef nonnull align 1 dereferenceable(1) %__a, i64 noundef %__n) #4 comdat align 2 {
entry:
  %__a.addr = alloca ptr, align 8
  %__n.addr = alloca i64, align 8
  store ptr %__a, ptr %__a.addr, align 8, !tbaa !136
  store i64 %__n, ptr %__n.addr, align 8, !tbaa !54
  %0 = load ptr, ptr %__a.addr, align 8, !tbaa !136
  %1 = load i64, ptr %__n.addr, align 8, !tbaa !54
  %call = call noundef ptr @_ZNSt15__new_allocatorIcE8allocateEmPKv(ptr noundef nonnull align 1 dereferenceable(1) %0, i64 noundef %1, ptr noundef null)
  ret ptr %call
}

; Function Attrs: inlinehint mustprogress uwtable
define linkonce_odr noundef ptr @_ZSt18uninitialized_copyIPcS0_ET0_T_S2_S1_(ptr noundef %__first, ptr noundef %__last, ptr noundef %__result) #9 comdat {
entry:
  %__first.addr = alloca ptr, align 8
  %__last.addr = alloca ptr, align 8
  %__result.addr = alloca ptr, align 8
  %__can_memmove = alloca i8, align 1
  %__assignable = alloca i8, align 1
  store ptr %__first, ptr %__first.addr, align 8, !tbaa !27
  store ptr %__last, ptr %__last.addr, align 8, !tbaa !27
  store ptr %__result, ptr %__result.addr, align 8, !tbaa !27
  call void @llvm.lifetime.start.p0(i64 1, ptr %__can_memmove) #3
  store i8 1, ptr %__can_memmove, align 1, !tbaa !29
  call void @llvm.lifetime.start.p0(i64 1, ptr %__assignable) #3
  store i8 1, ptr %__assignable, align 1, !tbaa !29
  %0 = load ptr, ptr %__first.addr, align 8, !tbaa !27
  %1 = load ptr, ptr %__last.addr, align 8, !tbaa !27
  %2 = load ptr, ptr %__result.addr, align 8, !tbaa !27
  %call = call noundef ptr @_ZNSt20__uninitialized_copyILb1EE13__uninit_copyIPcS2_EET0_T_S4_S3_(ptr noundef %0, ptr noundef %1, ptr noundef %2)
  call void @llvm.lifetime.end.p0(i64 1, ptr %__assignable) #3
  call void @llvm.lifetime.end.p0(i64 1, ptr %__can_memmove) #3
  ret ptr %call
}

; Function Attrs: mustprogress nounwind uwtable
define linkonce_odr noundef i64 @_ZNK3fmt2v68internal6bufferIcE4sizeEv(ptr noundef nonnull align 8 dereferenceable(32) %this) #7 comdat align 2 {
entry:
  %this.addr = alloca ptr, align 8
  store ptr %this, ptr %this.addr, align 8, !tbaa !223
  %this1 = load ptr, ptr %this.addr, align 8
  %size_ = getelementptr inbounds nuw %"class.fmt::v6::internal::buffer", ptr %this1, i32 0, i32 2
  %0 = load i64, ptr %size_, align 8, !tbaa !227
  ret i64 %0
}

; Function Attrs: inlinehint mustprogress nounwind uwtable
define linkonce_odr noundef ptr @_ZN3fmt2v68internal12make_checkedIcEEPT_S4_m(ptr noundef %p, i64 noundef %0) #8 comdat {
entry:
  %p.addr = alloca ptr, align 8
  %.addr = alloca i64, align 8
  store ptr %p, ptr %p.addr, align 8, !tbaa !27
  store i64 %0, ptr %.addr, align 8, !tbaa !54
  %1 = load ptr, ptr %p.addr, align 8, !tbaa !27
  ret ptr %1
}

; Function Attrs: mustprogress uwtable
define linkonce_odr noundef ptr @_ZNSt15__new_allocatorIcE8allocateEmPKv(ptr noundef nonnull align 1 dereferenceable(1) %this, i64 noundef %__n, ptr noundef %0) #4 comdat align 2 {
entry:
  %this.addr = alloca ptr, align 8
  %__n.addr = alloca i64, align 8
  %.addr = alloca ptr, align 8
  store ptr %this, ptr %this.addr, align 8, !tbaa !138
  store i64 %__n, ptr %__n.addr, align 8, !tbaa !54
  store ptr %0, ptr %.addr, align 8, !tbaa !165
  %this1 = load ptr, ptr %this.addr, align 8
  %1 = load i64, ptr %__n.addr, align 8, !tbaa !54
  %call = call noundef i64 @_ZNKSt15__new_allocatorIcE11_M_max_sizeEv(ptr noundef nonnull align 1 dereferenceable(1) %this1) #3
  %cmp = icmp ugt i64 %1, %call
  %conv = zext i1 %cmp to i64
  %expval = call i64 @llvm.expect.i64(i64 %conv, i64 0)
  %tobool = icmp ne i64 %expval, 0
  br i1 %tobool, label %if.then, label %if.end4

if.then:                                          ; preds = %entry
  %2 = load i64, ptr %__n.addr, align 8, !tbaa !54
  %cmp2 = icmp ugt i64 %2, -1
  br i1 %cmp2, label %if.then3, label %if.end

if.then3:                                         ; preds = %if.then
  call void @_ZSt28__throw_bad_array_new_lengthv() #25
  unreachable

if.end:                                           ; preds = %if.then
  call void @_ZSt17__throw_bad_allocv() #25
  unreachable

if.end4:                                          ; preds = %entry
  %3 = load i64, ptr %__n.addr, align 8, !tbaa !54
  %mul = mul i64 %3, 1
  %call5 = call noalias noundef nonnull ptr @_Znwm(i64 noundef %mul) #28
  ret ptr %call5
}

; Function Attrs: mustprogress nounwind uwtable
define linkonce_odr noundef i64 @_ZNKSt15__new_allocatorIcE11_M_max_sizeEv(ptr noundef nonnull align 1 dereferenceable(1) %this) #7 comdat align 2 {
entry:
  %this.addr = alloca ptr, align 8
  store ptr %this, ptr %this.addr, align 8, !tbaa !138
  %this1 = load ptr, ptr %this.addr, align 8
  ret i64 9223372036854775807
}

; Function Attrs: mustprogress uwtable
define linkonce_odr noundef ptr @_ZNSt20__uninitialized_copyILb1EE13__uninit_copyIPcS2_EET0_T_S4_S3_(ptr noundef %__first, ptr noundef %__last, ptr noundef %__result) #4 comdat align 2 {
entry:
  %__first.addr = alloca ptr, align 8
  %__last.addr = alloca ptr, align 8
  %__result.addr = alloca ptr, align 8
  store ptr %__first, ptr %__first.addr, align 8, !tbaa !27
  store ptr %__last, ptr %__last.addr, align 8, !tbaa !27
  store ptr %__result, ptr %__result.addr, align 8, !tbaa !27
  %0 = load ptr, ptr %__first.addr, align 8, !tbaa !27
  %1 = load ptr, ptr %__last.addr, align 8, !tbaa !27
  %2 = load ptr, ptr %__result.addr, align 8, !tbaa !27
  %call = call noundef ptr @_ZSt4copyIPcS0_ET0_T_S2_S1_(ptr noundef %0, ptr noundef %1, ptr noundef %2)
  ret ptr %call
}

; Function Attrs: inlinehint mustprogress uwtable
define linkonce_odr noundef ptr @_ZSt4copyIPcS0_ET0_T_S2_S1_(ptr noundef %__first, ptr noundef %__last, ptr noundef %__result) #9 comdat {
entry:
  %__first.addr = alloca ptr, align 8
  %__last.addr = alloca ptr, align 8
  %__result.addr = alloca ptr, align 8
  store ptr %__first, ptr %__first.addr, align 8, !tbaa !27
  store ptr %__last, ptr %__last.addr, align 8, !tbaa !27
  store ptr %__result, ptr %__result.addr, align 8, !tbaa !27
  %0 = load ptr, ptr %__first.addr, align 8, !tbaa !27
  %call = call noundef ptr @_ZSt12__miter_baseIPcET_S1_(ptr noundef %0)
  %1 = load ptr, ptr %__last.addr, align 8, !tbaa !27
  %call1 = call noundef ptr @_ZSt12__miter_baseIPcET_S1_(ptr noundef %1)
  %2 = load ptr, ptr %__result.addr, align 8, !tbaa !27
  %call2 = call noundef ptr @_ZSt13__copy_move_aILb0EPcS0_ET1_T0_S2_S1_(ptr noundef %call, ptr noundef %call1, ptr noundef %2)
  ret ptr %call2
}

; Function Attrs: inlinehint mustprogress uwtable
define linkonce_odr noundef ptr @_ZSt13__copy_move_aILb0EPcS0_ET1_T0_S2_S1_(ptr noundef %__first, ptr noundef %__last, ptr noundef %__result) #9 comdat {
entry:
  %__first.addr = alloca ptr, align 8
  %__last.addr = alloca ptr, align 8
  %__result.addr = alloca ptr, align 8
  store ptr %__first, ptr %__first.addr, align 8, !tbaa !27
  store ptr %__last, ptr %__last.addr, align 8, !tbaa !27
  store ptr %__result, ptr %__result.addr, align 8, !tbaa !27
  %0 = load ptr, ptr %__first.addr, align 8, !tbaa !27
  %call = call noundef ptr @_ZSt12__niter_baseIPcET_S1_(ptr noundef %0) #3
  %1 = load ptr, ptr %__last.addr, align 8, !tbaa !27
  %call1 = call noundef ptr @_ZSt12__niter_baseIPcET_S1_(ptr noundef %1) #3
  %2 = load ptr, ptr %__result.addr, align 8, !tbaa !27
  %call2 = call noundef ptr @_ZSt12__niter_baseIPcET_S1_(ptr noundef %2) #3
  %call3 = call noundef ptr @_ZSt14__copy_move_a1ILb0EPcS0_ET1_T0_S2_S1_(ptr noundef %call, ptr noundef %call1, ptr noundef %call2)
  %call4 = call noundef ptr @_ZSt12__niter_wrapIPcET_RKS1_S1_(ptr noundef nonnull align 8 dereferenceable(8) %__result.addr, ptr noundef %call3)
  ret ptr %call4
}

; Function Attrs: inlinehint mustprogress nounwind uwtable
define linkonce_odr noundef ptr @_ZSt12__miter_baseIPcET_S1_(ptr noundef %__it) #8 comdat {
entry:
  %__it.addr = alloca ptr, align 8
  store ptr %__it, ptr %__it.addr, align 8, !tbaa !27
  %0 = load ptr, ptr %__it.addr, align 8, !tbaa !27
  ret ptr %0
}

; Function Attrs: inlinehint mustprogress nounwind uwtable
define linkonce_odr noundef ptr @_ZSt12__niter_wrapIPcET_RKS1_S1_(ptr noundef nonnull align 8 dereferenceable(8) %0, ptr noundef %__res) #8 comdat {
entry:
  %.addr = alloca ptr, align 8
  %__res.addr = alloca ptr, align 8
  store ptr %0, ptr %.addr, align 8, !tbaa !149
  store ptr %__res, ptr %__res.addr, align 8, !tbaa !27
  %1 = load ptr, ptr %__res.addr, align 8, !tbaa !27
  ret ptr %1
}

; Function Attrs: inlinehint mustprogress uwtable
define linkonce_odr noundef ptr @_ZSt14__copy_move_a1ILb0EPcS0_ET1_T0_S2_S1_(ptr noundef %__first, ptr noundef %__last, ptr noundef %__result) #9 comdat {
entry:
  %__first.addr = alloca ptr, align 8
  %__last.addr = alloca ptr, align 8
  %__result.addr = alloca ptr, align 8
  store ptr %__first, ptr %__first.addr, align 8, !tbaa !27
  store ptr %__last, ptr %__last.addr, align 8, !tbaa !27
  store ptr %__result, ptr %__result.addr, align 8, !tbaa !27
  %0 = load ptr, ptr %__first.addr, align 8, !tbaa !27
  %1 = load ptr, ptr %__last.addr, align 8, !tbaa !27
  %2 = load ptr, ptr %__result.addr, align 8, !tbaa !27
  %call = call noundef ptr @_ZSt14__copy_move_a2ILb0EPcS0_ET1_T0_S2_S1_(ptr noundef %0, ptr noundef %1, ptr noundef %2)
  ret ptr %call
}

; Function Attrs: inlinehint mustprogress nounwind uwtable
define linkonce_odr noundef ptr @_ZSt12__niter_baseIPcET_S1_(ptr noundef %__it) #8 comdat {
entry:
  %__it.addr = alloca ptr, align 8
  store ptr %__it, ptr %__it.addr, align 8, !tbaa !27
  %0 = load ptr, ptr %__it.addr, align 8, !tbaa !27
  ret ptr %0
}

; Function Attrs: inlinehint mustprogress uwtable
define linkonce_odr noundef ptr @_ZSt14__copy_move_a2ILb0EPcS0_ET1_T0_S2_S1_(ptr noundef %__first, ptr noundef %__last, ptr noundef %__result) #9 comdat {
entry:
  %__first.addr = alloca ptr, align 8
  %__last.addr = alloca ptr, align 8
  %__result.addr = alloca ptr, align 8
  store ptr %__first, ptr %__first.addr, align 8, !tbaa !27
  store ptr %__last, ptr %__last.addr, align 8, !tbaa !27
  store ptr %__result, ptr %__result.addr, align 8, !tbaa !27
  %0 = load ptr, ptr %__first.addr, align 8, !tbaa !27
  %1 = load ptr, ptr %__last.addr, align 8, !tbaa !27
  %2 = load ptr, ptr %__result.addr, align 8, !tbaa !27
  %call = call noundef ptr @_ZNSt11__copy_moveILb0ELb1ESt26random_access_iterator_tagE8__copy_mIcEEPT_PKS3_S6_S4_(ptr noundef %0, ptr noundef %1, ptr noundef %2)
  ret ptr %call
}

; Function Attrs: mustprogress nounwind uwtable
define linkonce_odr noundef ptr @_ZNSt11__copy_moveILb0ELb1ESt26random_access_iterator_tagE8__copy_mIcEEPT_PKS3_S6_S4_(ptr noundef %__first, ptr noundef %__last, ptr noundef %__result) #7 comdat align 2 {
entry:
  %__first.addr = alloca ptr, align 8
  %__last.addr = alloca ptr, align 8
  %__result.addr = alloca ptr, align 8
  %_Num = alloca i64, align 8
  store ptr %__first, ptr %__first.addr, align 8, !tbaa !27
  store ptr %__last, ptr %__last.addr, align 8, !tbaa !27
  store ptr %__result, ptr %__result.addr, align 8, !tbaa !27
  call void @llvm.lifetime.start.p0(i64 8, ptr %_Num) #3
  %0 = load ptr, ptr %__last.addr, align 8, !tbaa !27
  %1 = load ptr, ptr %__first.addr, align 8, !tbaa !27
  %sub.ptr.lhs.cast = ptrtoint ptr %0 to i64
  %sub.ptr.rhs.cast = ptrtoint ptr %1 to i64
  %sub.ptr.sub = sub i64 %sub.ptr.lhs.cast, %sub.ptr.rhs.cast
  store i64 %sub.ptr.sub, ptr %_Num, align 8, !tbaa !54
  %2 = load i64, ptr %_Num, align 8, !tbaa !54
  %tobool = icmp ne i64 %2, 0
  br i1 %tobool, label %if.then, label %if.end

if.then:                                          ; preds = %entry
  %3 = load ptr, ptr %__result.addr, align 8, !tbaa !27
  %4 = load ptr, ptr %__first.addr, align 8, !tbaa !27
  %5 = load i64, ptr %_Num, align 8, !tbaa !54
  %mul = mul i64 1, %5
  call void @llvm.memmove.p0.p0.i64(ptr align 1 %3, ptr align 1 %4, i64 %mul, i1 false)
  br label %if.end

if.end:                                           ; preds = %if.then, %entry
  %6 = load ptr, ptr %__result.addr, align 8, !tbaa !27
  %7 = load i64, ptr %_Num, align 8, !tbaa !54
  %add.ptr = getelementptr inbounds i8, ptr %6, i64 %7
  call void @llvm.lifetime.end.p0(i64 8, ptr %_Num) #3
  ret ptr %add.ptr
}

; Function Attrs: mustprogress uwtable
define linkonce_odr ptr @_ZN3fmt2v610vformat_toINS0_13arg_formatterINS0_12buffer_rangeIcEEEEcNS0_20basic_format_contextISt20back_insert_iteratorINS0_8internal6bufferIcEEEcEEEENT1_8iteratorENT_5rangeENS0_17basic_string_viewIT0_EENS0_17basic_format_argsISD_EENS8_10locale_refE(ptr %out.coerce, ptr %format_str.coerce0, i64 %format_str.coerce1, i64 %args.coerce0, ptr %args.coerce1, ptr %loc.coerce) #4 comdat personality ptr @__gxx_personality_v0 {
entry:
  %retval = alloca %"class.std::back_insert_iterator", align 8
  %out = alloca %"class.fmt::v6::buffer_range", align 8
  %format_str = alloca %"class.fmt::v6::basic_string_view", align 8
  %args = alloca %"class.fmt::v6::basic_format_args", align 8
  %loc = alloca %"class.fmt::v6::internal::locale_ref", align 8
  %h = alloca %"struct.fmt::v6::format_handler", align 16
  %agg.tmp = alloca %"class.fmt::v6::buffer_range", align 8
  %agg.tmp4 = alloca %"class.fmt::v6::basic_string_view", align 8
  %agg.tmp5 = alloca %"class.fmt::v6::basic_format_args", align 8
  %agg.tmp6 = alloca %"class.fmt::v6::internal::locale_ref", align 8
  %agg.tmp11 = alloca %"class.fmt::v6::basic_string_view", align 8
  %exn.slot = alloca ptr, align 8
  %ehselector.slot = alloca i32, align 4
  %coerce.dive = getelementptr inbounds nuw %"class.fmt::v6::buffer_range", ptr %out, i32 0, i32 0
  %coerce.dive1 = getelementptr inbounds nuw %"class.fmt::v6::internal::output_range", ptr %coerce.dive, i32 0, i32 0
  %coerce.dive2 = getelementptr inbounds nuw %"class.std::back_insert_iterator", ptr %coerce.dive1, i32 0, i32 0
  store ptr %out.coerce, ptr %coerce.dive2, align 8
  %0 = getelementptr inbounds nuw { ptr, i64 }, ptr %format_str, i32 0, i32 0
  store ptr %format_str.coerce0, ptr %0, align 8
  %1 = getelementptr inbounds nuw { ptr, i64 }, ptr %format_str, i32 0, i32 1
  store i64 %format_str.coerce1, ptr %1, align 8
  %2 = getelementptr inbounds nuw { i64, ptr }, ptr %args, i32 0, i32 0
  store i64 %args.coerce0, ptr %2, align 8
  %3 = getelementptr inbounds nuw { i64, ptr }, ptr %args, i32 0, i32 1
  store ptr %args.coerce1, ptr %3, align 8
  %coerce.dive3 = getelementptr inbounds nuw %"class.fmt::v6::internal::locale_ref", ptr %loc, i32 0, i32 0
  store ptr %loc.coerce, ptr %coerce.dive3, align 8
  call void @llvm.lifetime.start.p0(i64 112, ptr %h) #3
  call void @llvm.memcpy.p0.p0.i64(ptr align 8 %agg.tmp, ptr align 8 %out, i64 8, i1 false)
  call void @llvm.memcpy.p0.p0.i64(ptr align 8 %agg.tmp4, ptr align 8 %format_str, i64 16, i1 false), !tbaa.struct !211
  call void @llvm.memcpy.p0.p0.i64(ptr align 8 %agg.tmp5, ptr align 8 %args, i64 16, i1 false), !tbaa.struct !212
  call void @llvm.memcpy.p0.p0.i64(ptr align 8 %agg.tmp6, ptr align 8 %loc, i64 8, i1 false), !tbaa.struct !229
  %coerce.dive7 = getelementptr inbounds nuw %"class.fmt::v6::buffer_range", ptr %agg.tmp, i32 0, i32 0
  %coerce.dive8 = getelementptr inbounds nuw %"class.fmt::v6::internal::output_range", ptr %coerce.dive7, i32 0, i32 0
  %coerce.dive9 = getelementptr inbounds nuw %"class.std::back_insert_iterator", ptr %coerce.dive8, i32 0, i32 0
  %4 = load ptr, ptr %coerce.dive9, align 8
  %5 = getelementptr inbounds nuw { ptr, i64 }, ptr %agg.tmp4, i32 0, i32 0
  %6 = load ptr, ptr %5, align 8
  %7 = getelementptr inbounds nuw { ptr, i64 }, ptr %agg.tmp4, i32 0, i32 1
  %8 = load i64, ptr %7, align 8
  %9 = getelementptr inbounds nuw { i64, ptr }, ptr %agg.tmp5, i32 0, i32 0
  %10 = load i64, ptr %9, align 8
  %11 = getelementptr inbounds nuw { i64, ptr }, ptr %agg.tmp5, i32 0, i32 1
  %12 = load ptr, ptr %11, align 8
  %coerce.dive10 = getelementptr inbounds nuw %"class.fmt::v6::internal::locale_ref", ptr %agg.tmp6, i32 0, i32 0
  %13 = load ptr, ptr %coerce.dive10, align 8
  %coerce.val.pi = ptrtoint ptr %13 to i64
  call void @_ZN3fmt2v614format_handlerINS0_13arg_formatterINS0_12buffer_rangeIcEEEEcNS0_20basic_format_contextISt20back_insert_iteratorINS0_8internal6bufferIcEEEcEEEC2ES4_NS0_17basic_string_viewIcEENS0_17basic_format_argsISC_EENS8_10locale_refE(ptr noundef nonnull align 16 dereferenceable(112) %h, ptr %4, ptr %6, i64 %8, i64 %10, ptr %12, i64 %coerce.val.pi)
  call void @llvm.memcpy.p0.p0.i64(ptr align 8 %agg.tmp11, ptr align 8 %format_str, i64 16, i1 false), !tbaa.struct !211
  %14 = getelementptr inbounds nuw { ptr, i64 }, ptr %agg.tmp11, i32 0, i32 0
  %15 = load ptr, ptr %14, align 8
  %16 = getelementptr inbounds nuw { ptr, i64 }, ptr %agg.tmp11, i32 0, i32 1
  %17 = load i64, ptr %16, align 8
  invoke void @_ZN3fmt2v68internal19parse_format_stringILb0EcRNS0_14format_handlerINS0_13arg_formatterINS0_12buffer_rangeIcEEEEcNS0_20basic_format_contextISt20back_insert_iteratorINS1_6bufferIcEEEcEEEEEEvNS0_17basic_string_viewIT0_EEOT1_(ptr %15, i64 %17, ptr noundef nonnull align 16 dereferenceable(112) %h)
          to label %invoke.cont unwind label %lpad

invoke.cont:                                      ; preds = %entry
  %context = getelementptr inbounds nuw %"struct.fmt::v6::format_handler", ptr %h, i32 0, i32 2
  %call = invoke ptr @_ZN3fmt2v620basic_format_contextISt20back_insert_iteratorINS0_8internal6bufferIcEEEcE3outEv(ptr noundef nonnull align 8 dereferenceable(48) %context)
          to label %invoke.cont12 unwind label %lpad

invoke.cont12:                                    ; preds = %invoke.cont
  %coerce.dive13 = getelementptr inbounds nuw %"class.std::back_insert_iterator", ptr %retval, i32 0, i32 0
  store ptr %call, ptr %coerce.dive13, align 8
  call void @_ZN3fmt2v614format_handlerINS0_13arg_formatterINS0_12buffer_rangeIcEEEEcNS0_20basic_format_contextISt20back_insert_iteratorINS0_8internal6bufferIcEEEcEEED2Ev(ptr noundef nonnull align 16 dereferenceable(112) %h) #3
  call void @llvm.lifetime.end.p0(i64 112, ptr %h) #3
  %coerce.dive14 = getelementptr inbounds nuw %"class.std::back_insert_iterator", ptr %retval, i32 0, i32 0
  %18 = load ptr, ptr %coerce.dive14, align 8
  ret ptr %18

lpad:                                             ; preds = %invoke.cont, %entry
  %19 = landingpad { ptr, i32 }
          cleanup
  %20 = extractvalue { ptr, i32 } %19, 0
  store ptr %20, ptr %exn.slot, align 8
  %21 = extractvalue { ptr, i32 } %19, 1
  store i32 %21, ptr %ehselector.slot, align 4
  call void @_ZN3fmt2v614format_handlerINS0_13arg_formatterINS0_12buffer_rangeIcEEEEcNS0_20basic_format_contextISt20back_insert_iteratorINS0_8internal6bufferIcEEEcEEED2Ev(ptr noundef nonnull align 16 dereferenceable(112) %h) #3
  call void @llvm.lifetime.end.p0(i64 112, ptr %h) #3
  br label %eh.resume

eh.resume:                                        ; preds = %lpad
  %exn = load ptr, ptr %exn.slot, align 8
  %sel = load i32, ptr %ehselector.slot, align 4
  %lpad.val = insertvalue { ptr, i32 } poison, ptr %exn, 0
  %lpad.val15 = insertvalue { ptr, i32 } %lpad.val, i32 %sel, 1
  resume { ptr, i32 } %lpad.val15
}

; Function Attrs: mustprogress uwtable
define linkonce_odr void @_ZN3fmt2v612buffer_rangeIcEC2ERNS0_8internal6bufferIcEE(ptr noundef nonnull align 8 dereferenceable(8) %this, ptr noundef nonnull align 8 dereferenceable(32) %buf) unnamed_addr #4 comdat align 2 {
entry:
  %this.addr = alloca ptr, align 8
  %buf.addr = alloca ptr, align 8
  %agg.tmp = alloca %"class.std::back_insert_iterator", align 8
  store ptr %this, ptr %this.addr, align 8, !tbaa !230
  store ptr %buf, ptr %buf.addr, align 8, !tbaa !223
  %this1 = load ptr, ptr %this.addr, align 8
  %0 = load ptr, ptr %buf.addr, align 8, !tbaa !223
  %call = call ptr @_ZSt13back_inserterIN3fmt2v68internal6bufferIcEEESt20back_insert_iteratorIT_ERS6_(ptr noundef nonnull align 8 dereferenceable(32) %0)
  %coerce.dive = getelementptr inbounds nuw %"class.std::back_insert_iterator", ptr %agg.tmp, i32 0, i32 0
  store ptr %call, ptr %coerce.dive, align 8
  %coerce.dive2 = getelementptr inbounds nuw %"class.std::back_insert_iterator", ptr %agg.tmp, i32 0, i32 0
  %1 = load ptr, ptr %coerce.dive2, align 8
  call void @_ZN3fmt2v68internal12output_rangeISt20back_insert_iteratorINS1_6bufferIcEEEcEC2ES6_(ptr noundef nonnull align 8 dereferenceable(8) %this1, ptr %1)
  ret void
}

; Function Attrs: inlinehint mustprogress nounwind uwtable
define linkonce_odr { ptr, i64 } @_ZN3fmt2v614to_string_viewIcEENS0_17basic_string_viewIT_EES4_(ptr %s.coerce0, i64 %s.coerce1) #8 comdat {
entry:
  %retval = alloca %"class.fmt::v6::basic_string_view", align 8
  %s = alloca %"class.fmt::v6::basic_string_view", align 8
  %0 = getelementptr inbounds nuw { ptr, i64 }, ptr %s, i32 0, i32 0
  store ptr %s.coerce0, ptr %0, align 8
  %1 = getelementptr inbounds nuw { ptr, i64 }, ptr %s, i32 0, i32 1
  store i64 %s.coerce1, ptr %1, align 8
  call void @llvm.memcpy.p0.p0.i64(ptr align 8 %retval, ptr align 8 %s, i64 16, i1 false), !tbaa.struct !211
  %2 = load { ptr, i64 }, ptr %retval, align 8
  ret { ptr, i64 } %2
}

; Function Attrs: mustprogress nounwind uwtable
define linkonce_odr void @_ZN3fmt2v68internal10locale_refC2Ev(ptr noundef nonnull align 8 dereferenceable(8) %this) unnamed_addr #7 comdat align 2 {
entry:
  %this.addr = alloca ptr, align 8
  store ptr %this, ptr %this.addr, align 8, !tbaa !232
  %this1 = load ptr, ptr %this.addr, align 8
  %locale_ = getelementptr inbounds nuw %"class.fmt::v6::internal::locale_ref", ptr %this1, i32 0, i32 0
  store ptr null, ptr %locale_, align 8, !tbaa !234
  ret void
}

; Function Attrs: mustprogress uwtable
define linkonce_odr void @_ZN3fmt2v614format_handlerINS0_13arg_formatterINS0_12buffer_rangeIcEEEEcNS0_20basic_format_contextISt20back_insert_iteratorINS0_8internal6bufferIcEEEcEEEC2ES4_NS0_17basic_string_viewIcEENS0_17basic_format_argsISC_EENS8_10locale_refE(ptr noundef nonnull align 16 dereferenceable(112) %this, ptr %r.coerce, ptr %str.coerce0, i64 %str.coerce1, i64 %format_args.coerce0, ptr %format_args.coerce1, i64 %loc.coerce) unnamed_addr #4 comdat align 2 personality ptr @__gxx_personality_v0 {
entry:
  %r = alloca %"class.fmt::v6::buffer_range", align 8
  %str = alloca %"class.fmt::v6::basic_string_view", align 8
  %format_args = alloca %"class.fmt::v6::basic_format_args", align 8
  %loc = alloca %"class.fmt::v6::internal::locale_ref", align 8
  %this.addr = alloca ptr, align 8
  %agg.tmp = alloca %"class.fmt::v6::basic_string_view", align 8
  %agg.tmp5 = alloca %"struct.fmt::v6::internal::error_handler", align 1
  %agg.tmp6 = alloca %"class.std::back_insert_iterator", align 8
  %agg.tmp8 = alloca %"class.fmt::v6::basic_format_args", align 8
  %agg.tmp9 = alloca %"class.fmt::v6::internal::locale_ref", align 8
  %exn.slot = alloca ptr, align 8
  %ehselector.slot = alloca i32, align 4
  %coerce.dive = getelementptr inbounds nuw %"class.fmt::v6::buffer_range", ptr %r, i32 0, i32 0
  %coerce.dive1 = getelementptr inbounds nuw %"class.fmt::v6::internal::output_range", ptr %coerce.dive, i32 0, i32 0
  %coerce.dive2 = getelementptr inbounds nuw %"class.std::back_insert_iterator", ptr %coerce.dive1, i32 0, i32 0
  store ptr %r.coerce, ptr %coerce.dive2, align 8
  %0 = getelementptr inbounds nuw { ptr, i64 }, ptr %str, i32 0, i32 0
  store ptr %str.coerce0, ptr %0, align 8
  %1 = getelementptr inbounds nuw { ptr, i64 }, ptr %str, i32 0, i32 1
  store i64 %str.coerce1, ptr %1, align 8
  %2 = getelementptr inbounds nuw { i64, ptr }, ptr %format_args, i32 0, i32 0
  store i64 %format_args.coerce0, ptr %2, align 8
  %3 = getelementptr inbounds nuw { i64, ptr }, ptr %format_args, i32 0, i32 1
  store ptr %format_args.coerce1, ptr %3, align 8
  %coerce.dive3 = getelementptr inbounds nuw %"class.fmt::v6::internal::locale_ref", ptr %loc, i32 0, i32 0
  %coerce.val.ip = inttoptr i64 %loc.coerce to ptr
  store ptr %coerce.val.ip, ptr %coerce.dive3, align 8
  store ptr %this, ptr %this.addr, align 8, !tbaa !236
  %this4 = load ptr, ptr %this.addr, align 8
  %parse_context = getelementptr inbounds nuw %"struct.fmt::v6::format_handler", ptr %this4, i32 0, i32 1
  call void @llvm.memcpy.p0.p0.i64(ptr align 8 %agg.tmp, ptr align 8 %str, i64 16, i1 false), !tbaa.struct !211
  %4 = getelementptr inbounds nuw { ptr, i64 }, ptr %agg.tmp, i32 0, i32 0
  %5 = load ptr, ptr %4, align 8
  %6 = getelementptr inbounds nuw { ptr, i64 }, ptr %agg.tmp, i32 0, i32 1
  %7 = load i64, ptr %6, align 8
  call void @_ZN3fmt2v626basic_format_parse_contextIcNS0_8internal13error_handlerEEC2ENS0_17basic_string_viewIcEES3_(ptr noundef nonnull align 8 dereferenceable(20) %parse_context, ptr %5, i64 %7)
  %context = getelementptr inbounds nuw %"struct.fmt::v6::format_handler", ptr %this4, i32 0, i32 2
  %call = call ptr @_ZNK3fmt2v68internal12output_rangeISt20back_insert_iteratorINS1_6bufferIcEEEcE5beginEv(ptr noundef nonnull align 8 dereferenceable(8) %r)
  %coerce.dive7 = getelementptr inbounds nuw %"class.std::back_insert_iterator", ptr %agg.tmp6, i32 0, i32 0
  store ptr %call, ptr %coerce.dive7, align 8
  call void @llvm.memcpy.p0.p0.i64(ptr align 8 %agg.tmp8, ptr align 8 %format_args, i64 16, i1 false), !tbaa.struct !212
  call void @llvm.memcpy.p0.p0.i64(ptr align 8 %agg.tmp9, ptr align 8 %loc, i64 8, i1 false), !tbaa.struct !229
  %coerce.dive10 = getelementptr inbounds nuw %"class.std::back_insert_iterator", ptr %agg.tmp6, i32 0, i32 0
  %8 = load ptr, ptr %coerce.dive10, align 8
  %9 = getelementptr inbounds nuw { i64, ptr }, ptr %agg.tmp8, i32 0, i32 0
  %10 = load i64, ptr %9, align 8
  %11 = getelementptr inbounds nuw { i64, ptr }, ptr %agg.tmp8, i32 0, i32 1
  %12 = load ptr, ptr %11, align 8
  %coerce.dive11 = getelementptr inbounds nuw %"class.fmt::v6::internal::locale_ref", ptr %agg.tmp9, i32 0, i32 0
  %13 = load ptr, ptr %coerce.dive11, align 8
  call void @_ZN3fmt2v620basic_format_contextISt20back_insert_iteratorINS0_8internal6bufferIcEEEcEC2ES6_NS0_17basic_format_argsIS7_EENS3_10locale_refE(ptr noundef nonnull align 8 dereferenceable(48) %context, ptr %8, i64 %10, ptr %12, ptr %13)
  %arg = getelementptr inbounds nuw %"struct.fmt::v6::format_handler", ptr %this4, i32 0, i32 3
  invoke void @_ZN3fmt2v616basic_format_argINS0_20basic_format_contextISt20back_insert_iteratorINS0_8internal6bufferIcEEEcEEEC2Ev(ptr noundef nonnull align 16 dereferenceable(20) %arg)
          to label %invoke.cont unwind label %lpad

invoke.cont:                                      ; preds = %entry
  ret void

lpad:                                             ; preds = %entry
  %14 = landingpad { ptr, i32 }
          cleanup
  %15 = extractvalue { ptr, i32 } %14, 0
  store ptr %15, ptr %exn.slot, align 8
  %16 = extractvalue { ptr, i32 } %14, 1
  store i32 %16, ptr %ehselector.slot, align 4
  call void @_ZN3fmt2v620basic_format_contextISt20back_insert_iteratorINS0_8internal6bufferIcEEEcED2Ev(ptr noundef nonnull align 8 dereferenceable(48) %context) #3
  br label %eh.resume

eh.resume:                                        ; preds = %lpad
  %exn = load ptr, ptr %exn.slot, align 8
  %sel = load i32, ptr %ehselector.slot, align 4
  %lpad.val = insertvalue { ptr, i32 } poison, ptr %exn, 0
  %lpad.val12 = insertvalue { ptr, i32 } %lpad.val, i32 %sel, 1
  resume { ptr, i32 } %lpad.val12
}

; Function Attrs: mustprogress uwtable
define linkonce_odr void @_ZN3fmt2v68internal19parse_format_stringILb0EcRNS0_14format_handlerINS0_13arg_formatterINS0_12buffer_rangeIcEEEEcNS0_20basic_format_contextISt20back_insert_iteratorINS1_6bufferIcEEEcEEEEEEvNS0_17basic_string_viewIT0_EEOT1_(ptr %format_str.coerce0, i64 %format_str.coerce1, ptr noundef nonnull align 16 dereferenceable(112) %handler) #4 comdat {
entry:
  %format_str = alloca %"class.fmt::v6::basic_string_view", align 8
  %handler.addr = alloca ptr, align 8
  %write = alloca %struct.pfs_writer, align 8
  %begin = alloca ptr, align 8
  %end = alloca ptr, align 8
  %p = alloca ptr, align 8
  %cleanup.dest.slot = alloca i32, align 4
  %ref.tmp = alloca %"struct.fmt::v6::internal::id_adapter", align 8
  %c = alloca i8, align 1
  %0 = getelementptr inbounds nuw { ptr, i64 }, ptr %format_str, i32 0, i32 0
  store ptr %format_str.coerce0, ptr %0, align 8
  %1 = getelementptr inbounds nuw { ptr, i64 }, ptr %format_str, i32 0, i32 1
  store i64 %format_str.coerce1, ptr %1, align 8
  store ptr %handler, ptr %handler.addr, align 8, !tbaa !236
  call void @llvm.lifetime.start.p0(i64 8, ptr %write) #3
  %handler_ = getelementptr inbounds nuw %struct.pfs_writer, ptr %write, i32 0, i32 0
  %2 = load ptr, ptr %handler.addr, align 8, !tbaa !236
  store ptr %2, ptr %handler_, align 8, !tbaa !236
  call void @llvm.lifetime.start.p0(i64 8, ptr %begin) #3
  %call = call noundef ptr @_ZNK3fmt2v617basic_string_viewIcE4dataEv(ptr noundef nonnull align 8 dereferenceable(16) %format_str)
  store ptr %call, ptr %begin, align 8, !tbaa !27
  call void @llvm.lifetime.start.p0(i64 8, ptr %end) #3
  %3 = load ptr, ptr %begin, align 8, !tbaa !27
  %call1 = call noundef i64 @_ZNK3fmt2v617basic_string_viewIcE4sizeEv(ptr noundef nonnull align 8 dereferenceable(16) %format_str)
  %add.ptr = getelementptr inbounds nuw i8, ptr %3, i64 %call1
  store ptr %add.ptr, ptr %end, align 8, !tbaa !27
  br label %while.cond

while.cond:                                       ; preds = %cleanup.cont40, %entry
  %4 = load ptr, ptr %begin, align 8, !tbaa !27
  %5 = load ptr, ptr %end, align 8, !tbaa !27
  %cmp = icmp ne ptr %4, %5
  br i1 %cmp, label %while.body, label %while.end

while.body:                                       ; preds = %while.cond
  call void @llvm.lifetime.start.p0(i64 8, ptr %p) #3
  %6 = load ptr, ptr %begin, align 8, !tbaa !27
  store ptr %6, ptr %p, align 8, !tbaa !27
  %7 = load ptr, ptr %begin, align 8, !tbaa !27
  %8 = load i8, ptr %7, align 1, !tbaa !146
  %conv = sext i8 %8 to i32
  %cmp2 = icmp ne i32 %conv, 123
  br i1 %cmp2, label %land.lhs.true, label %if.end

land.lhs.true:                                    ; preds = %while.body
  %9 = load ptr, ptr %begin, align 8, !tbaa !27
  %10 = load ptr, ptr %end, align 8, !tbaa !27
  %call3 = call noundef zeroext i1 @_ZN3fmt2v68internal4findILb0EcPKcEEbT1_S5_T0_RS5_(ptr noundef %9, ptr noundef %10, i8 noundef signext 123, ptr noundef nonnull align 8 dereferenceable(8) %p)
  br i1 %call3, label %if.end, label %if.then

if.then:                                          ; preds = %land.lhs.true
  %11 = load ptr, ptr %begin, align 8, !tbaa !27
  %12 = load ptr, ptr %end, align 8, !tbaa !27
  call void @_ZZN3fmt2v68internal19parse_format_stringILb0EcRNS0_14format_handlerINS0_13arg_formatterINS0_12buffer_rangeIcEEEEcNS0_20basic_format_contextISt20back_insert_iteratorINS1_6bufferIcEEEcEEEEEEvNS0_17basic_string_viewIT0_EEOT1_EN10pfs_writerclEPKcSN_(ptr noundef nonnull align 8 dereferenceable(8) %write, ptr noundef %11, ptr noundef %12)
  store i32 1, ptr %cleanup.dest.slot, align 4
  br label %cleanup38

if.end:                                           ; preds = %land.lhs.true, %while.body
  %13 = load ptr, ptr %begin, align 8, !tbaa !27
  %14 = load ptr, ptr %p, align 8, !tbaa !27
  call void @_ZZN3fmt2v68internal19parse_format_stringILb0EcRNS0_14format_handlerINS0_13arg_formatterINS0_12buffer_rangeIcEEEEcNS0_20basic_format_contextISt20back_insert_iteratorINS1_6bufferIcEEEcEEEEEEvNS0_17basic_string_viewIT0_EEOT1_EN10pfs_writerclEPKcSN_(ptr noundef nonnull align 8 dereferenceable(8) %write, ptr noundef %13, ptr noundef %14)
  %15 = load ptr, ptr %p, align 8, !tbaa !27
  %incdec.ptr = getelementptr inbounds nuw i8, ptr %15, i32 1
  store ptr %incdec.ptr, ptr %p, align 8, !tbaa !27
  %16 = load ptr, ptr %p, align 8, !tbaa !27
  %17 = load ptr, ptr %end, align 8, !tbaa !27
  %cmp4 = icmp eq ptr %16, %17
  br i1 %cmp4, label %if.then5, label %if.end6

if.then5:                                         ; preds = %if.end
  %18 = load ptr, ptr %handler.addr, align 8, !tbaa !236
  call void @_ZN3fmt2v68internal13error_handler8on_errorEPKc(ptr noundef nonnull align 1 dereferenceable(1) %18, ptr noundef @.str.4) #25
  unreachable

19:                                               ; No predecessors!
  store i32 1, ptr %cleanup.dest.slot, align 4
  br label %cleanup38

if.end6:                                          ; preds = %if.end
  %20 = load ptr, ptr %p, align 8, !tbaa !27
  %21 = load i8, ptr %20, align 1, !tbaa !146
  %conv7 = sext i8 %21 to i32
  %cmp8 = icmp eq i32 %conv7, 125
  br i1 %cmp8, label %if.then9, label %if.else

if.then9:                                         ; preds = %if.end6
  %22 = load ptr, ptr %handler.addr, align 8, !tbaa !236
  call void @_ZN3fmt2v614format_handlerINS0_13arg_formatterINS0_12buffer_rangeIcEEEEcNS0_20basic_format_contextISt20back_insert_iteratorINS0_8internal6bufferIcEEEcEEE9on_arg_idEv(ptr noundef nonnull align 16 dereferenceable(112) %22)
  %23 = load ptr, ptr %handler.addr, align 8, !tbaa !236
  %24 = load ptr, ptr %p, align 8, !tbaa !27
  call void @_ZN3fmt2v614format_handlerINS0_13arg_formatterINS0_12buffer_rangeIcEEEEcNS0_20basic_format_contextISt20back_insert_iteratorINS0_8internal6bufferIcEEEcEEE20on_replacement_fieldEPKc(ptr noundef nonnull align 16 dereferenceable(112) %23, ptr noundef %24)
  br label %if.end36

if.else:                                          ; preds = %if.end6
  %25 = load ptr, ptr %p, align 8, !tbaa !27
  %26 = load i8, ptr %25, align 1, !tbaa !146
  %conv10 = sext i8 %26 to i32
  %cmp11 = icmp eq i32 %conv10, 123
  br i1 %cmp11, label %if.then12, label %if.else14

if.then12:                                        ; preds = %if.else
  %27 = load ptr, ptr %handler.addr, align 8, !tbaa !236
  %28 = load ptr, ptr %p, align 8, !tbaa !27
  %29 = load ptr, ptr %p, align 8, !tbaa !27
  %add.ptr13 = getelementptr inbounds i8, ptr %29, i64 1
  call void @_ZN3fmt2v614format_handlerINS0_13arg_formatterINS0_12buffer_rangeIcEEEEcNS0_20basic_format_contextISt20back_insert_iteratorINS0_8internal6bufferIcEEEcEEE7on_textEPKcSF_(ptr noundef nonnull align 16 dereferenceable(112) %27, ptr noundef %28, ptr noundef %add.ptr13)
  br label %if.end35

if.else14:                                        ; preds = %if.else
  %30 = load ptr, ptr %p, align 8, !tbaa !27
  %31 = load ptr, ptr %end, align 8, !tbaa !27
  call void @llvm.lifetime.start.p0(i64 8, ptr %ref.tmp) #3
  %handler15 = getelementptr inbounds nuw %"struct.fmt::v6::internal::id_adapter", ptr %ref.tmp, i32 0, i32 0
  %32 = load ptr, ptr %handler.addr, align 8, !tbaa !236
  store ptr %32, ptr %handler15, align 8, !tbaa !236
  %call16 = call noundef ptr @_ZN3fmt2v68internal12parse_arg_idIcNS1_10id_adapterIRNS0_14format_handlerINS0_13arg_formatterINS0_12buffer_rangeIcEEEEcNS0_20basic_format_contextISt20back_insert_iteratorINS1_6bufferIcEEEcEEEEcEEEEPKT_SK_SK_OT0_(ptr noundef %30, ptr noundef %31, ptr noundef nonnull align 8 dereferenceable(8) %ref.tmp)
  store ptr %call16, ptr %p, align 8, !tbaa !27
  call void @llvm.lifetime.end.p0(i64 8, ptr %ref.tmp) #3
  call void @llvm.lifetime.start.p0(i64 1, ptr %c) #3
  %33 = load ptr, ptr %p, align 8, !tbaa !27
  %34 = load ptr, ptr %end, align 8, !tbaa !27
  %cmp17 = icmp ne ptr %33, %34
  br i1 %cmp17, label %cond.true, label %cond.false

cond.true:                                        ; preds = %if.else14
  %35 = load ptr, ptr %p, align 8, !tbaa !27
  %36 = load i8, ptr %35, align 1, !tbaa !146
  br label %cond.end

cond.false:                                       ; preds = %if.else14
  br label %cond.end

cond.end:                                         ; preds = %cond.false, %cond.true
  %cond = phi i8 [ %36, %cond.true ], [ 0, %cond.false ]
  store i8 %cond, ptr %c, align 1, !tbaa !146
  %37 = load i8, ptr %c, align 1, !tbaa !146
  %conv18 = sext i8 %37 to i32
  %cmp19 = icmp eq i32 %conv18, 125
  br i1 %cmp19, label %if.then20, label %if.else21

if.then20:                                        ; preds = %cond.end
  %38 = load ptr, ptr %handler.addr, align 8, !tbaa !236
  %39 = load ptr, ptr %p, align 8, !tbaa !27
  call void @_ZN3fmt2v614format_handlerINS0_13arg_formatterINS0_12buffer_rangeIcEEEEcNS0_20basic_format_contextISt20back_insert_iteratorINS0_8internal6bufferIcEEEcEEE20on_replacement_fieldEPKc(ptr noundef nonnull align 16 dereferenceable(112) %38, ptr noundef %39)
  br label %if.end34

if.else21:                                        ; preds = %cond.end
  %40 = load i8, ptr %c, align 1, !tbaa !146
  %conv22 = sext i8 %40 to i32
  %cmp23 = icmp eq i32 %conv22, 58
  br i1 %cmp23, label %if.then24, label %if.else32

if.then24:                                        ; preds = %if.else21
  %41 = load ptr, ptr %handler.addr, align 8, !tbaa !236
  %42 = load ptr, ptr %p, align 8, !tbaa !27
  %add.ptr25 = getelementptr inbounds i8, ptr %42, i64 1
  %43 = load ptr, ptr %end, align 8, !tbaa !27
  %call26 = call noundef ptr @_ZN3fmt2v614format_handlerINS0_13arg_formatterINS0_12buffer_rangeIcEEEEcNS0_20basic_format_contextISt20back_insert_iteratorINS0_8internal6bufferIcEEEcEEE15on_format_specsEPKcSF_(ptr noundef nonnull align 16 dereferenceable(112) %41, ptr noundef %add.ptr25, ptr noundef %43)
  store ptr %call26, ptr %p, align 8, !tbaa !27
  %44 = load ptr, ptr %p, align 8, !tbaa !27
  %45 = load ptr, ptr %end, align 8, !tbaa !27
  %cmp27 = icmp eq ptr %44, %45
  br i1 %cmp27, label %if.then30, label %lor.lhs.false

lor.lhs.false:                                    ; preds = %if.then24
  %46 = load ptr, ptr %p, align 8, !tbaa !27
  %47 = load i8, ptr %46, align 1, !tbaa !146
  %conv28 = sext i8 %47 to i32
  %cmp29 = icmp ne i32 %conv28, 125
  br i1 %cmp29, label %if.then30, label %if.end31

if.then30:                                        ; preds = %lor.lhs.false, %if.then24
  %48 = load ptr, ptr %handler.addr, align 8, !tbaa !236
  call void @_ZN3fmt2v68internal13error_handler8on_errorEPKc(ptr noundef nonnull align 1 dereferenceable(1) %48, ptr noundef @.str.5) #25
  unreachable

49:                                               ; No predecessors!
  store i32 1, ptr %cleanup.dest.slot, align 4
  br label %cleanup

if.end31:                                         ; preds = %lor.lhs.false
  br label %if.end33

if.else32:                                        ; preds = %if.else21
  %50 = load ptr, ptr %handler.addr, align 8, !tbaa !236
  call void @_ZN3fmt2v68internal13error_handler8on_errorEPKc(ptr noundef nonnull align 1 dereferenceable(1) %50, ptr noundef @.str.6) #25
  unreachable

51:                                               ; No predecessors!
  store i32 1, ptr %cleanup.dest.slot, align 4
  br label %cleanup

if.end33:                                         ; preds = %if.end31
  br label %if.end34

if.end34:                                         ; preds = %if.end33, %if.then20
  store i32 0, ptr %cleanup.dest.slot, align 4
  br label %cleanup

cleanup:                                          ; preds = %if.end34, %51, %49
  call void @llvm.lifetime.end.p0(i64 1, ptr %c) #3
  %cleanup.dest = load i32, ptr %cleanup.dest.slot, align 4
  switch i32 %cleanup.dest, label %cleanup38 [
    i32 0, label %cleanup.cont
  ]

cleanup.cont:                                     ; preds = %cleanup
  br label %if.end35

if.end35:                                         ; preds = %cleanup.cont, %if.then12
  br label %if.end36

if.end36:                                         ; preds = %if.end35, %if.then9
  %52 = load ptr, ptr %p, align 8, !tbaa !27
  %add.ptr37 = getelementptr inbounds i8, ptr %52, i64 1
  store ptr %add.ptr37, ptr %begin, align 8, !tbaa !27
  store i32 0, ptr %cleanup.dest.slot, align 4
  br label %cleanup38

cleanup38:                                        ; preds = %if.end36, %cleanup, %19, %if.then
  call void @llvm.lifetime.end.p0(i64 8, ptr %p) #3
  %cleanup.dest39 = load i32, ptr %cleanup.dest.slot, align 4
  switch i32 %cleanup.dest39, label %cleanup41 [
    i32 0, label %cleanup.cont40
  ]

cleanup.cont40:                                   ; preds = %cleanup38
  br label %while.cond, !llvm.loop !238

while.end:                                        ; preds = %while.cond
  store i32 0, ptr %cleanup.dest.slot, align 4
  br label %cleanup41

cleanup41:                                        ; preds = %while.end, %cleanup38
  call void @llvm.lifetime.end.p0(i64 8, ptr %end) #3
  call void @llvm.lifetime.end.p0(i64 8, ptr %begin) #3
  call void @llvm.lifetime.end.p0(i64 8, ptr %write) #3
  %cleanup.dest44 = load i32, ptr %cleanup.dest.slot, align 4
  switch i32 %cleanup.dest44, label %unreachable [
    i32 0, label %cleanup.cont45
    i32 1, label %cleanup.cont45
  ]

cleanup.cont45:                                   ; preds = %cleanup41, %cleanup41
  ret void

unreachable:                                      ; preds = %cleanup41
  unreachable
}

; Function Attrs: mustprogress nounwind uwtable
define linkonce_odr ptr @_ZN3fmt2v620basic_format_contextISt20back_insert_iteratorINS0_8internal6bufferIcEEEcE3outEv(ptr noundef nonnull align 8 dereferenceable(48) %this) #7 comdat align 2 {
entry:
  %retval = alloca %"class.std::back_insert_iterator", align 8
  %this.addr = alloca ptr, align 8
  store ptr %this, ptr %this.addr, align 8, !tbaa !239
  %this1 = load ptr, ptr %this.addr, align 8
  %out_ = getelementptr inbounds nuw %"class.fmt::v6::basic_format_context", ptr %this1, i32 0, i32 0
  call void @llvm.memcpy.p0.p0.i64(ptr align 8 %retval, ptr align 8 %out_, i64 8, i1 false)
  %coerce.dive = getelementptr inbounds nuw %"class.std::back_insert_iterator", ptr %retval, i32 0, i32 0
  %0 = load ptr, ptr %coerce.dive, align 8
  ret ptr %0
}

; Function Attrs: inlinehint mustprogress nounwind uwtable
define linkonce_odr void @_ZN3fmt2v614format_handlerINS0_13arg_formatterINS0_12buffer_rangeIcEEEEcNS0_20basic_format_contextISt20back_insert_iteratorINS0_8internal6bufferIcEEEcEEED2Ev(ptr noundef nonnull align 16 dereferenceable(112) %this) unnamed_addr #8 comdat align 2 {
entry:
  %this.addr = alloca ptr, align 8
  store ptr %this, ptr %this.addr, align 8, !tbaa !236
  %this1 = load ptr, ptr %this.addr, align 8
  %context = getelementptr inbounds nuw %"struct.fmt::v6::format_handler", ptr %this1, i32 0, i32 2
  call void @_ZN3fmt2v620basic_format_contextISt20back_insert_iteratorINS0_8internal6bufferIcEEEcED2Ev(ptr noundef nonnull align 8 dereferenceable(48) %context) #3
  ret void
}

; Function Attrs: mustprogress nounwind uwtable
define linkonce_odr void @_ZN3fmt2v626basic_format_parse_contextIcNS0_8internal13error_handlerEEC2ENS0_17basic_string_viewIcEES3_(ptr noundef nonnull align 8 dereferenceable(20) %this, ptr %format_str.coerce0, i64 %format_str.coerce1) unnamed_addr #7 comdat align 2 {
entry:
  %format_str = alloca %"class.fmt::v6::basic_string_view", align 8
  %eh = alloca %"struct.fmt::v6::internal::error_handler", align 1
  %this.addr = alloca ptr, align 8
  %0 = getelementptr inbounds nuw { ptr, i64 }, ptr %format_str, i32 0, i32 0
  store ptr %format_str.coerce0, ptr %0, align 8
  %1 = getelementptr inbounds nuw { ptr, i64 }, ptr %format_str, i32 0, i32 1
  store i64 %format_str.coerce1, ptr %1, align 8
  store ptr %this, ptr %this.addr, align 8, !tbaa !241
  %this1 = load ptr, ptr %this.addr, align 8
  %format_str_ = getelementptr inbounds nuw %"class.fmt::v6::basic_format_parse_context", ptr %this1, i32 0, i32 0
  call void @llvm.memcpy.p0.p0.i64(ptr align 8 %format_str_, ptr align 8 %format_str, i64 16, i1 false), !tbaa.struct !211
  %next_arg_id_ = getelementptr inbounds nuw %"class.fmt::v6::basic_format_parse_context", ptr %this1, i32 0, i32 1
  store i32 0, ptr %next_arg_id_, align 8, !tbaa !243
  ret void
}

; Function Attrs: mustprogress nounwind uwtable
define linkonce_odr ptr @_ZNK3fmt2v68internal12output_rangeISt20back_insert_iteratorINS1_6bufferIcEEEcE5beginEv(ptr noundef nonnull align 8 dereferenceable(8) %this) #7 comdat align 2 {
entry:
  %retval = alloca %"class.std::back_insert_iterator", align 8
  %this.addr = alloca ptr, align 8
  store ptr %this, ptr %this.addr, align 8, !tbaa !246
  %this1 = load ptr, ptr %this.addr, align 8
  %it_ = getelementptr inbounds nuw %"class.fmt::v6::internal::output_range", ptr %this1, i32 0, i32 0
  call void @llvm.memcpy.p0.p0.i64(ptr align 8 %retval, ptr align 8 %it_, i64 8, i1 false)
  %coerce.dive = getelementptr inbounds nuw %"class.std::back_insert_iterator", ptr %retval, i32 0, i32 0
  %0 = load ptr, ptr %coerce.dive, align 8
  ret ptr %0
}

; Function Attrs: mustprogress uwtable
define linkonce_odr void @_ZN3fmt2v620basic_format_contextISt20back_insert_iteratorINS0_8internal6bufferIcEEEcEC2ES6_NS0_17basic_format_argsIS7_EENS3_10locale_refE(ptr noundef nonnull align 8 dereferenceable(48) %this, ptr %out.coerce, i64 %ctx_args.coerce0, ptr %ctx_args.coerce1, ptr %loc.coerce) unnamed_addr #4 comdat align 2 {
entry:
  %out = alloca %"class.std::back_insert_iterator", align 8
  %ctx_args = alloca %"class.fmt::v6::basic_format_args", align 8
  %loc = alloca %"class.fmt::v6::internal::locale_ref", align 8
  %this.addr = alloca ptr, align 8
  %coerce.dive = getelementptr inbounds nuw %"class.std::back_insert_iterator", ptr %out, i32 0, i32 0
  store ptr %out.coerce, ptr %coerce.dive, align 8
  %0 = getelementptr inbounds nuw { i64, ptr }, ptr %ctx_args, i32 0, i32 0
  store i64 %ctx_args.coerce0, ptr %0, align 8
  %1 = getelementptr inbounds nuw { i64, ptr }, ptr %ctx_args, i32 0, i32 1
  store ptr %ctx_args.coerce1, ptr %1, align 8
  %coerce.dive1 = getelementptr inbounds nuw %"class.fmt::v6::internal::locale_ref", ptr %loc, i32 0, i32 0
  store ptr %loc.coerce, ptr %coerce.dive1, align 8
  store ptr %this, ptr %this.addr, align 8, !tbaa !239
  %this2 = load ptr, ptr %this.addr, align 8
  %out_ = getelementptr inbounds nuw %"class.fmt::v6::basic_format_context", ptr %this2, i32 0, i32 0
  call void @llvm.memcpy.p0.p0.i64(ptr align 8 %out_, ptr align 8 %out, i64 8, i1 false)
  %args_ = getelementptr inbounds nuw %"class.fmt::v6::basic_format_context", ptr %this2, i32 0, i32 1
  call void @llvm.memcpy.p0.p0.i64(ptr align 8 %args_, ptr align 8 %ctx_args, i64 16, i1 false), !tbaa.struct !212
  %map_ = getelementptr inbounds nuw %"class.fmt::v6::basic_format_context", ptr %this2, i32 0, i32 2
  call void @_ZN3fmt2v68internal7arg_mapINS0_20basic_format_contextISt20back_insert_iteratorINS1_6bufferIcEEEcEEEC2Ev(ptr noundef nonnull align 8 dereferenceable(12) %map_)
  %loc_ = getelementptr inbounds nuw %"class.fmt::v6::basic_format_context", ptr %this2, i32 0, i32 3
  call void @llvm.memcpy.p0.p0.i64(ptr align 8 %loc_, ptr align 8 %loc, i64 8, i1 false), !tbaa.struct !229
  ret void
}

; Function Attrs: mustprogress uwtable
define linkonce_odr void @_ZN3fmt2v616basic_format_argINS0_20basic_format_contextISt20back_insert_iteratorINS0_8internal6bufferIcEEEcEEEC2Ev(ptr noundef nonnull align 16 dereferenceable(20) %this) unnamed_addr #4 comdat align 2 {
entry:
  %this.addr = alloca ptr, align 8
  store ptr %this, ptr %this.addr, align 8, !tbaa !248
  %this1 = load ptr, ptr %this.addr, align 8
  %value_ = getelementptr inbounds nuw %"class.fmt::v6::basic_format_arg", ptr %this1, i32 0, i32 0
  call void @_ZN3fmt2v68internal5valueINS0_20basic_format_contextISt20back_insert_iteratorINS1_6bufferIcEEEcEEEC2Ei(ptr noundef nonnull align 16 dereferenceable(16) %value_, i32 noundef 0)
  %type_ = getelementptr inbounds nuw %"class.fmt::v6::basic_format_arg", ptr %this1, i32 0, i32 1
  store i32 0, ptr %type_, align 16, !tbaa !250
  ret void
}

; Function Attrs: inlinehint mustprogress nounwind uwtable
define linkonce_odr void @_ZN3fmt2v620basic_format_contextISt20back_insert_iteratorINS0_8internal6bufferIcEEEcED2Ev(ptr noundef nonnull align 8 dereferenceable(48) %this) unnamed_addr #8 comdat align 2 {
entry:
  %this.addr = alloca ptr, align 8
  store ptr %this, ptr %this.addr, align 8, !tbaa !239
  %this1 = load ptr, ptr %this.addr, align 8
  %map_ = getelementptr inbounds nuw %"class.fmt::v6::basic_format_context", ptr %this1, i32 0, i32 2
  call void @_ZN3fmt2v68internal7arg_mapINS0_20basic_format_contextISt20back_insert_iteratorINS1_6bufferIcEEEcEEED2Ev(ptr noundef nonnull align 8 dereferenceable(12) %map_) #3
  ret void
}

; Function Attrs: mustprogress nounwind uwtable
define linkonce_odr void @_ZN3fmt2v68internal7arg_mapINS0_20basic_format_contextISt20back_insert_iteratorINS1_6bufferIcEEEcEEEC2Ev(ptr noundef nonnull align 8 dereferenceable(12) %this) unnamed_addr #7 comdat align 2 {
entry:
  %this.addr = alloca ptr, align 8
  store ptr %this, ptr %this.addr, align 8, !tbaa !254
  %this1 = load ptr, ptr %this.addr, align 8
  %map_ = getelementptr inbounds nuw %"class.fmt::v6::internal::arg_map", ptr %this1, i32 0, i32 0
  store ptr null, ptr %map_, align 8, !tbaa !256
  %size_ = getelementptr inbounds nuw %"class.fmt::v6::internal::arg_map", ptr %this1, i32 0, i32 1
  store i32 0, ptr %size_, align 8, !tbaa !259
  ret void
}

; Function Attrs: mustprogress nounwind uwtable
define linkonce_odr void @_ZN3fmt2v68internal5valueINS0_20basic_format_contextISt20back_insert_iteratorINS1_6bufferIcEEEcEEEC2Ei(ptr noundef nonnull align 16 dereferenceable(16) %this, i32 noundef %val) unnamed_addr #7 comdat align 2 {
entry:
  %this.addr = alloca ptr, align 8
  %val.addr = alloca i32, align 4
  store ptr %this, ptr %this.addr, align 8, !tbaa !260
  store i32 %val, ptr %val.addr, align 4, !tbaa !26
  %this1 = load ptr, ptr %this.addr, align 8
  %0 = getelementptr inbounds nuw %"class.fmt::v6::internal::value", ptr %this1, i32 0, i32 0
  %1 = load i32, ptr %val.addr, align 4, !tbaa !26
  store i32 %1, ptr %0, align 16, !tbaa !146
  ret void
}

; Function Attrs: mustprogress nounwind uwtable
define linkonce_odr void @_ZN3fmt2v68internal7arg_mapINS0_20basic_format_contextISt20back_insert_iteratorINS1_6bufferIcEEEcEEED2Ev(ptr noundef nonnull align 8 dereferenceable(12) %this) unnamed_addr #7 comdat align 2 {
entry:
  %this.addr = alloca ptr, align 8
  store ptr %this, ptr %this.addr, align 8, !tbaa !254
  %this1 = load ptr, ptr %this.addr, align 8
  %map_ = getelementptr inbounds nuw %"class.fmt::v6::internal::arg_map", ptr %this1, i32 0, i32 0
  %0 = load ptr, ptr %map_, align 8, !tbaa !256
  %isnull = icmp eq ptr %0, null
  br i1 %isnull, label %delete.end, label %delete.notnull

delete.notnull:                                   ; preds = %entry
  call void @_ZdaPv(ptr noundef %0) #27
  br label %delete.end

delete.end:                                       ; preds = %delete.notnull, %entry
  ret void
}

; Function Attrs: nobuiltin nounwind
declare void @_ZdaPv(ptr noundef) #13

; Function Attrs: mustprogress nounwind uwtable
define linkonce_odr noundef ptr @_ZNK3fmt2v617basic_string_viewIcE4dataEv(ptr noundef nonnull align 8 dereferenceable(16) %this) #7 comdat align 2 {
entry:
  %this.addr = alloca ptr, align 8
  store ptr %this, ptr %this.addr, align 8, !tbaa !262
  %this1 = load ptr, ptr %this.addr, align 8
  %data_ = getelementptr inbounds nuw %"class.fmt::v6::basic_string_view", ptr %this1, i32 0, i32 0
  %0 = load ptr, ptr %data_, align 8, !tbaa !264
  ret ptr %0
}

; Function Attrs: mustprogress nounwind uwtable
define linkonce_odr noundef i64 @_ZNK3fmt2v617basic_string_viewIcE4sizeEv(ptr noundef nonnull align 8 dereferenceable(16) %this) #7 comdat align 2 {
entry:
  %this.addr = alloca ptr, align 8
  store ptr %this, ptr %this.addr, align 8, !tbaa !262
  %this1 = load ptr, ptr %this.addr, align 8
  %size_ = getelementptr inbounds nuw %"class.fmt::v6::basic_string_view", ptr %this1, i32 0, i32 1
  %0 = load i64, ptr %size_, align 8, !tbaa !265
  ret i64 %0
}

; Function Attrs: inlinehint mustprogress uwtable
define linkonce_odr noundef zeroext i1 @_ZN3fmt2v68internal4findILb0EcPKcEEbT1_S5_T0_RS5_(ptr noundef %first, ptr noundef %last, i8 noundef signext %value, ptr noundef nonnull align 8 dereferenceable(8) %out) #9 comdat {
entry:
  %first.addr = alloca ptr, align 8
  %last.addr = alloca ptr, align 8
  %value.addr = alloca i8, align 1
  %out.addr = alloca ptr, align 8
  store ptr %first, ptr %first.addr, align 8, !tbaa !27
  store ptr %last, ptr %last.addr, align 8, !tbaa !27
  store i8 %value, ptr %value.addr, align 1, !tbaa !146
  store ptr %out, ptr %out.addr, align 8, !tbaa !149
  %0 = load ptr, ptr %first.addr, align 8, !tbaa !27
  %1 = load i8, ptr %value.addr, align 1, !tbaa !146
  %conv = sext i8 %1 to i32
  %2 = load ptr, ptr %last.addr, align 8, !tbaa !27
  %3 = load ptr, ptr %first.addr, align 8, !tbaa !27
  %sub.ptr.lhs.cast = ptrtoint ptr %2 to i64
  %sub.ptr.rhs.cast = ptrtoint ptr %3 to i64
  %sub.ptr.sub = sub i64 %sub.ptr.lhs.cast, %sub.ptr.rhs.cast
  %call = call noundef i64 @_ZN3fmt2v68internal11to_unsignedIlEENSt13make_unsignedIT_E4typeES4_(i64 noundef %sub.ptr.sub)
  %call1 = call noundef ptr @memchr(ptr noundef %0, i32 noundef %conv, i64 noundef %call) #29
  %4 = load ptr, ptr %out.addr, align 8, !tbaa !149
  store ptr %call1, ptr %4, align 8, !tbaa !27
  %5 = load ptr, ptr %out.addr, align 8, !tbaa !149
  %6 = load ptr, ptr %5, align 8, !tbaa !27
  %cmp = icmp ne ptr %6, null
  ret i1 %cmp
}

; Function Attrs: mustprogress uwtable
define linkonce_odr void @_ZZN3fmt2v68internal19parse_format_stringILb0EcRNS0_14format_handlerINS0_13arg_formatterINS0_12buffer_rangeIcEEEEcNS0_20basic_format_contextISt20back_insert_iteratorINS1_6bufferIcEEEcEEEEEEvNS0_17basic_string_viewIT0_EEOT1_EN10pfs_writerclEPKcSN_(ptr noundef nonnull align 8 dereferenceable(8) %this, ptr noundef %begin, ptr noundef %end) #4 comdat align 2 {
entry:
  %this.addr = alloca ptr, align 8
  %begin.addr = alloca ptr, align 8
  %end.addr = alloca ptr, align 8
  %p = alloca ptr, align 8
  %cleanup.dest.slot = alloca i32, align 4
  store ptr %this, ptr %this.addr, align 8, !tbaa !266
  store ptr %begin, ptr %begin.addr, align 8, !tbaa !27
  store ptr %end, ptr %end.addr, align 8, !tbaa !27
  %this1 = load ptr, ptr %this.addr, align 8
  %0 = load ptr, ptr %begin.addr, align 8, !tbaa !27
  %1 = load ptr, ptr %end.addr, align 8, !tbaa !27
  %cmp = icmp eq ptr %0, %1
  br i1 %cmp, label %if.then, label %if.end

if.then:                                          ; preds = %entry
  br label %return

if.end:                                           ; preds = %entry
  br label %for.cond

for.cond:                                         ; preds = %cleanup.cont, %if.end
  call void @llvm.lifetime.start.p0(i64 8, ptr %p) #3
  store ptr null, ptr %p, align 8, !tbaa !27
  %2 = load ptr, ptr %begin.addr, align 8, !tbaa !27
  %3 = load ptr, ptr %end.addr, align 8, !tbaa !27
  %call = call noundef zeroext i1 @_ZN3fmt2v68internal4findILb0EcPKcEEbT1_S5_T0_RS5_(ptr noundef %2, ptr noundef %3, i8 noundef signext 125, ptr noundef nonnull align 8 dereferenceable(8) %p)
  br i1 %call, label %if.end3, label %if.then2

if.then2:                                         ; preds = %for.cond
  %handler_ = getelementptr inbounds nuw %struct.pfs_writer, ptr %this1, i32 0, i32 0
  %4 = load ptr, ptr %handler_, align 8, !tbaa !268
  %5 = load ptr, ptr %begin.addr, align 8, !tbaa !27
  %6 = load ptr, ptr %end.addr, align 8, !tbaa !27
  call void @_ZN3fmt2v614format_handlerINS0_13arg_formatterINS0_12buffer_rangeIcEEEEcNS0_20basic_format_contextISt20back_insert_iteratorINS0_8internal6bufferIcEEEcEEE7on_textEPKcSF_(ptr noundef nonnull align 16 dereferenceable(112) %4, ptr noundef %5, ptr noundef %6)
  store i32 1, ptr %cleanup.dest.slot, align 4
  br label %cleanup

if.end3:                                          ; preds = %for.cond
  %7 = load ptr, ptr %p, align 8, !tbaa !27
  %incdec.ptr = getelementptr inbounds nuw i8, ptr %7, i32 1
  store ptr %incdec.ptr, ptr %p, align 8, !tbaa !27
  %8 = load ptr, ptr %p, align 8, !tbaa !27
  %9 = load ptr, ptr %end.addr, align 8, !tbaa !27
  %cmp4 = icmp eq ptr %8, %9
  br i1 %cmp4, label %if.then6, label %lor.lhs.false

lor.lhs.false:                                    ; preds = %if.end3
  %10 = load ptr, ptr %p, align 8, !tbaa !27
  %11 = load i8, ptr %10, align 1, !tbaa !146
  %conv = sext i8 %11 to i32
  %cmp5 = icmp ne i32 %conv, 125
  br i1 %cmp5, label %if.then6, label %if.end8

if.then6:                                         ; preds = %lor.lhs.false, %if.end3
  %handler_7 = getelementptr inbounds nuw %struct.pfs_writer, ptr %this1, i32 0, i32 0
  %12 = load ptr, ptr %handler_7, align 8, !tbaa !268
  call void @_ZN3fmt2v68internal13error_handler8on_errorEPKc(ptr noundef nonnull align 1 dereferenceable(1) %12, ptr noundef @.str.9) #25
  unreachable

13:                                               ; No predecessors!
  store i32 1, ptr %cleanup.dest.slot, align 4
  br label %cleanup

if.end8:                                          ; preds = %lor.lhs.false
  %handler_9 = getelementptr inbounds nuw %struct.pfs_writer, ptr %this1, i32 0, i32 0
  %14 = load ptr, ptr %handler_9, align 8, !tbaa !268
  %15 = load ptr, ptr %begin.addr, align 8, !tbaa !27
  %16 = load ptr, ptr %p, align 8, !tbaa !27
  call void @_ZN3fmt2v614format_handlerINS0_13arg_formatterINS0_12buffer_rangeIcEEEEcNS0_20basic_format_contextISt20back_insert_iteratorINS0_8internal6bufferIcEEEcEEE7on_textEPKcSF_(ptr noundef nonnull align 16 dereferenceable(112) %14, ptr noundef %15, ptr noundef %16)
  %17 = load ptr, ptr %p, align 8, !tbaa !27
  %add.ptr = getelementptr inbounds i8, ptr %17, i64 1
  store ptr %add.ptr, ptr %begin.addr, align 8, !tbaa !27
  store i32 0, ptr %cleanup.dest.slot, align 4
  br label %cleanup

cleanup:                                          ; preds = %if.end8, %13, %if.then2
  call void @llvm.lifetime.end.p0(i64 8, ptr %p) #3
  %cleanup.dest = load i32, ptr %cleanup.dest.slot, align 4
  switch i32 %cleanup.dest, label %unreachable [
    i32 0, label %cleanup.cont
    i32 1, label %return
  ]

cleanup.cont:                                     ; preds = %cleanup
  br label %for.cond, !llvm.loop !270

return:                                           ; preds = %cleanup, %if.then
  ret void

unreachable:                                      ; preds = %cleanup
  unreachable
}

; Function Attrs: noreturn
declare void @_ZN3fmt2v68internal13error_handler8on_errorEPKc(ptr noundef nonnull align 1 dereferenceable(1), ptr noundef) #11

; Function Attrs: mustprogress uwtable
define linkonce_odr void @_ZN3fmt2v614format_handlerINS0_13arg_formatterINS0_12buffer_rangeIcEEEEcNS0_20basic_format_contextISt20back_insert_iteratorINS0_8internal6bufferIcEEEcEEE9on_arg_idEv(ptr noundef nonnull align 16 dereferenceable(112) %this) #4 comdat align 2 {
entry:
  %this.addr = alloca ptr, align 8
  store ptr %this, ptr %this.addr, align 8, !tbaa !236
  %this1 = load ptr, ptr %this.addr, align 8
  %parse_context = getelementptr inbounds nuw %"struct.fmt::v6::format_handler", ptr %this1, i32 0, i32 1
  %call = call noundef i32 @_ZN3fmt2v626basic_format_parse_contextIcNS0_8internal13error_handlerEE11next_arg_idEv(ptr noundef nonnull align 8 dereferenceable(20) %parse_context)
  call void @_ZN3fmt2v614format_handlerINS0_13arg_formatterINS0_12buffer_rangeIcEEEEcNS0_20basic_format_contextISt20back_insert_iteratorINS0_8internal6bufferIcEEEcEEE7get_argEi(ptr noundef nonnull align 16 dereferenceable(112) %this1, i32 noundef %call)
  ret void
}

; Function Attrs: mustprogress uwtable
define linkonce_odr void @_ZN3fmt2v614format_handlerINS0_13arg_formatterINS0_12buffer_rangeIcEEEEcNS0_20basic_format_contextISt20back_insert_iteratorINS0_8internal6bufferIcEEEcEEE20on_replacement_fieldEPKc(ptr noundef nonnull align 16 dereferenceable(112) %this, ptr noundef %p) #4 comdat align 2 {
entry:
  %this.addr = alloca ptr, align 8
  %p.addr = alloca ptr, align 8
  %agg.tmp = alloca %"class.std::back_insert_iterator", align 8
  %ref.tmp = alloca %"class.fmt::v6::arg_formatter", align 8
  store ptr %this, ptr %this.addr, align 8, !tbaa !236
  store ptr %p, ptr %p.addr, align 8, !tbaa !27
  %this1 = load ptr, ptr %this.addr, align 8
  %parse_context = getelementptr inbounds nuw %"struct.fmt::v6::format_handler", ptr %this1, i32 0, i32 1
  %0 = load ptr, ptr %p.addr, align 8, !tbaa !27
  call void @_ZN3fmt2v610advance_toIcNS0_8internal13error_handlerEEEvRNS0_26basic_format_parse_contextIT_T0_EEPKS5_(ptr noundef nonnull align 8 dereferenceable(20) %parse_context, ptr noundef %0)
  %context = getelementptr inbounds nuw %"struct.fmt::v6::format_handler", ptr %this1, i32 0, i32 2
  call void @llvm.lifetime.start.p0(i64 40, ptr %ref.tmp) #3
  %context2 = getelementptr inbounds nuw %"struct.fmt::v6::format_handler", ptr %this1, i32 0, i32 2
  %parse_context3 = getelementptr inbounds nuw %"struct.fmt::v6::format_handler", ptr %this1, i32 0, i32 1
  call void @_ZN3fmt2v613arg_formatterINS0_12buffer_rangeIcEEEC2ERNS0_20basic_format_contextISt20back_insert_iteratorINS0_8internal6bufferIcEEEcEEPNS0_26basic_format_parse_contextIcNS7_13error_handlerEEEPNS0_18basic_format_specsIcEE(ptr noundef nonnull align 8 dereferenceable(40) %ref.tmp, ptr noundef nonnull align 8 dereferenceable(48) %context2, ptr noundef %parse_context3, ptr noundef null)
  %arg = getelementptr inbounds nuw %"struct.fmt::v6::format_handler", ptr %this1, i32 0, i32 3
  %call = call ptr @_ZN3fmt2v616visit_format_argINS0_13arg_formatterINS0_12buffer_rangeIcEEEENS0_20basic_format_contextISt20back_insert_iteratorINS0_8internal6bufferIcEEEcEEEEDTclfp_Li0EEEOT_RKNS0_16basic_format_argIT0_EE(ptr noundef nonnull align 8 dereferenceable(40) %ref.tmp, ptr noundef nonnull align 16 dereferenceable(20) %arg)
  %coerce.dive = getelementptr inbounds nuw %"class.std::back_insert_iterator", ptr %agg.tmp, i32 0, i32 0
  store ptr %call, ptr %coerce.dive, align 8
  %coerce.dive4 = getelementptr inbounds nuw %"class.std::back_insert_iterator", ptr %agg.tmp, i32 0, i32 0
  %1 = load ptr, ptr %coerce.dive4, align 8
  call void @_ZN3fmt2v620basic_format_contextISt20back_insert_iteratorINS0_8internal6bufferIcEEEcE10advance_toES6_(ptr noundef nonnull align 8 dereferenceable(48) %context, ptr %1)
  call void @llvm.lifetime.end.p0(i64 40, ptr %ref.tmp) #3
  ret void
}

; Function Attrs: mustprogress uwtable
define linkonce_odr void @_ZN3fmt2v614format_handlerINS0_13arg_formatterINS0_12buffer_rangeIcEEEEcNS0_20basic_format_contextISt20back_insert_iteratorINS0_8internal6bufferIcEEEcEEE7on_textEPKcSF_(ptr noundef nonnull align 16 dereferenceable(112) %this, ptr noundef %begin, ptr noundef %end) #4 comdat align 2 {
entry:
  %this.addr = alloca ptr, align 8
  %begin.addr = alloca ptr, align 8
  %end.addr = alloca ptr, align 8
  %size = alloca i64, align 8
  %out = alloca %"class.std::back_insert_iterator", align 8
  %it = alloca ptr, align 8
  %ref.tmp = alloca ptr, align 8
  %agg.tmp = alloca %"class.std::back_insert_iterator", align 8
  store ptr %this, ptr %this.addr, align 8, !tbaa !236
  store ptr %begin, ptr %begin.addr, align 8, !tbaa !27
  store ptr %end, ptr %end.addr, align 8, !tbaa !27
  %this1 = load ptr, ptr %this.addr, align 8
  call void @llvm.lifetime.start.p0(i64 8, ptr %size) #3
  %0 = load ptr, ptr %end.addr, align 8, !tbaa !27
  %1 = load ptr, ptr %begin.addr, align 8, !tbaa !27
  %sub.ptr.lhs.cast = ptrtoint ptr %0 to i64
  %sub.ptr.rhs.cast = ptrtoint ptr %1 to i64
  %sub.ptr.sub = sub i64 %sub.ptr.lhs.cast, %sub.ptr.rhs.cast
  %call = call noundef i64 @_ZN3fmt2v68internal11to_unsignedIlEENSt13make_unsignedIT_E4typeES4_(i64 noundef %sub.ptr.sub)
  store i64 %call, ptr %size, align 8, !tbaa !54
  call void @llvm.lifetime.start.p0(i64 8, ptr %out) #3
  %context = getelementptr inbounds nuw %"struct.fmt::v6::format_handler", ptr %this1, i32 0, i32 2
  %call2 = call ptr @_ZN3fmt2v620basic_format_contextISt20back_insert_iteratorINS0_8internal6bufferIcEEEcE3outEv(ptr noundef nonnull align 8 dereferenceable(48) %context)
  %coerce.dive = getelementptr inbounds nuw %"class.std::back_insert_iterator", ptr %out, i32 0, i32 0
  store ptr %call2, ptr %coerce.dive, align 8
  call void @llvm.lifetime.start.p0(i64 8, ptr %it) #3
  call void @llvm.lifetime.start.p0(i64 8, ptr %ref.tmp) #3
  %2 = load i64, ptr %size, align 8, !tbaa !54
  %call3 = call noundef ptr @_ZN3fmt2v68internal7reserveINS1_6bufferIcEETnNSt9enable_ifIXsr13is_contiguousIT_EE5valueEiE4typeELi0EEEPNS6_10value_typeERSt20back_insert_iteratorIS6_Em(ptr noundef nonnull align 8 dereferenceable(8) %out, i64 noundef %2)
  store ptr %call3, ptr %ref.tmp, align 8, !tbaa !27
  store ptr %ref.tmp, ptr %it, align 8, !tbaa !149
  %3 = load ptr, ptr %begin.addr, align 8, !tbaa !27
  %4 = load i64, ptr %size, align 8, !tbaa !54
  %5 = load ptr, ptr %it, align 8, !tbaa !149
  %6 = load ptr, ptr %5, align 8, !tbaa !27
  %call4 = call noundef ptr @_ZSt6copy_nIPKcmPcET1_T_T0_S3_(ptr noundef %3, i64 noundef %4, ptr noundef %6)
  %7 = load ptr, ptr %it, align 8, !tbaa !149
  store ptr %call4, ptr %7, align 8, !tbaa !27
  %context5 = getelementptr inbounds nuw %"struct.fmt::v6::format_handler", ptr %this1, i32 0, i32 2
  call void @llvm.memcpy.p0.p0.i64(ptr align 8 %agg.tmp, ptr align 8 %out, i64 8, i1 false)
  %coerce.dive6 = getelementptr inbounds nuw %"class.std::back_insert_iterator", ptr %agg.tmp, i32 0, i32 0
  %8 = load ptr, ptr %coerce.dive6, align 8
  call void @_ZN3fmt2v620basic_format_contextISt20back_insert_iteratorINS0_8internal6bufferIcEEEcE10advance_toES6_(ptr noundef nonnull align 8 dereferenceable(48) %context5, ptr %8)
  call void @llvm.lifetime.end.p0(i64 8, ptr %ref.tmp) #3
  call void @llvm.lifetime.end.p0(i64 8, ptr %it) #3
  call void @llvm.lifetime.end.p0(i64 8, ptr %out) #3
  call void @llvm.lifetime.end.p0(i64 8, ptr %size) #3
  ret void
}

; Function Attrs: mustprogress uwtable
define linkonce_odr noundef ptr @_ZN3fmt2v68internal12parse_arg_idIcNS1_10id_adapterIRNS0_14format_handlerINS0_13arg_formatterINS0_12buffer_rangeIcEEEEcNS0_20basic_format_contextISt20back_insert_iteratorINS1_6bufferIcEEEcEEEEcEEEEPKT_SK_SK_OT0_(ptr noundef %begin, ptr noundef %end, ptr noundef nonnull align 8 dereferenceable(8) %handler) #4 comdat {
entry:
  %retval = alloca ptr, align 8
  %begin.addr = alloca ptr, align 8
  %end.addr = alloca ptr, align 8
  %handler.addr = alloca ptr, align 8
  %c = alloca i8, align 1
  %cleanup.dest.slot = alloca i32, align 4
  %index = alloca i32, align 4
  %it = alloca ptr, align 8
  %agg.tmp = alloca %"class.fmt::v6::basic_string_view", align 8
  store ptr %begin, ptr %begin.addr, align 8, !tbaa !27
  store ptr %end, ptr %end.addr, align 8, !tbaa !27
  store ptr %handler, ptr %handler.addr, align 8, !tbaa !271
  %0 = load ptr, ptr %begin.addr, align 8, !tbaa !27
  %1 = load ptr, ptr %end.addr, align 8, !tbaa !27
  %cmp = icmp ne ptr %0, %1
  br i1 %cmp, label %cond.true, label %cond.false

cond.true:                                        ; preds = %entry
  br label %cond.end

cond.false:                                       ; preds = %entry
  call void @_ZN3fmt2v68internal11assert_failEPKciS3_(ptr noundef @.str.13, i32 noundef 2263, ptr noundef @.str.27)
  br label %cond.end

cond.end:                                         ; preds = %cond.false, %cond.true
  call void @llvm.lifetime.start.p0(i64 1, ptr %c) #3
  %2 = load ptr, ptr %begin.addr, align 8, !tbaa !27
  %3 = load i8, ptr %2, align 1, !tbaa !146
  store i8 %3, ptr %c, align 1, !tbaa !146
  %4 = load i8, ptr %c, align 1, !tbaa !146
  %conv = sext i8 %4 to i32
  %cmp1 = icmp eq i32 %conv, 125
  br i1 %cmp1, label %if.then, label %lor.lhs.false

lor.lhs.false:                                    ; preds = %cond.end
  %5 = load i8, ptr %c, align 1, !tbaa !146
  %conv2 = sext i8 %5 to i32
  %cmp3 = icmp eq i32 %conv2, 58
  br i1 %cmp3, label %if.then, label %if.end

if.then:                                          ; preds = %lor.lhs.false, %cond.end
  %6 = load ptr, ptr %handler.addr, align 8, !tbaa !271
  call void @_ZN3fmt2v68internal10id_adapterIRNS0_14format_handlerINS0_13arg_formatterINS0_12buffer_rangeIcEEEEcNS0_20basic_format_contextISt20back_insert_iteratorINS1_6bufferIcEEEcEEEEcEclEv(ptr noundef nonnull align 8 dereferenceable(8) %6)
  %7 = load ptr, ptr %begin.addr, align 8, !tbaa !27
  store ptr %7, ptr %retval, align 8
  store i32 1, ptr %cleanup.dest.slot, align 4
  br label %cleanup

if.end:                                           ; preds = %lor.lhs.false
  %8 = load i8, ptr %c, align 1, !tbaa !146
  %conv4 = sext i8 %8 to i32
  %cmp5 = icmp sge i32 %conv4, 48
  br i1 %cmp5, label %land.lhs.true, label %if.end18

land.lhs.true:                                    ; preds = %if.end
  %9 = load i8, ptr %c, align 1, !tbaa !146
  %conv6 = sext i8 %9 to i32
  %cmp7 = icmp sle i32 %conv6, 57
  br i1 %cmp7, label %if.then8, label %if.end18

if.then8:                                         ; preds = %land.lhs.true
  call void @llvm.lifetime.start.p0(i64 4, ptr %index) #3
  %10 = load ptr, ptr %end.addr, align 8, !tbaa !27
  %11 = load ptr, ptr %handler.addr, align 8, !tbaa !271
  %call = call noundef i32 @_ZN3fmt2v68internal21parse_nonnegative_intIcRNS1_10id_adapterIRNS0_14format_handlerINS0_13arg_formatterINS0_12buffer_rangeIcEEEEcNS0_20basic_format_contextISt20back_insert_iteratorINS1_6bufferIcEEEcEEEEcEEEEiRPKT_SL_OT0_(ptr noundef nonnull align 8 dereferenceable(8) %begin.addr, ptr noundef %10, ptr noundef nonnull align 8 dereferenceable(8) %11)
  store i32 %call, ptr %index, align 4, !tbaa !26
  %12 = load ptr, ptr %begin.addr, align 8, !tbaa !27
  %13 = load ptr, ptr %end.addr, align 8, !tbaa !27
  %cmp9 = icmp eq ptr %12, %13
  br i1 %cmp9, label %if.then16, label %lor.lhs.false10

lor.lhs.false10:                                  ; preds = %if.then8
  %14 = load ptr, ptr %begin.addr, align 8, !tbaa !27
  %15 = load i8, ptr %14, align 1, !tbaa !146
  %conv11 = sext i8 %15 to i32
  %cmp12 = icmp ne i32 %conv11, 125
  br i1 %cmp12, label %land.lhs.true13, label %if.else

land.lhs.true13:                                  ; preds = %lor.lhs.false10
  %16 = load ptr, ptr %begin.addr, align 8, !tbaa !27
  %17 = load i8, ptr %16, align 1, !tbaa !146
  %conv14 = sext i8 %17 to i32
  %cmp15 = icmp ne i32 %conv14, 58
  br i1 %cmp15, label %if.then16, label %if.else

if.then16:                                        ; preds = %land.lhs.true13, %if.then8
  %18 = load ptr, ptr %handler.addr, align 8, !tbaa !271
  call void @_ZN3fmt2v68internal10id_adapterIRNS0_14format_handlerINS0_13arg_formatterINS0_12buffer_rangeIcEEEEcNS0_20basic_format_contextISt20back_insert_iteratorINS1_6bufferIcEEEcEEEEcE8on_errorEPKc(ptr noundef nonnull align 8 dereferenceable(8) %18, ptr noundef @.str.4)
  br label %if.end17

if.else:                                          ; preds = %land.lhs.true13, %lor.lhs.false10
  %19 = load ptr, ptr %handler.addr, align 8, !tbaa !271
  %20 = load i32, ptr %index, align 4, !tbaa !26
  call void @_ZN3fmt2v68internal10id_adapterIRNS0_14format_handlerINS0_13arg_formatterINS0_12buffer_rangeIcEEEEcNS0_20basic_format_contextISt20back_insert_iteratorINS1_6bufferIcEEEcEEEEcEclEi(ptr noundef nonnull align 8 dereferenceable(8) %19, i32 noundef %20)
  br label %if.end17

if.end17:                                         ; preds = %if.else, %if.then16
  %21 = load ptr, ptr %begin.addr, align 8, !tbaa !27
  store ptr %21, ptr %retval, align 8
  store i32 1, ptr %cleanup.dest.slot, align 4
  call void @llvm.lifetime.end.p0(i64 4, ptr %index) #3
  br label %cleanup

if.end18:                                         ; preds = %land.lhs.true, %if.end
  %22 = load i8, ptr %c, align 1, !tbaa !146
  %call19 = call noundef zeroext i1 @_ZN3fmt2v68internal13is_name_startIcEEbT_(i8 noundef signext %22)
  br i1 %call19, label %if.end21, label %if.then20

if.then20:                                        ; preds = %if.end18
  %23 = load ptr, ptr %handler.addr, align 8, !tbaa !271
  call void @_ZN3fmt2v68internal10id_adapterIRNS0_14format_handlerINS0_13arg_formatterINS0_12buffer_rangeIcEEEEcNS0_20basic_format_contextISt20back_insert_iteratorINS1_6bufferIcEEEcEEEEcE8on_errorEPKc(ptr noundef nonnull align 8 dereferenceable(8) %23, ptr noundef @.str.4)
  %24 = load ptr, ptr %begin.addr, align 8, !tbaa !27
  store ptr %24, ptr %retval, align 8
  store i32 1, ptr %cleanup.dest.slot, align 4
  br label %cleanup

if.end21:                                         ; preds = %if.end18
  call void @llvm.lifetime.start.p0(i64 8, ptr %it) #3
  %25 = load ptr, ptr %begin.addr, align 8, !tbaa !27
  store ptr %25, ptr %it, align 8, !tbaa !27
  br label %do.body

do.body:                                          ; preds = %land.end29, %if.end21
  %26 = load ptr, ptr %it, align 8, !tbaa !27
  %incdec.ptr = getelementptr inbounds nuw i8, ptr %26, i32 1
  store ptr %incdec.ptr, ptr %it, align 8, !tbaa !27
  br label %do.cond

do.cond:                                          ; preds = %do.body
  %27 = load ptr, ptr %it, align 8, !tbaa !27
  %28 = load ptr, ptr %end.addr, align 8, !tbaa !27
  %cmp22 = icmp ne ptr %27, %28
  br i1 %cmp22, label %land.rhs, label %land.end29

land.rhs:                                         ; preds = %do.cond
  %29 = load ptr, ptr %it, align 8, !tbaa !27
  %30 = load i8, ptr %29, align 1, !tbaa !146
  store i8 %30, ptr %c, align 1, !tbaa !146
  %call23 = call noundef zeroext i1 @_ZN3fmt2v68internal13is_name_startIcEEbT_(i8 noundef signext %30)
  br i1 %call23, label %lor.end, label %lor.rhs

lor.rhs:                                          ; preds = %land.rhs
  %31 = load i8, ptr %c, align 1, !tbaa !146
  %conv24 = sext i8 %31 to i32
  %cmp25 = icmp sle i32 48, %conv24
  br i1 %cmp25, label %land.rhs26, label %land.end

land.rhs26:                                       ; preds = %lor.rhs
  %32 = load i8, ptr %c, align 1, !tbaa !146
  %conv27 = sext i8 %32 to i32
  %cmp28 = icmp sle i32 %conv27, 57
  br label %land.end

land.end:                                         ; preds = %land.rhs26, %lor.rhs
  %33 = phi i1 [ false, %lor.rhs ], [ %cmp28, %land.rhs26 ]
  br label %lor.end

lor.end:                                          ; preds = %land.end, %land.rhs
  %34 = phi i1 [ true, %land.rhs ], [ %33, %land.end ]
  br label %land.end29

land.end29:                                       ; preds = %lor.end, %do.cond
  %35 = phi i1 [ false, %do.cond ], [ %34, %lor.end ]
  br i1 %35, label %do.body, label %do.end, !llvm.loop !273

do.end:                                           ; preds = %land.end29
  %36 = load ptr, ptr %handler.addr, align 8, !tbaa !271
  %37 = load ptr, ptr %begin.addr, align 8, !tbaa !27
  %38 = load ptr, ptr %it, align 8, !tbaa !27
  %39 = load ptr, ptr %begin.addr, align 8, !tbaa !27
  %sub.ptr.lhs.cast = ptrtoint ptr %38 to i64
  %sub.ptr.rhs.cast = ptrtoint ptr %39 to i64
  %sub.ptr.sub = sub i64 %sub.ptr.lhs.cast, %sub.ptr.rhs.cast
  %call30 = call noundef i64 @_ZN3fmt2v68internal11to_unsignedIlEENSt13make_unsignedIT_E4typeES4_(i64 noundef %sub.ptr.sub)
  call void @_ZN3fmt2v617basic_string_viewIcEC2EPKcm(ptr noundef nonnull align 8 dereferenceable(16) %agg.tmp, ptr noundef %37, i64 noundef %call30) #3
  %40 = getelementptr inbounds nuw { ptr, i64 }, ptr %agg.tmp, i32 0, i32 0
  %41 = load ptr, ptr %40, align 8
  %42 = getelementptr inbounds nuw { ptr, i64 }, ptr %agg.tmp, i32 0, i32 1
  %43 = load i64, ptr %42, align 8
  call void @_ZN3fmt2v68internal10id_adapterIRNS0_14format_handlerINS0_13arg_formatterINS0_12buffer_rangeIcEEEEcNS0_20basic_format_contextISt20back_insert_iteratorINS1_6bufferIcEEEcEEEEcEclENS0_17basic_string_viewIcEE(ptr noundef nonnull align 8 dereferenceable(8) %36, ptr %41, i64 %43)
  %44 = load ptr, ptr %it, align 8, !tbaa !27
  store ptr %44, ptr %retval, align 8
  store i32 1, ptr %cleanup.dest.slot, align 4
  call void @llvm.lifetime.end.p0(i64 8, ptr %it) #3
  br label %cleanup

cleanup:                                          ; preds = %do.end, %if.then20, %if.end17, %if.then
  call void @llvm.lifetime.end.p0(i64 1, ptr %c) #3
  %45 = load ptr, ptr %retval, align 8
  ret ptr %45
}

; Function Attrs: mustprogress uwtable
define linkonce_odr noundef ptr @_ZN3fmt2v614format_handlerINS0_13arg_formatterINS0_12buffer_rangeIcEEEEcNS0_20basic_format_contextISt20back_insert_iteratorINS0_8internal6bufferIcEEEcEEE15on_format_specsEPKcSF_(ptr noundef nonnull align 16 dereferenceable(112) %this, ptr noundef %begin, ptr noundef %end) #4 comdat align 2 {
entry:
  %retval = alloca ptr, align 8
  %this.addr = alloca ptr, align 8
  %begin.addr = alloca ptr, align 8
  %end.addr = alloca ptr, align 8
  %f = alloca %"class.fmt::v6::internal::custom_formatter", align 8
  %cleanup.dest.slot = alloca i32, align 4
  %specs = alloca %"struct.fmt::v6::basic_format_specs", align 4
  %handler = alloca %"class.fmt::v6::internal::specs_checker", align 8
  %ref.tmp = alloca %"class.fmt::v6::internal::specs_handler", align 8
  %agg.tmp = alloca %"class.std::back_insert_iterator", align 8
  %ref.tmp15 = alloca %"class.fmt::v6::arg_formatter", align 8
  store ptr %this, ptr %this.addr, align 8, !tbaa !236
  store ptr %begin, ptr %begin.addr, align 8, !tbaa !27
  store ptr %end, ptr %end.addr, align 8, !tbaa !27
  %this1 = load ptr, ptr %this.addr, align 8
  %parse_context = getelementptr inbounds nuw %"struct.fmt::v6::format_handler", ptr %this1, i32 0, i32 1
  %0 = load ptr, ptr %begin.addr, align 8, !tbaa !27
  call void @_ZN3fmt2v610advance_toIcNS0_8internal13error_handlerEEEvRNS0_26basic_format_parse_contextIT_T0_EEPKS5_(ptr noundef nonnull align 8 dereferenceable(20) %parse_context, ptr noundef %0)
  call void @llvm.lifetime.start.p0(i64 16, ptr %f) #3
  %parse_context2 = getelementptr inbounds nuw %"struct.fmt::v6::format_handler", ptr %this1, i32 0, i32 1
  %context = getelementptr inbounds nuw %"struct.fmt::v6::format_handler", ptr %this1, i32 0, i32 2
  call void @_ZN3fmt2v68internal16custom_formatterINS0_20basic_format_contextISt20back_insert_iteratorINS1_6bufferIcEEEcEEEC2ERNS0_26basic_format_parse_contextIcNS1_13error_handlerEEERS8_(ptr noundef nonnull align 8 dereferenceable(16) %f, ptr noundef nonnull align 8 dereferenceable(20) %parse_context2, ptr noundef nonnull align 8 dereferenceable(48) %context)
  %arg = getelementptr inbounds nuw %"struct.fmt::v6::format_handler", ptr %this1, i32 0, i32 3
  %call = call noundef zeroext i1 @_ZN3fmt2v616visit_format_argIRNS0_8internal16custom_formatterINS0_20basic_format_contextISt20back_insert_iteratorINS2_6bufferIcEEEcEEEES9_EEDTclfp_Li0EEEOT_RKNS0_16basic_format_argIT0_EE(ptr noundef nonnull align 8 dereferenceable(16) %f, ptr noundef nonnull align 16 dereferenceable(20) %arg)
  br i1 %call, label %if.then, label %if.end

if.then:                                          ; preds = %entry
  %parse_context3 = getelementptr inbounds nuw %"struct.fmt::v6::format_handler", ptr %this1, i32 0, i32 1
  %call4 = call noundef ptr @_ZNK3fmt2v626basic_format_parse_contextIcNS0_8internal13error_handlerEE5beginEv(ptr noundef nonnull align 8 dereferenceable(20) %parse_context3) #3
  store ptr %call4, ptr %retval, align 8
  store i32 1, ptr %cleanup.dest.slot, align 4
  br label %cleanup

if.end:                                           ; preds = %entry
  call void @llvm.lifetime.start.p0(i64 16, ptr %specs) #3
  call void @_ZN3fmt2v618basic_format_specsIcEC2Ev(ptr noundef nonnull align 4 dereferenceable(16) %specs)
  call void @llvm.lifetime.start.p0(i64 40, ptr %handler) #3
  call void @llvm.lifetime.start.p0(i64 24, ptr %ref.tmp) #3
  %parse_context5 = getelementptr inbounds nuw %"struct.fmt::v6::format_handler", ptr %this1, i32 0, i32 1
  %context6 = getelementptr inbounds nuw %"struct.fmt::v6::format_handler", ptr %this1, i32 0, i32 2
  call void @_ZN3fmt2v68internal13specs_handlerINS0_26basic_format_parse_contextIcNS1_13error_handlerEEENS0_20basic_format_contextISt20back_insert_iteratorINS1_6bufferIcEEEcEEEC2ERNS0_18basic_format_specsIcEERS5_RSB_(ptr noundef nonnull align 8 dereferenceable(24) %ref.tmp, ptr noundef nonnull align 4 dereferenceable(16) %specs, ptr noundef nonnull align 8 dereferenceable(20) %parse_context5, ptr noundef nonnull align 8 dereferenceable(48) %context6)
  %arg7 = getelementptr inbounds nuw %"struct.fmt::v6::format_handler", ptr %this1, i32 0, i32 3
  %call8 = call noundef i32 @_ZNK3fmt2v616basic_format_argINS0_20basic_format_contextISt20back_insert_iteratorINS0_8internal6bufferIcEEEcEEE4typeEv(ptr noundef nonnull align 16 dereferenceable(20) %arg7)
  call void @_ZN3fmt2v68internal13specs_checkerINS1_13specs_handlerINS0_26basic_format_parse_contextIcNS1_13error_handlerEEENS0_20basic_format_contextISt20back_insert_iteratorINS1_6bufferIcEEEcEEEEEC2ERKSD_NS1_4typeE(ptr noundef nonnull align 8 dereferenceable(40) %handler, ptr noundef nonnull align 8 dereferenceable(24) %ref.tmp, i32 noundef %call8)
  call void @llvm.lifetime.end.p0(i64 24, ptr %ref.tmp) #3
  %1 = load ptr, ptr %begin.addr, align 8, !tbaa !27
  %2 = load ptr, ptr %end.addr, align 8, !tbaa !27
  %call9 = call noundef ptr @_ZN3fmt2v68internal18parse_format_specsIcRNS1_13specs_checkerINS1_13specs_handlerINS0_26basic_format_parse_contextIcNS1_13error_handlerEEENS0_20basic_format_contextISt20back_insert_iteratorINS1_6bufferIcEEEcEEEEEEEEPKT_SJ_SJ_OT0_(ptr noundef %1, ptr noundef %2, ptr noundef nonnull align 8 dereferenceable(40) %handler)
  store ptr %call9, ptr %begin.addr, align 8, !tbaa !27
  %3 = load ptr, ptr %begin.addr, align 8, !tbaa !27
  %4 = load ptr, ptr %end.addr, align 8, !tbaa !27
  %cmp = icmp eq ptr %3, %4
  br i1 %cmp, label %if.then11, label %lor.lhs.false

lor.lhs.false:                                    ; preds = %if.end
  %5 = load ptr, ptr %begin.addr, align 8, !tbaa !27
  %6 = load i8, ptr %5, align 1, !tbaa !146
  %conv = sext i8 %6 to i32
  %cmp10 = icmp ne i32 %conv, 125
  br i1 %cmp10, label %if.then11, label %if.end12

if.then11:                                        ; preds = %lor.lhs.false, %if.end
  call void @_ZN3fmt2v68internal13error_handler8on_errorEPKc(ptr noundef nonnull align 1 dereferenceable(1) %this1, ptr noundef @.str.6) #25
  unreachable

if.end12:                                         ; preds = %lor.lhs.false
  %parse_context13 = getelementptr inbounds nuw %"struct.fmt::v6::format_handler", ptr %this1, i32 0, i32 1
  %7 = load ptr, ptr %begin.addr, align 8, !tbaa !27
  call void @_ZN3fmt2v610advance_toIcNS0_8internal13error_handlerEEEvRNS0_26basic_format_parse_contextIT_T0_EEPKS5_(ptr noundef nonnull align 8 dereferenceable(20) %parse_context13, ptr noundef %7)
  %context14 = getelementptr inbounds nuw %"struct.fmt::v6::format_handler", ptr %this1, i32 0, i32 2
  call void @llvm.lifetime.start.p0(i64 40, ptr %ref.tmp15) #3
  %context16 = getelementptr inbounds nuw %"struct.fmt::v6::format_handler", ptr %this1, i32 0, i32 2
  %parse_context17 = getelementptr inbounds nuw %"struct.fmt::v6::format_handler", ptr %this1, i32 0, i32 1
  call void @_ZN3fmt2v613arg_formatterINS0_12buffer_rangeIcEEEC2ERNS0_20basic_format_contextISt20back_insert_iteratorINS0_8internal6bufferIcEEEcEEPNS0_26basic_format_parse_contextIcNS7_13error_handlerEEEPNS0_18basic_format_specsIcEE(ptr noundef nonnull align 8 dereferenceable(40) %ref.tmp15, ptr noundef nonnull align 8 dereferenceable(48) %context16, ptr noundef %parse_context17, ptr noundef %specs)
  %arg18 = getelementptr inbounds nuw %"struct.fmt::v6::format_handler", ptr %this1, i32 0, i32 3
  %call19 = call ptr @_ZN3fmt2v616visit_format_argINS0_13arg_formatterINS0_12buffer_rangeIcEEEENS0_20basic_format_contextISt20back_insert_iteratorINS0_8internal6bufferIcEEEcEEEEDTclfp_Li0EEEOT_RKNS0_16basic_format_argIT0_EE(ptr noundef nonnull align 8 dereferenceable(40) %ref.tmp15, ptr noundef nonnull align 16 dereferenceable(20) %arg18)
  %coerce.dive = getelementptr inbounds nuw %"class.std::back_insert_iterator", ptr %agg.tmp, i32 0, i32 0
  store ptr %call19, ptr %coerce.dive, align 8
  %coerce.dive20 = getelementptr inbounds nuw %"class.std::back_insert_iterator", ptr %agg.tmp, i32 0, i32 0
  %8 = load ptr, ptr %coerce.dive20, align 8
  call void @_ZN3fmt2v620basic_format_contextISt20back_insert_iteratorINS0_8internal6bufferIcEEEcE10advance_toES6_(ptr noundef nonnull align 8 dereferenceable(48) %context14, ptr %8)
  call void @llvm.lifetime.end.p0(i64 40, ptr %ref.tmp15) #3
  %9 = load ptr, ptr %begin.addr, align 8, !tbaa !27
  store ptr %9, ptr %retval, align 8
  store i32 1, ptr %cleanup.dest.slot, align 4
  call void @llvm.lifetime.end.p0(i64 40, ptr %handler) #3
  call void @llvm.lifetime.end.p0(i64 16, ptr %specs) #3
  br label %cleanup

cleanup:                                          ; preds = %if.end12, %if.then
  call void @llvm.lifetime.end.p0(i64 16, ptr %f) #3
  %10 = load ptr, ptr %retval, align 8
  ret ptr %10
}

; Function Attrs: nounwind willreturn memory(read)
declare noundef ptr @memchr(ptr noundef, i32 noundef, i64 noundef) #18

; Function Attrs: mustprogress uwtable
define linkonce_odr noundef i64 @_ZN3fmt2v68internal11to_unsignedIlEENSt13make_unsignedIT_E4typeES4_(i64 noundef %value) #4 comdat {
entry:
  %value.addr = alloca i64, align 8
  store i64 %value, ptr %value.addr, align 8, !tbaa !54
  %0 = load i64, ptr %value.addr, align 8, !tbaa !54
  %cmp = icmp sge i64 %0, 0
  br i1 %cmp, label %cond.true, label %cond.false

cond.true:                                        ; preds = %entry
  br label %cond.end

cond.false:                                       ; preds = %entry
  call void @_ZN3fmt2v68internal11assert_failEPKciS3_(ptr noundef @.str.7, i32 noundef 284, ptr noundef @.str.8)
  br label %cond.end

cond.end:                                         ; preds = %cond.false, %cond.true
  %1 = load i64, ptr %value.addr, align 8, !tbaa !54
  ret i64 %1
}

declare void @_ZN3fmt2v68internal11assert_failEPKciS3_(ptr noundef, i32 noundef, ptr noundef) #1

; Function Attrs: mustprogress uwtable
define linkonce_odr void @_ZN3fmt2v614format_handlerINS0_13arg_formatterINS0_12buffer_rangeIcEEEEcNS0_20basic_format_contextISt20back_insert_iteratorINS0_8internal6bufferIcEEEcEEE7get_argEi(ptr noundef nonnull align 16 dereferenceable(112) %this, i32 noundef %id) #4 comdat align 2 {
entry:
  %this.addr = alloca ptr, align 8
  %id.addr = alloca i32, align 4
  %ref.tmp = alloca %"class.fmt::v6::basic_format_arg", align 16
  store ptr %this, ptr %this.addr, align 8, !tbaa !236
  store i32 %id, ptr %id.addr, align 4, !tbaa !26
  %this1 = load ptr, ptr %this.addr, align 8
  call void @llvm.lifetime.start.p0(i64 32, ptr %ref.tmp) #3
  %context = getelementptr inbounds nuw %"struct.fmt::v6::format_handler", ptr %this1, i32 0, i32 2
  %0 = load i32, ptr %id.addr, align 4, !tbaa !26
  call void @_ZN3fmt2v68internal7get_argINS0_20basic_format_contextISt20back_insert_iteratorINS1_6bufferIcEEEcEEEENT_10format_argERS9_i(ptr dead_on_unwind writable sret(%"class.fmt::v6::basic_format_arg") align 16 %ref.tmp, ptr noundef nonnull align 8 dereferenceable(48) %context, i32 noundef %0)
  %arg = getelementptr inbounds nuw %"struct.fmt::v6::format_handler", ptr %this1, i32 0, i32 3
  call void @llvm.memcpy.p0.p0.i64(ptr align 16 %arg, ptr align 16 %ref.tmp, i64 20, i1 false), !tbaa.struct !274
  call void @llvm.lifetime.end.p0(i64 32, ptr %ref.tmp) #3
  ret void
}

; Function Attrs: mustprogress uwtable
define linkonce_odr noundef i32 @_ZN3fmt2v626basic_format_parse_contextIcNS0_8internal13error_handlerEE11next_arg_idEv(ptr noundef nonnull align 8 dereferenceable(20) %this) #4 comdat align 2 {
entry:
  %retval = alloca i32, align 4
  %this.addr = alloca ptr, align 8
  store ptr %this, ptr %this.addr, align 8, !tbaa !241
  %this1 = load ptr, ptr %this.addr, align 8
  %next_arg_id_ = getelementptr inbounds nuw %"class.fmt::v6::basic_format_parse_context", ptr %this1, i32 0, i32 1
  %0 = load i32, ptr %next_arg_id_, align 8, !tbaa !243
  %cmp = icmp sge i32 %0, 0
  br i1 %cmp, label %if.then, label %if.end

if.then:                                          ; preds = %entry
  %next_arg_id_2 = getelementptr inbounds nuw %"class.fmt::v6::basic_format_parse_context", ptr %this1, i32 0, i32 1
  %1 = load i32, ptr %next_arg_id_2, align 8, !tbaa !243
  %inc = add nsw i32 %1, 1
  store i32 %inc, ptr %next_arg_id_2, align 8, !tbaa !243
  store i32 %1, ptr %retval, align 4
  br label %return

if.end:                                           ; preds = %entry
  call void @_ZN3fmt2v626basic_format_parse_contextIcNS0_8internal13error_handlerEE8on_errorEPKc(ptr noundef nonnull align 8 dereferenceable(20) %this1, ptr noundef @.str.11)
  store i32 0, ptr %retval, align 4
  br label %return

return:                                           ; preds = %if.end, %if.then
  %2 = load i32, ptr %retval, align 4
  ret i32 %2
}

; Function Attrs: mustprogress uwtable
define linkonce_odr void @_ZN3fmt2v68internal7get_argINS0_20basic_format_contextISt20back_insert_iteratorINS1_6bufferIcEEEcEEEENT_10format_argERS9_i(ptr dead_on_unwind noalias writable sret(%"class.fmt::v6::basic_format_arg") align 16 %agg.result, ptr noundef nonnull align 8 dereferenceable(48) %ctx, i32 noundef %id) #4 comdat {
entry:
  %ctx.addr = alloca ptr, align 8
  %id.addr = alloca i32, align 4
  store ptr %ctx, ptr %ctx.addr, align 8, !tbaa !239
  store i32 %id, ptr %id.addr, align 4, !tbaa !26
  %0 = load ptr, ptr %ctx.addr, align 8, !tbaa !239
  %1 = load i32, ptr %id.addr, align 4, !tbaa !26
  call void @_ZNK3fmt2v620basic_format_contextISt20back_insert_iteratorINS0_8internal6bufferIcEEEcE3argEi(ptr dead_on_unwind writable sret(%"class.fmt::v6::basic_format_arg") align 16 %agg.result, ptr noundef nonnull align 8 dereferenceable(48) %0, i32 noundef %1)
  %call = call noundef zeroext i1 @_ZNK3fmt2v616basic_format_argINS0_20basic_format_contextISt20back_insert_iteratorINS0_8internal6bufferIcEEEcEEEcvbEv(ptr noundef nonnull align 16 dereferenceable(20) %agg.result) #3
  br i1 %call, label %if.end, label %if.then

if.then:                                          ; preds = %entry
  %2 = load ptr, ptr %ctx.addr, align 8, !tbaa !239
  call void @_ZN3fmt2v620basic_format_contextISt20back_insert_iteratorINS0_8internal6bufferIcEEEcE8on_errorEPKc(ptr noundef nonnull align 8 dereferenceable(48) %2, ptr noundef @.str.10)
  br label %if.end

if.end:                                           ; preds = %if.then, %entry
  ret void
}

; Function Attrs: mustprogress uwtable
define linkonce_odr void @_ZNK3fmt2v620basic_format_contextISt20back_insert_iteratorINS0_8internal6bufferIcEEEcE3argEi(ptr dead_on_unwind noalias writable sret(%"class.fmt::v6::basic_format_arg") align 16 %agg.result, ptr noundef nonnull align 8 dereferenceable(48) %this, i32 noundef %id) #4 comdat align 2 {
entry:
  %this.addr = alloca ptr, align 8
  %id.addr = alloca i32, align 4
  store ptr %this, ptr %this.addr, align 8, !tbaa !239
  store i32 %id, ptr %id.addr, align 4, !tbaa !26
  %this1 = load ptr, ptr %this.addr, align 8
  %args_ = getelementptr inbounds nuw %"class.fmt::v6::basic_format_context", ptr %this1, i32 0, i32 1
  %0 = load i32, ptr %id.addr, align 4, !tbaa !26
  call void @_ZNK3fmt2v617basic_format_argsINS0_20basic_format_contextISt20back_insert_iteratorINS0_8internal6bufferIcEEEcEEE3getEi(ptr dead_on_unwind writable sret(%"class.fmt::v6::basic_format_arg") align 16 %agg.result, ptr noundef nonnull align 8 dereferenceable(16) %args_, i32 noundef %0)
  ret void
}

; Function Attrs: mustprogress nounwind uwtable
define linkonce_odr noundef zeroext i1 @_ZNK3fmt2v616basic_format_argINS0_20basic_format_contextISt20back_insert_iteratorINS0_8internal6bufferIcEEEcEEEcvbEv(ptr noundef nonnull align 16 dereferenceable(20) %this) #7 comdat align 2 {
entry:
  %this.addr = alloca ptr, align 8
  store ptr %this, ptr %this.addr, align 8, !tbaa !248
  %this1 = load ptr, ptr %this.addr, align 8
  %type_ = getelementptr inbounds nuw %"class.fmt::v6::basic_format_arg", ptr %this1, i32 0, i32 1
  %0 = load i32, ptr %type_, align 16, !tbaa !250
  %cmp = icmp ne i32 %0, 0
  ret i1 %cmp
}

; Function Attrs: mustprogress uwtable
define linkonce_odr void @_ZN3fmt2v620basic_format_contextISt20back_insert_iteratorINS0_8internal6bufferIcEEEcE8on_errorEPKc(ptr noundef nonnull align 8 dereferenceable(48) %this, ptr noundef %message) #4 comdat align 2 {
entry:
  %this.addr = alloca ptr, align 8
  %message.addr = alloca ptr, align 8
  %ref.tmp = alloca %"struct.fmt::v6::internal::error_handler", align 1
  %undef.agg.tmp = alloca %"struct.fmt::v6::internal::error_handler", align 1
  store ptr %this, ptr %this.addr, align 8, !tbaa !239
  store ptr %message, ptr %message.addr, align 8, !tbaa !27
  %this1 = load ptr, ptr %this.addr, align 8
  call void @llvm.lifetime.start.p0(i64 1, ptr %ref.tmp) #3
  call void @_ZN3fmt2v620basic_format_contextISt20back_insert_iteratorINS0_8internal6bufferIcEEEcE13error_handlerEv(ptr noundef nonnull align 8 dereferenceable(48) %this1)
  %0 = load ptr, ptr %message.addr, align 8, !tbaa !27
  call void @_ZN3fmt2v68internal13error_handler8on_errorEPKc(ptr noundef nonnull align 1 dereferenceable(1) %ref.tmp, ptr noundef %0) #25
  unreachable
}

; Function Attrs: mustprogress uwtable
define linkonce_odr void @_ZNK3fmt2v617basic_format_argsINS0_20basic_format_contextISt20back_insert_iteratorINS0_8internal6bufferIcEEEcEEE3getEi(ptr dead_on_unwind noalias writable sret(%"class.fmt::v6::basic_format_arg") align 16 %agg.result, ptr noundef nonnull align 8 dereferenceable(16) %this, i32 noundef %index) #4 comdat align 2 {
entry:
  %this.addr = alloca ptr, align 8
  %index.addr = alloca i32, align 4
  %ref.tmp = alloca %"class.fmt::v6::basic_format_arg", align 16
  store ptr %this, ptr %this.addr, align 8, !tbaa !215
  store i32 %index, ptr %index.addr, align 4, !tbaa !26
  %this1 = load ptr, ptr %this.addr, align 8
  %0 = load i32, ptr %index.addr, align 4, !tbaa !26
  call void @_ZNK3fmt2v617basic_format_argsINS0_20basic_format_contextISt20back_insert_iteratorINS0_8internal6bufferIcEEEcEEE6do_getEi(ptr dead_on_unwind writable sret(%"class.fmt::v6::basic_format_arg") align 16 %agg.result, ptr noundef nonnull align 8 dereferenceable(16) %this1, i32 noundef %0)
  %type_ = getelementptr inbounds nuw %"class.fmt::v6::basic_format_arg", ptr %agg.result, i32 0, i32 1
  %1 = load i32, ptr %type_, align 16, !tbaa !250
  %cmp = icmp eq i32 %1, 1
  br i1 %cmp, label %if.then, label %if.end

if.then:                                          ; preds = %entry
  call void @llvm.lifetime.start.p0(i64 32, ptr %ref.tmp) #3
  %value_ = getelementptr inbounds nuw %"class.fmt::v6::basic_format_arg", ptr %agg.result, i32 0, i32 0
  %2 = getelementptr inbounds nuw %"class.fmt::v6::internal::value", ptr %value_, i32 0, i32 0
  %3 = load ptr, ptr %2, align 16, !tbaa !146
  call void @_ZNK3fmt2v68internal14named_arg_baseIcE11deserializeINS0_20basic_format_contextISt20back_insert_iteratorINS1_6bufferIcEEEcEEEENS0_16basic_format_argIT_EEv(ptr dead_on_unwind writable sret(%"class.fmt::v6::basic_format_arg") align 16 %ref.tmp, ptr noundef nonnull align 8 dereferenceable(48) %3)
  call void @llvm.memcpy.p0.p0.i64(ptr align 16 %agg.result, ptr align 16 %ref.tmp, i64 20, i1 false), !tbaa.struct !274
  call void @llvm.lifetime.end.p0(i64 32, ptr %ref.tmp) #3
  br label %if.end

if.end:                                           ; preds = %if.then, %entry
  ret void
}

; Function Attrs: mustprogress uwtable
define linkonce_odr void @_ZNK3fmt2v617basic_format_argsINS0_20basic_format_contextISt20back_insert_iteratorINS0_8internal6bufferIcEEEcEEE6do_getEi(ptr dead_on_unwind noalias writable sret(%"class.fmt::v6::basic_format_arg") align 16 %agg.result, ptr noundef nonnull align 8 dereferenceable(16) %this, i32 noundef %index) #4 comdat align 2 {
entry:
  %this.addr = alloca ptr, align 8
  %index.addr = alloca i32, align 4
  %num_args = alloca i32, align 4
  %val = alloca ptr, align 8
  store ptr %this, ptr %this.addr, align 8, !tbaa !215
  store i32 %index, ptr %index.addr, align 4, !tbaa !26
  %this1 = load ptr, ptr %this.addr, align 8
  call void @_ZN3fmt2v616basic_format_argINS0_20basic_format_contextISt20back_insert_iteratorINS0_8internal6bufferIcEEEcEEEC2Ev(ptr noundef nonnull align 16 dereferenceable(20) %agg.result)
  %call = call noundef zeroext i1 @_ZNK3fmt2v617basic_format_argsINS0_20basic_format_contextISt20back_insert_iteratorINS0_8internal6bufferIcEEEcEEE9is_packedEv(ptr noundef nonnull align 8 dereferenceable(16) %this1)
  br i1 %call, label %if.end4, label %if.then

if.then:                                          ; preds = %entry
  call void @llvm.lifetime.start.p0(i64 4, ptr %num_args) #3
  %call2 = call noundef i32 @_ZNK3fmt2v617basic_format_argsINS0_20basic_format_contextISt20back_insert_iteratorINS0_8internal6bufferIcEEEcEEE8max_sizeEv(ptr noundef nonnull align 8 dereferenceable(16) %this1)
  store i32 %call2, ptr %num_args, align 4, !tbaa !26
  %0 = load i32, ptr %index.addr, align 4, !tbaa !26
  %1 = load i32, ptr %num_args, align 4, !tbaa !26
  %cmp = icmp slt i32 %0, %1
  br i1 %cmp, label %if.then3, label %if.end

if.then3:                                         ; preds = %if.then
  %2 = getelementptr inbounds nuw %"class.fmt::v6::basic_format_args", ptr %this1, i32 0, i32 1
  %3 = load ptr, ptr %2, align 8, !tbaa !146
  %4 = load i32, ptr %index.addr, align 4, !tbaa !26
  %idxprom = sext i32 %4 to i64
  %arrayidx = getelementptr inbounds %"class.fmt::v6::basic_format_arg", ptr %3, i64 %idxprom
  call void @llvm.memcpy.p0.p0.i64(ptr align 16 %agg.result, ptr align 16 %arrayidx, i64 20, i1 false), !tbaa.struct !274
  br label %if.end

if.end:                                           ; preds = %if.then3, %if.then
  call void @llvm.lifetime.end.p0(i64 4, ptr %num_args) #3
  br label %return

if.end4:                                          ; preds = %entry
  %5 = load i32, ptr %index.addr, align 4, !tbaa !26
  %cmp5 = icmp sgt i32 %5, 12
  br i1 %cmp5, label %if.then6, label %if.end7

if.then6:                                         ; preds = %if.end4
  br label %return

if.end7:                                          ; preds = %if.end4
  %6 = load i32, ptr %index.addr, align 4, !tbaa !26
  %call8 = call noundef i32 @_ZNK3fmt2v617basic_format_argsINS0_20basic_format_contextISt20back_insert_iteratorINS0_8internal6bufferIcEEEcEEE4typeEi(ptr noundef nonnull align 8 dereferenceable(16) %this1, i32 noundef %6)
  %type_ = getelementptr inbounds nuw %"class.fmt::v6::basic_format_arg", ptr %agg.result, i32 0, i32 1
  store i32 %call8, ptr %type_, align 16, !tbaa !250
  %type_9 = getelementptr inbounds nuw %"class.fmt::v6::basic_format_arg", ptr %agg.result, i32 0, i32 1
  %7 = load i32, ptr %type_9, align 16, !tbaa !250
  %cmp10 = icmp eq i32 %7, 0
  br i1 %cmp10, label %if.then11, label %if.end12

if.then11:                                        ; preds = %if.end7
  br label %return

if.end12:                                         ; preds = %if.end7
  call void @llvm.lifetime.start.p0(i64 8, ptr %val) #3
  %value_ = getelementptr inbounds nuw %"class.fmt::v6::basic_format_arg", ptr %agg.result, i32 0, i32 0
  store ptr %value_, ptr %val, align 8, !tbaa !260
  %8 = getelementptr inbounds nuw %"class.fmt::v6::basic_format_args", ptr %this1, i32 0, i32 1
  %9 = load ptr, ptr %8, align 8, !tbaa !146
  %10 = load i32, ptr %index.addr, align 4, !tbaa !26
  %idxprom13 = sext i32 %10 to i64
  %arrayidx14 = getelementptr inbounds %"class.fmt::v6::internal::value", ptr %9, i64 %idxprom13
  %11 = load ptr, ptr %val, align 8, !tbaa !260
  call void @llvm.memcpy.p0.p0.i64(ptr align 16 %11, ptr align 16 %arrayidx14, i64 16, i1 false), !tbaa.struct !276
  call void @llvm.lifetime.end.p0(i64 8, ptr %val) #3
  br label %return

return:                                           ; preds = %if.end12, %if.then11, %if.then6, %if.end
  ret void
}

; Function Attrs: mustprogress uwtable
define linkonce_odr void @_ZNK3fmt2v68internal14named_arg_baseIcE11deserializeINS0_20basic_format_contextISt20back_insert_iteratorINS1_6bufferIcEEEcEEEENS0_16basic_format_argIT_EEv(ptr dead_on_unwind noalias writable sret(%"class.fmt::v6::basic_format_arg") align 16 %agg.result, ptr noundef nonnull align 8 dereferenceable(48) %this) #4 comdat align 2 {
entry:
  %this.addr = alloca ptr, align 8
  store ptr %this, ptr %this.addr, align 8, !tbaa !277
  %this1 = load ptr, ptr %this.addr, align 8
  call void @_ZN3fmt2v616basic_format_argINS0_20basic_format_contextISt20back_insert_iteratorINS0_8internal6bufferIcEEEcEEEC2Ev(ptr noundef nonnull align 16 dereferenceable(20) %agg.result)
  %data = getelementptr inbounds nuw %"struct.fmt::v6::internal::named_arg_base", ptr %this1, i32 0, i32 1
  %arraydecay = getelementptr inbounds [32 x i8], ptr %data, i64 0, i64 0
  call void @llvm.memcpy.p0.p0.i64(ptr align 16 %agg.result, ptr align 8 %arraydecay, i64 32, i1 false)
  ret void
}

; Function Attrs: mustprogress nounwind uwtable
define linkonce_odr noundef zeroext i1 @_ZNK3fmt2v617basic_format_argsINS0_20basic_format_contextISt20back_insert_iteratorINS0_8internal6bufferIcEEEcEEE9is_packedEv(ptr noundef nonnull align 8 dereferenceable(16) %this) #7 comdat align 2 {
entry:
  %this.addr = alloca ptr, align 8
  store ptr %this, ptr %this.addr, align 8, !tbaa !215
  %this1 = load ptr, ptr %this.addr, align 8
  %types_ = getelementptr inbounds nuw %"class.fmt::v6::basic_format_args", ptr %this1, i32 0, i32 0
  %0 = load i64, ptr %types_, align 8, !tbaa !219
  %and = and i64 %0, -9223372036854775808
  %cmp = icmp eq i64 %and, 0
  ret i1 %cmp
}

; Function Attrs: mustprogress nounwind uwtable
define linkonce_odr noundef i32 @_ZNK3fmt2v617basic_format_argsINS0_20basic_format_contextISt20back_insert_iteratorINS0_8internal6bufferIcEEEcEEE8max_sizeEv(ptr noundef nonnull align 8 dereferenceable(16) %this) #7 comdat align 2 {
entry:
  %this.addr = alloca ptr, align 8
  %max_packed = alloca i64, align 8
  store ptr %this, ptr %this.addr, align 8, !tbaa !215
  %this1 = load ptr, ptr %this.addr, align 8
  call void @llvm.lifetime.start.p0(i64 8, ptr %max_packed) #3
  store i64 12, ptr %max_packed, align 8, !tbaa !213
  %call = call noundef zeroext i1 @_ZNK3fmt2v617basic_format_argsINS0_20basic_format_contextISt20back_insert_iteratorINS0_8internal6bufferIcEEEcEEE9is_packedEv(ptr noundef nonnull align 8 dereferenceable(16) %this1)
  br i1 %call, label %cond.true, label %cond.false

cond.true:                                        ; preds = %entry
  %0 = load i64, ptr %max_packed, align 8, !tbaa !213
  br label %cond.end

cond.false:                                       ; preds = %entry
  %types_ = getelementptr inbounds nuw %"class.fmt::v6::basic_format_args", ptr %this1, i32 0, i32 0
  %1 = load i64, ptr %types_, align 8, !tbaa !219
  %and = and i64 %1, 9223372036854775807
  br label %cond.end

cond.end:                                         ; preds = %cond.false, %cond.true
  %cond = phi i64 [ %0, %cond.true ], [ %and, %cond.false ]
  %conv = trunc i64 %cond to i32
  call void @llvm.lifetime.end.p0(i64 8, ptr %max_packed) #3
  ret i32 %conv
}

; Function Attrs: mustprogress nounwind uwtable
define linkonce_odr noundef i32 @_ZNK3fmt2v617basic_format_argsINS0_20basic_format_contextISt20back_insert_iteratorINS0_8internal6bufferIcEEEcEEE4typeEi(ptr noundef nonnull align 8 dereferenceable(16) %this, i32 noundef %index) #7 comdat align 2 {
entry:
  %this.addr = alloca ptr, align 8
  %index.addr = alloca i32, align 4
  %shift = alloca i32, align 4
  %mask = alloca i32, align 4
  store ptr %this, ptr %this.addr, align 8, !tbaa !215
  store i32 %index, ptr %index.addr, align 4, !tbaa !26
  %this1 = load ptr, ptr %this.addr, align 8
  call void @llvm.lifetime.start.p0(i64 4, ptr %shift) #3
  %0 = load i32, ptr %index.addr, align 4, !tbaa !26
  %mul = mul nsw i32 %0, 5
  store i32 %mul, ptr %shift, align 4, !tbaa !26
  call void @llvm.lifetime.start.p0(i64 4, ptr %mask) #3
  store i32 31, ptr %mask, align 4, !tbaa !26
  %types_ = getelementptr inbounds nuw %"class.fmt::v6::basic_format_args", ptr %this1, i32 0, i32 0
  %1 = load i64, ptr %types_, align 8, !tbaa !219
  %2 = load i32, ptr %shift, align 4, !tbaa !26
  %sh_prom = zext i32 %2 to i64
  %shr = lshr i64 %1, %sh_prom
  %3 = load i32, ptr %mask, align 4, !tbaa !26
  %conv = zext i32 %3 to i64
  %and = and i64 %shr, %conv
  %conv2 = trunc i64 %and to i32
  call void @llvm.lifetime.end.p0(i64 4, ptr %mask) #3
  call void @llvm.lifetime.end.p0(i64 4, ptr %shift) #3
  ret i32 %conv2
}

; Function Attrs: mustprogress nounwind uwtable
