; ModuleID = 'scattdata-host-x86_64-unknown-linux-gnu.bc'
source_filename = "/g/g0/wright117/workspace/openmc/openmc-omp/openmc/src/scattdata.cpp"
target datalayout = "e-m:e-p270:32:32-p271:32:32-p272:64:64-i64:64-i128:128-f80:128-n8:16:32:64-S128"
target triple = "x86_64-unknown-linux-gnu"

%"class.std::ios_base::Init" = type { i8 }
%"struct.std::array.1" = type { [6 x i32] }
%"struct.std::array.148" = type { i8 }
%"class.openmc::ScattDataLegendre" = type { %"class.openmc::ScattData", %"class.std::vector" }
%"class.openmc::ScattData" = type { ptr, %"class.std::vector", %"class.std::vector", %"class.std::vector.21", %"class.xt::xtensor_container.2", %"class.xt::xtensor_container.2", %"class.xt::xtensor_container.26" }
%"class.std::vector.21" = type { %"struct.std::_Vector_base.22" }
%"struct.std::_Vector_base.22" = type { %"struct.std::_Vector_base<std::vector<std::vector<double>>, std::allocator<std::vector<std::vector<double>>>>::_Vector_impl" }
%"struct.std::_Vector_base<std::vector<std::vector<double>>, std::allocator<std::vector<std::vector<double>>>>::_Vector_impl" = type { %"struct.std::_Vector_base<std::vector<std::vector<double>>, std::allocator<std::vector<std::vector<double>>>>::_Vector_impl_data" }
%"struct.std::_Vector_base<std::vector<std::vector<double>>, std::allocator<std::vector<std::vector<double>>>>::_Vector_impl_data" = type { ptr, ptr, ptr }
%"class.xt::xtensor_container.2" = type { %"class.xt::xstrided_container.base.12", %"class.xt::xcontainer_semantic.13", %"class.xt::uvector.20" }
%"class.xt::xstrided_container.base.12" = type <{ %"struct.std::array.10", %"struct.std::array.11", %"struct.std::array.11", i32 }>
%"struct.std::array.10" = type { [1 x i64] }
%"struct.std::array.11" = type { [1 x i64] }
%"class.xt::xcontainer_semantic.13" = type { %"class.xt::xsemantic_base.14" }
%"class.xt::xsemantic_base.14" = type { %"class.xt::xsharable_expression.15" }
%"class.xt::xsharable_expression.15" = type { %"class.std::shared_ptr.17" }
%"class.std::shared_ptr.17" = type { %"class.std::__shared_ptr.18" }
%"class.std::__shared_ptr.18" = type { ptr, %"class.std::__shared_count" }
%"class.std::__shared_count" = type { ptr }
%"class.xt::uvector.20" = type { [8 x i8], ptr, ptr }
%"class.xt::xtensor_container.26" = type { %"class.xt::xstrided_container.base.34", %"class.xt::xcontainer_semantic.35", %"class.xt::uvector" }
%"class.xt::xstrided_container.base.34" = type <{ %"struct.std::array.10", %"struct.std::array.11", %"struct.std::array.11", i32 }>
%"class.xt::xcontainer_semantic.35" = type { %"class.xt::xsemantic_base.36" }
%"class.xt::xsemantic_base.36" = type { %"class.xt::xsharable_expression.37" }
%"class.xt::xsharable_expression.37" = type { %"class.std::shared_ptr.39" }
%"class.std::shared_ptr.39" = type { %"class.std::__shared_ptr.40" }
%"class.std::__shared_ptr.40" = type { ptr, %"class.std::__shared_count" }
%"class.xt::uvector" = type { [8 x i8], ptr, ptr }
%"class.std::vector" = type { %"struct.std::_Vector_base" }
%"struct.std::_Vector_base" = type { %"struct.std::_Vector_base<std::vector<double>, std::allocator<std::vector<double>>>::_Vector_impl" }
%"struct.std::_Vector_base<std::vector<double>, std::allocator<std::vector<double>>>::_Vector_impl" = type { %"struct.std::_Vector_base<std::vector<double>, std::allocator<std::vector<double>>>::_Vector_impl_data" }
%"struct.std::_Vector_base<std::vector<double>, std::allocator<std::vector<double>>>::_Vector_impl_data" = type { ptr, ptr, ptr }
%"class.xt::xbroadcast" = type { %"class.xt::xsharable_expression.268", %"class.xt::xscalar.275", %"struct.std::array.10" }
%"class.xt::xsharable_expression.268" = type { %"class.std::shared_ptr.270" }
%"class.std::shared_ptr.270" = type { %"class.std::__shared_ptr.271" }
%"class.std::__shared_ptr.271" = type { ptr, %"class.std::__shared_count" }
%"class.xt::xscalar.275" = type { %"class.xt::xsharable_expression.276", double }
%"class.xt::xsharable_expression.276" = type { %"class.std::shared_ptr.278" }
%"class.std::shared_ptr.278" = type { %"class.std::__shared_ptr.279" }
%"class.std::__shared_ptr.279" = type { ptr, %"class.std::__shared_count" }
%"class.__gnu_cxx::__normal_iterator" = type { ptr }
%"class.std::allocator.23" = type { i8 }
%"class.std::allocator" = type { i8 }
%"class.xt::xtensor_container" = type { %"class.xt::xstrided_container.base", %"class.xt::xcontainer_semantic", %"class.xt::uvector" }
%"class.xt::xstrided_container.base" = type <{ %"struct.std::array", %"struct.std::array.0", %"struct.std::array.0", i32 }>
%"struct.std::array" = type { [3 x i64] }
%"struct.std::array.0" = type { [3 x i64] }
%"class.xt::xcontainer_semantic" = type { %"class.xt::xsemantic_base" }
%"class.xt::xsemantic_base" = type { %"class.xt::xsharable_expression" }
%"class.xt::xsharable_expression" = type { %"class.std::shared_ptr" }
%"class.std::shared_ptr" = type { %"class.std::__shared_ptr" }
%"class.std::__shared_ptr" = type { ptr, %"class.std::__shared_count" }
%"class.openmc::ScattDataHistogram" = type { %"class.openmc::ScattData", %"class.xt::xtensor_container.26", double, %"class.std::vector.21" }
%"class.xt::xgenerator" = type { %"class.xt::xsharable_expression.293", %"class.xt::detail::arange_generator", %"struct.std::array.10" }
%"class.xt::xsharable_expression.293" = type { %"class.std::shared_ptr.295" }
%"class.std::shared_ptr.295" = type { %"class.std::__shared_ptr.296" }
%"class.std::__shared_ptr.296" = type { ptr, %"class.std::__shared_count" }
%"class.xt::detail::arange_generator" = type { double, double, double }
%"class.openmc::ScattDataTabular" = type { %"class.openmc::ScattData", %"class.xt::xtensor_container.26", double, %"class.std::vector.21" }
%"class.std::__cxx11::basic_string" = type { %"struct.std::__cxx11::basic_string<char>::_Alloc_hider", i64, %union.anon }
%"struct.std::__cxx11::basic_string<char>::_Alloc_hider" = type { ptr }
%union.anon = type { i64, [8 x i8] }
%"class.__gnu_cxx::__normal_iterator.50" = type { ptr }
%"class.std::vector.42" = type { %"struct.std::_Vector_base.43" }
%"struct.std::_Vector_base.43" = type { %"struct.std::_Vector_base<double, std::allocator<double>>::_Vector_impl" }
%"struct.std::_Vector_base<double, std::allocator<double>>::_Vector_impl" = type { %"struct.std::_Vector_base<double, std::allocator<double>>::_Vector_impl_data" }
%"struct.std::_Vector_base<double, std::allocator<double>>::_Vector_impl_data" = type { ptr, ptr, ptr }
%"class.__gnu_cxx::__normal_iterator.54" = type { ptr }
%"class.std::allocator.47" = type { i8 }
%"class.std::allocator.51" = type { i8 }
%"class.std::_Sp_counted_base" = type { ptr, i32, i32 }
%"class.xt::xstrided_container.3" = type <{ %"struct.std::array.10", %"struct.std::array.11", %"struct.std::array.11", i32, [4 x i8] }>
%"struct.std::random_access_iterator_tag" = type { i8 }
%"class.xt::xtensor_container.60" = type { %"class.xt::xstrided_container.base.70", %"class.xt::xcontainer_semantic.71", %"class.xt::uvector" }
%"class.xt::xstrided_container.base.70" = type <{ %"struct.std::array.68", %"struct.std::array.69", %"struct.std::array.69", i32 }>
%"struct.std::array.68" = type { [2 x i64] }
%"struct.std::array.69" = type { [2 x i64] }
%"class.xt::xcontainer_semantic.71" = type { %"class.xt::xsemantic_base.72" }
%"class.xt::xsemantic_base.72" = type { %"class.xt::xsharable_expression.73" }
%"class.xt::xsharable_expression.73" = type { %"class.std::shared_ptr.75" }
%"class.std::shared_ptr.75" = type { %"class.std::__shared_ptr.76" }
%"class.std::__shared_ptr.76" = type { ptr, %"class.std::__shared_count" }
%"class.xt::xfunction" = type { %"class.xt::xsharable_expression.79", %"class.std::tuple", [8 x i8], %"struct.xt::xfunction_cache" }
%"class.xt::xsharable_expression.79" = type { %"class.std::shared_ptr.81" }
%"class.std::shared_ptr.81" = type { %"class.std::__shared_ptr.82" }
%"class.std::__shared_ptr.82" = type { ptr, %"class.std::__shared_count" }
%"class.std::tuple" = type { %"struct.std::_Tuple_impl" }
%"struct.std::_Tuple_impl" = type { %"struct.std::_Tuple_impl.85", %"struct.std::_Head_base.86" }
%"struct.std::_Tuple_impl.85" = type { %"struct.std::_Head_base" }
%"struct.std::_Head_base" = type { ptr }
%"struct.std::_Head_base.86" = type { %"class.xt::xscalar" }
%"class.xt::xscalar" = type { %"class.xt::xsharable_expression.87", ptr }
%"class.xt::xsharable_expression.87" = type { %"class.std::shared_ptr.89" }
%"class.std::shared_ptr.89" = type { %"class.std::__shared_ptr.90" }
%"class.std::__shared_ptr.90" = type { ptr, %"class.std::__shared_count" }
%"struct.xt::xfunction_cache" = type { %"struct.xt::detail::xfunction_cache_impl.base", [6 x i8] }
%"struct.xt::detail::xfunction_cache_impl.base" = type <{ %"struct.std::array", i8, i8 }>
%"class.xt::xfunction.96" = type { %"class.xt::xsharable_expression.98", %"class.std::tuple.104", [8 x i8], %"struct.xt::xfunction_cache.124" }
%"class.xt::xsharable_expression.98" = type { %"class.std::shared_ptr.100" }
%"class.std::shared_ptr.100" = type { %"class.std::__shared_ptr.101" }
%"class.std::__shared_ptr.101" = type { ptr, %"class.std::__shared_count" }
%"class.std::tuple.104" = type { %"struct.std::_Tuple_impl.105" }
%"struct.std::_Tuple_impl.105" = type { %"struct.std::_Head_base.106" }
%"struct.std::_Head_base.106" = type { %"class.xt::xfunction.107" }
%"class.xt::xfunction.107" = type { %"class.xt::xsharable_expression.109", %"class.std::tuple.115", [8 x i8], %"struct.xt::xfunction_cache.120" }
%"class.xt::xsharable_expression.109" = type { %"class.std::shared_ptr.111" }
%"class.std::shared_ptr.111" = type { %"class.std::__shared_ptr.112" }
%"class.std::__shared_ptr.112" = type { ptr, %"class.std::__shared_count" }
%"class.std::tuple.115" = type { %"struct.std::_Tuple_impl.116" }
%"struct.std::_Tuple_impl.116" = type { %"struct.std::_Tuple_impl.117", %"struct.std::_Head_base.119" }
%"struct.std::_Tuple_impl.117" = type { %"struct.std::_Head_base.118" }
%"struct.std::_Head_base.118" = type { ptr }
%"struct.std::_Head_base.119" = type { ptr }
%"struct.xt::xfunction_cache.120" = type { %"struct.xt::detail::xfunction_cache_impl.base.122", [6 x i8] }
%"struct.xt::detail::xfunction_cache_impl.base.122" = type <{ %"struct.std::array.68", i8, i8 }>
%"struct.xt::xfunction_cache.124" = type { %"struct.xt::detail::xfunction_cache_impl.base.126", [6 x i8] }
%"struct.xt::detail::xfunction_cache_impl.base.126" = type <{ %"struct.std::array.68", i8, i8 }>
%"struct.std::_Vector_base.56" = type { %"struct.std::_Vector_base<openmc::ScattData *, std::allocator<openmc::ScattData *>>::_Vector_impl" }
%"struct.std::_Vector_base<openmc::ScattData *, std::allocator<openmc::ScattData *>>::_Vector_impl" = type { %"struct.std::_Vector_base<openmc::ScattData *, std::allocator<openmc::ScattData *>>::_Vector_impl_data" }
%"struct.std::_Vector_base<openmc::ScattData *, std::allocator<openmc::ScattData *>>::_Vector_impl_data" = type { ptr, ptr, ptr }
%"class.xt::xfunction.129" = type { %"class.xt::xsharable_expression.131", %"class.std::tuple.137", [8 x i8], %"struct.xt::xfunction_cache.142" }
%"class.xt::xsharable_expression.131" = type { %"class.std::shared_ptr.133" }
%"class.std::shared_ptr.133" = type { %"class.std::__shared_ptr.134" }
%"class.std::__shared_ptr.134" = type { ptr, %"class.std::__shared_count" }
%"class.std::tuple.137" = type { %"struct.std::_Tuple_impl.138" }
%"struct.std::_Tuple_impl.138" = type { %"struct.std::_Tuple_impl.139", %"struct.std::_Head_base.141" }
%"struct.std::_Tuple_impl.139" = type { %"struct.std::_Head_base.140" }
%"struct.std::_Head_base.140" = type { ptr }
%"struct.std::_Head_base.141" = type { ptr }
%"struct.xt::xfunction_cache.142" = type { %"struct.xt::detail::xfunction_cache_impl.base.144", [6 x i8] }
%"struct.xt::detail::xfunction_cache_impl.base.144" = type <{ %"struct.std::array", i8, i8 }>
%"class.xt::xstrided_container" = type <{ %"struct.std::array", %"struct.std::array.0", %"struct.std::array.0", i32, [4 x i8] }>
%"class.std::allocator.44" = type { i8 }
%"class.xt::xstrided_container.61" = type <{ %"struct.std::array.68", %"struct.std::array.69", %"struct.std::array.69", i32, [4 x i8] }>
%"struct.xt::detail::multiplies" = type { i8 }
%"struct.xt::detail::xfunction_cache_impl" = type <{ %"struct.std::array", i8, i8, [6 x i8] }>
%"struct.xt::detail::plus" = type { i8 }
%"struct.xt::detail::xfunction_cache_impl.143" = type <{ %"struct.std::array", i8, i8, [6 x i8] }>
%class.anon = type { i8 }
%class.anon.146 = type { i8 }
%class.anon.149 = type { ptr, ptr }
%class.anon.150 = type { ptr, ptr }
%"struct.std::integral_constant" = type { i8 }
%"struct.xtl::identity" = type { i8 }
%class.anon.151 = type { ptr }
%class.anon.152 = type { ptr, ptr }
%"class.xt::stepper_assigner" = type { ptr, %"class.xt::xstepper", %"class.xt::xfunction_stepper", %"struct.std::array" }
%"class.xt::xstepper" = type { ptr, ptr, i64 }
%"class.xt::xfunction_stepper" = type { ptr, %"class.std::tuple.157" }
%"class.std::tuple.157" = type { %"struct.std::_Tuple_impl.158" }
%"struct.std::_Tuple_impl.158" = type { %"struct.std::_Tuple_impl.159", %"struct.std::_Head_base.168" }
%"struct.std::_Tuple_impl.159" = type { %"struct.std::_Head_base.160" }
%"struct.std::_Head_base.160" = type { %"class.xt::xfunction_stepper.161" }
%"class.xt::xfunction_stepper.161" = type { ptr, %"class.std::tuple.162" }
%"class.std::tuple.162" = type { %"struct.std::_Tuple_impl.163" }
%"struct.std::_Tuple_impl.163" = type { %"struct.std::_Tuple_impl.164", %"struct.std::_Head_base.167" }
%"struct.std::_Tuple_impl.164" = type { %"struct.std::_Head_base.165" }
%"struct.std::_Head_base.165" = type { %"class.xt::xstepper.166" }
%"class.xt::xstepper.166" = type { ptr, ptr, i64 }
%"struct.std::_Head_base.167" = type { %"class.xt::xscalar_stepper" }
%"class.xt::xscalar_stepper" = type { ptr }
%"struct.std::_Head_base.168" = type { %"class.xt::xstepper.166" }
%class.anon.153 = type { ptr }
%"class.std::__cxx11::basic_ostringstream" = type { %"class.std::basic_ostream.base", %"class.std::__cxx11::basic_stringbuf", %"class.std::basic_ios" }
%"class.std::basic_ostream.base" = type { ptr }
%"class.std::__cxx11::basic_stringbuf" = type { %"class.std::basic_streambuf", i32, %"class.std::__cxx11::basic_string" }
%"class.std::basic_streambuf" = type { ptr, ptr, ptr, ptr, ptr, ptr, ptr, %"class.std::locale" }
%"class.std::locale" = type { ptr }
%"class.std::basic_ios" = type { %"class.std::ios_base", ptr, i8, i8, ptr, ptr, ptr, ptr }
%"class.std::ios_base" = type { ptr, i64, i64, i32, i32, i32, ptr, %"struct.std::ios_base::_Words", [8 x %"struct.std::ios_base::_Words"], i32, ptr, %"class.std::locale" }
%"struct.std::ios_base::_Words" = type { ptr, i64 }
%"class.std::ostream_iterator" = type { ptr, ptr }
%"struct.std::forward_iterator_tag" = type { i8 }
%struct._Guard = type { ptr }
%"class.__gnu_cxx::__normal_iterator.154" = type { ptr }
%"class.__gnu_cxx::__normal_iterator.155" = type { ptr }
%class.anon.156 = type { ptr }
%"struct.std::integral_constant.169" = type { i8 }
%"struct.std::is_convertible" = type { i8 }
%"class.xt::xfunction_iterator" = type { ptr, %"class.std::tuple.170" }
%"class.std::tuple.170" = type { %"struct.std::_Tuple_impl.171" }
%"struct.std::_Tuple_impl.171" = type { %"struct.std::_Tuple_impl.172", %"struct.std::_Head_base.184" }
%"struct.std::_Tuple_impl.172" = type { %"struct.std::_Head_base.173" }
%"struct.std::_Head_base.173" = type { %"class.xt::xfunction_iterator.174" }
%"class.xt::xfunction_iterator.174" = type { ptr, %"class.std::tuple.177" }
%"class.std::tuple.177" = type { %"struct.std::_Tuple_impl.178" }
%"struct.std::_Tuple_impl.178" = type { %"struct.std::_Tuple_impl.179", %"struct.std::_Head_base.181" }
%"struct.std::_Tuple_impl.179" = type { %"struct.std::_Head_base.180" }
%"struct.std::_Head_base.180" = type { ptr }
%"struct.std::_Head_base.181" = type { %"class.xt::xdummy_iterator" }
%"class.xt::xdummy_iterator" = type { ptr }
%"struct.std::_Head_base.184" = type { ptr }
%class.anon.185 = type { ptr }
%class.anon.186 = type { ptr }
%class.anon.195 = type { ptr }
%class.anon.196 = type { ptr }
%"struct.std::integer_sequence" = type { i8 }
%class.anon.197 = type { i8 }
%class.anon.187 = type { i8 }
%class.anon.189 = type { ptr }
%class.anon.190 = type { ptr }
%class.anon.191 = type { ptr }
%class.anon.192 = type { ptr }
%class.anon.193 = type { i8 }
%class.anon.199 = type { i8 }
%class.anon.201 = type { ptr }
%class.anon.202 = type { ptr }
%"struct.xt::conditional_cast_functor" = type { i8 }
%class.anon.203 = type { i64 }
%class.anon.204 = type { i64 }
%class.anon.205 = type { i64 }
%class.anon.206 = type { i64 }
%class.anon.207 = type { i32 }
%class.anon.208 = type { i32 }
%"struct.xt::detail::nan_to_num_functor" = type { i8 }
%"struct.xt::detail::xfunction_cache_impl.125" = type <{ %"struct.std::array.68", i8, i8, [6 x i8] }>
%"struct.xt::detail::divides" = type { i8 }
%"struct.xt::detail::xfunction_cache_impl.121" = type <{ %"struct.std::array.68", i8, i8, [6 x i8] }>
%class.anon.209 = type { i8 }
%class.anon.211 = type { i8 }
%class.anon.213 = type { ptr, ptr }
%class.anon.214 = type { ptr, ptr }
%class.anon.215 = type { ptr }
%class.anon.216 = type { ptr, ptr }
%"class.xt::stepper_assigner.219" = type { ptr, %"class.xt::xstepper.220", %"class.xt::xfunction_stepper.221", %"struct.std::array.68" }
%"class.xt::xstepper.220" = type { ptr, ptr, i64 }
%"class.xt::xfunction_stepper.221" = type { ptr, %"class.std::tuple.222" }
%"class.std::tuple.222" = type { %"struct.std::_Tuple_impl.223" }
%"struct.std::_Tuple_impl.223" = type { %"struct.std::_Head_base.224" }
%"struct.std::_Head_base.224" = type { %"class.xt::xfunction_stepper.225" }
%"class.xt::xfunction_stepper.225" = type { ptr, %"class.std::tuple.226" }
%"class.std::tuple.226" = type { %"struct.std::_Tuple_impl.227" }
%"struct.std::_Tuple_impl.227" = type { %"struct.std::_Tuple_impl.228", %"struct.std::_Head_base.231" }
%"struct.std::_Tuple_impl.228" = type { %"struct.std::_Head_base.229" }
%"struct.std::_Head_base.229" = type { %"class.xt::xstepper.230" }
%"class.xt::xstepper.230" = type { ptr, ptr, i64 }
%"struct.std::_Head_base.231" = type { %"class.xt::xstepper.230" }
%class.anon.217 = type { ptr }
%class.anon.218 = type { ptr }
%"class.xt::xfunction_iterator.232" = type { ptr, %"class.std::tuple.235" }
%"class.std::tuple.235" = type { %"struct.std::_Tuple_impl.236" }
%"struct.std::_Tuple_impl.236" = type { %"struct.std::_Head_base.237" }
%"struct.std::_Head_base.237" = type { %"class.xt::xfunction_iterator.238" }
%"class.xt::xfunction_iterator.238" = type { ptr, %"class.std::tuple.241" }
%"class.std::tuple.241" = type { %"struct.std::_Tuple_impl.242" }
%"struct.std::_Tuple_impl.242" = type { %"struct.std::_Tuple_impl.179", %"struct.std::_Head_base.184" }
%class.anon.243 = type { ptr }
%class.anon.244 = type { ptr }
%class.anon.254 = type { ptr }
%class.anon.255 = type { ptr }
%"struct.std::integer_sequence.247" = type { i8 }
%class.anon.256 = type { i8 }
%class.anon.245 = type { i8 }
%class.anon.248 = type { ptr }
%class.anon.249 = type { ptr }
%class.anon.250 = type { i8 }
%class.anon.252 = type { ptr }
%class.anon.253 = type { ptr }
%class.anon.258 = type { i8 }
%class.anon.260 = type { ptr }
%class.anon.261 = type { ptr }
%class.anon.262 = type { i64 }
%class.anon.263 = type { i64 }
%class.anon.264 = type { i64 }
%class.anon.265 = type { i64 }
%class.anon.266 = type { i32 }
%class.anon.267 = type { i32 }
%"class.xt::xstrided_container.27" = type <{ %"struct.std::array.10", %"struct.std::array.11", %"struct.std::array.11", i32, [4 x i8] }>
%"class.__gnu_cxx::__normal_iterator.285" = type { ptr }
%"class.__gnu_cxx::__normal_iterator.286" = type { ptr }
%class.anon.287 = type { ptr, ptr }
%class.anon.288 = type { ptr, ptr }
%class.anon.289 = type { ptr }
%class.anon.290 = type { ptr }
%class.anon.291 = type { ptr }
%class.anon.292 = type { ptr }
%class.anon.300 = type { ptr, ptr }
%class.anon.301 = type { ptr, ptr }
%"struct.__gnu_cxx::__ops::_Val_less_iter" = type { i8 }

$_ZN6openmc17ScattDataLegendreD2Ev = comdat any

$_ZN6openmc17ScattDataLegendreD0Ev = comdat any

$_ZN6openmc17ScattDataLegendre9get_orderEv = comdat any

$_ZN6openmc18ScattDataHistogramD2Ev = comdat any

$_ZN6openmc18ScattDataHistogramD0Ev = comdat any

$_ZN6openmc18ScattDataHistogram9get_orderEv = comdat any

$_ZN6openmc16ScattDataTabularD2Ev = comdat any

$_ZN6openmc16ScattDataTabularD0Ev = comdat any

$_ZN6openmc16ScattDataTabular9get_orderEv = comdat any

$_ZNKSt6vectorIS_IdSaIdEESaIS1_EE4sizeEv = comdat any

$_ZN2xt17xtensor_containerINS_7uvectorIiSaIiEEELm1ELNS_11layout_typeE1ENS_22xtensor_expression_tagEEaSERKS6_ = comdat any

$_ZNSt6vectorIS_IdSaIdEESaIS1_EE6resizeEm = comdat any

$_ZNSt6vectorIS_IS_IdSaIdEESaIS1_EESaIS3_EE6resizeEm = comdat any

$_ZNKSt6vectorIS_IdSaIdEESaIS1_EEixEm = comdat any

$_ZNSt6vectorIS_IdSaIdEESaIS1_EEixEm = comdat any

$_ZNSt6vectorIdSaIdEEaSERKS1_ = comdat any

$_ZNKSt6vectorIdSaIdEE4sizeEv = comdat any

$_ZNSt6vectorIdSaIdEEixEm = comdat any

$_ZStplIcSt11char_traitsIcESaIcEENSt7__cxx1112basic_stringIT_T0_T1_EEOS8_PKS5_ = comdat any

$_ZNSt7__cxx119to_stringEm = comdat any

$_ZSt10accumulateIN9__gnu_cxx17__normal_iteratorIPdSt6vectorIdSaIdEEEEdET0_T_S8_S7_ = comdat any

$_ZNSt6vectorIdSaIdEE5beginEv = comdat any

$_ZNSt6vectorIdSaIdEE3endEv = comdat any

$_ZN9__gnu_cxxneIPdSt6vectorIdSaIdEEEEbRKNS_17__normal_iteratorIT_T0_EESA_ = comdat any

$_ZNK9__gnu_cxx17__normal_iteratorIPdSt6vectorIdSaIdEEEdeEv = comdat any

$_ZN9__gnu_cxx17__normal_iteratorIPdSt6vectorIdSaIdEEEppEv = comdat any

$_ZNSt6vectorIS_IS_IdSaIdEESaIS1_EESaIS3_EEixEm = comdat any

$_ZNK2xt17xconst_accessibleINS_17xtensor_containerINS_7uvectorIiSaIiEEELm1ELNS_11layout_typeE1ENS_22xtensor_expression_tagEEEEixEm = comdat any

$_ZNSt6vectorIS_IdSaIdEESaIS1_EE5beginEv = comdat any

$_ZNSt6vectorIS_IdSaIdEESaIS1_EE3endEv = comdat any

$_ZN9__gnu_cxxneIPSt6vectorIdSaIdEES1_IS3_SaIS3_EEEEbRKNS_17__normal_iteratorIT_T0_EESC_ = comdat any

$_ZNK9__gnu_cxx17__normal_iteratorIPSt6vectorIdSaIdEES1_IS3_SaIS3_EEEdeEv = comdat any

$_ZNSt6vectorIdSaIdEE6resizeEm = comdat any

$_ZN9__gnu_cxx17__normal_iteratorIPSt6vectorIdSaIdEES1_IS3_SaIS3_EEEppEv = comdat any

$_ZN2xt19xcontainer_semanticINS_17xtensor_containerINS_7uvectorIiSaIiEEELm1ELNS_11layout_typeE1ENS_22xtensor_expression_tagEEEEaSERKS8_ = comdat any

$_ZN2xt7uvectorIiSaIiEEaSERKS2_ = comdat any

$_ZN2xt14xsemantic_baseINS_17xtensor_containerINS_7uvectorIiSaIiEEELm1ELNS_11layout_typeE1ENS_22xtensor_expression_tagEEEEaSERKS8_ = comdat any

$_ZN2xt20xsharable_expressionINS_17xtensor_containerINS_7uvectorIiSaIiEEELm1ELNS_11layout_typeE1ENS_22xtensor_expression_tagEEEEaSERKS8_ = comdat any

$_ZNSt10shared_ptrIN2xt17xtensor_containerINS0_7uvectorIiSaIiEEELm1ELNS0_11layout_typeE1ENS0_22xtensor_expression_tagEEEEaSERKS8_ = comdat any

$_ZNSt12__shared_ptrIN2xt17xtensor_containerINS0_7uvectorIiSaIiEEELm1ELNS0_11layout_typeE1ENS0_22xtensor_expression_tagEEELN9__gnu_cxx12_Lock_policyE2EEaSERKSA_ = comdat any

$_ZNSt14__shared_countILN9__gnu_cxx12_Lock_policyE2EEaSERKS2_ = comdat any

$_ZNSt16_Sp_counted_baseILN9__gnu_cxx12_Lock_policyE2EE15_M_add_ref_copyEv = comdat any

$__clang_call_terminate = comdat any

$_ZNSt16_Sp_counted_baseILN9__gnu_cxx12_Lock_policyE2EE10_M_releaseEv = comdat any

$_ZN9__gnu_cxx21__atomic_add_dispatchEPii = comdat any

$_ZN9__gnu_cxx20__is_single_threadedEv = comdat any

$_ZN9__gnu_cxx19__atomic_add_singleEPii = comdat any

$_ZN9__gnu_cxx12__atomic_addEPVii = comdat any

$_ZN9__gnu_cxx27__exchange_and_add_dispatchEPii = comdat any

$_ZNSt16_Sp_counted_baseILN9__gnu_cxx12_Lock_policyE2EE24_M_release_last_use_coldEv = comdat any

$_ZN9__gnu_cxx25__exchange_and_add_singleEPii = comdat any

$_ZN9__gnu_cxx18__exchange_and_addEPVii = comdat any

$_ZNSt16_Sp_counted_baseILN9__gnu_cxx12_Lock_policyE2EE19_M_release_last_useEv = comdat any

$_ZNSt16allocator_traitsISaIiEE37select_on_container_copy_constructionERKS0_ = comdat any

$_ZNK2xt7uvectorIiSaIiEE13get_allocatorEv = comdat any

$_ZNSt15__new_allocatorIiED2Ev = comdat any

$_ZN2xt7uvectorIiSaIiEE11resize_implEm = comdat any

$_ZNK2xt7uvectorIiSaIiEE4sizeEv = comdat any

$_ZSt18uninitialized_copyIPiS0_ET0_T_S2_S1_ = comdat any

$_ZNSaIiEC2ERKS_ = comdat any

$_ZNSt15__new_allocatorIiEC2ERKS0_ = comdat any

$_ZN2xt6detail18safe_init_allocateISaIiEEENSt16allocator_traitsIT_E7pointerERS4_NS5_9size_typeE = comdat any

$_ZN2xt6detail23safe_destroy_deallocateISaIiEEEvRT_NSt16allocator_traitsIS3_E7pointerENS6_9size_typeE = comdat any

$_ZNSt15__new_allocatorIiE8allocateEmPKv = comdat any

$_ZNKSt15__new_allocatorIiE11_M_max_sizeEv = comdat any

$_ZNSt16allocator_traitsISaIiEE10deallocateERS0_Pim = comdat any

$_ZNSt15__new_allocatorIiE10deallocateEPim = comdat any

$_ZNSt20__uninitialized_copyILb1EE13__uninit_copyIPiS2_EET0_T_S4_S3_ = comdat any

$_ZSt4copyIPiS0_ET0_T_S2_S1_ = comdat any

$_ZSt13__copy_move_aILb0EPiS0_ET1_T0_S2_S1_ = comdat any

$_ZSt12__miter_baseIPiET_S1_ = comdat any

$_ZSt12__niter_wrapIPiET_RKS1_S1_ = comdat any

$_ZSt14__copy_move_a1ILb0EPiS0_ET1_T0_S2_S1_ = comdat any

$_ZSt12__niter_baseIPiET_S1_ = comdat any

$_ZSt14__copy_move_a2ILb0EPiS0_ET1_T0_S2_S1_ = comdat any

$_ZNSt11__copy_moveILb0ELb1ESt26random_access_iterator_tagE8__copy_mIiEEPT_PKS3_S6_S4_ = comdat any

$_ZNSt6vectorIS_IdSaIdEESaIS1_EE17_M_default_appendEm = comdat any

$_ZNSt6vectorIS_IdSaIdEESaIS1_EE15_M_erase_at_endEPS1_ = comdat any

$_ZNKSt6vectorIS_IdSaIdEESaIS1_EE8max_sizeEv = comdat any

$_ZSt27__uninitialized_default_n_aIPSt6vectorIdSaIdEEmS2_ET_S4_T0_RSaIT1_E = comdat any

$_ZNSt12_Vector_baseISt6vectorIdSaIdEESaIS2_EE19_M_get_Tp_allocatorEv = comdat any

$_ZNKSt6vectorIS_IdSaIdEESaIS1_EE12_M_check_lenEmPKc = comdat any

$_ZNSt12_Vector_baseISt6vectorIdSaIdEESaIS2_EE11_M_allocateEm = comdat any

$_ZNSt12_Vector_baseISt6vectorIdSaIdEESaIS2_EE13_M_deallocateEPS2_m = comdat any

$_ZNSt6vectorIS_IdSaIdEESaIS1_EE11_S_relocateEPS1_S4_S4_RS2_ = comdat any

$_ZNSt6vectorIS_IdSaIdEESaIS1_EE11_S_max_sizeERKS2_ = comdat any

$_ZNKSt12_Vector_baseISt6vectorIdSaIdEESaIS2_EE19_M_get_Tp_allocatorEv = comdat any

$_ZNSt16allocator_traitsISaISt6vectorIdSaIdEEEE8max_sizeERKS3_ = comdat any

$_ZSt3minImERKT_S2_S2_ = comdat any

$_ZNKSt15__new_allocatorISt6vectorIdSaIdEEE8max_sizeEv = comdat any

$_ZNKSt15__new_allocatorISt6vectorIdSaIdEEE11_M_max_sizeEv = comdat any

$_ZSt25__uninitialized_default_nIPSt6vectorIdSaIdEEmET_S4_T0_ = comdat any

$_ZNSt27__uninitialized_default_n_1ILb0EE18__uninit_default_nIPSt6vectorIdSaIdEEmEET_S6_T0_ = comdat any

$_ZSt10_ConstructISt6vectorIdSaIdEEJEEvPT_DpOT0_ = comdat any

$_ZSt8_DestroyIPSt6vectorIdSaIdEEEvT_S4_ = comdat any

$_ZNSt6vectorIdSaIdEEC2Ev = comdat any

$_ZNSt12_Vector_baseIdSaIdEEC2Ev = comdat any

$_ZNSt12_Vector_baseIdSaIdEE12_Vector_implC2Ev = comdat any

$_ZNSt12_Vector_baseIdSaIdEE17_Vector_impl_dataC2Ev = comdat any

$_ZNSt15__new_allocatorIdEC2Ev = comdat any

$_ZNSt12_Destroy_auxILb0EE9__destroyIPSt6vectorIdSaIdEEEEvT_S6_ = comdat any

$_ZSt8_DestroyISt6vectorIdSaIdEEEvPT_ = comdat any

$_ZNSt6vectorIdSaIdEED2Ev = comdat any

$_ZSt8_DestroyIPddEvT_S1_RSaIT0_E = comdat any

$_ZNSt12_Vector_baseIdSaIdEE19_M_get_Tp_allocatorEv = comdat any

$_ZNSt12_Vector_baseIdSaIdEED2Ev = comdat any

$_ZSt8_DestroyIPdEvT_S1_ = comdat any

$_ZNSt12_Destroy_auxILb1EE9__destroyIPdEEvT_S3_ = comdat any

$_ZNSt12_Vector_baseIdSaIdEE13_M_deallocateEPdm = comdat any

$_ZNSt16allocator_traitsISaIdEE10deallocateERS0_Pdm = comdat any

$_ZNSt15__new_allocatorIdE10deallocateEPdm = comdat any

$_ZSt3maxImERKT_S2_S2_ = comdat any

$_ZNSt16allocator_traitsISaISt6vectorIdSaIdEEEE8allocateERS3_m = comdat any

$_ZNSt15__new_allocatorISt6vectorIdSaIdEEE8allocateEmPKv = comdat any

$_ZNSt16allocator_traitsISaISt6vectorIdSaIdEEEE10deallocateERS3_PS2_m = comdat any

$_ZNSt15__new_allocatorISt6vectorIdSaIdEEE10deallocateEPS2_m = comdat any

$_ZSt12__relocate_aIPSt6vectorIdSaIdEES3_SaIS2_EET0_T_S6_S5_RT1_ = comdat any

$_ZSt14__relocate_a_1IPSt6vectorIdSaIdEES3_SaIS2_EET0_T_S6_S5_RT1_ = comdat any

$_ZSt12__niter_baseIPSt6vectorIdSaIdEEET_S4_ = comdat any

$_ZSt19__relocate_object_aISt6vectorIdSaIdEES2_SaIS2_EEvPT_PT0_RT1_ = comdat any

$_ZNSt16allocator_traitsISaISt6vectorIdSaIdEEEE9constructIS2_JS2_EEEvRS3_PT_DpOT0_ = comdat any

$_ZNSt16allocator_traitsISaISt6vectorIdSaIdEEEE7destroyIS2_EEvRS3_PT_ = comdat any

$_ZNSt15__new_allocatorISt6vectorIdSaIdEEE9constructIS2_JS2_EEEvPT_DpOT0_ = comdat any

$_ZNSt6vectorIdSaIdEEC2EOS1_ = comdat any

$_ZNSt12_Vector_baseIdSaIdEEC2EOS1_ = comdat any

$_ZNSt12_Vector_baseIdSaIdEE12_Vector_implC2EOS2_ = comdat any

$_ZNSt12_Vector_baseIdSaIdEE17_Vector_impl_dataC2EOS2_ = comdat any

$_ZNSt15__new_allocatorIdEC2ERKS0_ = comdat any

$_ZNSt15__new_allocatorISt6vectorIdSaIdEEE7destroyIS2_EEvPT_ = comdat any

$_ZSt8_DestroyIPSt6vectorIdSaIdEES2_EvT_S4_RSaIT0_E = comdat any

$_ZNKSt6vectorIS_IS_IdSaIdEESaIS1_EESaIS3_EE4sizeEv = comdat any

$_ZNSt6vectorIS_IS_IdSaIdEESaIS1_EESaIS3_EE17_M_default_appendEm = comdat any

$_ZNSt6vectorIS_IS_IdSaIdEESaIS1_EESaIS3_EE15_M_erase_at_endEPS3_ = comdat any

$_ZNKSt6vectorIS_IS_IdSaIdEESaIS1_EESaIS3_EE8max_sizeEv = comdat any

$_ZSt27__uninitialized_default_n_aIPSt6vectorIS0_IdSaIdEESaIS2_EEmS4_ET_S6_T0_RSaIT1_E = comdat any

$_ZNSt12_Vector_baseISt6vectorIS0_IdSaIdEESaIS2_EESaIS4_EE19_M_get_Tp_allocatorEv = comdat any

$_ZNKSt6vectorIS_IS_IdSaIdEESaIS1_EESaIS3_EE12_M_check_lenEmPKc = comdat any

$_ZNSt12_Vector_baseISt6vectorIS0_IdSaIdEESaIS2_EESaIS4_EE11_M_allocateEm = comdat any

$_ZNSt12_Vector_baseISt6vectorIS0_IdSaIdEESaIS2_EESaIS4_EE13_M_deallocateEPS4_m = comdat any

$_ZNSt6vectorIS_IS_IdSaIdEESaIS1_EESaIS3_EE11_S_relocateEPS3_S6_S6_RS4_ = comdat any

$_ZNSt6vectorIS_IS_IdSaIdEESaIS1_EESaIS3_EE11_S_max_sizeERKS4_ = comdat any

$_ZNKSt12_Vector_baseISt6vectorIS0_IdSaIdEESaIS2_EESaIS4_EE19_M_get_Tp_allocatorEv = comdat any

$_ZNSt16allocator_traitsISaISt6vectorIS0_IdSaIdEESaIS2_EEEE8max_sizeERKS5_ = comdat any

$_ZNKSt15__new_allocatorISt6vectorIS0_IdSaIdEESaIS2_EEE8max_sizeEv = comdat any

$_ZNKSt15__new_allocatorISt6vectorIS0_IdSaIdEESaIS2_EEE11_M_max_sizeEv = comdat any

$_ZSt25__uninitialized_default_nIPSt6vectorIS0_IdSaIdEESaIS2_EEmET_S6_T0_ = comdat any

$_ZNSt27__uninitialized_default_n_1ILb0EE18__uninit_default_nIPSt6vectorIS2_IdSaIdEESaIS4_EEmEET_S8_T0_ = comdat any

$_ZSt10_ConstructISt6vectorIS0_IdSaIdEESaIS2_EEJEEvPT_DpOT0_ = comdat any

$_ZSt8_DestroyIPSt6vectorIS0_IdSaIdEESaIS2_EEEvT_S6_ = comdat any

$_ZNSt6vectorIS_IdSaIdEESaIS1_EEC2Ev = comdat any

$_ZNSt12_Vector_baseISt6vectorIdSaIdEESaIS2_EEC2Ev = comdat any

$_ZNSt12_Vector_baseISt6vectorIdSaIdEESaIS2_EE12_Vector_implC2Ev = comdat any

$_ZNSt12_Vector_baseISt6vectorIdSaIdEESaIS2_EE17_Vector_impl_dataC2Ev = comdat any

$_ZNSt15__new_allocatorISt6vectorIdSaIdEEEC2Ev = comdat any

$_ZNSt12_Destroy_auxILb0EE9__destroyIPSt6vectorIS2_IdSaIdEESaIS4_EEEEvT_S8_ = comdat any

$_ZSt8_DestroyISt6vectorIS0_IdSaIdEESaIS2_EEEvPT_ = comdat any

$_ZNSt6vectorIS_IdSaIdEESaIS1_EED2Ev = comdat any

$_ZNSt12_Vector_baseISt6vectorIdSaIdEESaIS2_EED2Ev = comdat any

$_ZNSt16allocator_traitsISaISt6vectorIS0_IdSaIdEESaIS2_EEEE8allocateERS5_m = comdat any

$_ZNSt15__new_allocatorISt6vectorIS0_IdSaIdEESaIS2_EEE8allocateEmPKv = comdat any

$_ZNSt16allocator_traitsISaISt6vectorIS0_IdSaIdEESaIS2_EEEE10deallocateERS5_PS4_m = comdat any

$_ZNSt15__new_allocatorISt6vectorIS0_IdSaIdEESaIS2_EEE10deallocateEPS4_m = comdat any

$_ZSt12__relocate_aIPSt6vectorIS0_IdSaIdEESaIS2_EES5_SaIS4_EET0_T_S8_S7_RT1_ = comdat any

$_ZSt14__relocate_a_1IPSt6vectorIS0_IdSaIdEESaIS2_EES5_SaIS4_EET0_T_S8_S7_RT1_ = comdat any

$_ZSt12__niter_baseIPSt6vectorIS0_IdSaIdEESaIS2_EEET_S6_ = comdat any

$_ZSt19__relocate_object_aISt6vectorIS0_IdSaIdEESaIS2_EES4_SaIS4_EEvPT_PT0_RT1_ = comdat any

$_ZNSt16allocator_traitsISaISt6vectorIS0_IdSaIdEESaIS2_EEEE9constructIS4_JS4_EEEvRS5_PT_DpOT0_ = comdat any

$_ZNSt16allocator_traitsISaISt6vectorIS0_IdSaIdEESaIS2_EEEE7destroyIS4_EEvRS5_PT_ = comdat any

$_ZNSt15__new_allocatorISt6vectorIS0_IdSaIdEESaIS2_EEE9constructIS4_JS4_EEEvPT_DpOT0_ = comdat any

$_ZNSt6vectorIS_IdSaIdEESaIS1_EEC2EOS3_ = comdat any

$_ZNSt12_Vector_baseISt6vectorIdSaIdEESaIS2_EEC2EOS4_ = comdat any

$_ZNSt12_Vector_baseISt6vectorIdSaIdEESaIS2_EE12_Vector_implC2EOS5_ = comdat any

$_ZNSt12_Vector_baseISt6vectorIdSaIdEESaIS2_EE17_Vector_impl_dataC2EOS5_ = comdat any

$_ZNSt15__new_allocatorISt6vectorIdSaIdEEEC2ERKS3_ = comdat any

$_ZNSt15__new_allocatorISt6vectorIS0_IdSaIdEESaIS2_EEE7destroyIS4_EEvPT_ = comdat any

$_ZSt8_DestroyIPSt6vectorIS0_IdSaIdEESaIS2_EES4_EvT_S6_RSaIT0_E = comdat any

$_ZNKSt6vectorIdSaIdEE8capacityEv = comdat any

$_ZNSt6vectorIdSaIdEE20_M_allocate_and_copyIN9__gnu_cxx17__normal_iteratorIPKdS1_EEEEPdmT_S9_ = comdat any

$_ZNKSt6vectorIdSaIdEE5beginEv = comdat any

$_ZNKSt6vectorIdSaIdEE3endEv = comdat any

$_ZSt8_DestroyIN9__gnu_cxx17__normal_iteratorIPdSt6vectorIdSaIdEEEEdEvT_S7_RSaIT0_E = comdat any

$_ZSt4copyIN9__gnu_cxx17__normal_iteratorIPKdSt6vectorIdSaIdEEEENS1_IPdS6_EEET0_T_SB_SA_ = comdat any

$_ZSt4copyIPdS0_ET0_T_S2_S1_ = comdat any

$_ZSt22__uninitialized_copy_aIPdS0_dET0_T_S2_S1_RSaIT1_E = comdat any

$_ZNSt12_Vector_baseIdSaIdEE11_M_allocateEm = comdat any

$_ZSt22__uninitialized_copy_aIN9__gnu_cxx17__normal_iteratorIPKdSt6vectorIdSaIdEEEEPddET0_T_SA_S9_RSaIT1_E = comdat any

$_ZNSt16allocator_traitsISaIdEE8allocateERS0_m = comdat any

$_ZNSt15__new_allocatorIdE8allocateEmPKv = comdat any

$_ZNKSt15__new_allocatorIdE11_M_max_sizeEv = comdat any

$_ZSt18uninitialized_copyIN9__gnu_cxx17__normal_iteratorIPKdSt6vectorIdSaIdEEEEPdET0_T_SA_S9_ = comdat any

$_ZNSt20__uninitialized_copyILb1EE13__uninit_copyIN9__gnu_cxx17__normal_iteratorIPKdSt6vectorIdSaIdEEEEPdEET0_T_SC_SB_ = comdat any

$_ZSt4copyIN9__gnu_cxx17__normal_iteratorIPKdSt6vectorIdSaIdEEEEPdET0_T_SA_S9_ = comdat any

$_ZSt13__copy_move_aILb0EN9__gnu_cxx17__normal_iteratorIPKdSt6vectorIdSaIdEEEEPdET1_T0_SA_S9_ = comdat any

$_ZSt12__miter_baseIN9__gnu_cxx17__normal_iteratorIPKdSt6vectorIdSaIdEEEEET_S8_ = comdat any

$_ZSt12__niter_wrapIPdET_RKS1_S1_ = comdat any

$_ZSt14__copy_move_a1ILb0EPKdPdET1_T0_S4_S3_ = comdat any

$_ZSt12__niter_baseIPKdSt6vectorIdSaIdEEET_N9__gnu_cxx17__normal_iteratorIS5_T0_EE = comdat any

$_ZSt12__niter_baseIPdET_S1_ = comdat any

$_ZSt14__copy_move_a2ILb0EPKdPdET1_T0_S4_S3_ = comdat any

$_ZNSt11__copy_moveILb0ELb1ESt26random_access_iterator_tagE8__copy_mIdEEPT_PKS3_S6_S4_ = comdat any

$_ZNK9__gnu_cxx17__normal_iteratorIPKdSt6vectorIdSaIdEEE4baseEv = comdat any

$_ZN9__gnu_cxx17__normal_iteratorIPKdSt6vectorIdSaIdEEEC2ERKS2_ = comdat any

$_ZSt8_DestroyIN9__gnu_cxx17__normal_iteratorIPdSt6vectorIdSaIdEEEEEvT_S7_ = comdat any

$_ZNSt12_Destroy_auxILb1EE9__destroyIN9__gnu_cxx17__normal_iteratorIPdSt6vectorIdSaIdEEEEEEvT_S9_ = comdat any

$_ZSt13__copy_move_aILb0EN9__gnu_cxx17__normal_iteratorIPKdSt6vectorIdSaIdEEEENS1_IPdS6_EEET1_T0_SB_SA_ = comdat any

$_ZSt12__niter_wrapIN9__gnu_cxx17__normal_iteratorIPdSt6vectorIdSaIdEEEES2_ET_S7_T0_ = comdat any

$_ZSt12__niter_baseIPdSt6vectorIdSaIdEEET_N9__gnu_cxx17__normal_iteratorIS4_T0_EE = comdat any

$_ZNK9__gnu_cxx17__normal_iteratorIPdSt6vectorIdSaIdEEEplEl = comdat any

$_ZN9__gnu_cxx17__normal_iteratorIPdSt6vectorIdSaIdEEEC2ERKS1_ = comdat any

$_ZNK9__gnu_cxx17__normal_iteratorIPdSt6vectorIdSaIdEEE4baseEv = comdat any

$_ZSt13__copy_move_aILb0EPdS0_ET1_T0_S2_S1_ = comdat any

$_ZSt12__miter_baseIPdET_S1_ = comdat any

$_ZSt14__copy_move_a1ILb0EPdS0_ET1_T0_S2_S1_ = comdat any

$_ZSt14__copy_move_a2ILb0EPdS0_ET1_T0_S2_S1_ = comdat any

$_ZSt18uninitialized_copyIPdS0_ET0_T_S2_S1_ = comdat any

$_ZNSt20__uninitialized_copyILb1EE13__uninit_copyIPdS2_EET0_T_S4_S3_ = comdat any

$_ZNSt11char_traitsIcE6lengthEPKc = comdat any

$_ZNSt16allocator_traitsISaIcEE8max_sizeERKS0_ = comdat any

$_ZNKSt15__new_allocatorIcE8max_sizeEv = comdat any

$_ZNKSt15__new_allocatorIcE11_M_max_sizeEv = comdat any

$_ZNSt11char_traitsIcE4copyEPcPKcm = comdat any

$_ZNSt19__ptr_traits_ptr_toIPccLb0EE10pointer_toERc = comdat any

$_ZNSt15__new_allocatorIcEC2ERKS0_ = comdat any

$_ZNSt19__ptr_traits_ptr_toIPKcS0_Lb0EE10pointer_toERS0_ = comdat any

$_ZNSt11char_traitsIcE6assignERcRKc = comdat any

$_ZNSt8__detail14__to_chars_lenImEEjT_i = comdat any

$_ZNSt7__cxx1112basic_stringIcSt11char_traitsIcESaIcEEC2IS3_EEmcRKS3_ = comdat any

$_ZNSt15__new_allocatorIcED2Ev = comdat any

$_ZNSt8__detail18__to_chars_10_implImEEvPcjT_ = comdat any

$_ZNSt15__new_allocatorIcEC2Ev = comdat any

$_ZNSt16allocator_traitsISaIcEE10deallocateERS0_Pcm = comdat any

$_ZNSt15__new_allocatorIcE10deallocateEPcm = comdat any

$_ZNK2xt17xconst_accessibleINS_17xtensor_containerINS_7uvectorIiSaIiEEELm1ELNS_11layout_typeE1ENS_22xtensor_expression_tagEEEE12derived_castEv = comdat any

$_ZNK2xt10xcontainerINS_17xtensor_containerINS_7uvectorIiSaIiEEELm1ELNS_11layout_typeE1ENS_22xtensor_expression_tagEEEEclIJmEEERKiDpT_ = comdat any

$_ZN2xt11data_offsetImSt5arrayIlLm1EElJEEET_RKT0_T1_DpT2_ = comdat any

$_ZNK2xt10xcontainerINS_17xtensor_containerINS_7uvectorIiSaIiEEELm1ELNS_11layout_typeE1ENS_22xtensor_expression_tagEEEE7stridesEv = comdat any

$_ZNK2xt10xcontainerINS_17xtensor_containerINS_7uvectorIiSaIiEEELm1ELNS_11layout_typeE1ENS_22xtensor_expression_tagEEEE7storageEv = comdat any

$_ZNK2xt7uvectorIiSaIiEEixEm = comdat any

$_ZNKSt5arrayIlLm1EE4sizeEv = comdat any

$_ZN2xt6detail15raw_data_offsetILm0ESt5arrayIlLm1EElJEEEDaRKT0_T1_DpT2_ = comdat any

$_ZN2xt11data_offsetImSt5arrayIlLm1EEEET_RKT0_ = comdat any

$_ZNKSt5arrayIlLm1EE4cendEv = comdat any

$_ZN2xt6detail15raw_data_offsetILm0EPKllJEEEDaRKT0_T1_DpT2_ = comdat any

$_ZNKSt5arrayIlLm1EEixEm = comdat any

$_ZN2xt6detail15raw_data_offsetILm1ESt5arrayIlLm1EEEEDaRKT0_ = comdat any

$_ZNSt14__array_traitsIlLm1EE6_S_refERA1_Klm = comdat any

$_ZNKSt5arrayIlLm1EE4dataEv = comdat any

$_ZNSt14__array_traitsIlLm1EE6_S_ptrERA1_Kl = comdat any

$_ZN2xt6detail15raw_data_offsetILm1EPKlEEDaRKT0_ = comdat any

$_ZNKR2xt10xcontainerINS_17xtensor_containerINS_7uvectorIiSaIiEEELm1ELNS_11layout_typeE1ENS_22xtensor_expression_tagEEEE12derived_castEv = comdat any

$_ZNK2xt18xstrided_containerINS_17xtensor_containerINS_7uvectorIiSaIiEEELm1ELNS_11layout_typeE1ENS_22xtensor_expression_tagEEEE12strides_implEv = comdat any

$_ZNK2xt17xtensor_containerINS_7uvectorIiSaIiEEELm1ELNS_11layout_typeE1ENS_22xtensor_expression_tagEE12storage_implEv = comdat any

$_ZN9__gnu_cxx17__normal_iteratorIPSt6vectorIdSaIdEES1_IS3_SaIS3_EEEC2ERKS4_ = comdat any

$_ZNK9__gnu_cxx17__normal_iteratorIPSt6vectorIdSaIdEES1_IS3_SaIS3_EEE4baseEv = comdat any

$_ZNSt6vectorIdSaIdEE17_M_default_appendEm = comdat any

$_ZNSt6vectorIdSaIdEE15_M_erase_at_endEPd = comdat any

$_ZNKSt6vectorIdSaIdEE8max_sizeEv = comdat any

$_ZSt27__uninitialized_default_n_aIPdmdET_S1_T0_RSaIT1_E = comdat any

$_ZNKSt6vectorIdSaIdEE12_M_check_lenEmPKc = comdat any

$_ZNSt6vectorIdSaIdEE11_S_relocateEPdS2_S2_RS0_ = comdat any

$_ZNSt6vectorIdSaIdEE11_S_max_sizeERKS0_ = comdat any

$_ZNKSt12_Vector_baseIdSaIdEE19_M_get_Tp_allocatorEv = comdat any

$_ZNSt16allocator_traitsISaIdEE8max_sizeERKS0_ = comdat any

$_ZNKSt15__new_allocatorIdE8max_sizeEv = comdat any

$_ZSt25__uninitialized_default_nIPdmET_S1_T0_ = comdat any

$_ZNSt27__uninitialized_default_n_1ILb1EE18__uninit_default_nIPdmEET_S3_T0_ = comdat any

$_ZSt10_ConstructIdJEEvPT_DpOT0_ = comdat any

$_ZSt6fill_nIPdmdET_S1_T0_RKT1_ = comdat any

$_ZSt10__fill_n_aIPdmdET_S1_T0_RKT1_St26random_access_iterator_tag = comdat any

$_ZSt17__size_to_integerm = comdat any

$_ZSt19__iterator_categoryIPdENSt15iterator_traitsIT_E17iterator_categoryERKS2_ = comdat any

$_ZSt8__fill_aIPddEvT_S1_RKT0_ = comdat any

$_ZSt9__fill_a1IPddEN9__gnu_cxx11__enable_ifIXsr11__is_scalarIT0_EE7__valueEvE6__typeET_S6_RKS3_ = comdat any

$_ZSt12__relocate_aIPdS0_SaIdEET0_T_S3_S2_RT1_ = comdat any

$_ZSt14__relocate_a_1IddENSt9enable_ifIXsr3std24__is_bitwise_relocatableIT_EE5valueEPS1_E4typeES2_S2_S2_RSaIT0_E = comdat any

$_ZNKSt6vectorIPN6openmc9ScattDataESaIS2_EEixEm = comdat any

$_ZN2xt17xtensor_containerINS_7uvectorIdSaIdEEELm3ELNS_11layout_typeE1ENS_22xtensor_expression_tagEEC2ERKSt5arrayImLm3EERKdS4_ = comdat any

$_ZN2xt17xtensor_containerINS_7uvectorIdSaIdEEELm2ELNS_11layout_typeE1ENS_22xtensor_expression_tagEEC2ERKSt5arrayImLm2EERKdS4_ = comdat any

$_ZNKSt6vectorIPN6openmc9ScattDataESaIS2_EE4sizeEv = comdat any

$_ZN2xtmlIRKdRNS_17xtensor_containerINS_7uvectorIdSaIdEEELm3ELNS_11layout_typeE1ENS_22xtensor_expression_tagEEEEENSt9enable_ifIXsr15has_xexpressionINSt5decayIT_E4typeENSC_IT0_E4typeEEE5valueENS_6detail14xfunction_typeINSJ_10multipliesEJSD_SG_EEEE4type4typeEOSD_OSG_ = comdat any

$_ZNKSt6vectorIdSaIdEEixEm = comdat any

$_ZN2xt14xsemantic_baseINS_17xtensor_containerINS_7uvectorIdSaIdEEELm3ELNS_11layout_typeE1ENS_22xtensor_expression_tagEEEEpLINS_9xfunctionINS_6detail10multipliesEJNS_7xscalarIRKdEERKS7_EEEEERS7_RKNS_11xexpressionIT_EE = comdat any

$_ZN2xt9xfunctionINS_6detail10multipliesEJNS_7xscalarIRKdEERKNS_17xtensor_containerINS_7uvectorIdSaIdEEELm3ELNS_11layout_typeE1ENS_22xtensor_expression_tagEEEEED2Ev = comdat any

$_ZN2xt10xcontainerINS_17xtensor_containerINS_7uvectorIdSaIdEEELm2ELNS_11layout_typeE1ENS_22xtensor_expression_tagEEEEclIJiiEEERdDpT_ = comdat any

$_ZN2xt17xtensor_containerINS_7uvectorIdSaIdEEELm3ELNS_11layout_typeE1ENS_22xtensor_expression_tagEED2Ev = comdat any

$_ZN2xt10nan_to_numINS_9xfunctionINS_6detail7dividesEJRKNS_17xtensor_containerINS_7uvectorIdSaIdEEELm2ELNS_11layout_typeE1ENS_22xtensor_expression_tagEEESC_EEEEEDaOT_ = comdat any

$_ZN2xtdvIRNS_17xtensor_containerINS_7uvectorIdSaIdEEELm2ELNS_11layout_typeE1ENS_22xtensor_expression_tagEEES8_EENSt9enable_ifIXsr15has_xexpressionINSt5decayIT_E4typeENSA_IT0_E4typeEEE5valueENS_6detail14xfunction_typeINSH_7dividesEJSB_SE_EEEE4type4typeEOSB_OSE_ = comdat any

$_ZN2xt17xtensor_containerINS_7uvectorIdSaIdEEELm2ELNS_11layout_typeE1ENS_22xtensor_expression_tagEEaSINS_9xfunctionINS_6detail18nan_to_num_functorEJNS8_INS9_7dividesEJRKS6_SD_EEEEEEEERS6_RKNS_11xexpressionIT_EE = comdat any

$_ZN2xt9xfunctionINS_6detail18nan_to_num_functorEJNS0_INS1_7dividesEJRKNS_17xtensor_containerINS_7uvectorIdSaIdEEELm2ELNS_11layout_typeE1ENS_22xtensor_expression_tagEEESC_EEEEED2Ev = comdat any

$_ZN2xt20xsharable_expressionINS_9xfunctionINS_6detail7dividesEJRKNS_17xtensor_containerINS_7uvectorIdSaIdEEELm2ELNS_11layout_typeE1ENS_22xtensor_expression_tagEEESC_EEEED2Ev = comdat any

$_ZNK2xt10xcontainerINS_17xtensor_containerINS_7uvectorIdSaIdEEELm3ELNS_11layout_typeE1ENS_22xtensor_expression_tagEEEE5shapeEv = comdat any

$_ZNKSt5arrayImLm3EEixEm = comdat any

$_ZN2xt10xcontainerINS_17xtensor_containerINS_7uvectorIdSaIdEEELm3ELNS_11layout_typeE1ENS_22xtensor_expression_tagEEEEclIJiiiEEERdDpT_ = comdat any

$_ZN2xt11xaccessibleINS_17xtensor_containerINS_7uvectorIiSaIiEEELm1ELNS_11layout_typeE1ENS_22xtensor_expression_tagEEEEixEm = comdat any

$_ZN2xt17xtensor_containerINS_7uvectorIdSaIdEEELm2ELNS_11layout_typeE1ENS_22xtensor_expression_tagEED2Ev = comdat any

$_ZN2xt18xstrided_containerINS_17xtensor_containerINS_7uvectorIdSaIdEEELm3ELNS_11layout_typeE1ENS_22xtensor_expression_tagEEEEC2Ev = comdat any

$_ZN2xt19xcontainer_semanticINS_17xtensor_containerINS_7uvectorIdSaIdEEELm3ELNS_11layout_typeE1ENS_22xtensor_expression_tagEEEEC2Ev = comdat any

$_ZN2xt7uvectorIdSaIdEEC2Ev = comdat any

$_ZN2xt18xstrided_containerINS_17xtensor_containerINS_7uvectorIdSaIdEEELm3ELNS_11layout_typeE1ENS_22xtensor_expression_tagEEEE6resizeIRKSt5arrayImLm3EEEEvOT_S5_ = comdat any

$_ZSt4fillIPddEvT_S1_RKT0_ = comdat any

$_ZN2xt7uvectorIdSaIdEE5beginEv = comdat any

$_ZN2xt7uvectorIdSaIdEE3endEv = comdat any

$_ZN2xt7uvectorIdSaIdEED2Ev = comdat any

$_ZN2xt20xsharable_expressionINS_17xtensor_containerINS_7uvectorIdSaIdEEELm3ELNS_11layout_typeE1ENS_22xtensor_expression_tagEEEED2Ev = comdat any

$_ZN3xtl13make_sequenceISt5arrayImLm3EEEET_NS3_9size_typeENS3_10value_typeE = comdat any

$_ZNK2xt10xcontainerINS_17xtensor_containerINS_7uvectorIdSaIdEEELm3ELNS_11layout_typeE1ENS_22xtensor_expression_tagEEEE9dimensionEv = comdat any

$_ZN3xtl13make_sequenceISt5arrayIlLm3EEEET_NS3_9size_typeENS3_10value_typeE = comdat any

$_ZN3xtl6detail16sequence_builderISt5arrayImLm3EEE4makeEmm = comdat any

$_ZNSt5arrayImLm3EE4fillERKm = comdat any

$_ZSt6fill_nIPmmmET_S1_T0_RKT1_ = comdat any

$_ZNSt5arrayImLm3EE5beginEv = comdat any

$_ZNKSt5arrayImLm3EE4sizeEv = comdat any

$_ZSt10__fill_n_aIPmmmET_S1_T0_RKT1_St26random_access_iterator_tag = comdat any

$_ZSt19__iterator_categoryIPmENSt15iterator_traitsIT_E17iterator_categoryERKS2_ = comdat any

$_ZSt8__fill_aIPmmEvT_S1_RKT0_ = comdat any

$_ZSt9__fill_a1IPmmEN9__gnu_cxx11__enable_ifIXsr11__is_scalarIT0_EE7__valueEvE6__typeET_S6_RKS3_ = comdat any

$_ZNSt5arrayImLm3EE4dataEv = comdat any

$_ZNSt14__array_traitsImLm3EE6_S_ptrERA3_Km = comdat any

$_ZN3xtl6detail16sequence_builderISt5arrayIlLm3EEE4makeEml = comdat any

$_ZNSt5arrayIlLm3EE4fillERKl = comdat any

$_ZSt6fill_nIPlmlET_S1_T0_RKT1_ = comdat any

$_ZNSt5arrayIlLm3EE5beginEv = comdat any

$_ZNKSt5arrayIlLm3EE4sizeEv = comdat any

$_ZSt10__fill_n_aIPlmlET_S1_T0_RKT1_St26random_access_iterator_tag = comdat any

$_ZSt19__iterator_categoryIPlENSt15iterator_traitsIT_E17iterator_categoryERKS2_ = comdat any

$_ZSt8__fill_aIPllEvT_S1_RKT0_ = comdat any

$_ZSt9__fill_a1IPllEN9__gnu_cxx11__enable_ifIXsr11__is_scalarIT0_EE7__valueEvE6__typeET_S6_RKS3_ = comdat any

$_ZNSt5arrayIlLm3EE4dataEv = comdat any

$_ZNSt14__array_traitsIlLm3EE6_S_ptrERA3_Kl = comdat any

$_ZN2xt14xsemantic_baseINS_17xtensor_containerINS_7uvectorIdSaIdEEELm3ELNS_11layout_typeE1ENS_22xtensor_expression_tagEEEEC2Ev = comdat any

$_ZN2xt20xsharable_expressionINS_17xtensor_containerINS_7uvectorIdSaIdEEELm3ELNS_11layout_typeE1ENS_22xtensor_expression_tagEEEEC2Ev = comdat any

$_ZNSt10shared_ptrIN2xt17xtensor_containerINS0_7uvectorIdSaIdEEELm3ELNS0_11layout_typeE1ENS0_22xtensor_expression_tagEEEEC2EDn = comdat any

$_ZNSt10shared_ptrIN2xt17xtensor_containerINS0_7uvectorIdSaIdEEELm3ELNS0_11layout_typeE1ENS0_22xtensor_expression_tagEEEEC2Ev = comdat any

$_ZNSt12__shared_ptrIN2xt17xtensor_containerINS0_7uvectorIdSaIdEEELm3ELNS0_11layout_typeE1ENS0_22xtensor_expression_tagEEELN9__gnu_cxx12_Lock_policyE2EEC2Ev = comdat any

$_ZNSt14__shared_countILN9__gnu_cxx12_Lock_policyE2EEC2Ev = comdat any

$_ZNSaIdEC2Ev = comdat any

$_ZN2xt7uvectorIdSaIdEEC2ERKS1_ = comdat any

$_ZNSt15__new_allocatorIdED2Ev = comdat any

$_ZNSaIdEC2ERKS_ = comdat any

$_ZN2xt18xstrided_containerINS_17xtensor_containerINS_7uvectorIdSaIdEEELm3ELNS_11layout_typeE1ENS_22xtensor_expression_tagEEEE6resizeIRKSt5arrayImLm3EEEEvOT_b = comdat any

$_ZSt5equalIPKmPmEbT_S3_T0_ = comdat any

$_ZSt5beginISt5arrayImLm3EEEDTcldtfp_5beginEERKT_ = comdat any

$_ZSt3endISt5arrayImLm3EEEDTcldtfp_3endEERKT_ = comdat any

$_ZSt5beginISt5arrayImLm3EEEDTcldtfp_5beginEERT_ = comdat any

$_ZN3xtl16forward_sequenceISt5arrayImLm3EERKS2_EEDcRNSt16remove_referenceIT0_E4typeE = comdat any

$_ZN2xt16resize_containerIlLm3EEEbRSt5arrayIT_XT0_EENS3_9size_typeE = comdat any

$_ZN2xt15compute_stridesILNS_11layout_typeE1ESt5arrayImLm3EES2_IlLm3EES4_EEmRKT0_S1_RT1_RT2_ = comdat any

$_ZN2xt6detail21resize_data_containerINS_7uvectorIdSaIdEEEmEEvRT_T0_ = comdat any

$_ZN2xt10xcontainerINS_17xtensor_containerINS_7uvectorIdSaIdEEELm3ELNS_11layout_typeE1ENS_22xtensor_expression_tagEEEE7storageEv = comdat any

$_ZSt11__equal_auxIPKmPmEbT_S3_T0_ = comdat any

$_ZSt12__equal_aux1IPKmPmEbT_S3_T0_ = comdat any

$_ZSt12__niter_baseIPKmET_S2_ = comdat any

$_ZSt12__niter_baseIPmET_S1_ = comdat any

$_ZNSt7__equalILb1EE5equalImEEbPKT_S4_S4_ = comdat any

$_ZSt8__memcmpImmEiPKT_PKT0_m = comdat any

$_ZNKSt5arrayImLm3EE5beginEv = comdat any

$_ZNKSt5arrayImLm3EE4dataEv = comdat any

$_ZNKSt5arrayImLm3EE3endEv = comdat any

$_ZN3xtl6detail18sequence_forwarderISt5arrayImLm3EES3_E7forwardIRKS3_EEOT_S9_ = comdat any

$_ZN2xt6detail15compute_stridesILNS_11layout_typeE1ESt5arrayImLm3EES3_IlLm3EEPS5_EEmRKT0_S2_RT1_T2_ = comdat any

$_ZNSt5arrayIlLm3EEixEm = comdat any

$_ZN2xt6detail13adapt_stridesISt5arrayImLm3EES2_IlLm3EEPS4_EEvRKT_RT0_T1_NS9_9size_typeE = comdat any

$_ZNSt14__array_traitsIlLm3EE6_S_refERA3_Klm = comdat any

$_ZN2xt16resize_containerINS_7uvectorIdSaIdEEEEEbRT_NS4_9size_typeE = comdat any

$_ZN2xt7uvectorIdSaIdEE6resizeEm = comdat any

$_ZN2xt7uvectorIdSaIdEE11resize_implEm = comdat any

$_ZNK2xt7uvectorIdSaIdEE4sizeEv = comdat any

$_ZN2xt6detail18safe_init_allocateISaIdEEENSt16allocator_traitsIT_E7pointerERS4_NS5_9size_typeE = comdat any

$_ZN2xt6detail23safe_destroy_deallocateISaIdEEEvRT_NSt16allocator_traitsIS3_E7pointerENS6_9size_typeE = comdat any

$_ZNR2xt10xcontainerINS_17xtensor_containerINS_7uvectorIdSaIdEEELm3ELNS_11layout_typeE1ENS_22xtensor_expression_tagEEEE12derived_castEv = comdat any

$_ZN2xt17xtensor_containerINS_7uvectorIdSaIdEEELm3ELNS_11layout_typeE1ENS_22xtensor_expression_tagEE12storage_implEv = comdat any

$_ZNSt14__shared_countILN9__gnu_cxx12_Lock_policyE2EED2Ev = comdat any

$_ZN2xt18xstrided_containerINS_17xtensor_containerINS_7uvectorIdSaIdEEELm2ELNS_11layout_typeE1ENS_22xtensor_expression_tagEEEEC2Ev = comdat any

$_ZN2xt19xcontainer_semanticINS_17xtensor_containerINS_7uvectorIdSaIdEEELm2ELNS_11layout_typeE1ENS_22xtensor_expression_tagEEEEC2Ev = comdat any

$_ZN2xt18xstrided_containerINS_17xtensor_containerINS_7uvectorIdSaIdEEELm2ELNS_11layout_typeE1ENS_22xtensor_expression_tagEEEE6resizeIRKSt5arrayImLm2EEEEvOT_S5_ = comdat any

$_ZN2xt20xsharable_expressionINS_17xtensor_containerINS_7uvectorIdSaIdEEELm2ELNS_11layout_typeE1ENS_22xtensor_expression_tagEEEED2Ev = comdat any

$_ZN3xtl13make_sequenceISt5arrayImLm2EEEET_NS3_9size_typeENS3_10value_typeE = comdat any

$_ZNK2xt10xcontainerINS_17xtensor_containerINS_7uvectorIdSaIdEEELm2ELNS_11layout_typeE1ENS_22xtensor_expression_tagEEEE9dimensionEv = comdat any

$_ZN3xtl13make_sequenceISt5arrayIlLm2EEEET_NS3_9size_typeENS3_10value_typeE = comdat any

$_ZN3xtl6detail16sequence_builderISt5arrayImLm2EEE4makeEmm = comdat any

$_ZNSt5arrayImLm2EE4fillERKm = comdat any

$_ZNSt5arrayImLm2EE5beginEv = comdat any

$_ZNKSt5arrayImLm2EE4sizeEv = comdat any

$_ZNSt5arrayImLm2EE4dataEv = comdat any

$_ZNSt14__array_traitsImLm2EE6_S_ptrERA2_Km = comdat any

$_ZNK2xt10xcontainerINS_17xtensor_containerINS_7uvectorIdSaIdEEELm2ELNS_11layout_typeE1ENS_22xtensor_expression_tagEEEE5shapeEv = comdat any

$_ZNKR2xt10xcontainerINS_17xtensor_containerINS_7uvectorIdSaIdEEELm2ELNS_11layout_typeE1ENS_22xtensor_expression_tagEEEE12derived_castEv = comdat any

$_ZNK2xt18xstrided_containerINS_17xtensor_containerINS_7uvectorIdSaIdEEELm2ELNS_11layout_typeE1ENS_22xtensor_expression_tagEEEE10shape_implEv = comdat any

$_ZN3xtl6detail16sequence_builderISt5arrayIlLm2EEE4makeEml = comdat any

$_ZNSt5arrayIlLm2EE4fillERKl = comdat any

$_ZNSt5arrayIlLm2EE5beginEv = comdat any

$_ZNKSt5arrayIlLm2EE4sizeEv = comdat any

$_ZNSt5arrayIlLm2EE4dataEv = comdat any

$_ZNSt14__array_traitsIlLm2EE6_S_ptrERA2_Kl = comdat any

$_ZN2xt14xsemantic_baseINS_17xtensor_containerINS_7uvectorIdSaIdEEELm2ELNS_11layout_typeE1ENS_22xtensor_expression_tagEEEEC2Ev = comdat any

$_ZN2xt20xsharable_expressionINS_17xtensor_containerINS_7uvectorIdSaIdEEELm2ELNS_11layout_typeE1ENS_22xtensor_expression_tagEEEEC2Ev = comdat any

$_ZNSt10shared_ptrIN2xt17xtensor_containerINS0_7uvectorIdSaIdEEELm2ELNS0_11layout_typeE1ENS0_22xtensor_expression_tagEEEEC2EDn = comdat any

$_ZNSt10shared_ptrIN2xt17xtensor_containerINS0_7uvectorIdSaIdEEELm2ELNS0_11layout_typeE1ENS0_22xtensor_expression_tagEEEEC2Ev = comdat any

$_ZNSt12__shared_ptrIN2xt17xtensor_containerINS0_7uvectorIdSaIdEEELm2ELNS0_11layout_typeE1ENS0_22xtensor_expression_tagEEELN9__gnu_cxx12_Lock_policyE2EEC2Ev = comdat any

$_ZN2xt18xstrided_containerINS_17xtensor_containerINS_7uvectorIdSaIdEEELm2ELNS_11layout_typeE1ENS_22xtensor_expression_tagEEEE6resizeIRKSt5arrayImLm2EEEEvOT_b = comdat any

$_ZSt5beginISt5arrayImLm2EEEDTcldtfp_5beginEERKT_ = comdat any

$_ZSt3endISt5arrayImLm2EEEDTcldtfp_3endEERKT_ = comdat any

$_ZSt5beginISt5arrayImLm2EEEDTcldtfp_5beginEERT_ = comdat any

$_ZN3xtl16forward_sequenceISt5arrayImLm2EERKS2_EEDcRNSt16remove_referenceIT0_E4typeE = comdat any

$_ZN2xt16resize_containerIlLm2EEEbRSt5arrayIT_XT0_EENS3_9size_typeE = comdat any

$_ZN2xt15compute_stridesILNS_11layout_typeE1ESt5arrayImLm2EES2_IlLm2EES4_EEmRKT0_S1_RT1_RT2_ = comdat any

$_ZN2xt10xcontainerINS_17xtensor_containerINS_7uvectorIdSaIdEEELm2ELNS_11layout_typeE1ENS_22xtensor_expression_tagEEEE7storageEv = comdat any

$_ZNKSt5arrayImLm2EE5beginEv = comdat any

$_ZNKSt5arrayImLm2EE4dataEv = comdat any

$_ZNKSt5arrayImLm2EE3endEv = comdat any

$_ZN3xtl6detail18sequence_forwarderISt5arrayImLm2EES3_E7forwardIRKS3_EEOT_S9_ = comdat any

$_ZN2xt6detail15compute_stridesILNS_11layout_typeE1ESt5arrayImLm2EES3_IlLm2EEPS5_EEmRKT0_S2_RT1_T2_ = comdat any

$_ZNSt5arrayIlLm2EEixEm = comdat any

$_ZNKSt5arrayImLm2EEixEm = comdat any

$_ZN2xt6detail13adapt_stridesISt5arrayImLm2EES2_IlLm2EEPS4_EEvRKT_RT0_T1_NS9_9size_typeE = comdat any

$_ZNSt14__array_traitsIlLm2EE6_S_refERA2_Klm = comdat any

$_ZNSt14__array_traitsImLm2EE6_S_refERA2_Kmm = comdat any

$_ZNR2xt10xcontainerINS_17xtensor_containerINS_7uvectorIdSaIdEEELm2ELNS_11layout_typeE1ENS_22xtensor_expression_tagEEEE12derived_castEv = comdat any

$_ZN2xt17xtensor_containerINS_7uvectorIdSaIdEEELm2ELNS_11layout_typeE1ENS_22xtensor_expression_tagEE12storage_implEv = comdat any

$_ZN2xt6detail14make_xfunctionINS0_10multipliesEJRKdRNS_17xtensor_containerINS_7uvectorIdSaIdEEELm3ELNS_11layout_typeE1ENS_22xtensor_expression_tagEEEEEEDaDpOT0_ = comdat any

$_ZN2xt9xfunctionINS_6detail10multipliesEJNS_7xscalarIRKdEERKNS_17xtensor_containerINS_7uvectorIdSaIdEEELm3ELNS_11layout_typeE1ENS_22xtensor_expression_tagEEEEEC2IS2_JS5_RSD_EvEEOT_DpOT0_ = comdat any

$_ZN2xt20xsharable_expressionINS_9xfunctionINS_6detail10multipliesEJNS_7xscalarIRKdEERKNS_17xtensor_containerINS_7uvectorIdSaIdEEELm3ELNS_11layout_typeE1ENS_22xtensor_expression_tagEEEEEEEC2Ev = comdat any

$_ZNSt5tupleIJN2xt7xscalarIRKdEERKNS0_17xtensor_containerINS0_7uvectorIdSaIdEEELm3ELNS0_11layout_typeE1ENS0_22xtensor_expression_tagEEEEEC2IS3_RSB_TnNSt9enable_ifIXclsr4_TCCIXntcl14__is_alloc_argIT_EEEEE29__is_implicitly_constructibleISI_T0_EEEbE4typeELb1EEEOSI_OSJ_ = comdat any

$_ZN2xt15xfunction_cacheINS_6detail13promote_indexIJSt5arrayImLm0EES3_ImLm3EEEEEEC2Ev = comdat any

$_ZNSt10shared_ptrIN2xt9xfunctionINS0_6detail10multipliesEJNS0_7xscalarIRKdEERKNS0_17xtensor_containerINS0_7uvectorIdSaIdEEELm3ELNS0_11layout_typeE1ENS0_22xtensor_expression_tagEEEEEEEC2EDn = comdat any

$_ZNSt10shared_ptrIN2xt9xfunctionINS0_6detail10multipliesEJNS0_7xscalarIRKdEERKNS0_17xtensor_containerINS0_7uvectorIdSaIdEEELm3ELNS0_11layout_typeE1ENS0_22xtensor_expression_tagEEEEEEEC2Ev = comdat any

$_ZNSt12__shared_ptrIN2xt9xfunctionINS0_6detail10multipliesEJNS0_7xscalarIRKdEERKNS0_17xtensor_containerINS0_7uvectorIdSaIdEEELm3ELNS0_11layout_typeE1ENS0_22xtensor_expression_tagEEEEEELN9__gnu_cxx12_Lock_policyE2EEC2Ev = comdat any

$_ZNSt11_Tuple_implILm0EJN2xt7xscalarIRKdEERKNS0_17xtensor_containerINS0_7uvectorIdSaIdEEELm3ELNS0_11layout_typeE1ENS0_22xtensor_expression_tagEEEEEC2IS3_JRSB_EvEEOT_DpOT0_ = comdat any

$_ZNSt11_Tuple_implILm1EJRKN2xt17xtensor_containerINS0_7uvectorIdSaIdEEELm3ELNS0_11layout_typeE1ENS0_22xtensor_expression_tagEEEEEC2IRS7_EEOT_ = comdat any

$_ZNSt10_Head_baseILm0EN2xt7xscalarIRKdEELb0EEC2IS3_EEOT_ = comdat any

$_ZNSt10_Head_baseILm1ERKN2xt17xtensor_containerINS0_7uvectorIdSaIdEEELm3ELNS0_11layout_typeE1ENS0_22xtensor_expression_tagEEELb0EEC2IRS7_EEOT_ = comdat any

$_ZN2xt7xscalarIRKdEC2ES2_ = comdat any

$_ZN2xt20xsharable_expressionINS_7xscalarIRKdEEEC2Ev = comdat any

$_ZNSt10shared_ptrIN2xt7xscalarIRKdEEEC2EDn = comdat any

$_ZNSt10shared_ptrIN2xt7xscalarIRKdEEEC2Ev = comdat any

$_ZNSt12__shared_ptrIN2xt7xscalarIRKdEELN9__gnu_cxx12_Lock_policyE2EEC2Ev = comdat any

$_ZN2xt6detail20xfunction_cache_implISt5arrayImLm3EENS0_13promote_indexIJS2_ImLm0EES3_EEEEC2Ev = comdat any

$_ZN2xtplIRNS_17xtensor_containerINS_7uvectorIdSaIdEEELm3ELNS_11layout_typeE1ENS_22xtensor_expression_tagEEERKNS_9xfunctionINS_6detail10multipliesEJNS_7xscalarIRKdEERKS7_EEEEENSt9enable_ifIXsr15has_xexpressionINSt5decayIT_E4typeENSM_IT0_E4typeEEE5valueENSA_14xfunction_typeINSA_4plusEJSN_SQ_EEEE4type4typeEOSN_OSQ_ = comdat any

$_ZNR2xt11xexpressionINS_17xtensor_containerINS_7uvectorIdSaIdEEELm3ELNS_11layout_typeE1ENS_22xtensor_expression_tagEEEE12derived_castEv = comdat any

$_ZNKR2xt11xexpressionINS_9xfunctionINS_6detail10multipliesEJNS_7xscalarIRKdEERKNS_17xtensor_containerINS_7uvectorIdSaIdEEELm3ELNS_11layout_typeE1ENS_22xtensor_expression_tagEEEEEEE12derived_castEv = comdat any

$_ZN2xt17xtensor_containerINS_7uvectorIdSaIdEEELm3ELNS_11layout_typeE1ENS_22xtensor_expression_tagEEaSINS_9xfunctionINS_6detail4plusEJRKS6_RKNS8_INS9_10multipliesEJNS_7xscalarIRKdEESC_EEEEEEEERS6_RKNS_11xexpressionIT_EE = comdat any

$_ZN2xt20xsharable_expressionINS_9xfunctionINS_6detail4plusEJRKNS_17xtensor_containerINS_7uvectorIdSaIdEEELm3ELNS_11layout_typeE1ENS_22xtensor_expression_tagEEERKNS1_INS2_10multipliesEJNS_7xscalarIRKdEESC_EEEEEEED2Ev = comdat any

$_ZN2xt6detail14make_xfunctionINS0_4plusEJRNS_17xtensor_containerINS_7uvectorIdSaIdEEELm3ELNS_11layout_typeE1ENS_22xtensor_expression_tagEEERKNS_9xfunctionINS0_10multipliesEJNS_7xscalarIRKdEERKS9_EEEEEEDaDpOT0_ = comdat any

$_ZN2xt9xfunctionINS_6detail4plusEJRKNS_17xtensor_containerINS_7uvectorIdSaIdEEELm3ELNS_11layout_typeE1ENS_22xtensor_expression_tagEEERKNS0_INS1_10multipliesEJNS_7xscalarIRKdEESB_EEEEEC2IS2_JRS9_SJ_EvEEOT_DpOT0_ = comdat any

$_ZN2xt20xsharable_expressionINS_9xfunctionINS_6detail4plusEJRKNS_17xtensor_containerINS_7uvectorIdSaIdEEELm3ELNS_11layout_typeE1ENS_22xtensor_expression_tagEEERKNS1_INS2_10multipliesEJNS_7xscalarIRKdEESC_EEEEEEEC2Ev = comdat any

$_ZNSt5tupleIJRKN2xt17xtensor_containerINS0_7uvectorIdSaIdEEELm3ELNS0_11layout_typeE1ENS0_22xtensor_expression_tagEEERKNS0_9xfunctionINS0_6detail10multipliesEJNS0_7xscalarIRKdEES9_EEEEEC2IRS7_SJ_TnNSt9enable_ifIXclsr4_TCCIXntcl14__is_alloc_argIT_EEEEE29__is_implicitly_constructibleISO_T0_EEEbE4typeELb1EEEOSO_OSP_ = comdat any

$_ZN2xt15xfunction_cacheINS_6detail13promote_indexIJSt5arrayImLm3EES4_EEEEC2Ev = comdat any

$_ZNSt10shared_ptrIN2xt9xfunctionINS0_6detail4plusEJRKNS0_17xtensor_containerINS0_7uvectorIdSaIdEEELm3ELNS0_11layout_typeE1ENS0_22xtensor_expression_tagEEERKNS1_INS2_10multipliesEJNS0_7xscalarIRKdEESC_EEEEEEEC2EDn = comdat any

$_ZNSt10shared_ptrIN2xt9xfunctionINS0_6detail4plusEJRKNS0_17xtensor_containerINS0_7uvectorIdSaIdEEELm3ELNS0_11layout_typeE1ENS0_22xtensor_expression_tagEEERKNS1_INS2_10multipliesEJNS0_7xscalarIRKdEESC_EEEEEEEC2Ev = comdat any

$_ZNSt12__shared_ptrIN2xt9xfunctionINS0_6detail4plusEJRKNS0_17xtensor_containerINS0_7uvectorIdSaIdEEELm3ELNS0_11layout_typeE1ENS0_22xtensor_expression_tagEEERKNS1_INS2_10multipliesEJNS0_7xscalarIRKdEESC_EEEEEELN9__gnu_cxx12_Lock_policyE2EEC2Ev = comdat any

$_ZNSt11_Tuple_implILm0EJRKN2xt17xtensor_containerINS0_7uvectorIdSaIdEEELm3ELNS0_11layout_typeE1ENS0_22xtensor_expression_tagEEERKNS0_9xfunctionINS0_6detail10multipliesEJNS0_7xscalarIRKdEES9_EEEEEC2IRS7_JSJ_EvEEOT_DpOT0_ = comdat any

$_ZNSt11_Tuple_implILm1EJRKN2xt9xfunctionINS0_6detail10multipliesEJNS0_7xscalarIRKdEERKNS0_17xtensor_containerINS0_7uvectorIdSaIdEEELm3ELNS0_11layout_typeE1ENS0_22xtensor_expression_tagEEEEEEEEC2ESJ_ = comdat any

$_ZNSt10_Head_baseILm0ERKN2xt17xtensor_containerINS0_7uvectorIdSaIdEEELm3ELNS0_11layout_typeE1ENS0_22xtensor_expression_tagEEELb0EEC2IRS7_EEOT_ = comdat any

$_ZNSt10_Head_baseILm1ERKN2xt9xfunctionINS0_6detail10multipliesEJNS0_7xscalarIRKdEERKNS0_17xtensor_containerINS0_7uvectorIdSaIdEEELm3ELNS0_11layout_typeE1ENS0_22xtensor_expression_tagEEEEEELb0EEC2ESJ_ = comdat any

$_ZN2xt6detail20xfunction_cache_implISt5arrayImLm3EENS0_13promote_indexIJS3_S3_EEEEC2Ev = comdat any

$_ZN2xt19xcontainer_semanticINS_17xtensor_containerINS_7uvectorIdSaIdEEELm3ELNS_11layout_typeE1ENS_22xtensor_expression_tagEEEEaSINS_9xfunctionINS_6detail4plusEJRKS7_RKNSA_INSB_10multipliesEJNS_7xscalarIRKdEESE_EEEEEEEERS7_RKNS_11xexpressionIT_EE = comdat any

$_ZN2xt14xsemantic_baseINS_17xtensor_containerINS_7uvectorIdSaIdEEELm3ELNS_11layout_typeE1ENS_22xtensor_expression_tagEEEEaSINS_9xfunctionINS_6detail4plusEJRKS7_RKNSA_INSB_10multipliesEJNS_7xscalarIRKdEESE_EEEEEEEERS7_RKNS_11xexpressionIT_EE = comdat any

$_ZN2xt17xtensor_containerINS_7uvectorIdSaIdEEELm3ELNS_11layout_typeE1ENS_22xtensor_expression_tagEEC2INS_9xfunctionINS_6detail4plusEJRKS6_RKNS8_INS9_10multipliesEJNS_7xscalarIRKdEESC_EEEEEEEERKNS_11xexpressionIT_EE = comdat any

$_ZN2xt19xcontainer_semanticINS_17xtensor_containerINS_7uvectorIdSaIdEEELm3ELNS_11layout_typeE1ENS_22xtensor_expression_tagEEEE16assign_temporaryEOS7_ = comdat any

$_ZNKR2xt11xexpressionINS_9xfunctionINS_6detail4plusEJRKNS_17xtensor_containerINS_7uvectorIdSaIdEEELm3ELNS_11layout_typeE1ENS_22xtensor_expression_tagEEERKNS1_INS2_10multipliesEJNS_7xscalarIRKdEESC_EEEEEEE12derived_castEv = comdat any

$_ZNK2xt9xfunctionINS_6detail4plusEJRKNS_17xtensor_containerINS_7uvectorIdSaIdEEELm3ELNS_11layout_typeE1ENS_22xtensor_expression_tagEEERKNS0_INS1_10multipliesEJNS_7xscalarIRKdEESB_EEEEE9dimensionEv = comdat any

$_ZN2xt14xsemantic_baseINS_17xtensor_containerINS_7uvectorIdSaIdEEELm3ELNS_11layout_typeE1ENS_22xtensor_expression_tagEEEE6assignINS_9xfunctionINS_6detail4plusEJRKS7_RKNSA_INSB_10multipliesEJNS_7xscalarIRKdEESE_EEEEEEEERS7_RKNS_11xexpressionIT_EE = comdat any

$_ZNK2xt9xfunctionINS_6detail4plusEJRKNS_17xtensor_containerINS_7uvectorIdSaIdEEELm3ELNS_11layout_typeE1ENS_22xtensor_expression_tagEEERKNS0_INS1_10multipliesEJNS_7xscalarIRKdEESB_EEEEE17compute_dimensionEv = comdat any

$_ZN2xt10accumulateIRZNKS_9xfunctionINS_6detail4plusEJRKNS_17xtensor_containerINS_7uvectorIdSaIdEEELm3ELNS_11layout_typeE1ENS_22xtensor_expression_tagEEERKNS1_INS2_10multipliesEJNS_7xscalarIRKdEESC_EEEEE17compute_dimensionEvEUlmOT_E_mJSC_SK_EEET0_SN_SQ_RKSt5tupleIJDpT1_EE = comdat any

$_ZN2xt6detail15accumulate_implILm0ERZNKS_9xfunctionINS0_4plusEJRKNS_17xtensor_containerINS_7uvectorIdSaIdEEELm3ELNS_11layout_typeE1ENS_22xtensor_expression_tagEEERKNS2_INS0_10multipliesEJNS_7xscalarIRKdEESC_EEEEE17compute_dimensionEvEUlmOT_E_mJSC_SK_EEENSt9enable_ifIXltT_sZT2_ET1_E4typeEOT0_SR_RKSt5tupleIJDpT2_EE = comdat any

$_ZZNK2xt9xfunctionINS_6detail4plusEJRKNS_17xtensor_containerINS_7uvectorIdSaIdEEELm3ELNS_11layout_typeE1ENS_22xtensor_expression_tagEEERKNS0_INS1_10multipliesEJNS_7xscalarIRKdEESB_EEEEE17compute_dimensionEvENKUlmOT_E_clISB_EEDamSM_ = comdat any

$_ZSt3getILm0EJRKN2xt17xtensor_containerINS0_7uvectorIdSaIdEEELm3ELNS0_11layout_typeE1ENS0_22xtensor_expression_tagEEERKNS0_9xfunctionINS0_6detail10multipliesEJNS0_7xscalarIRKdEES9_EEEEERKNSt13tuple_elementIXT_ESt5tupleIJDpT0_EEE4typeERKSO_ = comdat any

$_ZN2xt6detail15accumulate_implILm1ERZNKS_9xfunctionINS0_4plusEJRKNS_17xtensor_containerINS_7uvectorIdSaIdEEELm3ELNS_11layout_typeE1ENS_22xtensor_expression_tagEEERKNS2_INS0_10multipliesEJNS_7xscalarIRKdEESC_EEEEE17compute_dimensionEvEUlmOT_E_mJSC_SK_EEENSt9enable_ifIXltT_sZT2_ET1_E4typeEOT0_SR_RKSt5tupleIJDpT2_EE = comdat any

$_ZSt12__get_helperILm0ERKN2xt17xtensor_containerINS0_7uvectorIdSaIdEEELm3ELNS0_11layout_typeE1ENS0_22xtensor_expression_tagEEEJRKNS0_9xfunctionINS0_6detail10multipliesEJNS0_7xscalarIRKdEES9_EEEEERKT0_RKSt11_Tuple_implIXT_EJSK_DpT1_EE = comdat any

$_ZNSt11_Tuple_implILm0EJRKN2xt17xtensor_containerINS0_7uvectorIdSaIdEEELm3ELNS0_11layout_typeE1ENS0_22xtensor_expression_tagEEERKNS0_9xfunctionINS0_6detail10multipliesEJNS0_7xscalarIRKdEES9_EEEEE7_M_headERKSK_ = comdat any

$_ZNSt10_Head_baseILm0ERKN2xt17xtensor_containerINS0_7uvectorIdSaIdEEELm3ELNS0_11layout_typeE1ENS0_22xtensor_expression_tagEEELb0EE7_M_headERKSA_ = comdat any

$_ZZNK2xt9xfunctionINS_6detail4plusEJRKNS_17xtensor_containerINS_7uvectorIdSaIdEEELm3ELNS_11layout_typeE1ENS_22xtensor_expression_tagEEERKNS0_INS1_10multipliesEJNS_7xscalarIRKdEESB_EEEEE17compute_dimensionEvENKUlmOT_E_clISJ_EEDamSM_ = comdat any

$_ZSt3getILm1EJRKN2xt17xtensor_containerINS0_7uvectorIdSaIdEEELm3ELNS0_11layout_typeE1ENS0_22xtensor_expression_tagEEERKNS0_9xfunctionINS0_6detail10multipliesEJNS0_7xscalarIRKdEES9_EEEEERKNSt13tuple_elementIXT_ESt5tupleIJDpT0_EEE4typeERKSO_ = comdat any

$_ZN2xt6detail15accumulate_implILm2ERZNKS_9xfunctionINS0_4plusEJRKNS_17xtensor_containerINS_7uvectorIdSaIdEEELm3ELNS_11layout_typeE1ENS_22xtensor_expression_tagEEERKNS2_INS0_10multipliesEJNS_7xscalarIRKdEESC_EEEEE17compute_dimensionEvEUlmOT_E_mJSC_SK_EEENSt9enable_ifIXeqT_sZT2_ET1_E4typeEOT0_SR_RKSt5tupleIJDpT2_EE = comdat any

$_ZNK2xt9xfunctionINS_6detail10multipliesEJNS_7xscalarIRKdEERKNS_17xtensor_containerINS_7uvectorIdSaIdEEELm3ELNS_11layout_typeE1ENS_22xtensor_expression_tagEEEEE9dimensionEv = comdat any

$_ZNK2xt9xfunctionINS_6detail10multipliesEJNS_7xscalarIRKdEERKNS_17xtensor_containerINS_7uvectorIdSaIdEEELm3ELNS_11layout_typeE1ENS_22xtensor_expression_tagEEEEE17compute_dimensionEv = comdat any

$_ZN2xt10accumulateIRZNKS_9xfunctionINS_6detail10multipliesEJNS_7xscalarIRKdEERKNS_17xtensor_containerINS_7uvectorIdSaIdEEELm3ELNS_11layout_typeE1ENS_22xtensor_expression_tagEEEEE17compute_dimensionEvEUlmOT_E_mJS7_SG_EEET0_SJ_SM_RKSt5tupleIJDpT1_EE = comdat any

$_ZN2xt6detail15accumulate_implILm0ERZNKS_9xfunctionINS0_10multipliesEJNS_7xscalarIRKdEERKNS_17xtensor_containerINS_7uvectorIdSaIdEEELm3ELNS_11layout_typeE1ENS_22xtensor_expression_tagEEEEE17compute_dimensionEvEUlmOT_E_mJS7_SG_EEENSt9enable_ifIXltT_sZT2_ET1_E4typeEOT0_SN_RKSt5tupleIJDpT2_EE = comdat any

$_ZZNK2xt9xfunctionINS_6detail10multipliesEJNS_7xscalarIRKdEERKNS_17xtensor_containerINS_7uvectorIdSaIdEEELm3ELNS_11layout_typeE1ENS_22xtensor_expression_tagEEEEE17compute_dimensionEvENKUlmOT_E_clIRKS6_EEDamSI_ = comdat any

$_ZSt3getILm0EJN2xt7xscalarIRKdEERKNS0_17xtensor_containerINS0_7uvectorIdSaIdEEELm3ELNS0_11layout_typeE1ENS0_22xtensor_expression_tagEEEEERKNSt13tuple_elementIXT_ESt5tupleIJDpT0_EEE4typeERKSI_ = comdat any

$_ZN2xt6detail15accumulate_implILm1ERZNKS_9xfunctionINS0_10multipliesEJNS_7xscalarIRKdEERKNS_17xtensor_containerINS_7uvectorIdSaIdEEELm3ELNS_11layout_typeE1ENS_22xtensor_expression_tagEEEEE17compute_dimensionEvEUlmOT_E_mJS7_SG_EEENSt9enable_ifIXltT_sZT2_ET1_E4typeEOT0_SN_RKSt5tupleIJDpT2_EE = comdat any

$_ZNK2xt17xconst_accessibleINS_7xscalarIRKdEEE9dimensionEv = comdat any

$_ZNK2xt17xconst_accessibleINS_7xscalarIRKdEEE12derived_castEv = comdat any

$_ZNK2xt7xscalarIRKdE5shapeEv = comdat any

$_ZNKSt5arrayImLm0EE4sizeEv = comdat any

$_ZSt12__get_helperILm0EN2xt7xscalarIRKdEEJRKNS0_17xtensor_containerINS0_7uvectorIdSaIdEEELm3ELNS0_11layout_typeE1ENS0_22xtensor_expression_tagEEEEERKT0_RKSt11_Tuple_implIXT_EJSE_DpT1_EE = comdat any

$_ZNSt11_Tuple_implILm0EJN2xt7xscalarIRKdEERKNS0_17xtensor_containerINS0_7uvectorIdSaIdEEELm3ELNS0_11layout_typeE1ENS0_22xtensor_expression_tagEEEEE7_M_headERKSE_ = comdat any

$_ZNSt10_Head_baseILm0EN2xt7xscalarIRKdEELb0EE7_M_headERKS5_ = comdat any

$_ZZNK2xt9xfunctionINS_6detail10multipliesEJNS_7xscalarIRKdEERKNS_17xtensor_containerINS_7uvectorIdSaIdEEELm3ELNS_11layout_typeE1ENS_22xtensor_expression_tagEEEEE17compute_dimensionEvENKUlmOT_E_clISF_EEDamSI_ = comdat any

$_ZSt3getILm1EJN2xt7xscalarIRKdEERKNS0_17xtensor_containerINS0_7uvectorIdSaIdEEELm3ELNS0_11layout_typeE1ENS0_22xtensor_expression_tagEEEEERKNSt13tuple_elementIXT_ESt5tupleIJDpT0_EEE4typeERKSI_ = comdat any

$_ZN2xt6detail15accumulate_implILm2ERZNKS_9xfunctionINS0_10multipliesEJNS_7xscalarIRKdEERKNS_17xtensor_containerINS_7uvectorIdSaIdEEELm3ELNS_11layout_typeE1ENS_22xtensor_expression_tagEEEEE17compute_dimensionEvEUlmOT_E_mJS7_SG_EEENSt9enable_ifIXeqT_sZT2_ET1_E4typeEOT0_SN_RKSt5tupleIJDpT2_EE = comdat any

$_ZSt12__get_helperILm1ERKN2xt17xtensor_containerINS0_7uvectorIdSaIdEEELm3ELNS0_11layout_typeE1ENS0_22xtensor_expression_tagEEEJEERKT0_RKSt11_Tuple_implIXT_EJSA_DpT1_EE = comdat any

$_ZNSt11_Tuple_implILm1EJRKN2xt17xtensor_containerINS0_7uvectorIdSaIdEEELm3ELNS0_11layout_typeE1ENS0_22xtensor_expression_tagEEEEE7_M_headERKSA_ = comdat any

$_ZNSt10_Head_baseILm1ERKN2xt17xtensor_containerINS0_7uvectorIdSaIdEEELm3ELNS0_11layout_typeE1ENS0_22xtensor_expression_tagEEELb0EE7_M_headERKSA_ = comdat any

$_ZSt12__get_helperILm1ERKN2xt9xfunctionINS0_6detail10multipliesEJNS0_7xscalarIRKdEERKNS0_17xtensor_containerINS0_7uvectorIdSaIdEEELm3ELNS0_11layout_typeE1ENS0_22xtensor_expression_tagEEEEEEJEERKT0_RKSt11_Tuple_implIXT_EJSK_DpT1_EE = comdat any

$_ZNSt11_Tuple_implILm1EJRKN2xt9xfunctionINS0_6detail10multipliesEJNS0_7xscalarIRKdEERKNS0_17xtensor_containerINS0_7uvectorIdSaIdEEELm3ELNS0_11layout_typeE1ENS0_22xtensor_expression_tagEEEEEEEE7_M_headERKSK_ = comdat any

$_ZNSt10_Head_baseILm1ERKN2xt9xfunctionINS0_6detail10multipliesEJNS0_7xscalarIRKdEERKNS0_17xtensor_containerINS0_7uvectorIdSaIdEEELm3ELNS0_11layout_typeE1ENS0_22xtensor_expression_tagEEEEEELb0EE7_M_headERKSK_ = comdat any

$_ZN2xt19xcontainer_semanticINS_17xtensor_containerINS_7uvectorIdSaIdEEELm3ELNS_11layout_typeE1ENS_22xtensor_expression_tagEEEE18assign_xexpressionINS_9xfunctionINS_6detail4plusEJRKS7_RKNSA_INSB_10multipliesEJNS_7xscalarIRKdEESE_EEEEEEEERS7_RKNS_11xexpressionIT_EE = comdat any

$_ZN2xt18assign_xexpressionINS_17xtensor_containerINS_7uvectorIdSaIdEEELm3ELNS_11layout_typeE1ENS_22xtensor_expression_tagEEENS_9xfunctionINS_6detail4plusEJRKS7_RKNS8_INS9_10multipliesEJNS_7xscalarIRKdEESC_EEEEEEEEvRNS_11xexpressionIT_EERKNSM_IT0_EE = comdat any

$_ZN3xtl3mpl9static_ifILb0EZN2xt18assign_xexpressionINS2_17xtensor_containerINS2_7uvectorIdSaIdEEELm3ELNS2_11layout_typeE1ENS2_22xtensor_expression_tagEEENS2_9xfunctionINS2_6detail4plusEJRKSA_RKNSB_INSC_10multipliesEJNS2_7xscalarIRKdEESF_EEEEEEEEvRNS2_11xexpressionIT_EERKNSP_IT0_EEEUlSQ_E_ZNS3_ISA_SO_EEvSS_SW_EUlSQ_E0_EEDcRKST_RKT1_ = comdat any

$_ZN3xtl3mpl9static_ifIZN2xt18assign_xexpressionINS2_17xtensor_containerINS2_7uvectorIdSaIdEEELm3ELNS2_11layout_typeE1ENS2_22xtensor_expression_tagEEENS2_9xfunctionINS2_6detail4plusEJRKSA_RKNSB_INSC_10multipliesEJNS2_7xscalarIRKdEESF_EEEEEEEEvRNS2_11xexpressionIT_EERKNSP_IT0_EEEUlSQ_E_ZNS3_ISA_SO_EEvSS_SW_EUlSQ_E0_EEDcSt17integral_constantIbLb0EERKSQ_RKST_ = comdat any

$_ZZN2xt18assign_xexpressionINS_17xtensor_containerINS_7uvectorIdSaIdEEELm3ELNS_11layout_typeE1ENS_22xtensor_expression_tagEEENS_9xfunctionINS_6detail4plusEJRKS7_RKNS8_INS9_10multipliesEJNS_7xscalarIRKdEESC_EEEEEEEEvRNS_11xexpressionIT_EERKNSM_IT0_EEENKUlSN_E0_clIN3xtl8identityEEEDaSN_ = comdat any

$_ZN2xt20xexpression_assignerINS_22xtensor_expression_tagEE18assign_xexpressionINS_11xexpressionINS_17xtensor_containerINS_7uvectorIdSaIdEEELm3ELNS_11layout_typeE1ES1_EEEENS4_INS_9xfunctionINS_6detail4plusEJRKSA_RKNSC_INSD_10multipliesEJNS_7xscalarIRKdEESG_EEEEEEEEEEvRT_RKT0_ = comdat any

$_ZN2xt20xexpression_assignerINS_22xtensor_expression_tagEE6resizeINS_17xtensor_containerINS_7uvectorIdSaIdEEELm3ELNS_11layout_typeE1ES1_EENS_6detail4plusEJRKS9_RKNS_9xfunctionINSA_10multipliesEJNS_7xscalarIRKdEESD_EEEEEEbRT_RKNSE_IT0_JDpT1_EEE = comdat any

$_ZN2xt25xexpression_assigner_baseINS_22xtensor_expression_tagEE11assign_dataINS_17xtensor_containerINS_7uvectorIdSaIdEEELm3ELNS_11layout_typeE1ES1_EENS_9xfunctionINS_6detail4plusEJRKS9_RKNSA_INSB_10multipliesEJNS_7xscalarIRKdEESE_EEEEEEEEvRNS_11xexpressionIT_EERKNSO_IT0_EEb = comdat any

$_ZN3xtl3mpl9static_ifILb0EZN2xt20xexpression_assignerINS2_22xtensor_expression_tagEE6resizeINS2_17xtensor_containerINS2_7uvectorIdSaIdEEELm3ELNS2_11layout_typeE1ES4_EENS2_6detail4plusEJRKSC_RKNS2_9xfunctionINSD_10multipliesEJNS2_7xscalarIRKdEESG_EEEEEEbRT_RKNSH_IT0_JDpT1_EEEEUlSQ_E_ZNS6_ISC_SE_JSG_SP_EEEbSR_SX_EUlSQ_E0_EEDcRKSS_RKT1_ = comdat any

$_ZN3xtl3mpl9static_ifIZN2xt20xexpression_assignerINS2_22xtensor_expression_tagEE6resizeINS2_17xtensor_containerINS2_7uvectorIdSaIdEEELm3ELNS2_11layout_typeE1ES4_EENS2_6detail4plusEJRKSC_RKNS2_9xfunctionINSD_10multipliesEJNS2_7xscalarIRKdEESG_EEEEEEbRT_RKNSH_IT0_JDpT1_EEEEUlSQ_E_ZNS6_ISC_SE_JSG_SP_EEEbSR_SX_EUlSQ_E0_EEDcSt17integral_constantIbLb0EERKSQ_RKSS_ = comdat any

$_ZZN2xt20xexpression_assignerINS_22xtensor_expression_tagEE6resizeINS_17xtensor_containerINS_7uvectorIdSaIdEEELm3ELNS_11layout_typeE1ES1_EENS_6detail4plusEJRKS9_RKNS_9xfunctionINSA_10multipliesEJNS_7xscalarIRKdEESD_EEEEEEbRT_RKNSE_IT0_JDpT1_EEEENKUlSN_E0_clIN3xtl8identityEEEDaSN_ = comdat any

$_ZN2xt19uninitialized_shapeISt5arrayImLm3EEmEET_T0_ = comdat any

$_ZNK2xt9xfunctionINS_6detail4plusEJRKNS_17xtensor_containerINS_7uvectorIdSaIdEEELm3ELNS_11layout_typeE1ENS_22xtensor_expression_tagEEERKNS0_INS1_10multipliesEJNS_7xscalarIRKdEESB_EEEEE15broadcast_shapeISt5arrayImLm3EEEEbRT_b = comdat any

$_ZN2xt18xstrided_containerINS_17xtensor_containerINS_7uvectorIdSaIdEEELm3ELNS_11layout_typeE1ENS_22xtensor_expression_tagEEEE6resizeISt5arrayImLm3EEEEvOT_b = comdat any

$_ZNSt14numeric_limitsImE3maxEv = comdat any

$_ZSt4copyIPKmPmET0_T_S4_S3_ = comdat any

$_ZNKSt5arrayImLm3EE6cbeginEv = comdat any

$_ZNKSt5arrayImLm3EE4cendEv = comdat any

$_ZN2xt10accumulateIRZNKS_9xfunctionINS_6detail4plusEJRKNS_17xtensor_containerINS_7uvectorIdSaIdEEELm3ELNS_11layout_typeE1ENS_22xtensor_expression_tagEEERKNS1_INS2_10multipliesEJNS_7xscalarIRKdEESC_EEEEE15broadcast_shapeISt5arrayImLm3EEEEbRT_bEUlbOSP_E_bJSC_SK_EEET0_SR_SU_RKSt5tupleIJDpT1_EE = comdat any

$_ZSt13__copy_move_aILb0EPKmPmET1_T0_S4_S3_ = comdat any

$_ZSt12__miter_baseIPKmET_S2_ = comdat any

$_ZSt12__niter_wrapIPmET_RKS1_S1_ = comdat any

$_ZSt14__copy_move_a1ILb0EPKmPmET1_T0_S4_S3_ = comdat any

$_ZSt14__copy_move_a2ILb0EPKmPmET1_T0_S4_S3_ = comdat any

$_ZNSt11__copy_moveILb0ELb1ESt26random_access_iterator_tagE8__copy_mImEEPT_PKS3_S6_S4_ = comdat any

$_ZN2xt6detail15accumulate_implILm0ERZNKS_9xfunctionINS0_4plusEJRKNS_17xtensor_containerINS_7uvectorIdSaIdEEELm3ELNS_11layout_typeE1ENS_22xtensor_expression_tagEEERKNS2_INS0_10multipliesEJNS_7xscalarIRKdEESC_EEEEE15broadcast_shapeISt5arrayImLm3EEEEbRT_bEUlbOSP_E_bJSC_SK_EEENSt9enable_ifIXltT_sZT2_ET1_E4typeEOT0_SV_RKSt5tupleIJDpT2_EE = comdat any

$_ZZNK2xt9xfunctionINS_6detail4plusEJRKNS_17xtensor_containerINS_7uvectorIdSaIdEEELm3ELNS_11layout_typeE1ENS_22xtensor_expression_tagEEERKNS0_INS1_10multipliesEJNS_7xscalarIRKdEESB_EEEEE15broadcast_shapeISt5arrayImLm3EEEEbRT_bENKUlbOSO_E_clISB_EEDabSQ_ = comdat any

$_ZN2xt6detail15accumulate_implILm1ERZNKS_9xfunctionINS0_4plusEJRKNS_17xtensor_containerINS_7uvectorIdSaIdEEELm3ELNS_11layout_typeE1ENS_22xtensor_expression_tagEEERKNS2_INS0_10multipliesEJNS_7xscalarIRKdEESC_EEEEE15broadcast_shapeISt5arrayImLm3EEEEbRT_bEUlbOSP_E_bJSC_SK_EEENSt9enable_ifIXltT_sZT2_ET1_E4typeEOT0_SV_RKSt5tupleIJDpT2_EE = comdat any

$_ZNK2xt10xcontainerINS_17xtensor_containerINS_7uvectorIdSaIdEEELm3ELNS_11layout_typeE1ENS_22xtensor_expression_tagEEEE15broadcast_shapeISt5arrayImLm3EEEEbRT_b = comdat any

$_ZN2xt15broadcast_shapeISt5arrayImLm3EES2_EEbRKT_RT0_ = comdat any

$_ZN2xt21throw_broadcast_errorISt5arrayImLm3EES2_EEvRKT_RKT0_ = comdat any

$_ZNSt5arrayImLm3EEixEm = comdat any

$_ZN2xt6detail19shape_error_messageISt5arrayImLm3EES3_EENSt7__cxx1112basic_stringIcSt11char_traitsIcESaIcEEERKT_RKT0_ = comdat any

$_ZN2xt15broadcast_errorC2EPKc = comdat any

$_ZNSt7__cxx1112basic_stringIcSt11char_traitsIcESaIcEEC2IS3_EEPKcRKS3_ = comdat any

$_ZNSt16ostream_iteratorImcSt11char_traitsIcEEC2ERSoPKc = comdat any

$_ZSt4copyIPKmSt16ostream_iteratorImcSt11char_traitsIcEEET0_T_S7_S6_ = comdat any

$_ZNSt16ostream_iteratorImcSt11char_traitsIcEEC2ERKS2_ = comdat any

$_ZNSt7__cxx1112basic_stringIcSt11char_traitsIcESaIcEE12_M_constructIPKcEEvT_S8_St20forward_iterator_tag = comdat any

$_ZSt8distanceIPKcENSt15iterator_traitsIT_E15difference_typeES3_S3_ = comdat any

$_ZZNSt7__cxx1112basic_stringIcSt11char_traitsIcESaIcEE12_M_constructIPKcEEvT_S8_St20forward_iterator_tagEN6_GuardC2EPS4_ = comdat any

$_ZZNSt7__cxx1112basic_stringIcSt11char_traitsIcESaIcEE12_M_constructIPKcEEvT_S8_St20forward_iterator_tagEN6_GuardD2Ev = comdat any

$_ZSt10__distanceIPKcENSt15iterator_traitsIT_E15difference_typeES3_S3_St26random_access_iterator_tag = comdat any

$_ZSt19__iterator_categoryIPKcENSt15iterator_traitsIT_E17iterator_categoryERKS3_ = comdat any

$_ZStorSt13_Ios_OpenmodeS_ = comdat any

$_ZNSt7__cxx1115basic_stringbufIcSt11char_traitsIcESaIcEED2Ev = comdat any

$_ZStanSt13_Ios_OpenmodeS_ = comdat any

$_ZStorSt12_Ios_IostateS_ = comdat any

$_ZSt13__copy_move_aILb0EPKmSt16ostream_iteratorImcSt11char_traitsIcEEET1_T0_S7_S6_ = comdat any

$_ZSt12__niter_wrapISt16ostream_iteratorImcSt11char_traitsIcEEET_RKS4_S4_ = comdat any

$_ZSt14__copy_move_a1ILb0EPKmSt16ostream_iteratorImcSt11char_traitsIcEEET1_T0_S7_S6_ = comdat any

$_ZSt12__niter_baseISt16ostream_iteratorImcSt11char_traitsIcEEET_S4_ = comdat any

$_ZSt14__copy_move_a2ILb0EPKmSt16ostream_iteratorImcSt11char_traitsIcEEET1_T0_S7_S6_ = comdat any

$_ZNSt11__copy_moveILb0ELb0ESt26random_access_iterator_tagE8__copy_mIPKmSt16ostream_iteratorImcSt11char_traitsIcEEEET0_T_SA_S9_ = comdat any

$_ZNSt16ostream_iteratorImcSt11char_traitsIcEEdeEv = comdat any

$_ZNSt16ostream_iteratorImcSt11char_traitsIcEEaSERKm = comdat any

$_ZNSt16ostream_iteratorImcSt11char_traitsIcEEppEv = comdat any

$_ZNSt7__cxx1112basic_stringIcSt11char_traitsIcESaIcEE6assignIPcvEERS4_T_S8_ = comdat any

$_ZN9__gnu_cxx17__normal_iteratorIPKcNSt7__cxx1112basic_stringIcSt11char_traitsIcESaIcEEEEC2IPcvEERKNS0_IT_S8_EE = comdat any

$_ZN9__gnu_cxxmiIPKcPcNSt7__cxx1112basic_stringIcSt11char_traitsIcESaIcEEEEEDTmicldtfp_4baseEcldtfp0_4baseEERKNS_17__normal_iteratorIT_T1_EERKNSB_IT0_SD_EE = comdat any

$_ZN9__gnu_cxxmiIPKcNSt7__cxx1112basic_stringIcSt11char_traitsIcESaIcEEEEENS_17__normal_iteratorIT_T0_E15difference_typeERKSC_SF_ = comdat any

$_ZNK9__gnu_cxx17__normal_iteratorIPKcNSt7__cxx1112basic_stringIcSt11char_traitsIcESaIcEEEE4baseEv = comdat any

$_ZNK9__gnu_cxx17__normal_iteratorIPcNSt7__cxx1112basic_stringIcSt11char_traitsIcESaIcEEEE4baseEv = comdat any

$_ZN9__gnu_cxx17__normal_iteratorIPcNSt7__cxx1112basic_stringIcSt11char_traitsIcESaIcEEEEC2ERKS1_ = comdat any

$_ZN2xt15broadcast_errorD0Ev = comdat any

$_ZNSt14__array_traitsImLm3EE6_S_refERA3_Kmm = comdat any

$_ZZNK2xt9xfunctionINS_6detail4plusEJRKNS_17xtensor_containerINS_7uvectorIdSaIdEEELm3ELNS_11layout_typeE1ENS_22xtensor_expression_tagEEERKNS0_INS1_10multipliesEJNS_7xscalarIRKdEESB_EEEEE15broadcast_shapeISt5arrayImLm3EEEEbRT_bENKUlbOSO_E_clISJ_EEDabSQ_ = comdat any

$_ZN2xt6detail15accumulate_implILm2ERZNKS_9xfunctionINS0_4plusEJRKNS_17xtensor_containerINS_7uvectorIdSaIdEEELm3ELNS_11layout_typeE1ENS_22xtensor_expression_tagEEERKNS2_INS0_10multipliesEJNS_7xscalarIRKdEESC_EEEEE15broadcast_shapeISt5arrayImLm3EEEEbRT_bEUlbOSP_E_bJSC_SK_EEENSt9enable_ifIXeqT_sZT2_ET1_E4typeEOT0_SV_RKSt5tupleIJDpT2_EE = comdat any

$_ZNK2xt9xfunctionINS_6detail10multipliesEJNS_7xscalarIRKdEERKNS_17xtensor_containerINS_7uvectorIdSaIdEEELm3ELNS_11layout_typeE1ENS_22xtensor_expression_tagEEEEE15broadcast_shapeISt5arrayImLm3EEEEbRT_b = comdat any

$_ZN2xt10accumulateIRZNKS_9xfunctionINS_6detail10multipliesEJNS_7xscalarIRKdEERKNS_17xtensor_containerINS_7uvectorIdSaIdEEELm3ELNS_11layout_typeE1ENS_22xtensor_expression_tagEEEEE15broadcast_shapeISt5arrayImLm3EEEEbRT_bEUlbOSL_E_bJS7_SG_EEET0_SN_SQ_RKSt5tupleIJDpT1_EE = comdat any

$_ZN2xt6detail15accumulate_implILm0ERZNKS_9xfunctionINS0_10multipliesEJNS_7xscalarIRKdEERKNS_17xtensor_containerINS_7uvectorIdSaIdEEELm3ELNS_11layout_typeE1ENS_22xtensor_expression_tagEEEEE15broadcast_shapeISt5arrayImLm3EEEEbRT_bEUlbOSL_E_bJS7_SG_EEENSt9enable_ifIXltT_sZT2_ET1_E4typeEOT0_SR_RKSt5tupleIJDpT2_EE = comdat any

$_ZZNK2xt9xfunctionINS_6detail10multipliesEJNS_7xscalarIRKdEERKNS_17xtensor_containerINS_7uvectorIdSaIdEEELm3ELNS_11layout_typeE1ENS_22xtensor_expression_tagEEEEE15broadcast_shapeISt5arrayImLm3EEEEbRT_bENKUlbOSK_E_clIRKS6_EEDabSM_ = comdat any

$_ZN2xt6detail15accumulate_implILm1ERZNKS_9xfunctionINS0_10multipliesEJNS_7xscalarIRKdEERKNS_17xtensor_containerINS_7uvectorIdSaIdEEELm3ELNS_11layout_typeE1ENS_22xtensor_expression_tagEEEEE15broadcast_shapeISt5arrayImLm3EEEEbRT_bEUlbOSL_E_bJS7_SG_EEENSt9enable_ifIXltT_sZT2_ET1_E4typeEOT0_SR_RKSt5tupleIJDpT2_EE = comdat any

$_ZNK2xt7xscalarIRKdE15broadcast_shapeISt5arrayImLm3EEEEbRT_b = comdat any

$_ZZNK2xt9xfunctionINS_6detail10multipliesEJNS_7xscalarIRKdEERKNS_17xtensor_containerINS_7uvectorIdSaIdEEELm3ELNS_11layout_typeE1ENS_22xtensor_expression_tagEEEEE15broadcast_shapeISt5arrayImLm3EEEEbRT_bENKUlbOSK_E_clISF_EEDabSM_ = comdat any

$_ZN2xt6detail15accumulate_implILm2ERZNKS_9xfunctionINS0_10multipliesEJNS_7xscalarIRKdEERKNS_17xtensor_containerINS_7uvectorIdSaIdEEELm3ELNS_11layout_typeE1ENS_22xtensor_expression_tagEEEEE15broadcast_shapeISt5arrayImLm3EEEEbRT_bEUlbOSL_E_bJS7_SG_EEENSt9enable_ifIXeqT_sZT2_ET1_E4typeEOT0_SR_RKSt5tupleIJDpT2_EE = comdat any

$_ZSt5equalIPmS0_EbT_S1_T0_ = comdat any

$_ZSt3endISt5arrayImLm3EEEDTcldtfp_3endEERT_ = comdat any

$_ZN3xtl16forward_sequenceISt5arrayImLm3EES2_EEDcRNSt16remove_referenceIT0_E4typeE = comdat any

$_ZSt11__equal_auxIPmS0_EbT_S1_T0_ = comdat any

$_ZSt12__equal_aux1IPmS0_EbT_S1_T0_ = comdat any

$_ZNSt5arrayImLm3EE3endEv = comdat any

$_ZN3xtl6detail18sequence_forwarderISt5arrayImLm3EES3_E7forwardIS3_EEOT_S7_ = comdat any

$_ZN2xt14xassign_traitsINS_17xtensor_containerINS_7uvectorIdSaIdEEELm3ELNS_11layout_typeE1ENS_22xtensor_expression_tagEEENS_9xfunctionINS_6detail4plusEJRKS7_RKNS8_INS9_10multipliesEJNS_7xscalarIRKdEESC_EEEEEEE13linear_assignESC_RKSL_b = comdat any

$_ZN2xt14xassign_traitsINS_17xtensor_containerINS_7uvectorIdSaIdEEELm3ELNS_11layout_typeE1ENS_22xtensor_expression_tagEEENS_9xfunctionINS_6detail4plusEJRKS7_RKNS8_INS9_10multipliesEJNS_7xscalarIRKdEESC_EEEEEEE18simd_linear_assignESC_RKSL_ = comdat any

$_ZN2xt15linear_assignerILb0EE3runINS_17xtensor_containerINS_7uvectorIdSaIdEEELm3ELNS_11layout_typeE1ENS_22xtensor_expression_tagEEENS_9xfunctionINS_6detail4plusEJRKS9_RKNSA_INSB_10multipliesEJNS_7xscalarIRKdEESE_EEEEEEEEvRT_RKT0_ = comdat any

$_ZN2xt16stepper_assignerINS_17xtensor_containerINS_7uvectorIdSaIdEEELm3ELNS_11layout_typeE1ENS_22xtensor_expression_tagEEENS_9xfunctionINS_6detail4plusEJRKS7_RKNS8_INS9_10multipliesEJNS_7xscalarIRKdEESC_EEEEEELS5_1EEC2ERS7_RKSL_ = comdat any

$_ZN2xt16stepper_assignerINS_17xtensor_containerINS_7uvectorIdSaIdEEELm3ELNS_11layout_typeE1ENS_22xtensor_expression_tagEEENS_9xfunctionINS_6detail4plusEJRKS7_RKNS8_INS9_10multipliesEJNS_7xscalarIRKdEESC_EEEEEELS5_1EE3runEv = comdat any

$_ZN2xt6detail16is_linear_assignINS_17xtensor_containerINS_7uvectorIdSaIdEEELm3ELNS_11layout_typeE1ENS_22xtensor_expression_tagEEENS_9xfunctionINS0_4plusEJRKS8_RKNS9_INS0_10multipliesEJNS_7xscalarIRKdEESC_EEEEEEEENSt9enable_ifIXsr11has_stridesIT_EE5valueEbE4typeERKSN_RKT0_ = comdat any

$_ZN2xt15linear_assignerILb0EE8run_implINS_17xtensor_containerINS_7uvectorIdSaIdEEELm3ELNS_11layout_typeE1ENS_22xtensor_expression_tagEEENS_9xfunctionINS_6detail4plusEJRKS9_RKNSA_INSB_10multipliesEJNS_7xscalarIRKdEESE_EEEEEEEEvRT_RKT0_St17integral_constantIbLb1EE = comdat any

$_ZN2xt12linear_beginINS_9xfunctionINS_6detail4plusEJRKNS_17xtensor_containerINS_7uvectorIdSaIdEEELm3ELNS_11layout_typeE1ENS_22xtensor_expression_tagEEERKNS1_INS2_10multipliesEJNS_7xscalarIRKdEESC_EEEEEEEEDaRKT_ = comdat any

$_ZN2xt12linear_beginINS_17xtensor_containerINS_7uvectorIdSaIdEEELm3ELNS_11layout_typeE1ENS_22xtensor_expression_tagEEEEEDaRT_ = comdat any

$_ZNK2xt10xcontainerINS_17xtensor_containerINS_7uvectorIdSaIdEEELm3ELNS_11layout_typeE1ENS_22xtensor_expression_tagEEEE4sizeEv = comdat any

$_ZNK2xt18xfunction_iteratorINS_6detail4plusEJRKNS_17xtensor_containerINS_7uvectorIdSaIdEEELm3ELNS_11layout_typeE1ENS_22xtensor_expression_tagEEERKNS_9xfunctionINS1_10multipliesEJNS_7xscalarIRKdEESB_EEEEEdeEv = comdat any

$_ZN2xt18xfunction_iteratorINS_6detail4plusEJRKNS_17xtensor_containerINS_7uvectorIdSaIdEEELm3ELNS_11layout_typeE1ENS_22xtensor_expression_tagEEERKNS_9xfunctionINS1_10multipliesEJNS_7xscalarIRKdEESB_EEEEEppEv = comdat any

$_ZN3xtl3mpl9static_ifILb1EZN2xt12linear_beginINS2_9xfunctionINS2_6detail4plusEJRKNS2_17xtensor_containerINS2_7uvectorIdSaIdEEELm3ELNS2_11layout_typeE1ENS2_22xtensor_expression_tagEEERKNS4_INS5_10multipliesEJNS2_7xscalarIRKdEESF_EEEEEEEEDaRKT_EUlSP_E_ZNS3_ISO_EEDaSR_EUlSP_E0_EEDcRKT0_RKT1_ = comdat any

$_ZN3xtl3mpl9static_ifIZN2xt12linear_beginINS2_9xfunctionINS2_6detail4plusEJRKNS2_17xtensor_containerINS2_7uvectorIdSaIdEEELm3ELNS2_11layout_typeE1ENS2_22xtensor_expression_tagEEERKNS4_INS5_10multipliesEJNS2_7xscalarIRKdEESF_EEEEEEEEDaRKT_EUlSP_E_ZNS3_ISO_EEDaSR_EUlSP_E0_EEDcSt17integral_constantIbLb1EESR_RKT0_ = comdat any

$_ZZN2xt12linear_beginINS_9xfunctionINS_6detail4plusEJRKNS_17xtensor_containerINS_7uvectorIdSaIdEEELm3ELNS_11layout_typeE1ENS_22xtensor_expression_tagEEERKNS1_INS2_10multipliesEJNS_7xscalarIRKdEESC_EEEEEEEEDaRKT_ENKUlSM_E_clIN3xtl8identityEEEDaSM_ = comdat any

$_ZNK3xtl8identityclIRKN2xt9xfunctionINS2_6detail4plusEJRKNS2_17xtensor_containerINS2_7uvectorIdSaIdEEELm3ELNS2_11layout_typeE1ENS2_22xtensor_expression_tagEEERKNS3_INS4_10multipliesEJNS2_7xscalarIRKdEESE_EEEEEEEEOT_SR_ = comdat any

$_ZNK2xt9xfunctionINS_6detail4plusEJRKNS_17xtensor_containerINS_7uvectorIdSaIdEEELm3ELNS_11layout_typeE1ENS_22xtensor_expression_tagEEERKNS0_INS1_10multipliesEJNS_7xscalarIRKdEESB_EEEEE14storage_cbeginEv = comdat any

$_ZNK2xt9xfunctionINS_6detail4plusEJRKNS_17xtensor_containerINS_7uvectorIdSaIdEEELm3ELNS_11layout_typeE1ENS_22xtensor_expression_tagEEERKNS0_INS1_10multipliesEJNS_7xscalarIRKdEESB_EEEEE14build_iteratorIRZNKSK_14storage_cbeginEvEUlRKT_E_JLm0ELm1EEEEDaOSM_St16integer_sequenceImJXspT0_EEE = comdat any

$_ZZNK2xt9xfunctionINS_6detail4plusEJRKNS_17xtensor_containerINS_7uvectorIdSaIdEEELm3ELNS_11layout_typeE1ENS_22xtensor_expression_tagEEERKNS0_INS1_10multipliesEJNS_7xscalarIRKdEESB_EEEEE14storage_cbeginEvENKUlRKT_E_clIS9_EEDaSN_ = comdat any

$_ZZNK2xt9xfunctionINS_6detail4plusEJRKNS_17xtensor_containerINS_7uvectorIdSaIdEEELm3ELNS_11layout_typeE1ENS_22xtensor_expression_tagEEERKNS0_INS1_10multipliesEJNS_7xscalarIRKdEESB_EEEEE14storage_cbeginEvENKUlRKT_E_clISH_EEDaSN_ = comdat any

$_ZN2xt18xfunction_iteratorINS_6detail4plusEJRKNS_17xtensor_containerINS_7uvectorIdSaIdEEELm3ELNS_11layout_typeE1ENS_22xtensor_expression_tagEEERKNS_9xfunctionINS1_10multipliesEJNS_7xscalarIRKdEESB_EEEEEC2IJPSF_NS0_ISD_JSH_SB_EEEEEEPKNSC_IS2_JSB_SK_EEEDpOT_ = comdat any

$_ZN2xt12linear_beginINS_17xtensor_containerINS_7uvectorIdSaIdEEELm3ELNS_11layout_typeE1ENS_22xtensor_expression_tagEEEEEDaRKT_ = comdat any

$_ZN3xtl3mpl9static_ifILb1EZN2xt12linear_beginINS2_17xtensor_containerINS2_7uvectorIdSaIdEEELm3ELNS2_11layout_typeE1ENS2_22xtensor_expression_tagEEEEEDaRKT_EUlSB_E_ZNS3_ISA_EEDaSD_EUlSB_E0_EEDcRKT0_RKT1_ = comdat any

$_ZN3xtl3mpl9static_ifIZN2xt12linear_beginINS2_17xtensor_containerINS2_7uvectorIdSaIdEEELm3ELNS2_11layout_typeE1ENS2_22xtensor_expression_tagEEEEEDaRKT_EUlSB_E_ZNS3_ISA_EEDaSD_EUlSB_E0_EEDcSt17integral_constantIbLb1EESD_RKT0_ = comdat any

$_ZZN2xt12linear_beginINS_17xtensor_containerINS_7uvectorIdSaIdEEELm3ELNS_11layout_typeE1ENS_22xtensor_expression_tagEEEEEDaRKT_ENKUlS8_E_clIN3xtl8identityEEEDaS8_ = comdat any

$_ZNK3xtl8identityclIRKN2xt17xtensor_containerINS2_7uvectorIdSaIdEEELm3ELNS2_11layout_typeE1ENS2_22xtensor_expression_tagEEEEEOT_SD_ = comdat any

$_ZNK2xt10xcontainerINS_17xtensor_containerINS_7uvectorIdSaIdEEELm3ELNS_11layout_typeE1ENS_22xtensor_expression_tagEEEE14storage_cbeginEv = comdat any

$_ZNK2xt10xcontainerINS_17xtensor_containerINS_7uvectorIdSaIdEEELm3ELNS_11layout_typeE1ENS_22xtensor_expression_tagEEEE7storageEv = comdat any

$_ZNK2xt7uvectorIdSaIdEE6cbeginEv = comdat any

$_ZNKR2xt10xcontainerINS_17xtensor_containerINS_7uvectorIdSaIdEEELm3ELNS_11layout_typeE1ENS_22xtensor_expression_tagEEEE12derived_castEv = comdat any

$_ZNK2xt17xtensor_containerINS_7uvectorIdSaIdEEELm3ELNS_11layout_typeE1ENS_22xtensor_expression_tagEE12storage_implEv = comdat any

$_ZNK2xt7uvectorIdSaIdEE5beginEv = comdat any

$_ZN2xt12linear_beginINS_9xfunctionINS_6detail10multipliesEJNS_7xscalarIRKdEERKNS_17xtensor_containerINS_7uvectorIdSaIdEEELm3ELNS_11layout_typeE1ENS_22xtensor_expression_tagEEEEEEEEDaRKT_ = comdat any

$_ZN3xtl3mpl9static_ifILb1EZN2xt12linear_beginINS2_9xfunctionINS2_6detail10multipliesEJNS2_7xscalarIRKdEERKNS2_17xtensor_containerINS2_7uvectorIdSaIdEEELm3ELNS2_11layout_typeE1ENS2_22xtensor_expression_tagEEEEEEEEDaRKT_EUlSL_E_ZNS3_ISK_EEDaSN_EUlSL_E0_EEDcRKT0_RKT1_ = comdat any

$_ZN3xtl3mpl9static_ifIZN2xt12linear_beginINS2_9xfunctionINS2_6detail10multipliesEJNS2_7xscalarIRKdEERKNS2_17xtensor_containerINS2_7uvectorIdSaIdEEELm3ELNS2_11layout_typeE1ENS2_22xtensor_expression_tagEEEEEEEEDaRKT_EUlSL_E_ZNS3_ISK_EEDaSN_EUlSL_E0_EEDcSt17integral_constantIbLb1EESN_RKT0_ = comdat any

$_ZZN2xt12linear_beginINS_9xfunctionINS_6detail10multipliesEJNS_7xscalarIRKdEERKNS_17xtensor_containerINS_7uvectorIdSaIdEEELm3ELNS_11layout_typeE1ENS_22xtensor_expression_tagEEEEEEEEDaRKT_ENKUlSI_E_clIN3xtl8identityEEEDaSI_ = comdat any

$_ZNK3xtl8identityclIRKN2xt9xfunctionINS2_6detail10multipliesEJNS2_7xscalarIRKdEERKNS2_17xtensor_containerINS2_7uvectorIdSaIdEEELm3ELNS2_11layout_typeE1ENS2_22xtensor_expression_tagEEEEEEEEOT_SN_ = comdat any

$_ZNK2xt9xfunctionINS_6detail10multipliesEJNS_7xscalarIRKdEERKNS_17xtensor_containerINS_7uvectorIdSaIdEEELm3ELNS_11layout_typeE1ENS_22xtensor_expression_tagEEEEE14storage_cbeginEv = comdat any

$_ZNK2xt9xfunctionINS_6detail10multipliesEJNS_7xscalarIRKdEERKNS_17xtensor_containerINS_7uvectorIdSaIdEEELm3ELNS_11layout_typeE1ENS_22xtensor_expression_tagEEEEE14build_iteratorIRZNKSG_14storage_cbeginEvEUlRKT_E_JLm0ELm1EEEEDaOSI_St16integer_sequenceImJXspT0_EEE = comdat any

$_ZZNK2xt9xfunctionINS_6detail10multipliesEJNS_7xscalarIRKdEERKNS_17xtensor_containerINS_7uvectorIdSaIdEEELm3ELNS_11layout_typeE1ENS_22xtensor_expression_tagEEEEE14storage_cbeginEvENKUlRKT_E_clIS6_EEDaSJ_ = comdat any

$_ZZNK2xt9xfunctionINS_6detail10multipliesEJNS_7xscalarIRKdEERKNS_17xtensor_containerINS_7uvectorIdSaIdEEELm3ELNS_11layout_typeE1ENS_22xtensor_expression_tagEEEEE14storage_cbeginEvENKUlRKT_E_clISD_EEDaSJ_ = comdat any

$_ZN2xt18xfunction_iteratorINS_6detail10multipliesEJNS_7xscalarIRKdEERKNS_17xtensor_containerINS_7uvectorIdSaIdEEELm3ELNS_11layout_typeE1ENS_22xtensor_expression_tagEEEEEC2IJNS_15xdummy_iteratorILb1ES5_EEPS4_EEEPKNS_9xfunctionIS2_JS6_SF_EEEDpOT_ = comdat any

$_ZN2xt12linear_beginIRKdEEDTcldtfp_11dummy_beginEERKNS_7xscalarIT_EE = comdat any

$_ZNK2xt7xscalarIRKdE11dummy_beginEv = comdat any

$_ZN2xt15xdummy_iteratorILb1ERKdEC2EPKNS_7xscalarIS2_EE = comdat any

$_ZNSt5tupleIJN2xt15xdummy_iteratorILb1ERKdEEPS2_EEC2IS4_S5_TnNSt9enable_ifIXclsr4_TCCIXntcl14__is_alloc_argIT_EEEEE29__is_implicitly_constructibleIS9_T0_EEEbE4typeELb1EEEOS9_OSA_ = comdat any

$_ZNSt11_Tuple_implILm0EJN2xt15xdummy_iteratorILb1ERKdEEPS2_EEC2IS4_JS5_EvEEOT_DpOT0_ = comdat any

$_ZNSt11_Tuple_implILm1EJPKdEEC2IS1_EEOT_ = comdat any

$_ZNSt10_Head_baseILm0EN2xt15xdummy_iteratorILb1ERKdEELb0EEC2IS4_EEOT_ = comdat any

$_ZNSt10_Head_baseILm1EPKdLb0EEC2IS1_EEOT_ = comdat any

$_ZNSt5tupleIJPKdN2xt18xfunction_iteratorINS2_6detail10multipliesEJNS2_7xscalarIRS0_EERKNS2_17xtensor_containerINS2_7uvectorIdSaIdEEELm3ELNS2_11layout_typeE1ENS2_22xtensor_expression_tagEEEEEEEEC2IS1_SI_TnNSt9enable_ifIXclsr4_TCCIXntcl14__is_alloc_argIT_EEEEE29__is_implicitly_constructibleISM_T0_EEEbE4typeELb1EEEOSM_OSN_ = comdat any

$_ZNSt11_Tuple_implILm0EJPKdN2xt18xfunction_iteratorINS2_6detail10multipliesEJNS2_7xscalarIRS0_EERKNS2_17xtensor_containerINS2_7uvectorIdSaIdEEELm3ELNS2_11layout_typeE1ENS2_22xtensor_expression_tagEEEEEEEEC2IS1_JSI_EvEEOT_DpOT0_ = comdat any

$_ZNSt11_Tuple_implILm1EJN2xt18xfunction_iteratorINS0_6detail10multipliesEJNS0_7xscalarIRKdEERKNS0_17xtensor_containerINS0_7uvectorIdSaIdEEELm3ELNS0_11layout_typeE1ENS0_22xtensor_expression_tagEEEEEEEEC2ISH_EEOT_ = comdat any

$_ZNSt10_Head_baseILm0EPKdLb0EEC2IS1_EEOT_ = comdat any

$_ZNSt10_Head_baseILm1EN2xt18xfunction_iteratorINS0_6detail10multipliesEJNS0_7xscalarIRKdEERKNS0_17xtensor_containerINS0_7uvectorIdSaIdEEELm3ELNS0_11layout_typeE1ENS0_22xtensor_expression_tagEEEEEELb0EEC2ISH_EEOT_ = comdat any

$_ZN2xt18xfunction_iteratorINS_6detail10multipliesEJNS_7xscalarIRKdEERKNS_17xtensor_containerINS_7uvectorIdSaIdEEELm3ELNS_11layout_typeE1ENS_22xtensor_expression_tagEEEEEC2EOSG_ = comdat any

$_ZNSt5tupleIJN2xt15xdummy_iteratorILb1ERKdEEPS2_EEC2EOS6_ = comdat any

$_ZNSt11_Tuple_implILm0EJN2xt15xdummy_iteratorILb1ERKdEEPS2_EEC2EOS6_ = comdat any

$_ZNSt11_Tuple_implILm1EJPKdEEC2EOS2_ = comdat any

$_ZN3xtl3mpl9static_ifILb1EZN2xt12linear_beginINS2_17xtensor_containerINS2_7uvectorIdSaIdEEELm3ELNS2_11layout_typeE1ENS2_22xtensor_expression_tagEEEEEDaRT_EUlSB_E_ZNS3_ISA_EEDaSC_EUlSB_E0_EEDcRKT0_RKT1_ = comdat any

$_ZN3xtl3mpl9static_ifIZN2xt12linear_beginINS2_17xtensor_containerINS2_7uvectorIdSaIdEEELm3ELNS2_11layout_typeE1ENS2_22xtensor_expression_tagEEEEEDaRT_EUlSB_E_ZNS3_ISA_EEDaSC_EUlSB_E0_EEDcSt17integral_constantIbLb1EERKSB_RKT0_ = comdat any

$_ZZN2xt12linear_beginINS_17xtensor_containerINS_7uvectorIdSaIdEEELm3ELNS_11layout_typeE1ENS_22xtensor_expression_tagEEEEEDaRT_ENKUlS8_E_clIN3xtl8identityEEEDaS8_ = comdat any

$_ZNK3xtl8identityclIRN2xt17xtensor_containerINS2_7uvectorIdSaIdEEELm3ELNS2_11layout_typeE1ENS2_22xtensor_expression_tagEEEEEOT_SC_ = comdat any

$_ZN2xt10xcontainerINS_17xtensor_containerINS_7uvectorIdSaIdEEELm3ELNS_11layout_typeE1ENS_22xtensor_expression_tagEEEE13storage_beginEv = comdat any

$_ZNK2xt18xfunction_iteratorINS_6detail4plusEJRKNS_17xtensor_containerINS_7uvectorIdSaIdEEELm3ELNS_11layout_typeE1ENS_22xtensor_expression_tagEEERKNS_9xfunctionINS1_10multipliesEJNS_7xscalarIRKdEESB_EEEEE10deref_implIJLm0ELm1EEEEdSt16integer_sequenceImJXspT_EEE = comdat any

$_ZNK2xt6detail4plusclIRKddEEDaOT_OT0_ = comdat any

$_ZSt3getILm0EJPKdN2xt18xfunction_iteratorINS2_6detail10multipliesEJNS2_7xscalarIRS0_EERKNS2_17xtensor_containerINS2_7uvectorIdSaIdEEELm3ELNS2_11layout_typeE1ENS2_22xtensor_expression_tagEEEEEEEERKNSt13tuple_elementIXT_ESt5tupleIJDpT0_EEE4typeERKSN_ = comdat any

$_ZSt3getILm1EJPKdN2xt18xfunction_iteratorINS2_6detail10multipliesEJNS2_7xscalarIRS0_EERKNS2_17xtensor_containerINS2_7uvectorIdSaIdEEELm3ELNS2_11layout_typeE1ENS2_22xtensor_expression_tagEEEEEEEERKNSt13tuple_elementIXT_ESt5tupleIJDpT0_EEE4typeERKSN_ = comdat any

$_ZNK2xt18xfunction_iteratorINS_6detail10multipliesEJNS_7xscalarIRKdEERKNS_17xtensor_containerINS_7uvectorIdSaIdEEELm3ELNS_11layout_typeE1ENS_22xtensor_expression_tagEEEEEdeEv = comdat any

$_ZSt12__get_helperILm0EPKdJN2xt18xfunction_iteratorINS2_6detail10multipliesEJNS2_7xscalarIRS0_EERKNS2_17xtensor_containerINS2_7uvectorIdSaIdEEELm3ELNS2_11layout_typeE1ENS2_22xtensor_expression_tagEEEEEEEERKT0_RKSt11_Tuple_implIXT_EJSJ_DpT1_EE = comdat any

$_ZNSt11_Tuple_implILm0EJPKdN2xt18xfunction_iteratorINS2_6detail10multipliesEJNS2_7xscalarIRS0_EERKNS2_17xtensor_containerINS2_7uvectorIdSaIdEEELm3ELNS2_11layout_typeE1ENS2_22xtensor_expression_tagEEEEEEEE7_M_headERKSJ_ = comdat any

$_ZNSt10_Head_baseILm0EPKdLb0EE7_M_headERKS2_ = comdat any

$_ZSt12__get_helperILm1EN2xt18xfunction_iteratorINS0_6detail10multipliesEJNS0_7xscalarIRKdEERKNS0_17xtensor_containerINS0_7uvectorIdSaIdEEELm3ELNS0_11layout_typeE1ENS0_22xtensor_expression_tagEEEEEEJEERKT0_RKSt11_Tuple_implIXT_EJSI_DpT1_EE = comdat any

$_ZNSt11_Tuple_implILm1EJN2xt18xfunction_iteratorINS0_6detail10multipliesEJNS0_7xscalarIRKdEERKNS0_17xtensor_containerINS0_7uvectorIdSaIdEEELm3ELNS0_11layout_typeE1ENS0_22xtensor_expression_tagEEEEEEEE7_M_headERKSI_ = comdat any

$_ZNSt10_Head_baseILm1EN2xt18xfunction_iteratorINS0_6detail10multipliesEJNS0_7xscalarIRKdEERKNS0_17xtensor_containerINS0_7uvectorIdSaIdEEELm3ELNS0_11layout_typeE1ENS0_22xtensor_expression_tagEEEEEELb0EE7_M_headERKSI_ = comdat any

$_ZNK2xt18xfunction_iteratorINS_6detail10multipliesEJNS_7xscalarIRKdEERKNS_17xtensor_containerINS_7uvectorIdSaIdEEELm3ELNS_11layout_typeE1ENS_22xtensor_expression_tagEEEEE10deref_implIJLm0ELm1EEEEdSt16integer_sequenceImJXspT_EEE = comdat any

$_ZNK2xt6detail10multipliesclIRKdS4_EEDaOT_OT0_ = comdat any

$_ZSt3getILm0EJN2xt15xdummy_iteratorILb1ERKdEEPS2_EERKNSt13tuple_elementIXT_ESt5tupleIJDpT0_EEE4typeERKSA_ = comdat any

$_ZNK2xt15xdummy_iteratorILb1ERKdEdeEv = comdat any

$_ZSt3getILm1EJN2xt15xdummy_iteratorILb1ERKdEEPS2_EERKNSt13tuple_elementIXT_ESt5tupleIJDpT0_EEE4typeERKSA_ = comdat any

$_ZSt12__get_helperILm0EN2xt15xdummy_iteratorILb1ERKdEEJPS2_EERKT0_RKSt11_Tuple_implIXT_EJS6_DpT1_EE = comdat any

$_ZNSt11_Tuple_implILm0EJN2xt15xdummy_iteratorILb1ERKdEEPS2_EE7_M_headERKS6_ = comdat any

$_ZNSt10_Head_baseILm0EN2xt15xdummy_iteratorILb1ERKdEELb0EE7_M_headERKS5_ = comdat any

$_ZNK2xt7xscalarIRKdEclIJEEES2_DpT_ = comdat any

$_ZSt12__get_helperILm1EPKdJEERKT0_RKSt11_Tuple_implIXT_EJS2_DpT1_EE = comdat any

$_ZNSt11_Tuple_implILm1EJPKdEE7_M_headERKS2_ = comdat any

$_ZNSt10_Head_baseILm1EPKdLb0EE7_M_headERKS2_ = comdat any

$_ZN2xt8for_eachIRZNS_18xfunction_iteratorINS_6detail4plusEJRKNS_17xtensor_containerINS_7uvectorIdSaIdEEELm3ELNS_11layout_typeE1ENS_22xtensor_expression_tagEEERKNS_9xfunctionINS2_10multipliesEJNS_7xscalarIRKdEESC_EEEEEppEvEUlRT_E_JPSG_NS1_ISE_JSI_SC_EEEEEEvOSN_RSt5tupleIJDpT0_EE = comdat any

$_ZN2xt6detail13for_each_implILm0ERZNS_18xfunction_iteratorINS0_4plusEJRKNS_17xtensor_containerINS_7uvectorIdSaIdEEELm3ELNS_11layout_typeE1ENS_22xtensor_expression_tagEEERKNS_9xfunctionINS0_10multipliesEJNS_7xscalarIRKdEESC_EEEEEppEvEUlRT_E_JPSG_NS2_ISE_JSI_SC_EEEEEENSt9enable_ifIXltT_sZT1_EvE4typeEOT0_RSt5tupleIJDpT1_EE = comdat any

$_ZZN2xt18xfunction_iteratorINS_6detail4plusEJRKNS_17xtensor_containerINS_7uvectorIdSaIdEEELm3ELNS_11layout_typeE1ENS_22xtensor_expression_tagEEERKNS_9xfunctionINS1_10multipliesEJNS_7xscalarIRKdEESB_EEEEEppEvENKUlRT_E_clIPSF_EEDaSN_ = comdat any

$_ZSt3getILm0EJPKdN2xt18xfunction_iteratorINS2_6detail10multipliesEJNS2_7xscalarIRS0_EERKNS2_17xtensor_containerINS2_7uvectorIdSaIdEEELm3ELNS2_11layout_typeE1ENS2_22xtensor_expression_tagEEEEEEEERNSt13tuple_elementIXT_ESt5tupleIJDpT0_EEE4typeERSN_ = comdat any

$_ZN2xt6detail13for_each_implILm1ERZNS_18xfunction_iteratorINS0_4plusEJRKNS_17xtensor_containerINS_7uvectorIdSaIdEEELm3ELNS_11layout_typeE1ENS_22xtensor_expression_tagEEERKNS_9xfunctionINS0_10multipliesEJNS_7xscalarIRKdEESC_EEEEEppEvEUlRT_E_JPSG_NS2_ISE_JSI_SC_EEEEEENSt9enable_ifIXltT_sZT1_EvE4typeEOT0_RSt5tupleIJDpT1_EE = comdat any

$_ZSt12__get_helperILm0EPKdJN2xt18xfunction_iteratorINS2_6detail10multipliesEJNS2_7xscalarIRS0_EERKNS2_17xtensor_containerINS2_7uvectorIdSaIdEEELm3ELNS2_11layout_typeE1ENS2_22xtensor_expression_tagEEEEEEEERT0_RSt11_Tuple_implIXT_EJSJ_DpT1_EE = comdat any

$_ZNSt11_Tuple_implILm0EJPKdN2xt18xfunction_iteratorINS2_6detail10multipliesEJNS2_7xscalarIRS0_EERKNS2_17xtensor_containerINS2_7uvectorIdSaIdEEELm3ELNS2_11layout_typeE1ENS2_22xtensor_expression_tagEEEEEEEE7_M_headERSJ_ = comdat any

$_ZNSt10_Head_baseILm0EPKdLb0EE7_M_headERS2_ = comdat any

$_ZZN2xt18xfunction_iteratorINS_6detail4plusEJRKNS_17xtensor_containerINS_7uvectorIdSaIdEEELm3ELNS_11layout_typeE1ENS_22xtensor_expression_tagEEERKNS_9xfunctionINS1_10multipliesEJNS_7xscalarIRKdEESB_EEEEEppEvENKUlRT_E_clINS0_ISD_JSH_SB_EEEEEDaSN_ = comdat any

$_ZSt3getILm1EJPKdN2xt18xfunction_iteratorINS2_6detail10multipliesEJNS2_7xscalarIRS0_EERKNS2_17xtensor_containerINS2_7uvectorIdSaIdEEELm3ELNS2_11layout_typeE1ENS2_22xtensor_expression_tagEEEEEEEERNSt13tuple_elementIXT_ESt5tupleIJDpT0_EEE4typeERSN_ = comdat any

$_ZN2xt6detail13for_each_implILm2ERZNS_18xfunction_iteratorINS0_4plusEJRKNS_17xtensor_containerINS_7uvectorIdSaIdEEELm3ELNS_11layout_typeE1ENS_22xtensor_expression_tagEEERKNS_9xfunctionINS0_10multipliesEJNS_7xscalarIRKdEESC_EEEEEppEvEUlRT_E_JPSG_NS2_ISE_JSI_SC_EEEEEENSt9enable_ifIXeqT_sZT1_EvE4typeEOT0_RSt5tupleIJDpT1_EE = comdat any

$_ZN2xt18xfunction_iteratorINS_6detail10multipliesEJNS_7xscalarIRKdEERKNS_17xtensor_containerINS_7uvectorIdSaIdEEELm3ELNS_11layout_typeE1ENS_22xtensor_expression_tagEEEEEppEv = comdat any

$_ZN2xt8for_eachIRZNS_18xfunction_iteratorINS_6detail10multipliesEJNS_7xscalarIRKdEERKNS_17xtensor_containerINS_7uvectorIdSaIdEEELm3ELNS_11layout_typeE1ENS_22xtensor_expression_tagEEEEEppEvEUlRT_E_JNS_15xdummy_iteratorILb1ES6_EEPS5_EEEvOSI_RSt5tupleIJDpT0_EE = comdat any

$_ZN2xt6detail13for_each_implILm0ERZNS_18xfunction_iteratorINS0_10multipliesEJNS_7xscalarIRKdEERKNS_17xtensor_containerINS_7uvectorIdSaIdEEELm3ELNS_11layout_typeE1ENS_22xtensor_expression_tagEEEEEppEvEUlRT_E_JNS_15xdummy_iteratorILb1ES6_EEPS5_EEENSt9enable_ifIXltT_sZT1_EvE4typeEOT0_RSt5tupleIJDpT1_EE = comdat any

$_ZZN2xt18xfunction_iteratorINS_6detail10multipliesEJNS_7xscalarIRKdEERKNS_17xtensor_containerINS_7uvectorIdSaIdEEELm3ELNS_11layout_typeE1ENS_22xtensor_expression_tagEEEEEppEvENKUlRT_E_clINS_15xdummy_iteratorILb1ES5_EEEEDaSI_ = comdat any

$_ZSt3getILm0EJN2xt15xdummy_iteratorILb1ERKdEEPS2_EERNSt13tuple_elementIXT_ESt5tupleIJDpT0_EEE4typeERSA_ = comdat any

$_ZN2xt6detail13for_each_implILm1ERZNS_18xfunction_iteratorINS0_10multipliesEJNS_7xscalarIRKdEERKNS_17xtensor_containerINS_7uvectorIdSaIdEEELm3ELNS_11layout_typeE1ENS_22xtensor_expression_tagEEEEEppEvEUlRT_E_JNS_15xdummy_iteratorILb1ES6_EEPS5_EEENSt9enable_ifIXltT_sZT1_EvE4typeEOT0_RSt5tupleIJDpT1_EE = comdat any

$_ZN2xt15xdummy_iteratorILb1ERKdEppEv = comdat any

$_ZSt12__get_helperILm0EN2xt15xdummy_iteratorILb1ERKdEEJPS2_EERT0_RSt11_Tuple_implIXT_EJS6_DpT1_EE = comdat any

$_ZNSt11_Tuple_implILm0EJN2xt15xdummy_iteratorILb1ERKdEEPS2_EE7_M_headERS6_ = comdat any

$_ZNSt10_Head_baseILm0EN2xt15xdummy_iteratorILb1ERKdEELb0EE7_M_headERS5_ = comdat any

$_ZZN2xt18xfunction_iteratorINS_6detail10multipliesEJNS_7xscalarIRKdEERKNS_17xtensor_containerINS_7uvectorIdSaIdEEELm3ELNS_11layout_typeE1ENS_22xtensor_expression_tagEEEEEppEvENKUlRT_E_clIPS4_EEDaSI_ = comdat any

$_ZSt3getILm1EJN2xt15xdummy_iteratorILb1ERKdEEPS2_EERNSt13tuple_elementIXT_ESt5tupleIJDpT0_EEE4typeERSA_ = comdat any

$_ZN2xt6detail13for_each_implILm2ERZNS_18xfunction_iteratorINS0_10multipliesEJNS_7xscalarIRKdEERKNS_17xtensor_containerINS_7uvectorIdSaIdEEELm3ELNS_11layout_typeE1ENS_22xtensor_expression_tagEEEEEppEvEUlRT_E_JNS_15xdummy_iteratorILb1ES6_EEPS5_EEENSt9enable_ifIXeqT_sZT1_EvE4typeEOT0_RSt5tupleIJDpT1_EE = comdat any

$_ZSt12__get_helperILm1EPKdJEERT0_RSt11_Tuple_implIXT_EJS2_DpT1_EE = comdat any

$_ZNSt11_Tuple_implILm1EJPKdEE7_M_headERS2_ = comdat any

$_ZNSt10_Head_baseILm1EPKdLb0EE7_M_headERS2_ = comdat any

$_ZSt12__get_helperILm1EN2xt18xfunction_iteratorINS0_6detail10multipliesEJNS0_7xscalarIRKdEERKNS0_17xtensor_containerINS0_7uvectorIdSaIdEEELm3ELNS0_11layout_typeE1ENS0_22xtensor_expression_tagEEEEEEJEERT0_RSt11_Tuple_implIXT_EJSI_DpT1_EE = comdat any

$_ZNSt11_Tuple_implILm1EJN2xt18xfunction_iteratorINS0_6detail10multipliesEJNS0_7xscalarIRKdEERKNS0_17xtensor_containerINS0_7uvectorIdSaIdEEELm3ELNS0_11layout_typeE1ENS0_22xtensor_expression_tagEEEEEEEE7_M_headERSI_ = comdat any

$_ZNSt10_Head_baseILm1EN2xt18xfunction_iteratorINS0_6detail10multipliesEJNS0_7xscalarIRKdEERKNS0_17xtensor_containerINS0_7uvectorIdSaIdEEELm3ELNS0_11layout_typeE1ENS0_22xtensor_expression_tagEEEEEELb0EE7_M_headERSI_ = comdat any

$_ZN2xt10xcontainerINS_17xtensor_containerINS_7uvectorIdSaIdEEELm3ELNS_11layout_typeE1ENS_22xtensor_expression_tagEEEE13stepper_beginISt5arrayImLm3EEEENS_8xstepperIS7_EERKT_ = comdat any

$_ZNK2xt9xfunctionINS_6detail4plusEJRKNS_17xtensor_containerINS_7uvectorIdSaIdEEELm3ELNS_11layout_typeE1ENS_22xtensor_expression_tagEEERKNS0_INS1_10multipliesEJNS_7xscalarIRKdEESB_EEEEE13stepper_beginISt5arrayImLm3EEEENS_17xfunction_stepperIS2_JSB_SJ_EEERKT_ = comdat any

$_ZN2xt10xcontainerINS_17xtensor_containerINS_7uvectorIdSaIdEEELm3ELNS_11layout_typeE1ENS_22xtensor_expression_tagEEEE11data_xbeginEv = comdat any

$_ZN2xt8xstepperINS_17xtensor_containerINS_7uvectorIdSaIdEEELm3ELNS_11layout_typeE1ENS_22xtensor_expression_tagEEEEC2EPS7_Pdm = comdat any

$_ZNK2xt9xfunctionINS_6detail4plusEJRKNS_17xtensor_containerINS_7uvectorIdSaIdEEELm3ELNS_11layout_typeE1ENS_22xtensor_expression_tagEEERKNS0_INS1_10multipliesEJNS_7xscalarIRKdEESB_EEEEE13build_stepperIRZNKSK_13stepper_beginISt5arrayImLm3EEEENS_17xfunction_stepperIS2_JSB_SJ_EEERKT_EUlST_E_JLm0ELm1EEEESQ_OSR_St16integer_sequenceImJXspT0_EEE = comdat any

$_ZZNK2xt9xfunctionINS_6detail4plusEJRKNS_17xtensor_containerINS_7uvectorIdSaIdEEELm3ELNS_11layout_typeE1ENS_22xtensor_expression_tagEEERKNS0_INS1_10multipliesEJNS_7xscalarIRKdEESB_EEEEE13stepper_beginISt5arrayImLm3EEEENS_17xfunction_stepperIS2_JSB_SJ_EEERKT_ENKUlSS_E_clIS9_EEDaSS_ = comdat any

$_ZZNK2xt9xfunctionINS_6detail4plusEJRKNS_17xtensor_containerINS_7uvectorIdSaIdEEELm3ELNS_11layout_typeE1ENS_22xtensor_expression_tagEEERKNS0_INS1_10multipliesEJNS_7xscalarIRKdEESB_EEEEE13stepper_beginISt5arrayImLm3EEEENS_17xfunction_stepperIS2_JSB_SJ_EEERKT_ENKUlSS_E_clISH_EEDaSS_ = comdat any

$_ZN2xt17xfunction_stepperINS_6detail4plusEJRKNS_17xtensor_containerINS_7uvectorIdSaIdEEELm3ELNS_11layout_typeE1ENS_22xtensor_expression_tagEEERKNS_9xfunctionINS1_10multipliesEJNS_7xscalarIRKdEESB_EEEEEC2IJNS_8xstepperISA_EENS0_ISD_JSH_SB_EEEEEEPKNSC_IS2_JSB_SK_EEEDpOT_ = comdat any

$_ZNK2xt10xcontainerINS_17xtensor_containerINS_7uvectorIdSaIdEEELm3ELNS_11layout_typeE1ENS_22xtensor_expression_tagEEEE13stepper_beginISt5arrayImLm3EEEENS_8xstepperIKS7_EERKT_ = comdat any

$_ZNK2xt10xcontainerINS_17xtensor_containerINS_7uvectorIdSaIdEEELm3ELNS_11layout_typeE1ENS_22xtensor_expression_tagEEEE11data_xbeginEv = comdat any

$_ZN2xt8xstepperIKNS_17xtensor_containerINS_7uvectorIdSaIdEEELm3ELNS_11layout_typeE1ENS_22xtensor_expression_tagEEEEC2EPS8_PKdm = comdat any

$_ZNK2xt9xfunctionINS_6detail10multipliesEJNS_7xscalarIRKdEERKNS_17xtensor_containerINS_7uvectorIdSaIdEEELm3ELNS_11layout_typeE1ENS_22xtensor_expression_tagEEEEE13stepper_beginISt5arrayImLm3EEEENS_17xfunction_stepperIS2_JS6_SF_EEERKT_ = comdat any

$_ZNK2xt9xfunctionINS_6detail10multipliesEJNS_7xscalarIRKdEERKNS_17xtensor_containerINS_7uvectorIdSaIdEEELm3ELNS_11layout_typeE1ENS_22xtensor_expression_tagEEEEE13build_stepperIRZNKSG_13stepper_beginISt5arrayImLm3EEEENS_17xfunction_stepperIS2_JS6_SF_EEERKT_EUlSP_E_JLm0ELm1EEEESM_OSN_St16integer_sequenceImJXspT0_EEE = comdat any

$_ZZNK2xt9xfunctionINS_6detail10multipliesEJNS_7xscalarIRKdEERKNS_17xtensor_containerINS_7uvectorIdSaIdEEELm3ELNS_11layout_typeE1ENS_22xtensor_expression_tagEEEEE13stepper_beginISt5arrayImLm3EEEENS_17xfunction_stepperIS2_JS6_SF_EEERKT_ENKUlSO_E_clIS6_EEDaSO_ = comdat any

$_ZZNK2xt9xfunctionINS_6detail10multipliesEJNS_7xscalarIRKdEERKNS_17xtensor_containerINS_7uvectorIdSaIdEEELm3ELNS_11layout_typeE1ENS_22xtensor_expression_tagEEEEE13stepper_beginISt5arrayImLm3EEEENS_17xfunction_stepperIS2_JS6_SF_EEERKT_ENKUlSO_E_clISD_EEDaSO_ = comdat any

$_ZN2xt17xfunction_stepperINS_6detail10multipliesEJNS_7xscalarIRKdEERKNS_17xtensor_containerINS_7uvectorIdSaIdEEELm3ELNS_11layout_typeE1ENS_22xtensor_expression_tagEEEEEC2IJNS_15xscalar_stepperILb1ES5_EENS_8xstepperISE_EEEEEPKNS_9xfunctionIS2_JS6_SF_EEEDpOT_ = comdat any

$_ZNK2xt7xscalarIRKdE13stepper_beginISt5arrayImLm3EEEENS_15xscalar_stepperILb1ES2_EERKT_ = comdat any

$_ZN2xt15xscalar_stepperILb1ERKdEC2EPKNS_7xscalarIS2_EE = comdat any

$_ZNSt5tupleIJN2xt15xscalar_stepperILb1ERKdEENS0_8xstepperIKNS0_17xtensor_containerINS0_7uvectorIdSaIdEEELm3ELNS0_11layout_typeE1ENS0_22xtensor_expression_tagEEEEEEEC2IS4_SE_TnNSt9enable_ifIXclsr4_TCCIXntcl14__is_alloc_argIT_EEEEE29__is_implicitly_constructibleISI_T0_EEEbE4typeELb1EEEOSI_OSJ_ = comdat any

$_ZNSt11_Tuple_implILm0EJN2xt15xscalar_stepperILb1ERKdEENS0_8xstepperIKNS0_17xtensor_containerINS0_7uvectorIdSaIdEEELm3ELNS0_11layout_typeE1ENS0_22xtensor_expression_tagEEEEEEEC2IS4_JSE_EvEEOT_DpOT0_ = comdat any

$_ZNSt11_Tuple_implILm1EJN2xt8xstepperIKNS0_17xtensor_containerINS0_7uvectorIdSaIdEEELm3ELNS0_11layout_typeE1ENS0_22xtensor_expression_tagEEEEEEEC2ISA_EEOT_ = comdat any

$_ZNSt10_Head_baseILm0EN2xt15xscalar_stepperILb1ERKdEELb0EEC2IS4_EEOT_ = comdat any

$_ZNSt10_Head_baseILm1EN2xt8xstepperIKNS0_17xtensor_containerINS0_7uvectorIdSaIdEEELm3ELNS0_11layout_typeE1ENS0_22xtensor_expression_tagEEEEELb0EEC2ISA_EEOT_ = comdat any

$_ZNSt5tupleIJN2xt8xstepperIKNS0_17xtensor_containerINS0_7uvectorIdSaIdEEELm3ELNS0_11layout_typeE1ENS0_22xtensor_expression_tagEEEEENS0_17xfunction_stepperINS0_6detail10multipliesEJNS0_7xscalarIRKdEERS9_EEEEEC2ISA_SJ_TnNSt9enable_ifIXclsr4_TCCIXntcl14__is_alloc_argIT_EEEEE29__is_implicitly_constructibleISN_T0_EEEbE4typeELb1EEEOSN_OSO_ = comdat any

$_ZNSt11_Tuple_implILm0EJN2xt8xstepperIKNS0_17xtensor_containerINS0_7uvectorIdSaIdEEELm3ELNS0_11layout_typeE1ENS0_22xtensor_expression_tagEEEEENS0_17xfunction_stepperINS0_6detail10multipliesEJNS0_7xscalarIRKdEERS9_EEEEEC2ISA_JSJ_EvEEOT_DpOT0_ = comdat any

$_ZNSt11_Tuple_implILm1EJN2xt17xfunction_stepperINS0_6detail10multipliesEJNS0_7xscalarIRKdEERKNS0_17xtensor_containerINS0_7uvectorIdSaIdEEELm3ELNS0_11layout_typeE1ENS0_22xtensor_expression_tagEEEEEEEEC2ISH_EEOT_ = comdat any

$_ZNSt10_Head_baseILm0EN2xt8xstepperIKNS0_17xtensor_containerINS0_7uvectorIdSaIdEEELm3ELNS0_11layout_typeE1ENS0_22xtensor_expression_tagEEEEELb0EEC2ISA_EEOT_ = comdat any

$_ZNSt10_Head_baseILm1EN2xt17xfunction_stepperINS0_6detail10multipliesEJNS0_7xscalarIRKdEERKNS0_17xtensor_containerINS0_7uvectorIdSaIdEEELm3ELNS0_11layout_typeE1ENS0_22xtensor_expression_tagEEEEEELb0EEC2ISH_EEOT_ = comdat any

$_ZN2xt17xfunction_stepperINS_6detail10multipliesEJNS_7xscalarIRKdEERKNS_17xtensor_containerINS_7uvectorIdSaIdEEELm3ELNS_11layout_typeE1ENS_22xtensor_expression_tagEEEEEC2EOSG_ = comdat any

$_ZNSt5tupleIJN2xt15xscalar_stepperILb1ERKdEENS0_8xstepperIKNS0_17xtensor_containerINS0_7uvectorIdSaIdEEELm3ELNS0_11layout_typeE1ENS0_22xtensor_expression_tagEEEEEEEC2EOSF_ = comdat any

$_ZNSt11_Tuple_implILm0EJN2xt15xscalar_stepperILb1ERKdEENS0_8xstepperIKNS0_17xtensor_containerINS0_7uvectorIdSaIdEEELm3ELNS0_11layout_typeE1ENS0_22xtensor_expression_tagEEEEEEEC2EOSF_ = comdat any

$_ZNSt11_Tuple_implILm1EJN2xt8xstepperIKNS0_17xtensor_containerINS0_7uvectorIdSaIdEEELm3ELNS0_11layout_typeE1ENS0_22xtensor_expression_tagEEEEEEEC2EOSB_ = comdat any

$_ZN2xt16conditional_castILb0EddEEDaOT1_ = comdat any

$_ZNK2xt17xfunction_stepperINS_6detail4plusEJRKNS_17xtensor_containerINS_7uvectorIdSaIdEEELm3ELNS_11layout_typeE1ENS_22xtensor_expression_tagEEERKNS_9xfunctionINS1_10multipliesEJNS_7xscalarIRKdEESB_EEEEEdeEv = comdat any

$_ZNK2xt8xstepperINS_17xtensor_containerINS_7uvectorIdSaIdEEELm3ELNS_11layout_typeE1ENS_22xtensor_expression_tagEEEEdeEv = comdat any

$_ZN2xt13stepper_toolsILNS_11layout_typeE1EE17increment_stepperINS_16stepper_assignerINS_17xtensor_containerINS_7uvectorIdSaIdEEELm3ELS1_1ENS_22xtensor_expression_tagEEENS_9xfunctionINS_6detail4plusEJRKSA_RKNSB_INSC_10multipliesEJNS_7xscalarIRKdEESF_EEEEEELS1_1EEESt5arrayImLm3EESR_EEvRT_RT0_RKT1_ = comdat any

$_ZNK3xtl8identityclIdEEOT_S3_ = comdat any

$_ZNK2xt17xfunction_stepperINS_6detail4plusEJRKNS_17xtensor_containerINS_7uvectorIdSaIdEEELm3ELNS_11layout_typeE1ENS_22xtensor_expression_tagEEERKNS_9xfunctionINS1_10multipliesEJNS_7xscalarIRKdEESB_EEEEE10deref_implIJLm0ELm1EEEEdSt16integer_sequenceImJXspT_EEE = comdat any

$_ZSt3getILm0EJN2xt8xstepperIKNS0_17xtensor_containerINS0_7uvectorIdSaIdEEELm3ELNS0_11layout_typeE1ENS0_22xtensor_expression_tagEEEEENS0_17xfunction_stepperINS0_6detail10multipliesEJNS0_7xscalarIRKdEERS9_EEEEERKNSt13tuple_elementIXT_ESt5tupleIJDpT0_EEE4typeERKSO_ = comdat any

$_ZNK2xt8xstepperIKNS_17xtensor_containerINS_7uvectorIdSaIdEEELm3ELNS_11layout_typeE1ENS_22xtensor_expression_tagEEEEdeEv = comdat any

$_ZSt3getILm1EJN2xt8xstepperIKNS0_17xtensor_containerINS0_7uvectorIdSaIdEEELm3ELNS0_11layout_typeE1ENS0_22xtensor_expression_tagEEEEENS0_17xfunction_stepperINS0_6detail10multipliesEJNS0_7xscalarIRKdEERS9_EEEEERKNSt13tuple_elementIXT_ESt5tupleIJDpT0_EEE4typeERKSO_ = comdat any

$_ZNK2xt17xfunction_stepperINS_6detail10multipliesEJNS_7xscalarIRKdEERKNS_17xtensor_containerINS_7uvectorIdSaIdEEELm3ELNS_11layout_typeE1ENS_22xtensor_expression_tagEEEEEdeEv = comdat any

$_ZSt12__get_helperILm0EN2xt8xstepperIKNS0_17xtensor_containerINS0_7uvectorIdSaIdEEELm3ELNS0_11layout_typeE1ENS0_22xtensor_expression_tagEEEEEJNS0_17xfunction_stepperINS0_6detail10multipliesEJNS0_7xscalarIRKdEERS9_EEEEERKT0_RKSt11_Tuple_implIXT_EJSK_DpT1_EE = comdat any

$_ZNSt11_Tuple_implILm0EJN2xt8xstepperIKNS0_17xtensor_containerINS0_7uvectorIdSaIdEEELm3ELNS0_11layout_typeE1ENS0_22xtensor_expression_tagEEEEENS0_17xfunction_stepperINS0_6detail10multipliesEJNS0_7xscalarIRKdEERS9_EEEEE7_M_headERKSK_ = comdat any

$_ZNSt10_Head_baseILm0EN2xt8xstepperIKNS0_17xtensor_containerINS0_7uvectorIdSaIdEEELm3ELNS0_11layout_typeE1ENS0_22xtensor_expression_tagEEEEELb0EE7_M_headERKSB_ = comdat any

$_ZSt12__get_helperILm1EN2xt17xfunction_stepperINS0_6detail10multipliesEJNS0_7xscalarIRKdEERKNS0_17xtensor_containerINS0_7uvectorIdSaIdEEELm3ELNS0_11layout_typeE1ENS0_22xtensor_expression_tagEEEEEEJEERKT0_RKSt11_Tuple_implIXT_EJSI_DpT1_EE = comdat any

$_ZNSt11_Tuple_implILm1EJN2xt17xfunction_stepperINS0_6detail10multipliesEJNS0_7xscalarIRKdEERKNS0_17xtensor_containerINS0_7uvectorIdSaIdEEELm3ELNS0_11layout_typeE1ENS0_22xtensor_expression_tagEEEEEEEE7_M_headERKSI_ = comdat any

$_ZNSt10_Head_baseILm1EN2xt17xfunction_stepperINS0_6detail10multipliesEJNS0_7xscalarIRKdEERKNS0_17xtensor_containerINS0_7uvectorIdSaIdEEELm3ELNS0_11layout_typeE1ENS0_22xtensor_expression_tagEEEEEELb0EE7_M_headERKSI_ = comdat any

$_ZNK2xt17xfunction_stepperINS_6detail10multipliesEJNS_7xscalarIRKdEERKNS_17xtensor_containerINS_7uvectorIdSaIdEEELm3ELNS_11layout_typeE1ENS_22xtensor_expression_tagEEEEE10deref_implIJLm0ELm1EEEEdSt16integer_sequenceImJXspT_EEE = comdat any

$_ZSt3getILm0EJN2xt15xscalar_stepperILb1ERKdEENS0_8xstepperIKNS0_17xtensor_containerINS0_7uvectorIdSaIdEEELm3ELNS0_11layout_typeE1ENS0_22xtensor_expression_tagEEEEEEERKNSt13tuple_elementIXT_ESt5tupleIJDpT0_EEE4typeERKSJ_ = comdat any

$_ZNK2xt15xscalar_stepperILb1ERKdEdeEv = comdat any

$_ZSt3getILm1EJN2xt15xscalar_stepperILb1ERKdEENS0_8xstepperIKNS0_17xtensor_containerINS0_7uvectorIdSaIdEEELm3ELNS0_11layout_typeE1ENS0_22xtensor_expression_tagEEEEEEERKNSt13tuple_elementIXT_ESt5tupleIJDpT0_EEE4typeERKSJ_ = comdat any

$_ZSt12__get_helperILm0EN2xt15xscalar_stepperILb1ERKdEEJNS0_8xstepperIKNS0_17xtensor_containerINS0_7uvectorIdSaIdEEELm3ELNS0_11layout_typeE1ENS0_22xtensor_expression_tagEEEEEEERKT0_RKSt11_Tuple_implIXT_EJSF_DpT1_EE = comdat any

$_ZNSt11_Tuple_implILm0EJN2xt15xscalar_stepperILb1ERKdEENS0_8xstepperIKNS0_17xtensor_containerINS0_7uvectorIdSaIdEEELm3ELNS0_11layout_typeE1ENS0_22xtensor_expression_tagEEEEEEE7_M_headERKSF_ = comdat any

$_ZNSt10_Head_baseILm0EN2xt15xscalar_stepperILb1ERKdEELb0EE7_M_headERKS5_ = comdat any

$_ZSt12__get_helperILm1EN2xt8xstepperIKNS0_17xtensor_containerINS0_7uvectorIdSaIdEEELm3ELNS0_11layout_typeE1ENS0_22xtensor_expression_tagEEEEEJEERKT0_RKSt11_Tuple_implIXT_EJSB_DpT1_EE = comdat any

$_ZNSt11_Tuple_implILm1EJN2xt8xstepperIKNS0_17xtensor_containerINS0_7uvectorIdSaIdEEELm3ELNS0_11layout_typeE1ENS0_22xtensor_expression_tagEEEEEEE7_M_headERKSB_ = comdat any

$_ZNSt10_Head_baseILm1EN2xt8xstepperIKNS0_17xtensor_containerINS0_7uvectorIdSaIdEEELm3ELNS0_11layout_typeE1ENS0_22xtensor_expression_tagEEEEELb0EE7_M_headERKSB_ = comdat any

$_ZN2xt16stepper_assignerINS_17xtensor_containerINS_7uvectorIdSaIdEEELm3ELNS_11layout_typeE1ENS_22xtensor_expression_tagEEENS_9xfunctionINS_6detail4plusEJRKS7_RKNS8_INS9_10multipliesEJNS_7xscalarIRKdEESC_EEEEEELS5_1EE4stepEm = comdat any

$_ZN2xt16stepper_assignerINS_17xtensor_containerINS_7uvectorIdSaIdEEELm3ELNS_11layout_typeE1ENS_22xtensor_expression_tagEEENS_9xfunctionINS_6detail4plusEJRKS7_RKNS8_INS9_10multipliesEJNS_7xscalarIRKdEESC_EEEEEELS5_1EE5resetEm = comdat any

$_ZN2xt16stepper_assignerINS_17xtensor_containerINS_7uvectorIdSaIdEEELm3ELNS_11layout_typeE1ENS_22xtensor_expression_tagEEENS_9xfunctionINS_6detail4plusEJRKS7_RKNS8_INS9_10multipliesEJNS_7xscalarIRKdEESC_EEEEEELS5_1EE6to_endES5_ = comdat any

$_ZN2xt8xstepperINS_17xtensor_containerINS_7uvectorIdSaIdEEELm3ELNS_11layout_typeE1ENS_22xtensor_expression_tagEEEE4stepEmm = comdat any

$_ZN2xt17xfunction_stepperINS_6detail4plusEJRKNS_17xtensor_containerINS_7uvectorIdSaIdEEELm3ELNS_11layout_typeE1ENS_22xtensor_expression_tagEEERKNS_9xfunctionINS1_10multipliesEJNS_7xscalarIRKdEESB_EEEEE4stepEm = comdat any

$_ZNK2xt10xcontainerINS_17xtensor_containerINS_7uvectorIdSaIdEEELm3ELNS_11layout_typeE1ENS_22xtensor_expression_tagEEEE7stridesEv = comdat any

$_ZNKSt5arrayIlLm3EEixEm = comdat any

$_ZNK2xt18xstrided_containerINS_17xtensor_containerINS_7uvectorIdSaIdEEELm3ELNS_11layout_typeE1ENS_22xtensor_expression_tagEEEE12strides_implEv = comdat any

$_ZN2xt8for_eachIRZNS_17xfunction_stepperINS_6detail4plusEJRKNS_17xtensor_containerINS_7uvectorIdSaIdEEELm3ELNS_11layout_typeE1ENS_22xtensor_expression_tagEEERKNS_9xfunctionINS2_10multipliesEJNS_7xscalarIRKdEESC_EEEEE4stepEmEUlRT_E_JNS_8xstepperISB_EENS1_ISE_JSI_SC_EEEEEEvOSN_RSt5tupleIJDpT0_EE = comdat any

$_ZN2xt6detail13for_each_implILm0ERZNS_17xfunction_stepperINS0_4plusEJRKNS_17xtensor_containerINS_7uvectorIdSaIdEEELm3ELNS_11layout_typeE1ENS_22xtensor_expression_tagEEERKNS_9xfunctionINS0_10multipliesEJNS_7xscalarIRKdEESC_EEEEE4stepEmEUlRT_E_JNS_8xstepperISB_EENS2_ISE_JSI_SC_EEEEEENSt9enable_ifIXltT_sZT1_EvE4typeEOT0_RSt5tupleIJDpT1_EE = comdat any

$_ZZN2xt17xfunction_stepperINS_6detail4plusEJRKNS_17xtensor_containerINS_7uvectorIdSaIdEEELm3ELNS_11layout_typeE1ENS_22xtensor_expression_tagEEERKNS_9xfunctionINS1_10multipliesEJNS_7xscalarIRKdEESB_EEEEE4stepEmENKUlRT_E_clINS_8xstepperISA_EEEEDaSN_ = comdat any

$_ZSt3getILm0EJN2xt8xstepperIKNS0_17xtensor_containerINS0_7uvectorIdSaIdEEELm3ELNS0_11layout_typeE1ENS0_22xtensor_expression_tagEEEEENS0_17xfunction_stepperINS0_6detail10multipliesEJNS0_7xscalarIRKdEERS9_EEEEERNSt13tuple_elementIXT_ESt5tupleIJDpT0_EEE4typeERSO_ = comdat any

$_ZN2xt6detail13for_each_implILm1ERZNS_17xfunction_stepperINS0_4plusEJRKNS_17xtensor_containerINS_7uvectorIdSaIdEEELm3ELNS_11layout_typeE1ENS_22xtensor_expression_tagEEERKNS_9xfunctionINS0_10multipliesEJNS_7xscalarIRKdEESC_EEEEE4stepEmEUlRT_E_JNS_8xstepperISB_EENS2_ISE_JSI_SC_EEEEEENSt9enable_ifIXltT_sZT1_EvE4typeEOT0_RSt5tupleIJDpT1_EE = comdat any

$_ZN2xt8xstepperIKNS_17xtensor_containerINS_7uvectorIdSaIdEEELm3ELNS_11layout_typeE1ENS_22xtensor_expression_tagEEEE4stepEmm = comdat any

$_ZSt12__get_helperILm0EN2xt8xstepperIKNS0_17xtensor_containerINS0_7uvectorIdSaIdEEELm3ELNS0_11layout_typeE1ENS0_22xtensor_expression_tagEEEEEJNS0_17xfunction_stepperINS0_6detail10multipliesEJNS0_7xscalarIRKdEERS9_EEEEERT0_RSt11_Tuple_implIXT_EJSK_DpT1_EE = comdat any

$_ZNSt11_Tuple_implILm0EJN2xt8xstepperIKNS0_17xtensor_containerINS0_7uvectorIdSaIdEEELm3ELNS0_11layout_typeE1ENS0_22xtensor_expression_tagEEEEENS0_17xfunction_stepperINS0_6detail10multipliesEJNS0_7xscalarIRKdEERS9_EEEEE7_M_headERSK_ = comdat any

$_ZNSt10_Head_baseILm0EN2xt8xstepperIKNS0_17xtensor_containerINS0_7uvectorIdSaIdEEELm3ELNS0_11layout_typeE1ENS0_22xtensor_expression_tagEEEEELb0EE7_M_headERSB_ = comdat any

$_ZZN2xt17xfunction_stepperINS_6detail4plusEJRKNS_17xtensor_containerINS_7uvectorIdSaIdEEELm3ELNS_11layout_typeE1ENS_22xtensor_expression_tagEEERKNS_9xfunctionINS1_10multipliesEJNS_7xscalarIRKdEESB_EEEEE4stepEmENKUlRT_E_clINS0_ISD_JSH_SB_EEEEEDaSN_ = comdat any

$_ZSt3getILm1EJN2xt8xstepperIKNS0_17xtensor_containerINS0_7uvectorIdSaIdEEELm3ELNS0_11layout_typeE1ENS0_22xtensor_expression_tagEEEEENS0_17xfunction_stepperINS0_6detail10multipliesEJNS0_7xscalarIRKdEERS9_EEEEERNSt13tuple_elementIXT_ESt5tupleIJDpT0_EEE4typeERSO_ = comdat any

$_ZN2xt6detail13for_each_implILm2ERZNS_17xfunction_stepperINS0_4plusEJRKNS_17xtensor_containerINS_7uvectorIdSaIdEEELm3ELNS_11layout_typeE1ENS_22xtensor_expression_tagEEERKNS_9xfunctionINS0_10multipliesEJNS_7xscalarIRKdEESC_EEEEE4stepEmEUlRT_E_JNS_8xstepperISB_EENS2_ISE_JSI_SC_EEEEEENSt9enable_ifIXeqT_sZT1_EvE4typeEOT0_RSt5tupleIJDpT1_EE = comdat any

$_ZN2xt17xfunction_stepperINS_6detail10multipliesEJNS_7xscalarIRKdEERKNS_17xtensor_containerINS_7uvectorIdSaIdEEELm3ELNS_11layout_typeE1ENS_22xtensor_expression_tagEEEEE4stepEm = comdat any

$_ZN2xt8for_eachIRZNS_17xfunction_stepperINS_6detail10multipliesEJNS_7xscalarIRKdEERKNS_17xtensor_containerINS_7uvectorIdSaIdEEELm3ELNS_11layout_typeE1ENS_22xtensor_expression_tagEEEEE4stepEmEUlRT_E_JNS_15xscalar_stepperILb1ES6_EENS_8xstepperISF_EEEEEvOSI_RSt5tupleIJDpT0_EE = comdat any

$_ZN2xt6detail13for_each_implILm0ERZNS_17xfunction_stepperINS0_10multipliesEJNS_7xscalarIRKdEERKNS_17xtensor_containerINS_7uvectorIdSaIdEEELm3ELNS_11layout_typeE1ENS_22xtensor_expression_tagEEEEE4stepEmEUlRT_E_JNS_15xscalar_stepperILb1ES6_EENS_8xstepperISF_EEEEENSt9enable_ifIXltT_sZT1_EvE4typeEOT0_RSt5tupleIJDpT1_EE = comdat any

$_ZZN2xt17xfunction_stepperINS_6detail10multipliesEJNS_7xscalarIRKdEERKNS_17xtensor_containerINS_7uvectorIdSaIdEEELm3ELNS_11layout_typeE1ENS_22xtensor_expression_tagEEEEE4stepEmENKUlRT_E_clINS_15xscalar_stepperILb1ES5_EEEEDaSI_ = comdat any

$_ZSt3getILm0EJN2xt15xscalar_stepperILb1ERKdEENS0_8xstepperIKNS0_17xtensor_containerINS0_7uvectorIdSaIdEEELm3ELNS0_11layout_typeE1ENS0_22xtensor_expression_tagEEEEEEERNSt13tuple_elementIXT_ESt5tupleIJDpT0_EEE4typeERSJ_ = comdat any

$_ZN2xt6detail13for_each_implILm1ERZNS_17xfunction_stepperINS0_10multipliesEJNS_7xscalarIRKdEERKNS_17xtensor_containerINS_7uvectorIdSaIdEEELm3ELNS_11layout_typeE1ENS_22xtensor_expression_tagEEEEE4stepEmEUlRT_E_JNS_15xscalar_stepperILb1ES6_EENS_8xstepperISF_EEEEENSt9enable_ifIXltT_sZT1_EvE4typeEOT0_RSt5tupleIJDpT1_EE = comdat any

$_ZN2xt15xscalar_stepperILb1ERKdE4stepEmm = comdat any

$_ZSt12__get_helperILm0EN2xt15xscalar_stepperILb1ERKdEEJNS0_8xstepperIKNS0_17xtensor_containerINS0_7uvectorIdSaIdEEELm3ELNS0_11layout_typeE1ENS0_22xtensor_expression_tagEEEEEEERT0_RSt11_Tuple_implIXT_EJSF_DpT1_EE = comdat any

$_ZNSt11_Tuple_implILm0EJN2xt15xscalar_stepperILb1ERKdEENS0_8xstepperIKNS0_17xtensor_containerINS0_7uvectorIdSaIdEEELm3ELNS0_11layout_typeE1ENS0_22xtensor_expression_tagEEEEEEE7_M_headERSF_ = comdat any

$_ZNSt10_Head_baseILm0EN2xt15xscalar_stepperILb1ERKdEELb0EE7_M_headERS5_ = comdat any

$_ZZN2xt17xfunction_stepperINS_6detail10multipliesEJNS_7xscalarIRKdEERKNS_17xtensor_containerINS_7uvectorIdSaIdEEELm3ELNS_11layout_typeE1ENS_22xtensor_expression_tagEEEEE4stepEmENKUlRT_E_clINS_8xstepperISE_EEEEDaSI_ = comdat any

$_ZSt3getILm1EJN2xt15xscalar_stepperILb1ERKdEENS0_8xstepperIKNS0_17xtensor_containerINS0_7uvectorIdSaIdEEELm3ELNS0_11layout_typeE1ENS0_22xtensor_expression_tagEEEEEEERNSt13tuple_elementIXT_ESt5tupleIJDpT0_EEE4typeERSJ_ = comdat any

$_ZN2xt6detail13for_each_implILm2ERZNS_17xfunction_stepperINS0_10multipliesEJNS_7xscalarIRKdEERKNS_17xtensor_containerINS_7uvectorIdSaIdEEELm3ELNS_11layout_typeE1ENS_22xtensor_expression_tagEEEEE4stepEmEUlRT_E_JNS_15xscalar_stepperILb1ES6_EENS_8xstepperISF_EEEEENSt9enable_ifIXeqT_sZT1_EvE4typeEOT0_RSt5tupleIJDpT1_EE = comdat any

$_ZSt12__get_helperILm1EN2xt8xstepperIKNS0_17xtensor_containerINS0_7uvectorIdSaIdEEELm3ELNS0_11layout_typeE1ENS0_22xtensor_expression_tagEEEEEJEERT0_RSt11_Tuple_implIXT_EJSB_DpT1_EE = comdat any

$_ZNSt11_Tuple_implILm1EJN2xt8xstepperIKNS0_17xtensor_containerINS0_7uvectorIdSaIdEEELm3ELNS0_11layout_typeE1ENS0_22xtensor_expression_tagEEEEEEE7_M_headERSB_ = comdat any

$_ZNSt10_Head_baseILm1EN2xt8xstepperIKNS0_17xtensor_containerINS0_7uvectorIdSaIdEEELm3ELNS0_11layout_typeE1ENS0_22xtensor_expression_tagEEEEELb0EE7_M_headERSB_ = comdat any

$_ZSt12__get_helperILm1EN2xt17xfunction_stepperINS0_6detail10multipliesEJNS0_7xscalarIRKdEERKNS0_17xtensor_containerINS0_7uvectorIdSaIdEEELm3ELNS0_11layout_typeE1ENS0_22xtensor_expression_tagEEEEEEJEERT0_RSt11_Tuple_implIXT_EJSI_DpT1_EE = comdat any

$_ZNSt11_Tuple_implILm1EJN2xt17xfunction_stepperINS0_6detail10multipliesEJNS0_7xscalarIRKdEERKNS0_17xtensor_containerINS0_7uvectorIdSaIdEEELm3ELNS0_11layout_typeE1ENS0_22xtensor_expression_tagEEEEEEEE7_M_headERSI_ = comdat any

$_ZNSt10_Head_baseILm1EN2xt17xfunction_stepperINS0_6detail10multipliesEJNS0_7xscalarIRKdEERKNS0_17xtensor_containerINS0_7uvectorIdSaIdEEELm3ELNS0_11layout_typeE1ENS0_22xtensor_expression_tagEEEEEELb0EE7_M_headERSI_ = comdat any

$_ZN2xt8xstepperINS_17xtensor_containerINS_7uvectorIdSaIdEEELm3ELNS_11layout_typeE1ENS_22xtensor_expression_tagEEEE5resetEm = comdat any

$_ZN2xt17xfunction_stepperINS_6detail4plusEJRKNS_17xtensor_containerINS_7uvectorIdSaIdEEELm3ELNS_11layout_typeE1ENS_22xtensor_expression_tagEEERKNS_9xfunctionINS1_10multipliesEJNS_7xscalarIRKdEESB_EEEEE5resetEm = comdat any

$_ZNK2xt10xcontainerINS_17xtensor_containerINS_7uvectorIdSaIdEEELm3ELNS_11layout_typeE1ENS_22xtensor_expression_tagEEEE11backstridesEv = comdat any

$_ZNK2xt18xstrided_containerINS_17xtensor_containerINS_7uvectorIdSaIdEEELm3ELNS_11layout_typeE1ENS_22xtensor_expression_tagEEEE16backstrides_implEv = comdat any

$_ZN2xt8for_eachIRZNS_17xfunction_stepperINS_6detail4plusEJRKNS_17xtensor_containerINS_7uvectorIdSaIdEEELm3ELNS_11layout_typeE1ENS_22xtensor_expression_tagEEERKNS_9xfunctionINS2_10multipliesEJNS_7xscalarIRKdEESC_EEEEE5resetEmEUlRT_E_JNS_8xstepperISB_EENS1_ISE_JSI_SC_EEEEEEvOSN_RSt5tupleIJDpT0_EE = comdat any

$_ZN2xt6detail13for_each_implILm0ERZNS_17xfunction_stepperINS0_4plusEJRKNS_17xtensor_containerINS_7uvectorIdSaIdEEELm3ELNS_11layout_typeE1ENS_22xtensor_expression_tagEEERKNS_9xfunctionINS0_10multipliesEJNS_7xscalarIRKdEESC_EEEEE5resetEmEUlRT_E_JNS_8xstepperISB_EENS2_ISE_JSI_SC_EEEEEENSt9enable_ifIXltT_sZT1_EvE4typeEOT0_RSt5tupleIJDpT1_EE = comdat any

$_ZZN2xt17xfunction_stepperINS_6detail4plusEJRKNS_17xtensor_containerINS_7uvectorIdSaIdEEELm3ELNS_11layout_typeE1ENS_22xtensor_expression_tagEEERKNS_9xfunctionINS1_10multipliesEJNS_7xscalarIRKdEESB_EEEEE5resetEmENKUlRT_E_clINS_8xstepperISA_EEEEDaSN_ = comdat any

$_ZN2xt6detail13for_each_implILm1ERZNS_17xfunction_stepperINS0_4plusEJRKNS_17xtensor_containerINS_7uvectorIdSaIdEEELm3ELNS_11layout_typeE1ENS_22xtensor_expression_tagEEERKNS_9xfunctionINS0_10multipliesEJNS_7xscalarIRKdEESC_EEEEE5resetEmEUlRT_E_JNS_8xstepperISB_EENS2_ISE_JSI_SC_EEEEEENSt9enable_ifIXltT_sZT1_EvE4typeEOT0_RSt5tupleIJDpT1_EE = comdat any

$_ZN2xt8xstepperIKNS_17xtensor_containerINS_7uvectorIdSaIdEEELm3ELNS_11layout_typeE1ENS_22xtensor_expression_tagEEEE5resetEm = comdat any

$_ZZN2xt17xfunction_stepperINS_6detail4plusEJRKNS_17xtensor_containerINS_7uvectorIdSaIdEEELm3ELNS_11layout_typeE1ENS_22xtensor_expression_tagEEERKNS_9xfunctionINS1_10multipliesEJNS_7xscalarIRKdEESB_EEEEE5resetEmENKUlRT_E_clINS0_ISD_JSH_SB_EEEEEDaSN_ = comdat any

$_ZN2xt6detail13for_each_implILm2ERZNS_17xfunction_stepperINS0_4plusEJRKNS_17xtensor_containerINS_7uvectorIdSaIdEEELm3ELNS_11layout_typeE1ENS_22xtensor_expression_tagEEERKNS_9xfunctionINS0_10multipliesEJNS_7xscalarIRKdEESC_EEEEE5resetEmEUlRT_E_JNS_8xstepperISB_EENS2_ISE_JSI_SC_EEEEEENSt9enable_ifIXeqT_sZT1_EvE4typeEOT0_RSt5tupleIJDpT1_EE = comdat any

$_ZN2xt17xfunction_stepperINS_6detail10multipliesEJNS_7xscalarIRKdEERKNS_17xtensor_containerINS_7uvectorIdSaIdEEELm3ELNS_11layout_typeE1ENS_22xtensor_expression_tagEEEEE5resetEm = comdat any

$_ZN2xt8for_eachIRZNS_17xfunction_stepperINS_6detail10multipliesEJNS_7xscalarIRKdEERKNS_17xtensor_containerINS_7uvectorIdSaIdEEELm3ELNS_11layout_typeE1ENS_22xtensor_expression_tagEEEEE5resetEmEUlRT_E_JNS_15xscalar_stepperILb1ES6_EENS_8xstepperISF_EEEEEvOSI_RSt5tupleIJDpT0_EE = comdat any

$_ZN2xt6detail13for_each_implILm0ERZNS_17xfunction_stepperINS0_10multipliesEJNS_7xscalarIRKdEERKNS_17xtensor_containerINS_7uvectorIdSaIdEEELm3ELNS_11layout_typeE1ENS_22xtensor_expression_tagEEEEE5resetEmEUlRT_E_JNS_15xscalar_stepperILb1ES6_EENS_8xstepperISF_EEEEENSt9enable_ifIXltT_sZT1_EvE4typeEOT0_RSt5tupleIJDpT1_EE = comdat any

$_ZZN2xt17xfunction_stepperINS_6detail10multipliesEJNS_7xscalarIRKdEERKNS_17xtensor_containerINS_7uvectorIdSaIdEEELm3ELNS_11layout_typeE1ENS_22xtensor_expression_tagEEEEE5resetEmENKUlRT_E_clINS_15xscalar_stepperILb1ES5_EEEEDaSI_ = comdat any

$_ZN2xt6detail13for_each_implILm1ERZNS_17xfunction_stepperINS0_10multipliesEJNS_7xscalarIRKdEERKNS_17xtensor_containerINS_7uvectorIdSaIdEEELm3ELNS_11layout_typeE1ENS_22xtensor_expression_tagEEEEE5resetEmEUlRT_E_JNS_15xscalar_stepperILb1ES6_EENS_8xstepperISF_EEEEENSt9enable_ifIXltT_sZT1_EvE4typeEOT0_RSt5tupleIJDpT1_EE = comdat any

$_ZN2xt15xscalar_stepperILb1ERKdE5resetEm = comdat any

$_ZZN2xt17xfunction_stepperINS_6detail10multipliesEJNS_7xscalarIRKdEERKNS_17xtensor_containerINS_7uvectorIdSaIdEEELm3ELNS_11layout_typeE1ENS_22xtensor_expression_tagEEEEE5resetEmENKUlRT_E_clINS_8xstepperISE_EEEEDaSI_ = comdat any

$_ZN2xt6detail13for_each_implILm2ERZNS_17xfunction_stepperINS0_10multipliesEJNS_7xscalarIRKdEERKNS_17xtensor_containerINS_7uvectorIdSaIdEEELm3ELNS_11layout_typeE1ENS_22xtensor_expression_tagEEEEE5resetEmEUlRT_E_JNS_15xscalar_stepperILb1ES6_EENS_8xstepperISF_EEEEENSt9enable_ifIXeqT_sZT1_EvE4typeEOT0_RSt5tupleIJDpT1_EE = comdat any

$_ZN2xt8xstepperINS_17xtensor_containerINS_7uvectorIdSaIdEEELm3ELNS_11layout_typeE1ENS_22xtensor_expression_tagEEEE6to_endES5_ = comdat any

$_ZN2xt17xfunction_stepperINS_6detail4plusEJRKNS_17xtensor_containerINS_7uvectorIdSaIdEEELm3ELNS_11layout_typeE1ENS_22xtensor_expression_tagEEERKNS_9xfunctionINS1_10multipliesEJNS_7xscalarIRKdEESB_EEEEE6to_endES7_ = comdat any

$_ZN2xt10xcontainerINS_17xtensor_containerINS_7uvectorIdSaIdEEELm3ELNS_11layout_typeE1ENS_22xtensor_expression_tagEEEE9data_xendES5_m = comdat any

$_ZNK2xt10xcontainerINS_17xtensor_containerINS_7uvectorIdSaIdEEELm3ELNS_11layout_typeE1ENS_22xtensor_expression_tagEEEE14data_xend_implIPdEET_SB_S5_m = comdat any

$_ZN2xt16strided_data_endINS_10xcontainerINS_17xtensor_containerINS_7uvectorIdSaIdEEELm3ELNS_11layout_typeE1ENS_22xtensor_expression_tagEEEEEPdmEET0_RKT_SB_S6_T1_ = comdat any

$_ZNKSt5arrayIlLm3EE4backEv = comdat any

$_ZNKSt5arrayIlLm3EE5frontEv = comdat any

$_ZN2xt8for_eachIRZNS_17xfunction_stepperINS_6detail4plusEJRKNS_17xtensor_containerINS_7uvectorIdSaIdEEELm3ELNS_11layout_typeE1ENS_22xtensor_expression_tagEEERKNS_9xfunctionINS2_10multipliesEJNS_7xscalarIRKdEESC_EEEEE6to_endES8_EUlRT_E_JNS_8xstepperISB_EENS1_ISE_JSI_SC_EEEEEEvOSN_RSt5tupleIJDpT0_EE = comdat any

$_ZN2xt6detail13for_each_implILm0ERZNS_17xfunction_stepperINS0_4plusEJRKNS_17xtensor_containerINS_7uvectorIdSaIdEEELm3ELNS_11layout_typeE1ENS_22xtensor_expression_tagEEERKNS_9xfunctionINS0_10multipliesEJNS_7xscalarIRKdEESC_EEEEE6to_endES8_EUlRT_E_JNS_8xstepperISB_EENS2_ISE_JSI_SC_EEEEEENSt9enable_ifIXltT_sZT1_EvE4typeEOT0_RSt5tupleIJDpT1_EE = comdat any

$_ZZN2xt17xfunction_stepperINS_6detail4plusEJRKNS_17xtensor_containerINS_7uvectorIdSaIdEEELm3ELNS_11layout_typeE1ENS_22xtensor_expression_tagEEERKNS_9xfunctionINS1_10multipliesEJNS_7xscalarIRKdEESB_EEEEE6to_endES7_ENKUlRT_E_clINS_8xstepperISA_EEEEDaSN_ = comdat any

$_ZN2xt6detail13for_each_implILm1ERZNS_17xfunction_stepperINS0_4plusEJRKNS_17xtensor_containerINS_7uvectorIdSaIdEEELm3ELNS_11layout_typeE1ENS_22xtensor_expression_tagEEERKNS_9xfunctionINS0_10multipliesEJNS_7xscalarIRKdEESC_EEEEE6to_endES8_EUlRT_E_JNS_8xstepperISB_EENS2_ISE_JSI_SC_EEEEEENSt9enable_ifIXltT_sZT1_EvE4typeEOT0_RSt5tupleIJDpT1_EE = comdat any

$_ZN2xt8xstepperIKNS_17xtensor_containerINS_7uvectorIdSaIdEEELm3ELNS_11layout_typeE1ENS_22xtensor_expression_tagEEEE6to_endES5_ = comdat any

$_ZNK2xt10xcontainerINS_17xtensor_containerINS_7uvectorIdSaIdEEELm3ELNS_11layout_typeE1ENS_22xtensor_expression_tagEEEE9data_xendES5_m = comdat any

$_ZNK2xt10xcontainerINS_17xtensor_containerINS_7uvectorIdSaIdEEELm3ELNS_11layout_typeE1ENS_22xtensor_expression_tagEEEE14data_xend_implIPKdEET_SC_S5_m = comdat any

$_ZN2xt16strided_data_endINS_10xcontainerINS_17xtensor_containerINS_7uvectorIdSaIdEEELm3ELNS_11layout_typeE1ENS_22xtensor_expression_tagEEEEEPKdmEET0_RKT_SC_S6_T1_ = comdat any

$_ZZN2xt17xfunction_stepperINS_6detail4plusEJRKNS_17xtensor_containerINS_7uvectorIdSaIdEEELm3ELNS_11layout_typeE1ENS_22xtensor_expression_tagEEERKNS_9xfunctionINS1_10multipliesEJNS_7xscalarIRKdEESB_EEEEE6to_endES7_ENKUlRT_E_clINS0_ISD_JSH_SB_EEEEEDaSN_ = comdat any

$_ZN2xt6detail13for_each_implILm2ERZNS_17xfunction_stepperINS0_4plusEJRKNS_17xtensor_containerINS_7uvectorIdSaIdEEELm3ELNS_11layout_typeE1ENS_22xtensor_expression_tagEEERKNS_9xfunctionINS0_10multipliesEJNS_7xscalarIRKdEESC_EEEEE6to_endES8_EUlRT_E_JNS_8xstepperISB_EENS2_ISE_JSI_SC_EEEEEENSt9enable_ifIXeqT_sZT1_EvE4typeEOT0_RSt5tupleIJDpT1_EE = comdat any

$_ZN2xt17xfunction_stepperINS_6detail10multipliesEJNS_7xscalarIRKdEERKNS_17xtensor_containerINS_7uvectorIdSaIdEEELm3ELNS_11layout_typeE1ENS_22xtensor_expression_tagEEEEE6to_endESB_ = comdat any

$_ZN2xt8for_eachIRZNS_17xfunction_stepperINS_6detail10multipliesEJNS_7xscalarIRKdEERKNS_17xtensor_containerINS_7uvectorIdSaIdEEELm3ELNS_11layout_typeE1ENS_22xtensor_expression_tagEEEEE6to_endESC_EUlRT_E_JNS_15xscalar_stepperILb1ES6_EENS_8xstepperISF_EEEEEvOSI_RSt5tupleIJDpT0_EE = comdat any

$_ZN2xt6detail13for_each_implILm0ERZNS_17xfunction_stepperINS0_10multipliesEJNS_7xscalarIRKdEERKNS_17xtensor_containerINS_7uvectorIdSaIdEEELm3ELNS_11layout_typeE1ENS_22xtensor_expression_tagEEEEE6to_endESC_EUlRT_E_JNS_15xscalar_stepperILb1ES6_EENS_8xstepperISF_EEEEENSt9enable_ifIXltT_sZT1_EvE4typeEOT0_RSt5tupleIJDpT1_EE = comdat any

$_ZZN2xt17xfunction_stepperINS_6detail10multipliesEJNS_7xscalarIRKdEERKNS_17xtensor_containerINS_7uvectorIdSaIdEEELm3ELNS_11layout_typeE1ENS_22xtensor_expression_tagEEEEE6to_endESB_ENKUlRT_E_clINS_15xscalar_stepperILb1ES5_EEEEDaSI_ = comdat any

$_ZN2xt6detail13for_each_implILm1ERZNS_17xfunction_stepperINS0_10multipliesEJNS_7xscalarIRKdEERKNS_17xtensor_containerINS_7uvectorIdSaIdEEELm3ELNS_11layout_typeE1ENS_22xtensor_expression_tagEEEEE6to_endESC_EUlRT_E_JNS_15xscalar_stepperILb1ES6_EENS_8xstepperISF_EEEEENSt9enable_ifIXltT_sZT1_EvE4typeEOT0_RSt5tupleIJDpT1_EE = comdat any

$_ZN2xt15xscalar_stepperILb1ERKdE6to_endENS_11layout_typeE = comdat any

$_ZZN2xt17xfunction_stepperINS_6detail10multipliesEJNS_7xscalarIRKdEERKNS_17xtensor_containerINS_7uvectorIdSaIdEEELm3ELNS_11layout_typeE1ENS_22xtensor_expression_tagEEEEE6to_endESB_ENKUlRT_E_clINS_8xstepperISE_EEEEDaSI_ = comdat any

$_ZN2xt6detail13for_each_implILm2ERZNS_17xfunction_stepperINS0_10multipliesEJNS_7xscalarIRKdEERKNS_17xtensor_containerINS_7uvectorIdSaIdEEELm3ELNS_11layout_typeE1ENS_22xtensor_expression_tagEEEEE6to_endESC_EUlRT_E_JNS_15xscalar_stepperILb1ES6_EENS_8xstepperISF_EEEEENSt9enable_ifIXeqT_sZT1_EvE4typeEOT0_RSt5tupleIJDpT1_EE = comdat any

$_ZN2xt17xtensor_containerINS_7uvectorIdSaIdEEELm3ELNS_11layout_typeE1ENS_22xtensor_expression_tagEEaSEOS6_ = comdat any

$_ZN2xt19xcontainer_semanticINS_17xtensor_containerINS_7uvectorIdSaIdEEELm3ELNS_11layout_typeE1ENS_22xtensor_expression_tagEEEEaSEOS8_ = comdat any

$_ZN2xt7uvectorIdSaIdEEaSEOS2_ = comdat any

$_ZN2xt14xsemantic_baseINS_17xtensor_containerINS_7uvectorIdSaIdEEELm3ELNS_11layout_typeE1ENS_22xtensor_expression_tagEEEEaSEOS8_ = comdat any

$_ZN2xt20xsharable_expressionINS_17xtensor_containerINS_7uvectorIdSaIdEEELm3ELNS_11layout_typeE1ENS_22xtensor_expression_tagEEEEaSEOS8_ = comdat any

$_ZNSt10shared_ptrIN2xt17xtensor_containerINS0_7uvectorIdSaIdEEELm3ELNS0_11layout_typeE1ENS0_22xtensor_expression_tagEEEEaSEOS8_ = comdat any

$_ZNSt12__shared_ptrIN2xt17xtensor_containerINS0_7uvectorIdSaIdEEELm3ELNS0_11layout_typeE1ENS0_22xtensor_expression_tagEEELN9__gnu_cxx12_Lock_policyE2EEaSEOSA_ = comdat any

$_ZNSt12__shared_ptrIN2xt17xtensor_containerINS0_7uvectorIdSaIdEEELm3ELNS0_11layout_typeE1ENS0_22xtensor_expression_tagEEELN9__gnu_cxx12_Lock_policyE2EEC2EOSA_ = comdat any

$_ZNSt12__shared_ptrIN2xt17xtensor_containerINS0_7uvectorIdSaIdEEELm3ELNS0_11layout_typeE1ENS0_22xtensor_expression_tagEEELN9__gnu_cxx12_Lock_policyE2EE4swapERSA_ = comdat any

$_ZNSt12__shared_ptrIN2xt17xtensor_containerINS0_7uvectorIdSaIdEEELm3ELNS0_11layout_typeE1ENS0_22xtensor_expression_tagEEELN9__gnu_cxx12_Lock_policyE2EED2Ev = comdat any

$_ZNSt14__shared_countILN9__gnu_cxx12_Lock_policyE2EE7_M_swapERS2_ = comdat any

$_ZSt4swapIPN2xt17xtensor_containerINS0_7uvectorIdSaIdEEELm3ELNS0_11layout_typeE1ENS0_22xtensor_expression_tagEEEENSt9enable_ifIXsr6__and_ISt6__not_ISt15__is_tuple_likeIT_EESt21is_move_constructibleISC_ESt18is_move_assignableISC_EEE5valueEvE4typeERSC_SL_ = comdat any

$_ZN2xt7uvectorIdSaIdEEC2EOS2_ = comdat any

$_ZSt4swapIPdENSt9enable_ifIXsr6__and_ISt6__not_ISt15__is_tuple_likeIT_EESt21is_move_constructibleIS4_ESt18is_move_assignableIS4_EEE5valueEvE4typeERS4_SD_ = comdat any

$_ZNSt12__shared_ptrIN2xt9xfunctionINS0_6detail4plusEJRKNS0_17xtensor_containerINS0_7uvectorIdSaIdEEELm3ELNS0_11layout_typeE1ENS0_22xtensor_expression_tagEEERKNS1_INS2_10multipliesEJNS0_7xscalarIRKdEESC_EEEEEELN9__gnu_cxx12_Lock_policyE2EED2Ev = comdat any

$_ZNSt11_Tuple_implILm0EJN2xt7xscalarIRKdEERKNS0_17xtensor_containerINS0_7uvectorIdSaIdEEELm3ELNS0_11layout_typeE1ENS0_22xtensor_expression_tagEEEEED2Ev = comdat any

$_ZN2xt20xsharable_expressionINS_9xfunctionINS_6detail10multipliesEJNS_7xscalarIRKdEERKNS_17xtensor_containerINS_7uvectorIdSaIdEEELm3ELNS_11layout_typeE1ENS_22xtensor_expression_tagEEEEEEED2Ev = comdat any

$_ZNSt10_Head_baseILm0EN2xt7xscalarIRKdEELb0EED2Ev = comdat any

$_ZN2xt20xsharable_expressionINS_7xscalarIRKdEEED2Ev = comdat any

$_ZNSt12__shared_ptrIN2xt7xscalarIRKdEELN9__gnu_cxx12_Lock_policyE2EED2Ev = comdat any

$_ZNSt12__shared_ptrIN2xt9xfunctionINS0_6detail10multipliesEJNS0_7xscalarIRKdEERKNS0_17xtensor_containerINS0_7uvectorIdSaIdEEELm3ELNS0_11layout_typeE1ENS0_22xtensor_expression_tagEEEEEELN9__gnu_cxx12_Lock_policyE2EED2Ev = comdat any

$_ZN2xt11data_offsetImSt5arrayIlLm2EElJlEEET_RKT0_T1_DpT2_ = comdat any

$_ZNK2xt10xcontainerINS_17xtensor_containerINS_7uvectorIdSaIdEEELm2ELNS_11layout_typeE1ENS_22xtensor_expression_tagEEEE7stridesEv = comdat any

$_ZN2xt7uvectorIdSaIdEEixEm = comdat any

$_ZN2xt6detail15raw_data_offsetILm0ESt5arrayIlLm2EElJlEEEDaRKT0_T1_DpT2_ = comdat any

$_ZN2xt11data_offsetImSt5arrayIlLm2EElJEEET_RKT0_T1_DpT2_ = comdat any

$_ZNKSt5arrayIlLm2EE4cendEv = comdat any

$_ZN2xt6detail15raw_data_offsetILm0EPKllJlEEEDaRKT0_T1_DpT2_ = comdat any

$_ZNKSt5arrayIlLm2EEixEm = comdat any

$_ZN2xt6detail15raw_data_offsetILm1ESt5arrayIlLm2EElJEEEDaRKT0_T1_DpT2_ = comdat any

$_ZN2xt6detail15raw_data_offsetILm2ESt5arrayIlLm2EEEEDaRKT0_ = comdat any

$_ZN2xt6detail15raw_data_offsetILm0ESt5arrayIlLm2EElJEEEDaRKT0_T1_DpT2_ = comdat any

$_ZN2xt11data_offsetImSt5arrayIlLm2EEEET_RKT0_ = comdat any

$_ZN2xt6detail15raw_data_offsetILm1ESt5arrayIlLm2EEEEDaRKT0_ = comdat any

$_ZNKSt5arrayIlLm2EE4dataEv = comdat any

$_ZN2xt6detail15raw_data_offsetILm1EPKllJEEEDaRKT0_T1_DpT2_ = comdat any

$_ZN2xt6detail15raw_data_offsetILm2EPKlEEDaRKT0_ = comdat any

$_ZNK2xt18xstrided_containerINS_17xtensor_containerINS_7uvectorIdSaIdEEELm2ELNS_11layout_typeE1ENS_22xtensor_expression_tagEEEE12strides_implEv = comdat any

$_ZN2xt6detail14make_xfunctionINS0_18nan_to_num_functorEJNS_9xfunctionINS0_7dividesEJRKNS_17xtensor_containerINS_7uvectorIdSaIdEEELm2ELNS_11layout_typeE1ENS_22xtensor_expression_tagEEESD_EEEEEEDaDpOT0_ = comdat any

$_ZN2xt9xfunctionINS_6detail18nan_to_num_functorEJNS0_INS1_7dividesEJRKNS_17xtensor_containerINS_7uvectorIdSaIdEEELm2ELNS_11layout_typeE1ENS_22xtensor_expression_tagEEESC_EEEEEC2IS2_JSD_EvEEOT_DpOT0_ = comdat any

$_ZN2xt20xsharable_expressionINS_9xfunctionINS_6detail18nan_to_num_functorEJNS1_INS2_7dividesEJRKNS_17xtensor_containerINS_7uvectorIdSaIdEEELm2ELNS_11layout_typeE1ENS_22xtensor_expression_tagEEESD_EEEEEEEC2Ev = comdat any

$_ZNSt5tupleIJN2xt9xfunctionINS0_6detail7dividesEJRKNS0_17xtensor_containerINS0_7uvectorIdSaIdEEELm2ELNS0_11layout_typeE1ENS0_22xtensor_expression_tagEEESC_EEEEEC2IJSD_ELb1ETnNSt9enable_ifIXclsr4_TCCIXT0_EEE29__is_implicitly_constructibleIDpT_EEEbE4typeELb1EEEDpOSH_ = comdat any

$_ZN2xt15xfunction_cacheINS_6detail13promote_indexIJSt5arrayImLm2EEEEEEC2Ev = comdat any

$_ZNSt10shared_ptrIN2xt9xfunctionINS0_6detail18nan_to_num_functorEJNS1_INS2_7dividesEJRKNS0_17xtensor_containerINS0_7uvectorIdSaIdEEELm2ELNS0_11layout_typeE1ENS0_22xtensor_expression_tagEEESD_EEEEEEEC2EDn = comdat any

$_ZNSt10shared_ptrIN2xt9xfunctionINS0_6detail18nan_to_num_functorEJNS1_INS2_7dividesEJRKNS0_17xtensor_containerINS0_7uvectorIdSaIdEEELm2ELNS0_11layout_typeE1ENS0_22xtensor_expression_tagEEESD_EEEEEEEC2Ev = comdat any

$_ZNSt12__shared_ptrIN2xt9xfunctionINS0_6detail18nan_to_num_functorEJNS1_INS2_7dividesEJRKNS0_17xtensor_containerINS0_7uvectorIdSaIdEEELm2ELNS0_11layout_typeE1ENS0_22xtensor_expression_tagEEESD_EEEEEELN9__gnu_cxx12_Lock_policyE2EEC2Ev = comdat any

$_ZNSt11_Tuple_implILm0EJN2xt9xfunctionINS0_6detail7dividesEJRKNS0_17xtensor_containerINS0_7uvectorIdSaIdEEELm2ELNS0_11layout_typeE1ENS0_22xtensor_expression_tagEEESC_EEEEEC2ISD_EEOT_ = comdat any

$_ZNSt10_Head_baseILm0EN2xt9xfunctionINS0_6detail7dividesEJRKNS0_17xtensor_containerINS0_7uvectorIdSaIdEEELm2ELNS0_11layout_typeE1ENS0_22xtensor_expression_tagEEESC_EEELb0EEC2ISD_EEOT_ = comdat any

$_ZN2xt9xfunctionINS_6detail7dividesEJRKNS_17xtensor_containerINS_7uvectorIdSaIdEEELm2ELNS_11layout_typeE1ENS_22xtensor_expression_tagEEESB_EEC2EOSC_ = comdat any

$_ZN2xt20xsharable_expressionINS_9xfunctionINS_6detail7dividesEJRKNS_17xtensor_containerINS_7uvectorIdSaIdEEELm2ELNS_11layout_typeE1ENS_22xtensor_expression_tagEEESC_EEEEC2EOSE_ = comdat any

$_ZNSt5tupleIJRKN2xt17xtensor_containerINS0_7uvectorIdSaIdEEELm2ELNS0_11layout_typeE1ENS0_22xtensor_expression_tagEEES9_EEC2EOSA_ = comdat any

$_ZNSt10shared_ptrIN2xt9xfunctionINS0_6detail7dividesEJRKNS0_17xtensor_containerINS0_7uvectorIdSaIdEEELm2ELNS0_11layout_typeE1ENS0_22xtensor_expression_tagEEESC_EEEEC2EOSE_ = comdat any

$_ZNSt12__shared_ptrIN2xt9xfunctionINS0_6detail7dividesEJRKNS0_17xtensor_containerINS0_7uvectorIdSaIdEEELm2ELNS0_11layout_typeE1ENS0_22xtensor_expression_tagEEESC_EEELN9__gnu_cxx12_Lock_policyE2EEC2EOSG_ = comdat any

$_ZNSt11_Tuple_implILm0EJRKN2xt17xtensor_containerINS0_7uvectorIdSaIdEEELm2ELNS0_11layout_typeE1ENS0_22xtensor_expression_tagEEES9_EEC2EOSA_ = comdat any

$_ZNSt11_Tuple_implILm1EJRKN2xt17xtensor_containerINS0_7uvectorIdSaIdEEELm2ELNS0_11layout_typeE1ENS0_22xtensor_expression_tagEEEEEC2EOSA_ = comdat any

$_ZN2xt6detail20xfunction_cache_implISt5arrayImLm2EENS0_13promote_indexIJS3_EEEEC2Ev = comdat any

$_ZN2xt6detail14make_xfunctionINS0_7dividesEJRNS_17xtensor_containerINS_7uvectorIdSaIdEEELm2ELNS_11layout_typeE1ENS_22xtensor_expression_tagEEESA_EEEDaDpOT0_ = comdat any

$_ZN2xt9xfunctionINS_6detail7dividesEJRKNS_17xtensor_containerINS_7uvectorIdSaIdEEELm2ELNS_11layout_typeE1ENS_22xtensor_expression_tagEEESB_EEC2IS2_JRS9_SE_EvEEOT_DpOT0_ = comdat any

$_ZN2xt20xsharable_expressionINS_9xfunctionINS_6detail7dividesEJRKNS_17xtensor_containerINS_7uvectorIdSaIdEEELm2ELNS_11layout_typeE1ENS_22xtensor_expression_tagEEESC_EEEEC2Ev = comdat any

$_ZNSt5tupleIJRKN2xt17xtensor_containerINS0_7uvectorIdSaIdEEELm2ELNS0_11layout_typeE1ENS0_22xtensor_expression_tagEEES9_EEC2IRS7_SC_TnNSt9enable_ifIXclsr4_TCCIXntcl14__is_alloc_argIT_EEEEE29__is_implicitly_constructibleISE_T0_EEEbE4typeELb1EEEOSE_OSF_ = comdat any

$_ZN2xt15xfunction_cacheINS_6detail13promote_indexIJSt5arrayImLm2EES4_EEEEC2Ev = comdat any

$_ZNSt10shared_ptrIN2xt9xfunctionINS0_6detail7dividesEJRKNS0_17xtensor_containerINS0_7uvectorIdSaIdEEELm2ELNS0_11layout_typeE1ENS0_22xtensor_expression_tagEEESC_EEEEC2EDn = comdat any

$_ZNSt10shared_ptrIN2xt9xfunctionINS0_6detail7dividesEJRKNS0_17xtensor_containerINS0_7uvectorIdSaIdEEELm2ELNS0_11layout_typeE1ENS0_22xtensor_expression_tagEEESC_EEEEC2Ev = comdat any

$_ZNSt12__shared_ptrIN2xt9xfunctionINS0_6detail7dividesEJRKNS0_17xtensor_containerINS0_7uvectorIdSaIdEEELm2ELNS0_11layout_typeE1ENS0_22xtensor_expression_tagEEESC_EEELN9__gnu_cxx12_Lock_policyE2EEC2Ev = comdat any

$_ZNSt11_Tuple_implILm0EJRKN2xt17xtensor_containerINS0_7uvectorIdSaIdEEELm2ELNS0_11layout_typeE1ENS0_22xtensor_expression_tagEEES9_EEC2IRS7_JSC_EvEEOT_DpOT0_ = comdat any

$_ZNSt11_Tuple_implILm1EJRKN2xt17xtensor_containerINS0_7uvectorIdSaIdEEELm2ELNS0_11layout_typeE1ENS0_22xtensor_expression_tagEEEEEC2IRS7_EEOT_ = comdat any

$_ZNSt10_Head_baseILm0ERKN2xt17xtensor_containerINS0_7uvectorIdSaIdEEELm2ELNS0_11layout_typeE1ENS0_22xtensor_expression_tagEEELb0EEC2IRS7_EEOT_ = comdat any

$_ZNSt10_Head_baseILm1ERKN2xt17xtensor_containerINS0_7uvectorIdSaIdEEELm2ELNS0_11layout_typeE1ENS0_22xtensor_expression_tagEEELb0EEC2IRS7_EEOT_ = comdat any

$_ZN2xt6detail20xfunction_cache_implISt5arrayImLm2EENS0_13promote_indexIJS3_S3_EEEEC2Ev = comdat any

$_ZN2xt19xcontainer_semanticINS_17xtensor_containerINS_7uvectorIdSaIdEEELm2ELNS_11layout_typeE1ENS_22xtensor_expression_tagEEEEaSINS_9xfunctionINS_6detail18nan_to_num_functorEJNSA_INSB_7dividesEJRKS7_SF_EEEEEEEERS7_RKNS_11xexpressionIT_EE = comdat any

$_ZN2xt14xsemantic_baseINS_17xtensor_containerINS_7uvectorIdSaIdEEELm2ELNS_11layout_typeE1ENS_22xtensor_expression_tagEEEEaSINS_9xfunctionINS_6detail18nan_to_num_functorEJNSA_INSB_7dividesEJRKS7_SF_EEEEEEEERS7_RKNS_11xexpressionIT_EE = comdat any

$_ZN2xt17xtensor_containerINS_7uvectorIdSaIdEEELm2ELNS_11layout_typeE1ENS_22xtensor_expression_tagEEC2INS_9xfunctionINS_6detail18nan_to_num_functorEJNS8_INS9_7dividesEJRKS6_SD_EEEEEEEERKNS_11xexpressionIT_EE = comdat any

$_ZNR2xt11xexpressionINS_17xtensor_containerINS_7uvectorIdSaIdEEELm2ELNS_11layout_typeE1ENS_22xtensor_expression_tagEEEE12derived_castEv = comdat any

$_ZN2xt19xcontainer_semanticINS_17xtensor_containerINS_7uvectorIdSaIdEEELm2ELNS_11layout_typeE1ENS_22xtensor_expression_tagEEEE16assign_temporaryEOS7_ = comdat any

$_ZNKR2xt11xexpressionINS_9xfunctionINS_6detail18nan_to_num_functorEJNS1_INS2_7dividesEJRKNS_17xtensor_containerINS_7uvectorIdSaIdEEELm2ELNS_11layout_typeE1ENS_22xtensor_expression_tagEEESD_EEEEEEE12derived_castEv = comdat any

$_ZNK2xt9xfunctionINS_6detail18nan_to_num_functorEJNS0_INS1_7dividesEJRKNS_17xtensor_containerINS_7uvectorIdSaIdEEELm2ELNS_11layout_typeE1ENS_22xtensor_expression_tagEEESC_EEEEE9dimensionEv = comdat any

$_ZN2xt14xsemantic_baseINS_17xtensor_containerINS_7uvectorIdSaIdEEELm2ELNS_11layout_typeE1ENS_22xtensor_expression_tagEEEE6assignINS_9xfunctionINS_6detail18nan_to_num_functorEJNSA_INSB_7dividesEJRKS7_SF_EEEEEEEERS7_RKNS_11xexpressionIT_EE = comdat any

$_ZNK2xt9xfunctionINS_6detail18nan_to_num_functorEJNS0_INS1_7dividesEJRKNS_17xtensor_containerINS_7uvectorIdSaIdEEELm2ELNS_11layout_typeE1ENS_22xtensor_expression_tagEEESC_EEEEE17compute_dimensionEv = comdat any

$_ZN2xt10accumulateIRZNKS_9xfunctionINS_6detail18nan_to_num_functorEJNS1_INS2_7dividesEJRKNS_17xtensor_containerINS_7uvectorIdSaIdEEELm2ELNS_11layout_typeE1ENS_22xtensor_expression_tagEEESD_EEEEE17compute_dimensionEvEUlmOT_E_mJSE_EEET0_SH_SK_RKSt5tupleIJDpT1_EE = comdat any

$_ZN2xt6detail15accumulate_implILm0ERZNKS_9xfunctionINS0_18nan_to_num_functorEJNS2_INS0_7dividesEJRKNS_17xtensor_containerINS_7uvectorIdSaIdEEELm2ELNS_11layout_typeE1ENS_22xtensor_expression_tagEEESD_EEEEE17compute_dimensionEvEUlmOT_E_mJSE_EEENSt9enable_ifIXltT_sZT2_ET1_E4typeEOT0_SL_RKSt5tupleIJDpT2_EE = comdat any

$_ZZNK2xt9xfunctionINS_6detail18nan_to_num_functorEJNS0_INS1_7dividesEJRKNS_17xtensor_containerINS_7uvectorIdSaIdEEELm2ELNS_11layout_typeE1ENS_22xtensor_expression_tagEEESC_EEEEE17compute_dimensionEvENKUlmOT_E_clIRKSD_EEDamSG_ = comdat any

$_ZSt3getILm0EJN2xt9xfunctionINS0_6detail7dividesEJRKNS0_17xtensor_containerINS0_7uvectorIdSaIdEEELm2ELNS0_11layout_typeE1ENS0_22xtensor_expression_tagEEESC_EEEEERKNSt13tuple_elementIXT_ESt5tupleIJDpT0_EEE4typeERKSI_ = comdat any

$_ZN2xt6detail15accumulate_implILm1ERZNKS_9xfunctionINS0_18nan_to_num_functorEJNS2_INS0_7dividesEJRKNS_17xtensor_containerINS_7uvectorIdSaIdEEELm2ELNS_11layout_typeE1ENS_22xtensor_expression_tagEEESD_EEEEE17compute_dimensionEvEUlmOT_E_mJSE_EEENSt9enable_ifIXeqT_sZT2_ET1_E4typeEOT0_SL_RKSt5tupleIJDpT2_EE = comdat any

$_ZNK2xt9xfunctionINS_6detail7dividesEJRKNS_17xtensor_containerINS_7uvectorIdSaIdEEELm2ELNS_11layout_typeE1ENS_22xtensor_expression_tagEEESB_EE9dimensionEv = comdat any

$_ZNK2xt9xfunctionINS_6detail7dividesEJRKNS_17xtensor_containerINS_7uvectorIdSaIdEEELm2ELNS_11layout_typeE1ENS_22xtensor_expression_tagEEESB_EE17compute_dimensionEv = comdat any

$_ZN2xt10accumulateIRZNKS_9xfunctionINS_6detail7dividesEJRKNS_17xtensor_containerINS_7uvectorIdSaIdEEELm2ELNS_11layout_typeE1ENS_22xtensor_expression_tagEEESC_EE17compute_dimensionEvEUlmOT_E_mJSC_SC_EEET0_SF_SI_RKSt5tupleIJDpT1_EE = comdat any

$_ZN2xt6detail15accumulate_implILm0ERZNKS_9xfunctionINS0_7dividesEJRKNS_17xtensor_containerINS_7uvectorIdSaIdEEELm2ELNS_11layout_typeE1ENS_22xtensor_expression_tagEEESC_EE17compute_dimensionEvEUlmOT_E_mJSC_SC_EEENSt9enable_ifIXltT_sZT2_ET1_E4typeEOT0_SJ_RKSt5tupleIJDpT2_EE = comdat any

$_ZZNK2xt9xfunctionINS_6detail7dividesEJRKNS_17xtensor_containerINS_7uvectorIdSaIdEEELm2ELNS_11layout_typeE1ENS_22xtensor_expression_tagEEESB_EE17compute_dimensionEvENKUlmOT_E_clISB_EEDamSE_ = comdat any

$_ZSt3getILm0EJRKN2xt17xtensor_containerINS0_7uvectorIdSaIdEEELm2ELNS0_11layout_typeE1ENS0_22xtensor_expression_tagEEES9_EERKNSt13tuple_elementIXT_ESt5tupleIJDpT0_EEE4typeERKSE_ = comdat any

$_ZN2xt6detail15accumulate_implILm1ERZNKS_9xfunctionINS0_7dividesEJRKNS_17xtensor_containerINS_7uvectorIdSaIdEEELm2ELNS_11layout_typeE1ENS_22xtensor_expression_tagEEESC_EE17compute_dimensionEvEUlmOT_E_mJSC_SC_EEENSt9enable_ifIXltT_sZT2_ET1_E4typeEOT0_SJ_RKSt5tupleIJDpT2_EE = comdat any

$_ZSt12__get_helperILm0ERKN2xt17xtensor_containerINS0_7uvectorIdSaIdEEELm2ELNS0_11layout_typeE1ENS0_22xtensor_expression_tagEEEJS9_EERKT0_RKSt11_Tuple_implIXT_EJSA_DpT1_EE = comdat any

$_ZNSt11_Tuple_implILm0EJRKN2xt17xtensor_containerINS0_7uvectorIdSaIdEEELm2ELNS0_11layout_typeE1ENS0_22xtensor_expression_tagEEES9_EE7_M_headERKSA_ = comdat any

$_ZNSt10_Head_baseILm0ERKN2xt17xtensor_containerINS0_7uvectorIdSaIdEEELm2ELNS0_11layout_typeE1ENS0_22xtensor_expression_tagEEELb0EE7_M_headERKSA_ = comdat any

$_ZSt3getILm1EJRKN2xt17xtensor_containerINS0_7uvectorIdSaIdEEELm2ELNS0_11layout_typeE1ENS0_22xtensor_expression_tagEEES9_EERKNSt13tuple_elementIXT_ESt5tupleIJDpT0_EEE4typeERKSE_ = comdat any

$_ZN2xt6detail15accumulate_implILm2ERZNKS_9xfunctionINS0_7dividesEJRKNS_17xtensor_containerINS_7uvectorIdSaIdEEELm2ELNS_11layout_typeE1ENS_22xtensor_expression_tagEEESC_EE17compute_dimensionEvEUlmOT_E_mJSC_SC_EEENSt9enable_ifIXeqT_sZT2_ET1_E4typeEOT0_SJ_RKSt5tupleIJDpT2_EE = comdat any

$_ZSt12__get_helperILm1ERKN2xt17xtensor_containerINS0_7uvectorIdSaIdEEELm2ELNS0_11layout_typeE1ENS0_22xtensor_expression_tagEEEJEERKT0_RKSt11_Tuple_implIXT_EJSA_DpT1_EE = comdat any

$_ZNSt11_Tuple_implILm1EJRKN2xt17xtensor_containerINS0_7uvectorIdSaIdEEELm2ELNS0_11layout_typeE1ENS0_22xtensor_expression_tagEEEEE7_M_headERKSA_ = comdat any

$_ZNSt10_Head_baseILm1ERKN2xt17xtensor_containerINS0_7uvectorIdSaIdEEELm2ELNS0_11layout_typeE1ENS0_22xtensor_expression_tagEEELb0EE7_M_headERKSA_ = comdat any

$_ZSt12__get_helperILm0EN2xt9xfunctionINS0_6detail7dividesEJRKNS0_17xtensor_containerINS0_7uvectorIdSaIdEEELm2ELNS0_11layout_typeE1ENS0_22xtensor_expression_tagEEESC_EEEJEERKT0_RKSt11_Tuple_implIXT_EJSE_DpT1_EE = comdat any

$_ZNSt11_Tuple_implILm0EJN2xt9xfunctionINS0_6detail7dividesEJRKNS0_17xtensor_containerINS0_7uvectorIdSaIdEEELm2ELNS0_11layout_typeE1ENS0_22xtensor_expression_tagEEESC_EEEEE7_M_headERKSE_ = comdat any

$_ZNSt10_Head_baseILm0EN2xt9xfunctionINS0_6detail7dividesEJRKNS0_17xtensor_containerINS0_7uvectorIdSaIdEEELm2ELNS0_11layout_typeE1ENS0_22xtensor_expression_tagEEESC_EEELb0EE7_M_headERKSE_ = comdat any

$_ZN2xt19xcontainer_semanticINS_17xtensor_containerINS_7uvectorIdSaIdEEELm2ELNS_11layout_typeE1ENS_22xtensor_expression_tagEEEE18assign_xexpressionINS_9xfunctionINS_6detail18nan_to_num_functorEJNSA_INSB_7dividesEJRKS7_SF_EEEEEEEERS7_RKNS_11xexpressionIT_EE = comdat any

$_ZN2xt18assign_xexpressionINS_17xtensor_containerINS_7uvectorIdSaIdEEELm2ELNS_11layout_typeE1ENS_22xtensor_expression_tagEEENS_9xfunctionINS_6detail18nan_to_num_functorEJNS8_INS9_7dividesEJRKS7_SD_EEEEEEEEvRNS_11xexpressionIT_EERKNSG_IT0_EE = comdat any

$_ZN3xtl3mpl9static_ifILb0EZN2xt18assign_xexpressionINS2_17xtensor_containerINS2_7uvectorIdSaIdEEELm2ELNS2_11layout_typeE1ENS2_22xtensor_expression_tagEEENS2_9xfunctionINS2_6detail18nan_to_num_functorEJNSB_INSC_7dividesEJRKSA_SG_EEEEEEEEvRNS2_11xexpressionIT_EERKNSJ_IT0_EEEUlSK_E_ZNS3_ISA_SI_EEvSM_SQ_EUlSK_E0_EEDcRKSN_RKT1_ = comdat any

$_ZN3xtl3mpl9static_ifIZN2xt18assign_xexpressionINS2_17xtensor_containerINS2_7uvectorIdSaIdEEELm2ELNS2_11layout_typeE1ENS2_22xtensor_expression_tagEEENS2_9xfunctionINS2_6detail18nan_to_num_functorEJNSB_INSC_7dividesEJRKSA_SG_EEEEEEEEvRNS2_11xexpressionIT_EERKNSJ_IT0_EEEUlSK_E_ZNS3_ISA_SI_EEvSM_SQ_EUlSK_E0_EEDcSt17integral_constantIbLb0EERKSK_RKSN_ = comdat any

$_ZZN2xt18assign_xexpressionINS_17xtensor_containerINS_7uvectorIdSaIdEEELm2ELNS_11layout_typeE1ENS_22xtensor_expression_tagEEENS_9xfunctionINS_6detail18nan_to_num_functorEJNS8_INS9_7dividesEJRKS7_SD_EEEEEEEEvRNS_11xexpressionIT_EERKNSG_IT0_EEENKUlSH_E0_clIN3xtl8identityEEEDaSH_ = comdat any

$_ZN2xt20xexpression_assignerINS_22xtensor_expression_tagEE18assign_xexpressionINS_11xexpressionINS_17xtensor_containerINS_7uvectorIdSaIdEEELm2ELNS_11layout_typeE1ES1_EEEENS4_INS_9xfunctionINS_6detail18nan_to_num_functorEJNSC_INSD_7dividesEJRKSA_SH_EEEEEEEEEEvRT_RKT0_ = comdat any

$_ZN2xt20xexpression_assignerINS_22xtensor_expression_tagEE6resizeINS_17xtensor_containerINS_7uvectorIdSaIdEEELm2ELNS_11layout_typeE1ES1_EENS_6detail18nan_to_num_functorEJNS_9xfunctionINSA_7dividesEJRKS9_SF_EEEEEEbRT_RKNSC_IT0_JDpT1_EEE = comdat any

$_ZN2xt25xexpression_assigner_baseINS_22xtensor_expression_tagEE11assign_dataINS_17xtensor_containerINS_7uvectorIdSaIdEEELm2ELNS_11layout_typeE1ES1_EENS_9xfunctionINS_6detail18nan_to_num_functorEJNSA_INSB_7dividesEJRKS9_SF_EEEEEEEEvRNS_11xexpressionIT_EERKNSI_IT0_EEb = comdat any

$_ZN3xtl3mpl9static_ifILb0EZN2xt20xexpression_assignerINS2_22xtensor_expression_tagEE6resizeINS2_17xtensor_containerINS2_7uvectorIdSaIdEEELm2ELNS2_11layout_typeE1ES4_EENS2_6detail18nan_to_num_functorEJNS2_9xfunctionINSD_7dividesEJRKSC_SI_EEEEEEbRT_RKNSF_IT0_JDpT1_EEEEUlSK_E_ZNS6_ISC_SE_JSJ_EEEbSL_SR_EUlSK_E0_EEDcRKSM_RKT1_ = comdat any

$_ZN3xtl3mpl9static_ifIZN2xt20xexpression_assignerINS2_22xtensor_expression_tagEE6resizeINS2_17xtensor_containerINS2_7uvectorIdSaIdEEELm2ELNS2_11layout_typeE1ES4_EENS2_6detail18nan_to_num_functorEJNS2_9xfunctionINSD_7dividesEJRKSC_SI_EEEEEEbRT_RKNSF_IT0_JDpT1_EEEEUlSK_E_ZNS6_ISC_SE_JSJ_EEEbSL_SR_EUlSK_E0_EEDcSt17integral_constantIbLb0EERKSK_RKSM_ = comdat any

$_ZZN2xt20xexpression_assignerINS_22xtensor_expression_tagEE6resizeINS_17xtensor_containerINS_7uvectorIdSaIdEEELm2ELNS_11layout_typeE1ES1_EENS_6detail18nan_to_num_functorEJNS_9xfunctionINSA_7dividesEJRKS9_SF_EEEEEEbRT_RKNSC_IT0_JDpT1_EEEENKUlSH_E0_clIN3xtl8identityEEEDaSH_ = comdat any

$_ZN2xt19uninitialized_shapeISt5arrayImLm2EEmEET_T0_ = comdat any

$_ZNK2xt9xfunctionINS_6detail18nan_to_num_functorEJNS0_INS1_7dividesEJRKNS_17xtensor_containerINS_7uvectorIdSaIdEEELm2ELNS_11layout_typeE1ENS_22xtensor_expression_tagEEESC_EEEEE15broadcast_shapeISt5arrayImLm2EEEEbRT_b = comdat any

$_ZN2xt18xstrided_containerINS_17xtensor_containerINS_7uvectorIdSaIdEEELm2ELNS_11layout_typeE1ENS_22xtensor_expression_tagEEEE6resizeISt5arrayImLm2EEEEvOT_b = comdat any

$_ZNKSt5arrayImLm2EE6cbeginEv = comdat any

$_ZNKSt5arrayImLm2EE4cendEv = comdat any

$_ZN2xt10accumulateIRZNKS_9xfunctionINS_6detail18nan_to_num_functorEJNS1_INS2_7dividesEJRKNS_17xtensor_containerINS_7uvectorIdSaIdEEELm2ELNS_11layout_typeE1ENS_22xtensor_expression_tagEEESD_EEEEE15broadcast_shapeISt5arrayImLm2EEEEbRT_bEUlbOSJ_E_bJSE_EEET0_SL_SO_RKSt5tupleIJDpT1_EE = comdat any

$_ZN2xt6detail15accumulate_implILm0ERZNKS_9xfunctionINS0_18nan_to_num_functorEJNS2_INS0_7dividesEJRKNS_17xtensor_containerINS_7uvectorIdSaIdEEELm2ELNS_11layout_typeE1ENS_22xtensor_expression_tagEEESD_EEEEE15broadcast_shapeISt5arrayImLm2EEEEbRT_bEUlbOSJ_E_bJSE_EEENSt9enable_ifIXltT_sZT2_ET1_E4typeEOT0_SP_RKSt5tupleIJDpT2_EE = comdat any

$_ZZNK2xt9xfunctionINS_6detail18nan_to_num_functorEJNS0_INS1_7dividesEJRKNS_17xtensor_containerINS_7uvectorIdSaIdEEELm2ELNS_11layout_typeE1ENS_22xtensor_expression_tagEEESC_EEEEE15broadcast_shapeISt5arrayImLm2EEEEbRT_bENKUlbOSI_E_clIRKSD_EEDabSK_ = comdat any

$_ZN2xt6detail15accumulate_implILm1ERZNKS_9xfunctionINS0_18nan_to_num_functorEJNS2_INS0_7dividesEJRKNS_17xtensor_containerINS_7uvectorIdSaIdEEELm2ELNS_11layout_typeE1ENS_22xtensor_expression_tagEEESD_EEEEE15broadcast_shapeISt5arrayImLm2EEEEbRT_bEUlbOSJ_E_bJSE_EEENSt9enable_ifIXeqT_sZT2_ET1_E4typeEOT0_SP_RKSt5tupleIJDpT2_EE = comdat any

$_ZNK2xt9xfunctionINS_6detail7dividesEJRKNS_17xtensor_containerINS_7uvectorIdSaIdEEELm2ELNS_11layout_typeE1ENS_22xtensor_expression_tagEEESB_EE15broadcast_shapeISt5arrayImLm2EEEEbRT_b = comdat any

$_ZN2xt10accumulateIRZNKS_9xfunctionINS_6detail7dividesEJRKNS_17xtensor_containerINS_7uvectorIdSaIdEEELm2ELNS_11layout_typeE1ENS_22xtensor_expression_tagEEESC_EE15broadcast_shapeISt5arrayImLm2EEEEbRT_bEUlbOSH_E_bJSC_SC_EEET0_SJ_SM_RKSt5tupleIJDpT1_EE = comdat any

$_ZN2xt6detail15accumulate_implILm0ERZNKS_9xfunctionINS0_7dividesEJRKNS_17xtensor_containerINS_7uvectorIdSaIdEEELm2ELNS_11layout_typeE1ENS_22xtensor_expression_tagEEESC_EE15broadcast_shapeISt5arrayImLm2EEEEbRT_bEUlbOSH_E_bJSC_SC_EEENSt9enable_ifIXltT_sZT2_ET1_E4typeEOT0_SN_RKSt5tupleIJDpT2_EE = comdat any

$_ZZNK2xt9xfunctionINS_6detail7dividesEJRKNS_17xtensor_containerINS_7uvectorIdSaIdEEELm2ELNS_11layout_typeE1ENS_22xtensor_expression_tagEEESB_EE15broadcast_shapeISt5arrayImLm2EEEEbRT_bENKUlbOSG_E_clISB_EEDabSI_ = comdat any

$_ZN2xt6detail15accumulate_implILm1ERZNKS_9xfunctionINS0_7dividesEJRKNS_17xtensor_containerINS_7uvectorIdSaIdEEELm2ELNS_11layout_typeE1ENS_22xtensor_expression_tagEEESC_EE15broadcast_shapeISt5arrayImLm2EEEEbRT_bEUlbOSH_E_bJSC_SC_EEENSt9enable_ifIXltT_sZT2_ET1_E4typeEOT0_SN_RKSt5tupleIJDpT2_EE = comdat any

$_ZNK2xt10xcontainerINS_17xtensor_containerINS_7uvectorIdSaIdEEELm2ELNS_11layout_typeE1ENS_22xtensor_expression_tagEEEE15broadcast_shapeISt5arrayImLm2EEEEbRT_b = comdat any

$_ZN2xt15broadcast_shapeISt5arrayImLm2EES2_EEbRKT_RT0_ = comdat any

$_ZN2xt21throw_broadcast_errorISt5arrayImLm2EES2_EEvRKT_RKT0_ = comdat any

$_ZNSt5arrayImLm2EEixEm = comdat any

$_ZN2xt6detail19shape_error_messageISt5arrayImLm2EES3_EENSt7__cxx1112basic_stringIcSt11char_traitsIcESaIcEEERKT_RKT0_ = comdat any

$_ZN2xt6detail15accumulate_implILm2ERZNKS_9xfunctionINS0_7dividesEJRKNS_17xtensor_containerINS_7uvectorIdSaIdEEELm2ELNS_11layout_typeE1ENS_22xtensor_expression_tagEEESC_EE15broadcast_shapeISt5arrayImLm2EEEEbRT_bEUlbOSH_E_bJSC_SC_EEENSt9enable_ifIXeqT_sZT2_ET1_E4typeEOT0_SN_RKSt5tupleIJDpT2_EE = comdat any

$_ZSt3endISt5arrayImLm2EEEDTcldtfp_3endEERT_ = comdat any

$_ZN3xtl16forward_sequenceISt5arrayImLm2EES2_EEDcRNSt16remove_referenceIT0_E4typeE = comdat any

$_ZNSt5arrayImLm2EE3endEv = comdat any

$_ZN3xtl6detail18sequence_forwarderISt5arrayImLm2EES3_E7forwardIS3_EEOT_S7_ = comdat any

$_ZN2xt14xassign_traitsINS_17xtensor_containerINS_7uvectorIdSaIdEEELm2ELNS_11layout_typeE1ENS_22xtensor_expression_tagEEENS_9xfunctionINS_6detail18nan_to_num_functorEJNS8_INS9_7dividesEJRKS7_SD_EEEEEEE13linear_assignESD_RKSF_b = comdat any

$_ZN2xt14xassign_traitsINS_17xtensor_containerINS_7uvectorIdSaIdEEELm2ELNS_11layout_typeE1ENS_22xtensor_expression_tagEEENS_9xfunctionINS_6detail18nan_to_num_functorEJNS8_INS9_7dividesEJRKS7_SD_EEEEEEE18simd_linear_assignESD_RKSF_ = comdat any

$_ZN2xt15linear_assignerILb0EE3runINS_17xtensor_containerINS_7uvectorIdSaIdEEELm2ELNS_11layout_typeE1ENS_22xtensor_expression_tagEEENS_9xfunctionINS_6detail18nan_to_num_functorEJNSA_INSB_7dividesEJRKS9_SF_EEEEEEEEvRT_RKT0_ = comdat any

$_ZN2xt16stepper_assignerINS_17xtensor_containerINS_7uvectorIdSaIdEEELm2ELNS_11layout_typeE1ENS_22xtensor_expression_tagEEENS_9xfunctionINS_6detail18nan_to_num_functorEJNS8_INS9_7dividesEJRKS7_SD_EEEEEELS5_1EEC2ERS7_RKSF_ = comdat any

$_ZN2xt16stepper_assignerINS_17xtensor_containerINS_7uvectorIdSaIdEEELm2ELNS_11layout_typeE1ENS_22xtensor_expression_tagEEENS_9xfunctionINS_6detail18nan_to_num_functorEJNS8_INS9_7dividesEJRKS7_SD_EEEEEELS5_1EE3runEv = comdat any

$_ZN2xt6detail16is_linear_assignINS_17xtensor_containerINS_7uvectorIdSaIdEEELm2ELNS_11layout_typeE1ENS_22xtensor_expression_tagEEENS_9xfunctionINS0_18nan_to_num_functorEJNS9_INS0_7dividesEJRKS8_SD_EEEEEEEENSt9enable_ifIXsr11has_stridesIT_EE5valueEbE4typeERKSH_RKT0_ = comdat any

$_ZN2xt15linear_assignerILb0EE8run_implINS_17xtensor_containerINS_7uvectorIdSaIdEEELm2ELNS_11layout_typeE1ENS_22xtensor_expression_tagEEENS_9xfunctionINS_6detail18nan_to_num_functorEJNSA_INSB_7dividesEJRKS9_SF_EEEEEEEEvRT_RKT0_St17integral_constantIbLb1EE = comdat any

$_ZN2xt12linear_beginINS_9xfunctionINS_6detail18nan_to_num_functorEJNS1_INS2_7dividesEJRKNS_17xtensor_containerINS_7uvectorIdSaIdEEELm2ELNS_11layout_typeE1ENS_22xtensor_expression_tagEEESD_EEEEEEEEDaRKT_ = comdat any

$_ZN2xt12linear_beginINS_17xtensor_containerINS_7uvectorIdSaIdEEELm2ELNS_11layout_typeE1ENS_22xtensor_expression_tagEEEEEDaRT_ = comdat any

$_ZNK2xt10xcontainerINS_17xtensor_containerINS_7uvectorIdSaIdEEELm2ELNS_11layout_typeE1ENS_22xtensor_expression_tagEEEE4sizeEv = comdat any

$_ZNK2xt18xfunction_iteratorINS_6detail18nan_to_num_functorEJNS_9xfunctionINS1_7dividesEJRKNS_17xtensor_containerINS_7uvectorIdSaIdEEELm2ELNS_11layout_typeE1ENS_22xtensor_expression_tagEEESD_EEEEEdeEv = comdat any

$_ZN2xt18xfunction_iteratorINS_6detail18nan_to_num_functorEJNS_9xfunctionINS1_7dividesEJRKNS_17xtensor_containerINS_7uvectorIdSaIdEEELm2ELNS_11layout_typeE1ENS_22xtensor_expression_tagEEESD_EEEEEppEv = comdat any

$_ZN3xtl3mpl9static_ifILb1EZN2xt12linear_beginINS2_9xfunctionINS2_6detail18nan_to_num_functorEJNS4_INS5_7dividesEJRKNS2_17xtensor_containerINS2_7uvectorIdSaIdEEELm2ELNS2_11layout_typeE1ENS2_22xtensor_expression_tagEEESG_EEEEEEEEDaRKT_EUlSJ_E_ZNS3_ISI_EEDaSL_EUlSJ_E0_EEDcRKT0_RKT1_ = comdat any

$_ZN3xtl3mpl9static_ifIZN2xt12linear_beginINS2_9xfunctionINS2_6detail18nan_to_num_functorEJNS4_INS5_7dividesEJRKNS2_17xtensor_containerINS2_7uvectorIdSaIdEEELm2ELNS2_11layout_typeE1ENS2_22xtensor_expression_tagEEESG_EEEEEEEEDaRKT_EUlSJ_E_ZNS3_ISI_EEDaSL_EUlSJ_E0_EEDcSt17integral_constantIbLb1EESL_RKT0_ = comdat any

$_ZZN2xt12linear_beginINS_9xfunctionINS_6detail18nan_to_num_functorEJNS1_INS2_7dividesEJRKNS_17xtensor_containerINS_7uvectorIdSaIdEEELm2ELNS_11layout_typeE1ENS_22xtensor_expression_tagEEESD_EEEEEEEEDaRKT_ENKUlSG_E_clIN3xtl8identityEEEDaSG_ = comdat any

$_ZNK3xtl8identityclIRKN2xt9xfunctionINS2_6detail18nan_to_num_functorEJNS3_INS4_7dividesEJRKNS2_17xtensor_containerINS2_7uvectorIdSaIdEEELm2ELNS2_11layout_typeE1ENS2_22xtensor_expression_tagEEESF_EEEEEEEEOT_SL_ = comdat any

$_ZNK2xt9xfunctionINS_6detail18nan_to_num_functorEJNS0_INS1_7dividesEJRKNS_17xtensor_containerINS_7uvectorIdSaIdEEELm2ELNS_11layout_typeE1ENS_22xtensor_expression_tagEEESC_EEEEE14storage_cbeginEv = comdat any

$_ZNK2xt9xfunctionINS_6detail18nan_to_num_functorEJNS0_INS1_7dividesEJRKNS_17xtensor_containerINS_7uvectorIdSaIdEEELm2ELNS_11layout_typeE1ENS_22xtensor_expression_tagEEESC_EEEEE14build_iteratorIRZNKSE_14storage_cbeginEvEUlRKT_E_JLm0EEEEDaOSG_St16integer_sequenceImJXspT0_EEE = comdat any

$_ZZNK2xt9xfunctionINS_6detail18nan_to_num_functorEJNS0_INS1_7dividesEJRKNS_17xtensor_containerINS_7uvectorIdSaIdEEELm2ELNS_11layout_typeE1ENS_22xtensor_expression_tagEEESC_EEEEE14storage_cbeginEvENKUlRKT_E_clISD_EEDaSH_ = comdat any

$_ZN2xt18xfunction_iteratorINS_6detail18nan_to_num_functorEJNS_9xfunctionINS1_7dividesEJRKNS_17xtensor_containerINS_7uvectorIdSaIdEEELm2ELNS_11layout_typeE1ENS_22xtensor_expression_tagEEESD_EEEEEC2IJNS0_IS4_JSD_SD_EEEEEEPKNS3_IS2_JSE_EEEDpOT_ = comdat any

$_ZN2xt12linear_beginINS_9xfunctionINS_6detail7dividesEJRKNS_17xtensor_containerINS_7uvectorIdSaIdEEELm2ELNS_11layout_typeE1ENS_22xtensor_expression_tagEEESC_EEEEEDaRKT_ = comdat any

$_ZN3xtl3mpl9static_ifILb1EZN2xt12linear_beginINS2_9xfunctionINS2_6detail7dividesEJRKNS2_17xtensor_containerINS2_7uvectorIdSaIdEEELm2ELNS2_11layout_typeE1ENS2_22xtensor_expression_tagEEESF_EEEEEDaRKT_EUlSH_E_ZNS3_ISG_EEDaSJ_EUlSH_E0_EEDcRKT0_RKT1_ = comdat any

$_ZN3xtl3mpl9static_ifIZN2xt12linear_beginINS2_9xfunctionINS2_6detail7dividesEJRKNS2_17xtensor_containerINS2_7uvectorIdSaIdEEELm2ELNS2_11layout_typeE1ENS2_22xtensor_expression_tagEEESF_EEEEEDaRKT_EUlSH_E_ZNS3_ISG_EEDaSJ_EUlSH_E0_EEDcSt17integral_constantIbLb1EESJ_RKT0_ = comdat any

$_ZZN2xt12linear_beginINS_9xfunctionINS_6detail7dividesEJRKNS_17xtensor_containerINS_7uvectorIdSaIdEEELm2ELNS_11layout_typeE1ENS_22xtensor_expression_tagEEESC_EEEEEDaRKT_ENKUlSE_E_clIN3xtl8identityEEEDaSE_ = comdat any

$_ZNK3xtl8identityclIRKN2xt9xfunctionINS2_6detail7dividesEJRKNS2_17xtensor_containerINS2_7uvectorIdSaIdEEELm2ELNS2_11layout_typeE1ENS2_22xtensor_expression_tagEEESE_EEEEEOT_SJ_ = comdat any

$_ZNK2xt9xfunctionINS_6detail7dividesEJRKNS_17xtensor_containerINS_7uvectorIdSaIdEEELm2ELNS_11layout_typeE1ENS_22xtensor_expression_tagEEESB_EE14storage_cbeginEv = comdat any

$_ZNK2xt9xfunctionINS_6detail7dividesEJRKNS_17xtensor_containerINS_7uvectorIdSaIdEEELm2ELNS_11layout_typeE1ENS_22xtensor_expression_tagEEESB_EE14build_iteratorIRZNKSC_14storage_cbeginEvEUlRKT_E_JLm0ELm1EEEEDaOSE_St16integer_sequenceImJXspT0_EEE = comdat any

$_ZZNK2xt9xfunctionINS_6detail7dividesEJRKNS_17xtensor_containerINS_7uvectorIdSaIdEEELm2ELNS_11layout_typeE1ENS_22xtensor_expression_tagEEESB_EE14storage_cbeginEvENKUlRKT_E_clIS9_EEDaSF_ = comdat any

$_ZN2xt18xfunction_iteratorINS_6detail7dividesEJRKNS_17xtensor_containerINS_7uvectorIdSaIdEEELm2ELNS_11layout_typeE1ENS_22xtensor_expression_tagEEESB_EEC2IJPKdSF_EEEPKNS_9xfunctionIS2_JSB_SB_EEEDpOT_ = comdat any

$_ZN2xt12linear_beginINS_17xtensor_containerINS_7uvectorIdSaIdEEELm2ELNS_11layout_typeE1ENS_22xtensor_expression_tagEEEEEDaRKT_ = comdat any

$_ZN3xtl3mpl9static_ifILb1EZN2xt12linear_beginINS2_17xtensor_containerINS2_7uvectorIdSaIdEEELm2ELNS2_11layout_typeE1ENS2_22xtensor_expression_tagEEEEEDaRKT_EUlSB_E_ZNS3_ISA_EEDaSD_EUlSB_E0_EEDcRKT0_RKT1_ = comdat any

$_ZN3xtl3mpl9static_ifIZN2xt12linear_beginINS2_17xtensor_containerINS2_7uvectorIdSaIdEEELm2ELNS2_11layout_typeE1ENS2_22xtensor_expression_tagEEEEEDaRKT_EUlSB_E_ZNS3_ISA_EEDaSD_EUlSB_E0_EEDcSt17integral_constantIbLb1EESD_RKT0_ = comdat any

$_ZZN2xt12linear_beginINS_17xtensor_containerINS_7uvectorIdSaIdEEELm2ELNS_11layout_typeE1ENS_22xtensor_expression_tagEEEEEDaRKT_ENKUlS8_E_clIN3xtl8identityEEEDaS8_ = comdat any

$_ZNK3xtl8identityclIRKN2xt17xtensor_containerINS2_7uvectorIdSaIdEEELm2ELNS2_11layout_typeE1ENS2_22xtensor_expression_tagEEEEEOT_SD_ = comdat any

$_ZNK2xt10xcontainerINS_17xtensor_containerINS_7uvectorIdSaIdEEELm2ELNS_11layout_typeE1ENS_22xtensor_expression_tagEEEE14storage_cbeginEv = comdat any

$_ZNK2xt10xcontainerINS_17xtensor_containerINS_7uvectorIdSaIdEEELm2ELNS_11layout_typeE1ENS_22xtensor_expression_tagEEEE7storageEv = comdat any

$_ZNK2xt17xtensor_containerINS_7uvectorIdSaIdEEELm2ELNS_11layout_typeE1ENS_22xtensor_expression_tagEE12storage_implEv = comdat any

$_ZNSt5tupleIJPKdS1_EEC2IS1_S1_TnNSt9enable_ifIXclsr4_TCCIXntcl14__is_alloc_argIT_EEEEE29__is_implicitly_constructibleIS5_T0_EEEbE4typeELb1EEEOS5_OS6_ = comdat any

$_ZNSt11_Tuple_implILm0EJPKdS1_EEC2IS1_JS1_EvEEOT_DpOT0_ = comdat any

$_ZNSt5tupleIJN2xt18xfunction_iteratorINS0_6detail7dividesEJRKNS0_17xtensor_containerINS0_7uvectorIdSaIdEEELm2ELNS0_11layout_typeE1ENS0_22xtensor_expression_tagEEESC_EEEEEC2IJSD_ELb1ETnNSt9enable_ifIXclsr4_TCCIXT0_EEE29__is_implicitly_constructibleIDpT_EEEbE4typeELb1EEEDpOSH_ = comdat any

$_ZNSt11_Tuple_implILm0EJN2xt18xfunction_iteratorINS0_6detail7dividesEJRKNS0_17xtensor_containerINS0_7uvectorIdSaIdEEELm2ELNS0_11layout_typeE1ENS0_22xtensor_expression_tagEEESC_EEEEEC2ISD_EEOT_ = comdat any

$_ZNSt10_Head_baseILm0EN2xt18xfunction_iteratorINS0_6detail7dividesEJRKNS0_17xtensor_containerINS0_7uvectorIdSaIdEEELm2ELNS0_11layout_typeE1ENS0_22xtensor_expression_tagEEESC_EEELb0EEC2ISD_EEOT_ = comdat any

$_ZN2xt18xfunction_iteratorINS_6detail7dividesEJRKNS_17xtensor_containerINS_7uvectorIdSaIdEEELm2ELNS_11layout_typeE1ENS_22xtensor_expression_tagEEESB_EEC2EOSC_ = comdat any

$_ZNSt5tupleIJPKdS1_EEC2EOS2_ = comdat any

$_ZNSt11_Tuple_implILm0EJPKdS1_EEC2EOS2_ = comdat any

$_ZN3xtl3mpl9static_ifILb1EZN2xt12linear_beginINS2_17xtensor_containerINS2_7uvectorIdSaIdEEELm2ELNS2_11layout_typeE1ENS2_22xtensor_expression_tagEEEEEDaRT_EUlSB_E_ZNS3_ISA_EEDaSC_EUlSB_E0_EEDcRKT0_RKT1_ = comdat any

$_ZN3xtl3mpl9static_ifIZN2xt12linear_beginINS2_17xtensor_containerINS2_7uvectorIdSaIdEEELm2ELNS2_11layout_typeE1ENS2_22xtensor_expression_tagEEEEEDaRT_EUlSB_E_ZNS3_ISA_EEDaSC_EUlSB_E0_EEDcSt17integral_constantIbLb1EERKSB_RKT0_ = comdat any

$_ZZN2xt12linear_beginINS_17xtensor_containerINS_7uvectorIdSaIdEEELm2ELNS_11layout_typeE1ENS_22xtensor_expression_tagEEEEEDaRT_ENKUlS8_E_clIN3xtl8identityEEEDaS8_ = comdat any

$_ZNK3xtl8identityclIRN2xt17xtensor_containerINS2_7uvectorIdSaIdEEELm2ELNS2_11layout_typeE1ENS2_22xtensor_expression_tagEEEEEOT_SC_ = comdat any

$_ZN2xt10xcontainerINS_17xtensor_containerINS_7uvectorIdSaIdEEELm2ELNS_11layout_typeE1ENS_22xtensor_expression_tagEEEE13storage_beginEv = comdat any

$_ZNK2xt18xfunction_iteratorINS_6detail18nan_to_num_functorEJNS_9xfunctionINS1_7dividesEJRKNS_17xtensor_containerINS_7uvectorIdSaIdEEELm2ELNS_11layout_typeE1ENS_22xtensor_expression_tagEEESD_EEEEE10deref_implIJLm0EEEEdSt16integer_sequenceImJXspT_EEE = comdat any

$_ZNK2xt6detail18nan_to_num_functorclIdEEDaRKT_ = comdat any

$_ZSt3getILm0EJN2xt18xfunction_iteratorINS0_6detail7dividesEJRKNS0_17xtensor_containerINS0_7uvectorIdSaIdEEELm2ELNS0_11layout_typeE1ENS0_22xtensor_expression_tagEEESC_EEEEERKNSt13tuple_elementIXT_ESt5tupleIJDpT0_EEE4typeERKSI_ = comdat any

$_ZNK2xt18xfunction_iteratorINS_6detail7dividesEJRKNS_17xtensor_containerINS_7uvectorIdSaIdEEELm2ELNS_11layout_typeE1ENS_22xtensor_expression_tagEEESB_EEdeEv = comdat any

$_ZN2xt4math5isnanIdEENSt9enable_ifIXsr3xtl13is_arithmeticIT_EE5valueEbE4typeERKS3_ = comdat any

$_ZN2xt4math5isinfIdEENSt9enable_ifIXsr3xtl13is_arithmeticIT_EE5valueEbE4typeERKS3_ = comdat any

$_ZNSt14numeric_limitsIdE6lowestEv = comdat any

$_ZNSt14numeric_limitsIdE3maxEv = comdat any

$_ZSt5isnand = comdat any

$_ZSt5isinfd = comdat any

$_ZSt12__get_helperILm0EN2xt18xfunction_iteratorINS0_6detail7dividesEJRKNS0_17xtensor_containerINS0_7uvectorIdSaIdEEELm2ELNS0_11layout_typeE1ENS0_22xtensor_expression_tagEEESC_EEEJEERKT0_RKSt11_Tuple_implIXT_EJSE_DpT1_EE = comdat any

$_ZNSt11_Tuple_implILm0EJN2xt18xfunction_iteratorINS0_6detail7dividesEJRKNS0_17xtensor_containerINS0_7uvectorIdSaIdEEELm2ELNS0_11layout_typeE1ENS0_22xtensor_expression_tagEEESC_EEEEE7_M_headERKSE_ = comdat any

$_ZNSt10_Head_baseILm0EN2xt18xfunction_iteratorINS0_6detail7dividesEJRKNS0_17xtensor_containerINS0_7uvectorIdSaIdEEELm2ELNS0_11layout_typeE1ENS0_22xtensor_expression_tagEEESC_EEELb0EE7_M_headERKSE_ = comdat any

$_ZNK2xt18xfunction_iteratorINS_6detail7dividesEJRKNS_17xtensor_containerINS_7uvectorIdSaIdEEELm2ELNS_11layout_typeE1ENS_22xtensor_expression_tagEEESB_EE10deref_implIJLm0ELm1EEEEdSt16integer_sequenceImJXspT_EEE = comdat any

$_ZNK2xt6detail7dividesclIRKdS4_EEDaOT_OT0_ = comdat any

$_ZSt3getILm0EJPKdS1_EERKNSt13tuple_elementIXT_ESt5tupleIJDpT0_EEE4typeERKS6_ = comdat any

$_ZSt3getILm1EJPKdS1_EERKNSt13tuple_elementIXT_ESt5tupleIJDpT0_EEE4typeERKS6_ = comdat any

$_ZSt12__get_helperILm0EPKdJS1_EERKT0_RKSt11_Tuple_implIXT_EJS2_DpT1_EE = comdat any

$_ZNSt11_Tuple_implILm0EJPKdS1_EE7_M_headERKS2_ = comdat any

$_ZN2xt8for_eachIRZNS_18xfunction_iteratorINS_6detail18nan_to_num_functorEJNS_9xfunctionINS2_7dividesEJRKNS_17xtensor_containerINS_7uvectorIdSaIdEEELm2ELNS_11layout_typeE1ENS_22xtensor_expression_tagEEESE_EEEEEppEvEUlRT_E_JNS1_IS5_JSE_SE_EEEEEEvOSH_RSt5tupleIJDpT0_EE = comdat any

$_ZN2xt6detail13for_each_implILm0ERZNS_18xfunction_iteratorINS0_18nan_to_num_functorEJNS_9xfunctionINS0_7dividesEJRKNS_17xtensor_containerINS_7uvectorIdSaIdEEELm2ELNS_11layout_typeE1ENS_22xtensor_expression_tagEEESE_EEEEEppEvEUlRT_E_JNS2_IS5_JSE_SE_EEEEEENSt9enable_ifIXltT_sZT1_EvE4typeEOT0_RSt5tupleIJDpT1_EE = comdat any

$_ZZN2xt18xfunction_iteratorINS_6detail18nan_to_num_functorEJNS_9xfunctionINS1_7dividesEJRKNS_17xtensor_containerINS_7uvectorIdSaIdEEELm2ELNS_11layout_typeE1ENS_22xtensor_expression_tagEEESD_EEEEEppEvENKUlRT_E_clINS0_IS4_JSD_SD_EEEEEDaSH_ = comdat any

$_ZSt3getILm0EJN2xt18xfunction_iteratorINS0_6detail7dividesEJRKNS0_17xtensor_containerINS0_7uvectorIdSaIdEEELm2ELNS0_11layout_typeE1ENS0_22xtensor_expression_tagEEESC_EEEEERNSt13tuple_elementIXT_ESt5tupleIJDpT0_EEE4typeERSI_ = comdat any

$_ZN2xt6detail13for_each_implILm1ERZNS_18xfunction_iteratorINS0_18nan_to_num_functorEJNS_9xfunctionINS0_7dividesEJRKNS_17xtensor_containerINS_7uvectorIdSaIdEEELm2ELNS_11layout_typeE1ENS_22xtensor_expression_tagEEESE_EEEEEppEvEUlRT_E_JNS2_IS5_JSE_SE_EEEEEENSt9enable_ifIXeqT_sZT1_EvE4typeEOT0_RSt5tupleIJDpT1_EE = comdat any

$_ZN2xt18xfunction_iteratorINS_6detail7dividesEJRKNS_17xtensor_containerINS_7uvectorIdSaIdEEELm2ELNS_11layout_typeE1ENS_22xtensor_expression_tagEEESB_EEppEv = comdat any

$_ZN2xt8for_eachIRZNS_18xfunction_iteratorINS_6detail7dividesEJRKNS_17xtensor_containerINS_7uvectorIdSaIdEEELm2ELNS_11layout_typeE1ENS_22xtensor_expression_tagEEESC_EEppEvEUlRT_E_JPKdSJ_EEEvOSE_RSt5tupleIJDpT0_EE = comdat any

$_ZN2xt6detail13for_each_implILm0ERZNS_18xfunction_iteratorINS0_7dividesEJRKNS_17xtensor_containerINS_7uvectorIdSaIdEEELm2ELNS_11layout_typeE1ENS_22xtensor_expression_tagEEESC_EEppEvEUlRT_E_JPKdSJ_EEENSt9enable_ifIXltT_sZT1_EvE4typeEOT0_RSt5tupleIJDpT1_EE = comdat any

$_ZZN2xt18xfunction_iteratorINS_6detail7dividesEJRKNS_17xtensor_containerINS_7uvectorIdSaIdEEELm2ELNS_11layout_typeE1ENS_22xtensor_expression_tagEEESB_EEppEvENKUlRT_E_clIPKdEEDaSE_ = comdat any

$_ZSt3getILm0EJPKdS1_EERNSt13tuple_elementIXT_ESt5tupleIJDpT0_EEE4typeERS6_ = comdat any

$_ZN2xt6detail13for_each_implILm1ERZNS_18xfunction_iteratorINS0_7dividesEJRKNS_17xtensor_containerINS_7uvectorIdSaIdEEELm2ELNS_11layout_typeE1ENS_22xtensor_expression_tagEEESC_EEppEvEUlRT_E_JPKdSJ_EEENSt9enable_ifIXltT_sZT1_EvE4typeEOT0_RSt5tupleIJDpT1_EE = comdat any

$_ZSt12__get_helperILm0EPKdJS1_EERT0_RSt11_Tuple_implIXT_EJS2_DpT1_EE = comdat any

$_ZNSt11_Tuple_implILm0EJPKdS1_EE7_M_headERS2_ = comdat any

$_ZSt3getILm1EJPKdS1_EERNSt13tuple_elementIXT_ESt5tupleIJDpT0_EEE4typeERS6_ = comdat any

$_ZN2xt6detail13for_each_implILm2ERZNS_18xfunction_iteratorINS0_7dividesEJRKNS_17xtensor_containerINS_7uvectorIdSaIdEEELm2ELNS_11layout_typeE1ENS_22xtensor_expression_tagEEESC_EEppEvEUlRT_E_JPKdSJ_EEENSt9enable_ifIXeqT_sZT1_EvE4typeEOT0_RSt5tupleIJDpT1_EE = comdat any

$_ZSt12__get_helperILm0EN2xt18xfunction_iteratorINS0_6detail7dividesEJRKNS0_17xtensor_containerINS0_7uvectorIdSaIdEEELm2ELNS0_11layout_typeE1ENS0_22xtensor_expression_tagEEESC_EEEJEERT0_RSt11_Tuple_implIXT_EJSE_DpT1_EE = comdat any

$_ZNSt11_Tuple_implILm0EJN2xt18xfunction_iteratorINS0_6detail7dividesEJRKNS0_17xtensor_containerINS0_7uvectorIdSaIdEEELm2ELNS0_11layout_typeE1ENS0_22xtensor_expression_tagEEESC_EEEEE7_M_headERSE_ = comdat any

$_ZNSt10_Head_baseILm0EN2xt18xfunction_iteratorINS0_6detail7dividesEJRKNS0_17xtensor_containerINS0_7uvectorIdSaIdEEELm2ELNS0_11layout_typeE1ENS0_22xtensor_expression_tagEEESC_EEELb0EE7_M_headERSE_ = comdat any

$_ZN2xt10xcontainerINS_17xtensor_containerINS_7uvectorIdSaIdEEELm2ELNS_11layout_typeE1ENS_22xtensor_expression_tagEEEE13stepper_beginISt5arrayImLm2EEEENS_8xstepperIS7_EERKT_ = comdat any

$_ZNK2xt9xfunctionINS_6detail18nan_to_num_functorEJNS0_INS1_7dividesEJRKNS_17xtensor_containerINS_7uvectorIdSaIdEEELm2ELNS_11layout_typeE1ENS_22xtensor_expression_tagEEESC_EEEEE13stepper_beginISt5arrayImLm2EEEENS_17xfunction_stepperIS2_JSD_EEERKT_ = comdat any

$_ZN2xt10xcontainerINS_17xtensor_containerINS_7uvectorIdSaIdEEELm2ELNS_11layout_typeE1ENS_22xtensor_expression_tagEEEE11data_xbeginEv = comdat any

$_ZN2xt8xstepperINS_17xtensor_containerINS_7uvectorIdSaIdEEELm2ELNS_11layout_typeE1ENS_22xtensor_expression_tagEEEEC2EPS7_Pdm = comdat any

$_ZNK2xt9xfunctionINS_6detail18nan_to_num_functorEJNS0_INS1_7dividesEJRKNS_17xtensor_containerINS_7uvectorIdSaIdEEELm2ELNS_11layout_typeE1ENS_22xtensor_expression_tagEEESC_EEEEE13build_stepperIRZNKSE_13stepper_beginISt5arrayImLm2EEEENS_17xfunction_stepperIS2_JSD_EEERKT_EUlSN_E_JLm0EEEESK_OSL_St16integer_sequenceImJXspT0_EEE = comdat any

$_ZZNK2xt9xfunctionINS_6detail18nan_to_num_functorEJNS0_INS1_7dividesEJRKNS_17xtensor_containerINS_7uvectorIdSaIdEEELm2ELNS_11layout_typeE1ENS_22xtensor_expression_tagEEESC_EEEEE13stepper_beginISt5arrayImLm2EEEENS_17xfunction_stepperIS2_JSD_EEERKT_ENKUlSM_E_clISD_EEDaSM_ = comdat any

$_ZN2xt17xfunction_stepperINS_6detail18nan_to_num_functorEJNS_9xfunctionINS1_7dividesEJRKNS_17xtensor_containerINS_7uvectorIdSaIdEEELm2ELNS_11layout_typeE1ENS_22xtensor_expression_tagEEESD_EEEEEC2IJNS0_IS4_JSD_SD_EEEEEEPKNS3_IS2_JSE_EEEDpOT_ = comdat any

$_ZNK2xt9xfunctionINS_6detail7dividesEJRKNS_17xtensor_containerINS_7uvectorIdSaIdEEELm2ELNS_11layout_typeE1ENS_22xtensor_expression_tagEEESB_EE13stepper_beginISt5arrayImLm2EEEENS_17xfunction_stepperIS2_JSB_SB_EEERKT_ = comdat any

$_ZNK2xt9xfunctionINS_6detail7dividesEJRKNS_17xtensor_containerINS_7uvectorIdSaIdEEELm2ELNS_11layout_typeE1ENS_22xtensor_expression_tagEEESB_EE13build_stepperIRZNKSC_13stepper_beginISt5arrayImLm2EEEENS_17xfunction_stepperIS2_JSB_SB_EEERKT_EUlSL_E_JLm0ELm1EEEESI_OSJ_St16integer_sequenceImJXspT0_EEE = comdat any

$_ZZNK2xt9xfunctionINS_6detail7dividesEJRKNS_17xtensor_containerINS_7uvectorIdSaIdEEELm2ELNS_11layout_typeE1ENS_22xtensor_expression_tagEEESB_EE13stepper_beginISt5arrayImLm2EEEENS_17xfunction_stepperIS2_JSB_SB_EEERKT_ENKUlSK_E_clIS9_EEDaSK_ = comdat any

$_ZN2xt17xfunction_stepperINS_6detail7dividesEJRKNS_17xtensor_containerINS_7uvectorIdSaIdEEELm2ELNS_11layout_typeE1ENS_22xtensor_expression_tagEEESB_EEC2IJNS_8xstepperISA_EESF_EEEPKNS_9xfunctionIS2_JSB_SB_EEEDpOT_ = comdat any

$_ZNK2xt10xcontainerINS_17xtensor_containerINS_7uvectorIdSaIdEEELm2ELNS_11layout_typeE1ENS_22xtensor_expression_tagEEEE13stepper_beginISt5arrayImLm2EEEENS_8xstepperIKS7_EERKT_ = comdat any

$_ZNK2xt10xcontainerINS_17xtensor_containerINS_7uvectorIdSaIdEEELm2ELNS_11layout_typeE1ENS_22xtensor_expression_tagEEEE11data_xbeginEv = comdat any

$_ZN2xt8xstepperIKNS_17xtensor_containerINS_7uvectorIdSaIdEEELm2ELNS_11layout_typeE1ENS_22xtensor_expression_tagEEEEC2EPS8_PKdm = comdat any

$_ZNSt5tupleIJN2xt8xstepperIKNS0_17xtensor_containerINS0_7uvectorIdSaIdEEELm2ELNS0_11layout_typeE1ENS0_22xtensor_expression_tagEEEEESA_EEC2ISA_SA_TnNSt9enable_ifIXclsr4_TCCIXntcl14__is_alloc_argIT_EEEEE29__is_implicitly_constructibleISE_T0_EEEbE4typeELb1EEEOSE_OSF_ = comdat any

$_ZNSt11_Tuple_implILm0EJN2xt8xstepperIKNS0_17xtensor_containerINS0_7uvectorIdSaIdEEELm2ELNS0_11layout_typeE1ENS0_22xtensor_expression_tagEEEEESA_EEC2ISA_JSA_EvEEOT_DpOT0_ = comdat any

$_ZNSt11_Tuple_implILm1EJN2xt8xstepperIKNS0_17xtensor_containerINS0_7uvectorIdSaIdEEELm2ELNS0_11layout_typeE1ENS0_22xtensor_expression_tagEEEEEEEC2ISA_EEOT_ = comdat any

$_ZNSt10_Head_baseILm0EN2xt8xstepperIKNS0_17xtensor_containerINS0_7uvectorIdSaIdEEELm2ELNS0_11layout_typeE1ENS0_22xtensor_expression_tagEEEEELb0EEC2ISA_EEOT_ = comdat any

$_ZNSt10_Head_baseILm1EN2xt8xstepperIKNS0_17xtensor_containerINS0_7uvectorIdSaIdEEELm2ELNS0_11layout_typeE1ENS0_22xtensor_expression_tagEEEEELb0EEC2ISA_EEOT_ = comdat any

$_ZNSt5tupleIJN2xt17xfunction_stepperINS0_6detail7dividesEJRKNS0_17xtensor_containerINS0_7uvectorIdSaIdEEELm2ELNS0_11layout_typeE1ENS0_22xtensor_expression_tagEEESC_EEEEEC2IJSD_ELb1ETnNSt9enable_ifIXclsr4_TCCIXT0_EEE29__is_implicitly_constructibleIDpT_EEEbE4typeELb1EEEDpOSH_ = comdat any

$_ZNSt11_Tuple_implILm0EJN2xt17xfunction_stepperINS0_6detail7dividesEJRKNS0_17xtensor_containerINS0_7uvectorIdSaIdEEELm2ELNS0_11layout_typeE1ENS0_22xtensor_expression_tagEEESC_EEEEEC2ISD_EEOT_ = comdat any

$_ZNSt10_Head_baseILm0EN2xt17xfunction_stepperINS0_6detail7dividesEJRKNS0_17xtensor_containerINS0_7uvectorIdSaIdEEELm2ELNS0_11layout_typeE1ENS0_22xtensor_expression_tagEEESC_EEELb0EEC2ISD_EEOT_ = comdat any

$_ZN2xt17xfunction_stepperINS_6detail7dividesEJRKNS_17xtensor_containerINS_7uvectorIdSaIdEEELm2ELNS_11layout_typeE1ENS_22xtensor_expression_tagEEESB_EEC2EOSC_ = comdat any

$_ZNSt5tupleIJN2xt8xstepperIKNS0_17xtensor_containerINS0_7uvectorIdSaIdEEELm2ELNS0_11layout_typeE1ENS0_22xtensor_expression_tagEEEEESA_EEC2EOSB_ = comdat any

$_ZNSt11_Tuple_implILm0EJN2xt8xstepperIKNS0_17xtensor_containerINS0_7uvectorIdSaIdEEELm2ELNS0_11layout_typeE1ENS0_22xtensor_expression_tagEEEEESA_EEC2EOSB_ = comdat any

$_ZNSt11_Tuple_implILm1EJN2xt8xstepperIKNS0_17xtensor_containerINS0_7uvectorIdSaIdEEELm2ELNS0_11layout_typeE1ENS0_22xtensor_expression_tagEEEEEEEC2EOSB_ = comdat any

$_ZNK2xt17xfunction_stepperINS_6detail18nan_to_num_functorEJNS_9xfunctionINS1_7dividesEJRKNS_17xtensor_containerINS_7uvectorIdSaIdEEELm2ELNS_11layout_typeE1ENS_22xtensor_expression_tagEEESD_EEEEEdeEv = comdat any

$_ZNK2xt8xstepperINS_17xtensor_containerINS_7uvectorIdSaIdEEELm2ELNS_11layout_typeE1ENS_22xtensor_expression_tagEEEEdeEv = comdat any

$_ZN2xt13stepper_toolsILNS_11layout_typeE1EE17increment_stepperINS_16stepper_assignerINS_17xtensor_containerINS_7uvectorIdSaIdEEELm2ELS1_1ENS_22xtensor_expression_tagEEENS_9xfunctionINS_6detail18nan_to_num_functorEJNSB_INSC_7dividesEJRKSA_SG_EEEEEELS1_1EEESt5arrayImLm2EESL_EEvRT_RT0_RKT1_ = comdat any

$_ZNK2xt17xfunction_stepperINS_6detail18nan_to_num_functorEJNS_9xfunctionINS1_7dividesEJRKNS_17xtensor_containerINS_7uvectorIdSaIdEEELm2ELNS_11layout_typeE1ENS_22xtensor_expression_tagEEESD_EEEEE10deref_implIJLm0EEEEdSt16integer_sequenceImJXspT_EEE = comdat any

$_ZSt3getILm0EJN2xt17xfunction_stepperINS0_6detail7dividesEJRKNS0_17xtensor_containerINS0_7uvectorIdSaIdEEELm2ELNS0_11layout_typeE1ENS0_22xtensor_expression_tagEEESC_EEEEERKNSt13tuple_elementIXT_ESt5tupleIJDpT0_EEE4typeERKSI_ = comdat any

$_ZNK2xt17xfunction_stepperINS_6detail7dividesEJRKNS_17xtensor_containerINS_7uvectorIdSaIdEEELm2ELNS_11layout_typeE1ENS_22xtensor_expression_tagEEESB_EEdeEv = comdat any

$_ZSt12__get_helperILm0EN2xt17xfunction_stepperINS0_6detail7dividesEJRKNS0_17xtensor_containerINS0_7uvectorIdSaIdEEELm2ELNS0_11layout_typeE1ENS0_22xtensor_expression_tagEEESC_EEEJEERKT0_RKSt11_Tuple_implIXT_EJSE_DpT1_EE = comdat any

$_ZNSt11_Tuple_implILm0EJN2xt17xfunction_stepperINS0_6detail7dividesEJRKNS0_17xtensor_containerINS0_7uvectorIdSaIdEEELm2ELNS0_11layout_typeE1ENS0_22xtensor_expression_tagEEESC_EEEEE7_M_headERKSE_ = comdat any

$_ZNSt10_Head_baseILm0EN2xt17xfunction_stepperINS0_6detail7dividesEJRKNS0_17xtensor_containerINS0_7uvectorIdSaIdEEELm2ELNS0_11layout_typeE1ENS0_22xtensor_expression_tagEEESC_EEELb0EE7_M_headERKSE_ = comdat any

$_ZNK2xt17xfunction_stepperINS_6detail7dividesEJRKNS_17xtensor_containerINS_7uvectorIdSaIdEEELm2ELNS_11layout_typeE1ENS_22xtensor_expression_tagEEESB_EE10deref_implIJLm0ELm1EEEEdSt16integer_sequenceImJXspT_EEE = comdat any

$_ZSt3getILm0EJN2xt8xstepperIKNS0_17xtensor_containerINS0_7uvectorIdSaIdEEELm2ELNS0_11layout_typeE1ENS0_22xtensor_expression_tagEEEEESA_EERKNSt13tuple_elementIXT_ESt5tupleIJDpT0_EEE4typeERKSF_ = comdat any

$_ZNK2xt8xstepperIKNS_17xtensor_containerINS_7uvectorIdSaIdEEELm2ELNS_11layout_typeE1ENS_22xtensor_expression_tagEEEEdeEv = comdat any

$_ZSt3getILm1EJN2xt8xstepperIKNS0_17xtensor_containerINS0_7uvectorIdSaIdEEELm2ELNS0_11layout_typeE1ENS0_22xtensor_expression_tagEEEEESA_EERKNSt13tuple_elementIXT_ESt5tupleIJDpT0_EEE4typeERKSF_ = comdat any

$_ZSt12__get_helperILm0EN2xt8xstepperIKNS0_17xtensor_containerINS0_7uvectorIdSaIdEEELm2ELNS0_11layout_typeE1ENS0_22xtensor_expression_tagEEEEEJSA_EERKT0_RKSt11_Tuple_implIXT_EJSB_DpT1_EE = comdat any

$_ZNSt11_Tuple_implILm0EJN2xt8xstepperIKNS0_17xtensor_containerINS0_7uvectorIdSaIdEEELm2ELNS0_11layout_typeE1ENS0_22xtensor_expression_tagEEEEESA_EE7_M_headERKSB_ = comdat any

$_ZNSt10_Head_baseILm0EN2xt8xstepperIKNS0_17xtensor_containerINS0_7uvectorIdSaIdEEELm2ELNS0_11layout_typeE1ENS0_22xtensor_expression_tagEEEEELb0EE7_M_headERKSB_ = comdat any

$_ZSt12__get_helperILm1EN2xt8xstepperIKNS0_17xtensor_containerINS0_7uvectorIdSaIdEEELm2ELNS0_11layout_typeE1ENS0_22xtensor_expression_tagEEEEEJEERKT0_RKSt11_Tuple_implIXT_EJSB_DpT1_EE = comdat any

$_ZNSt11_Tuple_implILm1EJN2xt8xstepperIKNS0_17xtensor_containerINS0_7uvectorIdSaIdEEELm2ELNS0_11layout_typeE1ENS0_22xtensor_expression_tagEEEEEEE7_M_headERKSB_ = comdat any

$_ZNSt10_Head_baseILm1EN2xt8xstepperIKNS0_17xtensor_containerINS0_7uvectorIdSaIdEEELm2ELNS0_11layout_typeE1ENS0_22xtensor_expression_tagEEEEELb0EE7_M_headERKSB_ = comdat any

$_ZN2xt16stepper_assignerINS_17xtensor_containerINS_7uvectorIdSaIdEEELm2ELNS_11layout_typeE1ENS_22xtensor_expression_tagEEENS_9xfunctionINS_6detail18nan_to_num_functorEJNS8_INS9_7dividesEJRKS7_SD_EEEEEELS5_1EE4stepEm = comdat any

$_ZN2xt16stepper_assignerINS_17xtensor_containerINS_7uvectorIdSaIdEEELm2ELNS_11layout_typeE1ENS_22xtensor_expression_tagEEENS_9xfunctionINS_6detail18nan_to_num_functorEJNS8_INS9_7dividesEJRKS7_SD_EEEEEELS5_1EE5resetEm = comdat any

$_ZN2xt16stepper_assignerINS_17xtensor_containerINS_7uvectorIdSaIdEEELm2ELNS_11layout_typeE1ENS_22xtensor_expression_tagEEENS_9xfunctionINS_6detail18nan_to_num_functorEJNS8_INS9_7dividesEJRKS7_SD_EEEEEELS5_1EE6to_endES5_ = comdat any

$_ZN2xt8xstepperINS_17xtensor_containerINS_7uvectorIdSaIdEEELm2ELNS_11layout_typeE1ENS_22xtensor_expression_tagEEEE4stepEmm = comdat any

$_ZN2xt17xfunction_stepperINS_6detail18nan_to_num_functorEJNS_9xfunctionINS1_7dividesEJRKNS_17xtensor_containerINS_7uvectorIdSaIdEEELm2ELNS_11layout_typeE1ENS_22xtensor_expression_tagEEESD_EEEEE4stepEm = comdat any

$_ZN2xt8for_eachIRZNS_17xfunction_stepperINS_6detail18nan_to_num_functorEJNS_9xfunctionINS2_7dividesEJRKNS_17xtensor_containerINS_7uvectorIdSaIdEEELm2ELNS_11layout_typeE1ENS_22xtensor_expression_tagEEESE_EEEEE4stepEmEUlRT_E_JNS1_IS5_JSE_SE_EEEEEEvOSH_RSt5tupleIJDpT0_EE = comdat any

$_ZN2xt6detail13for_each_implILm0ERZNS_17xfunction_stepperINS0_18nan_to_num_functorEJNS_9xfunctionINS0_7dividesEJRKNS_17xtensor_containerINS_7uvectorIdSaIdEEELm2ELNS_11layout_typeE1ENS_22xtensor_expression_tagEEESE_EEEEE4stepEmEUlRT_E_JNS2_IS5_JSE_SE_EEEEEENSt9enable_ifIXltT_sZT1_EvE4typeEOT0_RSt5tupleIJDpT1_EE = comdat any

$_ZZN2xt17xfunction_stepperINS_6detail18nan_to_num_functorEJNS_9xfunctionINS1_7dividesEJRKNS_17xtensor_containerINS_7uvectorIdSaIdEEELm2ELNS_11layout_typeE1ENS_22xtensor_expression_tagEEESD_EEEEE4stepEmENKUlRT_E_clINS0_IS4_JSD_SD_EEEEEDaSH_ = comdat any

$_ZSt3getILm0EJN2xt17xfunction_stepperINS0_6detail7dividesEJRKNS0_17xtensor_containerINS0_7uvectorIdSaIdEEELm2ELNS0_11layout_typeE1ENS0_22xtensor_expression_tagEEESC_EEEEERNSt13tuple_elementIXT_ESt5tupleIJDpT0_EEE4typeERSI_ = comdat any

$_ZN2xt6detail13for_each_implILm1ERZNS_17xfunction_stepperINS0_18nan_to_num_functorEJNS_9xfunctionINS0_7dividesEJRKNS_17xtensor_containerINS_7uvectorIdSaIdEEELm2ELNS_11layout_typeE1ENS_22xtensor_expression_tagEEESE_EEEEE4stepEmEUlRT_E_JNS2_IS5_JSE_SE_EEEEEENSt9enable_ifIXeqT_sZT1_EvE4typeEOT0_RSt5tupleIJDpT1_EE = comdat any

$_ZN2xt17xfunction_stepperINS_6detail7dividesEJRKNS_17xtensor_containerINS_7uvectorIdSaIdEEELm2ELNS_11layout_typeE1ENS_22xtensor_expression_tagEEESB_EE4stepEm = comdat any

$_ZN2xt8for_eachIRZNS_17xfunction_stepperINS_6detail7dividesEJRKNS_17xtensor_containerINS_7uvectorIdSaIdEEELm2ELNS_11layout_typeE1ENS_22xtensor_expression_tagEEESC_EE4stepEmEUlRT_E_JNS_8xstepperISB_EESJ_EEEvOSE_RSt5tupleIJDpT0_EE = comdat any

$_ZN2xt6detail13for_each_implILm0ERZNS_17xfunction_stepperINS0_7dividesEJRKNS_17xtensor_containerINS_7uvectorIdSaIdEEELm2ELNS_11layout_typeE1ENS_22xtensor_expression_tagEEESC_EE4stepEmEUlRT_E_JNS_8xstepperISB_EESJ_EEENSt9enable_ifIXltT_sZT1_EvE4typeEOT0_RSt5tupleIJDpT1_EE = comdat any

$_ZZN2xt17xfunction_stepperINS_6detail7dividesEJRKNS_17xtensor_containerINS_7uvectorIdSaIdEEELm2ELNS_11layout_typeE1ENS_22xtensor_expression_tagEEESB_EE4stepEmENKUlRT_E_clINS_8xstepperISA_EEEEDaSE_ = comdat any

$_ZSt3getILm0EJN2xt8xstepperIKNS0_17xtensor_containerINS0_7uvectorIdSaIdEEELm2ELNS0_11layout_typeE1ENS0_22xtensor_expression_tagEEEEESA_EERNSt13tuple_elementIXT_ESt5tupleIJDpT0_EEE4typeERSF_ = comdat any

$_ZN2xt6detail13for_each_implILm1ERZNS_17xfunction_stepperINS0_7dividesEJRKNS_17xtensor_containerINS_7uvectorIdSaIdEEELm2ELNS_11layout_typeE1ENS_22xtensor_expression_tagEEESC_EE4stepEmEUlRT_E_JNS_8xstepperISB_EESJ_EEENSt9enable_ifIXltT_sZT1_EvE4typeEOT0_RSt5tupleIJDpT1_EE = comdat any

$_ZN2xt8xstepperIKNS_17xtensor_containerINS_7uvectorIdSaIdEEELm2ELNS_11layout_typeE1ENS_22xtensor_expression_tagEEEE4stepEmm = comdat any

$_ZSt12__get_helperILm0EN2xt8xstepperIKNS0_17xtensor_containerINS0_7uvectorIdSaIdEEELm2ELNS0_11layout_typeE1ENS0_22xtensor_expression_tagEEEEEJSA_EERT0_RSt11_Tuple_implIXT_EJSB_DpT1_EE = comdat any

$_ZNSt11_Tuple_implILm0EJN2xt8xstepperIKNS0_17xtensor_containerINS0_7uvectorIdSaIdEEELm2ELNS0_11layout_typeE1ENS0_22xtensor_expression_tagEEEEESA_EE7_M_headERSB_ = comdat any

$_ZNSt10_Head_baseILm0EN2xt8xstepperIKNS0_17xtensor_containerINS0_7uvectorIdSaIdEEELm2ELNS0_11layout_typeE1ENS0_22xtensor_expression_tagEEEEELb0EE7_M_headERSB_ = comdat any

$_ZSt3getILm1EJN2xt8xstepperIKNS0_17xtensor_containerINS0_7uvectorIdSaIdEEELm2ELNS0_11layout_typeE1ENS0_22xtensor_expression_tagEEEEESA_EERNSt13tuple_elementIXT_ESt5tupleIJDpT0_EEE4typeERSF_ = comdat any

$_ZN2xt6detail13for_each_implILm2ERZNS_17xfunction_stepperINS0_7dividesEJRKNS_17xtensor_containerINS_7uvectorIdSaIdEEELm2ELNS_11layout_typeE1ENS_22xtensor_expression_tagEEESC_EE4stepEmEUlRT_E_JNS_8xstepperISB_EESJ_EEENSt9enable_ifIXeqT_sZT1_EvE4typeEOT0_RSt5tupleIJDpT1_EE = comdat any

$_ZSt12__get_helperILm1EN2xt8xstepperIKNS0_17xtensor_containerINS0_7uvectorIdSaIdEEELm2ELNS0_11layout_typeE1ENS0_22xtensor_expression_tagEEEEEJEERT0_RSt11_Tuple_implIXT_EJSB_DpT1_EE = comdat any

$_ZNSt11_Tuple_implILm1EJN2xt8xstepperIKNS0_17xtensor_containerINS0_7uvectorIdSaIdEEELm2ELNS0_11layout_typeE1ENS0_22xtensor_expression_tagEEEEEEE7_M_headERSB_ = comdat any

$_ZNSt10_Head_baseILm1EN2xt8xstepperIKNS0_17xtensor_containerINS0_7uvectorIdSaIdEEELm2ELNS0_11layout_typeE1ENS0_22xtensor_expression_tagEEEEELb0EE7_M_headERSB_ = comdat any

$_ZSt12__get_helperILm0EN2xt17xfunction_stepperINS0_6detail7dividesEJRKNS0_17xtensor_containerINS0_7uvectorIdSaIdEEELm2ELNS0_11layout_typeE1ENS0_22xtensor_expression_tagEEESC_EEEJEERT0_RSt11_Tuple_implIXT_EJSE_DpT1_EE = comdat any

$_ZNSt11_Tuple_implILm0EJN2xt17xfunction_stepperINS0_6detail7dividesEJRKNS0_17xtensor_containerINS0_7uvectorIdSaIdEEELm2ELNS0_11layout_typeE1ENS0_22xtensor_expression_tagEEESC_EEEEE7_M_headERSE_ = comdat any

$_ZNSt10_Head_baseILm0EN2xt17xfunction_stepperINS0_6detail7dividesEJRKNS0_17xtensor_containerINS0_7uvectorIdSaIdEEELm2ELNS0_11layout_typeE1ENS0_22xtensor_expression_tagEEESC_EEELb0EE7_M_headERSE_ = comdat any

$_ZN2xt8xstepperINS_17xtensor_containerINS_7uvectorIdSaIdEEELm2ELNS_11layout_typeE1ENS_22xtensor_expression_tagEEEE5resetEm = comdat any

$_ZN2xt17xfunction_stepperINS_6detail18nan_to_num_functorEJNS_9xfunctionINS1_7dividesEJRKNS_17xtensor_containerINS_7uvectorIdSaIdEEELm2ELNS_11layout_typeE1ENS_22xtensor_expression_tagEEESD_EEEEE5resetEm = comdat any

$_ZNK2xt10xcontainerINS_17xtensor_containerINS_7uvectorIdSaIdEEELm2ELNS_11layout_typeE1ENS_22xtensor_expression_tagEEEE11backstridesEv = comdat any

$_ZNK2xt18xstrided_containerINS_17xtensor_containerINS_7uvectorIdSaIdEEELm2ELNS_11layout_typeE1ENS_22xtensor_expression_tagEEEE16backstrides_implEv = comdat any

$_ZN2xt8for_eachIRZNS_17xfunction_stepperINS_6detail18nan_to_num_functorEJNS_9xfunctionINS2_7dividesEJRKNS_17xtensor_containerINS_7uvectorIdSaIdEEELm2ELNS_11layout_typeE1ENS_22xtensor_expression_tagEEESE_EEEEE5resetEmEUlRT_E_JNS1_IS5_JSE_SE_EEEEEEvOSH_RSt5tupleIJDpT0_EE = comdat any

$_ZN2xt6detail13for_each_implILm0ERZNS_17xfunction_stepperINS0_18nan_to_num_functorEJNS_9xfunctionINS0_7dividesEJRKNS_17xtensor_containerINS_7uvectorIdSaIdEEELm2ELNS_11layout_typeE1ENS_22xtensor_expression_tagEEESE_EEEEE5resetEmEUlRT_E_JNS2_IS5_JSE_SE_EEEEEENSt9enable_ifIXltT_sZT1_EvE4typeEOT0_RSt5tupleIJDpT1_EE = comdat any

$_ZZN2xt17xfunction_stepperINS_6detail18nan_to_num_functorEJNS_9xfunctionINS1_7dividesEJRKNS_17xtensor_containerINS_7uvectorIdSaIdEEELm2ELNS_11layout_typeE1ENS_22xtensor_expression_tagEEESD_EEEEE5resetEmENKUlRT_E_clINS0_IS4_JSD_SD_EEEEEDaSH_ = comdat any

$_ZN2xt6detail13for_each_implILm1ERZNS_17xfunction_stepperINS0_18nan_to_num_functorEJNS_9xfunctionINS0_7dividesEJRKNS_17xtensor_containerINS_7uvectorIdSaIdEEELm2ELNS_11layout_typeE1ENS_22xtensor_expression_tagEEESE_EEEEE5resetEmEUlRT_E_JNS2_IS5_JSE_SE_EEEEEENSt9enable_ifIXeqT_sZT1_EvE4typeEOT0_RSt5tupleIJDpT1_EE = comdat any

$_ZN2xt17xfunction_stepperINS_6detail7dividesEJRKNS_17xtensor_containerINS_7uvectorIdSaIdEEELm2ELNS_11layout_typeE1ENS_22xtensor_expression_tagEEESB_EE5resetEm = comdat any

$_ZN2xt8for_eachIRZNS_17xfunction_stepperINS_6detail7dividesEJRKNS_17xtensor_containerINS_7uvectorIdSaIdEEELm2ELNS_11layout_typeE1ENS_22xtensor_expression_tagEEESC_EE5resetEmEUlRT_E_JNS_8xstepperISB_EESJ_EEEvOSE_RSt5tupleIJDpT0_EE = comdat any

$_ZN2xt6detail13for_each_implILm0ERZNS_17xfunction_stepperINS0_7dividesEJRKNS_17xtensor_containerINS_7uvectorIdSaIdEEELm2ELNS_11layout_typeE1ENS_22xtensor_expression_tagEEESC_EE5resetEmEUlRT_E_JNS_8xstepperISB_EESJ_EEENSt9enable_ifIXltT_sZT1_EvE4typeEOT0_RSt5tupleIJDpT1_EE = comdat any

$_ZZN2xt17xfunction_stepperINS_6detail7dividesEJRKNS_17xtensor_containerINS_7uvectorIdSaIdEEELm2ELNS_11layout_typeE1ENS_22xtensor_expression_tagEEESB_EE5resetEmENKUlRT_E_clINS_8xstepperISA_EEEEDaSE_ = comdat any

$_ZN2xt6detail13for_each_implILm1ERZNS_17xfunction_stepperINS0_7dividesEJRKNS_17xtensor_containerINS_7uvectorIdSaIdEEELm2ELNS_11layout_typeE1ENS_22xtensor_expression_tagEEESC_EE5resetEmEUlRT_E_JNS_8xstepperISB_EESJ_EEENSt9enable_ifIXltT_sZT1_EvE4typeEOT0_RSt5tupleIJDpT1_EE = comdat any

$_ZN2xt8xstepperIKNS_17xtensor_containerINS_7uvectorIdSaIdEEELm2ELNS_11layout_typeE1ENS_22xtensor_expression_tagEEEE5resetEm = comdat any

$_ZN2xt6detail13for_each_implILm2ERZNS_17xfunction_stepperINS0_7dividesEJRKNS_17xtensor_containerINS_7uvectorIdSaIdEEELm2ELNS_11layout_typeE1ENS_22xtensor_expression_tagEEESC_EE5resetEmEUlRT_E_JNS_8xstepperISB_EESJ_EEENSt9enable_ifIXeqT_sZT1_EvE4typeEOT0_RSt5tupleIJDpT1_EE = comdat any

$_ZN2xt8xstepperINS_17xtensor_containerINS_7uvectorIdSaIdEEELm2ELNS_11layout_typeE1ENS_22xtensor_expression_tagEEEE6to_endES5_ = comdat any

$_ZN2xt17xfunction_stepperINS_6detail18nan_to_num_functorEJNS_9xfunctionINS1_7dividesEJRKNS_17xtensor_containerINS_7uvectorIdSaIdEEELm2ELNS_11layout_typeE1ENS_22xtensor_expression_tagEEESD_EEEEE6to_endES9_ = comdat any

$_ZN2xt10xcontainerINS_17xtensor_containerINS_7uvectorIdSaIdEEELm2ELNS_11layout_typeE1ENS_22xtensor_expression_tagEEEE9data_xendES5_m = comdat any

$_ZNK2xt10xcontainerINS_17xtensor_containerINS_7uvectorIdSaIdEEELm2ELNS_11layout_typeE1ENS_22xtensor_expression_tagEEEE14data_xend_implIPdEET_SB_S5_m = comdat any

$_ZN2xt16strided_data_endINS_10xcontainerINS_17xtensor_containerINS_7uvectorIdSaIdEEELm2ELNS_11layout_typeE1ENS_22xtensor_expression_tagEEEEEPdmEET0_RKT_SB_S6_T1_ = comdat any

$_ZNKSt5arrayIlLm2EE4backEv = comdat any

$_ZNKSt5arrayIlLm2EE5frontEv = comdat any

$_ZN2xt8for_eachIRZNS_17xfunction_stepperINS_6detail18nan_to_num_functorEJNS_9xfunctionINS2_7dividesEJRKNS_17xtensor_containerINS_7uvectorIdSaIdEEELm2ELNS_11layout_typeE1ENS_22xtensor_expression_tagEEESE_EEEEE6to_endESA_EUlRT_E_JNS1_IS5_JSE_SE_EEEEEEvOSH_RSt5tupleIJDpT0_EE = comdat any

$_ZN2xt6detail13for_each_implILm0ERZNS_17xfunction_stepperINS0_18nan_to_num_functorEJNS_9xfunctionINS0_7dividesEJRKNS_17xtensor_containerINS_7uvectorIdSaIdEEELm2ELNS_11layout_typeE1ENS_22xtensor_expression_tagEEESE_EEEEE6to_endESA_EUlRT_E_JNS2_IS5_JSE_SE_EEEEEENSt9enable_ifIXltT_sZT1_EvE4typeEOT0_RSt5tupleIJDpT1_EE = comdat any

$_ZZN2xt17xfunction_stepperINS_6detail18nan_to_num_functorEJNS_9xfunctionINS1_7dividesEJRKNS_17xtensor_containerINS_7uvectorIdSaIdEEELm2ELNS_11layout_typeE1ENS_22xtensor_expression_tagEEESD_EEEEE6to_endES9_ENKUlRT_E_clINS0_IS4_JSD_SD_EEEEEDaSH_ = comdat any

$_ZN2xt6detail13for_each_implILm1ERZNS_17xfunction_stepperINS0_18nan_to_num_functorEJNS_9xfunctionINS0_7dividesEJRKNS_17xtensor_containerINS_7uvectorIdSaIdEEELm2ELNS_11layout_typeE1ENS_22xtensor_expression_tagEEESE_EEEEE6to_endESA_EUlRT_E_JNS2_IS5_JSE_SE_EEEEEENSt9enable_ifIXeqT_sZT1_EvE4typeEOT0_RSt5tupleIJDpT1_EE = comdat any

$_ZN2xt17xfunction_stepperINS_6detail7dividesEJRKNS_17xtensor_containerINS_7uvectorIdSaIdEEELm2ELNS_11layout_typeE1ENS_22xtensor_expression_tagEEESB_EE6to_endES7_ = comdat any

$_ZN2xt8for_eachIRZNS_17xfunction_stepperINS_6detail7dividesEJRKNS_17xtensor_containerINS_7uvectorIdSaIdEEELm2ELNS_11layout_typeE1ENS_22xtensor_expression_tagEEESC_EE6to_endES8_EUlRT_E_JNS_8xstepperISB_EESJ_EEEvOSE_RSt5tupleIJDpT0_EE = comdat any

$_ZN2xt6detail13for_each_implILm0ERZNS_17xfunction_stepperINS0_7dividesEJRKNS_17xtensor_containerINS_7uvectorIdSaIdEEELm2ELNS_11layout_typeE1ENS_22xtensor_expression_tagEEESC_EE6to_endES8_EUlRT_E_JNS_8xstepperISB_EESJ_EEENSt9enable_ifIXltT_sZT1_EvE4typeEOT0_RSt5tupleIJDpT1_EE = comdat any

$_ZZN2xt17xfunction_stepperINS_6detail7dividesEJRKNS_17xtensor_containerINS_7uvectorIdSaIdEEELm2ELNS_11layout_typeE1ENS_22xtensor_expression_tagEEESB_EE6to_endES7_ENKUlRT_E_clINS_8xstepperISA_EEEEDaSE_ = comdat any

$_ZN2xt6detail13for_each_implILm1ERZNS_17xfunction_stepperINS0_7dividesEJRKNS_17xtensor_containerINS_7uvectorIdSaIdEEELm2ELNS_11layout_typeE1ENS_22xtensor_expression_tagEEESC_EE6to_endES8_EUlRT_E_JNS_8xstepperISB_EESJ_EEENSt9enable_ifIXltT_sZT1_EvE4typeEOT0_RSt5tupleIJDpT1_EE = comdat any

$_ZN2xt8xstepperIKNS_17xtensor_containerINS_7uvectorIdSaIdEEELm2ELNS_11layout_typeE1ENS_22xtensor_expression_tagEEEE6to_endES5_ = comdat any

$_ZNK2xt10xcontainerINS_17xtensor_containerINS_7uvectorIdSaIdEEELm2ELNS_11layout_typeE1ENS_22xtensor_expression_tagEEEE9data_xendES5_m = comdat any

$_ZNK2xt10xcontainerINS_17xtensor_containerINS_7uvectorIdSaIdEEELm2ELNS_11layout_typeE1ENS_22xtensor_expression_tagEEEE14data_xend_implIPKdEET_SC_S5_m = comdat any

$_ZN2xt16strided_data_endINS_10xcontainerINS_17xtensor_containerINS_7uvectorIdSaIdEEELm2ELNS_11layout_typeE1ENS_22xtensor_expression_tagEEEEEPKdmEET0_RKT_SC_S6_T1_ = comdat any

$_ZN2xt6detail13for_each_implILm2ERZNS_17xfunction_stepperINS0_7dividesEJRKNS_17xtensor_containerINS_7uvectorIdSaIdEEELm2ELNS_11layout_typeE1ENS_22xtensor_expression_tagEEESC_EE6to_endES8_EUlRT_E_JNS_8xstepperISB_EESJ_EEENSt9enable_ifIXeqT_sZT1_EvE4typeEOT0_RSt5tupleIJDpT1_EE = comdat any

$_ZN2xt17xtensor_containerINS_7uvectorIdSaIdEEELm2ELNS_11layout_typeE1ENS_22xtensor_expression_tagEEaSEOS6_ = comdat any

$_ZN2xt19xcontainer_semanticINS_17xtensor_containerINS_7uvectorIdSaIdEEELm2ELNS_11layout_typeE1ENS_22xtensor_expression_tagEEEEaSEOS8_ = comdat any

$_ZN2xt14xsemantic_baseINS_17xtensor_containerINS_7uvectorIdSaIdEEELm2ELNS_11layout_typeE1ENS_22xtensor_expression_tagEEEEaSEOS8_ = comdat any

$_ZN2xt20xsharable_expressionINS_17xtensor_containerINS_7uvectorIdSaIdEEELm2ELNS_11layout_typeE1ENS_22xtensor_expression_tagEEEEaSEOS8_ = comdat any

$_ZNSt10shared_ptrIN2xt17xtensor_containerINS0_7uvectorIdSaIdEEELm2ELNS0_11layout_typeE1ENS0_22xtensor_expression_tagEEEEaSEOS8_ = comdat any

$_ZNSt12__shared_ptrIN2xt17xtensor_containerINS0_7uvectorIdSaIdEEELm2ELNS0_11layout_typeE1ENS0_22xtensor_expression_tagEEELN9__gnu_cxx12_Lock_policyE2EEaSEOSA_ = comdat any

$_ZNSt12__shared_ptrIN2xt17xtensor_containerINS0_7uvectorIdSaIdEEELm2ELNS0_11layout_typeE1ENS0_22xtensor_expression_tagEEELN9__gnu_cxx12_Lock_policyE2EEC2EOSA_ = comdat any

$_ZNSt12__shared_ptrIN2xt17xtensor_containerINS0_7uvectorIdSaIdEEELm2ELNS0_11layout_typeE1ENS0_22xtensor_expression_tagEEELN9__gnu_cxx12_Lock_policyE2EE4swapERSA_ = comdat any

$_ZNSt12__shared_ptrIN2xt17xtensor_containerINS0_7uvectorIdSaIdEEELm2ELNS0_11layout_typeE1ENS0_22xtensor_expression_tagEEELN9__gnu_cxx12_Lock_policyE2EED2Ev = comdat any

$_ZSt4swapIPN2xt17xtensor_containerINS0_7uvectorIdSaIdEEELm2ELNS0_11layout_typeE1ENS0_22xtensor_expression_tagEEEENSt9enable_ifIXsr6__and_ISt6__not_ISt15__is_tuple_likeIT_EESt21is_move_constructibleISC_ESt18is_move_assignableISC_EEE5valueEvE4typeERSC_SL_ = comdat any

$_ZNSt10_Head_baseILm0EN2xt9xfunctionINS0_6detail7dividesEJRKNS0_17xtensor_containerINS0_7uvectorIdSaIdEEELm2ELNS0_11layout_typeE1ENS0_22xtensor_expression_tagEEESC_EEELb0EED2Ev = comdat any

$_ZN2xt20xsharable_expressionINS_9xfunctionINS_6detail18nan_to_num_functorEJNS1_INS2_7dividesEJRKNS_17xtensor_containerINS_7uvectorIdSaIdEEELm2ELNS_11layout_typeE1ENS_22xtensor_expression_tagEEESD_EEEEEEED2Ev = comdat any

$_ZNSt12__shared_ptrIN2xt9xfunctionINS0_6detail18nan_to_num_functorEJNS1_INS2_7dividesEJRKNS0_17xtensor_containerINS0_7uvectorIdSaIdEEELm2ELNS0_11layout_typeE1ENS0_22xtensor_expression_tagEEESD_EEEEEELN9__gnu_cxx12_Lock_policyE2EED2Ev = comdat any

$_ZNSt12__shared_ptrIN2xt9xfunctionINS0_6detail7dividesEJRKNS0_17xtensor_containerINS0_7uvectorIdSaIdEEELm2ELNS0_11layout_typeE1ENS0_22xtensor_expression_tagEEESC_EEELN9__gnu_cxx12_Lock_policyE2EED2Ev = comdat any

$_ZNK2xt18xstrided_containerINS_17xtensor_containerINS_7uvectorIdSaIdEEELm3ELNS_11layout_typeE1ENS_22xtensor_expression_tagEEEE10shape_implEv = comdat any

$_ZN2xt11data_offsetImSt5arrayIlLm3EElJllEEET_RKT0_T1_DpT2_ = comdat any

$_ZN2xt6detail15raw_data_offsetILm0ESt5arrayIlLm3EElJllEEEDaRKT0_T1_DpT2_ = comdat any

$_ZN2xt11data_offsetImSt5arrayIlLm3EElJlEEET_RKT0_T1_DpT2_ = comdat any

$_ZNKSt5arrayIlLm3EE4cendEv = comdat any

$_ZN2xt6detail15raw_data_offsetILm0EPKllJllEEEDaRKT0_T1_DpT2_ = comdat any

$_ZN2xt6detail15raw_data_offsetILm1ESt5arrayIlLm3EElJlEEEDaRKT0_T1_DpT2_ = comdat any

$_ZN2xt6detail15raw_data_offsetILm2ESt5arrayIlLm3EElJEEEDaRKT0_T1_DpT2_ = comdat any

$_ZN2xt6detail15raw_data_offsetILm3ESt5arrayIlLm3EEEEDaRKT0_ = comdat any

$_ZN2xt6detail15raw_data_offsetILm0ESt5arrayIlLm3EElJlEEEDaRKT0_T1_DpT2_ = comdat any

$_ZN2xt11data_offsetImSt5arrayIlLm3EElJEEET_RKT0_T1_DpT2_ = comdat any

$_ZN2xt6detail15raw_data_offsetILm1ESt5arrayIlLm3EElJEEEDaRKT0_T1_DpT2_ = comdat any

$_ZN2xt6detail15raw_data_offsetILm2ESt5arrayIlLm3EEEEDaRKT0_ = comdat any

$_ZN2xt6detail15raw_data_offsetILm0ESt5arrayIlLm3EElJEEEDaRKT0_T1_DpT2_ = comdat any

$_ZN2xt11data_offsetImSt5arrayIlLm3EEEET_RKT0_ = comdat any

$_ZN2xt6detail15raw_data_offsetILm1ESt5arrayIlLm3EEEEDaRKT0_ = comdat any

$_ZNKSt5arrayIlLm3EE4dataEv = comdat any

$_ZN2xt6detail15raw_data_offsetILm1EPKllJlEEEDaRKT0_T1_DpT2_ = comdat any

$_ZN2xt6detail15raw_data_offsetILm2EPKllJEEEDaRKT0_T1_DpT2_ = comdat any

$_ZN2xt6detail15raw_data_offsetILm3EPKlEEDaRKT0_ = comdat any

$_ZN2xt11xaccessibleINS_17xtensor_containerINS_7uvectorIiSaIiEEELm1ELNS_11layout_typeE1ENS_22xtensor_expression_tagEEEE12derived_castEv = comdat any

$_ZN2xt10xcontainerINS_17xtensor_containerINS_7uvectorIiSaIiEEELm1ELNS_11layout_typeE1ENS_22xtensor_expression_tagEEEEclIJmEEERiDpT_ = comdat any

$_ZN2xt10xcontainerINS_17xtensor_containerINS_7uvectorIiSaIiEEELm1ELNS_11layout_typeE1ENS_22xtensor_expression_tagEEEE7storageEv = comdat any

$_ZN2xt7uvectorIiSaIiEEixEm = comdat any

$_ZNR2xt10xcontainerINS_17xtensor_containerINS_7uvectorIiSaIiEEELm1ELNS_11layout_typeE1ENS_22xtensor_expression_tagEEEE12derived_castEv = comdat any

$_ZN2xt17xtensor_containerINS_7uvectorIiSaIiEEELm1ELNS_11layout_typeE1ENS_22xtensor_expression_tagEE12storage_implEv = comdat any

$_ZN2xt11xaccessibleINS_17xtensor_containerINS_7uvectorIdSaIdEEELm1ELNS_11layout_typeE1ENS_22xtensor_expression_tagEEEEixEm = comdat any

$_ZSt13inner_productIN9__gnu_cxx17__normal_iteratorIPdSt6vectorIdSaIdEEEES6_dET1_T_S8_T0_S7_ = comdat any

$_ZN6openmc11fatal_errorEPKc = comdat any

$_ZN2xt11xaccessibleINS_17xtensor_containerINS_7uvectorIdSaIdEEELm1ELNS_11layout_typeE1ENS_22xtensor_expression_tagEEEE12derived_castEv = comdat any

$_ZN2xt10xcontainerINS_17xtensor_containerINS_7uvectorIdSaIdEEELm1ELNS_11layout_typeE1ENS_22xtensor_expression_tagEEEEclIJmEEERdDpT_ = comdat any

$_ZNK2xt10xcontainerINS_17xtensor_containerINS_7uvectorIdSaIdEEELm1ELNS_11layout_typeE1ENS_22xtensor_expression_tagEEEE7stridesEv = comdat any

$_ZN2xt10xcontainerINS_17xtensor_containerINS_7uvectorIdSaIdEEELm1ELNS_11layout_typeE1ENS_22xtensor_expression_tagEEEE7storageEv = comdat any

$_ZNKR2xt10xcontainerINS_17xtensor_containerINS_7uvectorIdSaIdEEELm1ELNS_11layout_typeE1ENS_22xtensor_expression_tagEEEE12derived_castEv = comdat any

$_ZNK2xt18xstrided_containerINS_17xtensor_containerINS_7uvectorIdSaIdEEELm1ELNS_11layout_typeE1ENS_22xtensor_expression_tagEEEE12strides_implEv = comdat any

$_ZNR2xt10xcontainerINS_17xtensor_containerINS_7uvectorIdSaIdEEELm1ELNS_11layout_typeE1ENS_22xtensor_expression_tagEEEE12derived_castEv = comdat any

$_ZN2xt17xtensor_containerINS_7uvectorIdSaIdEEELm1ELNS_11layout_typeE1ENS_22xtensor_expression_tagEE12storage_implEv = comdat any

$_ZNKSt6vectorIS_IS_IdSaIdEESaIS1_EESaIS3_EEixEm = comdat any

$_ZNSt6vectorIS_IS_IdSaIdEESaIS1_EESaIS3_EEC2ERKS5_ = comdat any

$_ZN2xt5zerosIdmLm1EEEDaRAT1__KT0_ = comdat any

$_ZN2xt17xtensor_containerINS_7uvectorIdSaIdEEELm1ELNS_11layout_typeE1ENS_22xtensor_expression_tagEEaSINS_10xbroadcastINS_7xscalarIdEESt5arrayImLm1EEEEEERS6_RKNS_11xexpressionIT_EE = comdat any

$_ZN2xt10xbroadcastINS_7xscalarIdEESt5arrayImLm1EEED2Ev = comdat any

$_ZNSt6vectorIS_IS_IdSaIdEESaIS1_EESaIS3_EED2Ev = comdat any

$_ZN9__gnu_cxx14__alloc_traitsISaISt6vectorIS1_IdSaIdEESaIS3_EEES5_E17_S_select_on_copyERKS6_ = comdat any

$_ZNSt12_Vector_baseISt6vectorIS0_IdSaIdEESaIS2_EESaIS4_EEC2EmRKS5_ = comdat any

$_ZNSt15__new_allocatorISt6vectorIS0_IdSaIdEESaIS2_EEED2Ev = comdat any

$_ZSt22__uninitialized_copy_aIN9__gnu_cxx17__normal_iteratorIPKSt6vectorIS2_IdSaIdEESaIS4_EES2_IS6_SaIS6_EEEEPS6_S6_ET0_T_SE_SD_RSaIT1_E = comdat any

$_ZNKSt6vectorIS_IS_IdSaIdEESaIS1_EESaIS3_EE5beginEv = comdat any

$_ZNKSt6vectorIS_IS_IdSaIdEESaIS1_EESaIS3_EE3endEv = comdat any

$_ZNSt12_Vector_baseISt6vectorIS0_IdSaIdEESaIS2_EESaIS4_EED2Ev = comdat any

$_ZNSt16allocator_traitsISaISt6vectorIS0_IdSaIdEESaIS2_EEEE37select_on_container_copy_constructionERKS5_ = comdat any

$_ZNSaISt6vectorIS_IdSaIdEESaIS1_EEEC2ERKS4_ = comdat any

$_ZNSt15__new_allocatorISt6vectorIS0_IdSaIdEESaIS2_EEEC2ERKS5_ = comdat any

$_ZNSt12_Vector_baseISt6vectorIS0_IdSaIdEESaIS2_EESaIS4_EE12_Vector_implC2ERKS5_ = comdat any

$_ZNSt12_Vector_baseISt6vectorIS0_IdSaIdEESaIS2_EESaIS4_EE17_M_create_storageEm = comdat any

$_ZNSt12_Vector_baseISt6vectorIS0_IdSaIdEESaIS2_EESaIS4_EE17_Vector_impl_dataC2Ev = comdat any

$_ZSt18uninitialized_copyIN9__gnu_cxx17__normal_iteratorIPKSt6vectorIS2_IdSaIdEESaIS4_EES2_IS6_SaIS6_EEEEPS6_ET0_T_SE_SD_ = comdat any

$_ZNSt20__uninitialized_copyILb0EE13__uninit_copyIN9__gnu_cxx17__normal_iteratorIPKSt6vectorIS4_IdSaIdEESaIS6_EES4_IS8_SaIS8_EEEEPS8_EET0_T_SG_SF_ = comdat any

$_ZSt16__do_uninit_copyIN9__gnu_cxx17__normal_iteratorIPKSt6vectorIS2_IdSaIdEESaIS4_EES2_IS6_SaIS6_EEEEPS6_ET0_T_SE_SD_ = comdat any

$_ZN9__gnu_cxxneIPKSt6vectorIS1_IdSaIdEESaIS3_EES1_IS5_SaIS5_EEEEbRKNS_17__normal_iteratorIT_T0_EESF_ = comdat any

$_ZSt10_ConstructISt6vectorIS0_IdSaIdEESaIS2_EEJRKS4_EEvPT_DpOT0_ = comdat any

$_ZNK9__gnu_cxx17__normal_iteratorIPKSt6vectorIS1_IdSaIdEESaIS3_EES1_IS5_SaIS5_EEEdeEv = comdat any

$_ZN9__gnu_cxx17__normal_iteratorIPKSt6vectorIS1_IdSaIdEESaIS3_EES1_IS5_SaIS5_EEEppEv = comdat any

$_ZNK9__gnu_cxx17__normal_iteratorIPKSt6vectorIS1_IdSaIdEESaIS3_EES1_IS5_SaIS5_EEE4baseEv = comdat any

$_ZNSt6vectorIS_IdSaIdEESaIS1_EEC2ERKS3_ = comdat any

$_ZN9__gnu_cxx14__alloc_traitsISaISt6vectorIdSaIdEEES3_E17_S_select_on_copyERKS4_ = comdat any

$_ZNSt12_Vector_baseISt6vectorIdSaIdEESaIS2_EEC2EmRKS3_ = comdat any

$_ZNSt15__new_allocatorISt6vectorIdSaIdEEED2Ev = comdat any

$_ZSt22__uninitialized_copy_aIN9__gnu_cxx17__normal_iteratorIPKSt6vectorIdSaIdEES2_IS4_SaIS4_EEEEPS4_S4_ET0_T_SC_SB_RSaIT1_E = comdat any

$_ZNKSt6vectorIS_IdSaIdEESaIS1_EE5beginEv = comdat any

$_ZNKSt6vectorIS_IdSaIdEESaIS1_EE3endEv = comdat any

$_ZNSt16allocator_traitsISaISt6vectorIdSaIdEEEE37select_on_container_copy_constructionERKS3_ = comdat any

$_ZNSaISt6vectorIdSaIdEEEC2ERKS2_ = comdat any

$_ZNSt12_Vector_baseISt6vectorIdSaIdEESaIS2_EE12_Vector_implC2ERKS3_ = comdat any

$_ZNSt12_Vector_baseISt6vectorIdSaIdEESaIS2_EE17_M_create_storageEm = comdat any

$_ZSt18uninitialized_copyIN9__gnu_cxx17__normal_iteratorIPKSt6vectorIdSaIdEES2_IS4_SaIS4_EEEEPS4_ET0_T_SC_SB_ = comdat any

$_ZNSt20__uninitialized_copyILb0EE13__uninit_copyIN9__gnu_cxx17__normal_iteratorIPKSt6vectorIdSaIdEES4_IS6_SaIS6_EEEEPS6_EET0_T_SE_SD_ = comdat any

$_ZSt16__do_uninit_copyIN9__gnu_cxx17__normal_iteratorIPKSt6vectorIdSaIdEES2_IS4_SaIS4_EEEEPS4_ET0_T_SC_SB_ = comdat any

$_ZN9__gnu_cxxneIPKSt6vectorIdSaIdEES1_IS3_SaIS3_EEEEbRKNS_17__normal_iteratorIT_T0_EESD_ = comdat any

$_ZSt10_ConstructISt6vectorIdSaIdEEJRKS2_EEvPT_DpOT0_ = comdat any

$_ZNK9__gnu_cxx17__normal_iteratorIPKSt6vectorIdSaIdEES1_IS3_SaIS3_EEEdeEv = comdat any

$_ZN9__gnu_cxx17__normal_iteratorIPKSt6vectorIdSaIdEES1_IS3_SaIS3_EEEppEv = comdat any

$_ZNK9__gnu_cxx17__normal_iteratorIPKSt6vectorIdSaIdEES1_IS3_SaIS3_EEE4baseEv = comdat any

$_ZNSt6vectorIdSaIdEEC2ERKS1_ = comdat any

$_ZN9__gnu_cxx14__alloc_traitsISaIdEdE17_S_select_on_copyERKS1_ = comdat any

$_ZNSt12_Vector_baseIdSaIdEEC2EmRKS0_ = comdat any

$_ZNSt16allocator_traitsISaIdEE37select_on_container_copy_constructionERKS0_ = comdat any

$_ZNSt12_Vector_baseIdSaIdEE12_Vector_implC2ERKS0_ = comdat any

$_ZNSt12_Vector_baseIdSaIdEE17_M_create_storageEm = comdat any

$_ZN9__gnu_cxx17__normal_iteratorIPKSt6vectorIdSaIdEES1_IS3_SaIS3_EEEC2ERKS5_ = comdat any

$_ZN9__gnu_cxx17__normal_iteratorIPKSt6vectorIS1_IdSaIdEESaIS3_EES1_IS5_SaIS5_EEEC2ERKS7_ = comdat any

$_ZN2xt9broadcastIdmLm1EEEDaOT_RAT1__KT0_ = comdat any

$_ZN3xtl16forward_sequenceISt5arrayImLm1EERA1_KmEEDcRNSt16remove_referenceIT0_E4typeE = comdat any

$_ZN2xt10xbroadcastINS_7xscalarIdEESt5arrayImLm1EEEC2IdEEOT_OS4_ = comdat any

$_ZN3xtl6detail23sequence_forwarder_implISt5arrayImLm1EEA1_mvE7forwardIS4_EES3_RKT_ = comdat any

$_ZSt5beginIKmLm1EEPT_RAT0__S1_ = comdat any

$_ZSt3endIKmLm1EEPT_RAT0__S1_ = comdat any

$_ZSt5beginISt5arrayImLm1EEEDTcldtfp_5beginEERT_ = comdat any

$_ZNSt5arrayImLm1EE5beginEv = comdat any

$_ZNSt5arrayImLm1EE4dataEv = comdat any

$_ZNSt14__array_traitsImLm1EE6_S_ptrERA1_Km = comdat any

$_ZN2xt20xsharable_expressionINS_10xbroadcastINS_7xscalarIdEESt5arrayImLm1EEEEEC2Ev = comdat any

$_ZN2xt7xscalarIdEC2Ed = comdat any

$_ZN2xt15broadcast_shapeISt5arrayImLm0EES1_ImLm1EEEEbRKT_RT0_ = comdat any

$_ZNK2xt7xscalarIdE5shapeEv = comdat any

$_ZN2xt20xsharable_expressionINS_7xscalarIdEEED2Ev = comdat any

$_ZN2xt20xsharable_expressionINS_10xbroadcastINS_7xscalarIdEESt5arrayImLm1EEEEED2Ev = comdat any

$_ZNSt10shared_ptrIN2xt10xbroadcastINS0_7xscalarIdEESt5arrayImLm1EEEEEC2EDn = comdat any

$_ZNSt10shared_ptrIN2xt10xbroadcastINS0_7xscalarIdEESt5arrayImLm1EEEEEC2Ev = comdat any

$_ZNSt12__shared_ptrIN2xt10xbroadcastINS0_7xscalarIdEESt5arrayImLm1EEEELN9__gnu_cxx12_Lock_policyE2EEC2Ev = comdat any

$_ZN2xt20xsharable_expressionINS_7xscalarIdEEEC2Ev = comdat any

$_ZNSt10shared_ptrIN2xt7xscalarIdEEEC2EDn = comdat any

$_ZNSt10shared_ptrIN2xt7xscalarIdEEEC2Ev = comdat any

$_ZNSt12__shared_ptrIN2xt7xscalarIdEELN9__gnu_cxx12_Lock_policyE2EEC2Ev = comdat any

$_ZNKSt5arrayImLm1EE4sizeEv = comdat any

$_ZN2xt21throw_broadcast_errorISt5arrayImLm1EES1_ImLm0EEEEvRKT_RKT0_ = comdat any

$_ZNSt5arrayImLm1EEixEm = comdat any

$_ZNKSt5arrayImLm0EEixEm = comdat any

$_ZN2xt6detail19shape_error_messageISt5arrayImLm1EES2_ImLm0EEEENSt7__cxx1112basic_stringIcSt11char_traitsIcESaIcEEERKT_RKT0_ = comdat any

$_ZNKSt5arrayImLm1EE6cbeginEv = comdat any

$_ZNKSt5arrayImLm1EE4cendEv = comdat any

$_ZNKSt5arrayImLm0EE6cbeginEv = comdat any

$_ZNKSt5arrayImLm0EE4cendEv = comdat any

$_ZNKSt5arrayImLm1EE4dataEv = comdat any

$_ZNKSt5arrayImLm0EE4dataEv = comdat any

$_ZNSt14__array_traitsImLm0EE6_S_ptrERKNS0_5_TypeE = comdat any

$_ZNSt14__array_traitsImLm1EE6_S_refERA1_Kmm = comdat any

$_ZNSt14__array_traitsImLm0EE6_S_refERKNS0_5_TypeEm = comdat any

$_ZNSt12__shared_ptrIN2xt7xscalarIdEELN9__gnu_cxx12_Lock_policyE2EED2Ev = comdat any

$_ZNSt12__shared_ptrIN2xt10xbroadcastINS0_7xscalarIdEESt5arrayImLm1EEEELN9__gnu_cxx12_Lock_policyE2EED2Ev = comdat any

$_ZN2xt19xcontainer_semanticINS_17xtensor_containerINS_7uvectorIdSaIdEEELm1ELNS_11layout_typeE1ENS_22xtensor_expression_tagEEEEaSINS_10xbroadcastINS_7xscalarIdEESt5arrayImLm1EEEEEERS7_RKNS_11xexpressionIT_EE = comdat any

$_ZN2xt14xsemantic_baseINS_17xtensor_containerINS_7uvectorIdSaIdEEELm1ELNS_11layout_typeE1ENS_22xtensor_expression_tagEEEEaSINS_10xbroadcastINS_7xscalarIdEESt5arrayImLm1EEEEEERS7_RKNS_11xexpressionIT_EE = comdat any

$_ZN2xt17xtensor_containerINS_7uvectorIdSaIdEEELm1ELNS_11layout_typeE1ENS_22xtensor_expression_tagEEC2INS_10xbroadcastINS_7xscalarIdEESt5arrayImLm1EEEEEERKNS_11xexpressionIT_EE = comdat any

$_ZNR2xt11xexpressionINS_17xtensor_containerINS_7uvectorIdSaIdEEELm1ELNS_11layout_typeE1ENS_22xtensor_expression_tagEEEE12derived_castEv = comdat any

$_ZN2xt19xcontainer_semanticINS_17xtensor_containerINS_7uvectorIdSaIdEEELm1ELNS_11layout_typeE1ENS_22xtensor_expression_tagEEEE16assign_temporaryEOS7_ = comdat any

$_ZN2xt17xtensor_containerINS_7uvectorIdSaIdEEELm1ELNS_11layout_typeE1ENS_22xtensor_expression_tagEED2Ev = comdat any

$_ZN2xt18xstrided_containerINS_17xtensor_containerINS_7uvectorIdSaIdEEELm1ELNS_11layout_typeE1ENS_22xtensor_expression_tagEEEEC2Ev = comdat any

$_ZN2xt19xcontainer_semanticINS_17xtensor_containerINS_7uvectorIdSaIdEEELm1ELNS_11layout_typeE1ENS_22xtensor_expression_tagEEEEC2Ev = comdat any

$_ZNKR2xt11xexpressionINS_10xbroadcastINS_7xscalarIdEESt5arrayImLm1EEEEE12derived_castEv = comdat any

$_ZNK2xt17xconst_accessibleINS_10xbroadcastINS_7xscalarIdEESt5arrayImLm1EEEEE9dimensionEv = comdat any

$_ZN2xt14xsemantic_baseINS_17xtensor_containerINS_7uvectorIdSaIdEEELm1ELNS_11layout_typeE1ENS_22xtensor_expression_tagEEEE6assignINS_10xbroadcastINS_7xscalarIdEESt5arrayImLm1EEEEEERS7_RKNS_11xexpressionIT_EE = comdat any

$_ZN2xt20xsharable_expressionINS_17xtensor_containerINS_7uvectorIdSaIdEEELm1ELNS_11layout_typeE1ENS_22xtensor_expression_tagEEEED2Ev = comdat any

$_ZN3xtl13make_sequenceISt5arrayImLm1EEEET_NS3_9size_typeENS3_10value_typeE = comdat any

$_ZNK2xt10xcontainerINS_17xtensor_containerINS_7uvectorIdSaIdEEELm1ELNS_11layout_typeE1ENS_22xtensor_expression_tagEEEE9dimensionEv = comdat any

$_ZN3xtl13make_sequenceISt5arrayIlLm1EEEET_NS3_9size_typeENS3_10value_typeE = comdat any

$_ZN3xtl6detail16sequence_builderISt5arrayImLm1EEE4makeEmm = comdat any

$_ZNSt5arrayImLm1EE4fillERKm = comdat any

$_ZNK2xt10xcontainerINS_17xtensor_containerINS_7uvectorIdSaIdEEELm1ELNS_11layout_typeE1ENS_22xtensor_expression_tagEEEE5shapeEv = comdat any

$_ZNK2xt18xstrided_containerINS_17xtensor_containerINS_7uvectorIdSaIdEEELm1ELNS_11layout_typeE1ENS_22xtensor_expression_tagEEEE10shape_implEv = comdat any

$_ZN3xtl6detail16sequence_builderISt5arrayIlLm1EEE4makeEml = comdat any

$_ZNSt5arrayIlLm1EE4fillERKl = comdat any

$_ZNSt5arrayIlLm1EE5beginEv = comdat any

$_ZNSt5arrayIlLm1EE4dataEv = comdat any

$_ZN2xt14xsemantic_baseINS_17xtensor_containerINS_7uvectorIdSaIdEEELm1ELNS_11layout_typeE1ENS_22xtensor_expression_tagEEEEC2Ev = comdat any

$_ZN2xt20xsharable_expressionINS_17xtensor_containerINS_7uvectorIdSaIdEEELm1ELNS_11layout_typeE1ENS_22xtensor_expression_tagEEEEC2Ev = comdat any

$_ZNSt10shared_ptrIN2xt17xtensor_containerINS0_7uvectorIdSaIdEEELm1ELNS0_11layout_typeE1ENS0_22xtensor_expression_tagEEEEC2EDn = comdat any

$_ZNSt10shared_ptrIN2xt17xtensor_containerINS0_7uvectorIdSaIdEEELm1ELNS0_11layout_typeE1ENS0_22xtensor_expression_tagEEEEC2Ev = comdat any

$_ZNSt12__shared_ptrIN2xt17xtensor_containerINS0_7uvectorIdSaIdEEELm1ELNS0_11layout_typeE1ENS0_22xtensor_expression_tagEEELN9__gnu_cxx12_Lock_policyE2EEC2Ev = comdat any

$_ZNK2xt17xconst_accessibleINS_10xbroadcastINS_7xscalarIdEESt5arrayImLm1EEEEE12derived_castEv = comdat any

$_ZNK2xt10xbroadcastINS_7xscalarIdEESt5arrayImLm1EEE5shapeEv = comdat any

$_ZN2xt19xcontainer_semanticINS_17xtensor_containerINS_7uvectorIdSaIdEEELm1ELNS_11layout_typeE1ENS_22xtensor_expression_tagEEEE18assign_xexpressionINS_10xbroadcastINS_7xscalarIdEESt5arrayImLm1EEEEEERS7_RKNS_11xexpressionIT_EE = comdat any

$_ZN2xt18assign_xexpressionINS_17xtensor_containerINS_7uvectorIdSaIdEEELm1ELNS_11layout_typeE1ENS_22xtensor_expression_tagEEENS_10xbroadcastINS_7xscalarIdEESt5arrayImLm1EEEEEEvRNS_11xexpressionIT_EERKNSE_IT0_EE = comdat any

$_ZN3xtl3mpl9static_ifILb1EZN2xt18assign_xexpressionINS2_17xtensor_containerINS2_7uvectorIdSaIdEEELm1ELNS2_11layout_typeE1ENS2_22xtensor_expression_tagEEENS2_10xbroadcastINS2_7xscalarIdEESt5arrayImLm1EEEEEEvRNS2_11xexpressionIT_EERKNSH_IT0_EEEUlSI_E_ZNS3_ISA_SG_EEvSK_SO_EUlSI_E0_EEDcRKSL_RKT1_ = comdat any

$_ZN3xtl3mpl9static_ifIZN2xt18assign_xexpressionINS2_17xtensor_containerINS2_7uvectorIdSaIdEEELm1ELNS2_11layout_typeE1ENS2_22xtensor_expression_tagEEENS2_10xbroadcastINS2_7xscalarIdEESt5arrayImLm1EEEEEEvRNS2_11xexpressionIT_EERKNSH_IT0_EEEUlSI_E_ZNS3_ISA_SG_EEvSK_SO_EUlSI_E0_EEDcSt17integral_constantIbLb1EERKSI_RKSL_ = comdat any

$_ZZN2xt18assign_xexpressionINS_17xtensor_containerINS_7uvectorIdSaIdEEELm1ELNS_11layout_typeE1ENS_22xtensor_expression_tagEEENS_10xbroadcastINS_7xscalarIdEESt5arrayImLm1EEEEEEvRNS_11xexpressionIT_EERKNSE_IT0_EEENKUlSF_E_clIN3xtl8identityEEEDaSF_ = comdat any

$_ZNK3xtl8identityclIRKN2xt11xexpressionINS2_10xbroadcastINS2_7xscalarIdEESt5arrayImLm1EEEEEEEEOT_SE_ = comdat any

$_ZNK2xt10xbroadcastINS_7xscalarIdEESt5arrayImLm1EEE9assign_toINS_17xtensor_containerINS_7uvectorIdSaIdEEELm1ELNS_11layout_typeE1ENS_22xtensor_expression_tagEEES2_vEEvRNS_11xexpressionIT_EE = comdat any

$_ZN2xt18xstrided_containerINS_17xtensor_containerINS_7uvectorIdSaIdEEELm1ELNS_11layout_typeE1ENS_22xtensor_expression_tagEEEE6resizeIRKSt5arrayImLm1EEEEvOT_b = comdat any

$_ZN2xt20xcontiguous_iterableINS_17xtensor_containerINS_7uvectorIdSaIdEEELm1ELNS_11layout_typeE1ENS_22xtensor_expression_tagEEEE5beginILS5_1EEENSt11conditionalIXeqT_L_ZNS8_13static_layoutEEEPdNS_9xiteratorINS_8xstepperIS7_EEPSt5arrayImLm1EEXT_EEEE4typeEv = comdat any

$_ZN2xt20xcontiguous_iterableINS_17xtensor_containerINS_7uvectorIdSaIdEEELm1ELNS_11layout_typeE1ENS_22xtensor_expression_tagEEEE3endILS5_1EEENSt11conditionalIXeqT_L_ZNS8_13static_layoutEEEPdNS_9xiteratorINS_8xstepperIS7_EEPSt5arrayImLm1EEXT_EEEE4typeEv = comdat any

$_ZNK2xt7xscalarIdEclIJEEERKdDpT_ = comdat any

$_ZSt5beginISt5arrayImLm1EEEDTcldtfp_5beginEERKT_ = comdat any

$_ZSt3endISt5arrayImLm1EEEDTcldtfp_3endEERKT_ = comdat any

$_ZN3xtl16forward_sequenceISt5arrayImLm1EERKS2_EEDcRNSt16remove_referenceIT0_E4typeE = comdat any

$_ZN2xt16resize_containerIlLm1EEEbRSt5arrayIT_XT0_EENS3_9size_typeE = comdat any

$_ZN2xt15compute_stridesILNS_11layout_typeE1ESt5arrayImLm1EES2_IlLm1EES4_EEmRKT0_S1_RT1_RT2_ = comdat any

$_ZNKSt5arrayImLm1EE5beginEv = comdat any

$_ZNKSt5arrayImLm1EE3endEv = comdat any

$_ZN3xtl6detail18sequence_forwarderISt5arrayImLm1EES3_E7forwardIRKS3_EEOT_S9_ = comdat any

$_ZN2xt6detail15compute_stridesILNS_11layout_typeE1ESt5arrayImLm1EES3_IlLm1EEPS5_EEmRKT0_S2_RT1_T2_ = comdat any

$_ZNSt5arrayIlLm1EEixEm = comdat any

$_ZNKSt5arrayImLm1EEixEm = comdat any

$_ZN2xt6detail13adapt_stridesISt5arrayImLm1EES2_IlLm1EEPS4_EEvRKT_RT0_T1_NS9_9size_typeE = comdat any

$_ZN3xtl3mpl9static_ifILb1EZN2xt20xcontiguous_iterableINS2_17xtensor_containerINS2_7uvectorIdSaIdEEELm1ELNS2_11layout_typeE1ENS2_22xtensor_expression_tagEEEE5beginILS8_1EEENSt11conditionalIXeqT_L_ZNSB_13static_layoutEEEPdNS2_9xiteratorINS2_8xstepperISA_EEPSt5arrayImLm1EEXT_EEEE4typeEvEUlT_E_ZNSC_ILS8_1EEESN_vEUlSO_E0_EEDcRKT0_RKT1_ = comdat any

$_ZN3xtl3mpl9static_ifIZN2xt20xcontiguous_iterableINS2_17xtensor_containerINS2_7uvectorIdSaIdEEELm1ELNS2_11layout_typeE1ENS2_22xtensor_expression_tagEEEE5beginILS8_1EEENSt11conditionalIXeqT_L_ZNSB_13static_layoutEEEPdNS2_9xiteratorINS2_8xstepperISA_EEPSt5arrayImLm1EEXT_EEEE4typeEvEUlT_E_ZNSC_ILS8_1EEESN_vEUlSO_E0_EEDcSt17integral_constantIbLb1EERKSO_RKT0_ = comdat any

$_ZZN2xt20xcontiguous_iterableINS_17xtensor_containerINS_7uvectorIdSaIdEEELm1ELNS_11layout_typeE1ENS_22xtensor_expression_tagEEEE5beginILS5_1EEENSt11conditionalIXeqT_L_ZNS8_13static_layoutEEEPdNS_9xiteratorINS_8xstepperIS7_EEPSt5arrayImLm1EEXT_EEEE4typeEvENKUlT_E_clIN3xtl8identityEEEDaSL_ = comdat any

$_ZNK3xtl8identityclIRN2xt20xcontiguous_iterableINS2_17xtensor_containerINS2_7uvectorIdSaIdEEELm1ELNS2_11layout_typeE1ENS2_22xtensor_expression_tagEEEEEEEOT_SE_ = comdat any

$_ZN2xt20xcontiguous_iterableINS_17xtensor_containerINS_7uvectorIdSaIdEEELm1ELNS_11layout_typeE1ENS_22xtensor_expression_tagEEEE12derived_castEv = comdat any

$_ZN2xt10xcontainerINS_17xtensor_containerINS_7uvectorIdSaIdEEELm1ELNS_11layout_typeE1ENS_22xtensor_expression_tagEEEE13storage_beginEv = comdat any

$_ZN3xtl3mpl9static_ifILb1EZN2xt20xcontiguous_iterableINS2_17xtensor_containerINS2_7uvectorIdSaIdEEELm1ELNS2_11layout_typeE1ENS2_22xtensor_expression_tagEEEE3endILS8_1EEENSt11conditionalIXeqT_L_ZNSB_13static_layoutEEEPdNS2_9xiteratorINS2_8xstepperISA_EEPSt5arrayImLm1EEXT_EEEE4typeEvEUlT_E_ZNSC_ILS8_1EEESN_vEUlSO_E0_EEDcRKT0_RKT1_ = comdat any

$_ZN3xtl3mpl9static_ifIZN2xt20xcontiguous_iterableINS2_17xtensor_containerINS2_7uvectorIdSaIdEEELm1ELNS2_11layout_typeE1ENS2_22xtensor_expression_tagEEEE3endILS8_1EEENSt11conditionalIXeqT_L_ZNSB_13static_layoutEEEPdNS2_9xiteratorINS2_8xstepperISA_EEPSt5arrayImLm1EEXT_EEEE4typeEvEUlT_E_ZNSC_ILS8_1EEESN_vEUlSO_E0_EEDcSt17integral_constantIbLb1EERKSO_RKT0_ = comdat any

$_ZZN2xt20xcontiguous_iterableINS_17xtensor_containerINS_7uvectorIdSaIdEEELm1ELNS_11layout_typeE1ENS_22xtensor_expression_tagEEEE3endILS5_1EEENSt11conditionalIXeqT_L_ZNS8_13static_layoutEEEPdNS_9xiteratorINS_8xstepperIS7_EEPSt5arrayImLm1EEXT_EEEE4typeEvENKUlT_E_clIN3xtl8identityEEEDaSL_ = comdat any

$_ZN2xt10xcontainerINS_17xtensor_containerINS_7uvectorIdSaIdEEELm1ELNS_11layout_typeE1ENS_22xtensor_expression_tagEEEE11storage_endEv = comdat any

$_ZN2xt17xtensor_containerINS_7uvectorIdSaIdEEELm1ELNS_11layout_typeE1ENS_22xtensor_expression_tagEEaSEOS6_ = comdat any

$_ZN2xt19xcontainer_semanticINS_17xtensor_containerINS_7uvectorIdSaIdEEELm1ELNS_11layout_typeE1ENS_22xtensor_expression_tagEEEEaSEOS8_ = comdat any

$_ZN2xt14xsemantic_baseINS_17xtensor_containerINS_7uvectorIdSaIdEEELm1ELNS_11layout_typeE1ENS_22xtensor_expression_tagEEEEaSEOS8_ = comdat any

$_ZN2xt20xsharable_expressionINS_17xtensor_containerINS_7uvectorIdSaIdEEELm1ELNS_11layout_typeE1ENS_22xtensor_expression_tagEEEEaSEOS8_ = comdat any

$_ZNSt10shared_ptrIN2xt17xtensor_containerINS0_7uvectorIdSaIdEEELm1ELNS0_11layout_typeE1ENS0_22xtensor_expression_tagEEEEaSEOS8_ = comdat any

$_ZNSt12__shared_ptrIN2xt17xtensor_containerINS0_7uvectorIdSaIdEEELm1ELNS0_11layout_typeE1ENS0_22xtensor_expression_tagEEELN9__gnu_cxx12_Lock_policyE2EEaSEOSA_ = comdat any

$_ZNSt12__shared_ptrIN2xt17xtensor_containerINS0_7uvectorIdSaIdEEELm1ELNS0_11layout_typeE1ENS0_22xtensor_expression_tagEEELN9__gnu_cxx12_Lock_policyE2EEC2EOSA_ = comdat any

$_ZNSt12__shared_ptrIN2xt17xtensor_containerINS0_7uvectorIdSaIdEEELm1ELNS0_11layout_typeE1ENS0_22xtensor_expression_tagEEELN9__gnu_cxx12_Lock_policyE2EE4swapERSA_ = comdat any

$_ZNSt12__shared_ptrIN2xt17xtensor_containerINS0_7uvectorIdSaIdEEELm1ELNS0_11layout_typeE1ENS0_22xtensor_expression_tagEEELN9__gnu_cxx12_Lock_policyE2EED2Ev = comdat any

$_ZSt4swapIPN2xt17xtensor_containerINS0_7uvectorIdSaIdEEELm1ELNS0_11layout_typeE1ENS0_22xtensor_expression_tagEEEENSt9enable_ifIXsr6__and_ISt6__not_ISt15__is_tuple_likeIT_EESt21is_move_constructibleISC_ESt18is_move_assignableISC_EEE5valueEvE4typeERSC_SL_ = comdat any

$_ZNSt6vectorIdSaIdEE4dataEv = comdat any

$_ZNKSt6vectorIdSaIdEE11_M_data_ptrIdEEPT_S4_ = comdat any

$_ZN2xt17xtensor_containerINS_7uvectorIiSaIiEEELm1ELNS_11layout_typeE1ENS_22xtensor_expression_tagEEC2ERKSt5arrayImLm1EERKiS4_ = comdat any

$_ZNSaISt6vectorIS_IdSaIdEESaIS1_EEEC2Ev = comdat any

$_ZNSt6vectorIS_IS_IdSaIdEESaIS1_EESaIS3_EEC2EmRKS4_ = comdat any

$_ZNSaISt6vectorIdSaIdEEEC2Ev = comdat any

$_ZNSt6vectorIS_IdSaIdEESaIS1_EEC2EmRKS2_ = comdat any

$_ZN2xt17xtensor_containerINS_7uvectorIiSaIiEEELm1ELNS_11layout_typeE1ENS_22xtensor_expression_tagEED2Ev = comdat any

$_ZN2xt18xstrided_containerINS_17xtensor_containerINS_7uvectorIiSaIiEEELm1ELNS_11layout_typeE1ENS_22xtensor_expression_tagEEEEC2Ev = comdat any

$_ZN2xt19xcontainer_semanticINS_17xtensor_containerINS_7uvectorIiSaIiEEELm1ELNS_11layout_typeE1ENS_22xtensor_expression_tagEEEEC2Ev = comdat any

$_ZN2xt7uvectorIiSaIiEEC2Ev = comdat any

$_ZN2xt18xstrided_containerINS_17xtensor_containerINS_7uvectorIiSaIiEEELm1ELNS_11layout_typeE1ENS_22xtensor_expression_tagEEEE6resizeIRKSt5arrayImLm1EEEEvOT_S5_ = comdat any

$_ZSt4fillIPiiEvT_S1_RKT0_ = comdat any

$_ZN2xt7uvectorIiSaIiEE5beginEv = comdat any

$_ZN2xt7uvectorIiSaIiEE3endEv = comdat any

$_ZN2xt7uvectorIiSaIiEED2Ev = comdat any

$_ZN2xt20xsharable_expressionINS_17xtensor_containerINS_7uvectorIiSaIiEEELm1ELNS_11layout_typeE1ENS_22xtensor_expression_tagEEEED2Ev = comdat any

$_ZNK2xt10xcontainerINS_17xtensor_containerINS_7uvectorIiSaIiEEELm1ELNS_11layout_typeE1ENS_22xtensor_expression_tagEEEE9dimensionEv = comdat any

$_ZNK2xt10xcontainerINS_17xtensor_containerINS_7uvectorIiSaIiEEELm1ELNS_11layout_typeE1ENS_22xtensor_expression_tagEEEE5shapeEv = comdat any

$_ZNK2xt18xstrided_containerINS_17xtensor_containerINS_7uvectorIiSaIiEEELm1ELNS_11layout_typeE1ENS_22xtensor_expression_tagEEEE10shape_implEv = comdat any

$_ZN2xt14xsemantic_baseINS_17xtensor_containerINS_7uvectorIiSaIiEEELm1ELNS_11layout_typeE1ENS_22xtensor_expression_tagEEEEC2Ev = comdat any

$_ZN2xt20xsharable_expressionINS_17xtensor_containerINS_7uvectorIiSaIiEEELm1ELNS_11layout_typeE1ENS_22xtensor_expression_tagEEEEC2Ev = comdat any

$_ZNSt10shared_ptrIN2xt17xtensor_containerINS0_7uvectorIiSaIiEEELm1ELNS0_11layout_typeE1ENS0_22xtensor_expression_tagEEEEC2EDn = comdat any

$_ZNSt10shared_ptrIN2xt17xtensor_containerINS0_7uvectorIiSaIiEEELm1ELNS0_11layout_typeE1ENS0_22xtensor_expression_tagEEEEC2Ev = comdat any

$_ZNSt12__shared_ptrIN2xt17xtensor_containerINS0_7uvectorIiSaIiEEELm1ELNS0_11layout_typeE1ENS0_22xtensor_expression_tagEEELN9__gnu_cxx12_Lock_policyE2EEC2Ev = comdat any

$_ZNSaIiEC2Ev = comdat any

$_ZN2xt7uvectorIiSaIiEEC2ERKS1_ = comdat any

$_ZNSt15__new_allocatorIiEC2Ev = comdat any

$_ZN2xt18xstrided_containerINS_17xtensor_containerINS_7uvectorIiSaIiEEELm1ELNS_11layout_typeE1ENS_22xtensor_expression_tagEEEE6resizeIRKSt5arrayImLm1EEEEvOT_b = comdat any

$_ZN2xt6detail21resize_data_containerINS_7uvectorIiSaIiEEEmEEvRT_T0_ = comdat any

$_ZN2xt16resize_containerINS_7uvectorIiSaIiEEEEEbRT_NS4_9size_typeE = comdat any

$_ZN2xt7uvectorIiSaIiEE6resizeEm = comdat any

$_ZSt8__fill_aIPiiEvT_S1_RKT0_ = comdat any

$_ZSt9__fill_a1IPiiEN9__gnu_cxx11__enable_ifIXsr11__is_scalarIT0_EE7__valueEvE6__typeET_S6_RKS3_ = comdat any

$_ZNSt12__shared_ptrIN2xt17xtensor_containerINS0_7uvectorIiSaIiEEELm1ELNS0_11layout_typeE1ENS0_22xtensor_expression_tagEEELN9__gnu_cxx12_Lock_policyE2EED2Ev = comdat any

$_ZNSt15__new_allocatorISt6vectorIS0_IdSaIdEESaIS2_EEEC2Ev = comdat any

$_ZNSt6vectorIS_IS_IdSaIdEESaIS1_EESaIS3_EE17_S_check_init_lenEmRKS4_ = comdat any

$_ZNSt6vectorIS_IS_IdSaIdEESaIS1_EESaIS3_EE21_M_default_initializeEm = comdat any

$_ZNSt6vectorIS_IdSaIdEESaIS1_EE17_S_check_init_lenEmRKS2_ = comdat any

$_ZNSt6vectorIS_IdSaIdEESaIS1_EE21_M_default_initializeEm = comdat any

$_ZN2xt8linspaceIdEEDaT_S1_mb = comdat any

$_ZN2xt17xtensor_containerINS_7uvectorIdSaIdEEELm1ELNS_11layout_typeE1ENS_22xtensor_expression_tagEEaSINS_10xgeneratorINS_6detail16arange_generatorIdddEEdSt5arrayImLm1EEEEEERS6_RKNS_11xexpressionIT_EE = comdat any

$_ZN2xt20xsharable_expressionINS_10xgeneratorINS_6detail16arange_generatorIdddEEdSt5arrayImLm1EEEEED2Ev = comdat any

$_ZN2xt6detail15make_xgeneratorINS0_16arange_generatorIdddEEmLm1EEEDaOT_RAT1__KT0_ = comdat any

$_ZN2xt6detail16arange_generatorIdddEC2Eddd = comdat any

$_ZN2xt10xgeneratorINS_6detail16arange_generatorIdddEEdSt5arrayImLm1EEEC2IS3_EEOT_RKS5_ = comdat any

$_ZN2xt20xsharable_expressionINS_10xgeneratorINS_6detail16arange_generatorIdddEEdSt5arrayImLm1EEEEEC2Ev = comdat any

$_ZNSt10shared_ptrIN2xt10xgeneratorINS0_6detail16arange_generatorIdddEEdSt5arrayImLm1EEEEEC2EDn = comdat any

$_ZNSt10shared_ptrIN2xt10xgeneratorINS0_6detail16arange_generatorIdddEEdSt5arrayImLm1EEEEEC2Ev = comdat any

$_ZNSt12__shared_ptrIN2xt10xgeneratorINS0_6detail16arange_generatorIdddEEdSt5arrayImLm1EEEELN9__gnu_cxx12_Lock_policyE2EEC2Ev = comdat any

$_ZN2xt19xcontainer_semanticINS_17xtensor_containerINS_7uvectorIdSaIdEEELm1ELNS_11layout_typeE1ENS_22xtensor_expression_tagEEEEaSINS_10xgeneratorINS_6detail16arange_generatorIdddEEdSt5arrayImLm1EEEEEERS7_RKNS_11xexpressionIT_EE = comdat any

$_ZN2xt14xsemantic_baseINS_17xtensor_containerINS_7uvectorIdSaIdEEELm1ELNS_11layout_typeE1ENS_22xtensor_expression_tagEEEEaSINS_10xgeneratorINS_6detail16arange_generatorIdddEEdSt5arrayImLm1EEEEEERS7_RKNS_11xexpressionIT_EE = comdat any

$_ZN2xt17xtensor_containerINS_7uvectorIdSaIdEEELm1ELNS_11layout_typeE1ENS_22xtensor_expression_tagEEC2INS_10xgeneratorINS_6detail16arange_generatorIdddEEdSt5arrayImLm1EEEEEERKNS_11xexpressionIT_EE = comdat any

$_ZNKR2xt11xexpressionINS_10xgeneratorINS_6detail16arange_generatorIdddEEdSt5arrayImLm1EEEEE12derived_castEv = comdat any

$_ZNK2xt17xconst_accessibleINS_10xgeneratorINS_6detail16arange_generatorIdddEEdSt5arrayImLm1EEEEE9dimensionEv = comdat any

$_ZN2xt14xsemantic_baseINS_17xtensor_containerINS_7uvectorIdSaIdEEELm1ELNS_11layout_typeE1ENS_22xtensor_expression_tagEEEE6assignINS_10xgeneratorINS_6detail16arange_generatorIdddEEdSt5arrayImLm1EEEEEERS7_RKNS_11xexpressionIT_EE = comdat any

$_ZNK2xt17xconst_accessibleINS_10xgeneratorINS_6detail16arange_generatorIdddEEdSt5arrayImLm1EEEEE12derived_castEv = comdat any

$_ZNK2xt10xgeneratorINS_6detail16arange_generatorIdddEEdSt5arrayImLm1EEE5shapeEv = comdat any

$_ZN2xt19xcontainer_semanticINS_17xtensor_containerINS_7uvectorIdSaIdEEELm1ELNS_11layout_typeE1ENS_22xtensor_expression_tagEEEE18assign_xexpressionINS_10xgeneratorINS_6detail16arange_generatorIdddEEdSt5arrayImLm1EEEEEERS7_RKNS_11xexpressionIT_EE = comdat any

$_ZN2xt18assign_xexpressionINS_17xtensor_containerINS_7uvectorIdSaIdEEELm1ELNS_11layout_typeE1ENS_22xtensor_expression_tagEEENS_10xgeneratorINS_6detail16arange_generatorIdddEEdSt5arrayImLm1EEEEEEvRNS_11xexpressionIT_EERKNSF_IT0_EE = comdat any

$_ZN3xtl3mpl9static_ifILb1EZN2xt18assign_xexpressionINS2_17xtensor_containerINS2_7uvectorIdSaIdEEELm1ELNS2_11layout_typeE1ENS2_22xtensor_expression_tagEEENS2_10xgeneratorINS2_6detail16arange_generatorIdddEEdSt5arrayImLm1EEEEEEvRNS2_11xexpressionIT_EERKNSI_IT0_EEEUlSJ_E_ZNS3_ISA_SH_EEvSL_SP_EUlSJ_E0_EEDcRKSM_RKT1_ = comdat any

$_ZN3xtl3mpl9static_ifIZN2xt18assign_xexpressionINS2_17xtensor_containerINS2_7uvectorIdSaIdEEELm1ELNS2_11layout_typeE1ENS2_22xtensor_expression_tagEEENS2_10xgeneratorINS2_6detail16arange_generatorIdddEEdSt5arrayImLm1EEEEEEvRNS2_11xexpressionIT_EERKNSI_IT0_EEEUlSJ_E_ZNS3_ISA_SH_EEvSL_SP_EUlSJ_E0_EEDcSt17integral_constantIbLb1EERKSJ_RKSM_ = comdat any

$_ZZN2xt18assign_xexpressionINS_17xtensor_containerINS_7uvectorIdSaIdEEELm1ELNS_11layout_typeE1ENS_22xtensor_expression_tagEEENS_10xgeneratorINS_6detail16arange_generatorIdddEEdSt5arrayImLm1EEEEEEvRNS_11xexpressionIT_EERKNSF_IT0_EEENKUlSG_E_clIN3xtl8identityEEEDaSG_ = comdat any

$_ZNK3xtl8identityclIRKN2xt11xexpressionINS2_10xgeneratorINS2_6detail16arange_generatorIdddEEdSt5arrayImLm1EEEEEEEEOT_SF_ = comdat any

$_ZNK2xt10xgeneratorINS_6detail16arange_generatorIdddEEdSt5arrayImLm1EEE9assign_toINS_17xtensor_containerINS_7uvectorIdSaIdEEELm1ELNS_11layout_typeE1ENS_22xtensor_expression_tagEEES3_vEEvRNS_11xexpressionIT_EE = comdat any

$_ZNK2xt6detail16arange_generatorIdddE9assign_toINS_17xtensor_containerINS_7uvectorIdSaIdEEELm1ELNS_11layout_typeE1ENS_22xtensor_expression_tagEEEEEvRNS_11xexpressionIT_EE = comdat any

$_ZN2xt6detail16arange_assign_toIdNS_17xtensor_containerINS_7uvectorIdSaIdEEELm1ELNS_11layout_typeE1ENS_22xtensor_expression_tagEEEddTnNSt9enable_ifIXsr11conjunctionIN3xtl8negationINSA_11is_integralIT2_EEEEEE5valueEiE4typeELi0EEEvRNS_11xexpressionIT0_EET1_SD_ = comdat any

$_ZNSt12__shared_ptrIN2xt10xgeneratorINS0_6detail16arange_generatorIdddEEdSt5arrayImLm1EEEELN9__gnu_cxx12_Lock_policyE2EED2Ev = comdat any

$_ZN9__gnu_cxxmiIPdSt6vectorIdSaIdEEEENS_17__normal_iteratorIT_T0_E15difference_typeERKS8_SB_ = comdat any

$_ZSt11upper_boundIN9__gnu_cxx17__normal_iteratorIPdSt6vectorIdSaIdEEEEdET_S7_S7_RKT0_ = comdat any

$_ZSt13__upper_boundIN9__gnu_cxx17__normal_iteratorIPdSt6vectorIdSaIdEEEEdNS0_5__ops14_Val_less_iterEET_S9_S9_RKT0_T1_ = comdat any

$_ZN9__gnu_cxx5__ops15__val_less_iterEv = comdat any

$_ZSt8distanceIN9__gnu_cxx17__normal_iteratorIPdSt6vectorIdSaIdEEEEENSt15iterator_traitsIT_E15difference_typeES8_S8_ = comdat any

$_ZSt7advanceIN9__gnu_cxx17__normal_iteratorIPdSt6vectorIdSaIdEEEElEvRT_T0_ = comdat any

$_ZNK9__gnu_cxx5__ops14_Val_less_iterclIKdNS_17__normal_iteratorIPdSt6vectorIdSaIdEEEEEEbRT_T0_ = comdat any

$_ZSt10__distanceIN9__gnu_cxx17__normal_iteratorIPdSt6vectorIdSaIdEEEEENSt15iterator_traitsIT_E15difference_typeES8_S8_St26random_access_iterator_tag = comdat any

$_ZSt19__iterator_categoryIN9__gnu_cxx17__normal_iteratorIPdSt6vectorIdSaIdEEEEENSt15iterator_traitsIT_E17iterator_categoryERKS8_ = comdat any

$_ZSt9__advanceIN9__gnu_cxx17__normal_iteratorIPdSt6vectorIdSaIdEEEElEvRT_T0_St26random_access_iterator_tag = comdat any

$_ZN9__gnu_cxx17__normal_iteratorIPdSt6vectorIdSaIdEEEmmEv = comdat any

$_ZN9__gnu_cxx17__normal_iteratorIPdSt6vectorIdSaIdEEEpLEl = comdat any

$_ZSt3minIiERKT_S2_S2_ = comdat any

$_ZSt3maxIdERKT_S2_S2_ = comdat any

$_ZN2xt17xtensor_containerINS_7uvectorIdSaIdEEELm1ELNS_11layout_typeE1ENS_22xtensor_expression_tagEEaSERKS6_ = comdat any

$_ZN2xt19xcontainer_semanticINS_17xtensor_containerINS_7uvectorIdSaIdEEELm1ELNS_11layout_typeE1ENS_22xtensor_expression_tagEEEEaSERKS8_ = comdat any

$_ZN2xt7uvectorIdSaIdEEaSERKS2_ = comdat any

$_ZN2xt14xsemantic_baseINS_17xtensor_containerINS_7uvectorIdSaIdEEELm1ELNS_11layout_typeE1ENS_22xtensor_expression_tagEEEEaSERKS8_ = comdat any

$_ZN2xt20xsharable_expressionINS_17xtensor_containerINS_7uvectorIdSaIdEEELm1ELNS_11layout_typeE1ENS_22xtensor_expression_tagEEEEaSERKS8_ = comdat any

$_ZNSt10shared_ptrIN2xt17xtensor_containerINS0_7uvectorIdSaIdEEELm1ELNS0_11layout_typeE1ENS0_22xtensor_expression_tagEEEEaSERKS8_ = comdat any

$_ZNSt12__shared_ptrIN2xt17xtensor_containerINS0_7uvectorIdSaIdEEELm1ELNS0_11layout_typeE1ENS0_22xtensor_expression_tagEEELN9__gnu_cxx12_Lock_policyE2EEaSERKSA_ = comdat any

$_ZNK2xt7uvectorIdSaIdEE13get_allocatorEv = comdat any

$_ZN6openmc9ScattDataD2Ev = comdat any

$_ZN6openmc9ScattDataD0Ev = comdat any

$_ZTIN6openmc9ScattDataE = comdat any

$_ZTSN6openmc9ScattDataE = comdat any

$_ZZNSt8__detail18__to_chars_10_implImEEvPcjT_E8__digits = comdat any

$_ZZNK2xt7xscalarIRKdE5shapeEvE10zero_shape = comdat any

$_ZTIN2xt15broadcast_errorE = comdat any

$_ZTSN2xt15broadcast_errorE = comdat any

$_ZTVN2xt15broadcast_errorE = comdat any

$_ZZNK2xt7xscalarIdE5shapeEvE10zero_shape = comdat any

$_ZTVN6openmc9ScattDataE = comdat any

@dagmc = external global i8, align 1
@run_CE = external global i8, align 1
@max_lost_particles = external global i32, align 4
@gen_per_batch = external global i32, align 4
@n_particles = external global i64, align 8
@_ZTVN6openmc17ScattDataLegendreE = unnamed_addr constant { [10 x ptr] } { [10 x ptr] [ptr null, ptr @_ZTIN6openmc17ScattDataLegendreE, ptr @_ZN6openmc17ScattDataLegendreD2Ev, ptr @_ZN6openmc17ScattDataLegendreD0Ev, ptr @_ZN6openmc17ScattDataLegendre6calc_fEiid, ptr @_ZN6openmc17ScattDataLegendre6sampleEiRiRdS2_Pm, ptr @_ZN6openmc17ScattDataLegendre4initERKN2xt17xtensor_containerINS1_7uvectorIiSaIiEEELm1ELNS1_11layout_typeE1ENS1_22xtensor_expression_tagEEESA_RKSt6vectorISB_IdSaIdEESaISD_EERKSB_ISF_SaISF_EE, ptr @_ZN6openmc17ScattDataLegendre7combineERKSt6vectorIPNS_9ScattDataESaIS3_EERKS1_IdSaIdEE, ptr @_ZN6openmc17ScattDataLegendre9get_orderEv, ptr @_ZN6openmc17ScattDataLegendre10get_matrixEm] }, align 8
@_ZTIN6openmc17ScattDataLegendreE = constant { ptr, ptr, ptr } { ptr getelementptr inbounds (ptr, ptr @_ZTVN10__cxxabiv120__si_class_type_infoE, i64 2), ptr @_ZTSN6openmc17ScattDataLegendreE, ptr @_ZTIN6openmc9ScattDataE }, align 8
@_ZTVN10__cxxabiv120__si_class_type_infoE = external global [0 x ptr]
@_ZTSN6openmc17ScattDataLegendreE = constant [29 x i8] c"N6openmc17ScattDataLegendreE\00", align 1
@_ZTIN6openmc9ScattDataE = linkonce_odr constant { ptr, ptr } { ptr getelementptr inbounds (ptr, ptr @_ZTVN10__cxxabiv117__class_type_infoE, i64 2), ptr @_ZTSN6openmc9ScattDataE }, comdat, align 8
@_ZTVN10__cxxabiv117__class_type_infoE = external global [0 x ptr]
@_ZTSN6openmc9ScattDataE = linkonce_odr constant [20 x i8] c"N6openmc9ScattDataE\00", comdat, align 1
@_ZTVN6openmc18ScattDataHistogramE = unnamed_addr constant { [10 x ptr] } { [10 x ptr] [ptr null, ptr @_ZTIN6openmc18ScattDataHistogramE, ptr @_ZN6openmc18ScattDataHistogramD2Ev, ptr @_ZN6openmc18ScattDataHistogramD0Ev, ptr @_ZN6openmc18ScattDataHistogram6calc_fEiid, ptr @_ZN6openmc18ScattDataHistogram6sampleEiRiRdS2_Pm, ptr @_ZN6openmc18ScattDataHistogram4initERKN2xt17xtensor_containerINS1_7uvectorIiSaIiEEELm1ELNS1_11layout_typeE1ENS1_22xtensor_expression_tagEEESA_RKSt6vectorISB_IdSaIdEESaISD_EERKSB_ISF_SaISF_EE, ptr @_ZN6openmc18ScattDataHistogram7combineERKSt6vectorIPNS_9ScattDataESaIS3_EERKS1_IdSaIdEE, ptr @_ZN6openmc18ScattDataHistogram9get_orderEv, ptr @_ZN6openmc18ScattDataHistogram10get_matrixEm] }, align 8
@_ZTIN6openmc18ScattDataHistogramE = constant { ptr, ptr, ptr } { ptr getelementptr inbounds (ptr, ptr @_ZTVN10__cxxabiv120__si_class_type_infoE, i64 2), ptr @_ZTSN6openmc18ScattDataHistogramE, ptr @_ZTIN6openmc9ScattDataE }, align 8
@_ZTSN6openmc18ScattDataHistogramE = constant [30 x i8] c"N6openmc18ScattDataHistogramE\00", align 1
@_ZTVN6openmc16ScattDataTabularE = unnamed_addr constant { [10 x ptr] } { [10 x ptr] [ptr null, ptr @_ZTIN6openmc16ScattDataTabularE, ptr @_ZN6openmc16ScattDataTabularD2Ev, ptr @_ZN6openmc16ScattDataTabularD0Ev, ptr @_ZN6openmc16ScattDataTabular6calc_fEiid, ptr @_ZN6openmc16ScattDataTabular6sampleEiRiRdS2_Pm, ptr @_ZN6openmc16ScattDataTabular4initERKN2xt17xtensor_containerINS1_7uvectorIiSaIiEEELm1ELNS1_11layout_typeE1ENS1_22xtensor_expression_tagEEESA_RKSt6vectorISB_IdSaIdEESaISD_EERKSB_ISF_SaISF_EE, ptr @_ZN6openmc16ScattDataTabular7combineERKSt6vectorIPNS_9ScattDataESaIS3_EERKS1_IdSaIdEE, ptr @_ZN6openmc16ScattDataTabular9get_orderEv, ptr @_ZN6openmc16ScattDataTabular10get_matrixEm] }, align 8
@_ZTIN6openmc16ScattDataTabularE = constant { ptr, ptr, ptr } { ptr getelementptr inbounds (ptr, ptr @_ZTVN10__cxxabiv120__si_class_type_infoE, i64 2), ptr @_ZTSN6openmc16ScattDataTabularE, ptr @_ZTIN6openmc9ScattDataE }, align 8
@_ZTSN6openmc16ScattDataTabularE = constant [28 x i8] c"N6openmc16ScattDataTabularE\00", align 1
@_ZStL8__ioinit = internal global %"class.std::ios_base::Init" zeroinitializer, align 1
@__dso_handle = external hidden global i8
@_ZN6openmcL12DEPLETION_RXE = internal constant %"struct.std::array.1" { [6 x i32] [i32 102, i32 103, i32 107, i32 16, i32 17, i32 37] }, align 4
@.str = private unnamed_addr constant [60 x i8] c"entries in the Multiplicity Matrix were changed from 0 to 1\00", align 1
@_ZZL18__gthread_active_pvE20__gthread_active_ptr = internal constant ptr @__pthread_key_create, align 8
@.str.1 = private unnamed_addr constant [26 x i8] c"vector::_M_default_append\00", align 1
@.str.2 = private unnamed_addr constant [21 x i8] c"basic_string::append\00", align 1
@_ZZNSt8__detail18__to_chars_10_implImEEvPcjT_E8__digits = linkonce_odr constant [201 x i8] c"00010203040506070809101112131415161718192021222324252627282930313233343536373839404142434445464748495051525354555657585960616263646566676869707172737475767778798081828384858687888990919293949596979899\00", comdat, align 16
@_ZZNSt8__detail18__to_chars_10_implImEEvPcjT_E8__digits.const = private unnamed_addr constant [201 x i8] c"00010203040506070809101112131415161718192021222324252627282930313233343536373839404142434445464748495051525354555657585960616263646566676869707172737475767778798081828384858687888990919293949596979899\00", align 16
@.str.3 = private unnamed_addr constant [74 x i8] c"Cannot change layout_type if template parameter not layout_type::dynamic.\00", align 1
@_ZTISt13runtime_error = external constant ptr
@_ZZNK2xt7xscalarIRKdE5shapeEvE10zero_shape = linkonce_odr global %"struct.std::array.148" zeroinitializer, comdat, align 1
@_ZTIN2xt15broadcast_errorE = linkonce_odr constant { ptr, ptr, ptr } { ptr getelementptr inbounds (ptr, ptr @_ZTVN10__cxxabiv120__si_class_type_infoE, i64 2), ptr @_ZTSN2xt15broadcast_errorE, ptr @_ZTISt13runtime_error }, comdat, align 8
@_ZTSN2xt15broadcast_errorE = linkonce_odr constant [23 x i8] c"N2xt15broadcast_errorE\00", comdat, align 1
@.str.4 = private unnamed_addr constant [34 x i8] c"Incompatible dimension of arrays:\00", align 1
@.str.5 = private unnamed_addr constant [16 x i8] c"\0A LHS shape = (\00", align 1
@.str.6 = private unnamed_addr constant [3 x i8] c", \00", align 1
@.str.7 = private unnamed_addr constant [17 x i8] c")\0A RHS shape = (\00", align 1
@.str.8 = private unnamed_addr constant [2 x i8] c")\00", align 1
@.str.9 = private unnamed_addr constant [50 x i8] c"basic_string: construction from null is not valid\00", align 1
@_ZTVNSt7__cxx1119basic_ostringstreamIcSt11char_traitsIcESaIcEEE = external unnamed_addr constant { [5 x ptr], [5 x ptr] }, align 8
@_ZTTNSt7__cxx1119basic_ostringstreamIcSt11char_traitsIcESaIcEEE = external unnamed_addr constant [4 x ptr], align 8
@_ZTVSt9basic_iosIcSt11char_traitsIcEE = external unnamed_addr constant { [4 x ptr] }, align 8
@_ZTVNSt7__cxx1115basic_stringbufIcSt11char_traitsIcESaIcEEE = external unnamed_addr constant { [16 x ptr] }, align 8
@_ZTVSt15basic_streambufIcSt11char_traitsIcEE = external unnamed_addr constant { [16 x ptr] }, align 8
@.str.10 = private unnamed_addr constant [22 x i8] c"basic_string::replace\00", align 1
@.str.11 = private unnamed_addr constant [55 x i8] c"%s: __pos (which is %zu) > this->size() (which is %zu)\00", align 1
@_ZTVN2xt15broadcast_errorE = linkonce_odr unnamed_addr constant { [5 x ptr] } { [5 x ptr] [ptr null, ptr @_ZTIN2xt15broadcast_errorE, ptr @_ZNSt13runtime_errorD2Ev, ptr @_ZN2xt15broadcast_errorD0Ev, ptr @_ZNKSt13runtime_error4whatEv] }, comdat, align 8
@.str.12 = private unnamed_addr constant [23 x i8] c"Invalid call to get_xs\00", align 1
@_ZZNK2xt7xscalarIdE5shapeEvE10zero_shape = linkonce_odr global %"struct.std::array.148" zeroinitializer, comdat, align 1
@.str.13 = private unnamed_addr constant [54 x i8] c"Maximum number of Legendre expansion samples reached!\00", align 1
@.str.14 = private unnamed_addr constant [38 x i8] c"Cannot combine the ScattData objects!\00", align 1
@.str.15 = private unnamed_addr constant [49 x i8] c"cannot create std::vector larger than max_size()\00", align 1
@_ZN6openmc8settings26legendre_to_tabular_pointsE = external global i32, align 4
@_ZTVN6openmc9ScattDataE = linkonce_odr unnamed_addr constant { [10 x ptr] } { [10 x ptr] [ptr null, ptr @_ZTIN6openmc9ScattDataE, ptr @_ZN6openmc9ScattDataD2Ev, ptr @_ZN6openmc9ScattDataD0Ev, ptr @__cxa_pure_virtual, ptr @__cxa_pure_virtual, ptr @__cxa_pure_virtual, ptr @__cxa_pure_virtual, ptr @__cxa_pure_virtual, ptr @__cxa_pure_virtual] }, comdat, align 8
@llvm.global_ctors = appending global [1 x { i32, ptr, ptr }] [{ i32, ptr, ptr } { i32 65535, ptr @_GLOBAL__sub_I_scattdata.cpp, ptr null }]

; Function Attrs: inlinehint mustprogress nounwind uwtable
define linkonce_odr void @_ZN6openmc17ScattDataLegendreD2Ev(ptr noundef nonnull align 8 dereferenceable(320) %this) unnamed_addr #0 comdat align 2 {
entry:
  %this.addr = alloca ptr, align 8
  store ptr %this, ptr %this.addr, align 8, !tbaa !11
  %this1 = load ptr, ptr %this.addr, align 8
  store ptr getelementptr inbounds inrange(-16, 64) ({ [10 x ptr] }, ptr @_ZTVN6openmc17ScattDataLegendreE, i32 0, i32 0, i32 2), ptr %this1, align 8, !tbaa !16
  %max_val = getelementptr inbounds nuw %"class.openmc::ScattDataLegendre", ptr %this1, i32 0, i32 1
  call void @_ZNSt6vectorIS_IdSaIdEESaIS1_EED2Ev(ptr noundef nonnull align 8 dereferenceable(24) %max_val) #6
  call void @_ZN6openmc9ScattDataD2Ev(ptr noundef nonnull align 8 dereferenceable(296) %this1) #6
  ret void
}

; Function Attrs: inlinehint mustprogress nounwind uwtable
define linkonce_odr void @_ZN6openmc17ScattDataLegendreD0Ev(ptr noundef nonnull align 8 dereferenceable(320) %this) unnamed_addr #0 comdat align 2 {
entry:
  %this.addr = alloca ptr, align 8
  store ptr %this, ptr %this.addr, align 8, !tbaa !11
  %this1 = load ptr, ptr %this.addr, align 8
  call void @_ZN6openmc17ScattDataLegendreD2Ev(ptr noundef nonnull align 8 dereferenceable(320) %this1) #6
  call void @_ZdlPvm(ptr noundef %this1, i64 noundef 320) #27
  ret void
}

; Function Attrs: mustprogress uwtable
define noundef double @_ZN6openmc17ScattDataLegendre6calc_fEiid(ptr noundef nonnull align 8 dereferenceable(320) %this, i32 noundef %gin, i32 noundef %gout, double noundef %mu) unnamed_addr #1 align 2 {
entry:
  %this.addr = alloca ptr, align 8
  %gin.addr = alloca i32, align 4
  %gout.addr = alloca i32, align 4
  %mu.addr = alloca double, align 8
  %f = alloca double, align 8
  %i_gout = alloca i32, align 4
  store ptr %this, ptr %this.addr, align 8, !tbaa !11
  store i32 %gin, ptr %gin.addr, align 4, !tbaa !18
  store i32 %gout, ptr %gout.addr, align 4, !tbaa !18
  store double %mu, ptr %mu.addr, align 8, !tbaa !20
  %this1 = load ptr, ptr %this.addr, align 8
  call void @llvm.lifetime.start.p0(i64 8, ptr %f) #6
  %0 = load i32, ptr %gout.addr, align 4, !tbaa !18
  %gmin = getelementptr inbounds nuw %"class.openmc::ScattData", ptr %this1, i32 0, i32 4
  %1 = load i32, ptr %gin.addr, align 4, !tbaa !18
  %conv = sext i32 %1 to i64
  %call = call noundef nonnull align 4 dereferenceable(4) ptr @_ZN2xt11xaccessibleINS_17xtensor_containerINS_7uvectorIiSaIiEEELm1ELNS_11layout_typeE1ENS_22xtensor_expression_tagEEEEixEm(ptr noundef nonnull align 1 dereferenceable(1) %gmin, i64 noundef %conv)
  %2 = load i32, ptr %call, align 4, !tbaa !18
  %cmp = icmp slt i32 %0, %2
  br i1 %cmp, label %if.then, label %lor.lhs.false

lor.lhs.false:                                    ; preds = %entry
  %3 = load i32, ptr %gout.addr, align 4, !tbaa !18
  %gmax = getelementptr inbounds nuw %"class.openmc::ScattData", ptr %this1, i32 0, i32 5
  %4 = load i32, ptr %gin.addr, align 4, !tbaa !18
  %conv2 = sext i32 %4 to i64
  %call3 = call noundef nonnull align 4 dereferenceable(4) ptr @_ZN2xt11xaccessibleINS_17xtensor_containerINS_7uvectorIiSaIiEEELm1ELNS_11layout_typeE1ENS_22xtensor_expression_tagEEEEixEm(ptr noundef nonnull align 1 dereferenceable(1) %gmax, i64 noundef %conv2)
  %5 = load i32, ptr %call3, align 4, !tbaa !18
  %cmp4 = icmp sgt i32 %3, %5
  br i1 %cmp4, label %if.then, label %if.else

if.then:                                          ; preds = %lor.lhs.false, %entry
  store double 0.000000e+00, ptr %f, align 8, !tbaa !20
  br label %if.end

if.else:                                          ; preds = %lor.lhs.false
  call void @llvm.lifetime.start.p0(i64 4, ptr %i_gout) #6
  %6 = load i32, ptr %gout.addr, align 4, !tbaa !18
  %gmin5 = getelementptr inbounds nuw %"class.openmc::ScattData", ptr %this1, i32 0, i32 4
  %7 = load i32, ptr %gin.addr, align 4, !tbaa !18
  %conv6 = sext i32 %7 to i64
  %call7 = call noundef nonnull align 4 dereferenceable(4) ptr @_ZN2xt11xaccessibleINS_17xtensor_containerINS_7uvectorIiSaIiEEELm1ELNS_11layout_typeE1ENS_22xtensor_expression_tagEEEEixEm(ptr noundef nonnull align 1 dereferenceable(1) %gmin5, i64 noundef %conv6)
  %8 = load i32, ptr %call7, align 4, !tbaa !18
  %sub = sub nsw i32 %6, %8
  store i32 %sub, ptr %i_gout, align 4, !tbaa !18
  %dist = getelementptr inbounds nuw %"class.openmc::ScattData", ptr %this1, i32 0, i32 3
  %9 = load i32, ptr %gin.addr, align 4, !tbaa !18
  %conv8 = sext i32 %9 to i64
  %call9 = call noundef nonnull align 8 dereferenceable(24) ptr @_ZNSt6vectorIS_IS_IdSaIdEESaIS1_EESaIS3_EEixEm(ptr noundef nonnull align 8 dereferenceable(24) %dist, i64 noundef %conv8) #6
  %10 = load i32, ptr %i_gout, align 4, !tbaa !18
  %conv10 = sext i32 %10 to i64
  %call11 = call noundef nonnull align 8 dereferenceable(24) ptr @_ZNSt6vectorIS_IdSaIdEESaIS1_EEixEm(ptr noundef nonnull align 8 dereferenceable(24) %call9, i64 noundef %conv10) #6
  %call12 = call noundef i64 @_ZNKSt6vectorIdSaIdEE4sizeEv(ptr noundef nonnull align 8 dereferenceable(24) %call11) #6
  %sub13 = sub i64 %call12, 1
  %conv14 = trunc i64 %sub13 to i32
  %dist15 = getelementptr inbounds nuw %"class.openmc::ScattData", ptr %this1, i32 0, i32 3
  %11 = load i32, ptr %gin.addr, align 4, !tbaa !18
  %conv16 = sext i32 %11 to i64
  %call17 = call noundef nonnull align 8 dereferenceable(24) ptr @_ZNSt6vectorIS_IS_IdSaIdEESaIS1_EESaIS3_EEixEm(ptr noundef nonnull align 8 dereferenceable(24) %dist15, i64 noundef %conv16) #6
  %12 = load i32, ptr %i_gout, align 4, !tbaa !18
  %conv18 = sext i32 %12 to i64
  %call19 = call noundef nonnull align 8 dereferenceable(24) ptr @_ZNSt6vectorIS_IdSaIdEESaIS1_EEixEm(ptr noundef nonnull align 8 dereferenceable(24) %call17, i64 noundef %conv18) #6
  %call20 = call noundef ptr @_ZNSt6vectorIdSaIdEE4dataEv(ptr noundef nonnull align 8 dereferenceable(24) %call19) #6
  %13 = load double, ptr %mu.addr, align 8, !tbaa !20
  %call21 = call double @evaluate_legendre(i32 noundef %conv14, ptr noundef %call20, double noundef %13)
  store double %call21, ptr %f, align 8, !tbaa !20
  call void @llvm.lifetime.end.p0(i64 4, ptr %i_gout) #6
  br label %if.end

if.end:                                           ; preds = %if.else, %if.then
  %14 = load double, ptr %f, align 8, !tbaa !20
  call void @llvm.lifetime.end.p0(i64 8, ptr %f) #6
  ret double %14
}

; Function Attrs: mustprogress uwtable
define void @_ZN6openmc17ScattDataLegendre6sampleEiRiRdS2_Pm(ptr noundef nonnull align 8 dereferenceable(320) %this, i32 noundef %gin, ptr noundef nonnull align 4 dereferenceable(4) %gout, ptr noundef nonnull align 8 dereferenceable(8) %mu, ptr noundef nonnull align 8 dereferenceable(8) %wgt, ptr noundef %seed) unnamed_addr #1 align 2 {
entry:
  %this.addr = alloca ptr, align 8
  %gin.addr = alloca i32, align 4
  %gout.addr = alloca ptr, align 8
  %mu.addr = alloca ptr, align 8
  %wgt.addr = alloca ptr, align 8
  %seed.addr = alloca ptr, align 8
  %i_gout = alloca i32, align 4
  %M = alloca double, align 8
  %samples = alloca i32, align 4
  %f = alloca double, align 8
  %u = alloca double, align 8
  %cleanup.dest.slot = alloca i32, align 4
  store ptr %this, ptr %this.addr, align 8, !tbaa !11
  store i32 %gin, ptr %gin.addr, align 4, !tbaa !18
  store ptr %gout, ptr %gout.addr, align 8, !tbaa !22
  store ptr %mu, ptr %mu.addr, align 8, !tbaa !24
  store ptr %wgt, ptr %wgt.addr, align 8, !tbaa !24
  store ptr %seed, ptr %seed.addr, align 8, !tbaa !26
  %this1 = load ptr, ptr %this.addr, align 8
  call void @llvm.lifetime.start.p0(i64 4, ptr %i_gout) #6
  %0 = load i32, ptr %gin.addr, align 4, !tbaa !18
  %1 = load ptr, ptr %gout.addr, align 8, !tbaa !22
  %2 = load ptr, ptr %seed.addr, align 8, !tbaa !26
  call void @_ZN6openmc9ScattData13sample_energyEiRiS1_Pm(ptr noundef nonnull align 8 dereferenceable(296) %this1, i32 noundef %0, ptr noundef nonnull align 4 dereferenceable(4) %1, ptr noundef nonnull align 4 dereferenceable(4) %i_gout, ptr noundef %2)
  call void @llvm.lifetime.start.p0(i64 8, ptr %M) #6
  %max_val = getelementptr inbounds nuw %"class.openmc::ScattDataLegendre", ptr %this1, i32 0, i32 1
  %3 = load i32, ptr %gin.addr, align 4, !tbaa !18
  %conv = sext i32 %3 to i64
  %call = call noundef nonnull align 8 dereferenceable(24) ptr @_ZNSt6vectorIS_IdSaIdEESaIS1_EEixEm(ptr noundef nonnull align 8 dereferenceable(24) %max_val, i64 noundef %conv) #6
  %4 = load i32, ptr %i_gout, align 4, !tbaa !18
  %conv2 = sext i32 %4 to i64
  %call3 = call noundef nonnull align 8 dereferenceable(8) ptr @_ZNSt6vectorIdSaIdEEixEm(ptr noundef nonnull align 8 dereferenceable(24) %call, i64 noundef %conv2) #6
  %5 = load double, ptr %call3, align 8, !tbaa !20
  store double %5, ptr %M, align 8, !tbaa !20
  call void @llvm.lifetime.start.p0(i64 4, ptr %samples) #6
  store i32 0, ptr %samples, align 4, !tbaa !18
  br label %for.cond

for.cond:                                         ; preds = %for.inc, %entry
  %6 = load i32, ptr %samples, align 4, !tbaa !18
  %cmp = icmp slt i32 %6, 100000
  br i1 %cmp, label %for.body, label %for.end

for.body:                                         ; preds = %for.cond
  %7 = load ptr, ptr %seed.addr, align 8, !tbaa !26
  %call4 = call noundef double @_ZN6openmc3prnEPm(ptr noundef %7)
  %8 = call double @llvm.fmuladd.f64(double 2.000000e+00, double %call4, double -1.000000e+00)
  %9 = load ptr, ptr %mu.addr, align 8, !tbaa !24
  store double %8, ptr %9, align 8, !tbaa !20
  call void @llvm.lifetime.start.p0(i64 8, ptr %f) #6
  %10 = load i32, ptr %gin.addr, align 4, !tbaa !18
  %11 = load ptr, ptr %gout.addr, align 8, !tbaa !22
  %12 = load i32, ptr %11, align 4, !tbaa !18
  %13 = load ptr, ptr %mu.addr, align 8, !tbaa !24
  %14 = load double, ptr %13, align 8, !tbaa !20
  %vtable = load ptr, ptr %this1, align 8, !tbaa !16
  %vfn = getelementptr inbounds ptr, ptr %vtable, i64 2
  %15 = load ptr, ptr %vfn, align 8
  %call5 = call noundef double %15(ptr noundef nonnull align 8 dereferenceable(320) %this1, i32 noundef %10, i32 noundef %12, double noundef %14)
  store double %call5, ptr %f, align 8, !tbaa !20
  %16 = load double, ptr %f, align 8, !tbaa !20
  %cmp6 = fcmp ogt double %16, 0.000000e+00
  br i1 %cmp6, label %if.then, label %if.end10

if.then:                                          ; preds = %for.body
  call void @llvm.lifetime.start.p0(i64 8, ptr %u) #6
  %17 = load ptr, ptr %seed.addr, align 8, !tbaa !26
  %call7 = call noundef double @_ZN6openmc3prnEPm(ptr noundef %17)
  %18 = load double, ptr %M, align 8, !tbaa !20
  %mul = fmul double %call7, %18
  store double %mul, ptr %u, align 8, !tbaa !20
  %19 = load double, ptr %u, align 8, !tbaa !20
  %20 = load double, ptr %f, align 8, !tbaa !20
  %cmp8 = fcmp ole double %19, %20
  br i1 %cmp8, label %if.then9, label %if.end

if.then9:                                         ; preds = %if.then
  store i32 2, ptr %cleanup.dest.slot, align 4
  br label %cleanup

if.end:                                           ; preds = %if.then
  store i32 0, ptr %cleanup.dest.slot, align 4
  br label %cleanup

cleanup:                                          ; preds = %if.end, %if.then9
  call void @llvm.lifetime.end.p0(i64 8, ptr %u) #6
  %cleanup.dest = load i32, ptr %cleanup.dest.slot, align 4
  switch i32 %cleanup.dest, label %cleanup11 [
    i32 0, label %cleanup.cont
  ]

cleanup.cont:                                     ; preds = %cleanup
  br label %if.end10

if.end10:                                         ; preds = %cleanup.cont, %for.body
  store i32 0, ptr %cleanup.dest.slot, align 4
  br label %cleanup11

cleanup11:                                        ; preds = %if.end10, %cleanup
  call void @llvm.lifetime.end.p0(i64 8, ptr %f) #6
  %cleanup.dest12 = load i32, ptr %cleanup.dest.slot, align 4
  switch i32 %cleanup.dest12, label %unreachable [
    i32 0, label %cleanup.cont13
    i32 2, label %for.end
  ]

cleanup.cont13:                                   ; preds = %cleanup11
  br label %for.inc

for.inc:                                          ; preds = %cleanup.cont13
  %21 = load i32, ptr %samples, align 4, !tbaa !18
  %inc = add nsw i32 %21, 1
  store i32 %inc, ptr %samples, align 4, !tbaa !18
  br label %for.cond, !llvm.loop !28

for.end:                                          ; preds = %cleanup11, %for.cond
  %22 = load i32, ptr %samples, align 4, !tbaa !18
  %cmp14 = icmp eq i32 %22, 100000
  br i1 %cmp14, label %if.then15, label %if.end16

if.then15:                                        ; preds = %for.end
  call void @_ZN6openmc11fatal_errorEPKc(ptr noundef @.str.13) #28
  unreachable

if.end16:                                         ; preds = %for.end
  %mult = getelementptr inbounds nuw %"class.openmc::ScattData", ptr %this1, i32 0, i32 2
  %23 = load i32, ptr %gin.addr, align 4, !tbaa !18
  %conv17 = sext i32 %23 to i64
  %call18 = call noundef nonnull align 8 dereferenceable(24) ptr @_ZNSt6vectorIS_IdSaIdEESaIS1_EEixEm(ptr noundef nonnull align 8 dereferenceable(24) %mult, i64 noundef %conv17) #6
  %24 = load i32, ptr %i_gout, align 4, !tbaa !18
  %conv19 = sext i32 %24 to i64
  %call20 = call noundef nonnull align 8 dereferenceable(8) ptr @_ZNSt6vectorIdSaIdEEixEm(ptr noundef nonnull align 8 dereferenceable(24) %call18, i64 noundef %conv19) #6
  %25 = load double, ptr %call20, align 8, !tbaa !20
  %26 = load ptr, ptr %wgt.addr, align 8, !tbaa !24
  %27 = load double, ptr %26, align 8, !tbaa !20
  %mul21 = fmul double %27, %25
  store double %mul21, ptr %26, align 8, !tbaa !20
  call void @llvm.lifetime.end.p0(i64 4, ptr %samples) #6
  call void @llvm.lifetime.end.p0(i64 8, ptr %M) #6
  call void @llvm.lifetime.end.p0(i64 4, ptr %i_gout) #6
  ret void

unreachable:                                      ; preds = %cleanup11
  unreachable
}

; Function Attrs: mustprogress uwtable
define void @_ZN6openmc17ScattDataLegendre4initERKN2xt17xtensor_containerINS1_7uvectorIiSaIiEEELm1ELNS1_11layout_typeE1ENS1_22xtensor_expression_tagEEESA_RKSt6vectorISB_IdSaIdEESaISD_EERKSB_ISF_SaISF_EE(ptr noundef nonnull align 8 dereferenceable(320) %this, ptr noundef nonnull align 8 dereferenceable(72) %in_gmin, ptr noundef nonnull align 8 dereferenceable(72) %in_gmax, ptr noundef nonnull align 8 dereferenceable(24) %in_mult, ptr noundef nonnull align 8 dereferenceable(24) %coeffs) unnamed_addr #1 align 2 personality ptr @__gxx_personality_v0 {
entry:
  %this.addr = alloca ptr, align 8
  %in_gmin.addr = alloca ptr, align 8
  %in_gmax.addr = alloca ptr, align 8
  %in_mult.addr = alloca ptr, align 8
  %coeffs.addr = alloca ptr, align 8
  %groups = alloca i64, align 8
  %order = alloca i64, align 8
  %matrix = alloca %"class.std::vector.21", align 8
  %ref.tmp = alloca %"class.xt::xbroadcast", align 8
  %ref.tmp5 = alloca [1 x i64], align 8
  %exn.slot = alloca ptr, align 8
  %ehselector.slot = alloca i32, align 4
  %gin = alloca i32, align 4
  %cleanup.dest.slot = alloca i32, align 4
  %num_groups = alloca i32, align 4
  %i_gout = alloca i32, align 4
  %in_energy = alloca %"class.std::vector", align 8
  %gin35 = alloca i32, align 4
  %num_groups41 = alloca i32, align 4
  %i_gout55 = alloca i32, align 4
  %norm = alloca double, align 8
  %__range4 = alloca ptr, align 8
  %__begin4 = alloca %"class.__gnu_cxx::__normal_iterator", align 8
  %__end4 = alloca %"class.__gnu_cxx::__normal_iterator", align 8
  %n = alloca ptr, align 8
  %gin96 = alloca i32, align 4
  %num_groups102 = alloca i32, align 4
  %i_gout112 = alloca i32, align 4
  %__range2 = alloca ptr, align 8
  %__begin2 = alloca %"class.__gnu_cxx::__normal_iterator", align 8
  %__end2 = alloca %"class.__gnu_cxx::__normal_iterator", align 8
  %n148 = alloca ptr, align 8
  store ptr %this, ptr %this.addr, align 8, !tbaa !11
  store ptr %in_gmin, ptr %in_gmin.addr, align 8, !tbaa !30
  store ptr %in_gmax, ptr %in_gmax.addr, align 8, !tbaa !30
  store ptr %in_mult, ptr %in_mult.addr, align 8, !tbaa !32
  store ptr %coeffs, ptr %coeffs.addr, align 8, !tbaa !34
  %this1 = load ptr, ptr %this.addr, align 8
  call void @llvm.lifetime.start.p0(i64 8, ptr %groups) #6
  %0 = load ptr, ptr %coeffs.addr, align 8, !tbaa !34
  %call = call noundef i64 @_ZNKSt6vectorIS_IS_IdSaIdEESaIS1_EESaIS3_EE4sizeEv(ptr noundef nonnull align 8 dereferenceable(24) %0) #6
  store i64 %call, ptr %groups, align 8, !tbaa !36
  call void @llvm.lifetime.start.p0(i64 8, ptr %order) #6
  %1 = load ptr, ptr %coeffs.addr, align 8, !tbaa !34
  %call2 = call noundef nonnull align 8 dereferenceable(24) ptr @_ZNKSt6vectorIS_IS_IdSaIdEESaIS1_EESaIS3_EEixEm(ptr noundef nonnull align 8 dereferenceable(24) %1, i64 noundef 0) #6
  %call3 = call noundef nonnull align 8 dereferenceable(24) ptr @_ZNKSt6vectorIS_IdSaIdEESaIS1_EEixEm(ptr noundef nonnull align 8 dereferenceable(24) %call2, i64 noundef 0) #6
  %call4 = call noundef i64 @_ZNKSt6vectorIdSaIdEE4sizeEv(ptr noundef nonnull align 8 dereferenceable(24) %call3) #6
  store i64 %call4, ptr %order, align 8, !tbaa !36
  call void @llvm.lifetime.start.p0(i64 24, ptr %matrix) #6
  %2 = load ptr, ptr %coeffs.addr, align 8, !tbaa !34
  call void @_ZNSt6vectorIS_IS_IdSaIdEESaIS1_EESaIS3_EEC2ERKS5_(ptr noundef nonnull align 8 dereferenceable(24) %matrix, ptr noundef nonnull align 8 dereferenceable(24) %2)
  call void @llvm.lifetime.start.p0(i64 48, ptr %ref.tmp) #6
  call void @llvm.lifetime.start.p0(i64 8, ptr %ref.tmp5) #6
  %3 = load i64, ptr %groups, align 8, !tbaa !36
  store i64 %3, ptr %ref.tmp5, align 8, !tbaa !36
  call void @_ZN2xt5zerosIdmLm1EEEDaRAT1__KT0_(ptr dead_on_unwind writable sret(%"class.xt::xbroadcast") align 8 %ref.tmp, ptr noundef nonnull align 8 dereferenceable(8) %ref.tmp5) #6
  %scattxs = getelementptr inbounds nuw %"class.openmc::ScattData", ptr %this1, i32 0, i32 6
  %call6 = invoke noundef nonnull align 8 dereferenceable(72) ptr @_ZN2xt17xtensor_containerINS_7uvectorIdSaIdEEELm1ELNS_11layout_typeE1ENS_22xtensor_expression_tagEEaSINS_10xbroadcastINS_7xscalarIdEESt5arrayImLm1EEEEEERS6_RKNS_11xexpressionIT_EE(ptr noundef nonnull align 8 dereferenceable(72) %scattxs, ptr noundef nonnull align 1 dereferenceable(1) %ref.tmp)
          to label %invoke.cont unwind label %lpad

invoke.cont:                                      ; preds = %entry
  call void @_ZN2xt10xbroadcastINS_7xscalarIdEESt5arrayImLm1EEED2Ev(ptr noundef nonnull align 8 dereferenceable(48) %ref.tmp) #6
  call void @llvm.lifetime.end.p0(i64 8, ptr %ref.tmp5) #6
  call void @llvm.lifetime.end.p0(i64 48, ptr %ref.tmp) #6
  call void @llvm.lifetime.start.p0(i64 4, ptr %gin) #6
  store i32 0, ptr %gin, align 4, !tbaa !18
  br label %for.cond

for.cond:                                         ; preds = %for.inc29, %invoke.cont
  %4 = load i32, ptr %gin, align 4, !tbaa !18
  %conv = sext i32 %4 to i64
  %5 = load i64, ptr %groups, align 8, !tbaa !36
  %cmp = icmp ult i64 %conv, %5
  br i1 %cmp, label %for.body, label %for.cond.cleanup

for.cond.cleanup:                                 ; preds = %for.cond
  store i32 2, ptr %cleanup.dest.slot, align 4
  call void @llvm.lifetime.end.p0(i64 4, ptr %gin) #6
  br label %for.end32

lpad:                                             ; preds = %entry
  %6 = landingpad { ptr, i32 }
          cleanup
  %7 = extractvalue { ptr, i32 } %6, 0
  store ptr %7, ptr %exn.slot, align 8
  %8 = extractvalue { ptr, i32 } %6, 1
  store i32 %8, ptr %ehselector.slot, align 4
  call void @_ZN2xt10xbroadcastINS_7xscalarIdEESt5arrayImLm1EEED2Ev(ptr noundef nonnull align 8 dereferenceable(48) %ref.tmp) #6
  call void @llvm.lifetime.end.p0(i64 8, ptr %ref.tmp5) #6
  call void @llvm.lifetime.end.p0(i64 48, ptr %ref.tmp) #6
  br label %ehcleanup161

for.body:                                         ; preds = %for.cond
  call void @llvm.lifetime.start.p0(i64 4, ptr %num_groups) #6
  %9 = load ptr, ptr %in_gmax.addr, align 8, !tbaa !30
  %10 = load i32, ptr %gin, align 4, !tbaa !18
  %conv7 = sext i32 %10 to i64
  %call10 = invoke noundef nonnull align 4 dereferenceable(4) ptr @_ZNK2xt17xconst_accessibleINS_17xtensor_containerINS_7uvectorIiSaIiEEELm1ELNS_11layout_typeE1ENS_22xtensor_expression_tagEEEEixEm(ptr noundef nonnull align 1 dereferenceable(1) %9, i64 noundef %conv7)
          to label %invoke.cont9 unwind label %lpad8

invoke.cont9:                                     ; preds = %for.body
  %11 = load i32, ptr %call10, align 4, !tbaa !18
  %12 = load ptr, ptr %in_gmin.addr, align 8, !tbaa !30
  %13 = load i32, ptr %gin, align 4, !tbaa !18
  %conv11 = sext i32 %13 to i64
  %call13 = invoke noundef nonnull align 4 dereferenceable(4) ptr @_ZNK2xt17xconst_accessibleINS_17xtensor_containerINS_7uvectorIiSaIiEEELm1ELNS_11layout_typeE1ENS_22xtensor_expression_tagEEEEixEm(ptr noundef nonnull align 1 dereferenceable(1) %12, i64 noundef %conv11)
          to label %invoke.cont12 unwind label %lpad8

invoke.cont12:                                    ; preds = %invoke.cont9
  %14 = load i32, ptr %call13, align 4, !tbaa !18
  %sub = sub nsw i32 %11, %14
  %add = add nsw i32 %sub, 1
  store i32 %add, ptr %num_groups, align 4, !tbaa !18
  call void @llvm.lifetime.start.p0(i64 4, ptr %i_gout) #6
  store i32 0, ptr %i_gout, align 4, !tbaa !18
  br label %for.cond14

for.cond14:                                       ; preds = %for.inc, %invoke.cont12
  %15 = load i32, ptr %i_gout, align 4, !tbaa !18
  %16 = load i32, ptr %num_groups, align 4, !tbaa !18
  %cmp15 = icmp slt i32 %15, %16
  br i1 %cmp15, label %for.body17, label %for.cond.cleanup16

for.cond.cleanup16:                               ; preds = %for.cond14
  store i32 5, ptr %cleanup.dest.slot, align 4
  call void @llvm.lifetime.end.p0(i64 4, ptr %i_gout) #6
  br label %for.end

lpad8:                                            ; preds = %invoke.cont9, %for.body
  %17 = landingpad { ptr, i32 }
          cleanup
  %18 = extractvalue { ptr, i32 } %17, 0
  store ptr %18, ptr %exn.slot, align 8
  %19 = extractvalue { ptr, i32 } %17, 1
  store i32 %19, ptr %ehselector.slot, align 4
  br label %ehcleanup

for.body17:                                       ; preds = %for.cond14
  %20 = load i32, ptr %gin, align 4, !tbaa !18
  %conv18 = sext i32 %20 to i64
  %call19 = call noundef nonnull align 8 dereferenceable(24) ptr @_ZNSt6vectorIS_IS_IdSaIdEESaIS1_EESaIS3_EEixEm(ptr noundef nonnull align 8 dereferenceable(24) %matrix, i64 noundef %conv18) #6
  %21 = load i32, ptr %i_gout, align 4, !tbaa !18
  %conv20 = sext i32 %21 to i64
  %call21 = call noundef nonnull align 8 dereferenceable(24) ptr @_ZNSt6vectorIS_IdSaIdEESaIS1_EEixEm(ptr noundef nonnull align 8 dereferenceable(24) %call19, i64 noundef %conv20) #6
  %call22 = call noundef nonnull align 8 dereferenceable(8) ptr @_ZNSt6vectorIdSaIdEEixEm(ptr noundef nonnull align 8 dereferenceable(24) %call21, i64 noundef 0) #6
  %22 = load double, ptr %call22, align 8, !tbaa !20
  %scattxs23 = getelementptr inbounds nuw %"class.openmc::ScattData", ptr %this1, i32 0, i32 6
  %23 = load i32, ptr %gin, align 4, !tbaa !18
  %conv24 = sext i32 %23 to i64
  %call27 = invoke noundef nonnull align 8 dereferenceable(8) ptr @_ZN2xt11xaccessibleINS_17xtensor_containerINS_7uvectorIdSaIdEEELm1ELNS_11layout_typeE1ENS_22xtensor_expression_tagEEEEixEm(ptr noundef nonnull align 1 dereferenceable(1) %scattxs23, i64 noundef %conv24)
          to label %invoke.cont26 unwind label %lpad25

invoke.cont26:                                    ; preds = %for.body17
  %24 = load double, ptr %call27, align 8, !tbaa !20
  %add28 = fadd double %24, %22
  store double %add28, ptr %call27, align 8, !tbaa !20
  br label %for.inc

for.inc:                                          ; preds = %invoke.cont26
  %25 = load i32, ptr %i_gout, align 4, !tbaa !18
  %inc = add nsw i32 %25, 1
  store i32 %inc, ptr %i_gout, align 4, !tbaa !18
  br label %for.cond14, !llvm.loop !38

lpad25:                                           ; preds = %for.body17
  %26 = landingpad { ptr, i32 }
          cleanup
  %27 = extractvalue { ptr, i32 } %26, 0
  store ptr %27, ptr %exn.slot, align 8
  %28 = extractvalue { ptr, i32 } %26, 1
  store i32 %28, ptr %ehselector.slot, align 4
  call void @llvm.lifetime.end.p0(i64 4, ptr %i_gout) #6
  br label %ehcleanup

for.end:                                          ; preds = %for.cond.cleanup16
  call void @llvm.lifetime.end.p0(i64 4, ptr %num_groups) #6
  br label %for.inc29

for.inc29:                                        ; preds = %for.end
  %29 = load i32, ptr %gin, align 4, !tbaa !18
  %inc30 = add nsw i32 %29, 1
  store i32 %inc30, ptr %gin, align 4, !tbaa !18
  br label %for.cond, !llvm.loop !39

ehcleanup:                                        ; preds = %lpad25, %lpad8
  call void @llvm.lifetime.end.p0(i64 4, ptr %num_groups) #6
  call void @llvm.lifetime.end.p0(i64 4, ptr %gin) #6
  br label %ehcleanup161

for.end32:                                        ; preds = %for.cond.cleanup
  call void @llvm.lifetime.start.p0(i64 24, ptr %in_energy) #6
  call void @_ZNSt6vectorIS_IdSaIdEESaIS1_EEC2Ev(ptr noundef nonnull align 8 dereferenceable(24) %in_energy) #6
  %30 = load i64, ptr %groups, align 8, !tbaa !36
  invoke void @_ZNSt6vectorIS_IdSaIdEESaIS1_EE6resizeEm(ptr noundef nonnull align 8 dereferenceable(24) %in_energy, i64 noundef %30)
          to label %invoke.cont34 unwind label %lpad33

invoke.cont34:                                    ; preds = %for.end32
  call void @llvm.lifetime.start.p0(i64 4, ptr %gin35) #6
  store i32 0, ptr %gin35, align 4, !tbaa !18
  br label %for.cond36

for.cond36:                                       ; preds = %for.inc89, %invoke.cont34
  %31 = load i32, ptr %gin35, align 4, !tbaa !18
  %conv37 = sext i32 %31 to i64
  %32 = load i64, ptr %groups, align 8, !tbaa !36
  %cmp38 = icmp ult i64 %conv37, %32
  br i1 %cmp38, label %for.body40, label %for.cond.cleanup39

for.cond.cleanup39:                               ; preds = %for.cond36
  store i32 8, ptr %cleanup.dest.slot, align 4
  call void @llvm.lifetime.end.p0(i64 4, ptr %gin35) #6
  br label %for.end92

lpad33:                                           ; preds = %for.end157, %invoke.cont94, %for.end92, %for.end32
  %33 = landingpad { ptr, i32 }
          cleanup
  %34 = extractvalue { ptr, i32 } %33, 0
  store ptr %34, ptr %exn.slot, align 8
  %35 = extractvalue { ptr, i32 } %33, 1
  store i32 %35, ptr %ehselector.slot, align 4
  br label %ehcleanup159

for.body40:                                       ; preds = %for.cond36
  call void @llvm.lifetime.start.p0(i64 4, ptr %num_groups41) #6
  %36 = load ptr, ptr %in_gmax.addr, align 8, !tbaa !30
  %37 = load i32, ptr %gin35, align 4, !tbaa !18
  %conv42 = sext i32 %37 to i64
  %call45 = invoke noundef nonnull align 4 dereferenceable(4) ptr @_ZNK2xt17xconst_accessibleINS_17xtensor_containerINS_7uvectorIiSaIiEEELm1ELNS_11layout_typeE1ENS_22xtensor_expression_tagEEEEixEm(ptr noundef nonnull align 1 dereferenceable(1) %36, i64 noundef %conv42)
          to label %invoke.cont44 unwind label %lpad43

invoke.cont44:                                    ; preds = %for.body40
  %38 = load i32, ptr %call45, align 4, !tbaa !18
  %39 = load ptr, ptr %in_gmin.addr, align 8, !tbaa !30
  %40 = load i32, ptr %gin35, align 4, !tbaa !18
  %conv46 = sext i32 %40 to i64
  %call48 = invoke noundef nonnull align 4 dereferenceable(4) ptr @_ZNK2xt17xconst_accessibleINS_17xtensor_containerINS_7uvectorIiSaIiEEELm1ELNS_11layout_typeE1ENS_22xtensor_expression_tagEEEEixEm(ptr noundef nonnull align 1 dereferenceable(1) %39, i64 noundef %conv46)
          to label %invoke.cont47 unwind label %lpad43

invoke.cont47:                                    ; preds = %invoke.cont44
  %41 = load i32, ptr %call48, align 4, !tbaa !18
  %sub49 = sub nsw i32 %38, %41
  %add50 = add nsw i32 %sub49, 1
  store i32 %add50, ptr %num_groups41, align 4, !tbaa !18
  %42 = load i32, ptr %gin35, align 4, !tbaa !18
  %conv51 = sext i32 %42 to i64
  %call52 = call noundef nonnull align 8 dereferenceable(24) ptr @_ZNSt6vectorIS_IdSaIdEESaIS1_EEixEm(ptr noundef nonnull align 8 dereferenceable(24) %in_energy, i64 noundef %conv51) #6
  %43 = load i32, ptr %num_groups41, align 4, !tbaa !18
  %conv53 = sext i32 %43 to i64
  invoke void @_ZNSt6vectorIdSaIdEE6resizeEm(ptr noundef nonnull align 8 dereferenceable(24) %call52, i64 noundef %conv53)
          to label %invoke.cont54 unwind label %lpad43

invoke.cont54:                                    ; preds = %invoke.cont47
  call void @llvm.lifetime.start.p0(i64 4, ptr %i_gout55) #6
  store i32 0, ptr %i_gout55, align 4, !tbaa !18
  br label %for.cond56

for.cond56:                                       ; preds = %for.inc85, %invoke.cont54
  %44 = load i32, ptr %i_gout55, align 4, !tbaa !18
  %45 = load i32, ptr %num_groups41, align 4, !tbaa !18
  %cmp57 = icmp slt i32 %44, %45
  br i1 %cmp57, label %for.body59, label %for.cond.cleanup58

for.cond.cleanup58:                               ; preds = %for.cond56
  store i32 11, ptr %cleanup.dest.slot, align 4
  call void @llvm.lifetime.end.p0(i64 4, ptr %i_gout55) #6
  br label %for.end87

lpad43:                                           ; preds = %invoke.cont47, %invoke.cont44, %for.body40
  %46 = landingpad { ptr, i32 }
          cleanup
  %47 = extractvalue { ptr, i32 } %46, 0
  store ptr %47, ptr %exn.slot, align 8
  %48 = extractvalue { ptr, i32 } %46, 1
  store i32 %48, ptr %ehselector.slot, align 4
  call void @llvm.lifetime.end.p0(i64 4, ptr %num_groups41) #6
  call void @llvm.lifetime.end.p0(i64 4, ptr %gin35) #6
  br label %ehcleanup159

for.body59:                                       ; preds = %for.cond56
  call void @llvm.lifetime.start.p0(i64 8, ptr %norm) #6
  %49 = load i32, ptr %gin35, align 4, !tbaa !18
  %conv60 = sext i32 %49 to i64
  %call61 = call noundef nonnull align 8 dereferenceable(24) ptr @_ZNSt6vectorIS_IS_IdSaIdEESaIS1_EESaIS3_EEixEm(ptr noundef nonnull align 8 dereferenceable(24) %matrix, i64 noundef %conv60) #6
  %50 = load i32, ptr %i_gout55, align 4, !tbaa !18
  %conv62 = sext i32 %50 to i64
  %call63 = call noundef nonnull align 8 dereferenceable(24) ptr @_ZNSt6vectorIS_IdSaIdEESaIS1_EEixEm(ptr noundef nonnull align 8 dereferenceable(24) %call61, i64 noundef %conv62) #6
  %call64 = call noundef nonnull align 8 dereferenceable(8) ptr @_ZNSt6vectorIdSaIdEEixEm(ptr noundef nonnull align 8 dereferenceable(24) %call63, i64 noundef 0) #6
  %51 = load double, ptr %call64, align 8, !tbaa !20
  store double %51, ptr %norm, align 8, !tbaa !20
  %52 = load double, ptr %norm, align 8, !tbaa !20
  %53 = load i32, ptr %gin35, align 4, !tbaa !18
  %conv65 = sext i32 %53 to i64
  %call66 = call noundef nonnull align 8 dereferenceable(24) ptr @_ZNSt6vectorIS_IdSaIdEESaIS1_EEixEm(ptr noundef nonnull align 8 dereferenceable(24) %in_energy, i64 noundef %conv65) #6
  %54 = load i32, ptr %i_gout55, align 4, !tbaa !18
  %conv67 = sext i32 %54 to i64
  %call68 = call noundef nonnull align 8 dereferenceable(8) ptr @_ZNSt6vectorIdSaIdEEixEm(ptr noundef nonnull align 8 dereferenceable(24) %call66, i64 noundef %conv67) #6
  store double %52, ptr %call68, align 8, !tbaa !20
  %55 = load double, ptr %norm, align 8, !tbaa !20
  %cmp69 = fcmp une double %55, 0.000000e+00
  br i1 %cmp69, label %if.then, label %if.end

if.then:                                          ; preds = %for.body59
  call void @llvm.lifetime.start.p0(i64 8, ptr %__range4) #6
  %56 = load i32, ptr %gin35, align 4, !tbaa !18
  %conv70 = sext i32 %56 to i64
  %call71 = call noundef nonnull align 8 dereferenceable(24) ptr @_ZNSt6vectorIS_IS_IdSaIdEESaIS1_EESaIS3_EEixEm(ptr noundef nonnull align 8 dereferenceable(24) %matrix, i64 noundef %conv70) #6
  %57 = load i32, ptr %i_gout55, align 4, !tbaa !18
  %conv72 = sext i32 %57 to i64
  %call73 = call noundef nonnull align 8 dereferenceable(24) ptr @_ZNSt6vectorIS_IdSaIdEESaIS1_EEixEm(ptr noundef nonnull align 8 dereferenceable(24) %call71, i64 noundef %conv72) #6
  store ptr %call73, ptr %__range4, align 8, !tbaa !40
  call void @llvm.lifetime.start.p0(i64 8, ptr %__begin4) #6
  %58 = load ptr, ptr %__range4, align 8, !tbaa !40
  %call74 = call ptr @_ZNSt6vectorIdSaIdEE5beginEv(ptr noundef nonnull align 8 dereferenceable(24) %58) #6
  %coerce.dive = getelementptr inbounds nuw %"class.__gnu_cxx::__normal_iterator", ptr %__begin4, i32 0, i32 0
  store ptr %call74, ptr %coerce.dive, align 8
  call void @llvm.lifetime.start.p0(i64 8, ptr %__end4) #6
  %59 = load ptr, ptr %__range4, align 8, !tbaa !40
  %call75 = call ptr @_ZNSt6vectorIdSaIdEE3endEv(ptr noundef nonnull align 8 dereferenceable(24) %59) #6
  %coerce.dive76 = getelementptr inbounds nuw %"class.__gnu_cxx::__normal_iterator", ptr %__end4, i32 0, i32 0
  store ptr %call75, ptr %coerce.dive76, align 8
  br label %for.cond77

for.cond77:                                       ; preds = %for.inc82, %if.then
  %call78 = call noundef zeroext i1 @_ZN9__gnu_cxxneIPdSt6vectorIdSaIdEEEEbRKNS_17__normal_iteratorIT_T0_EESA_(ptr noundef nonnull align 8 dereferenceable(8) %__begin4, ptr noundef nonnull align 8 dereferenceable(8) %__end4) #6
  br i1 %call78, label %for.body80, label %for.cond.cleanup79

for.cond.cleanup79:                               ; preds = %for.cond77
  store i32 14, ptr %cleanup.dest.slot, align 4
  call void @llvm.lifetime.end.p0(i64 8, ptr %__end4) #6
  call void @llvm.lifetime.end.p0(i64 8, ptr %__begin4) #6
  call void @llvm.lifetime.end.p0(i64 8, ptr %__range4) #6
  br label %for.end84

for.body80:                                       ; preds = %for.cond77
  call void @llvm.lifetime.start.p0(i64 8, ptr %n) #6
  %call81 = call noundef nonnull align 8 dereferenceable(8) ptr @_ZNK9__gnu_cxx17__normal_iteratorIPdSt6vectorIdSaIdEEEdeEv(ptr noundef nonnull align 8 dereferenceable(8) %__begin4) #6
  store ptr %call81, ptr %n, align 8, !tbaa !24
  %60 = load double, ptr %norm, align 8, !tbaa !20
  %61 = load ptr, ptr %n, align 8, !tbaa !24
  %62 = load double, ptr %61, align 8, !tbaa !20
  %div = fdiv double %62, %60
  store double %div, ptr %61, align 8, !tbaa !20
  call void @llvm.lifetime.end.p0(i64 8, ptr %n) #6
  br label %for.inc82

for.inc82:                                        ; preds = %for.body80
  %call83 = call noundef nonnull align 8 dereferenceable(8) ptr @_ZN9__gnu_cxx17__normal_iteratorIPdSt6vectorIdSaIdEEEppEv(ptr noundef nonnull align 8 dereferenceable(8) %__begin4) #6
  br label %for.cond77

for.end84:                                        ; preds = %for.cond.cleanup79
  br label %if.end

if.end:                                           ; preds = %for.end84, %for.body59
  call void @llvm.lifetime.end.p0(i64 8, ptr %norm) #6
  br label %for.inc85

for.inc85:                                        ; preds = %if.end
  %63 = load i32, ptr %i_gout55, align 4, !tbaa !18
  %inc86 = add nsw i32 %63, 1
  store i32 %inc86, ptr %i_gout55, align 4, !tbaa !18
  br label %for.cond56, !llvm.loop !42

for.end87:                                        ; preds = %for.cond.cleanup58
  call void @llvm.lifetime.end.p0(i64 4, ptr %num_groups41) #6
  br label %for.inc89

for.inc89:                                        ; preds = %for.end87
  %64 = load i32, ptr %gin35, align 4, !tbaa !18
  %inc90 = add nsw i32 %64, 1
  store i32 %inc90, ptr %gin35, align 4, !tbaa !18
  br label %for.cond36, !llvm.loop !43

for.end92:                                        ; preds = %for.cond.cleanup39
  %65 = load i64, ptr %order, align 8, !tbaa !36
  %conv93 = trunc i64 %65 to i32
  %66 = load ptr, ptr %in_gmin.addr, align 8, !tbaa !30
  %67 = load ptr, ptr %in_gmax.addr, align 8, !tbaa !30
  %68 = load ptr, ptr %in_mult.addr, align 8, !tbaa !32
  invoke void @_ZN6openmc9ScattData9base_initEiRKN2xt17xtensor_containerINS1_7uvectorIiSaIiEEELm1ELNS1_11layout_typeE1ENS1_22xtensor_expression_tagEEESA_RKSt6vectorISB_IdSaIdEESaISD_EESH_(ptr noundef nonnull align 8 dereferenceable(296) %this1, i32 noundef %conv93, ptr noundef nonnull align 8 dereferenceable(72) %66, ptr noundef nonnull align 8 dereferenceable(72) %67, ptr noundef nonnull align 8 dereferenceable(24) %in_energy, ptr noundef nonnull align 8 dereferenceable(24) %68)
          to label %invoke.cont94 unwind label %lpad33

invoke.cont94:                                    ; preds = %for.end92
  %max_val = getelementptr inbounds nuw %"class.openmc::ScattDataLegendre", ptr %this1, i32 0, i32 1
  %69 = load i64, ptr %groups, align 8, !tbaa !36
  invoke void @_ZNSt6vectorIS_IdSaIdEESaIS1_EE6resizeEm(ptr noundef nonnull align 8 dereferenceable(24) %max_val, i64 noundef %69)
          to label %invoke.cont95 unwind label %lpad33

invoke.cont95:                                    ; preds = %invoke.cont94
  call void @llvm.lifetime.start.p0(i64 4, ptr %gin96) #6
  store i32 0, ptr %gin96, align 4, !tbaa !18
  br label %for.cond97

for.cond97:                                       ; preds = %for.inc154, %invoke.cont95
  %70 = load i32, ptr %gin96, align 4, !tbaa !18
  %conv98 = sext i32 %70 to i64
  %71 = load i64, ptr %groups, align 8, !tbaa !36
  %cmp99 = icmp ult i64 %conv98, %71
  br i1 %cmp99, label %for.body101, label %for.cond.cleanup100

for.cond.cleanup100:                              ; preds = %for.cond97
  store i32 16, ptr %cleanup.dest.slot, align 4
  call void @llvm.lifetime.end.p0(i64 4, ptr %gin96) #6
  br label %for.end157

for.body101:                                      ; preds = %for.cond97
  call void @llvm.lifetime.start.p0(i64 4, ptr %num_groups102) #6
  %gmax = getelementptr inbounds nuw %"class.openmc::ScattData", ptr %this1, i32 0, i32 5
  %72 = load i32, ptr %gin96, align 4, !tbaa !18
  %conv103 = sext i32 %72 to i64
  %call106 = invoke noundef nonnull align 4 dereferenceable(4) ptr @_ZN2xt11xaccessibleINS_17xtensor_containerINS_7uvectorIiSaIiEEELm1ELNS_11layout_typeE1ENS_22xtensor_expression_tagEEEEixEm(ptr noundef nonnull align 1 dereferenceable(1) %gmax, i64 noundef %conv103)
          to label %invoke.cont105 unwind label %lpad104

invoke.cont105:                                   ; preds = %for.body101
  %73 = load i32, ptr %call106, align 4, !tbaa !18
  %gmin = getelementptr inbounds nuw %"class.openmc::ScattData", ptr %this1, i32 0, i32 4
  %74 = load i32, ptr %gin96, align 4, !tbaa !18
  %conv107 = sext i32 %74 to i64
  %call109 = invoke noundef nonnull align 4 dereferenceable(4) ptr @_ZN2xt11xaccessibleINS_17xtensor_containerINS_7uvectorIiSaIiEEELm1ELNS_11layout_typeE1ENS_22xtensor_expression_tagEEEEixEm(ptr noundef nonnull align 1 dereferenceable(1) %gmin, i64 noundef %conv107)
          to label %invoke.cont108 unwind label %lpad104

invoke.cont108:                                   ; preds = %invoke.cont105
  %75 = load i32, ptr %call109, align 4, !tbaa !18
  %sub110 = sub nsw i32 %73, %75
  %add111 = add nsw i32 %sub110, 1
  store i32 %add111, ptr %num_groups102, align 4, !tbaa !18
  call void @llvm.lifetime.start.p0(i64 4, ptr %i_gout112) #6
  store i32 0, ptr %i_gout112, align 4, !tbaa !18
  br label %for.cond113

for.cond113:                                      ; preds = %for.inc128, %invoke.cont108
  %76 = load i32, ptr %i_gout112, align 4, !tbaa !18
  %77 = load i32, ptr %num_groups102, align 4, !tbaa !18
  %cmp114 = icmp slt i32 %76, %77
  br i1 %cmp114, label %for.body116, label %for.cond.cleanup115

for.cond.cleanup115:                              ; preds = %for.cond113
  store i32 19, ptr %cleanup.dest.slot, align 4
  call void @llvm.lifetime.end.p0(i64 4, ptr %i_gout112) #6
  br label %for.end131

lpad104:                                          ; preds = %for.end131, %invoke.cont105, %for.body101
  %78 = landingpad { ptr, i32 }
          cleanup
  %79 = extractvalue { ptr, i32 } %78, 0
  store ptr %79, ptr %exn.slot, align 8
  %80 = extractvalue { ptr, i32 } %78, 1
  store i32 %80, ptr %ehselector.slot, align 4
  br label %ehcleanup153

for.body116:                                      ; preds = %for.cond113
  %81 = load i32, ptr %gin96, align 4, !tbaa !18
  %conv117 = sext i32 %81 to i64
  %call118 = call noundef nonnull align 8 dereferenceable(24) ptr @_ZNSt6vectorIS_IS_IdSaIdEESaIS1_EESaIS3_EEixEm(ptr noundef nonnull align 8 dereferenceable(24) %matrix, i64 noundef %conv117) #6
  %82 = load i32, ptr %i_gout112, align 4, !tbaa !18
  %conv119 = sext i32 %82 to i64
  %call120 = call noundef nonnull align 8 dereferenceable(24) ptr @_ZNSt6vectorIS_IdSaIdEESaIS1_EEixEm(ptr noundef nonnull align 8 dereferenceable(24) %call118, i64 noundef %conv119) #6
  %dist = getelementptr inbounds nuw %"class.openmc::ScattData", ptr %this1, i32 0, i32 3
  %83 = load i32, ptr %gin96, align 4, !tbaa !18
  %conv121 = sext i32 %83 to i64
  %call122 = call noundef nonnull align 8 dereferenceable(24) ptr @_ZNSt6vectorIS_IS_IdSaIdEESaIS1_EESaIS3_EEixEm(ptr noundef nonnull align 8 dereferenceable(24) %dist, i64 noundef %conv121) #6
  %84 = load i32, ptr %i_gout112, align 4, !tbaa !18
  %conv123 = sext i32 %84 to i64
  %call124 = call noundef nonnull align 8 dereferenceable(24) ptr @_ZNSt6vectorIS_IdSaIdEESaIS1_EEixEm(ptr noundef nonnull align 8 dereferenceable(24) %call122, i64 noundef %conv123) #6
  %call127 = invoke noundef nonnull align 8 dereferenceable(24) ptr @_ZNSt6vectorIdSaIdEEaSERKS1_(ptr noundef nonnull align 8 dereferenceable(24) %call124, ptr noundef nonnull align 8 dereferenceable(24) %call120)
          to label %invoke.cont126 unwind label %lpad125

invoke.cont126:                                   ; preds = %for.body116
  br label %for.inc128

for.inc128:                                       ; preds = %invoke.cont126
  %85 = load i32, ptr %i_gout112, align 4, !tbaa !18
  %inc129 = add nsw i32 %85, 1
  store i32 %inc129, ptr %i_gout112, align 4, !tbaa !18
  br label %for.cond113, !llvm.loop !44

lpad125:                                          ; preds = %for.body116
  %86 = landingpad { ptr, i32 }
          cleanup
  %87 = extractvalue { ptr, i32 } %86, 0
  store ptr %87, ptr %exn.slot, align 8
  %88 = extractvalue { ptr, i32 } %86, 1
  store i32 %88, ptr %ehselector.slot, align 4
  call void @llvm.lifetime.end.p0(i64 4, ptr %i_gout112) #6
  br label %ehcleanup153

for.end131:                                       ; preds = %for.cond.cleanup115
  %max_val132 = getelementptr inbounds nuw %"class.openmc::ScattDataLegendre", ptr %this1, i32 0, i32 1
  %89 = load i32, ptr %gin96, align 4, !tbaa !18
  %conv133 = sext i32 %89 to i64
  %call134 = call noundef nonnull align 8 dereferenceable(24) ptr @_ZNSt6vectorIS_IdSaIdEESaIS1_EEixEm(ptr noundef nonnull align 8 dereferenceable(24) %max_val132, i64 noundef %conv133) #6
  %90 = load i32, ptr %num_groups102, align 4, !tbaa !18
  %conv135 = sext i32 %90 to i64
  invoke void @_ZNSt6vectorIdSaIdEE6resizeEm(ptr noundef nonnull align 8 dereferenceable(24) %call134, i64 noundef %conv135)
          to label %invoke.cont136 unwind label %lpad104

invoke.cont136:                                   ; preds = %for.end131
  call void @llvm.lifetime.start.p0(i64 8, ptr %__range2) #6
  %max_val137 = getelementptr inbounds nuw %"class.openmc::ScattDataLegendre", ptr %this1, i32 0, i32 1
  %91 = load i32, ptr %gin96, align 4, !tbaa !18
  %conv138 = sext i32 %91 to i64
  %call139 = call noundef nonnull align 8 dereferenceable(24) ptr @_ZNSt6vectorIS_IdSaIdEESaIS1_EEixEm(ptr noundef nonnull align 8 dereferenceable(24) %max_val137, i64 noundef %conv138) #6
  store ptr %call139, ptr %__range2, align 8, !tbaa !40
  call void @llvm.lifetime.start.p0(i64 8, ptr %__begin2) #6
  %92 = load ptr, ptr %__range2, align 8, !tbaa !40
  %call140 = call ptr @_ZNSt6vectorIdSaIdEE5beginEv(ptr noundef nonnull align 8 dereferenceable(24) %92) #6
  %coerce.dive141 = getelementptr inbounds nuw %"class.__gnu_cxx::__normal_iterator", ptr %__begin2, i32 0, i32 0
  store ptr %call140, ptr %coerce.dive141, align 8
  call void @llvm.lifetime.start.p0(i64 8, ptr %__end2) #6
  %93 = load ptr, ptr %__range2, align 8, !tbaa !40
  %call142 = call ptr @_ZNSt6vectorIdSaIdEE3endEv(ptr noundef nonnull align 8 dereferenceable(24) %93) #6
  %coerce.dive143 = getelementptr inbounds nuw %"class.__gnu_cxx::__normal_iterator", ptr %__end2, i32 0, i32 0
  store ptr %call142, ptr %coerce.dive143, align 8
  br label %for.cond144

for.cond144:                                      ; preds = %for.inc150, %invoke.cont136
  %call145 = call noundef zeroext i1 @_ZN9__gnu_cxxneIPdSt6vectorIdSaIdEEEEbRKNS_17__normal_iteratorIT_T0_EESA_(ptr noundef nonnull align 8 dereferenceable(8) %__begin2, ptr noundef nonnull align 8 dereferenceable(8) %__end2) #6
  br i1 %call145, label %for.body147, label %for.cond.cleanup146

for.cond.cleanup146:                              ; preds = %for.cond144
  store i32 22, ptr %cleanup.dest.slot, align 4
  call void @llvm.lifetime.end.p0(i64 8, ptr %__end2) #6
  call void @llvm.lifetime.end.p0(i64 8, ptr %__begin2) #6
  call void @llvm.lifetime.end.p0(i64 8, ptr %__range2) #6
  br label %for.end152

for.body147:                                      ; preds = %for.cond144
  call void @llvm.lifetime.start.p0(i64 8, ptr %n148) #6
  %call149 = call noundef nonnull align 8 dereferenceable(8) ptr @_ZNK9__gnu_cxx17__normal_iteratorIPdSt6vectorIdSaIdEEEdeEv(ptr noundef nonnull align 8 dereferenceable(8) %__begin2) #6
  store ptr %call149, ptr %n148, align 8, !tbaa !24
  %94 = load ptr, ptr %n148, align 8, !tbaa !24
  store double 0.000000e+00, ptr %94, align 8, !tbaa !20
  call void @llvm.lifetime.end.p0(i64 8, ptr %n148) #6
  br label %for.inc150

for.inc150:                                       ; preds = %for.body147
  %call151 = call noundef nonnull align 8 dereferenceable(8) ptr @_ZN9__gnu_cxx17__normal_iteratorIPdSt6vectorIdSaIdEEEppEv(ptr noundef nonnull align 8 dereferenceable(8) %__begin2) #6
  br label %for.cond144

for.end152:                                       ; preds = %for.cond.cleanup146
  call void @llvm.lifetime.end.p0(i64 4, ptr %num_groups102) #6
  br label %for.inc154

for.inc154:                                       ; preds = %for.end152
  %95 = load i32, ptr %gin96, align 4, !tbaa !18
  %inc155 = add nsw i32 %95, 1
  store i32 %inc155, ptr %gin96, align 4, !tbaa !18
  br label %for.cond97, !llvm.loop !45

ehcleanup153:                                     ; preds = %lpad125, %lpad104
  call void @llvm.lifetime.end.p0(i64 4, ptr %num_groups102) #6
  call void @llvm.lifetime.end.p0(i64 4, ptr %gin96) #6
  br label %ehcleanup159

for.end157:                                       ; preds = %for.cond.cleanup100
  invoke void @_ZN6openmc17ScattDataLegendre14update_max_valEv(ptr noundef nonnull align 8 dereferenceable(320) %this1)
          to label %invoke.cont158 unwind label %lpad33

invoke.cont158:                                   ; preds = %for.end157
  call void @_ZNSt6vectorIS_IdSaIdEESaIS1_EED2Ev(ptr noundef nonnull align 8 dereferenceable(24) %in_energy) #6
  call void @llvm.lifetime.end.p0(i64 24, ptr %in_energy) #6
  call void @_ZNSt6vectorIS_IS_IdSaIdEESaIS1_EESaIS3_EED2Ev(ptr noundef nonnull align 8 dereferenceable(24) %matrix) #6
  call void @llvm.lifetime.end.p0(i64 24, ptr %matrix) #6
  call void @llvm.lifetime.end.p0(i64 8, ptr %order) #6
  call void @llvm.lifetime.end.p0(i64 8, ptr %groups) #6
  ret void

ehcleanup159:                                     ; preds = %ehcleanup153, %lpad43, %lpad33
  call void @_ZNSt6vectorIS_IdSaIdEESaIS1_EED2Ev(ptr noundef nonnull align 8 dereferenceable(24) %in_energy) #6
  call void @llvm.lifetime.end.p0(i64 24, ptr %in_energy) #6
  br label %ehcleanup161

ehcleanup161:                                     ; preds = %ehcleanup159, %ehcleanup, %lpad
  call void @_ZNSt6vectorIS_IS_IdSaIdEESaIS1_EESaIS3_EED2Ev(ptr noundef nonnull align 8 dereferenceable(24) %matrix) #6
  call void @llvm.lifetime.end.p0(i64 24, ptr %matrix) #6
  call void @llvm.lifetime.end.p0(i64 8, ptr %order) #6
  call void @llvm.lifetime.end.p0(i64 8, ptr %groups) #6
  br label %eh.resume

eh.resume:                                        ; preds = %ehcleanup161
  %exn = load ptr, ptr %exn.slot, align 8
  %sel = load i32, ptr %ehselector.slot, align 4
  %lpad.val = insertvalue { ptr, i32 } poison, ptr %exn, 0
  %lpad.val165 = insertvalue { ptr, i32 } %lpad.val, i32 %sel, 1
  resume { ptr, i32 } %lpad.val165
}

; Function Attrs: mustprogress uwtable
define void @_ZN6openmc17ScattDataLegendre7combineERKSt6vectorIPNS_9ScattDataESaIS3_EERKS1_IdSaIdEE(ptr noundef nonnull align 8 dereferenceable(320) %this, ptr noundef nonnull align 8 dereferenceable(24) %those_scatts, ptr noundef nonnull align 8 dereferenceable(24) %scalars) unnamed_addr #1 align 2 personality ptr @__gxx_personality_v0 {
entry:
  %this.addr = alloca ptr, align 8
  %those_scatts.addr = alloca ptr, align 8
  %scalars.addr = alloca ptr, align 8
  %max_order = alloca i64, align 8
  %i = alloca i32, align 4
  %that = alloca ptr, align 8
  %that_order = alloca i64, align 8
  %groups = alloca i64, align 8
  %in_gmin = alloca %"class.xt::xtensor_container.2", align 8
  %ref.tmp = alloca %"struct.std::array.10", align 8
  %ref.tmp10 = alloca i32, align 4
  %in_gmax = alloca %"class.xt::xtensor_container.2", align 8
  %ref.tmp11 = alloca %"struct.std::array.10", align 8
  %ref.tmp13 = alloca i32, align 4
  %exn.slot = alloca ptr, align 8
  %ehselector.slot = alloca i32, align 4
  %sparse_scatter = alloca %"class.std::vector.21", align 8
  %ref.tmp14 = alloca %"class.std::allocator.23", align 1
  %sparse_mult = alloca %"class.std::vector", align 8
  %ref.tmp17 = alloca %"class.std::allocator", align 1
  %order_dim = alloca i64, align 8
  store ptr %this, ptr %this.addr, align 8, !tbaa !11
  store ptr %those_scatts, ptr %those_scatts.addr, align 8, !tbaa !46
  store ptr %scalars, ptr %scalars.addr, align 8, !tbaa !40
  %this1 = load ptr, ptr %this.addr, align 8
  call void @llvm.lifetime.start.p0(i64 8, ptr %max_order) #6
  store i64 0, ptr %max_order, align 8, !tbaa !36
  call void @llvm.lifetime.start.p0(i64 4, ptr %i) #6
  store i32 0, ptr %i, align 4, !tbaa !18
  br label %for.cond

for.cond:                                         ; preds = %for.inc, %entry
  %0 = load i32, ptr %i, align 4, !tbaa !18
  %conv = sext i32 %0 to i64
  %1 = load ptr, ptr %those_scatts.addr, align 8, !tbaa !46
  %call = call noundef i64 @_ZNKSt6vectorIPN6openmc9ScattDataESaIS2_EE4sizeEv(ptr noundef nonnull align 8 dereferenceable(24) %1) #6
  %cmp = icmp ult i64 %conv, %call
  br i1 %cmp, label %for.body, label %for.cond.cleanup

for.cond.cleanup:                                 ; preds = %for.cond
  call void @llvm.lifetime.end.p0(i64 4, ptr %i) #6
  br label %for.end

for.body:                                         ; preds = %for.cond
  call void @llvm.lifetime.start.p0(i64 8, ptr %that) #6
  %2 = load ptr, ptr %those_scatts.addr, align 8, !tbaa !46
  %3 = load i32, ptr %i, align 4, !tbaa !18
  %conv2 = sext i32 %3 to i64
  %call3 = call noundef nonnull align 8 dereferenceable(8) ptr @_ZNKSt6vectorIPN6openmc9ScattDataESaIS2_EEixEm(ptr noundef nonnull align 8 dereferenceable(24) %2, i64 noundef %conv2) #6
  %4 = load ptr, ptr %call3, align 8, !tbaa !48
  %5 = icmp eq ptr %4, null
  br i1 %5, label %dynamic_cast.null, label %dynamic_cast.notnull

dynamic_cast.notnull:                             ; preds = %for.body
  %6 = call ptr @__dynamic_cast(ptr %4, ptr @_ZTIN6openmc9ScattDataE, ptr @_ZTIN6openmc17ScattDataLegendreE, i64 0) #6
  br label %dynamic_cast.end

dynamic_cast.null:                                ; preds = %for.body
  br label %dynamic_cast.end

dynamic_cast.end:                                 ; preds = %dynamic_cast.null, %dynamic_cast.notnull
  %7 = phi ptr [ %6, %dynamic_cast.notnull ], [ null, %dynamic_cast.null ]
  store ptr %7, ptr %that, align 8, !tbaa !11
  %8 = load ptr, ptr %that, align 8, !tbaa !11
  %tobool = icmp ne ptr %8, null
  br i1 %tobool, label %if.end, label %if.then

if.then:                                          ; preds = %dynamic_cast.end
  call void @_ZN6openmc11fatal_errorEPKc(ptr noundef @.str.14) #28
  unreachable

if.end:                                           ; preds = %dynamic_cast.end
  call void @llvm.lifetime.start.p0(i64 8, ptr %that_order) #6
  %9 = load ptr, ptr %that, align 8, !tbaa !11
  %vtable = load ptr, ptr %9, align 8, !tbaa !16
  %vfn = getelementptr inbounds ptr, ptr %vtable, i64 6
  %10 = load ptr, ptr %vfn, align 8
  %call4 = call noundef i64 %10(ptr noundef nonnull align 8 dereferenceable(320) %9)
  store i64 %call4, ptr %that_order, align 8, !tbaa !36
  %11 = load i64, ptr %that_order, align 8, !tbaa !36
  %12 = load i64, ptr %max_order, align 8, !tbaa !36
  %cmp5 = icmp ugt i64 %11, %12
  br i1 %cmp5, label %if.then6, label %if.end7

if.then6:                                         ; preds = %if.end
  %13 = load i64, ptr %that_order, align 8, !tbaa !36
  store i64 %13, ptr %max_order, align 8, !tbaa !36
  br label %if.end7

if.end7:                                          ; preds = %if.then6, %if.end
  call void @llvm.lifetime.end.p0(i64 8, ptr %that_order) #6
  call void @llvm.lifetime.end.p0(i64 8, ptr %that) #6
  br label %for.inc

for.inc:                                          ; preds = %if.end7
  %14 = load i32, ptr %i, align 4, !tbaa !18
  %inc = add nsw i32 %14, 1
  store i32 %inc, ptr %i, align 4, !tbaa !18
  br label %for.cond, !llvm.loop !50

for.end:                                          ; preds = %for.cond.cleanup
  call void @llvm.lifetime.start.p0(i64 8, ptr %groups) #6
  %15 = load ptr, ptr %those_scatts.addr, align 8, !tbaa !46
  %call8 = call noundef nonnull align 8 dereferenceable(8) ptr @_ZNKSt6vectorIPN6openmc9ScattDataESaIS2_EEixEm(ptr noundef nonnull align 8 dereferenceable(24) %15, i64 noundef 0) #6
  %16 = load ptr, ptr %call8, align 8, !tbaa !48
  %energy = getelementptr inbounds nuw %"class.openmc::ScattData", ptr %16, i32 0, i32 1
  %call9 = call noundef i64 @_ZNKSt6vectorIS_IdSaIdEESaIS1_EE4sizeEv(ptr noundef nonnull align 8 dereferenceable(24) %energy) #6
  store i64 %call9, ptr %groups, align 8, !tbaa !36
  call void @llvm.lifetime.start.p0(i64 72, ptr %in_gmin) #6
  call void @llvm.lifetime.start.p0(i64 8, ptr %ref.tmp) #6
  %_M_elems = getelementptr inbounds nuw %"struct.std::array.10", ptr %ref.tmp, i32 0, i32 0
  %17 = load i64, ptr %groups, align 8, !tbaa !36
  store i64 %17, ptr %_M_elems, align 8, !tbaa !36
  call void @llvm.lifetime.start.p0(i64 4, ptr %ref.tmp10) #6
  store i32 0, ptr %ref.tmp10, align 4, !tbaa !18
  call void @_ZN2xt17xtensor_containerINS_7uvectorIiSaIiEEELm1ELNS_11layout_typeE1ENS_22xtensor_expression_tagEEC2ERKSt5arrayImLm1EERKiS4_(ptr noundef nonnull align 8 dereferenceable(72) %in_gmin, ptr noundef nonnull align 8 dereferenceable(8) %ref.tmp, ptr noundef nonnull align 4 dereferenceable(4) %ref.tmp10, i32 noundef 1)
  call void @llvm.lifetime.end.p0(i64 4, ptr %ref.tmp10) #6
  call void @llvm.lifetime.end.p0(i64 8, ptr %ref.tmp) #6
  call void @llvm.lifetime.start.p0(i64 72, ptr %in_gmax) #6
  call void @llvm.lifetime.start.p0(i64 8, ptr %ref.tmp11) #6
  %_M_elems12 = getelementptr inbounds nuw %"struct.std::array.10", ptr %ref.tmp11, i32 0, i32 0
  %18 = load i64, ptr %groups, align 8, !tbaa !36
  store i64 %18, ptr %_M_elems12, align 8, !tbaa !36
  call void @llvm.lifetime.start.p0(i64 4, ptr %ref.tmp13) #6
  store i32 0, ptr %ref.tmp13, align 4, !tbaa !18
  invoke void @_ZN2xt17xtensor_containerINS_7uvectorIiSaIiEEELm1ELNS_11layout_typeE1ENS_22xtensor_expression_tagEEC2ERKSt5arrayImLm1EERKiS4_(ptr noundef nonnull align 8 dereferenceable(72) %in_gmax, ptr noundef nonnull align 8 dereferenceable(8) %ref.tmp11, ptr noundef nonnull align 4 dereferenceable(4) %ref.tmp13, i32 noundef 1)
          to label %invoke.cont unwind label %lpad

invoke.cont:                                      ; preds = %for.end
  call void @llvm.lifetime.end.p0(i64 4, ptr %ref.tmp13) #6
  call void @llvm.lifetime.end.p0(i64 8, ptr %ref.tmp11) #6
  call void @llvm.lifetime.start.p0(i64 24, ptr %sparse_scatter) #6
  %19 = load i64, ptr %groups, align 8, !tbaa !36
  call void @llvm.lifetime.start.p0(i64 1, ptr %ref.tmp14) #6
  call void @_ZNSaISt6vectorIS_IdSaIdEESaIS1_EEEC2Ev(ptr noundef nonnull align 1 dereferenceable(1) %ref.tmp14) #6
  invoke void @_ZNSt6vectorIS_IS_IdSaIdEESaIS1_EESaIS3_EEC2EmRKS4_(ptr noundef nonnull align 8 dereferenceable(24) %sparse_scatter, i64 noundef %19, ptr noundef nonnull align 1 dereferenceable(1) %ref.tmp14)
          to label %invoke.cont16 unwind label %lpad15

invoke.cont16:                                    ; preds = %invoke.cont
  call void @_ZNSt15__new_allocatorISt6vectorIS0_IdSaIdEESaIS2_EEED2Ev(ptr noundef nonnull align 1 dereferenceable(1) %ref.tmp14) #6
  call void @llvm.lifetime.end.p0(i64 1, ptr %ref.tmp14) #6
  call void @llvm.lifetime.start.p0(i64 24, ptr %sparse_mult) #6
  %20 = load i64, ptr %groups, align 8, !tbaa !36
  call void @llvm.lifetime.start.p0(i64 1, ptr %ref.tmp17) #6
  call void @_ZNSaISt6vectorIdSaIdEEEC2Ev(ptr noundef nonnull align 1 dereferenceable(1) %ref.tmp17) #6
  invoke void @_ZNSt6vectorIS_IdSaIdEESaIS1_EEC2EmRKS2_(ptr noundef nonnull align 8 dereferenceable(24) %sparse_mult, i64 noundef %20, ptr noundef nonnull align 1 dereferenceable(1) %ref.tmp17)
          to label %invoke.cont19 unwind label %lpad18

invoke.cont19:                                    ; preds = %invoke.cont16
  call void @_ZNSt15__new_allocatorISt6vectorIdSaIdEEED2Ev(ptr noundef nonnull align 1 dereferenceable(1) %ref.tmp17) #6
  call void @llvm.lifetime.end.p0(i64 1, ptr %ref.tmp17) #6
  call void @llvm.lifetime.start.p0(i64 8, ptr %order_dim) #6
  %21 = load i64, ptr %max_order, align 8, !tbaa !36
  %add = add i64 %21, 1
  store i64 %add, ptr %order_dim, align 8, !tbaa !36
  %22 = load i64, ptr %max_order, align 8, !tbaa !36
  %23 = load i64, ptr %order_dim, align 8, !tbaa !36
  %24 = load ptr, ptr %those_scatts.addr, align 8, !tbaa !46
  %25 = load ptr, ptr %scalars.addr, align 8, !tbaa !40
  invoke void @_ZN6openmc9ScattData12base_combineEmmRKSt6vectorIPS0_SaIS2_EERKS1_IdSaIdEERN2xt17xtensor_containerINSB_7uvectorIiSaIiEEELm1ELNSB_11layout_typeE1ENSB_22xtensor_expression_tagEEESJ_RS1_IS8_SaIS8_EERS1_ISL_SaISL_EE(ptr noundef nonnull align 8 dereferenceable(296) %this1, i64 noundef %22, i64 noundef %23, ptr noundef nonnull align 8 dereferenceable(24) %24, ptr noundef nonnull align 8 dereferenceable(24) %25, ptr noundef nonnull align 8 dereferenceable(72) %in_gmin, ptr noundef nonnull align 8 dereferenceable(72) %in_gmax, ptr noundef nonnull align 8 dereferenceable(24) %sparse_mult, ptr noundef nonnull align 8 dereferenceable(24) %sparse_scatter)
          to label %invoke.cont21 unwind label %lpad20

invoke.cont21:                                    ; preds = %invoke.cont19
  %vtable22 = load ptr, ptr %this1, align 8, !tbaa !16
  %vfn23 = getelementptr inbounds ptr, ptr %vtable22, i64 4
  %26 = load ptr, ptr %vfn23, align 8
  invoke void %26(ptr noundef nonnull align 8 dereferenceable(320) %this1, ptr noundef nonnull align 8 dereferenceable(72) %in_gmin, ptr noundef nonnull align 8 dereferenceable(72) %in_gmax, ptr noundef nonnull align 8 dereferenceable(24) %sparse_mult, ptr noundef nonnull align 8 dereferenceable(24) %sparse_scatter)
          to label %invoke.cont24 unwind label %lpad20

invoke.cont24:                                    ; preds = %invoke.cont21
  call void @llvm.lifetime.end.p0(i64 8, ptr %order_dim) #6
  call void @_ZNSt6vectorIS_IdSaIdEESaIS1_EED2Ev(ptr noundef nonnull align 8 dereferenceable(24) %sparse_mult) #6
  call void @llvm.lifetime.end.p0(i64 24, ptr %sparse_mult) #6
  call void @_ZNSt6vectorIS_IS_IdSaIdEESaIS1_EESaIS3_EED2Ev(ptr noundef nonnull align 8 dereferenceable(24) %sparse_scatter) #6
  call void @llvm.lifetime.end.p0(i64 24, ptr %sparse_scatter) #6
  call void @_ZN2xt17xtensor_containerINS_7uvectorIiSaIiEEELm1ELNS_11layout_typeE1ENS_22xtensor_expression_tagEED2Ev(ptr noundef nonnull align 8 dereferenceable(72) %in_gmax) #6
  call void @llvm.lifetime.end.p0(i64 72, ptr %in_gmax) #6
  call void @_ZN2xt17xtensor_containerINS_7uvectorIiSaIiEEELm1ELNS_11layout_typeE1ENS_22xtensor_expression_tagEED2Ev(ptr noundef nonnull align 8 dereferenceable(72) %in_gmin) #6
  call void @llvm.lifetime.end.p0(i64 72, ptr %in_gmin) #6
  call void @llvm.lifetime.end.p0(i64 8, ptr %groups) #6
  call void @llvm.lifetime.end.p0(i64 8, ptr %max_order) #6
  ret void

lpad:                                             ; preds = %for.end
  %27 = landingpad { ptr, i32 }
          cleanup
  %28 = extractvalue { ptr, i32 } %27, 0
  store ptr %28, ptr %exn.slot, align 8
  %29 = extractvalue { ptr, i32 } %27, 1
  store i32 %29, ptr %ehselector.slot, align 4
  call void @llvm.lifetime.end.p0(i64 4, ptr %ref.tmp13) #6
  call void @llvm.lifetime.end.p0(i64 8, ptr %ref.tmp11) #6
  br label %ehcleanup28

lpad15:                                           ; preds = %invoke.cont
  %30 = landingpad { ptr, i32 }
          cleanup
  %31 = extractvalue { ptr, i32 } %30, 0
  store ptr %31, ptr %exn.slot, align 8
  %32 = extractvalue { ptr, i32 } %30, 1
  store i32 %32, ptr %ehselector.slot, align 4
  call void @_ZNSt15__new_allocatorISt6vectorIS0_IdSaIdEESaIS2_EEED2Ev(ptr noundef nonnull align 1 dereferenceable(1) %ref.tmp14) #6
  call void @llvm.lifetime.end.p0(i64 1, ptr %ref.tmp14) #6
  br label %ehcleanup26

lpad18:                                           ; preds = %invoke.cont16
  %33 = landingpad { ptr, i32 }
          cleanup
  %34 = extractvalue { ptr, i32 } %33, 0
  store ptr %34, ptr %exn.slot, align 8
  %35 = extractvalue { ptr, i32 } %33, 1
  store i32 %35, ptr %ehselector.slot, align 4
  call void @_ZNSt15__new_allocatorISt6vectorIdSaIdEEED2Ev(ptr noundef nonnull align 1 dereferenceable(1) %ref.tmp17) #6
  call void @llvm.lifetime.end.p0(i64 1, ptr %ref.tmp17) #6
  br label %ehcleanup

lpad20:                                           ; preds = %invoke.cont21, %invoke.cont19
  %36 = landingpad { ptr, i32 }
          cleanup
  %37 = extractvalue { ptr, i32 } %36, 0
  store ptr %37, ptr %exn.slot, align 8
  %38 = extractvalue { ptr, i32 } %36, 1
  store i32 %38, ptr %ehselector.slot, align 4
  call void @llvm.lifetime.end.p0(i64 8, ptr %order_dim) #6
  call void @_ZNSt6vectorIS_IdSaIdEESaIS1_EED2Ev(ptr noundef nonnull align 8 dereferenceable(24) %sparse_mult) #6
  br label %ehcleanup

ehcleanup:                                        ; preds = %lpad20, %lpad18
  call void @llvm.lifetime.end.p0(i64 24, ptr %sparse_mult) #6
  call void @_ZNSt6vectorIS_IS_IdSaIdEESaIS1_EESaIS3_EED2Ev(ptr noundef nonnull align 8 dereferenceable(24) %sparse_scatter) #6
  br label %ehcleanup26

ehcleanup26:                                      ; preds = %ehcleanup, %lpad15
  call void @llvm.lifetime.end.p0(i64 24, ptr %sparse_scatter) #6
  call void @_ZN2xt17xtensor_containerINS_7uvectorIiSaIiEEELm1ELNS_11layout_typeE1ENS_22xtensor_expression_tagEED2Ev(ptr noundef nonnull align 8 dereferenceable(72) %in_gmax) #6
  br label %ehcleanup28

ehcleanup28:                                      ; preds = %ehcleanup26, %lpad
  call void @llvm.lifetime.end.p0(i64 72, ptr %in_gmax) #6
  call void @_ZN2xt17xtensor_containerINS_7uvectorIiSaIiEEELm1ELNS_11layout_typeE1ENS_22xtensor_expression_tagEED2Ev(ptr noundef nonnull align 8 dereferenceable(72) %in_gmin) #6
  call void @llvm.lifetime.end.p0(i64 72, ptr %in_gmin) #6
  call void @llvm.lifetime.end.p0(i64 8, ptr %groups) #6
  call void @llvm.lifetime.end.p0(i64 8, ptr %max_order) #6
  br label %eh.resume

eh.resume:                                        ; preds = %ehcleanup28
  %exn = load ptr, ptr %exn.slot, align 8
  %sel = load i32, ptr %ehselector.slot, align 4
  %lpad.val = insertvalue { ptr, i32 } poison, ptr %exn, 0
  %lpad.val33 = insertvalue { ptr, i32 } %lpad.val, i32 %sel, 1
  resume { ptr, i32 } %lpad.val33
}

; Function Attrs: mustprogress nounwind uwtable
define linkonce_odr noundef i64 @_ZN6openmc17ScattDataLegendre9get_orderEv(ptr noundef nonnull align 8 dereferenceable(320) %this) unnamed_addr #2 comdat align 2 {
entry:
  %this.addr = alloca ptr, align 8
  store ptr %this, ptr %this.addr, align 8, !tbaa !11
  %this1 = load ptr, ptr %this.addr, align 8
  %dist = getelementptr inbounds nuw %"class.openmc::ScattData", ptr %this1, i32 0, i32 3
  %call = call noundef nonnull align 8 dereferenceable(24) ptr @_ZNSt6vectorIS_IS_IdSaIdEESaIS1_EESaIS3_EEixEm(ptr noundef nonnull align 8 dereferenceable(24) %dist, i64 noundef 0) #6
  %call2 = call noundef nonnull align 8 dereferenceable(24) ptr @_ZNSt6vectorIS_IdSaIdEESaIS1_EEixEm(ptr noundef nonnull align 8 dereferenceable(24) %call, i64 noundef 0) #6
  %call3 = call noundef i64 @_ZNKSt6vectorIdSaIdEE4sizeEv(ptr noundef nonnull align 8 dereferenceable(24) %call2) #6
  %sub = sub i64 %call3, 1
  ret i64 %sub
}

; Function Attrs: mustprogress uwtable
define void @_ZN6openmc17ScattDataLegendre10get_matrixEm(ptr dead_on_unwind noalias writable sret(%"class.xt::xtensor_container") align 8 %agg.result, ptr noundef nonnull align 8 dereferenceable(320) %this, i64 noundef %max_order) unnamed_addr #1 align 2 personality ptr @__gxx_personality_v0 {
entry:
  %result.ptr = alloca ptr, align 8
  %this.addr = alloca ptr, align 8
  %max_order.addr = alloca i64, align 8
  %groups = alloca i64, align 8
  %order_dim = alloca i64, align 8
  %nrvo = alloca i1, align 1
  %ref.tmp = alloca %"struct.std::array", align 8
  %ref.tmp3 = alloca double, align 8
  %gin = alloca i32, align 4
  %cleanup.dest.slot = alloca i32, align 4
  %i_gout = alloca i32, align 4
  %gout = alloca i32, align 4
  %exn.slot = alloca ptr, align 8
  %ehselector.slot = alloca i32, align 4
  %l = alloca i32, align 4
  store ptr %agg.result, ptr %result.ptr, align 8
  store ptr %this, ptr %this.addr, align 8, !tbaa !11
  store i64 %max_order, ptr %max_order.addr, align 8, !tbaa !36
  %this1 = load ptr, ptr %this.addr, align 8
  call void @llvm.lifetime.start.p0(i64 8, ptr %groups) #6
  %energy = getelementptr inbounds nuw %"class.openmc::ScattData", ptr %this1, i32 0, i32 1
  %call = call noundef i64 @_ZNKSt6vectorIS_IdSaIdEESaIS1_EE4sizeEv(ptr noundef nonnull align 8 dereferenceable(24) %energy) #6
  store i64 %call, ptr %groups, align 8, !tbaa !36
  call void @llvm.lifetime.start.p0(i64 8, ptr %order_dim) #6
  %0 = load i64, ptr %max_order.addr, align 8, !tbaa !36
  %add = add i64 %0, 1
  store i64 %add, ptr %order_dim, align 8, !tbaa !36
  store i1 false, ptr %nrvo, align 1
  call void @llvm.lifetime.start.p0(i64 24, ptr %ref.tmp) #6
  %_M_elems = getelementptr inbounds nuw %"struct.std::array", ptr %ref.tmp, i32 0, i32 0
  %1 = load i64, ptr %groups, align 8, !tbaa !36
  store i64 %1, ptr %_M_elems, align 8, !tbaa !36
  %arrayinit.element = getelementptr inbounds i64, ptr %_M_elems, i64 1
  %2 = load i64, ptr %groups, align 8, !tbaa !36
  store i64 %2, ptr %arrayinit.element, align 8, !tbaa !36
  %arrayinit.element2 = getelementptr inbounds i64, ptr %_M_elems, i64 2
  %3 = load i64, ptr %order_dim, align 8, !tbaa !36
  store i64 %3, ptr %arrayinit.element2, align 8, !tbaa !36
  call void @llvm.lifetime.start.p0(i64 8, ptr %ref.tmp3) #6
  store double 0.000000e+00, ptr %ref.tmp3, align 8, !tbaa !20
  call void @_ZN2xt17xtensor_containerINS_7uvectorIdSaIdEEELm3ELNS_11layout_typeE1ENS_22xtensor_expression_tagEEC2ERKSt5arrayImLm3EERKdS4_(ptr noundef nonnull align 8 dereferenceable(120) %agg.result, ptr noundef nonnull align 8 dereferenceable(24) %ref.tmp, ptr noundef nonnull align 8 dereferenceable(8) %ref.tmp3, i32 noundef 1)
  call void @llvm.lifetime.end.p0(i64 8, ptr %ref.tmp3) #6
  call void @llvm.lifetime.end.p0(i64 24, ptr %ref.tmp) #6
  call void @llvm.lifetime.start.p0(i64 4, ptr %gin) #6
  store i32 0, ptr %gin, align 4, !tbaa !18
  br label %for.cond

for.cond:                                         ; preds = %for.inc42, %entry
  %4 = load i32, ptr %gin, align 4, !tbaa !18
  %conv = sext i32 %4 to i64
  %5 = load i64, ptr %groups, align 8, !tbaa !36
  %cmp = icmp ult i64 %conv, %5
  br i1 %cmp, label %for.body, label %for.cond.cleanup

for.cond.cleanup:                                 ; preds = %for.cond
  store i32 2, ptr %cleanup.dest.slot, align 4
  call void @llvm.lifetime.end.p0(i64 4, ptr %gin) #6
  br label %for.end45

for.body:                                         ; preds = %for.cond
  call void @llvm.lifetime.start.p0(i64 4, ptr %i_gout) #6
  store i32 0, ptr %i_gout, align 4, !tbaa !18
  br label %for.cond4

for.cond4:                                        ; preds = %for.inc38, %for.body
  %6 = load i32, ptr %i_gout, align 4, !tbaa !18
  %conv5 = sext i32 %6 to i64
  %energy6 = getelementptr inbounds nuw %"class.openmc::ScattData", ptr %this1, i32 0, i32 1
  %7 = load i32, ptr %gin, align 4, !tbaa !18
  %conv7 = sext i32 %7 to i64
  %call8 = call noundef nonnull align 8 dereferenceable(24) ptr @_ZNSt6vectorIS_IdSaIdEESaIS1_EEixEm(ptr noundef nonnull align 8 dereferenceable(24) %energy6, i64 noundef %conv7) #6
  %call9 = call noundef i64 @_ZNKSt6vectorIdSaIdEE4sizeEv(ptr noundef nonnull align 8 dereferenceable(24) %call8) #6
  %cmp10 = icmp ult i64 %conv5, %call9
  br i1 %cmp10, label %for.body12, label %for.cond.cleanup11

for.cond.cleanup11:                               ; preds = %for.cond4
  store i32 5, ptr %cleanup.dest.slot, align 4
  call void @llvm.lifetime.end.p0(i64 4, ptr %i_gout) #6
  br label %for.end41

for.body12:                                       ; preds = %for.cond4
  call void @llvm.lifetime.start.p0(i64 4, ptr %gout) #6
  %8 = load i32, ptr %i_gout, align 4, !tbaa !18
  %gmin = getelementptr inbounds nuw %"class.openmc::ScattData", ptr %this1, i32 0, i32 4
  %9 = load i32, ptr %gin, align 4, !tbaa !18
  %conv13 = sext i32 %9 to i64
  %call14 = invoke noundef nonnull align 4 dereferenceable(4) ptr @_ZN2xt11xaccessibleINS_17xtensor_containerINS_7uvectorIiSaIiEEELm1ELNS_11layout_typeE1ENS_22xtensor_expression_tagEEEEixEm(ptr noundef nonnull align 1 dereferenceable(1) %gmin, i64 noundef %conv13)
          to label %invoke.cont unwind label %lpad

invoke.cont:                                      ; preds = %for.body12
  %10 = load i32, ptr %call14, align 4, !tbaa !18
  %add15 = add nsw i32 %8, %10
  store i32 %add15, ptr %gout, align 4, !tbaa !18
  call void @llvm.lifetime.start.p0(i64 4, ptr %l) #6
  store i32 0, ptr %l, align 4, !tbaa !18
  br label %for.cond16

for.cond16:                                       ; preds = %for.inc, %invoke.cont
  %11 = load i32, ptr %l, align 4, !tbaa !18
  %conv17 = sext i32 %11 to i64
  %12 = load i64, ptr %order_dim, align 8, !tbaa !36
  %cmp18 = icmp ult i64 %conv17, %12
  br i1 %cmp18, label %for.body20, label %for.cond.cleanup19

for.cond.cleanup19:                               ; preds = %for.cond16
  store i32 8, ptr %cleanup.dest.slot, align 4
  call void @llvm.lifetime.end.p0(i64 4, ptr %l) #6
  br label %for.end

lpad:                                             ; preds = %for.body12
  %13 = landingpad { ptr, i32 }
          cleanup
  %14 = extractvalue { ptr, i32 } %13, 0
  store ptr %14, ptr %exn.slot, align 8
  %15 = extractvalue { ptr, i32 } %13, 1
  store i32 %15, ptr %ehselector.slot, align 4
  br label %ehcleanup

for.body20:                                       ; preds = %for.cond16
  %scattxs = getelementptr inbounds nuw %"class.openmc::ScattData", ptr %this1, i32 0, i32 6
  %16 = load i32, ptr %gin, align 4, !tbaa !18
  %conv21 = sext i32 %16 to i64
  %call24 = invoke noundef nonnull align 8 dereferenceable(8) ptr @_ZN2xt11xaccessibleINS_17xtensor_containerINS_7uvectorIdSaIdEEELm1ELNS_11layout_typeE1ENS_22xtensor_expression_tagEEEEixEm(ptr noundef nonnull align 1 dereferenceable(1) %scattxs, i64 noundef %conv21)
          to label %invoke.cont23 unwind label %lpad22

invoke.cont23:                                    ; preds = %for.body20
  %17 = load double, ptr %call24, align 8, !tbaa !20
  %energy25 = getelementptr inbounds nuw %"class.openmc::ScattData", ptr %this1, i32 0, i32 1
  %18 = load i32, ptr %gin, align 4, !tbaa !18
  %conv26 = sext i32 %18 to i64
  %call27 = call noundef nonnull align 8 dereferenceable(24) ptr @_ZNSt6vectorIS_IdSaIdEESaIS1_EEixEm(ptr noundef nonnull align 8 dereferenceable(24) %energy25, i64 noundef %conv26) #6
  %19 = load i32, ptr %i_gout, align 4, !tbaa !18
  %conv28 = sext i32 %19 to i64
  %call29 = call noundef nonnull align 8 dereferenceable(8) ptr @_ZNSt6vectorIdSaIdEEixEm(ptr noundef nonnull align 8 dereferenceable(24) %call27, i64 noundef %conv28) #6
  %20 = load double, ptr %call29, align 8, !tbaa !20
  %mul = fmul double %17, %20
  %dist = getelementptr inbounds nuw %"class.openmc::ScattData", ptr %this1, i32 0, i32 3
  %21 = load i32, ptr %gin, align 4, !tbaa !18
  %conv30 = sext i32 %21 to i64
  %call31 = call noundef nonnull align 8 dereferenceable(24) ptr @_ZNSt6vectorIS_IS_IdSaIdEESaIS1_EESaIS3_EEixEm(ptr noundef nonnull align 8 dereferenceable(24) %dist, i64 noundef %conv30) #6
  %22 = load i32, ptr %i_gout, align 4, !tbaa !18
  %conv32 = sext i32 %22 to i64
  %call33 = call noundef nonnull align 8 dereferenceable(24) ptr @_ZNSt6vectorIS_IdSaIdEESaIS1_EEixEm(ptr noundef nonnull align 8 dereferenceable(24) %call31, i64 noundef %conv32) #6
  %23 = load i32, ptr %l, align 4, !tbaa !18
  %conv34 = sext i32 %23 to i64
  %call35 = call noundef nonnull align 8 dereferenceable(8) ptr @_ZNSt6vectorIdSaIdEEixEm(ptr noundef nonnull align 8 dereferenceable(24) %call33, i64 noundef %conv34) #6
  %24 = load double, ptr %call35, align 8, !tbaa !20
  %mul36 = fmul double %mul, %24
  %25 = load i32, ptr %gin, align 4, !tbaa !18
  %26 = load i32, ptr %gout, align 4, !tbaa !18
  %27 = load i32, ptr %l, align 4, !tbaa !18
  %call37 = call noundef nonnull align 8 dereferenceable(8) ptr @_ZN2xt10xcontainerINS_17xtensor_containerINS_7uvectorIdSaIdEEELm3ELNS_11layout_typeE1ENS_22xtensor_expression_tagEEEEclIJiiiEEERdDpT_(ptr noundef nonnull align 1 dereferenceable(1) %agg.result, i32 noundef %25, i32 noundef %26, i32 noundef %27)
  store double %mul36, ptr %call37, align 8, !tbaa !20
  br label %for.inc

for.inc:                                          ; preds = %invoke.cont23
  %28 = load i32, ptr %l, align 4, !tbaa !18
  %inc = add nsw i32 %28, 1
  store i32 %inc, ptr %l, align 4, !tbaa !18
  br label %for.cond16, !llvm.loop !51

lpad22:                                           ; preds = %for.body20
  %29 = landingpad { ptr, i32 }
          cleanup
  %30 = extractvalue { ptr, i32 } %29, 0
  store ptr %30, ptr %exn.slot, align 8
  %31 = extractvalue { ptr, i32 } %29, 1
  store i32 %31, ptr %ehselector.slot, align 4
  call void @llvm.lifetime.end.p0(i64 4, ptr %l) #6
  br label %ehcleanup

for.end:                                          ; preds = %for.cond.cleanup19
  call void @llvm.lifetime.end.p0(i64 4, ptr %gout) #6
  br label %for.inc38

for.inc38:                                        ; preds = %for.end
  %32 = load i32, ptr %i_gout, align 4, !tbaa !18
  %inc39 = add nsw i32 %32, 1
  store i32 %inc39, ptr %i_gout, align 4, !tbaa !18
  br label %for.cond4, !llvm.loop !52

ehcleanup:                                        ; preds = %lpad22, %lpad
  call void @llvm.lifetime.end.p0(i64 4, ptr %gout) #6
  call void @llvm.lifetime.end.p0(i64 4, ptr %i_gout) #6
  call void @llvm.lifetime.end.p0(i64 4, ptr %gin) #6
  call void @_ZN2xt17xtensor_containerINS_7uvectorIdSaIdEEELm3ELNS_11layout_typeE1ENS_22xtensor_expression_tagEED2Ev(ptr noundef nonnull align 8 dereferenceable(120) %agg.result) #6
  call void @llvm.lifetime.end.p0(i64 8, ptr %order_dim) #6
  call void @llvm.lifetime.end.p0(i64 8, ptr %groups) #6
  br label %eh.resume

for.end41:                                        ; preds = %for.cond.cleanup11
  br label %for.inc42

for.inc42:                                        ; preds = %for.end41
  %33 = load i32, ptr %gin, align 4, !tbaa !18
  %inc43 = add nsw i32 %33, 1
  store i32 %inc43, ptr %gin, align 4, !tbaa !18
  br label %for.cond, !llvm.loop !53

for.end45:                                        ; preds = %for.cond.cleanup
  store i1 true, ptr %nrvo, align 1
  store i32 1, ptr %cleanup.dest.slot, align 4
  %nrvo.val = load i1, ptr %nrvo, align 1
  br i1 %nrvo.val, label %nrvo.skipdtor, label %nrvo.unused

nrvo.unused:                                      ; preds = %for.end45
  call void @_ZN2xt17xtensor_containerINS_7uvectorIdSaIdEEELm3ELNS_11layout_typeE1ENS_22xtensor_expression_tagEED2Ev(ptr noundef nonnull align 8 dereferenceable(120) %agg.result) #6
  br label %nrvo.skipdtor

nrvo.skipdtor:                                    ; preds = %nrvo.unused, %for.end45
  call void @llvm.lifetime.end.p0(i64 8, ptr %order_dim) #6
  call void @llvm.lifetime.end.p0(i64 8, ptr %groups) #6
  ret void

eh.resume:                                        ; preds = %ehcleanup
  %exn = load ptr, ptr %exn.slot, align 8
  %sel = load i32, ptr %ehselector.slot, align 4
  %lpad.val = insertvalue { ptr, i32 } poison, ptr %exn, 0
  %lpad.val49 = insertvalue { ptr, i32 } %lpad.val, i32 %sel, 1
  resume { ptr, i32 } %lpad.val49
}

; Function Attrs: inlinehint mustprogress nounwind uwtable
define linkonce_odr void @_ZN6openmc18ScattDataHistogramD2Ev(ptr noundef nonnull align 8 dereferenceable(400) %this) unnamed_addr #0 comdat align 2 {
entry:
  %this.addr = alloca ptr, align 8
  store ptr %this, ptr %this.addr, align 8, !tbaa !54
  %this1 = load ptr, ptr %this.addr, align 8
  store ptr getelementptr inbounds inrange(-16, 64) ({ [10 x ptr] }, ptr @_ZTVN6openmc18ScattDataHistogramE, i32 0, i32 0, i32 2), ptr %this1, align 8, !tbaa !16
  %fmu = getelementptr inbounds nuw %"class.openmc::ScattDataHistogram", ptr %this1, i32 0, i32 3
  call void @_ZNSt6vectorIS_IS_IdSaIdEESaIS1_EESaIS3_EED2Ev(ptr noundef nonnull align 8 dereferenceable(24) %fmu) #6
  %mu = getelementptr inbounds nuw %"class.openmc::ScattDataHistogram", ptr %this1, i32 0, i32 1
  call void @_ZN2xt17xtensor_containerINS_7uvectorIdSaIdEEELm1ELNS_11layout_typeE1ENS_22xtensor_expression_tagEED2Ev(ptr noundef nonnull align 8 dereferenceable(72) %mu) #6
  call void @_ZN6openmc9ScattDataD2Ev(ptr noundef nonnull align 8 dereferenceable(296) %this1) #6
  ret void
}

; Function Attrs: inlinehint mustprogress nounwind uwtable
define linkonce_odr void @_ZN6openmc18ScattDataHistogramD0Ev(ptr noundef nonnull align 8 dereferenceable(400) %this) unnamed_addr #0 comdat align 2 {
entry:
  %this.addr = alloca ptr, align 8
  store ptr %this, ptr %this.addr, align 8, !tbaa !54
  %this1 = load ptr, ptr %this.addr, align 8
  call void @_ZN6openmc18ScattDataHistogramD2Ev(ptr noundef nonnull align 8 dereferenceable(400) %this1) #6
  call void @_ZdlPvm(ptr noundef %this1, i64 noundef 400) #27
  ret void
}

; Function Attrs: mustprogress uwtable
define noundef double @_ZN6openmc18ScattDataHistogram6calc_fEiid(ptr noundef nonnull align 8 dereferenceable(400) %this, i32 noundef %gin, i32 noundef %gout, double noundef %mu) unnamed_addr #1 align 2 {
entry:
  %this.addr = alloca ptr, align 8
  %gin.addr = alloca i32, align 4
  %gout.addr = alloca i32, align 4
  %mu.addr = alloca double, align 8
  %f = alloca double, align 8
  %i_gout = alloca i32, align 4
  %imu = alloca i32, align 4
  store ptr %this, ptr %this.addr, align 8, !tbaa !54
  store i32 %gin, ptr %gin.addr, align 4, !tbaa !18
  store i32 %gout, ptr %gout.addr, align 4, !tbaa !18
  store double %mu, ptr %mu.addr, align 8, !tbaa !20
  %this1 = load ptr, ptr %this.addr, align 8
  call void @llvm.lifetime.start.p0(i64 8, ptr %f) #6
  %0 = load i32, ptr %gout.addr, align 4, !tbaa !18
  %gmin = getelementptr inbounds nuw %"class.openmc::ScattData", ptr %this1, i32 0, i32 4
  %1 = load i32, ptr %gin.addr, align 4, !tbaa !18
  %conv = sext i32 %1 to i64
  %call = call noundef nonnull align 4 dereferenceable(4) ptr @_ZN2xt11xaccessibleINS_17xtensor_containerINS_7uvectorIiSaIiEEELm1ELNS_11layout_typeE1ENS_22xtensor_expression_tagEEEEixEm(ptr noundef nonnull align 1 dereferenceable(1) %gmin, i64 noundef %conv)
  %2 = load i32, ptr %call, align 4, !tbaa !18
  %cmp = icmp slt i32 %0, %2
  br i1 %cmp, label %if.then, label %lor.lhs.false

lor.lhs.false:                                    ; preds = %entry
  %3 = load i32, ptr %gout.addr, align 4, !tbaa !18
  %gmax = getelementptr inbounds nuw %"class.openmc::ScattData", ptr %this1, i32 0, i32 5
  %4 = load i32, ptr %gin.addr, align 4, !tbaa !18
  %conv2 = sext i32 %4 to i64
  %call3 = call noundef nonnull align 4 dereferenceable(4) ptr @_ZN2xt11xaccessibleINS_17xtensor_containerINS_7uvectorIiSaIiEEELm1ELNS_11layout_typeE1ENS_22xtensor_expression_tagEEEEixEm(ptr noundef nonnull align 1 dereferenceable(1) %gmax, i64 noundef %conv2)
  %5 = load i32, ptr %call3, align 4, !tbaa !18
  %cmp4 = icmp sgt i32 %3, %5
  br i1 %cmp4, label %if.then, label %if.else

if.then:                                          ; preds = %lor.lhs.false, %entry
  store double 0.000000e+00, ptr %f, align 8, !tbaa !20
  br label %if.end25

if.else:                                          ; preds = %lor.lhs.false
  call void @llvm.lifetime.start.p0(i64 4, ptr %i_gout) #6
  %6 = load i32, ptr %gout.addr, align 4, !tbaa !18
  %gmin5 = getelementptr inbounds nuw %"class.openmc::ScattData", ptr %this1, i32 0, i32 4
  %7 = load i32, ptr %gin.addr, align 4, !tbaa !18
  %conv6 = sext i32 %7 to i64
  %call7 = call noundef nonnull align 4 dereferenceable(4) ptr @_ZN2xt11xaccessibleINS_17xtensor_containerINS_7uvectorIiSaIiEEELm1ELNS_11layout_typeE1ENS_22xtensor_expression_tagEEEEixEm(ptr noundef nonnull align 1 dereferenceable(1) %gmin5, i64 noundef %conv6)
  %8 = load i32, ptr %call7, align 4, !tbaa !18
  %sub = sub nsw i32 %6, %8
  store i32 %sub, ptr %i_gout, align 4, !tbaa !18
  call void @llvm.lifetime.start.p0(i64 4, ptr %imu) #6
  %9 = load double, ptr %mu.addr, align 8, !tbaa !20
  %cmp8 = fcmp oeq double %9, 1.000000e+00
  br i1 %cmp8, label %if.then9, label %if.else15

if.then9:                                         ; preds = %if.else
  %mu10 = getelementptr inbounds nuw %"class.openmc::ScattDataHistogram", ptr %this1, i32 0, i32 1
  %call11 = call noundef nonnull align 8 dereferenceable(8) ptr @_ZNK2xt10xcontainerINS_17xtensor_containerINS_7uvectorIdSaIdEEELm1ELNS_11layout_typeE1ENS_22xtensor_expression_tagEEEE5shapeEv(ptr noundef nonnull align 1 dereferenceable(1) %mu10) #6
  %call12 = call noundef nonnull align 8 dereferenceable(8) ptr @_ZNKSt5arrayImLm1EEixEm(ptr noundef nonnull align 8 dereferenceable(8) %call11, i64 noundef 0) #6
  %10 = load i64, ptr %call12, align 8, !tbaa !36
  %sub13 = sub i64 %10, 2
  %conv14 = trunc i64 %sub13 to i32
  store i32 %conv14, ptr %imu, align 4, !tbaa !18
  br label %if.end

if.else15:                                        ; preds = %if.else
  %11 = load double, ptr %mu.addr, align 8, !tbaa !20
  %add = fadd double %11, 1.000000e+00
  %dmu = getelementptr inbounds nuw %"class.openmc::ScattDataHistogram", ptr %this1, i32 0, i32 2
  %12 = load double, ptr %dmu, align 8, !tbaa !56
  %div = fdiv double %add, %12
  %add16 = fadd double %div, 1.000000e+00
  %13 = call double @llvm.floor.f64(double %add16)
  %sub17 = fsub double %13, 1.000000e+00
  %conv18 = fptosi double %sub17 to i32
  store i32 %conv18, ptr %imu, align 4, !tbaa !18
  br label %if.end

if.end:                                           ; preds = %if.else15, %if.then9
  %fmu = getelementptr inbounds nuw %"class.openmc::ScattDataHistogram", ptr %this1, i32 0, i32 3
  %14 = load i32, ptr %gin.addr, align 4, !tbaa !18
  %conv19 = sext i32 %14 to i64
  %call20 = call noundef nonnull align 8 dereferenceable(24) ptr @_ZNSt6vectorIS_IS_IdSaIdEESaIS1_EESaIS3_EEixEm(ptr noundef nonnull align 8 dereferenceable(24) %fmu, i64 noundef %conv19) #6
  %15 = load i32, ptr %i_gout, align 4, !tbaa !18
  %conv21 = sext i32 %15 to i64
  %call22 = call noundef nonnull align 8 dereferenceable(24) ptr @_ZNSt6vectorIS_IdSaIdEESaIS1_EEixEm(ptr noundef nonnull align 8 dereferenceable(24) %call20, i64 noundef %conv21) #6
  %16 = load i32, ptr %imu, align 4, !tbaa !18
  %conv23 = sext i32 %16 to i64
  %call24 = call noundef nonnull align 8 dereferenceable(8) ptr @_ZNSt6vectorIdSaIdEEixEm(ptr noundef nonnull align 8 dereferenceable(24) %call22, i64 noundef %conv23) #6
  %17 = load double, ptr %call24, align 8, !tbaa !20
  store double %17, ptr %f, align 8, !tbaa !20
  call void @llvm.lifetime.end.p0(i64 4, ptr %imu) #6
  call void @llvm.lifetime.end.p0(i64 4, ptr %i_gout) #6
  br label %if.end25

if.end25:                                         ; preds = %if.end, %if.then
  %18 = load double, ptr %f, align 8, !tbaa !20
  call void @llvm.lifetime.end.p0(i64 8, ptr %f) #6
  ret double %18
}

; Function Attrs: mustprogress uwtable
define void @_ZN6openmc18ScattDataHistogram6sampleEiRiRdS2_Pm(ptr noundef nonnull align 8 dereferenceable(400) %this, i32 noundef %gin, ptr noundef nonnull align 4 dereferenceable(4) %gout, ptr noundef nonnull align 8 dereferenceable(8) %mu, ptr noundef nonnull align 8 dereferenceable(8) %wgt, ptr noundef %seed) unnamed_addr #1 align 2 {
entry:
  %this.addr = alloca ptr, align 8
  %gin.addr = alloca i32, align 4
  %gout.addr = alloca ptr, align 8
  %mu.addr = alloca ptr, align 8
  %wgt.addr = alloca ptr, align 8
  %seed.addr = alloca ptr, align 8
  %i_gout = alloca i32, align 4
  %xi = alloca double, align 8
  %imu = alloca i32, align 4
  %ref.tmp = alloca %"class.__gnu_cxx::__normal_iterator", align 8
  %agg.tmp = alloca %"class.__gnu_cxx::__normal_iterator", align 8
  %agg.tmp12 = alloca %"class.__gnu_cxx::__normal_iterator", align 8
  %ref.tmp24 = alloca %"class.__gnu_cxx::__normal_iterator", align 8
  store ptr %this, ptr %this.addr, align 8, !tbaa !54
  store i32 %gin, ptr %gin.addr, align 4, !tbaa !18
  store ptr %gout, ptr %gout.addr, align 8, !tbaa !22
  store ptr %mu, ptr %mu.addr, align 8, !tbaa !24
  store ptr %wgt, ptr %wgt.addr, align 8, !tbaa !24
  store ptr %seed, ptr %seed.addr, align 8, !tbaa !26
  %this1 = load ptr, ptr %this.addr, align 8
  call void @llvm.lifetime.start.p0(i64 4, ptr %i_gout) #6
  %0 = load i32, ptr %gin.addr, align 4, !tbaa !18
  %1 = load ptr, ptr %gout.addr, align 8, !tbaa !22
  %2 = load ptr, ptr %seed.addr, align 8, !tbaa !26
  call void @_ZN6openmc9ScattData13sample_energyEiRiS1_Pm(ptr noundef nonnull align 8 dereferenceable(296) %this1, i32 noundef %0, ptr noundef nonnull align 4 dereferenceable(4) %1, ptr noundef nonnull align 4 dereferenceable(4) %i_gout, ptr noundef %2)
  call void @llvm.lifetime.start.p0(i64 8, ptr %xi) #6
  %3 = load ptr, ptr %seed.addr, align 8, !tbaa !26
  %call = call noundef double @_ZN6openmc3prnEPm(ptr noundef %3)
  store double %call, ptr %xi, align 8, !tbaa !20
  call void @llvm.lifetime.start.p0(i64 4, ptr %imu) #6
  %4 = load double, ptr %xi, align 8, !tbaa !20
  %dist = getelementptr inbounds nuw %"class.openmc::ScattData", ptr %this1, i32 0, i32 3
  %5 = load i32, ptr %gin.addr, align 4, !tbaa !18
  %conv = sext i32 %5 to i64
  %call2 = call noundef nonnull align 8 dereferenceable(24) ptr @_ZNSt6vectorIS_IS_IdSaIdEESaIS1_EESaIS3_EEixEm(ptr noundef nonnull align 8 dereferenceable(24) %dist, i64 noundef %conv) #6
  %6 = load i32, ptr %i_gout, align 4, !tbaa !18
  %conv3 = sext i32 %6 to i64
  %call4 = call noundef nonnull align 8 dereferenceable(24) ptr @_ZNSt6vectorIS_IdSaIdEESaIS1_EEixEm(ptr noundef nonnull align 8 dereferenceable(24) %call2, i64 noundef %conv3) #6
  %call5 = call noundef nonnull align 8 dereferenceable(8) ptr @_ZNSt6vectorIdSaIdEEixEm(ptr noundef nonnull align 8 dereferenceable(24) %call4, i64 noundef 0) #6
  %7 = load double, ptr %call5, align 8, !tbaa !20
  %cmp = fcmp olt double %4, %7
  br i1 %cmp, label %if.then, label %if.else

if.then:                                          ; preds = %entry
  store i32 0, ptr %imu, align 4, !tbaa !18
  br label %if.end

if.else:                                          ; preds = %entry
  call void @llvm.lifetime.start.p0(i64 8, ptr %ref.tmp) #6
  %dist6 = getelementptr inbounds nuw %"class.openmc::ScattData", ptr %this1, i32 0, i32 3
  %8 = load i32, ptr %gin.addr, align 4, !tbaa !18
  %conv7 = sext i32 %8 to i64
  %call8 = call noundef nonnull align 8 dereferenceable(24) ptr @_ZNSt6vectorIS_IS_IdSaIdEESaIS1_EESaIS3_EEixEm(ptr noundef nonnull align 8 dereferenceable(24) %dist6, i64 noundef %conv7) #6
  %9 = load i32, ptr %i_gout, align 4, !tbaa !18
  %conv9 = sext i32 %9 to i64
  %call10 = call noundef nonnull align 8 dereferenceable(24) ptr @_ZNSt6vectorIS_IdSaIdEESaIS1_EEixEm(ptr noundef nonnull align 8 dereferenceable(24) %call8, i64 noundef %conv9) #6
  %call11 = call ptr @_ZNSt6vectorIdSaIdEE5beginEv(ptr noundef nonnull align 8 dereferenceable(24) %call10) #6
  %coerce.dive = getelementptr inbounds nuw %"class.__gnu_cxx::__normal_iterator", ptr %agg.tmp, i32 0, i32 0
  store ptr %call11, ptr %coerce.dive, align 8
  %dist13 = getelementptr inbounds nuw %"class.openmc::ScattData", ptr %this1, i32 0, i32 3
  %10 = load i32, ptr %gin.addr, align 4, !tbaa !18
  %conv14 = sext i32 %10 to i64
  %call15 = call noundef nonnull align 8 dereferenceable(24) ptr @_ZNSt6vectorIS_IS_IdSaIdEESaIS1_EESaIS3_EEixEm(ptr noundef nonnull align 8 dereferenceable(24) %dist13, i64 noundef %conv14) #6
  %11 = load i32, ptr %i_gout, align 4, !tbaa !18
  %conv16 = sext i32 %11 to i64
  %call17 = call noundef nonnull align 8 dereferenceable(24) ptr @_ZNSt6vectorIS_IdSaIdEESaIS1_EEixEm(ptr noundef nonnull align 8 dereferenceable(24) %call15, i64 noundef %conv16) #6
  %call18 = call ptr @_ZNSt6vectorIdSaIdEE3endEv(ptr noundef nonnull align 8 dereferenceable(24) %call17) #6
  %coerce.dive19 = getelementptr inbounds nuw %"class.__gnu_cxx::__normal_iterator", ptr %agg.tmp12, i32 0, i32 0
  store ptr %call18, ptr %coerce.dive19, align 8
  %coerce.dive20 = getelementptr inbounds nuw %"class.__gnu_cxx::__normal_iterator", ptr %agg.tmp, i32 0, i32 0
  %12 = load ptr, ptr %coerce.dive20, align 8
  %coerce.dive21 = getelementptr inbounds nuw %"class.__gnu_cxx::__normal_iterator", ptr %agg.tmp12, i32 0, i32 0
  %13 = load ptr, ptr %coerce.dive21, align 8
  %call22 = call ptr @_ZSt11upper_boundIN9__gnu_cxx17__normal_iteratorIPdSt6vectorIdSaIdEEEEdET_S7_S7_RKT0_(ptr %12, ptr %13, ptr noundef nonnull align 8 dereferenceable(8) %xi)
  %coerce.dive23 = getelementptr inbounds nuw %"class.__gnu_cxx::__normal_iterator", ptr %ref.tmp, i32 0, i32 0
  store ptr %call22, ptr %coerce.dive23, align 8
  call void @llvm.lifetime.start.p0(i64 8, ptr %ref.tmp24) #6
  %dist25 = getelementptr inbounds nuw %"class.openmc::ScattData", ptr %this1, i32 0, i32 3
  %14 = load i32, ptr %gin.addr, align 4, !tbaa !18
  %conv26 = sext i32 %14 to i64
  %call27 = call noundef nonnull align 8 dereferenceable(24) ptr @_ZNSt6vectorIS_IS_IdSaIdEESaIS1_EESaIS3_EEixEm(ptr noundef nonnull align 8 dereferenceable(24) %dist25, i64 noundef %conv26) #6
  %15 = load i32, ptr %i_gout, align 4, !tbaa !18
  %conv28 = sext i32 %15 to i64
  %call29 = call noundef nonnull align 8 dereferenceable(24) ptr @_ZNSt6vectorIS_IdSaIdEESaIS1_EEixEm(ptr noundef nonnull align 8 dereferenceable(24) %call27, i64 noundef %conv28) #6
  %call30 = call ptr @_ZNSt6vectorIdSaIdEE5beginEv(ptr noundef nonnull align 8 dereferenceable(24) %call29) #6
  %coerce.dive31 = getelementptr inbounds nuw %"class.__gnu_cxx::__normal_iterator", ptr %ref.tmp24, i32 0, i32 0
  store ptr %call30, ptr %coerce.dive31, align 8
  %call32 = call noundef i64 @_ZN9__gnu_cxxmiIPdSt6vectorIdSaIdEEEENS_17__normal_iteratorIT_T0_E15difference_typeERKS8_SB_(ptr noundef nonnull align 8 dereferenceable(8) %ref.tmp, ptr noundef nonnull align 8 dereferenceable(8) %ref.tmp24) #6
  %conv33 = trunc i64 %call32 to i32
  store i32 %conv33, ptr %imu, align 4, !tbaa !18
  call void @llvm.lifetime.end.p0(i64 8, ptr %ref.tmp24) #6
  call void @llvm.lifetime.end.p0(i64 8, ptr %ref.tmp) #6
  br label %if.end

if.end:                                           ; preds = %if.else, %if.then
  %16 = load ptr, ptr %seed.addr, align 8, !tbaa !26
  %call34 = call noundef double @_ZN6openmc3prnEPm(ptr noundef %16)
  %dmu = getelementptr inbounds nuw %"class.openmc::ScattDataHistogram", ptr %this1, i32 0, i32 2
  %17 = load double, ptr %dmu, align 8, !tbaa !56
  %mu35 = getelementptr inbounds nuw %"class.openmc::ScattDataHistogram", ptr %this1, i32 0, i32 1
  %18 = load i32, ptr %imu, align 4, !tbaa !18
  %conv36 = sext i32 %18 to i64
  %call37 = call noundef nonnull align 8 dereferenceable(8) ptr @_ZN2xt11xaccessibleINS_17xtensor_containerINS_7uvectorIdSaIdEEELm1ELNS_11layout_typeE1ENS_22xtensor_expression_tagEEEEixEm(ptr noundef nonnull align 1 dereferenceable(1) %mu35, i64 noundef %conv36)
  %19 = load double, ptr %call37, align 8, !tbaa !20
  %20 = call double @llvm.fmuladd.f64(double %call34, double %17, double %19)
  %21 = load ptr, ptr %mu.addr, align 8, !tbaa !24
  store double %20, ptr %21, align 8, !tbaa !20
  %22 = load ptr, ptr %mu.addr, align 8, !tbaa !24
  %23 = load double, ptr %22, align 8, !tbaa !20
  %cmp38 = fcmp olt double %23, -1.000000e+00
  br i1 %cmp38, label %if.then39, label %if.else40

if.then39:                                        ; preds = %if.end
  %24 = load ptr, ptr %mu.addr, align 8, !tbaa !24
  store double -1.000000e+00, ptr %24, align 8, !tbaa !20
  br label %if.end44

if.else40:                                        ; preds = %if.end
  %25 = load ptr, ptr %mu.addr, align 8, !tbaa !24
  %26 = load double, ptr %25, align 8, !tbaa !20
  %cmp41 = fcmp ogt double %26, 1.000000e+00
  br i1 %cmp41, label %if.then42, label %if.end43

if.then42:                                        ; preds = %if.else40
  %27 = load ptr, ptr %mu.addr, align 8, !tbaa !24
  store double 1.000000e+00, ptr %27, align 8, !tbaa !20
  br label %if.end43

if.end43:                                         ; preds = %if.then42, %if.else40
  br label %if.end44

if.end44:                                         ; preds = %if.end43, %if.then39
  %mult = getelementptr inbounds nuw %"class.openmc::ScattData", ptr %this1, i32 0, i32 2
  %28 = load i32, ptr %gin.addr, align 4, !tbaa !18
  %conv45 = sext i32 %28 to i64
  %call46 = call noundef nonnull align 8 dereferenceable(24) ptr @_ZNSt6vectorIS_IdSaIdEESaIS1_EEixEm(ptr noundef nonnull align 8 dereferenceable(24) %mult, i64 noundef %conv45) #6
  %29 = load i32, ptr %i_gout, align 4, !tbaa !18
  %conv47 = sext i32 %29 to i64
  %call48 = call noundef nonnull align 8 dereferenceable(8) ptr @_ZNSt6vectorIdSaIdEEixEm(ptr noundef nonnull align 8 dereferenceable(24) %call46, i64 noundef %conv47) #6
  %30 = load double, ptr %call48, align 8, !tbaa !20
  %31 = load ptr, ptr %wgt.addr, align 8, !tbaa !24
  %32 = load double, ptr %31, align 8, !tbaa !20
  %mul = fmul double %32, %30
  store double %mul, ptr %31, align 8, !tbaa !20
  call void @llvm.lifetime.end.p0(i64 4, ptr %imu) #6
  call void @llvm.lifetime.end.p0(i64 8, ptr %xi) #6
  call void @llvm.lifetime.end.p0(i64 4, ptr %i_gout) #6
  ret void
}

; Function Attrs: mustprogress uwtable
define void @_ZN6openmc18ScattDataHistogram4initERKN2xt17xtensor_containerINS1_7uvectorIiSaIiEEELm1ELNS1_11layout_typeE1ENS1_22xtensor_expression_tagEEESA_RKSt6vectorISB_IdSaIdEESaISD_EERKSB_ISF_SaISF_EE(ptr noundef nonnull align 8 dereferenceable(400) %this, ptr noundef nonnull align 8 dereferenceable(72) %in_gmin, ptr noundef nonnull align 8 dereferenceable(72) %in_gmax, ptr noundef nonnull align 8 dereferenceable(24) %in_mult, ptr noundef nonnull align 8 dereferenceable(24) %coeffs) unnamed_addr #1 align 2 personality ptr @__gxx_personality_v0 {
entry:
  %this.addr = alloca ptr, align 8
  %in_gmin.addr = alloca ptr, align 8
  %in_gmax.addr = alloca ptr, align 8
  %in_mult.addr = alloca ptr, align 8
  %coeffs.addr = alloca ptr, align 8
  %groups = alloca i64, align 8
  %order = alloca i64, align 8
  %matrix = alloca %"class.std::vector.21", align 8
  %ref.tmp = alloca %"class.xt::xbroadcast", align 8
  %ref.tmp5 = alloca [1 x i64], align 8
  %exn.slot = alloca ptr, align 8
  %ehselector.slot = alloca i32, align 4
  %gin = alloca i32, align 4
  %cleanup.dest.slot = alloca i32, align 4
  %i_gout = alloca i32, align 4
  %agg.tmp = alloca %"class.__gnu_cxx::__normal_iterator", align 8
  %agg.tmp20 = alloca %"class.__gnu_cxx::__normal_iterator", align 8
  %in_energy = alloca %"class.std::vector", align 8
  %gin40 = alloca i32, align 4
  %num_groups = alloca i32, align 4
  %i_gout58 = alloca i32, align 4
  %norm = alloca double, align 8
  %agg.tmp63 = alloca %"class.__gnu_cxx::__normal_iterator", align 8
  %agg.tmp70 = alloca %"class.__gnu_cxx::__normal_iterator", align 8
  %__range4 = alloca ptr, align 8
  %__begin4 = alloca %"class.__gnu_cxx::__normal_iterator", align 8
  %__end4 = alloca %"class.__gnu_cxx::__normal_iterator", align 8
  %n = alloca ptr, align 8
  %ref.tmp109 = alloca %"class.xt::xgenerator", align 8
  %gin117 = alloca i32, align 4
  %num_groups123 = alloca i32, align 4
  %i_gout138 = alloca i32, align 4
  %imu = alloca i32, align 4
  %norm203 = alloca double, align 8
  %imu213 = alloca i32, align 4
  store ptr %this, ptr %this.addr, align 8, !tbaa !54
  store ptr %in_gmin, ptr %in_gmin.addr, align 8, !tbaa !30
  store ptr %in_gmax, ptr %in_gmax.addr, align 8, !tbaa !30
  store ptr %in_mult, ptr %in_mult.addr, align 8, !tbaa !32
  store ptr %coeffs, ptr %coeffs.addr, align 8, !tbaa !34
  %this1 = load ptr, ptr %this.addr, align 8
  call void @llvm.lifetime.start.p0(i64 8, ptr %groups) #6
  %0 = load ptr, ptr %coeffs.addr, align 8, !tbaa !34
  %call = call noundef i64 @_ZNKSt6vectorIS_IS_IdSaIdEESaIS1_EESaIS3_EE4sizeEv(ptr noundef nonnull align 8 dereferenceable(24) %0) #6
  store i64 %call, ptr %groups, align 8, !tbaa !36
  call void @llvm.lifetime.start.p0(i64 8, ptr %order) #6
  %1 = load ptr, ptr %coeffs.addr, align 8, !tbaa !34
  %call2 = call noundef nonnull align 8 dereferenceable(24) ptr @_ZNKSt6vectorIS_IS_IdSaIdEESaIS1_EESaIS3_EEixEm(ptr noundef nonnull align 8 dereferenceable(24) %1, i64 noundef 0) #6
  %call3 = call noundef nonnull align 8 dereferenceable(24) ptr @_ZNKSt6vectorIS_IdSaIdEESaIS1_EEixEm(ptr noundef nonnull align 8 dereferenceable(24) %call2, i64 noundef 0) #6
  %call4 = call noundef i64 @_ZNKSt6vectorIdSaIdEE4sizeEv(ptr noundef nonnull align 8 dereferenceable(24) %call3) #6
  store i64 %call4, ptr %order, align 8, !tbaa !36
  call void @llvm.lifetime.start.p0(i64 24, ptr %matrix) #6
  %2 = load ptr, ptr %coeffs.addr, align 8, !tbaa !34
  call void @_ZNSt6vectorIS_IS_IdSaIdEESaIS1_EESaIS3_EEC2ERKS5_(ptr noundef nonnull align 8 dereferenceable(24) %matrix, ptr noundef nonnull align 8 dereferenceable(24) %2)
  call void @llvm.lifetime.start.p0(i64 48, ptr %ref.tmp) #6
  call void @llvm.lifetime.start.p0(i64 8, ptr %ref.tmp5) #6
  %3 = load i64, ptr %groups, align 8, !tbaa !36
  store i64 %3, ptr %ref.tmp5, align 8, !tbaa !36
  call void @_ZN2xt5zerosIdmLm1EEEDaRAT1__KT0_(ptr dead_on_unwind writable sret(%"class.xt::xbroadcast") align 8 %ref.tmp, ptr noundef nonnull align 8 dereferenceable(8) %ref.tmp5) #6
  %scattxs = getelementptr inbounds nuw %"class.openmc::ScattData", ptr %this1, i32 0, i32 6
  %call6 = invoke noundef nonnull align 8 dereferenceable(72) ptr @_ZN2xt17xtensor_containerINS_7uvectorIdSaIdEEELm1ELNS_11layout_typeE1ENS_22xtensor_expression_tagEEaSINS_10xbroadcastINS_7xscalarIdEESt5arrayImLm1EEEEEERS6_RKNS_11xexpressionIT_EE(ptr noundef nonnull align 8 dereferenceable(72) %scattxs, ptr noundef nonnull align 1 dereferenceable(1) %ref.tmp)
          to label %invoke.cont unwind label %lpad

invoke.cont:                                      ; preds = %entry
  call void @_ZN2xt10xbroadcastINS_7xscalarIdEESt5arrayImLm1EEED2Ev(ptr noundef nonnull align 8 dereferenceable(48) %ref.tmp) #6
  call void @llvm.lifetime.end.p0(i64 8, ptr %ref.tmp5) #6
  call void @llvm.lifetime.end.p0(i64 48, ptr %ref.tmp) #6
  call void @llvm.lifetime.start.p0(i64 4, ptr %gin) #6
  store i32 0, ptr %gin, align 4, !tbaa !18
  br label %for.cond

for.cond:                                         ; preds = %for.inc35, %invoke.cont
  %4 = load i32, ptr %gin, align 4, !tbaa !18
  %conv = sext i32 %4 to i64
  %5 = load i64, ptr %groups, align 8, !tbaa !36
  %cmp = icmp ult i64 %conv, %5
  br i1 %cmp, label %for.body, label %for.cond.cleanup

for.cond.cleanup:                                 ; preds = %for.cond
  store i32 2, ptr %cleanup.dest.slot, align 4
  call void @llvm.lifetime.end.p0(i64 4, ptr %gin) #6
  br label %for.end37

lpad:                                             ; preds = %entry
  %6 = landingpad { ptr, i32 }
          cleanup
  %7 = extractvalue { ptr, i32 } %6, 0
  store ptr %7, ptr %exn.slot, align 8
  %8 = extractvalue { ptr, i32 } %6, 1
  store i32 %8, ptr %ehselector.slot, align 4
  call void @_ZN2xt10xbroadcastINS_7xscalarIdEESt5arrayImLm1EEED2Ev(ptr noundef nonnull align 8 dereferenceable(48) %ref.tmp) #6
  call void @llvm.lifetime.end.p0(i64 8, ptr %ref.tmp5) #6
  call void @llvm.lifetime.end.p0(i64 48, ptr %ref.tmp) #6
  br label %ehcleanup248

for.body:                                         ; preds = %for.cond
  call void @llvm.lifetime.start.p0(i64 4, ptr %i_gout) #6
  store i32 0, ptr %i_gout, align 4, !tbaa !18
  br label %for.cond7

for.cond7:                                        ; preds = %for.inc, %for.body
  %9 = load i32, ptr %i_gout, align 4, !tbaa !18
  %conv8 = sext i32 %9 to i64
  %10 = load i32, ptr %gin, align 4, !tbaa !18
  %conv9 = sext i32 %10 to i64
  %call10 = call noundef nonnull align 8 dereferenceable(24) ptr @_ZNSt6vectorIS_IS_IdSaIdEESaIS1_EESaIS3_EEixEm(ptr noundef nonnull align 8 dereferenceable(24) %matrix, i64 noundef %conv9) #6
  %call11 = call noundef i64 @_ZNKSt6vectorIS_IdSaIdEESaIS1_EE4sizeEv(ptr noundef nonnull align 8 dereferenceable(24) %call10) #6
  %cmp12 = icmp ult i64 %conv8, %call11
  br i1 %cmp12, label %for.body14, label %for.cond.cleanup13

for.cond.cleanup13:                               ; preds = %for.cond7
  store i32 5, ptr %cleanup.dest.slot, align 4
  call void @llvm.lifetime.end.p0(i64 4, ptr %i_gout) #6
  br label %for.end

for.body14:                                       ; preds = %for.cond7
  %11 = load i32, ptr %gin, align 4, !tbaa !18
  %conv15 = sext i32 %11 to i64
  %call16 = call noundef nonnull align 8 dereferenceable(24) ptr @_ZNSt6vectorIS_IS_IdSaIdEESaIS1_EESaIS3_EEixEm(ptr noundef nonnull align 8 dereferenceable(24) %matrix, i64 noundef %conv15) #6
  %12 = load i32, ptr %i_gout, align 4, !tbaa !18
  %conv17 = sext i32 %12 to i64
  %call18 = call noundef nonnull align 8 dereferenceable(24) ptr @_ZNSt6vectorIS_IdSaIdEESaIS1_EEixEm(ptr noundef nonnull align 8 dereferenceable(24) %call16, i64 noundef %conv17) #6
  %call19 = call ptr @_ZNSt6vectorIdSaIdEE5beginEv(ptr noundef nonnull align 8 dereferenceable(24) %call18) #6
  %coerce.dive = getelementptr inbounds nuw %"class.__gnu_cxx::__normal_iterator", ptr %agg.tmp, i32 0, i32 0
  store ptr %call19, ptr %coerce.dive, align 8
  %13 = load i32, ptr %gin, align 4, !tbaa !18
  %conv21 = sext i32 %13 to i64
  %call22 = call noundef nonnull align 8 dereferenceable(24) ptr @_ZNSt6vectorIS_IS_IdSaIdEESaIS1_EESaIS3_EEixEm(ptr noundef nonnull align 8 dereferenceable(24) %matrix, i64 noundef %conv21) #6
  %14 = load i32, ptr %i_gout, align 4, !tbaa !18
  %conv23 = sext i32 %14 to i64
  %call24 = call noundef nonnull align 8 dereferenceable(24) ptr @_ZNSt6vectorIS_IdSaIdEESaIS1_EEixEm(ptr noundef nonnull align 8 dereferenceable(24) %call22, i64 noundef %conv23) #6
  %call25 = call ptr @_ZNSt6vectorIdSaIdEE3endEv(ptr noundef nonnull align 8 dereferenceable(24) %call24) #6
  %coerce.dive26 = getelementptr inbounds nuw %"class.__gnu_cxx::__normal_iterator", ptr %agg.tmp20, i32 0, i32 0
  store ptr %call25, ptr %coerce.dive26, align 8
  %coerce.dive27 = getelementptr inbounds nuw %"class.__gnu_cxx::__normal_iterator", ptr %agg.tmp, i32 0, i32 0
  %15 = load ptr, ptr %coerce.dive27, align 8
  %coerce.dive28 = getelementptr inbounds nuw %"class.__gnu_cxx::__normal_iterator", ptr %agg.tmp20, i32 0, i32 0
  %16 = load ptr, ptr %coerce.dive28, align 8
  %call29 = call noundef double @_ZSt10accumulateIN9__gnu_cxx17__normal_iteratorIPdSt6vectorIdSaIdEEEEdET0_T_S8_S7_(ptr %15, ptr %16, double noundef 0.000000e+00)
  %scattxs30 = getelementptr inbounds nuw %"class.openmc::ScattData", ptr %this1, i32 0, i32 6
  %17 = load i32, ptr %gin, align 4, !tbaa !18
  %conv31 = sext i32 %17 to i64
  %call34 = invoke noundef nonnull align 8 dereferenceable(8) ptr @_ZN2xt11xaccessibleINS_17xtensor_containerINS_7uvectorIdSaIdEEELm1ELNS_11layout_typeE1ENS_22xtensor_expression_tagEEEEixEm(ptr noundef nonnull align 1 dereferenceable(1) %scattxs30, i64 noundef %conv31)
          to label %invoke.cont33 unwind label %lpad32

invoke.cont33:                                    ; preds = %for.body14
  %18 = load double, ptr %call34, align 8, !tbaa !20
  %add = fadd double %18, %call29
  store double %add, ptr %call34, align 8, !tbaa !20
  br label %for.inc

for.inc:                                          ; preds = %invoke.cont33
  %19 = load i32, ptr %i_gout, align 4, !tbaa !18
  %inc = add nsw i32 %19, 1
  store i32 %inc, ptr %i_gout, align 4, !tbaa !18
  br label %for.cond7, !llvm.loop !91

lpad32:                                           ; preds = %for.body14
  %20 = landingpad { ptr, i32 }
          cleanup
  %21 = extractvalue { ptr, i32 } %20, 0
  store ptr %21, ptr %exn.slot, align 8
  %22 = extractvalue { ptr, i32 } %20, 1
  store i32 %22, ptr %ehselector.slot, align 4
  call void @llvm.lifetime.end.p0(i64 4, ptr %i_gout) #6
  call void @llvm.lifetime.end.p0(i64 4, ptr %gin) #6
  br label %ehcleanup248

for.end:                                          ; preds = %for.cond.cleanup13
  br label %for.inc35

for.inc35:                                        ; preds = %for.end
  %23 = load i32, ptr %gin, align 4, !tbaa !18
  %inc36 = add nsw i32 %23, 1
  store i32 %inc36, ptr %gin, align 4, !tbaa !18
  br label %for.cond, !llvm.loop !92

for.end37:                                        ; preds = %for.cond.cleanup
  call void @llvm.lifetime.start.p0(i64 24, ptr %in_energy) #6
  call void @_ZNSt6vectorIS_IdSaIdEESaIS1_EEC2Ev(ptr noundef nonnull align 8 dereferenceable(24) %in_energy) #6
  %24 = load i64, ptr %groups, align 8, !tbaa !36
  invoke void @_ZNSt6vectorIS_IdSaIdEESaIS1_EE6resizeEm(ptr noundef nonnull align 8 dereferenceable(24) %in_energy, i64 noundef %24)
          to label %invoke.cont39 unwind label %lpad38

invoke.cont39:                                    ; preds = %for.end37
  call void @llvm.lifetime.start.p0(i64 4, ptr %gin40) #6
  store i32 0, ptr %gin40, align 4, !tbaa !18
  br label %for.cond41

for.cond41:                                       ; preds = %for.inc104, %invoke.cont39
  %25 = load i32, ptr %gin40, align 4, !tbaa !18
  %conv42 = sext i32 %25 to i64
  %26 = load i64, ptr %groups, align 8, !tbaa !36
  %cmp43 = icmp ult i64 %conv42, %26
  br i1 %cmp43, label %for.body45, label %for.cond.cleanup44

for.cond.cleanup44:                               ; preds = %for.cond41
  store i32 8, ptr %cleanup.dest.slot, align 4
  call void @llvm.lifetime.end.p0(i64 4, ptr %gin40) #6
  br label %for.end106

lpad38:                                           ; preds = %invoke.cont112, %for.end106, %for.end37
  %27 = landingpad { ptr, i32 }
          cleanup
  %28 = extractvalue { ptr, i32 } %27, 0
  store ptr %28, ptr %exn.slot, align 8
  %29 = extractvalue { ptr, i32 } %27, 1
  store i32 %29, ptr %ehselector.slot, align 4
  br label %ehcleanup246

for.body45:                                       ; preds = %for.cond41
  call void @llvm.lifetime.start.p0(i64 4, ptr %num_groups) #6
  %30 = load ptr, ptr %in_gmax.addr, align 8, !tbaa !30
  %31 = load i32, ptr %gin40, align 4, !tbaa !18
  %conv46 = sext i32 %31 to i64
  %call49 = invoke noundef nonnull align 4 dereferenceable(4) ptr @_ZNK2xt17xconst_accessibleINS_17xtensor_containerINS_7uvectorIiSaIiEEELm1ELNS_11layout_typeE1ENS_22xtensor_expression_tagEEEEixEm(ptr noundef nonnull align 1 dereferenceable(1) %30, i64 noundef %conv46)
          to label %invoke.cont48 unwind label %lpad47

invoke.cont48:                                    ; preds = %for.body45
  %32 = load i32, ptr %call49, align 4, !tbaa !18
  %33 = load ptr, ptr %in_gmin.addr, align 8, !tbaa !30
  %34 = load i32, ptr %gin40, align 4, !tbaa !18
  %conv50 = sext i32 %34 to i64
  %call52 = invoke noundef nonnull align 4 dereferenceable(4) ptr @_ZNK2xt17xconst_accessibleINS_17xtensor_containerINS_7uvectorIiSaIiEEELm1ELNS_11layout_typeE1ENS_22xtensor_expression_tagEEEEixEm(ptr noundef nonnull align 1 dereferenceable(1) %33, i64 noundef %conv50)
          to label %invoke.cont51 unwind label %lpad47

invoke.cont51:                                    ; preds = %invoke.cont48
  %35 = load i32, ptr %call52, align 4, !tbaa !18
  %sub = sub nsw i32 %32, %35
  %add53 = add nsw i32 %sub, 1
  store i32 %add53, ptr %num_groups, align 4, !tbaa !18
  %36 = load i32, ptr %gin40, align 4, !tbaa !18
  %conv54 = sext i32 %36 to i64
  %call55 = call noundef nonnull align 8 dereferenceable(24) ptr @_ZNSt6vectorIS_IdSaIdEESaIS1_EEixEm(ptr noundef nonnull align 8 dereferenceable(24) %in_energy, i64 noundef %conv54) #6
  %37 = load i32, ptr %num_groups, align 4, !tbaa !18
  %conv56 = sext i32 %37 to i64
  invoke void @_ZNSt6vectorIdSaIdEE6resizeEm(ptr noundef nonnull align 8 dereferenceable(24) %call55, i64 noundef %conv56)
          to label %invoke.cont57 unwind label %lpad47

invoke.cont57:                                    ; preds = %invoke.cont51
  call void @llvm.lifetime.start.p0(i64 4, ptr %i_gout58) #6
  store i32 0, ptr %i_gout58, align 4, !tbaa !18
  br label %for.cond59

for.cond59:                                       ; preds = %for.inc101, %invoke.cont57
  %38 = load i32, ptr %i_gout58, align 4, !tbaa !18
  %39 = load i32, ptr %num_groups, align 4, !tbaa !18
  %cmp60 = icmp slt i32 %38, %39
  br i1 %cmp60, label %for.body62, label %for.cond.cleanup61

for.cond.cleanup61:                               ; preds = %for.cond59
  store i32 11, ptr %cleanup.dest.slot, align 4
  call void @llvm.lifetime.end.p0(i64 4, ptr %i_gout58) #6
  br label %for.end103

lpad47:                                           ; preds = %invoke.cont51, %invoke.cont48, %for.body45
  %40 = landingpad { ptr, i32 }
          cleanup
  %41 = extractvalue { ptr, i32 } %40, 0
  store ptr %41, ptr %exn.slot, align 8
  %42 = extractvalue { ptr, i32 } %40, 1
  store i32 %42, ptr %ehselector.slot, align 4
  call void @llvm.lifetime.end.p0(i64 4, ptr %num_groups) #6
  call void @llvm.lifetime.end.p0(i64 4, ptr %gin40) #6
  br label %ehcleanup246

for.body62:                                       ; preds = %for.cond59
  call void @llvm.lifetime.start.p0(i64 8, ptr %norm) #6
  %43 = load i32, ptr %gin40, align 4, !tbaa !18
  %conv64 = sext i32 %43 to i64
  %call65 = call noundef nonnull align 8 dereferenceable(24) ptr @_ZNSt6vectorIS_IS_IdSaIdEESaIS1_EESaIS3_EEixEm(ptr noundef nonnull align 8 dereferenceable(24) %matrix, i64 noundef %conv64) #6
  %44 = load i32, ptr %i_gout58, align 4, !tbaa !18
  %conv66 = sext i32 %44 to i64
  %call67 = call noundef nonnull align 8 dereferenceable(24) ptr @_ZNSt6vectorIS_IdSaIdEESaIS1_EEixEm(ptr noundef nonnull align 8 dereferenceable(24) %call65, i64 noundef %conv66) #6
  %call68 = call ptr @_ZNSt6vectorIdSaIdEE5beginEv(ptr noundef nonnull align 8 dereferenceable(24) %call67) #6
  %coerce.dive69 = getelementptr inbounds nuw %"class.__gnu_cxx::__normal_iterator", ptr %agg.tmp63, i32 0, i32 0
  store ptr %call68, ptr %coerce.dive69, align 8
  %45 = load i32, ptr %gin40, align 4, !tbaa !18
  %conv71 = sext i32 %45 to i64
  %call72 = call noundef nonnull align 8 dereferenceable(24) ptr @_ZNSt6vectorIS_IS_IdSaIdEESaIS1_EESaIS3_EEixEm(ptr noundef nonnull align 8 dereferenceable(24) %matrix, i64 noundef %conv71) #6
  %46 = load i32, ptr %i_gout58, align 4, !tbaa !18
  %conv73 = sext i32 %46 to i64
  %call74 = call noundef nonnull align 8 dereferenceable(24) ptr @_ZNSt6vectorIS_IdSaIdEESaIS1_EEixEm(ptr noundef nonnull align 8 dereferenceable(24) %call72, i64 noundef %conv73) #6
  %call75 = call ptr @_ZNSt6vectorIdSaIdEE3endEv(ptr noundef nonnull align 8 dereferenceable(24) %call74) #6
  %coerce.dive76 = getelementptr inbounds nuw %"class.__gnu_cxx::__normal_iterator", ptr %agg.tmp70, i32 0, i32 0
  store ptr %call75, ptr %coerce.dive76, align 8
  %coerce.dive77 = getelementptr inbounds nuw %"class.__gnu_cxx::__normal_iterator", ptr %agg.tmp63, i32 0, i32 0
  %47 = load ptr, ptr %coerce.dive77, align 8
  %coerce.dive78 = getelementptr inbounds nuw %"class.__gnu_cxx::__normal_iterator", ptr %agg.tmp70, i32 0, i32 0
  %48 = load ptr, ptr %coerce.dive78, align 8
  %call79 = call noundef double @_ZSt10accumulateIN9__gnu_cxx17__normal_iteratorIPdSt6vectorIdSaIdEEEEdET0_T_S8_S7_(ptr %47, ptr %48, double noundef 0.000000e+00)
  store double %call79, ptr %norm, align 8, !tbaa !20
  %49 = load double, ptr %norm, align 8, !tbaa !20
  %50 = load i32, ptr %gin40, align 4, !tbaa !18
  %conv80 = sext i32 %50 to i64
  %call81 = call noundef nonnull align 8 dereferenceable(24) ptr @_ZNSt6vectorIS_IdSaIdEESaIS1_EEixEm(ptr noundef nonnull align 8 dereferenceable(24) %in_energy, i64 noundef %conv80) #6
  %51 = load i32, ptr %i_gout58, align 4, !tbaa !18
  %conv82 = sext i32 %51 to i64
  %call83 = call noundef nonnull align 8 dereferenceable(8) ptr @_ZNSt6vectorIdSaIdEEixEm(ptr noundef nonnull align 8 dereferenceable(24) %call81, i64 noundef %conv82) #6
  store double %49, ptr %call83, align 8, !tbaa !20
  %52 = load double, ptr %norm, align 8, !tbaa !20
  %cmp84 = fcmp une double %52, 0.000000e+00
  br i1 %cmp84, label %if.then, label %if.end

if.then:                                          ; preds = %for.body62
  call void @llvm.lifetime.start.p0(i64 8, ptr %__range4) #6
  %53 = load i32, ptr %gin40, align 4, !tbaa !18
  %conv85 = sext i32 %53 to i64
  %call86 = call noundef nonnull align 8 dereferenceable(24) ptr @_ZNSt6vectorIS_IS_IdSaIdEESaIS1_EESaIS3_EEixEm(ptr noundef nonnull align 8 dereferenceable(24) %matrix, i64 noundef %conv85) #6
  %54 = load i32, ptr %i_gout58, align 4, !tbaa !18
  %conv87 = sext i32 %54 to i64
  %call88 = call noundef nonnull align 8 dereferenceable(24) ptr @_ZNSt6vectorIS_IdSaIdEESaIS1_EEixEm(ptr noundef nonnull align 8 dereferenceable(24) %call86, i64 noundef %conv87) #6
  store ptr %call88, ptr %__range4, align 8, !tbaa !40
  call void @llvm.lifetime.start.p0(i64 8, ptr %__begin4) #6
  %55 = load ptr, ptr %__range4, align 8, !tbaa !40
  %call89 = call ptr @_ZNSt6vectorIdSaIdEE5beginEv(ptr noundef nonnull align 8 dereferenceable(24) %55) #6
  %coerce.dive90 = getelementptr inbounds nuw %"class.__gnu_cxx::__normal_iterator", ptr %__begin4, i32 0, i32 0
  store ptr %call89, ptr %coerce.dive90, align 8
  call void @llvm.lifetime.start.p0(i64 8, ptr %__end4) #6
  %56 = load ptr, ptr %__range4, align 8, !tbaa !40
  %call91 = call ptr @_ZNSt6vectorIdSaIdEE3endEv(ptr noundef nonnull align 8 dereferenceable(24) %56) #6
  %coerce.dive92 = getelementptr inbounds nuw %"class.__gnu_cxx::__normal_iterator", ptr %__end4, i32 0, i32 0
  store ptr %call91, ptr %coerce.dive92, align 8
  br label %for.cond93

for.cond93:                                       ; preds = %for.inc98, %if.then
  %call94 = call noundef zeroext i1 @_ZN9__gnu_cxxneIPdSt6vectorIdSaIdEEEEbRKNS_17__normal_iteratorIT_T0_EESA_(ptr noundef nonnull align 8 dereferenceable(8) %__begin4, ptr noundef nonnull align 8 dereferenceable(8) %__end4) #6
  br i1 %call94, label %for.body96, label %for.cond.cleanup95

for.cond.cleanup95:                               ; preds = %for.cond93
  store i32 14, ptr %cleanup.dest.slot, align 4
  call void @llvm.lifetime.end.p0(i64 8, ptr %__end4) #6
  call void @llvm.lifetime.end.p0(i64 8, ptr %__begin4) #6
  call void @llvm.lifetime.end.p0(i64 8, ptr %__range4) #6
  br label %for.end100

for.body96:                                       ; preds = %for.cond93
  call void @llvm.lifetime.start.p0(i64 8, ptr %n) #6
  %call97 = call noundef nonnull align 8 dereferenceable(8) ptr @_ZNK9__gnu_cxx17__normal_iteratorIPdSt6vectorIdSaIdEEEdeEv(ptr noundef nonnull align 8 dereferenceable(8) %__begin4) #6
  store ptr %call97, ptr %n, align 8, !tbaa !24
  %57 = load double, ptr %norm, align 8, !tbaa !20
  %58 = load ptr, ptr %n, align 8, !tbaa !24
  %59 = load double, ptr %58, align 8, !tbaa !20
  %div = fdiv double %59, %57
  store double %div, ptr %58, align 8, !tbaa !20
  call void @llvm.lifetime.end.p0(i64 8, ptr %n) #6
  br label %for.inc98

for.inc98:                                        ; preds = %for.body96
  %call99 = call noundef nonnull align 8 dereferenceable(8) ptr @_ZN9__gnu_cxx17__normal_iteratorIPdSt6vectorIdSaIdEEEppEv(ptr noundef nonnull align 8 dereferenceable(8) %__begin4) #6
  br label %for.cond93

for.end100:                                       ; preds = %for.cond.cleanup95
  br label %if.end

if.end:                                           ; preds = %for.end100, %for.body62
  call void @llvm.lifetime.end.p0(i64 8, ptr %norm) #6
  br label %for.inc101

for.inc101:                                       ; preds = %if.end
  %60 = load i32, ptr %i_gout58, align 4, !tbaa !18
  %inc102 = add nsw i32 %60, 1
  store i32 %inc102, ptr %i_gout58, align 4, !tbaa !18
  br label %for.cond59, !llvm.loop !93

for.end103:                                       ; preds = %for.cond.cleanup61
  call void @llvm.lifetime.end.p0(i64 4, ptr %num_groups) #6
  br label %for.inc104

for.inc104:                                       ; preds = %for.end103
  %61 = load i32, ptr %gin40, align 4, !tbaa !18
  %inc105 = add nsw i32 %61, 1
  store i32 %inc105, ptr %gin40, align 4, !tbaa !18
  br label %for.cond41, !llvm.loop !94

for.end106:                                       ; preds = %for.cond.cleanup44
  %62 = load i64, ptr %order, align 8, !tbaa !36
  %conv107 = trunc i64 %62 to i32
  %63 = load ptr, ptr %in_gmin.addr, align 8, !tbaa !30
  %64 = load ptr, ptr %in_gmax.addr, align 8, !tbaa !30
  %65 = load ptr, ptr %in_mult.addr, align 8, !tbaa !32
  invoke void @_ZN6openmc9ScattData9base_initEiRKN2xt17xtensor_containerINS1_7uvectorIiSaIiEEELm1ELNS1_11layout_typeE1ENS1_22xtensor_expression_tagEEESA_RKSt6vectorISB_IdSaIdEESaISD_EESH_(ptr noundef nonnull align 8 dereferenceable(296) %this1, i32 noundef %conv107, ptr noundef nonnull align 8 dereferenceable(72) %63, ptr noundef nonnull align 8 dereferenceable(72) %64, ptr noundef nonnull align 8 dereferenceable(24) %in_energy, ptr noundef nonnull align 8 dereferenceable(24) %65)
          to label %invoke.cont108 unwind label %lpad38

invoke.cont108:                                   ; preds = %for.end106
  call void @llvm.lifetime.start.p0(i64 48, ptr %ref.tmp109) #6
  %66 = load i64, ptr %order, align 8, !tbaa !36
  %add110 = add i64 %66, 1
  call void @_ZN2xt8linspaceIdEEDaT_S1_mb(ptr dead_on_unwind writable sret(%"class.xt::xgenerator") align 8 %ref.tmp109, double noundef -1.000000e+00, double noundef 1.000000e+00, i64 noundef %add110, i1 noundef zeroext true) #6
  %mu = getelementptr inbounds nuw %"class.openmc::ScattDataHistogram", ptr %this1, i32 0, i32 1
  %call113 = invoke noundef nonnull align 8 dereferenceable(72) ptr @_ZN2xt17xtensor_containerINS_7uvectorIdSaIdEEELm1ELNS_11layout_typeE1ENS_22xtensor_expression_tagEEaSINS_10xgeneratorINS_6detail16arange_generatorIdddEEdSt5arrayImLm1EEEEEERS6_RKNS_11xexpressionIT_EE(ptr noundef nonnull align 8 dereferenceable(72) %mu, ptr noundef nonnull align 1 dereferenceable(1) %ref.tmp109)
          to label %invoke.cont112 unwind label %lpad111

invoke.cont112:                                   ; preds = %invoke.cont108
  call void @_ZN2xt20xsharable_expressionINS_10xgeneratorINS_6detail16arange_generatorIdddEEdSt5arrayImLm1EEEEED2Ev(ptr noundef nonnull align 8 dereferenceable(48) %ref.tmp109) #6
  call void @llvm.lifetime.end.p0(i64 48, ptr %ref.tmp109) #6
  %67 = load i64, ptr %order, align 8, !tbaa !36
  %conv114 = uitofp i64 %67 to double
  %div115 = fdiv double 2.000000e+00, %conv114
  %dmu = getelementptr inbounds nuw %"class.openmc::ScattDataHistogram", ptr %this1, i32 0, i32 2
  store double %div115, ptr %dmu, align 8, !tbaa !56
  %fmu = getelementptr inbounds nuw %"class.openmc::ScattDataHistogram", ptr %this1, i32 0, i32 3
  %68 = load i64, ptr %groups, align 8, !tbaa !36
  invoke void @_ZNSt6vectorIS_IS_IdSaIdEESaIS1_EESaIS3_EE6resizeEm(ptr noundef nonnull align 8 dereferenceable(24) %fmu, i64 noundef %68)
          to label %invoke.cont116 unwind label %lpad38

invoke.cont116:                                   ; preds = %invoke.cont112
  call void @llvm.lifetime.start.p0(i64 4, ptr %gin117) #6
  store i32 0, ptr %gin117, align 4, !tbaa !18
  br label %for.cond118

for.cond118:                                      ; preds = %for.inc242, %invoke.cont116
  %69 = load i32, ptr %gin117, align 4, !tbaa !18
  %conv119 = sext i32 %69 to i64
  %70 = load i64, ptr %groups, align 8, !tbaa !36
  %cmp120 = icmp ult i64 %conv119, %70
  br i1 %cmp120, label %for.body122, label %for.cond.cleanup121

for.cond.cleanup121:                              ; preds = %for.cond118
  store i32 16, ptr %cleanup.dest.slot, align 4
  call void @llvm.lifetime.end.p0(i64 4, ptr %gin117) #6
  br label %for.end245

lpad111:                                          ; preds = %invoke.cont108
  %71 = landingpad { ptr, i32 }
          cleanup
  %72 = extractvalue { ptr, i32 } %71, 0
  store ptr %72, ptr %exn.slot, align 8
  %73 = extractvalue { ptr, i32 } %71, 1
  store i32 %73, ptr %ehselector.slot, align 4
  call void @_ZN2xt20xsharable_expressionINS_10xgeneratorINS_6detail16arange_generatorIdddEEdSt5arrayImLm1EEEEED2Ev(ptr noundef nonnull align 8 dereferenceable(48) %ref.tmp109) #6
  call void @llvm.lifetime.end.p0(i64 48, ptr %ref.tmp109) #6
  br label %ehcleanup246

for.body122:                                      ; preds = %for.cond118
  call void @llvm.lifetime.start.p0(i64 4, ptr %num_groups123) #6
  %gmax = getelementptr inbounds nuw %"class.openmc::ScattData", ptr %this1, i32 0, i32 5
  %74 = load i32, ptr %gin117, align 4, !tbaa !18
  %conv124 = sext i32 %74 to i64
  %call127 = invoke noundef nonnull align 4 dereferenceable(4) ptr @_ZN2xt11xaccessibleINS_17xtensor_containerINS_7uvectorIiSaIiEEELm1ELNS_11layout_typeE1ENS_22xtensor_expression_tagEEEEixEm(ptr noundef nonnull align 1 dereferenceable(1) %gmax, i64 noundef %conv124)
          to label %invoke.cont126 unwind label %lpad125

invoke.cont126:                                   ; preds = %for.body122
  %75 = load i32, ptr %call127, align 4, !tbaa !18
  %gmin = getelementptr inbounds nuw %"class.openmc::ScattData", ptr %this1, i32 0, i32 4
  %76 = load i32, ptr %gin117, align 4, !tbaa !18
  %conv128 = sext i32 %76 to i64
  %call130 = invoke noundef nonnull align 4 dereferenceable(4) ptr @_ZN2xt11xaccessibleINS_17xtensor_containerINS_7uvectorIiSaIiEEELm1ELNS_11layout_typeE1ENS_22xtensor_expression_tagEEEEixEm(ptr noundef nonnull align 1 dereferenceable(1) %gmin, i64 noundef %conv128)
          to label %invoke.cont129 unwind label %lpad125

invoke.cont129:                                   ; preds = %invoke.cont126
  %77 = load i32, ptr %call130, align 4, !tbaa !18
  %sub131 = sub nsw i32 %75, %77
  %add132 = add nsw i32 %sub131, 1
  store i32 %add132, ptr %num_groups123, align 4, !tbaa !18
  %fmu133 = getelementptr inbounds nuw %"class.openmc::ScattDataHistogram", ptr %this1, i32 0, i32 3
  %78 = load i32, ptr %gin117, align 4, !tbaa !18
  %conv134 = sext i32 %78 to i64
  %call135 = call noundef nonnull align 8 dereferenceable(24) ptr @_ZNSt6vectorIS_IS_IdSaIdEESaIS1_EESaIS3_EEixEm(ptr noundef nonnull align 8 dereferenceable(24) %fmu133, i64 noundef %conv134) #6
  %79 = load i32, ptr %num_groups123, align 4, !tbaa !18
  %conv136 = sext i32 %79 to i64
  invoke void @_ZNSt6vectorIS_IdSaIdEESaIS1_EE6resizeEm(ptr noundef nonnull align 8 dereferenceable(24) %call135, i64 noundef %conv136)
          to label %invoke.cont137 unwind label %lpad125

invoke.cont137:                                   ; preds = %invoke.cont129
  call void @llvm.lifetime.start.p0(i64 4, ptr %i_gout138) #6
  store i32 0, ptr %i_gout138, align 4, !tbaa !18
  br label %for.cond139

for.cond139:                                      ; preds = %for.inc239, %invoke.cont137
  %80 = load i32, ptr %i_gout138, align 4, !tbaa !18
  %81 = load i32, ptr %num_groups123, align 4, !tbaa !18
  %cmp140 = icmp slt i32 %80, %81
  br i1 %cmp140, label %for.body142, label %for.cond.cleanup141

for.cond.cleanup141:                              ; preds = %for.cond139
  store i32 19, ptr %cleanup.dest.slot, align 4
  call void @llvm.lifetime.end.p0(i64 4, ptr %i_gout138) #6
  br label %for.end241

lpad125:                                          ; preds = %invoke.cont129, %invoke.cont126, %for.body122
  %82 = landingpad { ptr, i32 }
          cleanup
  %83 = extractvalue { ptr, i32 } %82, 0
  store ptr %83, ptr %exn.slot, align 8
  %84 = extractvalue { ptr, i32 } %82, 1
  store i32 %84, ptr %ehselector.slot, align 4
  br label %ehcleanup

for.body142:                                      ; preds = %for.cond139
  %fmu143 = getelementptr inbounds nuw %"class.openmc::ScattDataHistogram", ptr %this1, i32 0, i32 3
  %85 = load i32, ptr %gin117, align 4, !tbaa !18
  %conv144 = sext i32 %85 to i64
  %call145 = call noundef nonnull align 8 dereferenceable(24) ptr @_ZNSt6vectorIS_IS_IdSaIdEESaIS1_EESaIS3_EEixEm(ptr noundef nonnull align 8 dereferenceable(24) %fmu143, i64 noundef %conv144) #6
  %86 = load i32, ptr %i_gout138, align 4, !tbaa !18
  %conv146 = sext i32 %86 to i64
  %call147 = call noundef nonnull align 8 dereferenceable(24) ptr @_ZNSt6vectorIS_IdSaIdEESaIS1_EEixEm(ptr noundef nonnull align 8 dereferenceable(24) %call145, i64 noundef %conv146) #6
  %87 = load i64, ptr %order, align 8, !tbaa !36
  invoke void @_ZNSt6vectorIdSaIdEE6resizeEm(ptr noundef nonnull align 8 dereferenceable(24) %call147, i64 noundef %87)
          to label %invoke.cont149 unwind label %lpad148

invoke.cont149:                                   ; preds = %for.body142
  %88 = load i32, ptr %gin117, align 4, !tbaa !18
  %conv150 = sext i32 %88 to i64
  %call151 = call noundef nonnull align 8 dereferenceable(24) ptr @_ZNSt6vectorIS_IS_IdSaIdEESaIS1_EESaIS3_EEixEm(ptr noundef nonnull align 8 dereferenceable(24) %matrix, i64 noundef %conv150) #6
  %89 = load i32, ptr %i_gout138, align 4, !tbaa !18
  %conv152 = sext i32 %89 to i64
  %call153 = call noundef nonnull align 8 dereferenceable(24) ptr @_ZNSt6vectorIS_IdSaIdEESaIS1_EEixEm(ptr noundef nonnull align 8 dereferenceable(24) %call151, i64 noundef %conv152) #6
  %fmu154 = getelementptr inbounds nuw %"class.openmc::ScattDataHistogram", ptr %this1, i32 0, i32 3
  %90 = load i32, ptr %gin117, align 4, !tbaa !18
  %conv155 = sext i32 %90 to i64
  %call156 = call noundef nonnull align 8 dereferenceable(24) ptr @_ZNSt6vectorIS_IS_IdSaIdEESaIS1_EESaIS3_EEixEm(ptr noundef nonnull align 8 dereferenceable(24) %fmu154, i64 noundef %conv155) #6
  %91 = load i32, ptr %i_gout138, align 4, !tbaa !18
  %conv157 = sext i32 %91 to i64
  %call158 = call noundef nonnull align 8 dereferenceable(24) ptr @_ZNSt6vectorIS_IdSaIdEESaIS1_EEixEm(ptr noundef nonnull align 8 dereferenceable(24) %call156, i64 noundef %conv157) #6
  %call160 = invoke noundef nonnull align 8 dereferenceable(24) ptr @_ZNSt6vectorIdSaIdEEaSERKS1_(ptr noundef nonnull align 8 dereferenceable(24) %call158, ptr noundef nonnull align 8 dereferenceable(24) %call153)
          to label %invoke.cont159 unwind label %lpad148

invoke.cont159:                                   ; preds = %invoke.cont149
  %dmu161 = getelementptr inbounds nuw %"class.openmc::ScattDataHistogram", ptr %this1, i32 0, i32 2
  %92 = load double, ptr %dmu161, align 8, !tbaa !56
  %93 = load i32, ptr %gin117, align 4, !tbaa !18
  %conv162 = sext i32 %93 to i64
  %call163 = call noundef nonnull align 8 dereferenceable(24) ptr @_ZNSt6vectorIS_IS_IdSaIdEESaIS1_EESaIS3_EEixEm(ptr noundef nonnull align 8 dereferenceable(24) %matrix, i64 noundef %conv162) #6
  %94 = load i32, ptr %i_gout138, align 4, !tbaa !18
  %conv164 = sext i32 %94 to i64
  %call165 = call noundef nonnull align 8 dereferenceable(24) ptr @_ZNSt6vectorIS_IdSaIdEESaIS1_EEixEm(ptr noundef nonnull align 8 dereferenceable(24) %call163, i64 noundef %conv164) #6
  %call166 = call noundef nonnull align 8 dereferenceable(8) ptr @_ZNSt6vectorIdSaIdEEixEm(ptr noundef nonnull align 8 dereferenceable(24) %call165, i64 noundef 0) #6
  %95 = load double, ptr %call166, align 8, !tbaa !20
  %mul = fmul double %92, %95
  %dist = getelementptr inbounds nuw %"class.openmc::ScattData", ptr %this1, i32 0, i32 3
  %96 = load i32, ptr %gin117, align 4, !tbaa !18
  %conv167 = sext i32 %96 to i64
  %call168 = call noundef nonnull align 8 dereferenceable(24) ptr @_ZNSt6vectorIS_IS_IdSaIdEESaIS1_EESaIS3_EEixEm(ptr noundef nonnull align 8 dereferenceable(24) %dist, i64 noundef %conv167) #6
  %97 = load i32, ptr %i_gout138, align 4, !tbaa !18
  %conv169 = sext i32 %97 to i64
  %call170 = call noundef nonnull align 8 dereferenceable(24) ptr @_ZNSt6vectorIS_IdSaIdEESaIS1_EEixEm(ptr noundef nonnull align 8 dereferenceable(24) %call168, i64 noundef %conv169) #6
  %call171 = call noundef nonnull align 8 dereferenceable(8) ptr @_ZNSt6vectorIdSaIdEEixEm(ptr noundef nonnull align 8 dereferenceable(24) %call170, i64 noundef 0) #6
  store double %mul, ptr %call171, align 8, !tbaa !20
  call void @llvm.lifetime.start.p0(i64 4, ptr %imu) #6
  store i32 1, ptr %imu, align 4, !tbaa !18
  br label %for.cond172

for.cond172:                                      ; preds = %for.inc200, %invoke.cont159
  %98 = load i32, ptr %imu, align 4, !tbaa !18
  %conv173 = sext i32 %98 to i64
  %99 = load i64, ptr %order, align 8, !tbaa !36
  %cmp174 = icmp ult i64 %conv173, %99
  br i1 %cmp174, label %for.body176, label %for.cond.cleanup175

for.cond.cleanup175:                              ; preds = %for.cond172
  store i32 22, ptr %cleanup.dest.slot, align 4
  call void @llvm.lifetime.end.p0(i64 4, ptr %imu) #6
  br label %for.end202

lpad148:                                          ; preds = %invoke.cont149, %for.body142
  %100 = landingpad { ptr, i32 }
          cleanup
  %101 = extractvalue { ptr, i32 } %100, 0
  store ptr %101, ptr %exn.slot, align 8
  %102 = extractvalue { ptr, i32 } %100, 1
  store i32 %102, ptr %ehselector.slot, align 4
  call void @llvm.lifetime.end.p0(i64 4, ptr %i_gout138) #6
  br label %ehcleanup

for.body176:                                      ; preds = %for.cond172
  %dmu177 = getelementptr inbounds nuw %"class.openmc::ScattDataHistogram", ptr %this1, i32 0, i32 2
  %103 = load double, ptr %dmu177, align 8, !tbaa !56
  %104 = load i32, ptr %gin117, align 4, !tbaa !18
  %conv178 = sext i32 %104 to i64
  %call179 = call noundef nonnull align 8 dereferenceable(24) ptr @_ZNSt6vectorIS_IS_IdSaIdEESaIS1_EESaIS3_EEixEm(ptr noundef nonnull align 8 dereferenceable(24) %matrix, i64 noundef %conv178) #6
  %105 = load i32, ptr %i_gout138, align 4, !tbaa !18
  %conv180 = sext i32 %105 to i64
  %call181 = call noundef nonnull align 8 dereferenceable(24) ptr @_ZNSt6vectorIS_IdSaIdEESaIS1_EEixEm(ptr noundef nonnull align 8 dereferenceable(24) %call179, i64 noundef %conv180) #6
  %106 = load i32, ptr %imu, align 4, !tbaa !18
  %conv182 = sext i32 %106 to i64
  %call183 = call noundef nonnull align 8 dereferenceable(8) ptr @_ZNSt6vectorIdSaIdEEixEm(ptr noundef nonnull align 8 dereferenceable(24) %call181, i64 noundef %conv182) #6
  %107 = load double, ptr %call183, align 8, !tbaa !20
  %dist185 = getelementptr inbounds nuw %"class.openmc::ScattData", ptr %this1, i32 0, i32 3
  %108 = load i32, ptr %gin117, align 4, !tbaa !18
  %conv186 = sext i32 %108 to i64
  %call187 = call noundef nonnull align 8 dereferenceable(24) ptr @_ZNSt6vectorIS_IS_IdSaIdEESaIS1_EESaIS3_EEixEm(ptr noundef nonnull align 8 dereferenceable(24) %dist185, i64 noundef %conv186) #6
  %109 = load i32, ptr %i_gout138, align 4, !tbaa !18
  %conv188 = sext i32 %109 to i64
  %call189 = call noundef nonnull align 8 dereferenceable(24) ptr @_ZNSt6vectorIS_IdSaIdEESaIS1_EEixEm(ptr noundef nonnull align 8 dereferenceable(24) %call187, i64 noundef %conv188) #6
  %110 = load i32, ptr %imu, align 4, !tbaa !18
  %sub190 = sub nsw i32 %110, 1
  %conv191 = sext i32 %sub190 to i64
  %call192 = call noundef nonnull align 8 dereferenceable(8) ptr @_ZNSt6vectorIdSaIdEEixEm(ptr noundef nonnull align 8 dereferenceable(24) %call189, i64 noundef %conv191) #6
  %111 = load double, ptr %call192, align 8, !tbaa !20
  %112 = call double @llvm.fmuladd.f64(double %103, double %107, double %111)
  %dist193 = getelementptr inbounds nuw %"class.openmc::ScattData", ptr %this1, i32 0, i32 3
  %113 = load i32, ptr %gin117, align 4, !tbaa !18
  %conv194 = sext i32 %113 to i64
  %call195 = call noundef nonnull align 8 dereferenceable(24) ptr @_ZNSt6vectorIS_IS_IdSaIdEESaIS1_EESaIS3_EEixEm(ptr noundef nonnull align 8 dereferenceable(24) %dist193, i64 noundef %conv194) #6
  %114 = load i32, ptr %i_gout138, align 4, !tbaa !18
  %conv196 = sext i32 %114 to i64
  %call197 = call noundef nonnull align 8 dereferenceable(24) ptr @_ZNSt6vectorIS_IdSaIdEESaIS1_EEixEm(ptr noundef nonnull align 8 dereferenceable(24) %call195, i64 noundef %conv196) #6
  %115 = load i32, ptr %imu, align 4, !tbaa !18
  %conv198 = sext i32 %115 to i64
  %call199 = call noundef nonnull align 8 dereferenceable(8) ptr @_ZNSt6vectorIdSaIdEEixEm(ptr noundef nonnull align 8 dereferenceable(24) %call197, i64 noundef %conv198) #6
  store double %112, ptr %call199, align 8, !tbaa !20
  br label %for.inc200

for.inc200:                                       ; preds = %for.body176
  %116 = load i32, ptr %imu, align 4, !tbaa !18
  %inc201 = add nsw i32 %116, 1
  store i32 %inc201, ptr %imu, align 4, !tbaa !18
  br label %for.cond172, !llvm.loop !95

for.end202:                                       ; preds = %for.cond.cleanup175
  call void @llvm.lifetime.start.p0(i64 8, ptr %norm203) #6
  %dist204 = getelementptr inbounds nuw %"class.openmc::ScattData", ptr %this1, i32 0, i32 3
  %117 = load i32, ptr %gin117, align 4, !tbaa !18
  %conv205 = sext i32 %117 to i64
  %call206 = call noundef nonnull align 8 dereferenceable(24) ptr @_ZNSt6vectorIS_IS_IdSaIdEESaIS1_EESaIS3_EEixEm(ptr noundef nonnull align 8 dereferenceable(24) %dist204, i64 noundef %conv205) #6
  %118 = load i32, ptr %i_gout138, align 4, !tbaa !18
  %conv207 = sext i32 %118 to i64
  %call208 = call noundef nonnull align 8 dereferenceable(24) ptr @_ZNSt6vectorIS_IdSaIdEESaIS1_EEixEm(ptr noundef nonnull align 8 dereferenceable(24) %call206, i64 noundef %conv207) #6
  %119 = load i64, ptr %order, align 8, !tbaa !36
  %sub209 = sub i64 %119, 1
  %call210 = call noundef nonnull align 8 dereferenceable(8) ptr @_ZNSt6vectorIdSaIdEEixEm(ptr noundef nonnull align 8 dereferenceable(24) %call208, i64 noundef %sub209) #6
  %120 = load double, ptr %call210, align 8, !tbaa !20
  store double %120, ptr %norm203, align 8, !tbaa !20
  %121 = load double, ptr %norm203, align 8, !tbaa !20
  %cmp211 = fcmp ogt double %121, 0.000000e+00
  br i1 %cmp211, label %if.then212, label %if.end238

if.then212:                                       ; preds = %for.end202
  call void @llvm.lifetime.start.p0(i64 4, ptr %imu213) #6
  store i32 0, ptr %imu213, align 4, !tbaa !18
  br label %for.cond214

for.cond214:                                      ; preds = %for.inc235, %if.then212
  %122 = load i32, ptr %imu213, align 4, !tbaa !18
  %conv215 = sext i32 %122 to i64
  %123 = load i64, ptr %order, align 8, !tbaa !36
  %cmp216 = icmp ult i64 %conv215, %123
  br i1 %cmp216, label %for.body218, label %for.cond.cleanup217

for.cond.cleanup217:                              ; preds = %for.cond214
  store i32 25, ptr %cleanup.dest.slot, align 4
  call void @llvm.lifetime.end.p0(i64 4, ptr %imu213) #6
  br label %for.end237

for.body218:                                      ; preds = %for.cond214
  %124 = load double, ptr %norm203, align 8, !tbaa !20
  %fmu219 = getelementptr inbounds nuw %"class.openmc::ScattDataHistogram", ptr %this1, i32 0, i32 3
  %125 = load i32, ptr %gin117, align 4, !tbaa !18
  %conv220 = sext i32 %125 to i64
  %call221 = call noundef nonnull align 8 dereferenceable(24) ptr @_ZNSt6vectorIS_IS_IdSaIdEESaIS1_EESaIS3_EEixEm(ptr noundef nonnull align 8 dereferenceable(24) %fmu219, i64 noundef %conv220) #6
  %126 = load i32, ptr %i_gout138, align 4, !tbaa !18
  %conv222 = sext i32 %126 to i64
  %call223 = call noundef nonnull align 8 dereferenceable(24) ptr @_ZNSt6vectorIS_IdSaIdEESaIS1_EEixEm(ptr noundef nonnull align 8 dereferenceable(24) %call221, i64 noundef %conv222) #6
  %127 = load i32, ptr %imu213, align 4, !tbaa !18
  %conv224 = sext i32 %127 to i64
  %call225 = call noundef nonnull align 8 dereferenceable(8) ptr @_ZNSt6vectorIdSaIdEEixEm(ptr noundef nonnull align 8 dereferenceable(24) %call223, i64 noundef %conv224) #6
  %128 = load double, ptr %call225, align 8, !tbaa !20
  %div226 = fdiv double %128, %124
  store double %div226, ptr %call225, align 8, !tbaa !20
  %129 = load double, ptr %norm203, align 8, !tbaa !20
  %dist227 = getelementptr inbounds nuw %"class.openmc::ScattData", ptr %this1, i32 0, i32 3
  %130 = load i32, ptr %gin117, align 4, !tbaa !18
  %conv228 = sext i32 %130 to i64
  %call229 = call noundef nonnull align 8 dereferenceable(24) ptr @_ZNSt6vectorIS_IS_IdSaIdEESaIS1_EESaIS3_EEixEm(ptr noundef nonnull align 8 dereferenceable(24) %dist227, i64 noundef %conv228) #6
  %131 = load i32, ptr %i_gout138, align 4, !tbaa !18
  %conv230 = sext i32 %131 to i64
  %call231 = call noundef nonnull align 8 dereferenceable(24) ptr @_ZNSt6vectorIS_IdSaIdEESaIS1_EEixEm(ptr noundef nonnull align 8 dereferenceable(24) %call229, i64 noundef %conv230) #6
  %132 = load i32, ptr %imu213, align 4, !tbaa !18
  %conv232 = sext i32 %132 to i64
  %call233 = call noundef nonnull align 8 dereferenceable(8) ptr @_ZNSt6vectorIdSaIdEEixEm(ptr noundef nonnull align 8 dereferenceable(24) %call231, i64 noundef %conv232) #6
  %133 = load double, ptr %call233, align 8, !tbaa !20
  %div234 = fdiv double %133, %129
  store double %div234, ptr %call233, align 8, !tbaa !20
  br label %for.inc235

for.inc235:                                       ; preds = %for.body218
  %134 = load i32, ptr %imu213, align 4, !tbaa !18
  %inc236 = add nsw i32 %134, 1
  store i32 %inc236, ptr %imu213, align 4, !tbaa !18
  br label %for.cond214, !llvm.loop !96

for.end237:                                       ; preds = %for.cond.cleanup217
  br label %if.end238

if.end238:                                        ; preds = %for.end237, %for.end202
  call void @llvm.lifetime.end.p0(i64 8, ptr %norm203) #6
  br label %for.inc239

for.inc239:                                       ; preds = %if.end238
  %135 = load i32, ptr %i_gout138, align 4, !tbaa !18
  %inc240 = add nsw i32 %135, 1
  store i32 %inc240, ptr %i_gout138, align 4, !tbaa !18
  br label %for.cond139, !llvm.loop !97

for.end241:                                       ; preds = %for.cond.cleanup141
  call void @llvm.lifetime.end.p0(i64 4, ptr %num_groups123) #6
  br label %for.inc242

for.inc242:                                       ; preds = %for.end241
  %136 = load i32, ptr %gin117, align 4, !tbaa !18
  %inc243 = add nsw i32 %136, 1
  store i32 %inc243, ptr %gin117, align 4, !tbaa !18
  br label %for.cond118, !llvm.loop !98

ehcleanup:                                        ; preds = %lpad148, %lpad125
  call void @llvm.lifetime.end.p0(i64 4, ptr %num_groups123) #6
  call void @llvm.lifetime.end.p0(i64 4, ptr %gin117) #6
  br label %ehcleanup246

for.end245:                                       ; preds = %for.cond.cleanup121
  call void @_ZNSt6vectorIS_IdSaIdEESaIS1_EED2Ev(ptr noundef nonnull align 8 dereferenceable(24) %in_energy) #6
  call void @llvm.lifetime.end.p0(i64 24, ptr %in_energy) #6
  call void @_ZNSt6vectorIS_IS_IdSaIdEESaIS1_EESaIS3_EED2Ev(ptr noundef nonnull align 8 dereferenceable(24) %matrix) #6
  call void @llvm.lifetime.end.p0(i64 24, ptr %matrix) #6
  call void @llvm.lifetime.end.p0(i64 8, ptr %order) #6
  call void @llvm.lifetime.end.p0(i64 8, ptr %groups) #6
  ret void

ehcleanup246:                                     ; preds = %ehcleanup, %lpad111, %lpad47, %lpad38
  call void @_ZNSt6vectorIS_IdSaIdEESaIS1_EED2Ev(ptr noundef nonnull align 8 dereferenceable(24) %in_energy) #6
  call void @llvm.lifetime.end.p0(i64 24, ptr %in_energy) #6
  br label %ehcleanup248

ehcleanup248:                                     ; preds = %ehcleanup246, %lpad32, %lpad
  call void @_ZNSt6vectorIS_IS_IdSaIdEESaIS1_EESaIS3_EED2Ev(ptr noundef nonnull align 8 dereferenceable(24) %matrix) #6
  call void @llvm.lifetime.end.p0(i64 24, ptr %matrix) #6
  call void @llvm.lifetime.end.p0(i64 8, ptr %order) #6
  call void @llvm.lifetime.end.p0(i64 8, ptr %groups) #6
  br label %eh.resume

eh.resume:                                        ; preds = %ehcleanup248
  %exn = load ptr, ptr %exn.slot, align 8
  %sel = load i32, ptr %ehselector.slot, align 4
  %lpad.val = insertvalue { ptr, i32 } poison, ptr %exn, 0
  %lpad.val252 = insertvalue { ptr, i32 } %lpad.val, i32 %sel, 1
  resume { ptr, i32 } %lpad.val252
}

; Function Attrs: mustprogress uwtable
define void @_ZN6openmc18ScattDataHistogram7combineERKSt6vectorIPNS_9ScattDataESaIS3_EERKS1_IdSaIdEE(ptr noundef nonnull align 8 dereferenceable(400) %this, ptr noundef nonnull align 8 dereferenceable(24) %those_scatts, ptr noundef nonnull align 8 dereferenceable(24) %scalars) unnamed_addr #1 align 2 personality ptr @__gxx_personality_v0 {
entry:
  %this.addr = alloca ptr, align 8
  %those_scatts.addr = alloca ptr, align 8
  %scalars.addr = alloca ptr, align 8
  %max_order = alloca i64, align 8
  %i = alloca i32, align 4
  %that = alloca ptr, align 8
  %groups = alloca i64, align 8
  %in_gmin = alloca %"class.xt::xtensor_container.2", align 8
  %ref.tmp = alloca %"struct.std::array.10", align 8
  %ref.tmp14 = alloca i32, align 4
  %in_gmax = alloca %"class.xt::xtensor_container.2", align 8
  %ref.tmp15 = alloca %"struct.std::array.10", align 8
  %ref.tmp17 = alloca i32, align 4
  %exn.slot = alloca ptr, align 8
  %ehselector.slot = alloca i32, align 4
  %sparse_scatter = alloca %"class.std::vector.21", align 8
  %ref.tmp18 = alloca %"class.std::allocator.23", align 1
  %sparse_mult = alloca %"class.std::vector", align 8
  %ref.tmp21 = alloca %"class.std::allocator", align 1
  %order_dim = alloca i64, align 8
  store ptr %this, ptr %this.addr, align 8, !tbaa !54
  store ptr %those_scatts, ptr %those_scatts.addr, align 8, !tbaa !46
  store ptr %scalars, ptr %scalars.addr, align 8, !tbaa !40
  %this1 = load ptr, ptr %this.addr, align 8
  call void @llvm.lifetime.start.p0(i64 8, ptr %max_order) #6
  %0 = load ptr, ptr %those_scatts.addr, align 8, !tbaa !46
  %call = call noundef nonnull align 8 dereferenceable(8) ptr @_ZNKSt6vectorIPN6openmc9ScattDataESaIS2_EEixEm(ptr noundef nonnull align 8 dereferenceable(24) %0, i64 noundef 0) #6
  %1 = load ptr, ptr %call, align 8, !tbaa !48
  %vtable = load ptr, ptr %1, align 8, !tbaa !16
  %vfn = getelementptr inbounds ptr, ptr %vtable, i64 6
  %2 = load ptr, ptr %vfn, align 8
  %call2 = call noundef i64 %2(ptr noundef nonnull align 8 dereferenceable(296) %1)
  store i64 %call2, ptr %max_order, align 8, !tbaa !36
  call void @llvm.lifetime.start.p0(i64 4, ptr %i) #6
  store i32 0, ptr %i, align 4, !tbaa !18
  br label %for.cond

for.cond:                                         ; preds = %for.inc, %entry
  %3 = load i32, ptr %i, align 4, !tbaa !18
  %conv = sext i32 %3 to i64
  %4 = load ptr, ptr %those_scatts.addr, align 8, !tbaa !46
  %call3 = call noundef i64 @_ZNKSt6vectorIPN6openmc9ScattDataESaIS2_EE4sizeEv(ptr noundef nonnull align 8 dereferenceable(24) %4) #6
  %cmp = icmp ult i64 %conv, %call3
  br i1 %cmp, label %for.body, label %for.cond.cleanup

for.cond.cleanup:                                 ; preds = %for.cond
  call void @llvm.lifetime.end.p0(i64 4, ptr %i) #6
  br label %for.end

for.body:                                         ; preds = %for.cond
  call void @llvm.lifetime.start.p0(i64 8, ptr %that) #6
  %5 = load ptr, ptr %those_scatts.addr, align 8, !tbaa !46
  %6 = load i32, ptr %i, align 4, !tbaa !18
  %conv4 = sext i32 %6 to i64
  %call5 = call noundef nonnull align 8 dereferenceable(8) ptr @_ZNKSt6vectorIPN6openmc9ScattDataESaIS2_EEixEm(ptr noundef nonnull align 8 dereferenceable(24) %5, i64 noundef %conv4) #6
  %7 = load ptr, ptr %call5, align 8, !tbaa !48
  %8 = icmp eq ptr %7, null
  br i1 %8, label %dynamic_cast.null, label %dynamic_cast.notnull

dynamic_cast.notnull:                             ; preds = %for.body
  %9 = call ptr @__dynamic_cast(ptr %7, ptr @_ZTIN6openmc9ScattDataE, ptr @_ZTIN6openmc18ScattDataHistogramE, i64 0) #6
  br label %dynamic_cast.end

dynamic_cast.null:                                ; preds = %for.body
  br label %dynamic_cast.end

dynamic_cast.end:                                 ; preds = %dynamic_cast.null, %dynamic_cast.notnull
  %10 = phi ptr [ %9, %dynamic_cast.notnull ], [ null, %dynamic_cast.null ]
  store ptr %10, ptr %that, align 8, !tbaa !54
  %11 = load ptr, ptr %that, align 8, !tbaa !54
  %tobool = icmp ne ptr %11, null
  br i1 %tobool, label %if.end, label %if.then

if.then:                                          ; preds = %dynamic_cast.end
  call void @_ZN6openmc11fatal_errorEPKc(ptr noundef @.str.14) #28
  unreachable

if.end:                                           ; preds = %dynamic_cast.end
  %12 = load i64, ptr %max_order, align 8, !tbaa !36
  %13 = load ptr, ptr %that, align 8, !tbaa !54
  %vtable6 = load ptr, ptr %13, align 8, !tbaa !16
  %vfn7 = getelementptr inbounds ptr, ptr %vtable6, i64 6
  %14 = load ptr, ptr %vfn7, align 8
  %call8 = call noundef i64 %14(ptr noundef nonnull align 8 dereferenceable(400) %13)
  %cmp9 = icmp ne i64 %12, %call8
  br i1 %cmp9, label %if.then10, label %if.end11

if.then10:                                        ; preds = %if.end
  call void @_ZN6openmc11fatal_errorEPKc(ptr noundef @.str.14) #28
  unreachable

if.end11:                                         ; preds = %if.end
  call void @llvm.lifetime.end.p0(i64 8, ptr %that) #6
  br label %for.inc

for.inc:                                          ; preds = %if.end11
  %15 = load i32, ptr %i, align 4, !tbaa !18
  %inc = add nsw i32 %15, 1
  store i32 %inc, ptr %i, align 4, !tbaa !18
  br label %for.cond, !llvm.loop !99

for.end:                                          ; preds = %for.cond.cleanup
  call void @llvm.lifetime.start.p0(i64 8, ptr %groups) #6
  %16 = load ptr, ptr %those_scatts.addr, align 8, !tbaa !46
  %call12 = call noundef nonnull align 8 dereferenceable(8) ptr @_ZNKSt6vectorIPN6openmc9ScattDataESaIS2_EEixEm(ptr noundef nonnull align 8 dereferenceable(24) %16, i64 noundef 0) #6
  %17 = load ptr, ptr %call12, align 8, !tbaa !48
  %energy = getelementptr inbounds nuw %"class.openmc::ScattData", ptr %17, i32 0, i32 1
  %call13 = call noundef i64 @_ZNKSt6vectorIS_IdSaIdEESaIS1_EE4sizeEv(ptr noundef nonnull align 8 dereferenceable(24) %energy) #6
  store i64 %call13, ptr %groups, align 8, !tbaa !36
  call void @llvm.lifetime.start.p0(i64 72, ptr %in_gmin) #6
  call void @llvm.lifetime.start.p0(i64 8, ptr %ref.tmp) #6
  %_M_elems = getelementptr inbounds nuw %"struct.std::array.10", ptr %ref.tmp, i32 0, i32 0
  %18 = load i64, ptr %groups, align 8, !tbaa !36
  store i64 %18, ptr %_M_elems, align 8, !tbaa !36
  call void @llvm.lifetime.start.p0(i64 4, ptr %ref.tmp14) #6
  store i32 0, ptr %ref.tmp14, align 4, !tbaa !18
  call void @_ZN2xt17xtensor_containerINS_7uvectorIiSaIiEEELm1ELNS_11layout_typeE1ENS_22xtensor_expression_tagEEC2ERKSt5arrayImLm1EERKiS4_(ptr noundef nonnull align 8 dereferenceable(72) %in_gmin, ptr noundef nonnull align 8 dereferenceable(8) %ref.tmp, ptr noundef nonnull align 4 dereferenceable(4) %ref.tmp14, i32 noundef 1)
  call void @llvm.lifetime.end.p0(i64 4, ptr %ref.tmp14) #6
  call void @llvm.lifetime.end.p0(i64 8, ptr %ref.tmp) #6
  call void @llvm.lifetime.start.p0(i64 72, ptr %in_gmax) #6
  call void @llvm.lifetime.start.p0(i64 8, ptr %ref.tmp15) #6
  %_M_elems16 = getelementptr inbounds nuw %"struct.std::array.10", ptr %ref.tmp15, i32 0, i32 0
  %19 = load i64, ptr %groups, align 8, !tbaa !36
  store i64 %19, ptr %_M_elems16, align 8, !tbaa !36
  call void @llvm.lifetime.start.p0(i64 4, ptr %ref.tmp17) #6
  store i32 0, ptr %ref.tmp17, align 4, !tbaa !18
  invoke void @_ZN2xt17xtensor_containerINS_7uvectorIiSaIiEEELm1ELNS_11layout_typeE1ENS_22xtensor_expression_tagEEC2ERKSt5arrayImLm1EERKiS4_(ptr noundef nonnull align 8 dereferenceable(72) %in_gmax, ptr noundef nonnull align 8 dereferenceable(8) %ref.tmp15, ptr noundef nonnull align 4 dereferenceable(4) %ref.tmp17, i32 noundef 1)
          to label %invoke.cont unwind label %lpad

invoke.cont:                                      ; preds = %for.end
  call void @llvm.lifetime.end.p0(i64 4, ptr %ref.tmp17) #6
  call void @llvm.lifetime.end.p0(i64 8, ptr %ref.tmp15) #6
  call void @llvm.lifetime.start.p0(i64 24, ptr %sparse_scatter) #6
  %20 = load i64, ptr %groups, align 8, !tbaa !36
  call void @llvm.lifetime.start.p0(i64 1, ptr %ref.tmp18) #6
  call void @_ZNSaISt6vectorIS_IdSaIdEESaIS1_EEEC2Ev(ptr noundef nonnull align 1 dereferenceable(1) %ref.tmp18) #6
  invoke void @_ZNSt6vectorIS_IS_IdSaIdEESaIS1_EESaIS3_EEC2EmRKS4_(ptr noundef nonnull align 8 dereferenceable(24) %sparse_scatter, i64 noundef %20, ptr noundef nonnull align 1 dereferenceable(1) %ref.tmp18)
          to label %invoke.cont20 unwind label %lpad19

invoke.cont20:                                    ; preds = %invoke.cont
  call void @_ZNSt15__new_allocatorISt6vectorIS0_IdSaIdEESaIS2_EEED2Ev(ptr noundef nonnull align 1 dereferenceable(1) %ref.tmp18) #6
  call void @llvm.lifetime.end.p0(i64 1, ptr %ref.tmp18) #6
  call void @llvm.lifetime.start.p0(i64 24, ptr %sparse_mult) #6
  %21 = load i64, ptr %groups, align 8, !tbaa !36
  call void @llvm.lifetime.start.p0(i64 1, ptr %ref.tmp21) #6
  call void @_ZNSaISt6vectorIdSaIdEEEC2Ev(ptr noundef nonnull align 1 dereferenceable(1) %ref.tmp21) #6
  invoke void @_ZNSt6vectorIS_IdSaIdEESaIS1_EEC2EmRKS2_(ptr noundef nonnull align 8 dereferenceable(24) %sparse_mult, i64 noundef %21, ptr noundef nonnull align 1 dereferenceable(1) %ref.tmp21)
          to label %invoke.cont23 unwind label %lpad22

invoke.cont23:                                    ; preds = %invoke.cont20
  call void @_ZNSt15__new_allocatorISt6vectorIdSaIdEEED2Ev(ptr noundef nonnull align 1 dereferenceable(1) %ref.tmp21) #6
  call void @llvm.lifetime.end.p0(i64 1, ptr %ref.tmp21) #6
  call void @llvm.lifetime.start.p0(i64 8, ptr %order_dim) #6
  %22 = load i64, ptr %max_order, align 8, !tbaa !36
  store i64 %22, ptr %order_dim, align 8, !tbaa !36
  %23 = load i64, ptr %max_order, align 8, !tbaa !36
  %24 = load i64, ptr %order_dim, align 8, !tbaa !36
  %25 = load ptr, ptr %those_scatts.addr, align 8, !tbaa !46
  %26 = load ptr, ptr %scalars.addr, align 8, !tbaa !40
  invoke void @_ZN6openmc9ScattData12base_combineEmmRKSt6vectorIPS0_SaIS2_EERKS1_IdSaIdEERN2xt17xtensor_containerINSB_7uvectorIiSaIiEEELm1ELNSB_11layout_typeE1ENSB_22xtensor_expression_tagEEESJ_RS1_IS8_SaIS8_EERS1_ISL_SaISL_EE(ptr noundef nonnull align 8 dereferenceable(296) %this1, i64 noundef %23, i64 noundef %24, ptr noundef nonnull align 8 dereferenceable(24) %25, ptr noundef nonnull align 8 dereferenceable(24) %26, ptr noundef nonnull align 8 dereferenceable(72) %in_gmin, ptr noundef nonnull align 8 dereferenceable(72) %in_gmax, ptr noundef nonnull align 8 dereferenceable(24) %sparse_mult, ptr noundef nonnull align 8 dereferenceable(24) %sparse_scatter)
          to label %invoke.cont25 unwind label %lpad24

invoke.cont25:                                    ; preds = %invoke.cont23
  %vtable26 = load ptr, ptr %this1, align 8, !tbaa !16
  %vfn27 = getelementptr inbounds ptr, ptr %vtable26, i64 4
  %27 = load ptr, ptr %vfn27, align 8
  invoke void %27(ptr noundef nonnull align 8 dereferenceable(400) %this1, ptr noundef nonnull align 8 dereferenceable(72) %in_gmin, ptr noundef nonnull align 8 dereferenceable(72) %in_gmax, ptr noundef nonnull align 8 dereferenceable(24) %sparse_mult, ptr noundef nonnull align 8 dereferenceable(24) %sparse_scatter)
          to label %invoke.cont28 unwind label %lpad24

invoke.cont28:                                    ; preds = %invoke.cont25
  call void @llvm.lifetime.end.p0(i64 8, ptr %order_dim) #6
  call void @_ZNSt6vectorIS_IdSaIdEESaIS1_EED2Ev(ptr noundef nonnull align 8 dereferenceable(24) %sparse_mult) #6
  call void @llvm.lifetime.end.p0(i64 24, ptr %sparse_mult) #6
  call void @_ZNSt6vectorIS_IS_IdSaIdEESaIS1_EESaIS3_EED2Ev(ptr noundef nonnull align 8 dereferenceable(24) %sparse_scatter) #6
  call void @llvm.lifetime.end.p0(i64 24, ptr %sparse_scatter) #6
  call void @_ZN2xt17xtensor_containerINS_7uvectorIiSaIiEEELm1ELNS_11layout_typeE1ENS_22xtensor_expression_tagEED2Ev(ptr noundef nonnull align 8 dereferenceable(72) %in_gmax) #6
  call void @llvm.lifetime.end.p0(i64 72, ptr %in_gmax) #6
  call void @_ZN2xt17xtensor_containerINS_7uvectorIiSaIiEEELm1ELNS_11layout_typeE1ENS_22xtensor_expression_tagEED2Ev(ptr noundef nonnull align 8 dereferenceable(72) %in_gmin) #6
  call void @llvm.lifetime.end.p0(i64 72, ptr %in_gmin) #6
  call void @llvm.lifetime.end.p0(i64 8, ptr %groups) #6
  call void @llvm.lifetime.end.p0(i64 8, ptr %max_order) #6
  ret void

lpad:                                             ; preds = %for.end
  %28 = landingpad { ptr, i32 }
          cleanup
  %29 = extractvalue { ptr, i32 } %28, 0
  store ptr %29, ptr %exn.slot, align 8
  %30 = extractvalue { ptr, i32 } %28, 1
  store i32 %30, ptr %ehselector.slot, align 4
  call void @llvm.lifetime.end.p0(i64 4, ptr %ref.tmp17) #6
  call void @llvm.lifetime.end.p0(i64 8, ptr %ref.tmp15) #6
  br label %ehcleanup32

lpad19:                                           ; preds = %invoke.cont
  %31 = landingpad { ptr, i32 }
          cleanup
  %32 = extractvalue { ptr, i32 } %31, 0
  store ptr %32, ptr %exn.slot, align 8
  %33 = extractvalue { ptr, i32 } %31, 1
  store i32 %33, ptr %ehselector.slot, align 4
  call void @_ZNSt15__new_allocatorISt6vectorIS0_IdSaIdEESaIS2_EEED2Ev(ptr noundef nonnull align 1 dereferenceable(1) %ref.tmp18) #6
  call void @llvm.lifetime.end.p0(i64 1, ptr %ref.tmp18) #6
  br label %ehcleanup30

lpad22:                                           ; preds = %invoke.cont20
  %34 = landingpad { ptr, i32 }
          cleanup
  %35 = extractvalue { ptr, i32 } %34, 0
  store ptr %35, ptr %exn.slot, align 8
  %36 = extractvalue { ptr, i32 } %34, 1
  store i32 %36, ptr %ehselector.slot, align 4
  call void @_ZNSt15__new_allocatorISt6vectorIdSaIdEEED2Ev(ptr noundef nonnull align 1 dereferenceable(1) %ref.tmp21) #6
  call void @llvm.lifetime.end.p0(i64 1, ptr %ref.tmp21) #6
  br label %ehcleanup

lpad24:                                           ; preds = %invoke.cont25, %invoke.cont23
  %37 = landingpad { ptr, i32 }
          cleanup
  %38 = extractvalue { ptr, i32 } %37, 0
  store ptr %38, ptr %exn.slot, align 8
  %39 = extractvalue { ptr, i32 } %37, 1
  store i32 %39, ptr %ehselector.slot, align 4
  call void @llvm.lifetime.end.p0(i64 8, ptr %order_dim) #6
  call void @_ZNSt6vectorIS_IdSaIdEESaIS1_EED2Ev(ptr noundef nonnull align 8 dereferenceable(24) %sparse_mult) #6
  br label %ehcleanup

ehcleanup:                                        ; preds = %lpad24, %lpad22
  call void @llvm.lifetime.end.p0(i64 24, ptr %sparse_mult) #6
  call void @_ZNSt6vectorIS_IS_IdSaIdEESaIS1_EESaIS3_EED2Ev(ptr noundef nonnull align 8 dereferenceable(24) %sparse_scatter) #6
  br label %ehcleanup30

ehcleanup30:                                      ; preds = %ehcleanup, %lpad19
  call void @llvm.lifetime.end.p0(i64 24, ptr %sparse_scatter) #6
  call void @_ZN2xt17xtensor_containerINS_7uvectorIiSaIiEEELm1ELNS_11layout_typeE1ENS_22xtensor_expression_tagEED2Ev(ptr noundef nonnull align 8 dereferenceable(72) %in_gmax) #6
  br label %ehcleanup32

ehcleanup32:                                      ; preds = %ehcleanup30, %lpad
  call void @llvm.lifetime.end.p0(i64 72, ptr %in_gmax) #6
  call void @_ZN2xt17xtensor_containerINS_7uvectorIiSaIiEEELm1ELNS_11layout_typeE1ENS_22xtensor_expression_tagEED2Ev(ptr noundef nonnull align 8 dereferenceable(72) %in_gmin) #6
  call void @llvm.lifetime.end.p0(i64 72, ptr %in_gmin) #6
  call void @llvm.lifetime.end.p0(i64 8, ptr %groups) #6
  call void @llvm.lifetime.end.p0(i64 8, ptr %max_order) #6
  br label %eh.resume

eh.resume:                                        ; preds = %ehcleanup32
  %exn = load ptr, ptr %exn.slot, align 8
  %sel = load i32, ptr %ehselector.slot, align 4
  %lpad.val = insertvalue { ptr, i32 } poison, ptr %exn, 0
  %lpad.val37 = insertvalue { ptr, i32 } %lpad.val, i32 %sel, 1
  resume { ptr, i32 } %lpad.val37
}

; Function Attrs: mustprogress nounwind uwtable
define linkonce_odr noundef i64 @_ZN6openmc18ScattDataHistogram9get_orderEv(ptr noundef nonnull align 8 dereferenceable(400) %this) unnamed_addr #2 comdat align 2 {
entry:
  %this.addr = alloca ptr, align 8
  store ptr %this, ptr %this.addr, align 8, !tbaa !54
  %this1 = load ptr, ptr %this.addr, align 8
  %dist = getelementptr inbounds nuw %"class.openmc::ScattData", ptr %this1, i32 0, i32 3
  %call = call noundef nonnull align 8 dereferenceable(24) ptr @_ZNSt6vectorIS_IS_IdSaIdEESaIS1_EESaIS3_EEixEm(ptr noundef nonnull align 8 dereferenceable(24) %dist, i64 noundef 0) #6
  %call2 = call noundef nonnull align 8 dereferenceable(24) ptr @_ZNSt6vectorIS_IdSaIdEESaIS1_EEixEm(ptr noundef nonnull align 8 dereferenceable(24) %call, i64 noundef 0) #6
  %call3 = call noundef i64 @_ZNKSt6vectorIdSaIdEE4sizeEv(ptr noundef nonnull align 8 dereferenceable(24) %call2) #6
  ret i64 %call3
}

; Function Attrs: mustprogress uwtable
define void @_ZN6openmc18ScattDataHistogram10get_matrixEm(ptr dead_on_unwind noalias writable sret(%"class.xt::xtensor_container") align 8 %agg.result, ptr noundef nonnull align 8 dereferenceable(400) %this, i64 noundef %max_order) unnamed_addr #1 align 2 personality ptr @__gxx_personality_v0 {
entry:
  %result.ptr = alloca ptr, align 8
  %this.addr = alloca ptr, align 8
  %max_order.addr = alloca i64, align 8
  %groups = alloca i64, align 8
  %order_dim = alloca i64, align 8
  %nrvo = alloca i1, align 1
  %ref.tmp = alloca %"struct.std::array", align 8
  %ref.tmp4 = alloca double, align 8
  %gin = alloca i32, align 4
  %cleanup.dest.slot = alloca i32, align 4
  %i_gout = alloca i32, align 4
  %gout = alloca i32, align 4
  %exn.slot = alloca ptr, align 8
  %ehselector.slot = alloca i32, align 4
  %l = alloca i32, align 4
  store ptr %agg.result, ptr %result.ptr, align 8
  store ptr %this, ptr %this.addr, align 8, !tbaa !54
  store i64 %max_order, ptr %max_order.addr, align 8, !tbaa !36
  %this1 = load ptr, ptr %this.addr, align 8
  call void @llvm.lifetime.start.p0(i64 8, ptr %groups) #6
  %energy = getelementptr inbounds nuw %"class.openmc::ScattData", ptr %this1, i32 0, i32 1
  %call = call noundef i64 @_ZNKSt6vectorIS_IdSaIdEESaIS1_EE4sizeEv(ptr noundef nonnull align 8 dereferenceable(24) %energy) #6
  store i64 %call, ptr %groups, align 8, !tbaa !36
  call void @llvm.lifetime.start.p0(i64 8, ptr %order_dim) #6
  %vtable = load ptr, ptr %this1, align 8, !tbaa !16
  %vfn = getelementptr inbounds ptr, ptr %vtable, i64 6
  %0 = load ptr, ptr %vfn, align 8
  %call2 = call noundef i64 %0(ptr noundef nonnull align 8 dereferenceable(400) %this1)
  store i64 %call2, ptr %order_dim, align 8, !tbaa !36
  store i1 false, ptr %nrvo, align 1
  call void @llvm.lifetime.start.p0(i64 24, ptr %ref.tmp) #6
  %_M_elems = getelementptr inbounds nuw %"struct.std::array", ptr %ref.tmp, i32 0, i32 0
  %1 = load i64, ptr %groups, align 8, !tbaa !36
  store i64 %1, ptr %_M_elems, align 8, !tbaa !36
  %arrayinit.element = getelementptr inbounds i64, ptr %_M_elems, i64 1
  %2 = load i64, ptr %groups, align 8, !tbaa !36
  store i64 %2, ptr %arrayinit.element, align 8, !tbaa !36
  %arrayinit.element3 = getelementptr inbounds i64, ptr %_M_elems, i64 2
  %3 = load i64, ptr %order_dim, align 8, !tbaa !36
  store i64 %3, ptr %arrayinit.element3, align 8, !tbaa !36
  call void @llvm.lifetime.start.p0(i64 8, ptr %ref.tmp4) #6
  store double 0.000000e+00, ptr %ref.tmp4, align 8, !tbaa !20
  call void @_ZN2xt17xtensor_containerINS_7uvectorIdSaIdEEELm3ELNS_11layout_typeE1ENS_22xtensor_expression_tagEEC2ERKSt5arrayImLm3EERKdS4_(ptr noundef nonnull align 8 dereferenceable(120) %agg.result, ptr noundef nonnull align 8 dereferenceable(24) %ref.tmp, ptr noundef nonnull align 8 dereferenceable(8) %ref.tmp4, i32 noundef 1)
  call void @llvm.lifetime.end.p0(i64 8, ptr %ref.tmp4) #6
  call void @llvm.lifetime.end.p0(i64 24, ptr %ref.tmp) #6
  call void @llvm.lifetime.start.p0(i64 4, ptr %gin) #6
  store i32 0, ptr %gin, align 4, !tbaa !18
  br label %for.cond

for.cond:                                         ; preds = %for.inc42, %entry
  %4 = load i32, ptr %gin, align 4, !tbaa !18
  %conv = sext i32 %4 to i64
  %5 = load i64, ptr %groups, align 8, !tbaa !36
  %cmp = icmp ult i64 %conv, %5
  br i1 %cmp, label %for.body, label %for.cond.cleanup

for.cond.cleanup:                                 ; preds = %for.cond
  store i32 2, ptr %cleanup.dest.slot, align 4
  call void @llvm.lifetime.end.p0(i64 4, ptr %gin) #6
  br label %for.end45

for.body:                                         ; preds = %for.cond
  call void @llvm.lifetime.start.p0(i64 4, ptr %i_gout) #6
  store i32 0, ptr %i_gout, align 4, !tbaa !18
  br label %for.cond5

for.cond5:                                        ; preds = %for.inc38, %for.body
  %6 = load i32, ptr %i_gout, align 4, !tbaa !18
  %conv6 = sext i32 %6 to i64
  %energy7 = getelementptr inbounds nuw %"class.openmc::ScattData", ptr %this1, i32 0, i32 1
  %7 = load i32, ptr %gin, align 4, !tbaa !18
  %conv8 = sext i32 %7 to i64
  %call9 = call noundef nonnull align 8 dereferenceable(24) ptr @_ZNSt6vectorIS_IdSaIdEESaIS1_EEixEm(ptr noundef nonnull align 8 dereferenceable(24) %energy7, i64 noundef %conv8) #6
  %call10 = call noundef i64 @_ZNKSt6vectorIdSaIdEE4sizeEv(ptr noundef nonnull align 8 dereferenceable(24) %call9) #6
  %cmp11 = icmp ult i64 %conv6, %call10
  br i1 %cmp11, label %for.body13, label %for.cond.cleanup12

for.cond.cleanup12:                               ; preds = %for.cond5
  store i32 5, ptr %cleanup.dest.slot, align 4
  call void @llvm.lifetime.end.p0(i64 4, ptr %i_gout) #6
  br label %for.end41

for.body13:                                       ; preds = %for.cond5
  call void @llvm.lifetime.start.p0(i64 4, ptr %gout) #6
  %8 = load i32, ptr %i_gout, align 4, !tbaa !18
  %gmin = getelementptr inbounds nuw %"class.openmc::ScattData", ptr %this1, i32 0, i32 4
  %9 = load i32, ptr %gin, align 4, !tbaa !18
  %conv14 = sext i32 %9 to i64
  %call15 = invoke noundef nonnull align 4 dereferenceable(4) ptr @_ZN2xt11xaccessibleINS_17xtensor_containerINS_7uvectorIiSaIiEEELm1ELNS_11layout_typeE1ENS_22xtensor_expression_tagEEEEixEm(ptr noundef nonnull align 1 dereferenceable(1) %gmin, i64 noundef %conv14)
          to label %invoke.cont unwind label %lpad

invoke.cont:                                      ; preds = %for.body13
  %10 = load i32, ptr %call15, align 4, !tbaa !18
  %add = add nsw i32 %8, %10
  store i32 %add, ptr %gout, align 4, !tbaa !18
  call void @llvm.lifetime.start.p0(i64 4, ptr %l) #6
  store i32 0, ptr %l, align 4, !tbaa !18
  br label %for.cond16

for.cond16:                                       ; preds = %for.inc, %invoke.cont
  %11 = load i32, ptr %l, align 4, !tbaa !18
  %conv17 = sext i32 %11 to i64
  %12 = load i64, ptr %order_dim, align 8, !tbaa !36
  %cmp18 = icmp ult i64 %conv17, %12
  br i1 %cmp18, label %for.body20, label %for.cond.cleanup19

for.cond.cleanup19:                               ; preds = %for.cond16
  store i32 8, ptr %cleanup.dest.slot, align 4
  call void @llvm.lifetime.end.p0(i64 4, ptr %l) #6
  br label %for.end

lpad:                                             ; preds = %for.body13
  %13 = landingpad { ptr, i32 }
          cleanup
  %14 = extractvalue { ptr, i32 } %13, 0
  store ptr %14, ptr %exn.slot, align 8
  %15 = extractvalue { ptr, i32 } %13, 1
  store i32 %15, ptr %ehselector.slot, align 4
  br label %ehcleanup

for.body20:                                       ; preds = %for.cond16
  %scattxs = getelementptr inbounds nuw %"class.openmc::ScattData", ptr %this1, i32 0, i32 6
  %16 = load i32, ptr %gin, align 4, !tbaa !18
  %conv21 = sext i32 %16 to i64
  %call24 = invoke noundef nonnull align 8 dereferenceable(8) ptr @_ZN2xt11xaccessibleINS_17xtensor_containerINS_7uvectorIdSaIdEEELm1ELNS_11layout_typeE1ENS_22xtensor_expression_tagEEEEixEm(ptr noundef nonnull align 1 dereferenceable(1) %scattxs, i64 noundef %conv21)
          to label %invoke.cont23 unwind label %lpad22

invoke.cont23:                                    ; preds = %for.body20
  %17 = load double, ptr %call24, align 8, !tbaa !20
  %energy25 = getelementptr inbounds nuw %"class.openmc::ScattData", ptr %this1, i32 0, i32 1
  %18 = load i32, ptr %gin, align 4, !tbaa !18
  %conv26 = sext i32 %18 to i64
  %call27 = call noundef nonnull align 8 dereferenceable(24) ptr @_ZNSt6vectorIS_IdSaIdEESaIS1_EEixEm(ptr noundef nonnull align 8 dereferenceable(24) %energy25, i64 noundef %conv26) #6
  %19 = load i32, ptr %i_gout, align 4, !tbaa !18
  %conv28 = sext i32 %19 to i64
  %call29 = call noundef nonnull align 8 dereferenceable(8) ptr @_ZNSt6vectorIdSaIdEEixEm(ptr noundef nonnull align 8 dereferenceable(24) %call27, i64 noundef %conv28) #6
  %20 = load double, ptr %call29, align 8, !tbaa !20
  %mul = fmul double %17, %20
  %fmu = getelementptr inbounds nuw %"class.openmc::ScattDataHistogram", ptr %this1, i32 0, i32 3
  %21 = load i32, ptr %gin, align 4, !tbaa !18
  %conv30 = sext i32 %21 to i64
  %call31 = call noundef nonnull align 8 dereferenceable(24) ptr @_ZNSt6vectorIS_IS_IdSaIdEESaIS1_EESaIS3_EEixEm(ptr noundef nonnull align 8 dereferenceable(24) %fmu, i64 noundef %conv30) #6
  %22 = load i32, ptr %i_gout, align 4, !tbaa !18
  %conv32 = sext i32 %22 to i64
  %call33 = call noundef nonnull align 8 dereferenceable(24) ptr @_ZNSt6vectorIS_IdSaIdEESaIS1_EEixEm(ptr noundef nonnull align 8 dereferenceable(24) %call31, i64 noundef %conv32) #6
  %23 = load i32, ptr %l, align 4, !tbaa !18
  %conv34 = sext i32 %23 to i64
  %call35 = call noundef nonnull align 8 dereferenceable(8) ptr @_ZNSt6vectorIdSaIdEEixEm(ptr noundef nonnull align 8 dereferenceable(24) %call33, i64 noundef %conv34) #6
  %24 = load double, ptr %call35, align 8, !tbaa !20
  %mul36 = fmul double %mul, %24
  %25 = load i32, ptr %gin, align 4, !tbaa !18
  %26 = load i32, ptr %gout, align 4, !tbaa !18
  %27 = load i32, ptr %l, align 4, !tbaa !18
  %call37 = call noundef nonnull align 8 dereferenceable(8) ptr @_ZN2xt10xcontainerINS_17xtensor_containerINS_7uvectorIdSaIdEEELm3ELNS_11layout_typeE1ENS_22xtensor_expression_tagEEEEclIJiiiEEERdDpT_(ptr noundef nonnull align 1 dereferenceable(1) %agg.result, i32 noundef %25, i32 noundef %26, i32 noundef %27)
  store double %mul36, ptr %call37, align 8, !tbaa !20
  br label %for.inc

for.inc:                                          ; preds = %invoke.cont23
  %28 = load i32, ptr %l, align 4, !tbaa !18
  %inc = add nsw i32 %28, 1
  store i32 %inc, ptr %l, align 4, !tbaa !18
  br label %for.cond16, !llvm.loop !100

lpad22:                                           ; preds = %for.body20
  %29 = landingpad { ptr, i32 }
          cleanup
  %30 = extractvalue { ptr, i32 } %29, 0
  store ptr %30, ptr %exn.slot, align 8
  %31 = extractvalue { ptr, i32 } %29, 1
  store i32 %31, ptr %ehselector.slot, align 4
  call void @llvm.lifetime.end.p0(i64 4, ptr %l) #6
  br label %ehcleanup

for.end:                                          ; preds = %for.cond.cleanup19
  call void @llvm.lifetime.end.p0(i64 4, ptr %gout) #6
  br label %for.inc38

for.inc38:                                        ; preds = %for.end
  %32 = load i32, ptr %i_gout, align 4, !tbaa !18
  %inc39 = add nsw i32 %32, 1
  store i32 %inc39, ptr %i_gout, align 4, !tbaa !18
  br label %for.cond5, !llvm.loop !101

ehcleanup:                                        ; preds = %lpad22, %lpad
  call void @llvm.lifetime.end.p0(i64 4, ptr %gout) #6
  call void @llvm.lifetime.end.p0(i64 4, ptr %i_gout) #6
  call void @llvm.lifetime.end.p0(i64 4, ptr %gin) #6
  call void @_ZN2xt17xtensor_containerINS_7uvectorIdSaIdEEELm3ELNS_11layout_typeE1ENS_22xtensor_expression_tagEED2Ev(ptr noundef nonnull align 8 dereferenceable(120) %agg.result) #6
  call void @llvm.lifetime.end.p0(i64 8, ptr %order_dim) #6
  call void @llvm.lifetime.end.p0(i64 8, ptr %groups) #6
  br label %eh.resume

for.end41:                                        ; preds = %for.cond.cleanup12
  br label %for.inc42

for.inc42:                                        ; preds = %for.end41
  %33 = load i32, ptr %gin, align 4, !tbaa !18
  %inc43 = add nsw i32 %33, 1
  store i32 %inc43, ptr %gin, align 4, !tbaa !18
  br label %for.cond, !llvm.loop !102

for.end45:                                        ; preds = %for.cond.cleanup
  store i1 true, ptr %nrvo, align 1
  store i32 1, ptr %cleanup.dest.slot, align 4
  %nrvo.val = load i1, ptr %nrvo, align 1
  br i1 %nrvo.val, label %nrvo.skipdtor, label %nrvo.unused

nrvo.unused:                                      ; preds = %for.end45
  call void @_ZN2xt17xtensor_containerINS_7uvectorIdSaIdEEELm3ELNS_11layout_typeE1ENS_22xtensor_expression_tagEED2Ev(ptr noundef nonnull align 8 dereferenceable(120) %agg.result) #6
  br label %nrvo.skipdtor

nrvo.skipdtor:                                    ; preds = %nrvo.unused, %for.end45
  call void @llvm.lifetime.end.p0(i64 8, ptr %order_dim) #6
  call void @llvm.lifetime.end.p0(i64 8, ptr %groups) #6
  ret void

eh.resume:                                        ; preds = %ehcleanup
  %exn = load ptr, ptr %exn.slot, align 8
  %sel = load i32, ptr %ehselector.slot, align 4
  %lpad.val = insertvalue { ptr, i32 } poison, ptr %exn, 0
  %lpad.val49 = insertvalue { ptr, i32 } %lpad.val, i32 %sel, 1
  resume { ptr, i32 } %lpad.val49
}

; Function Attrs: inlinehint mustprogress nounwind uwtable
define linkonce_odr void @_ZN6openmc16ScattDataTabularD2Ev(ptr noundef nonnull align 8 dereferenceable(400) %this) unnamed_addr #0 comdat align 2 {
entry:
  %this.addr = alloca ptr, align 8
  store ptr %this, ptr %this.addr, align 8, !tbaa !103
  %this1 = load ptr, ptr %this.addr, align 8
  store ptr getelementptr inbounds inrange(-16, 64) ({ [10 x ptr] }, ptr @_ZTVN6openmc16ScattDataTabularE, i32 0, i32 0, i32 2), ptr %this1, align 8, !tbaa !16
  %fmu = getelementptr inbounds nuw %"class.openmc::ScattDataTabular", ptr %this1, i32 0, i32 3
  call void @_ZNSt6vectorIS_IS_IdSaIdEESaIS1_EESaIS3_EED2Ev(ptr noundef nonnull align 8 dereferenceable(24) %fmu) #6
  %mu = getelementptr inbounds nuw %"class.openmc::ScattDataTabular", ptr %this1, i32 0, i32 1
  call void @_ZN2xt17xtensor_containerINS_7uvectorIdSaIdEEELm1ELNS_11layout_typeE1ENS_22xtensor_expression_tagEED2Ev(ptr noundef nonnull align 8 dereferenceable(72) %mu) #6
  call void @_ZN6openmc9ScattDataD2Ev(ptr noundef nonnull align 8 dereferenceable(296) %this1) #6
  ret void
}

; Function Attrs: inlinehint mustprogress nounwind uwtable
define linkonce_odr void @_ZN6openmc16ScattDataTabularD0Ev(ptr noundef nonnull align 8 dereferenceable(400) %this) unnamed_addr #0 comdat align 2 {
entry:
  %this.addr = alloca ptr, align 8
  store ptr %this, ptr %this.addr, align 8, !tbaa !103
  %this1 = load ptr, ptr %this.addr, align 8
  call void @_ZN6openmc16ScattDataTabularD2Ev(ptr noundef nonnull align 8 dereferenceable(400) %this1) #6
  call void @_ZdlPvm(ptr noundef %this1, i64 noundef 400) #27
  ret void
}

; Function Attrs: mustprogress uwtable
define noundef double @_ZN6openmc16ScattDataTabular6calc_fEiid(ptr noundef nonnull align 8 dereferenceable(400) %this, i32 noundef %gin, i32 noundef %gout, double noundef %mu) unnamed_addr #1 align 2 {
entry:
  %this.addr = alloca ptr, align 8
  %gin.addr = alloca i32, align 4
  %gout.addr = alloca i32, align 4
  %mu.addr = alloca double, align 8
  %f = alloca double, align 8
  %i_gout = alloca i32, align 4
  %imu = alloca i32, align 4
  %r = alloca double, align 8
  store ptr %this, ptr %this.addr, align 8, !tbaa !103
  store i32 %gin, ptr %gin.addr, align 4, !tbaa !18
  store i32 %gout, ptr %gout.addr, align 4, !tbaa !18
  store double %mu, ptr %mu.addr, align 8, !tbaa !20
  %this1 = load ptr, ptr %this.addr, align 8
  call void @llvm.lifetime.start.p0(i64 8, ptr %f) #6
  %0 = load i32, ptr %gout.addr, align 4, !tbaa !18
  %gmin = getelementptr inbounds nuw %"class.openmc::ScattData", ptr %this1, i32 0, i32 4
  %1 = load i32, ptr %gin.addr, align 4, !tbaa !18
  %conv = sext i32 %1 to i64
  %call = call noundef nonnull align 4 dereferenceable(4) ptr @_ZN2xt11xaccessibleINS_17xtensor_containerINS_7uvectorIiSaIiEEELm1ELNS_11layout_typeE1ENS_22xtensor_expression_tagEEEEixEm(ptr noundef nonnull align 1 dereferenceable(1) %gmin, i64 noundef %conv)
  %2 = load i32, ptr %call, align 4, !tbaa !18
  %cmp = icmp slt i32 %0, %2
  br i1 %cmp, label %if.then, label %lor.lhs.false

lor.lhs.false:                                    ; preds = %entry
  %3 = load i32, ptr %gout.addr, align 4, !tbaa !18
  %gmax = getelementptr inbounds nuw %"class.openmc::ScattData", ptr %this1, i32 0, i32 5
  %4 = load i32, ptr %gin.addr, align 4, !tbaa !18
  %conv2 = sext i32 %4 to i64
  %call3 = call noundef nonnull align 4 dereferenceable(4) ptr @_ZN2xt11xaccessibleINS_17xtensor_containerINS_7uvectorIiSaIiEEELm1ELNS_11layout_typeE1ENS_22xtensor_expression_tagEEEEixEm(ptr noundef nonnull align 1 dereferenceable(1) %gmax, i64 noundef %conv2)
  %5 = load i32, ptr %call3, align 4, !tbaa !18
  %cmp4 = icmp sgt i32 %3, %5
  br i1 %cmp4, label %if.then, label %if.else

if.then:                                          ; preds = %lor.lhs.false, %entry
  store double 0.000000e+00, ptr %f, align 8, !tbaa !20
  br label %if.end48

if.else:                                          ; preds = %lor.lhs.false
  call void @llvm.lifetime.start.p0(i64 4, ptr %i_gout) #6
  %6 = load i32, ptr %gout.addr, align 4, !tbaa !18
  %gmin5 = getelementptr inbounds nuw %"class.openmc::ScattData", ptr %this1, i32 0, i32 4
  %7 = load i32, ptr %gin.addr, align 4, !tbaa !18
  %conv6 = sext i32 %7 to i64
  %call7 = call noundef nonnull align 4 dereferenceable(4) ptr @_ZN2xt11xaccessibleINS_17xtensor_containerINS_7uvectorIiSaIiEEELm1ELNS_11layout_typeE1ENS_22xtensor_expression_tagEEEEixEm(ptr noundef nonnull align 1 dereferenceable(1) %gmin5, i64 noundef %conv6)
  %8 = load i32, ptr %call7, align 4, !tbaa !18
  %sub = sub nsw i32 %6, %8
  store i32 %sub, ptr %i_gout, align 4, !tbaa !18
  call void @llvm.lifetime.start.p0(i64 4, ptr %imu) #6
  %9 = load double, ptr %mu.addr, align 8, !tbaa !20
  %cmp8 = fcmp oeq double %9, 1.000000e+00
  br i1 %cmp8, label %if.then9, label %if.else15

if.then9:                                         ; preds = %if.else
  %mu10 = getelementptr inbounds nuw %"class.openmc::ScattDataTabular", ptr %this1, i32 0, i32 1
  %call11 = call noundef nonnull align 8 dereferenceable(8) ptr @_ZNK2xt10xcontainerINS_17xtensor_containerINS_7uvectorIdSaIdEEELm1ELNS_11layout_typeE1ENS_22xtensor_expression_tagEEEE5shapeEv(ptr noundef nonnull align 1 dereferenceable(1) %mu10) #6
  %call12 = call noundef nonnull align 8 dereferenceable(8) ptr @_ZNKSt5arrayImLm1EEixEm(ptr noundef nonnull align 8 dereferenceable(8) %call11, i64 noundef 0) #6
  %10 = load i64, ptr %call12, align 8, !tbaa !36
  %sub13 = sub i64 %10, 2
  %conv14 = trunc i64 %sub13 to i32
  store i32 %conv14, ptr %imu, align 4, !tbaa !18
  br label %if.end

if.else15:                                        ; preds = %if.else
  %11 = load double, ptr %mu.addr, align 8, !tbaa !20
  %add = fadd double %11, 1.000000e+00
  %dmu = getelementptr inbounds nuw %"class.openmc::ScattDataTabular", ptr %this1, i32 0, i32 2
  %12 = load double, ptr %dmu, align 8, !tbaa !105
  %div = fdiv double %add, %12
  %add16 = fadd double %div, 1.000000e+00
  %13 = call double @llvm.floor.f64(double %add16)
  %sub17 = fsub double %13, 1.000000e+00
  %conv18 = fptosi double %sub17 to i32
  store i32 %conv18, ptr %imu, align 4, !tbaa !18
  br label %if.end

if.end:                                           ; preds = %if.else15, %if.then9
  call void @llvm.lifetime.start.p0(i64 8, ptr %r) #6
  %14 = load double, ptr %mu.addr, align 8, !tbaa !20
  %mu19 = getelementptr inbounds nuw %"class.openmc::ScattDataTabular", ptr %this1, i32 0, i32 1
  %15 = load i32, ptr %imu, align 4, !tbaa !18
  %conv20 = sext i32 %15 to i64
  %call21 = call noundef nonnull align 8 dereferenceable(8) ptr @_ZN2xt11xaccessibleINS_17xtensor_containerINS_7uvectorIdSaIdEEELm1ELNS_11layout_typeE1ENS_22xtensor_expression_tagEEEEixEm(ptr noundef nonnull align 1 dereferenceable(1) %mu19, i64 noundef %conv20)
  %16 = load double, ptr %call21, align 8, !tbaa !20
  %sub22 = fsub double %14, %16
  %mu23 = getelementptr inbounds nuw %"class.openmc::ScattDataTabular", ptr %this1, i32 0, i32 1
  %17 = load i32, ptr %imu, align 4, !tbaa !18
  %add24 = add nsw i32 %17, 1
  %conv25 = sext i32 %add24 to i64
  %call26 = call noundef nonnull align 8 dereferenceable(8) ptr @_ZN2xt11xaccessibleINS_17xtensor_containerINS_7uvectorIdSaIdEEELm1ELNS_11layout_typeE1ENS_22xtensor_expression_tagEEEEixEm(ptr noundef nonnull align 1 dereferenceable(1) %mu23, i64 noundef %conv25)
  %18 = load double, ptr %call26, align 8, !tbaa !20
  %mu27 = getelementptr inbounds nuw %"class.openmc::ScattDataTabular", ptr %this1, i32 0, i32 1
  %19 = load i32, ptr %imu, align 4, !tbaa !18
  %conv28 = sext i32 %19 to i64
  %call29 = call noundef nonnull align 8 dereferenceable(8) ptr @_ZN2xt11xaccessibleINS_17xtensor_containerINS_7uvectorIdSaIdEEELm1ELNS_11layout_typeE1ENS_22xtensor_expression_tagEEEEixEm(ptr noundef nonnull align 1 dereferenceable(1) %mu27, i64 noundef %conv28)
  %20 = load double, ptr %call29, align 8, !tbaa !20
  %sub30 = fsub double %18, %20
  %div31 = fdiv double %sub22, %sub30
  store double %div31, ptr %r, align 8, !tbaa !20
  %21 = load double, ptr %r, align 8, !tbaa !20
  %sub32 = fsub double 1.000000e+00, %21
  %fmu = getelementptr inbounds nuw %"class.openmc::ScattDataTabular", ptr %this1, i32 0, i32 3
  %22 = load i32, ptr %gin.addr, align 4, !tbaa !18
  %conv33 = sext i32 %22 to i64
  %call34 = call noundef nonnull align 8 dereferenceable(24) ptr @_ZNSt6vectorIS_IS_IdSaIdEESaIS1_EESaIS3_EEixEm(ptr noundef nonnull align 8 dereferenceable(24) %fmu, i64 noundef %conv33) #6
  %23 = load i32, ptr %i_gout, align 4, !tbaa !18
  %conv35 = sext i32 %23 to i64
  %call36 = call noundef nonnull align 8 dereferenceable(24) ptr @_ZNSt6vectorIS_IdSaIdEESaIS1_EEixEm(ptr noundef nonnull align 8 dereferenceable(24) %call34, i64 noundef %conv35) #6
  %24 = load i32, ptr %imu, align 4, !tbaa !18
  %conv37 = sext i32 %24 to i64
  %call38 = call noundef nonnull align 8 dereferenceable(8) ptr @_ZNSt6vectorIdSaIdEEixEm(ptr noundef nonnull align 8 dereferenceable(24) %call36, i64 noundef %conv37) #6
  %25 = load double, ptr %call38, align 8, !tbaa !20
  %26 = load double, ptr %r, align 8, !tbaa !20
  %fmu39 = getelementptr inbounds nuw %"class.openmc::ScattDataTabular", ptr %this1, i32 0, i32 3
  %27 = load i32, ptr %gin.addr, align 4, !tbaa !18
  %conv40 = sext i32 %27 to i64
  %call41 = call noundef nonnull align 8 dereferenceable(24) ptr @_ZNSt6vectorIS_IS_IdSaIdEESaIS1_EESaIS3_EEixEm(ptr noundef nonnull align 8 dereferenceable(24) %fmu39, i64 noundef %conv40) #6
  %28 = load i32, ptr %i_gout, align 4, !tbaa !18
  %conv42 = sext i32 %28 to i64
  %call43 = call noundef nonnull align 8 dereferenceable(24) ptr @_ZNSt6vectorIS_IdSaIdEESaIS1_EEixEm(ptr noundef nonnull align 8 dereferenceable(24) %call41, i64 noundef %conv42) #6
  %29 = load i32, ptr %imu, align 4, !tbaa !18
  %add44 = add nsw i32 %29, 1
  %conv45 = sext i32 %add44 to i64
  %call46 = call noundef nonnull align 8 dereferenceable(8) ptr @_ZNSt6vectorIdSaIdEEixEm(ptr noundef nonnull align 8 dereferenceable(24) %call43, i64 noundef %conv45) #6
  %30 = load double, ptr %call46, align 8, !tbaa !20
  %mul47 = fmul double %26, %30
  %31 = call double @llvm.fmuladd.f64(double %sub32, double %25, double %mul47)
  store double %31, ptr %f, align 8, !tbaa !20
  call void @llvm.lifetime.end.p0(i64 8, ptr %r) #6
  call void @llvm.lifetime.end.p0(i64 4, ptr %imu) #6
  call void @llvm.lifetime.end.p0(i64 4, ptr %i_gout) #6
  br label %if.end48

if.end48:                                         ; preds = %if.end, %if.then
  %32 = load double, ptr %f, align 8, !tbaa !20
  call void @llvm.lifetime.end.p0(i64 8, ptr %f) #6
  ret double %32
}

; Function Attrs: mustprogress uwtable
define void @_ZN6openmc16ScattDataTabular6sampleEiRiRdS2_Pm(ptr noundef nonnull align 8 dereferenceable(400) %this, i32 noundef %gin, ptr noundef nonnull align 4 dereferenceable(4) %gout, ptr noundef nonnull align 8 dereferenceable(8) %mu, ptr noundef nonnull align 8 dereferenceable(8) %wgt, ptr noundef %seed) unnamed_addr #1 align 2 {
entry:
  %this.addr = alloca ptr, align 8
  %gin.addr = alloca i32, align 4
  %gout.addr = alloca ptr, align 8
  %mu.addr = alloca ptr, align 8
  %wgt.addr = alloca ptr, align 8
  %seed.addr = alloca ptr, align 8
  %i_gout = alloca i32, align 4
  %NP = alloca i32, align 4
  %xi = alloca double, align 8
  %c_k = alloca double, align 8
  %k = alloca i32, align 4
  %c_k1 = alloca double, align 8
  %cleanup.dest.slot = alloca i32, align 4
  %ref.tmp = alloca i32, align 4
  %p0 = alloca double, align 8
  %mu0 = alloca double, align 8
  %p1 = alloca double, align 8
  %mu1 = alloca double, align 8
  %frac = alloca double, align 8
  %ref.tmp48 = alloca double, align 8
  %ref.tmp49 = alloca double, align 8
  store ptr %this, ptr %this.addr, align 8, !tbaa !103
  store i32 %gin, ptr %gin.addr, align 4, !tbaa !18
  store ptr %gout, ptr %gout.addr, align 8, !tbaa !22
  store ptr %mu, ptr %mu.addr, align 8, !tbaa !24
  store ptr %wgt, ptr %wgt.addr, align 8, !tbaa !24
  store ptr %seed, ptr %seed.addr, align 8, !tbaa !26
  %this1 = load ptr, ptr %this.addr, align 8
  call void @llvm.lifetime.start.p0(i64 4, ptr %i_gout) #6
  %0 = load i32, ptr %gin.addr, align 4, !tbaa !18
  %1 = load ptr, ptr %gout.addr, align 8, !tbaa !22
  %2 = load ptr, ptr %seed.addr, align 8, !tbaa !26
  call void @_ZN6openmc9ScattData13sample_energyEiRiS1_Pm(ptr noundef nonnull align 8 dereferenceable(296) %this1, i32 noundef %0, ptr noundef nonnull align 4 dereferenceable(4) %1, ptr noundef nonnull align 4 dereferenceable(4) %i_gout, ptr noundef %2)
  call void @llvm.lifetime.start.p0(i64 4, ptr %NP) #6
  %mu2 = getelementptr inbounds nuw %"class.openmc::ScattDataTabular", ptr %this1, i32 0, i32 1
  %call = call noundef nonnull align 8 dereferenceable(8) ptr @_ZNK2xt10xcontainerINS_17xtensor_containerINS_7uvectorIdSaIdEEELm1ELNS_11layout_typeE1ENS_22xtensor_expression_tagEEEE5shapeEv(ptr noundef nonnull align 1 dereferenceable(1) %mu2) #6
  %call3 = call noundef nonnull align 8 dereferenceable(8) ptr @_ZNKSt5arrayImLm1EEixEm(ptr noundef nonnull align 8 dereferenceable(8) %call, i64 noundef 0) #6
  %3 = load i64, ptr %call3, align 8, !tbaa !36
  %conv = trunc i64 %3 to i32
  store i32 %conv, ptr %NP, align 4, !tbaa !18
  call void @llvm.lifetime.start.p0(i64 8, ptr %xi) #6
  %4 = load ptr, ptr %seed.addr, align 8, !tbaa !26
  %call4 = call noundef double @_ZN6openmc3prnEPm(ptr noundef %4)
  store double %call4, ptr %xi, align 8, !tbaa !20
  call void @llvm.lifetime.start.p0(i64 8, ptr %c_k) #6
  %dist = getelementptr inbounds nuw %"class.openmc::ScattData", ptr %this1, i32 0, i32 3
  %5 = load i32, ptr %gin.addr, align 4, !tbaa !18
  %conv5 = sext i32 %5 to i64
  %call6 = call noundef nonnull align 8 dereferenceable(24) ptr @_ZNSt6vectorIS_IS_IdSaIdEESaIS1_EESaIS3_EEixEm(ptr noundef nonnull align 8 dereferenceable(24) %dist, i64 noundef %conv5) #6
  %6 = load i32, ptr %i_gout, align 4, !tbaa !18
  %conv7 = sext i32 %6 to i64
  %call8 = call noundef nonnull align 8 dereferenceable(24) ptr @_ZNSt6vectorIS_IdSaIdEESaIS1_EEixEm(ptr noundef nonnull align 8 dereferenceable(24) %call6, i64 noundef %conv7) #6
  %call9 = call noundef nonnull align 8 dereferenceable(8) ptr @_ZNSt6vectorIdSaIdEEixEm(ptr noundef nonnull align 8 dereferenceable(24) %call8, i64 noundef 0) #6
  %7 = load double, ptr %call9, align 8, !tbaa !20
  store double %7, ptr %c_k, align 8, !tbaa !20
  call void @llvm.lifetime.start.p0(i64 4, ptr %k) #6
  store i32 0, ptr %k, align 4, !tbaa !18
  br label %for.cond

for.cond:                                         ; preds = %for.inc, %entry
  %8 = load i32, ptr %k, align 4, !tbaa !18
  %9 = load i32, ptr %NP, align 4, !tbaa !18
  %sub = sub nsw i32 %9, 1
  %cmp = icmp slt i32 %8, %sub
  br i1 %cmp, label %for.body, label %for.end

for.body:                                         ; preds = %for.cond
  call void @llvm.lifetime.start.p0(i64 8, ptr %c_k1) #6
  %dist10 = getelementptr inbounds nuw %"class.openmc::ScattData", ptr %this1, i32 0, i32 3
  %10 = load i32, ptr %gin.addr, align 4, !tbaa !18
  %conv11 = sext i32 %10 to i64
  %call12 = call noundef nonnull align 8 dereferenceable(24) ptr @_ZNSt6vectorIS_IS_IdSaIdEESaIS1_EESaIS3_EEixEm(ptr noundef nonnull align 8 dereferenceable(24) %dist10, i64 noundef %conv11) #6
  %11 = load i32, ptr %i_gout, align 4, !tbaa !18
  %conv13 = sext i32 %11 to i64
  %call14 = call noundef nonnull align 8 dereferenceable(24) ptr @_ZNSt6vectorIS_IdSaIdEESaIS1_EEixEm(ptr noundef nonnull align 8 dereferenceable(24) %call12, i64 noundef %conv13) #6
  %12 = load i32, ptr %k, align 4, !tbaa !18
  %add = add nsw i32 %12, 1
  %conv15 = sext i32 %add to i64
  %call16 = call noundef nonnull align 8 dereferenceable(8) ptr @_ZNSt6vectorIdSaIdEEixEm(ptr noundef nonnull align 8 dereferenceable(24) %call14, i64 noundef %conv15) #6
  %13 = load double, ptr %call16, align 8, !tbaa !20
  store double %13, ptr %c_k1, align 8, !tbaa !20
  %14 = load double, ptr %xi, align 8, !tbaa !20
  %15 = load double, ptr %c_k1, align 8, !tbaa !20
  %cmp17 = fcmp olt double %14, %15
  br i1 %cmp17, label %if.then, label %if.end

if.then:                                          ; preds = %for.body
  store i32 2, ptr %cleanup.dest.slot, align 4
  br label %cleanup

if.end:                                           ; preds = %for.body
  %16 = load double, ptr %c_k1, align 8, !tbaa !20
  store double %16, ptr %c_k, align 8, !tbaa !20
  store i32 0, ptr %cleanup.dest.slot, align 4
  br label %cleanup

cleanup:                                          ; preds = %if.end, %if.then
  call void @llvm.lifetime.end.p0(i64 8, ptr %c_k1) #6
  %cleanup.dest = load i32, ptr %cleanup.dest.slot, align 4
  switch i32 %cleanup.dest, label %unreachable [
    i32 0, label %cleanup.cont
    i32 2, label %for.end
  ]

cleanup.cont:                                     ; preds = %cleanup
  br label %for.inc

for.inc:                                          ; preds = %cleanup.cont
  %17 = load i32, ptr %k, align 4, !tbaa !18
  %inc = add nsw i32 %17, 1
  store i32 %inc, ptr %k, align 4, !tbaa !18
  br label %for.cond, !llvm.loop !107

for.end:                                          ; preds = %cleanup, %for.cond
  call void @llvm.lifetime.start.p0(i64 4, ptr %ref.tmp) #6
  %18 = load i32, ptr %NP, align 4, !tbaa !18
  %sub18 = sub nsw i32 %18, 2
  store i32 %sub18, ptr %ref.tmp, align 4, !tbaa !18
  %call19 = call noundef nonnull align 4 dereferenceable(4) ptr @_ZSt3minIiERKT_S2_S2_(ptr noundef nonnull align 4 dereferenceable(4) %k, ptr noundef nonnull align 4 dereferenceable(4) %ref.tmp)
  %19 = load i32, ptr %call19, align 4, !tbaa !18
  store i32 %19, ptr %k, align 4, !tbaa !18
  call void @llvm.lifetime.end.p0(i64 4, ptr %ref.tmp) #6
  call void @llvm.lifetime.start.p0(i64 8, ptr %p0) #6
  %fmu = getelementptr inbounds nuw %"class.openmc::ScattDataTabular", ptr %this1, i32 0, i32 3
  %20 = load i32, ptr %gin.addr, align 4, !tbaa !18
  %conv20 = sext i32 %20 to i64
  %call21 = call noundef nonnull align 8 dereferenceable(24) ptr @_ZNSt6vectorIS_IS_IdSaIdEESaIS1_EESaIS3_EEixEm(ptr noundef nonnull align 8 dereferenceable(24) %fmu, i64 noundef %conv20) #6
  %21 = load i32, ptr %i_gout, align 4, !tbaa !18
  %conv22 = sext i32 %21 to i64
  %call23 = call noundef nonnull align 8 dereferenceable(24) ptr @_ZNSt6vectorIS_IdSaIdEESaIS1_EEixEm(ptr noundef nonnull align 8 dereferenceable(24) %call21, i64 noundef %conv22) #6
  %22 = load i32, ptr %k, align 4, !tbaa !18
  %conv24 = sext i32 %22 to i64
  %call25 = call noundef nonnull align 8 dereferenceable(8) ptr @_ZNSt6vectorIdSaIdEEixEm(ptr noundef nonnull align 8 dereferenceable(24) %call23, i64 noundef %conv24) #6
  %23 = load double, ptr %call25, align 8, !tbaa !20
  store double %23, ptr %p0, align 8, !tbaa !20
  call void @llvm.lifetime.start.p0(i64 8, ptr %mu0) #6
  %mu26 = getelementptr inbounds nuw %"class.openmc::ScattDataTabular", ptr %this1, i32 0, i32 1
  %24 = load i32, ptr %k, align 4, !tbaa !18
  %conv27 = sext i32 %24 to i64
  %call28 = call noundef nonnull align 8 dereferenceable(8) ptr @_ZN2xt11xaccessibleINS_17xtensor_containerINS_7uvectorIdSaIdEEELm1ELNS_11layout_typeE1ENS_22xtensor_expression_tagEEEEixEm(ptr noundef nonnull align 1 dereferenceable(1) %mu26, i64 noundef %conv27)
  %25 = load double, ptr %call28, align 8, !tbaa !20
  store double %25, ptr %mu0, align 8, !tbaa !20
  call void @llvm.lifetime.start.p0(i64 8, ptr %p1) #6
  %fmu29 = getelementptr inbounds nuw %"class.openmc::ScattDataTabular", ptr %this1, i32 0, i32 3
  %26 = load i32, ptr %gin.addr, align 4, !tbaa !18
  %conv30 = sext i32 %26 to i64
  %call31 = call noundef nonnull align 8 dereferenceable(24) ptr @_ZNSt6vectorIS_IS_IdSaIdEESaIS1_EESaIS3_EEixEm(ptr noundef nonnull align 8 dereferenceable(24) %fmu29, i64 noundef %conv30) #6
  %27 = load i32, ptr %i_gout, align 4, !tbaa !18
  %conv32 = sext i32 %27 to i64
  %call33 = call noundef nonnull align 8 dereferenceable(24) ptr @_ZNSt6vectorIS_IdSaIdEESaIS1_EEixEm(ptr noundef nonnull align 8 dereferenceable(24) %call31, i64 noundef %conv32) #6
  %28 = load i32, ptr %k, align 4, !tbaa !18
  %add34 = add nsw i32 %28, 1
  %conv35 = sext i32 %add34 to i64
  %call36 = call noundef nonnull align 8 dereferenceable(8) ptr @_ZNSt6vectorIdSaIdEEixEm(ptr noundef nonnull align 8 dereferenceable(24) %call33, i64 noundef %conv35) #6
  %29 = load double, ptr %call36, align 8, !tbaa !20
  store double %29, ptr %p1, align 8, !tbaa !20
  call void @llvm.lifetime.start.p0(i64 8, ptr %mu1) #6
  %mu37 = getelementptr inbounds nuw %"class.openmc::ScattDataTabular", ptr %this1, i32 0, i32 1
  %30 = load i32, ptr %k, align 4, !tbaa !18
  %add38 = add nsw i32 %30, 1
  %conv39 = sext i32 %add38 to i64
  %call40 = call noundef nonnull align 8 dereferenceable(8) ptr @_ZN2xt11xaccessibleINS_17xtensor_containerINS_7uvectorIdSaIdEEELm1ELNS_11layout_typeE1ENS_22xtensor_expression_tagEEEEixEm(ptr noundef nonnull align 1 dereferenceable(1) %mu37, i64 noundef %conv39)
  %31 = load double, ptr %call40, align 8, !tbaa !20
  store double %31, ptr %mu1, align 8, !tbaa !20
  %32 = load double, ptr %p0, align 8, !tbaa !20
  %33 = load double, ptr %p1, align 8, !tbaa !20
  %cmp41 = fcmp oeq double %32, %33
  br i1 %cmp41, label %if.then42, label %if.else

if.then42:                                        ; preds = %for.end
  %34 = load double, ptr %mu0, align 8, !tbaa !20
  %35 = load double, ptr %xi, align 8, !tbaa !20
  %36 = load double, ptr %c_k, align 8, !tbaa !20
  %sub43 = fsub double %35, %36
  %37 = load double, ptr %p0, align 8, !tbaa !20
  %div = fdiv double %sub43, %37
  %add44 = fadd double %34, %div
  %38 = load ptr, ptr %mu.addr, align 8, !tbaa !24
  store double %add44, ptr %38, align 8, !tbaa !20
  br label %if.end58

if.else:                                          ; preds = %for.end
  call void @llvm.lifetime.start.p0(i64 8, ptr %frac) #6
  %39 = load double, ptr %p1, align 8, !tbaa !20
  %40 = load double, ptr %p0, align 8, !tbaa !20
  %sub45 = fsub double %39, %40
  %41 = load double, ptr %mu1, align 8, !tbaa !20
  %42 = load double, ptr %mu0, align 8, !tbaa !20
  %sub46 = fsub double %41, %42
  %div47 = fdiv double %sub45, %sub46
  store double %div47, ptr %frac, align 8, !tbaa !20
  %43 = load double, ptr %mu0, align 8, !tbaa !20
  call void @llvm.lifetime.start.p0(i64 8, ptr %ref.tmp48) #6
  store double 0.000000e+00, ptr %ref.tmp48, align 8, !tbaa !20
  call void @llvm.lifetime.start.p0(i64 8, ptr %ref.tmp49) #6
  %44 = load double, ptr %p0, align 8, !tbaa !20
  %45 = load double, ptr %p0, align 8, !tbaa !20
  %46 = load double, ptr %frac, align 8, !tbaa !20
  %mul50 = fmul double 2.000000e+00, %46
  %47 = load double, ptr %xi, align 8, !tbaa !20
  %48 = load double, ptr %c_k, align 8, !tbaa !20
  %sub51 = fsub double %47, %48
  %mul52 = fmul double %mul50, %sub51
  %49 = call double @llvm.fmuladd.f64(double %44, double %45, double %mul52)
  store double %49, ptr %ref.tmp49, align 8, !tbaa !20
  %call53 = call noundef nonnull align 8 dereferenceable(8) ptr @_ZSt3maxIdERKT_S2_S2_(ptr noundef nonnull align 8 dereferenceable(8) %ref.tmp48, ptr noundef nonnull align 8 dereferenceable(8) %ref.tmp49)
  %50 = load double, ptr %call53, align 8, !tbaa !20
  %call54 = call double @sqrt(double noundef %50) #6, !tbaa !18
  %51 = load double, ptr %p0, align 8, !tbaa !20
  %sub55 = fsub double %call54, %51
  %52 = load double, ptr %frac, align 8, !tbaa !20
  %div56 = fdiv double %sub55, %52
  %add57 = fadd double %43, %div56
  %53 = load ptr, ptr %mu.addr, align 8, !tbaa !24
  store double %add57, ptr %53, align 8, !tbaa !20
  call void @llvm.lifetime.end.p0(i64 8, ptr %ref.tmp49) #6
  call void @llvm.lifetime.end.p0(i64 8, ptr %ref.tmp48) #6
  call void @llvm.lifetime.end.p0(i64 8, ptr %frac) #6
  br label %if.end58

if.end58:                                         ; preds = %if.else, %if.then42
  %54 = load ptr, ptr %mu.addr, align 8, !tbaa !24
  %55 = load double, ptr %54, align 8, !tbaa !20
  %cmp59 = fcmp olt double %55, -1.000000e+00
  br i1 %cmp59, label %if.then60, label %if.else61

if.then60:                                        ; preds = %if.end58
  %56 = load ptr, ptr %mu.addr, align 8, !tbaa !24
  store double -1.000000e+00, ptr %56, align 8, !tbaa !20
  br label %if.end65

if.else61:                                        ; preds = %if.end58
  %57 = load ptr, ptr %mu.addr, align 8, !tbaa !24
  %58 = load double, ptr %57, align 8, !tbaa !20
  %cmp62 = fcmp ogt double %58, 1.000000e+00
  br i1 %cmp62, label %if.then63, label %if.end64

if.then63:                                        ; preds = %if.else61
  %59 = load ptr, ptr %mu.addr, align 8, !tbaa !24
  store double 1.000000e+00, ptr %59, align 8, !tbaa !20
  br label %if.end64

if.end64:                                         ; preds = %if.then63, %if.else61
  br label %if.end65

if.end65:                                         ; preds = %if.end64, %if.then60
  %mult = getelementptr inbounds nuw %"class.openmc::ScattData", ptr %this1, i32 0, i32 2
  %60 = load i32, ptr %gin.addr, align 4, !tbaa !18
  %conv66 = sext i32 %60 to i64
  %call67 = call noundef nonnull align 8 dereferenceable(24) ptr @_ZNSt6vectorIS_IdSaIdEESaIS1_EEixEm(ptr noundef nonnull align 8 dereferenceable(24) %mult, i64 noundef %conv66) #6
  %61 = load i32, ptr %i_gout, align 4, !tbaa !18
  %conv68 = sext i32 %61 to i64
  %call69 = call noundef nonnull align 8 dereferenceable(8) ptr @_ZNSt6vectorIdSaIdEEixEm(ptr noundef nonnull align 8 dereferenceable(24) %call67, i64 noundef %conv68) #6
  %62 = load double, ptr %call69, align 8, !tbaa !20
  %63 = load ptr, ptr %wgt.addr, align 8, !tbaa !24
  %64 = load double, ptr %63, align 8, !tbaa !20
  %mul = fmul double %64, %62
  store double %mul, ptr %63, align 8, !tbaa !20
  call void @llvm.lifetime.end.p0(i64 8, ptr %mu1) #6
  call void @llvm.lifetime.end.p0(i64 8, ptr %p1) #6
  call void @llvm.lifetime.end.p0(i64 8, ptr %mu0) #6
  call void @llvm.lifetime.end.p0(i64 8, ptr %p0) #6
  call void @llvm.lifetime.end.p0(i64 4, ptr %k) #6
  call void @llvm.lifetime.end.p0(i64 8, ptr %c_k) #6
  call void @llvm.lifetime.end.p0(i64 8, ptr %xi) #6
  call void @llvm.lifetime.end.p0(i64 4, ptr %NP) #6
  call void @llvm.lifetime.end.p0(i64 4, ptr %i_gout) #6
  ret void

unreachable:                                      ; preds = %cleanup
  unreachable
}

; Function Attrs: mustprogress uwtable
define void @_ZN6openmc16ScattDataTabular4initERKN2xt17xtensor_containerINS1_7uvectorIiSaIiEEELm1ELNS1_11layout_typeE1ENS1_22xtensor_expression_tagEEESA_RKSt6vectorISB_IdSaIdEESaISD_EERKSB_ISF_SaISF_EE(ptr noundef nonnull align 8 dereferenceable(400) %this, ptr noundef nonnull align 8 dereferenceable(72) %in_gmin, ptr noundef nonnull align 8 dereferenceable(72) %in_gmax, ptr noundef nonnull align 8 dereferenceable(24) %in_mult, ptr noundef nonnull align 8 dereferenceable(24) %coeffs) unnamed_addr #1 align 2 personality ptr @__gxx_personality_v0 {
entry:
  %this.addr = alloca ptr, align 8
  %in_gmin.addr = alloca ptr, align 8
  %in_gmax.addr = alloca ptr, align 8
  %in_mult.addr = alloca ptr, align 8
  %coeffs.addr = alloca ptr, align 8
  %groups = alloca i64, align 8
  %order = alloca i64, align 8
  %matrix = alloca %"class.std::vector.21", align 8
  %ref.tmp = alloca %"class.xt::xgenerator", align 8
  %exn.slot = alloca ptr, align 8
  %ehselector.slot = alloca i32, align 4
  %ref.tmp6 = alloca %"class.xt::xbroadcast", align 8
  %ref.tmp7 = alloca [1 x i64], align 8
  %gin = alloca i32, align 4
  %cleanup.dest.slot = alloca i32, align 4
  %i_gout = alloca i32, align 4
  %imu = alloca i32, align 4
  %in_energy = alloca %"class.std::vector", align 8
  %ref.tmp51 = alloca %"class.std::allocator", align 1
  %gin54 = alloca i32, align 4
  %num_groups = alloca i32, align 4
  %i_gout73 = alloca i32, align 4
  %norm = alloca double, align 8
  %imu78 = alloca i32, align 4
  %gin118 = alloca i32, align 4
  %num_groups124 = alloca i32, align 4
  %i_gout139 = alloca i32, align 4
  %__range3 = alloca ptr, align 8
  %__begin3 = alloca %"class.__gnu_cxx::__normal_iterator", align 8
  %__end3 = alloca %"class.__gnu_cxx::__normal_iterator", align 8
  %val = alloca ptr, align 8
  %norm179 = alloca double, align 8
  %imu180 = alloca i32, align 4
  %imu216 = alloca i32, align 4
  store ptr %this, ptr %this.addr, align 8, !tbaa !103
  store ptr %in_gmin, ptr %in_gmin.addr, align 8, !tbaa !30
  store ptr %in_gmax, ptr %in_gmax.addr, align 8, !tbaa !30
  store ptr %in_mult, ptr %in_mult.addr, align 8, !tbaa !32
  store ptr %coeffs, ptr %coeffs.addr, align 8, !tbaa !34
  %this1 = load ptr, ptr %this.addr, align 8
  call void @llvm.lifetime.start.p0(i64 8, ptr %groups) #6
  %0 = load ptr, ptr %coeffs.addr, align 8, !tbaa !34
  %call = call noundef i64 @_ZNKSt6vectorIS_IS_IdSaIdEESaIS1_EESaIS3_EE4sizeEv(ptr noundef nonnull align 8 dereferenceable(24) %0) #6
  store i64 %call, ptr %groups, align 8, !tbaa !36
  call void @llvm.lifetime.start.p0(i64 8, ptr %order) #6
  %1 = load ptr, ptr %coeffs.addr, align 8, !tbaa !34
  %call2 = call noundef nonnull align 8 dereferenceable(24) ptr @_ZNKSt6vectorIS_IS_IdSaIdEESaIS1_EESaIS3_EEixEm(ptr noundef nonnull align 8 dereferenceable(24) %1, i64 noundef 0) #6
  %call3 = call noundef nonnull align 8 dereferenceable(24) ptr @_ZNKSt6vectorIS_IdSaIdEESaIS1_EEixEm(ptr noundef nonnull align 8 dereferenceable(24) %call2, i64 noundef 0) #6
  %call4 = call noundef i64 @_ZNKSt6vectorIdSaIdEE4sizeEv(ptr noundef nonnull align 8 dereferenceable(24) %call3) #6
  store i64 %call4, ptr %order, align 8, !tbaa !36
  call void @llvm.lifetime.start.p0(i64 24, ptr %matrix) #6
  %2 = load ptr, ptr %coeffs.addr, align 8, !tbaa !34
  call void @_ZNSt6vectorIS_IS_IdSaIdEESaIS1_EESaIS3_EEC2ERKS5_(ptr noundef nonnull align 8 dereferenceable(24) %matrix, ptr noundef nonnull align 8 dereferenceable(24) %2)
  call void @llvm.lifetime.start.p0(i64 48, ptr %ref.tmp) #6
  %3 = load i64, ptr %order, align 8, !tbaa !36
  call void @_ZN2xt8linspaceIdEEDaT_S1_mb(ptr dead_on_unwind writable sret(%"class.xt::xgenerator") align 8 %ref.tmp, double noundef -1.000000e+00, double noundef 1.000000e+00, i64 noundef %3, i1 noundef zeroext true) #6
  %mu = getelementptr inbounds nuw %"class.openmc::ScattDataTabular", ptr %this1, i32 0, i32 1
  %call5 = invoke noundef nonnull align 8 dereferenceable(72) ptr @_ZN2xt17xtensor_containerINS_7uvectorIdSaIdEEELm1ELNS_11layout_typeE1ENS_22xtensor_expression_tagEEaSINS_10xgeneratorINS_6detail16arange_generatorIdddEEdSt5arrayImLm1EEEEEERS6_RKNS_11xexpressionIT_EE(ptr noundef nonnull align 8 dereferenceable(72) %mu, ptr noundef nonnull align 1 dereferenceable(1) %ref.tmp)
          to label %invoke.cont unwind label %lpad

invoke.cont:                                      ; preds = %entry
  call void @_ZN2xt20xsharable_expressionINS_10xgeneratorINS_6detail16arange_generatorIdddEEdSt5arrayImLm1EEEEED2Ev(ptr noundef nonnull align 8 dereferenceable(48) %ref.tmp) #6
  call void @llvm.lifetime.end.p0(i64 48, ptr %ref.tmp) #6
  %4 = load i64, ptr %order, align 8, !tbaa !36
  %sub = sub i64 %4, 1
  %conv = uitofp i64 %sub to double
  %div = fdiv double 2.000000e+00, %conv
  %dmu = getelementptr inbounds nuw %"class.openmc::ScattDataTabular", ptr %this1, i32 0, i32 2
  store double %div, ptr %dmu, align 8, !tbaa !105
  call void @llvm.lifetime.start.p0(i64 48, ptr %ref.tmp6) #6
  call void @llvm.lifetime.start.p0(i64 8, ptr %ref.tmp7) #6
  %5 = load i64, ptr %groups, align 8, !tbaa !36
  store i64 %5, ptr %ref.tmp7, align 8, !tbaa !36
  call void @_ZN2xt5zerosIdmLm1EEEDaRAT1__KT0_(ptr dead_on_unwind writable sret(%"class.xt::xbroadcast") align 8 %ref.tmp6, ptr noundef nonnull align 8 dereferenceable(8) %ref.tmp7) #6
  %scattxs = getelementptr inbounds nuw %"class.openmc::ScattData", ptr %this1, i32 0, i32 6
  %call10 = invoke noundef nonnull align 8 dereferenceable(72) ptr @_ZN2xt17xtensor_containerINS_7uvectorIdSaIdEEELm1ELNS_11layout_typeE1ENS_22xtensor_expression_tagEEaSINS_10xbroadcastINS_7xscalarIdEESt5arrayImLm1EEEEEERS6_RKNS_11xexpressionIT_EE(ptr noundef nonnull align 8 dereferenceable(72) %scattxs, ptr noundef nonnull align 1 dereferenceable(1) %ref.tmp6)
          to label %invoke.cont9 unwind label %lpad8

invoke.cont9:                                     ; preds = %invoke.cont
  call void @_ZN2xt10xbroadcastINS_7xscalarIdEESt5arrayImLm1EEED2Ev(ptr noundef nonnull align 8 dereferenceable(48) %ref.tmp6) #6
  call void @llvm.lifetime.end.p0(i64 8, ptr %ref.tmp7) #6
  call void @llvm.lifetime.end.p0(i64 48, ptr %ref.tmp6) #6
  call void @llvm.lifetime.start.p0(i64 4, ptr %gin) #6
  store i32 0, ptr %gin, align 4, !tbaa !18
  br label %for.cond

for.cond:                                         ; preds = %for.inc48, %invoke.cont9
  %6 = load i32, ptr %gin, align 4, !tbaa !18
  %conv11 = sext i32 %6 to i64
  %7 = load i64, ptr %groups, align 8, !tbaa !36
  %cmp = icmp ult i64 %conv11, %7
  br i1 %cmp, label %for.body, label %for.cond.cleanup

for.cond.cleanup:                                 ; preds = %for.cond
  store i32 2, ptr %cleanup.dest.slot, align 4
  call void @llvm.lifetime.end.p0(i64 4, ptr %gin) #6
  br label %for.end50

lpad:                                             ; preds = %entry
  %8 = landingpad { ptr, i32 }
          cleanup
  %9 = extractvalue { ptr, i32 } %8, 0
  store ptr %9, ptr %exn.slot, align 8
  %10 = extractvalue { ptr, i32 } %8, 1
  store i32 %10, ptr %ehselector.slot, align 4
  call void @_ZN2xt20xsharable_expressionINS_10xgeneratorINS_6detail16arange_generatorIdddEEdSt5arrayImLm1EEEEED2Ev(ptr noundef nonnull align 8 dereferenceable(48) %ref.tmp) #6
  call void @llvm.lifetime.end.p0(i64 48, ptr %ref.tmp) #6
  br label %ehcleanup251

lpad8:                                            ; preds = %invoke.cont
  %11 = landingpad { ptr, i32 }
          cleanup
  %12 = extractvalue { ptr, i32 } %11, 0
  store ptr %12, ptr %exn.slot, align 8
  %13 = extractvalue { ptr, i32 } %11, 1
  store i32 %13, ptr %ehselector.slot, align 4
  call void @_ZN2xt10xbroadcastINS_7xscalarIdEESt5arrayImLm1EEED2Ev(ptr noundef nonnull align 8 dereferenceable(48) %ref.tmp6) #6
  call void @llvm.lifetime.end.p0(i64 8, ptr %ref.tmp7) #6
  call void @llvm.lifetime.end.p0(i64 48, ptr %ref.tmp6) #6
  br label %ehcleanup251

for.body:                                         ; preds = %for.cond
  call void @llvm.lifetime.start.p0(i64 4, ptr %i_gout) #6
  store i32 0, ptr %i_gout, align 4, !tbaa !18
  br label %for.cond12

for.cond12:                                       ; preds = %for.inc45, %for.body
  %14 = load i32, ptr %i_gout, align 4, !tbaa !18
  %conv13 = sext i32 %14 to i64
  %15 = load i32, ptr %gin, align 4, !tbaa !18
  %conv14 = sext i32 %15 to i64
  %call15 = call noundef nonnull align 8 dereferenceable(24) ptr @_ZNSt6vectorIS_IS_IdSaIdEESaIS1_EESaIS3_EEixEm(ptr noundef nonnull align 8 dereferenceable(24) %matrix, i64 noundef %conv14) #6
  %call16 = call noundef i64 @_ZNKSt6vectorIS_IdSaIdEESaIS1_EE4sizeEv(ptr noundef nonnull align 8 dereferenceable(24) %call15) #6
  %cmp17 = icmp ult i64 %conv13, %call16
  br i1 %cmp17, label %for.body19, label %for.cond.cleanup18

for.cond.cleanup18:                               ; preds = %for.cond12
  store i32 5, ptr %cleanup.dest.slot, align 4
  call void @llvm.lifetime.end.p0(i64 4, ptr %i_gout) #6
  br label %for.end47

for.body19:                                       ; preds = %for.cond12
  call void @llvm.lifetime.start.p0(i64 4, ptr %imu) #6
  store i32 1, ptr %imu, align 4, !tbaa !18
  br label %for.cond20

for.cond20:                                       ; preds = %for.inc, %for.body19
  %16 = load i32, ptr %imu, align 4, !tbaa !18
  %conv21 = sext i32 %16 to i64
  %17 = load i64, ptr %order, align 8, !tbaa !36
  %cmp22 = icmp ult i64 %conv21, %17
  br i1 %cmp22, label %for.body24, label %for.cond.cleanup23

for.cond.cleanup23:                               ; preds = %for.cond20
  store i32 8, ptr %cleanup.dest.slot, align 4
  call void @llvm.lifetime.end.p0(i64 4, ptr %imu) #6
  br label %for.end

for.body24:                                       ; preds = %for.cond20
  %dmu25 = getelementptr inbounds nuw %"class.openmc::ScattDataTabular", ptr %this1, i32 0, i32 2
  %18 = load double, ptr %dmu25, align 8, !tbaa !105
  %mul = fmul double 5.000000e-01, %18
  %19 = load i32, ptr %gin, align 4, !tbaa !18
  %conv26 = sext i32 %19 to i64
  %call27 = call noundef nonnull align 8 dereferenceable(24) ptr @_ZNSt6vectorIS_IS_IdSaIdEESaIS1_EESaIS3_EEixEm(ptr noundef nonnull align 8 dereferenceable(24) %matrix, i64 noundef %conv26) #6
  %20 = load i32, ptr %i_gout, align 4, !tbaa !18
  %conv28 = sext i32 %20 to i64
  %call29 = call noundef nonnull align 8 dereferenceable(24) ptr @_ZNSt6vectorIS_IdSaIdEESaIS1_EEixEm(ptr noundef nonnull align 8 dereferenceable(24) %call27, i64 noundef %conv28) #6
  %21 = load i32, ptr %imu, align 4, !tbaa !18
  %sub30 = sub nsw i32 %21, 1
  %conv31 = sext i32 %sub30 to i64
  %call32 = call noundef nonnull align 8 dereferenceable(8) ptr @_ZNSt6vectorIdSaIdEEixEm(ptr noundef nonnull align 8 dereferenceable(24) %call29, i64 noundef %conv31) #6
  %22 = load double, ptr %call32, align 8, !tbaa !20
  %23 = load i32, ptr %gin, align 4, !tbaa !18
  %conv33 = sext i32 %23 to i64
  %call34 = call noundef nonnull align 8 dereferenceable(24) ptr @_ZNSt6vectorIS_IS_IdSaIdEESaIS1_EESaIS3_EEixEm(ptr noundef nonnull align 8 dereferenceable(24) %matrix, i64 noundef %conv33) #6
  %24 = load i32, ptr %i_gout, align 4, !tbaa !18
  %conv35 = sext i32 %24 to i64
  %call36 = call noundef nonnull align 8 dereferenceable(24) ptr @_ZNSt6vectorIS_IdSaIdEESaIS1_EEixEm(ptr noundef nonnull align 8 dereferenceable(24) %call34, i64 noundef %conv35) #6
  %25 = load i32, ptr %imu, align 4, !tbaa !18
  %conv37 = sext i32 %25 to i64
  %call38 = call noundef nonnull align 8 dereferenceable(8) ptr @_ZNSt6vectorIdSaIdEEixEm(ptr noundef nonnull align 8 dereferenceable(24) %call36, i64 noundef %conv37) #6
  %26 = load double, ptr %call38, align 8, !tbaa !20
  %add = fadd double %22, %26
  %scattxs40 = getelementptr inbounds nuw %"class.openmc::ScattData", ptr %this1, i32 0, i32 6
  %27 = load i32, ptr %gin, align 4, !tbaa !18
  %conv41 = sext i32 %27 to i64
  %call44 = invoke noundef nonnull align 8 dereferenceable(8) ptr @_ZN2xt11xaccessibleINS_17xtensor_containerINS_7uvectorIdSaIdEEELm1ELNS_11layout_typeE1ENS_22xtensor_expression_tagEEEEixEm(ptr noundef nonnull align 1 dereferenceable(1) %scattxs40, i64 noundef %conv41)
          to label %invoke.cont43 unwind label %lpad42

invoke.cont43:                                    ; preds = %for.body24
  %28 = load double, ptr %call44, align 8, !tbaa !20
  %29 = call double @llvm.fmuladd.f64(double %mul, double %add, double %28)
  store double %29, ptr %call44, align 8, !tbaa !20
  br label %for.inc

for.inc:                                          ; preds = %invoke.cont43
  %30 = load i32, ptr %imu, align 4, !tbaa !18
  %inc = add nsw i32 %30, 1
  store i32 %inc, ptr %imu, align 4, !tbaa !18
  br label %for.cond20, !llvm.loop !108

lpad42:                                           ; preds = %for.body24
  %31 = landingpad { ptr, i32 }
          cleanup
  %32 = extractvalue { ptr, i32 } %31, 0
  store ptr %32, ptr %exn.slot, align 8
  %33 = extractvalue { ptr, i32 } %31, 1
  store i32 %33, ptr %ehselector.slot, align 4
  call void @llvm.lifetime.end.p0(i64 4, ptr %imu) #6
  call void @llvm.lifetime.end.p0(i64 4, ptr %i_gout) #6
  call void @llvm.lifetime.end.p0(i64 4, ptr %gin) #6
  br label %ehcleanup251

for.end:                                          ; preds = %for.cond.cleanup23
  br label %for.inc45

for.inc45:                                        ; preds = %for.end
  %34 = load i32, ptr %i_gout, align 4, !tbaa !18
  %inc46 = add nsw i32 %34, 1
  store i32 %inc46, ptr %i_gout, align 4, !tbaa !18
  br label %for.cond12, !llvm.loop !109

for.end47:                                        ; preds = %for.cond.cleanup18
  br label %for.inc48

for.inc48:                                        ; preds = %for.end47
  %35 = load i32, ptr %gin, align 4, !tbaa !18
  %inc49 = add nsw i32 %35, 1
  store i32 %inc49, ptr %gin, align 4, !tbaa !18
  br label %for.cond, !llvm.loop !110

for.end50:                                        ; preds = %for.cond.cleanup
  call void @llvm.lifetime.start.p0(i64 24, ptr %in_energy) #6
  %36 = load i64, ptr %groups, align 8, !tbaa !36
  call void @llvm.lifetime.start.p0(i64 1, ptr %ref.tmp51) #6
  call void @_ZNSaISt6vectorIdSaIdEEEC2Ev(ptr noundef nonnull align 1 dereferenceable(1) %ref.tmp51) #6
  invoke void @_ZNSt6vectorIS_IdSaIdEESaIS1_EEC2EmRKS2_(ptr noundef nonnull align 8 dereferenceable(24) %in_energy, i64 noundef %36, ptr noundef nonnull align 1 dereferenceable(1) %ref.tmp51)
          to label %invoke.cont53 unwind label %lpad52

invoke.cont53:                                    ; preds = %for.end50
  call void @_ZNSt15__new_allocatorISt6vectorIdSaIdEEED2Ev(ptr noundef nonnull align 1 dereferenceable(1) %ref.tmp51) #6
  call void @llvm.lifetime.end.p0(i64 1, ptr %ref.tmp51) #6
  call void @llvm.lifetime.start.p0(i64 4, ptr %gin54) #6
  store i32 0, ptr %gin54, align 4, !tbaa !18
  br label %for.cond55

for.cond55:                                       ; preds = %for.inc111, %invoke.cont53
  %37 = load i32, ptr %gin54, align 4, !tbaa !18
  %conv56 = sext i32 %37 to i64
  %38 = load i64, ptr %groups, align 8, !tbaa !36
  %cmp57 = icmp ult i64 %conv56, %38
  br i1 %cmp57, label %for.body59, label %for.cond.cleanup58

for.cond.cleanup58:                               ; preds = %for.cond55
  store i32 11, ptr %cleanup.dest.slot, align 4
  call void @llvm.lifetime.end.p0(i64 4, ptr %gin54) #6
  br label %for.end113

lpad52:                                           ; preds = %for.end50
  %39 = landingpad { ptr, i32 }
          cleanup
  %40 = extractvalue { ptr, i32 } %39, 0
  store ptr %40, ptr %exn.slot, align 8
  %41 = extractvalue { ptr, i32 } %39, 1
  store i32 %41, ptr %ehselector.slot, align 4
  call void @_ZNSt15__new_allocatorISt6vectorIdSaIdEEED2Ev(ptr noundef nonnull align 1 dereferenceable(1) %ref.tmp51) #6
  call void @llvm.lifetime.end.p0(i64 1, ptr %ref.tmp51) #6
  br label %ehcleanup250

for.body59:                                       ; preds = %for.cond55
  call void @llvm.lifetime.start.p0(i64 4, ptr %num_groups) #6
  %42 = load ptr, ptr %in_gmax.addr, align 8, !tbaa !30
  %43 = load i32, ptr %gin54, align 4, !tbaa !18
  %conv60 = sext i32 %43 to i64
  %call63 = invoke noundef nonnull align 4 dereferenceable(4) ptr @_ZNK2xt17xconst_accessibleINS_17xtensor_containerINS_7uvectorIiSaIiEEELm1ELNS_11layout_typeE1ENS_22xtensor_expression_tagEEEEixEm(ptr noundef nonnull align 1 dereferenceable(1) %42, i64 noundef %conv60)
          to label %invoke.cont62 unwind label %lpad61

invoke.cont62:                                    ; preds = %for.body59
  %44 = load i32, ptr %call63, align 4, !tbaa !18
  %45 = load ptr, ptr %in_gmin.addr, align 8, !tbaa !30
  %46 = load i32, ptr %gin54, align 4, !tbaa !18
  %conv64 = sext i32 %46 to i64
  %call66 = invoke noundef nonnull align 4 dereferenceable(4) ptr @_ZNK2xt17xconst_accessibleINS_17xtensor_containerINS_7uvectorIiSaIiEEELm1ELNS_11layout_typeE1ENS_22xtensor_expression_tagEEEEixEm(ptr noundef nonnull align 1 dereferenceable(1) %45, i64 noundef %conv64)
          to label %invoke.cont65 unwind label %lpad61

invoke.cont65:                                    ; preds = %invoke.cont62
  %47 = load i32, ptr %call66, align 4, !tbaa !18
  %sub67 = sub nsw i32 %44, %47
  %add68 = add nsw i32 %sub67, 1
  store i32 %add68, ptr %num_groups, align 4, !tbaa !18
  %48 = load i32, ptr %gin54, align 4, !tbaa !18
  %conv69 = sext i32 %48 to i64
  %call70 = call noundef nonnull align 8 dereferenceable(24) ptr @_ZNSt6vectorIS_IdSaIdEESaIS1_EEixEm(ptr noundef nonnull align 8 dereferenceable(24) %in_energy, i64 noundef %conv69) #6
  %49 = load i32, ptr %num_groups, align 4, !tbaa !18
  %conv71 = sext i32 %49 to i64
  invoke void @_ZNSt6vectorIdSaIdEE6resizeEm(ptr noundef nonnull align 8 dereferenceable(24) %call70, i64 noundef %conv71)
          to label %invoke.cont72 unwind label %lpad61

invoke.cont72:                                    ; preds = %invoke.cont65
  call void @llvm.lifetime.start.p0(i64 4, ptr %i_gout73) #6
  store i32 0, ptr %i_gout73, align 4, !tbaa !18
  br label %for.cond74

for.cond74:                                       ; preds = %for.inc108, %invoke.cont72
  %50 = load i32, ptr %i_gout73, align 4, !tbaa !18
  %51 = load i32, ptr %num_groups, align 4, !tbaa !18
  %cmp75 = icmp slt i32 %50, %51
  br i1 %cmp75, label %for.body77, label %for.cond.cleanup76

for.cond.cleanup76:                               ; preds = %for.cond74
  store i32 14, ptr %cleanup.dest.slot, align 4
  call void @llvm.lifetime.end.p0(i64 4, ptr %i_gout73) #6
  br label %for.end110

lpad61:                                           ; preds = %invoke.cont65, %invoke.cont62, %for.body59
  %52 = landingpad { ptr, i32 }
          cleanup
  %53 = extractvalue { ptr, i32 } %52, 0
  store ptr %53, ptr %exn.slot, align 8
  %54 = extractvalue { ptr, i32 } %52, 1
  store i32 %54, ptr %ehselector.slot, align 4
  call void @llvm.lifetime.end.p0(i64 4, ptr %num_groups) #6
  call void @llvm.lifetime.end.p0(i64 4, ptr %gin54) #6
  br label %ehcleanup249

for.body77:                                       ; preds = %for.cond74
  call void @llvm.lifetime.start.p0(i64 8, ptr %norm) #6
  store double 0.000000e+00, ptr %norm, align 8, !tbaa !20
  call void @llvm.lifetime.start.p0(i64 4, ptr %imu78) #6
  store i32 1, ptr %imu78, align 4, !tbaa !18
  br label %for.cond79

for.cond79:                                       ; preds = %for.inc101, %for.body77
  %55 = load i32, ptr %imu78, align 4, !tbaa !18
  %conv80 = sext i32 %55 to i64
  %56 = load i64, ptr %order, align 8, !tbaa !36
  %cmp81 = icmp ult i64 %conv80, %56
  br i1 %cmp81, label %for.body83, label %for.cond.cleanup82

for.cond.cleanup82:                               ; preds = %for.cond79
  store i32 17, ptr %cleanup.dest.slot, align 4
  call void @llvm.lifetime.end.p0(i64 4, ptr %imu78) #6
  br label %for.end103

for.body83:                                       ; preds = %for.cond79
  %dmu84 = getelementptr inbounds nuw %"class.openmc::ScattDataTabular", ptr %this1, i32 0, i32 2
  %57 = load double, ptr %dmu84, align 8, !tbaa !105
  %mul85 = fmul double 5.000000e-01, %57
  %58 = load i32, ptr %gin54, align 4, !tbaa !18
  %conv86 = sext i32 %58 to i64
  %call87 = call noundef nonnull align 8 dereferenceable(24) ptr @_ZNSt6vectorIS_IS_IdSaIdEESaIS1_EESaIS3_EEixEm(ptr noundef nonnull align 8 dereferenceable(24) %matrix, i64 noundef %conv86) #6
  %59 = load i32, ptr %i_gout73, align 4, !tbaa !18
  %conv88 = sext i32 %59 to i64
  %call89 = call noundef nonnull align 8 dereferenceable(24) ptr @_ZNSt6vectorIS_IdSaIdEESaIS1_EEixEm(ptr noundef nonnull align 8 dereferenceable(24) %call87, i64 noundef %conv88) #6
  %60 = load i32, ptr %imu78, align 4, !tbaa !18
  %sub90 = sub nsw i32 %60, 1
  %conv91 = sext i32 %sub90 to i64
  %call92 = call noundef nonnull align 8 dereferenceable(8) ptr @_ZNSt6vectorIdSaIdEEixEm(ptr noundef nonnull align 8 dereferenceable(24) %call89, i64 noundef %conv91) #6
  %61 = load double, ptr %call92, align 8, !tbaa !20
  %62 = load i32, ptr %gin54, align 4, !tbaa !18
  %conv93 = sext i32 %62 to i64
  %call94 = call noundef nonnull align 8 dereferenceable(24) ptr @_ZNSt6vectorIS_IS_IdSaIdEESaIS1_EESaIS3_EEixEm(ptr noundef nonnull align 8 dereferenceable(24) %matrix, i64 noundef %conv93) #6
  %63 = load i32, ptr %i_gout73, align 4, !tbaa !18
  %conv95 = sext i32 %63 to i64
  %call96 = call noundef nonnull align 8 dereferenceable(24) ptr @_ZNSt6vectorIS_IdSaIdEESaIS1_EEixEm(ptr noundef nonnull align 8 dereferenceable(24) %call94, i64 noundef %conv95) #6
  %64 = load i32, ptr %imu78, align 4, !tbaa !18
  %conv97 = sext i32 %64 to i64
  %call98 = call noundef nonnull align 8 dereferenceable(8) ptr @_ZNSt6vectorIdSaIdEEixEm(ptr noundef nonnull align 8 dereferenceable(24) %call96, i64 noundef %conv97) #6
  %65 = load double, ptr %call98, align 8, !tbaa !20
  %add99 = fadd double %61, %65
  %66 = load double, ptr %norm, align 8, !tbaa !20
  %67 = call double @llvm.fmuladd.f64(double %mul85, double %add99, double %66)
  store double %67, ptr %norm, align 8, !tbaa !20
  br label %for.inc101

for.inc101:                                       ; preds = %for.body83
  %68 = load i32, ptr %imu78, align 4, !tbaa !18
  %inc102 = add nsw i32 %68, 1
  store i32 %inc102, ptr %imu78, align 4, !tbaa !18
  br label %for.cond79, !llvm.loop !111

for.end103:                                       ; preds = %for.cond.cleanup82
  %69 = load double, ptr %norm, align 8, !tbaa !20
  %70 = load i32, ptr %gin54, align 4, !tbaa !18
  %conv104 = sext i32 %70 to i64
  %call105 = call noundef nonnull align 8 dereferenceable(24) ptr @_ZNSt6vectorIS_IdSaIdEESaIS1_EEixEm(ptr noundef nonnull align 8 dereferenceable(24) %in_energy, i64 noundef %conv104) #6
  %71 = load i32, ptr %i_gout73, align 4, !tbaa !18
  %conv106 = sext i32 %71 to i64
  %call107 = call noundef nonnull align 8 dereferenceable(8) ptr @_ZNSt6vectorIdSaIdEEixEm(ptr noundef nonnull align 8 dereferenceable(24) %call105, i64 noundef %conv106) #6
  store double %69, ptr %call107, align 8, !tbaa !20
  call void @llvm.lifetime.end.p0(i64 8, ptr %norm) #6
  br label %for.inc108

for.inc108:                                       ; preds = %for.end103
  %72 = load i32, ptr %i_gout73, align 4, !tbaa !18
  %inc109 = add nsw i32 %72, 1
  store i32 %inc109, ptr %i_gout73, align 4, !tbaa !18
  br label %for.cond74, !llvm.loop !112

for.end110:                                       ; preds = %for.cond.cleanup76
  call void @llvm.lifetime.end.p0(i64 4, ptr %num_groups) #6
  br label %for.inc111

for.inc111:                                       ; preds = %for.end110
  %73 = load i32, ptr %gin54, align 4, !tbaa !18
  %inc112 = add nsw i32 %73, 1
  store i32 %inc112, ptr %gin54, align 4, !tbaa !18
  br label %for.cond55, !llvm.loop !113

for.end113:                                       ; preds = %for.cond.cleanup58
  %74 = load i64, ptr %order, align 8, !tbaa !36
  %conv114 = trunc i64 %74 to i32
  %75 = load ptr, ptr %in_gmin.addr, align 8, !tbaa !30
  %76 = load ptr, ptr %in_gmax.addr, align 8, !tbaa !30
  %77 = load ptr, ptr %in_mult.addr, align 8, !tbaa !32
  invoke void @_ZN6openmc9ScattData9base_initEiRKN2xt17xtensor_containerINS1_7uvectorIiSaIiEEELm1ELNS1_11layout_typeE1ENS1_22xtensor_expression_tagEEESA_RKSt6vectorISB_IdSaIdEESaISD_EESH_(ptr noundef nonnull align 8 dereferenceable(296) %this1, i32 noundef %conv114, ptr noundef nonnull align 8 dereferenceable(72) %75, ptr noundef nonnull align 8 dereferenceable(72) %76, ptr noundef nonnull align 8 dereferenceable(24) %in_energy, ptr noundef nonnull align 8 dereferenceable(24) %77)
          to label %invoke.cont116 unwind label %lpad115

invoke.cont116:                                   ; preds = %for.end113
  %fmu = getelementptr inbounds nuw %"class.openmc::ScattDataTabular", ptr %this1, i32 0, i32 3
  %78 = load i64, ptr %groups, align 8, !tbaa !36
  invoke void @_ZNSt6vectorIS_IS_IdSaIdEESaIS1_EESaIS3_EE6resizeEm(ptr noundef nonnull align 8 dereferenceable(24) %fmu, i64 noundef %78)
          to label %invoke.cont117 unwind label %lpad115

invoke.cont117:                                   ; preds = %invoke.cont116
  call void @llvm.lifetime.start.p0(i64 4, ptr %gin118) #6
  store i32 0, ptr %gin118, align 4, !tbaa !18
  br label %for.cond119

for.cond119:                                      ; preds = %for.inc245, %invoke.cont117
  %79 = load i32, ptr %gin118, align 4, !tbaa !18
  %conv120 = sext i32 %79 to i64
  %80 = load i64, ptr %groups, align 8, !tbaa !36
  %cmp121 = icmp ult i64 %conv120, %80
  br i1 %cmp121, label %for.body123, label %for.cond.cleanup122

for.cond.cleanup122:                              ; preds = %for.cond119
  store i32 20, ptr %cleanup.dest.slot, align 4
  call void @llvm.lifetime.end.p0(i64 4, ptr %gin118) #6
  br label %for.end248

lpad115:                                          ; preds = %invoke.cont116, %for.end113
  %81 = landingpad { ptr, i32 }
          cleanup
  %82 = extractvalue { ptr, i32 } %81, 0
  store ptr %82, ptr %exn.slot, align 8
  %83 = extractvalue { ptr, i32 } %81, 1
  store i32 %83, ptr %ehselector.slot, align 4
  br label %ehcleanup249

for.body123:                                      ; preds = %for.cond119
  call void @llvm.lifetime.start.p0(i64 4, ptr %num_groups124) #6
  %gmax = getelementptr inbounds nuw %"class.openmc::ScattData", ptr %this1, i32 0, i32 5
  %84 = load i32, ptr %gin118, align 4, !tbaa !18
  %conv125 = sext i32 %84 to i64
  %call128 = invoke noundef nonnull align 4 dereferenceable(4) ptr @_ZN2xt11xaccessibleINS_17xtensor_containerINS_7uvectorIiSaIiEEELm1ELNS_11layout_typeE1ENS_22xtensor_expression_tagEEEEixEm(ptr noundef nonnull align 1 dereferenceable(1) %gmax, i64 noundef %conv125)
          to label %invoke.cont127 unwind label %lpad126

invoke.cont127:                                   ; preds = %for.body123
  %85 = load i32, ptr %call128, align 4, !tbaa !18
  %gmin = getelementptr inbounds nuw %"class.openmc::ScattData", ptr %this1, i32 0, i32 4
  %86 = load i32, ptr %gin118, align 4, !tbaa !18
  %conv129 = sext i32 %86 to i64
  %call131 = invoke noundef nonnull align 4 dereferenceable(4) ptr @_ZN2xt11xaccessibleINS_17xtensor_containerINS_7uvectorIiSaIiEEELm1ELNS_11layout_typeE1ENS_22xtensor_expression_tagEEEEixEm(ptr noundef nonnull align 1 dereferenceable(1) %gmin, i64 noundef %conv129)
          to label %invoke.cont130 unwind label %lpad126

invoke.cont130:                                   ; preds = %invoke.cont127
  %87 = load i32, ptr %call131, align 4, !tbaa !18
  %sub132 = sub nsw i32 %85, %87
  %add133 = add nsw i32 %sub132, 1
  store i32 %add133, ptr %num_groups124, align 4, !tbaa !18
  %fmu134 = getelementptr inbounds nuw %"class.openmc::ScattDataTabular", ptr %this1, i32 0, i32 3
  %88 = load i32, ptr %gin118, align 4, !tbaa !18
  %conv135 = sext i32 %88 to i64
  %call136 = call noundef nonnull align 8 dereferenceable(24) ptr @_ZNSt6vectorIS_IS_IdSaIdEESaIS1_EESaIS3_EEixEm(ptr noundef nonnull align 8 dereferenceable(24) %fmu134, i64 noundef %conv135) #6
  %89 = load i32, ptr %num_groups124, align 4, !tbaa !18
  %conv137 = sext i32 %89 to i64
  invoke void @_ZNSt6vectorIS_IdSaIdEESaIS1_EE6resizeEm(ptr noundef nonnull align 8 dereferenceable(24) %call136, i64 noundef %conv137)
          to label %invoke.cont138 unwind label %lpad126

invoke.cont138:                                   ; preds = %invoke.cont130
  call void @llvm.lifetime.start.p0(i64 4, ptr %i_gout139) #6
  store i32 0, ptr %i_gout139, align 4, !tbaa !18
  br label %for.cond140

for.cond140:                                      ; preds = %for.inc242, %invoke.cont138
  %90 = load i32, ptr %i_gout139, align 4, !tbaa !18
  %91 = load i32, ptr %num_groups124, align 4, !tbaa !18
  %cmp141 = icmp slt i32 %90, %91
  br i1 %cmp141, label %for.body143, label %for.cond.cleanup142

for.cond.cleanup142:                              ; preds = %for.cond140
  store i32 23, ptr %cleanup.dest.slot, align 4
  call void @llvm.lifetime.end.p0(i64 4, ptr %i_gout139) #6
  br label %for.end244

lpad126:                                          ; preds = %invoke.cont130, %invoke.cont127, %for.body123
  %92 = landingpad { ptr, i32 }
          cleanup
  %93 = extractvalue { ptr, i32 } %92, 0
  store ptr %93, ptr %exn.slot, align 8
  %94 = extractvalue { ptr, i32 } %92, 1
  store i32 %94, ptr %ehselector.slot, align 4
  br label %ehcleanup

for.body143:                                      ; preds = %for.cond140
  %fmu144 = getelementptr inbounds nuw %"class.openmc::ScattDataTabular", ptr %this1, i32 0, i32 3
  %95 = load i32, ptr %gin118, align 4, !tbaa !18
  %conv145 = sext i32 %95 to i64
  %call146 = call noundef nonnull align 8 dereferenceable(24) ptr @_ZNSt6vectorIS_IS_IdSaIdEESaIS1_EESaIS3_EEixEm(ptr noundef nonnull align 8 dereferenceable(24) %fmu144, i64 noundef %conv145) #6
  %96 = load i32, ptr %i_gout139, align 4, !tbaa !18
  %conv147 = sext i32 %96 to i64
  %call148 = call noundef nonnull align 8 dereferenceable(24) ptr @_ZNSt6vectorIS_IdSaIdEESaIS1_EEixEm(ptr noundef nonnull align 8 dereferenceable(24) %call146, i64 noundef %conv147) #6
  %97 = load i64, ptr %order, align 8, !tbaa !36
  invoke void @_ZNSt6vectorIdSaIdEE6resizeEm(ptr noundef nonnull align 8 dereferenceable(24) %call148, i64 noundef %97)
          to label %invoke.cont150 unwind label %lpad149

invoke.cont150:                                   ; preds = %for.body143
  %98 = load i32, ptr %gin118, align 4, !tbaa !18
  %conv151 = sext i32 %98 to i64
  %call152 = call noundef nonnull align 8 dereferenceable(24) ptr @_ZNSt6vectorIS_IS_IdSaIdEESaIS1_EESaIS3_EEixEm(ptr noundef nonnull align 8 dereferenceable(24) %matrix, i64 noundef %conv151) #6
  %99 = load i32, ptr %i_gout139, align 4, !tbaa !18
  %conv153 = sext i32 %99 to i64
  %call154 = call noundef nonnull align 8 dereferenceable(24) ptr @_ZNSt6vectorIS_IdSaIdEESaIS1_EEixEm(ptr noundef nonnull align 8 dereferenceable(24) %call152, i64 noundef %conv153) #6
  %fmu155 = getelementptr inbounds nuw %"class.openmc::ScattDataTabular", ptr %this1, i32 0, i32 3
  %100 = load i32, ptr %gin118, align 4, !tbaa !18
  %conv156 = sext i32 %100 to i64
  %call157 = call noundef nonnull align 8 dereferenceable(24) ptr @_ZNSt6vectorIS_IS_IdSaIdEESaIS1_EESaIS3_EEixEm(ptr noundef nonnull align 8 dereferenceable(24) %fmu155, i64 noundef %conv156) #6
  %101 = load i32, ptr %i_gout139, align 4, !tbaa !18
  %conv158 = sext i32 %101 to i64
  %call159 = call noundef nonnull align 8 dereferenceable(24) ptr @_ZNSt6vectorIS_IdSaIdEESaIS1_EEixEm(ptr noundef nonnull align 8 dereferenceable(24) %call157, i64 noundef %conv158) #6
  %call161 = invoke noundef nonnull align 8 dereferenceable(24) ptr @_ZNSt6vectorIdSaIdEEaSERKS1_(ptr noundef nonnull align 8 dereferenceable(24) %call159, ptr noundef nonnull align 8 dereferenceable(24) %call154)
          to label %invoke.cont160 unwind label %lpad149

invoke.cont160:                                   ; preds = %invoke.cont150
  call void @llvm.lifetime.start.p0(i64 8, ptr %__range3) #6
  %fmu162 = getelementptr inbounds nuw %"class.openmc::ScattDataTabular", ptr %this1, i32 0, i32 3
  %102 = load i32, ptr %gin118, align 4, !tbaa !18
  %conv163 = sext i32 %102 to i64
  %call164 = call noundef nonnull align 8 dereferenceable(24) ptr @_ZNSt6vectorIS_IS_IdSaIdEESaIS1_EESaIS3_EEixEm(ptr noundef nonnull align 8 dereferenceable(24) %fmu162, i64 noundef %conv163) #6
  %103 = load i32, ptr %i_gout139, align 4, !tbaa !18
  %conv165 = sext i32 %103 to i64
  %call166 = call noundef nonnull align 8 dereferenceable(24) ptr @_ZNSt6vectorIS_IdSaIdEESaIS1_EEixEm(ptr noundef nonnull align 8 dereferenceable(24) %call164, i64 noundef %conv165) #6
  store ptr %call166, ptr %__range3, align 8, !tbaa !40
  call void @llvm.lifetime.start.p0(i64 8, ptr %__begin3) #6
  %104 = load ptr, ptr %__range3, align 8, !tbaa !40
  %call167 = call ptr @_ZNSt6vectorIdSaIdEE5beginEv(ptr noundef nonnull align 8 dereferenceable(24) %104) #6
  %coerce.dive = getelementptr inbounds nuw %"class.__gnu_cxx::__normal_iterator", ptr %__begin3, i32 0, i32 0
  store ptr %call167, ptr %coerce.dive, align 8
  call void @llvm.lifetime.start.p0(i64 8, ptr %__end3) #6
  %105 = load ptr, ptr %__range3, align 8, !tbaa !40
  %call168 = call ptr @_ZNSt6vectorIdSaIdEE3endEv(ptr noundef nonnull align 8 dereferenceable(24) %105) #6
  %coerce.dive169 = getelementptr inbounds nuw %"class.__gnu_cxx::__normal_iterator", ptr %__end3, i32 0, i32 0
  store ptr %call168, ptr %coerce.dive169, align 8
  br label %for.cond170

for.cond170:                                      ; preds = %for.inc176, %invoke.cont160
  %call171 = call noundef zeroext i1 @_ZN9__gnu_cxxneIPdSt6vectorIdSaIdEEEEbRKNS_17__normal_iteratorIT_T0_EESA_(ptr noundef nonnull align 8 dereferenceable(8) %__begin3, ptr noundef nonnull align 8 dereferenceable(8) %__end3) #6
  br i1 %call171, label %for.body173, label %for.cond.cleanup172

for.cond.cleanup172:                              ; preds = %for.cond170
  store i32 26, ptr %cleanup.dest.slot, align 4
  call void @llvm.lifetime.end.p0(i64 8, ptr %__end3) #6
  call void @llvm.lifetime.end.p0(i64 8, ptr %__begin3) #6
  call void @llvm.lifetime.end.p0(i64 8, ptr %__range3) #6
  br label %for.end178

lpad149:                                          ; preds = %invoke.cont150, %for.body143
  %106 = landingpad { ptr, i32 }
          cleanup
  %107 = extractvalue { ptr, i32 } %106, 0
  store ptr %107, ptr %exn.slot, align 8
  %108 = extractvalue { ptr, i32 } %106, 1
  store i32 %108, ptr %ehselector.slot, align 4
  call void @llvm.lifetime.end.p0(i64 4, ptr %i_gout139) #6
  br label %ehcleanup

for.body173:                                      ; preds = %for.cond170
  call void @llvm.lifetime.start.p0(i64 8, ptr %val) #6
  %call174 = call noundef nonnull align 8 dereferenceable(8) ptr @_ZNK9__gnu_cxx17__normal_iteratorIPdSt6vectorIdSaIdEEEdeEv(ptr noundef nonnull align 8 dereferenceable(8) %__begin3) #6
  store ptr %call174, ptr %val, align 8, !tbaa !24
  %109 = load ptr, ptr %val, align 8, !tbaa !24
  %110 = load double, ptr %109, align 8, !tbaa !20
  %cmp175 = fcmp olt double %110, 0.000000e+00
  br i1 %cmp175, label %if.then, label %if.end

if.then:                                          ; preds = %for.body173
  %111 = load ptr, ptr %val, align 8, !tbaa !24
  store double 0.000000e+00, ptr %111, align 8, !tbaa !20
  br label %if.end

if.end:                                           ; preds = %if.then, %for.body173
  call void @llvm.lifetime.end.p0(i64 8, ptr %val) #6
  br label %for.inc176

for.inc176:                                       ; preds = %if.end
  %call177 = call noundef nonnull align 8 dereferenceable(8) ptr @_ZN9__gnu_cxx17__normal_iteratorIPdSt6vectorIdSaIdEEEppEv(ptr noundef nonnull align 8 dereferenceable(8) %__begin3) #6
  br label %for.cond170

for.end178:                                       ; preds = %for.cond.cleanup172
  call void @llvm.lifetime.start.p0(i64 8, ptr %norm179) #6
  store double 0.000000e+00, ptr %norm179, align 8, !tbaa !20
  call void @llvm.lifetime.start.p0(i64 4, ptr %imu180) #6
  store i32 1, ptr %imu180, align 4, !tbaa !18
  br label %for.cond181

for.cond181:                                      ; preds = %for.inc211, %for.end178
  %112 = load i32, ptr %imu180, align 4, !tbaa !18
  %conv182 = sext i32 %112 to i64
  %113 = load i64, ptr %order, align 8, !tbaa !36
  %cmp183 = icmp ult i64 %conv182, %113
  br i1 %cmp183, label %for.body185, label %for.cond.cleanup184

for.cond.cleanup184:                              ; preds = %for.cond181
  store i32 28, ptr %cleanup.dest.slot, align 4
  call void @llvm.lifetime.end.p0(i64 4, ptr %imu180) #6
  br label %for.end213

for.body185:                                      ; preds = %for.cond181
  %dmu186 = getelementptr inbounds nuw %"class.openmc::ScattDataTabular", ptr %this1, i32 0, i32 2
  %114 = load double, ptr %dmu186, align 8, !tbaa !105
  %mul187 = fmul double 5.000000e-01, %114
  %fmu188 = getelementptr inbounds nuw %"class.openmc::ScattDataTabular", ptr %this1, i32 0, i32 3
  %115 = load i32, ptr %gin118, align 4, !tbaa !18
  %conv189 = sext i32 %115 to i64
  %call190 = call noundef nonnull align 8 dereferenceable(24) ptr @_ZNSt6vectorIS_IS_IdSaIdEESaIS1_EESaIS3_EEixEm(ptr noundef nonnull align 8 dereferenceable(24) %fmu188, i64 noundef %conv189) #6
  %116 = load i32, ptr %i_gout139, align 4, !tbaa !18
  %conv191 = sext i32 %116 to i64
  %call192 = call noundef nonnull align 8 dereferenceable(24) ptr @_ZNSt6vectorIS_IdSaIdEESaIS1_EEixEm(ptr noundef nonnull align 8 dereferenceable(24) %call190, i64 noundef %conv191) #6
  %117 = load i32, ptr %imu180, align 4, !tbaa !18
  %sub193 = sub nsw i32 %117, 1
  %conv194 = sext i32 %sub193 to i64
  %call195 = call noundef nonnull align 8 dereferenceable(8) ptr @_ZNSt6vectorIdSaIdEEixEm(ptr noundef nonnull align 8 dereferenceable(24) %call192, i64 noundef %conv194) #6
  %118 = load double, ptr %call195, align 8, !tbaa !20
  %fmu196 = getelementptr inbounds nuw %"class.openmc::ScattDataTabular", ptr %this1, i32 0, i32 3
  %119 = load i32, ptr %gin118, align 4, !tbaa !18
  %conv197 = sext i32 %119 to i64
  %call198 = call noundef nonnull align 8 dereferenceable(24) ptr @_ZNSt6vectorIS_IS_IdSaIdEESaIS1_EESaIS3_EEixEm(ptr noundef nonnull align 8 dereferenceable(24) %fmu196, i64 noundef %conv197) #6
  %120 = load i32, ptr %i_gout139, align 4, !tbaa !18
  %conv199 = sext i32 %120 to i64
  %call200 = call noundef nonnull align 8 dereferenceable(24) ptr @_ZNSt6vectorIS_IdSaIdEESaIS1_EEixEm(ptr noundef nonnull align 8 dereferenceable(24) %call198, i64 noundef %conv199) #6
  %121 = load i32, ptr %imu180, align 4, !tbaa !18
  %conv201 = sext i32 %121 to i64
  %call202 = call noundef nonnull align 8 dereferenceable(8) ptr @_ZNSt6vectorIdSaIdEEixEm(ptr noundef nonnull align 8 dereferenceable(24) %call200, i64 noundef %conv201) #6
  %122 = load double, ptr %call202, align 8, !tbaa !20
  %add203 = fadd double %118, %122
  %123 = load double, ptr %norm179, align 8, !tbaa !20
  %124 = call double @llvm.fmuladd.f64(double %mul187, double %add203, double %123)
  store double %124, ptr %norm179, align 8, !tbaa !20
  %125 = load double, ptr %norm179, align 8, !tbaa !20
  %dist = getelementptr inbounds nuw %"class.openmc::ScattData", ptr %this1, i32 0, i32 3
  %126 = load i32, ptr %gin118, align 4, !tbaa !18
  %conv205 = sext i32 %126 to i64
  %call206 = call noundef nonnull align 8 dereferenceable(24) ptr @_ZNSt6vectorIS_IS_IdSaIdEESaIS1_EESaIS3_EEixEm(ptr noundef nonnull align 8 dereferenceable(24) %dist, i64 noundef %conv205) #6
  %127 = load i32, ptr %i_gout139, align 4, !tbaa !18
  %conv207 = sext i32 %127 to i64
  %call208 = call noundef nonnull align 8 dereferenceable(24) ptr @_ZNSt6vectorIS_IdSaIdEESaIS1_EEixEm(ptr noundef nonnull align 8 dereferenceable(24) %call206, i64 noundef %conv207) #6
  %128 = load i32, ptr %imu180, align 4, !tbaa !18
  %conv209 = sext i32 %128 to i64
  %call210 = call noundef nonnull align 8 dereferenceable(8) ptr @_ZNSt6vectorIdSaIdEEixEm(ptr noundef nonnull align 8 dereferenceable(24) %call208, i64 noundef %conv209) #6
  store double %125, ptr %call210, align 8, !tbaa !20
  br label %for.inc211

for.inc211:                                       ; preds = %for.body185
  %129 = load i32, ptr %imu180, align 4, !tbaa !18
  %inc212 = add nsw i32 %129, 1
  store i32 %inc212, ptr %imu180, align 4, !tbaa !18
  br label %for.cond181, !llvm.loop !114

for.end213:                                       ; preds = %for.cond.cleanup184
  %130 = load double, ptr %norm179, align 8, !tbaa !20
  %cmp214 = fcmp ogt double %130, 0.000000e+00
  br i1 %cmp214, label %if.then215, label %if.end241

if.then215:                                       ; preds = %for.end213
  call void @llvm.lifetime.start.p0(i64 4, ptr %imu216) #6
  store i32 0, ptr %imu216, align 4, !tbaa !18
  br label %for.cond217

for.cond217:                                      ; preds = %for.inc238, %if.then215
  %131 = load i32, ptr %imu216, align 4, !tbaa !18
  %conv218 = sext i32 %131 to i64
  %132 = load i64, ptr %order, align 8, !tbaa !36
  %cmp219 = icmp ult i64 %conv218, %132
  br i1 %cmp219, label %for.body221, label %for.cond.cleanup220

for.cond.cleanup220:                              ; preds = %for.cond217
  store i32 31, ptr %cleanup.dest.slot, align 4
  call void @llvm.lifetime.end.p0(i64 4, ptr %imu216) #6
  br label %for.end240

for.body221:                                      ; preds = %for.cond217
  %133 = load double, ptr %norm179, align 8, !tbaa !20
  %fmu222 = getelementptr inbounds nuw %"class.openmc::ScattDataTabular", ptr %this1, i32 0, i32 3
  %134 = load i32, ptr %gin118, align 4, !tbaa !18
  %conv223 = sext i32 %134 to i64
  %call224 = call noundef nonnull align 8 dereferenceable(24) ptr @_ZNSt6vectorIS_IS_IdSaIdEESaIS1_EESaIS3_EEixEm(ptr noundef nonnull align 8 dereferenceable(24) %fmu222, i64 noundef %conv223) #6
  %135 = load i32, ptr %i_gout139, align 4, !tbaa !18
  %conv225 = sext i32 %135 to i64
  %call226 = call noundef nonnull align 8 dereferenceable(24) ptr @_ZNSt6vectorIS_IdSaIdEESaIS1_EEixEm(ptr noundef nonnull align 8 dereferenceable(24) %call224, i64 noundef %conv225) #6
  %136 = load i32, ptr %imu216, align 4, !tbaa !18
  %conv227 = sext i32 %136 to i64
  %call228 = call noundef nonnull align 8 dereferenceable(8) ptr @_ZNSt6vectorIdSaIdEEixEm(ptr noundef nonnull align 8 dereferenceable(24) %call226, i64 noundef %conv227) #6
  %137 = load double, ptr %call228, align 8, !tbaa !20
  %div229 = fdiv double %137, %133
  store double %div229, ptr %call228, align 8, !tbaa !20
  %138 = load double, ptr %norm179, align 8, !tbaa !20
  %dist230 = getelementptr inbounds nuw %"class.openmc::ScattData", ptr %this1, i32 0, i32 3
  %139 = load i32, ptr %gin118, align 4, !tbaa !18
  %conv231 = sext i32 %139 to i64
  %call232 = call noundef nonnull align 8 dereferenceable(24) ptr @_ZNSt6vectorIS_IS_IdSaIdEESaIS1_EESaIS3_EEixEm(ptr noundef nonnull align 8 dereferenceable(24) %dist230, i64 noundef %conv231) #6
  %140 = load i32, ptr %i_gout139, align 4, !tbaa !18
  %conv233 = sext i32 %140 to i64
  %call234 = call noundef nonnull align 8 dereferenceable(24) ptr @_ZNSt6vectorIS_IdSaIdEESaIS1_EEixEm(ptr noundef nonnull align 8 dereferenceable(24) %call232, i64 noundef %conv233) #6
  %141 = load i32, ptr %imu216, align 4, !tbaa !18
  %conv235 = sext i32 %141 to i64
  %call236 = call noundef nonnull align 8 dereferenceable(8) ptr @_ZNSt6vectorIdSaIdEEixEm(ptr noundef nonnull align 8 dereferenceable(24) %call234, i64 noundef %conv235) #6
  %142 = load double, ptr %call236, align 8, !tbaa !20
  %div237 = fdiv double %142, %138
  store double %div237, ptr %call236, align 8, !tbaa !20
  br label %for.inc238

for.inc238:                                       ; preds = %for.body221
  %143 = load i32, ptr %imu216, align 4, !tbaa !18
  %inc239 = add nsw i32 %143, 1
  store i32 %inc239, ptr %imu216, align 4, !tbaa !18
  br label %for.cond217, !llvm.loop !115

for.end240:                                       ; preds = %for.cond.cleanup220
  br label %if.end241

if.end241:                                        ; preds = %for.end240, %for.end213
  call void @llvm.lifetime.end.p0(i64 8, ptr %norm179) #6
  br label %for.inc242

for.inc242:                                       ; preds = %if.end241
  %144 = load i32, ptr %i_gout139, align 4, !tbaa !18
  %inc243 = add nsw i32 %144, 1
  store i32 %inc243, ptr %i_gout139, align 4, !tbaa !18
  br label %for.cond140, !llvm.loop !116

for.end244:                                       ; preds = %for.cond.cleanup142
  call void @llvm.lifetime.end.p0(i64 4, ptr %num_groups124) #6
  br label %for.inc245

for.inc245:                                       ; preds = %for.end244
  %145 = load i32, ptr %gin118, align 4, !tbaa !18
  %inc246 = add nsw i32 %145, 1
  store i32 %inc246, ptr %gin118, align 4, !tbaa !18
  br label %for.cond119, !llvm.loop !117

ehcleanup:                                        ; preds = %lpad149, %lpad126
  call void @llvm.lifetime.end.p0(i64 4, ptr %num_groups124) #6
  call void @llvm.lifetime.end.p0(i64 4, ptr %gin118) #6
  br label %ehcleanup249

for.end248:                                       ; preds = %for.cond.cleanup122
  call void @_ZNSt6vectorIS_IdSaIdEESaIS1_EED2Ev(ptr noundef nonnull align 8 dereferenceable(24) %in_energy) #6
  call void @llvm.lifetime.end.p0(i64 24, ptr %in_energy) #6
  call void @_ZNSt6vectorIS_IS_IdSaIdEESaIS1_EESaIS3_EED2Ev(ptr noundef nonnull align 8 dereferenceable(24) %matrix) #6
  call void @llvm.lifetime.end.p0(i64 24, ptr %matrix) #6
  call void @llvm.lifetime.end.p0(i64 8, ptr %order) #6
  call void @llvm.lifetime.end.p0(i64 8, ptr %groups) #6
  ret void

ehcleanup249:                                     ; preds = %ehcleanup, %lpad115, %lpad61
  call void @_ZNSt6vectorIS_IdSaIdEESaIS1_EED2Ev(ptr noundef nonnull align 8 dereferenceable(24) %in_energy) #6
  br label %ehcleanup250

ehcleanup250:                                     ; preds = %ehcleanup249, %lpad52
  call void @llvm.lifetime.end.p0(i64 24, ptr %in_energy) #6
  br label %ehcleanup251

ehcleanup251:                                     ; preds = %ehcleanup250, %lpad42, %lpad8, %lpad
  call void @_ZNSt6vectorIS_IS_IdSaIdEESaIS1_EESaIS3_EED2Ev(ptr noundef nonnull align 8 dereferenceable(24) %matrix) #6
  call void @llvm.lifetime.end.p0(i64 24, ptr %matrix) #6
  call void @llvm.lifetime.end.p0(i64 8, ptr %order) #6
  call void @llvm.lifetime.end.p0(i64 8, ptr %groups) #6
  br label %eh.resume

eh.resume:                                        ; preds = %ehcleanup251
  %exn = load ptr, ptr %exn.slot, align 8
  %sel = load i32, ptr %ehselector.slot, align 4
  %lpad.val = insertvalue { ptr, i32 } poison, ptr %exn, 0
  %lpad.val255 = insertvalue { ptr, i32 } %lpad.val, i32 %sel, 1
  resume { ptr, i32 } %lpad.val255
}

; Function Attrs: mustprogress uwtable
define void @_ZN6openmc16ScattDataTabular7combineERKSt6vectorIPNS_9ScattDataESaIS3_EERKS1_IdSaIdEE(ptr noundef nonnull align 8 dereferenceable(400) %this, ptr noundef nonnull align 8 dereferenceable(24) %those_scatts, ptr noundef nonnull align 8 dereferenceable(24) %scalars) unnamed_addr #1 align 2 personality ptr @__gxx_personality_v0 {
entry:
  %this.addr = alloca ptr, align 8
  %those_scatts.addr = alloca ptr, align 8
  %scalars.addr = alloca ptr, align 8
  %max_order = alloca i64, align 8
  %i = alloca i32, align 4
  %that = alloca ptr, align 8
  %groups = alloca i64, align 8
  %in_gmin = alloca %"class.xt::xtensor_container.2", align 8
  %ref.tmp = alloca %"struct.std::array.10", align 8
  %ref.tmp14 = alloca i32, align 4
  %in_gmax = alloca %"class.xt::xtensor_container.2", align 8
  %ref.tmp15 = alloca %"struct.std::array.10", align 8
  %ref.tmp17 = alloca i32, align 4
  %exn.slot = alloca ptr, align 8
  %ehselector.slot = alloca i32, align 4
  %sparse_scatter = alloca %"class.std::vector.21", align 8
  %ref.tmp18 = alloca %"class.std::allocator.23", align 1
  %sparse_mult = alloca %"class.std::vector", align 8
  %ref.tmp21 = alloca %"class.std::allocator", align 1
  %order_dim = alloca i64, align 8
  store ptr %this, ptr %this.addr, align 8, !tbaa !103
  store ptr %those_scatts, ptr %those_scatts.addr, align 8, !tbaa !46
  store ptr %scalars, ptr %scalars.addr, align 8, !tbaa !40
  %this1 = load ptr, ptr %this.addr, align 8
  call void @llvm.lifetime.start.p0(i64 8, ptr %max_order) #6
  %0 = load ptr, ptr %those_scatts.addr, align 8, !tbaa !46
  %call = call noundef nonnull align 8 dereferenceable(8) ptr @_ZNKSt6vectorIPN6openmc9ScattDataESaIS2_EEixEm(ptr noundef nonnull align 8 dereferenceable(24) %0, i64 noundef 0) #6
  %1 = load ptr, ptr %call, align 8, !tbaa !48
  %vtable = load ptr, ptr %1, align 8, !tbaa !16
  %vfn = getelementptr inbounds ptr, ptr %vtable, i64 6
  %2 = load ptr, ptr %vfn, align 8
  %call2 = call noundef i64 %2(ptr noundef nonnull align 8 dereferenceable(296) %1)
  store i64 %call2, ptr %max_order, align 8, !tbaa !36
  call void @llvm.lifetime.start.p0(i64 4, ptr %i) #6
  store i32 0, ptr %i, align 4, !tbaa !18
  br label %for.cond

for.cond:                                         ; preds = %for.inc, %entry
  %3 = load i32, ptr %i, align 4, !tbaa !18
  %conv = sext i32 %3 to i64
  %4 = load ptr, ptr %those_scatts.addr, align 8, !tbaa !46
  %call3 = call noundef i64 @_ZNKSt6vectorIPN6openmc9ScattDataESaIS2_EE4sizeEv(ptr noundef nonnull align 8 dereferenceable(24) %4) #6
  %cmp = icmp ult i64 %conv, %call3
  br i1 %cmp, label %for.body, label %for.cond.cleanup

for.cond.cleanup:                                 ; preds = %for.cond
  call void @llvm.lifetime.end.p0(i64 4, ptr %i) #6
  br label %for.end

for.body:                                         ; preds = %for.cond
  call void @llvm.lifetime.start.p0(i64 8, ptr %that) #6
  %5 = load ptr, ptr %those_scatts.addr, align 8, !tbaa !46
  %6 = load i32, ptr %i, align 4, !tbaa !18
  %conv4 = sext i32 %6 to i64
  %call5 = call noundef nonnull align 8 dereferenceable(8) ptr @_ZNKSt6vectorIPN6openmc9ScattDataESaIS2_EEixEm(ptr noundef nonnull align 8 dereferenceable(24) %5, i64 noundef %conv4) #6
  %7 = load ptr, ptr %call5, align 8, !tbaa !48
  %8 = icmp eq ptr %7, null
  br i1 %8, label %dynamic_cast.null, label %dynamic_cast.notnull

dynamic_cast.notnull:                             ; preds = %for.body
  %9 = call ptr @__dynamic_cast(ptr %7, ptr @_ZTIN6openmc9ScattDataE, ptr @_ZTIN6openmc16ScattDataTabularE, i64 0) #6
  br label %dynamic_cast.end

dynamic_cast.null:                                ; preds = %for.body
  br label %dynamic_cast.end

dynamic_cast.end:                                 ; preds = %dynamic_cast.null, %dynamic_cast.notnull
  %10 = phi ptr [ %9, %dynamic_cast.notnull ], [ null, %dynamic_cast.null ]
  store ptr %10, ptr %that, align 8, !tbaa !103
  %11 = load ptr, ptr %that, align 8, !tbaa !103
  %tobool = icmp ne ptr %11, null
  br i1 %tobool, label %if.end, label %if.then

if.then:                                          ; preds = %dynamic_cast.end
  call void @_ZN6openmc11fatal_errorEPKc(ptr noundef @.str.14) #28
  unreachable

if.end:                                           ; preds = %dynamic_cast.end
  %12 = load i64, ptr %max_order, align 8, !tbaa !36
  %13 = load ptr, ptr %that, align 8, !tbaa !103
  %vtable6 = load ptr, ptr %13, align 8, !tbaa !16
  %vfn7 = getelementptr inbounds ptr, ptr %vtable6, i64 6
  %14 = load ptr, ptr %vfn7, align 8
  %call8 = call noundef i64 %14(ptr noundef nonnull align 8 dereferenceable(400) %13)
  %cmp9 = icmp ne i64 %12, %call8
  br i1 %cmp9, label %if.then10, label %if.end11

if.then10:                                        ; preds = %if.end
  call void @_ZN6openmc11fatal_errorEPKc(ptr noundef @.str.14) #28
  unreachable

if.end11:                                         ; preds = %if.end
  call void @llvm.lifetime.end.p0(i64 8, ptr %that) #6
  br label %for.inc

for.inc:                                          ; preds = %if.end11
  %15 = load i32, ptr %i, align 4, !tbaa !18
  %inc = add nsw i32 %15, 1
  store i32 %inc, ptr %i, align 4, !tbaa !18
  br label %for.cond, !llvm.loop !118

for.end:                                          ; preds = %for.cond.cleanup
  call void @llvm.lifetime.start.p0(i64 8, ptr %groups) #6
  %16 = load ptr, ptr %those_scatts.addr, align 8, !tbaa !46
  %call12 = call noundef nonnull align 8 dereferenceable(8) ptr @_ZNKSt6vectorIPN6openmc9ScattDataESaIS2_EEixEm(ptr noundef nonnull align 8 dereferenceable(24) %16, i64 noundef 0) #6
  %17 = load ptr, ptr %call12, align 8, !tbaa !48
  %energy = getelementptr inbounds nuw %"class.openmc::ScattData", ptr %17, i32 0, i32 1
  %call13 = call noundef i64 @_ZNKSt6vectorIS_IdSaIdEESaIS1_EE4sizeEv(ptr noundef nonnull align 8 dereferenceable(24) %energy) #6
  store i64 %call13, ptr %groups, align 8, !tbaa !36
  call void @llvm.lifetime.start.p0(i64 72, ptr %in_gmin) #6
  call void @llvm.lifetime.start.p0(i64 8, ptr %ref.tmp) #6
  %_M_elems = getelementptr inbounds nuw %"struct.std::array.10", ptr %ref.tmp, i32 0, i32 0
  %18 = load i64, ptr %groups, align 8, !tbaa !36
  store i64 %18, ptr %_M_elems, align 8, !tbaa !36
  call void @llvm.lifetime.start.p0(i64 4, ptr %ref.tmp14) #6
  store i32 0, ptr %ref.tmp14, align 4, !tbaa !18
  call void @_ZN2xt17xtensor_containerINS_7uvectorIiSaIiEEELm1ELNS_11layout_typeE1ENS_22xtensor_expression_tagEEC2ERKSt5arrayImLm1EERKiS4_(ptr noundef nonnull align 8 dereferenceable(72) %in_gmin, ptr noundef nonnull align 8 dereferenceable(8) %ref.tmp, ptr noundef nonnull align 4 dereferenceable(4) %ref.tmp14, i32 noundef 1)
  call void @llvm.lifetime.end.p0(i64 4, ptr %ref.tmp14) #6
  call void @llvm.lifetime.end.p0(i64 8, ptr %ref.tmp) #6
  call void @llvm.lifetime.start.p0(i64 72, ptr %in_gmax) #6
  call void @llvm.lifetime.start.p0(i64 8, ptr %ref.tmp15) #6
  %_M_elems16 = getelementptr inbounds nuw %"struct.std::array.10", ptr %ref.tmp15, i32 0, i32 0
  %19 = load i64, ptr %groups, align 8, !tbaa !36
  store i64 %19, ptr %_M_elems16, align 8, !tbaa !36
  call void @llvm.lifetime.start.p0(i64 4, ptr %ref.tmp17) #6
  store i32 0, ptr %ref.tmp17, align 4, !tbaa !18
  invoke void @_ZN2xt17xtensor_containerINS_7uvectorIiSaIiEEELm1ELNS_11layout_typeE1ENS_22xtensor_expression_tagEEC2ERKSt5arrayImLm1EERKiS4_(ptr noundef nonnull align 8 dereferenceable(72) %in_gmax, ptr noundef nonnull align 8 dereferenceable(8) %ref.tmp15, ptr noundef nonnull align 4 dereferenceable(4) %ref.tmp17, i32 noundef 1)
          to label %invoke.cont unwind label %lpad

invoke.cont:                                      ; preds = %for.end
  call void @llvm.lifetime.end.p0(i64 4, ptr %ref.tmp17) #6
  call void @llvm.lifetime.end.p0(i64 8, ptr %ref.tmp15) #6
  call void @llvm.lifetime.start.p0(i64 24, ptr %sparse_scatter) #6
  %20 = load i64, ptr %groups, align 8, !tbaa !36
  call void @llvm.lifetime.start.p0(i64 1, ptr %ref.tmp18) #6
  call void @_ZNSaISt6vectorIS_IdSaIdEESaIS1_EEEC2Ev(ptr noundef nonnull align 1 dereferenceable(1) %ref.tmp18) #6
  invoke void @_ZNSt6vectorIS_IS_IdSaIdEESaIS1_EESaIS3_EEC2EmRKS4_(ptr noundef nonnull align 8 dereferenceable(24) %sparse_scatter, i64 noundef %20, ptr noundef nonnull align 1 dereferenceable(1) %ref.tmp18)
          to label %invoke.cont20 unwind label %lpad19

invoke.cont20:                                    ; preds = %invoke.cont
  call void @_ZNSt15__new_allocatorISt6vectorIS0_IdSaIdEESaIS2_EEED2Ev(ptr noundef nonnull align 1 dereferenceable(1) %ref.tmp18) #6
  call void @llvm.lifetime.end.p0(i64 1, ptr %ref.tmp18) #6
  call void @llvm.lifetime.start.p0(i64 24, ptr %sparse_mult) #6
  %21 = load i64, ptr %groups, align 8, !tbaa !36
  call void @llvm.lifetime.start.p0(i64 1, ptr %ref.tmp21) #6
  call void @_ZNSaISt6vectorIdSaIdEEEC2Ev(ptr noundef nonnull align 1 dereferenceable(1) %ref.tmp21) #6
  invoke void @_ZNSt6vectorIS_IdSaIdEESaIS1_EEC2EmRKS2_(ptr noundef nonnull align 8 dereferenceable(24) %sparse_mult, i64 noundef %21, ptr noundef nonnull align 1 dereferenceable(1) %ref.tmp21)
          to label %invoke.cont23 unwind label %lpad22

invoke.cont23:                                    ; preds = %invoke.cont20
  call void @_ZNSt15__new_allocatorISt6vectorIdSaIdEEED2Ev(ptr noundef nonnull align 1 dereferenceable(1) %ref.tmp21) #6
  call void @llvm.lifetime.end.p0(i64 1, ptr %ref.tmp21) #6
  call void @llvm.lifetime.start.p0(i64 8, ptr %order_dim) #6
  %22 = load i64, ptr %max_order, align 8, !tbaa !36
  store i64 %22, ptr %order_dim, align 8, !tbaa !36
  %23 = load i64, ptr %max_order, align 8, !tbaa !36
  %24 = load i64, ptr %order_dim, align 8, !tbaa !36
  %25 = load ptr, ptr %those_scatts.addr, align 8, !tbaa !46
  %26 = load ptr, ptr %scalars.addr, align 8, !tbaa !40
  invoke void @_ZN6openmc9ScattData12base_combineEmmRKSt6vectorIPS0_SaIS2_EERKS1_IdSaIdEERN2xt17xtensor_containerINSB_7uvectorIiSaIiEEELm1ELNSB_11layout_typeE1ENSB_22xtensor_expression_tagEEESJ_RS1_IS8_SaIS8_EERS1_ISL_SaISL_EE(ptr noundef nonnull align 8 dereferenceable(296) %this1, i64 noundef %23, i64 noundef %24, ptr noundef nonnull align 8 dereferenceable(24) %25, ptr noundef nonnull align 8 dereferenceable(24) %26, ptr noundef nonnull align 8 dereferenceable(72) %in_gmin, ptr noundef nonnull align 8 dereferenceable(72) %in_gmax, ptr noundef nonnull align 8 dereferenceable(24) %sparse_mult, ptr noundef nonnull align 8 dereferenceable(24) %sparse_scatter)
          to label %invoke.cont25 unwind label %lpad24

invoke.cont25:                                    ; preds = %invoke.cont23
  %vtable26 = load ptr, ptr %this1, align 8, !tbaa !16
  %vfn27 = getelementptr inbounds ptr, ptr %vtable26, i64 4
  %27 = load ptr, ptr %vfn27, align 8
  invoke void %27(ptr noundef nonnull align 8 dereferenceable(400) %this1, ptr noundef nonnull align 8 dereferenceable(72) %in_gmin, ptr noundef nonnull align 8 dereferenceable(72) %in_gmax, ptr noundef nonnull align 8 dereferenceable(24) %sparse_mult, ptr noundef nonnull align 8 dereferenceable(24) %sparse_scatter)
          to label %invoke.cont28 unwind label %lpad24

invoke.cont28:                                    ; preds = %invoke.cont25
  call void @llvm.lifetime.end.p0(i64 8, ptr %order_dim) #6
  call void @_ZNSt6vectorIS_IdSaIdEESaIS1_EED2Ev(ptr noundef nonnull align 8 dereferenceable(24) %sparse_mult) #6
  call void @llvm.lifetime.end.p0(i64 24, ptr %sparse_mult) #6
  call void @_ZNSt6vectorIS_IS_IdSaIdEESaIS1_EESaIS3_EED2Ev(ptr noundef nonnull align 8 dereferenceable(24) %sparse_scatter) #6
  call void @llvm.lifetime.end.p0(i64 24, ptr %sparse_scatter) #6
  call void @_ZN2xt17xtensor_containerINS_7uvectorIiSaIiEEELm1ELNS_11layout_typeE1ENS_22xtensor_expression_tagEED2Ev(ptr noundef nonnull align 8 dereferenceable(72) %in_gmax) #6
  call void @llvm.lifetime.end.p0(i64 72, ptr %in_gmax) #6
  call void @_ZN2xt17xtensor_containerINS_7uvectorIiSaIiEEELm1ELNS_11layout_typeE1ENS_22xtensor_expression_tagEED2Ev(ptr noundef nonnull align 8 dereferenceable(72) %in_gmin) #6
  call void @llvm.lifetime.end.p0(i64 72, ptr %in_gmin) #6
  call void @llvm.lifetime.end.p0(i64 8, ptr %groups) #6
  call void @llvm.lifetime.end.p0(i64 8, ptr %max_order) #6
  ret void

lpad:                                             ; preds = %for.end
  %28 = landingpad { ptr, i32 }
          cleanup
  %29 = extractvalue { ptr, i32 } %28, 0
  store ptr %29, ptr %exn.slot, align 8
