; ModuleID = 'tally_scoring-host-x86_64-unknown-linux-gnu.bc'
source_filename = "/g/g0/wright117/workspace/openmc/openmc-omp/openmc/src/tallies/tally_scoring.cpp"
target datalayout = "e-m:e-p270:32:32-p271:32:32-p272:64:64-i64:64-i128:128-f80:128-n8:16:32:64-S128"
target triple = "x86_64-unknown-linux-gnu"

%"struct.std::array" = type { [6 x i32] }
%"class.std::ios_base::Init" = type { i8 }
%"class.openmc::MgxsInterface" = type { i32, i32, %"class.std::vector.78", %"class.std::vector.78", %"class.std::vector.83", %"class.std::__cxx11::basic_string", %"class.std::vector.88", %"class.std::vector.88", %"class.std::vector.23", %"class.std::vector.23", %"class.std::vector.23", %"class.std::vector.83" }
%"class.std::vector.78" = type { %"struct.std::_Vector_base.79" }
%"struct.std::_Vector_base.79" = type { %"struct.std::_Vector_base<std::__cxx11::basic_string<char>, std::allocator<std::__cxx11::basic_string<char>>>::_Vector_impl" }
%"struct.std::_Vector_base<std::__cxx11::basic_string<char>, std::allocator<std::__cxx11::basic_string<char>>>::_Vector_impl" = type { %"struct.std::_Vector_base<std::__cxx11::basic_string<char>, std::allocator<std::__cxx11::basic_string<char>>>::_Vector_impl_data" }
%"struct.std::_Vector_base<std::__cxx11::basic_string<char>, std::allocator<std::__cxx11::basic_string<char>>>::_Vector_impl_data" = type { ptr, ptr, ptr }
%"class.std::__cxx11::basic_string" = type { %"struct.std::__cxx11::basic_string<char>::_Alloc_hider", i64, %union.anon }
%"struct.std::__cxx11::basic_string<char>::_Alloc_hider" = type { ptr }
%union.anon = type { i64, [8 x i8] }
%"class.std::vector.88" = type { %"struct.std::_Vector_base.89" }
%"struct.std::_Vector_base.89" = type { %"struct.std::_Vector_base<openmc::Mgxs, std::allocator<openmc::Mgxs>>::_Vector_impl" }
%"struct.std::_Vector_base<openmc::Mgxs, std::allocator<openmc::Mgxs>>::_Vector_impl" = type { %"struct.std::_Vector_base<openmc::Mgxs, std::allocator<openmc::Mgxs>>::_Vector_impl_data" }
%"struct.std::_Vector_base<openmc::Mgxs, std::allocator<openmc::Mgxs>>::_Vector_impl_data" = type { ptr, ptr, ptr }
%"class.std::vector.23" = type { %"struct.std::_Vector_base.24" }
%"struct.std::_Vector_base.24" = type { %"struct.std::_Vector_base<double, std::allocator<double>>::_Vector_impl" }
%"struct.std::_Vector_base<double, std::allocator<double>>::_Vector_impl" = type { %"struct.std::_Vector_base<double, std::allocator<double>>::_Vector_impl_data" }
%"struct.std::_Vector_base<double, std::allocator<double>>::_Vector_impl_data" = type { ptr, ptr, ptr }
%"class.std::vector.83" = type { %"struct.std::_Vector_base.84" }
%"struct.std::_Vector_base.84" = type { %"struct.std::_Vector_base<std::vector<double>, std::allocator<std::vector<double>>>::_Vector_impl" }
%"struct.std::_Vector_base<std::vector<double>, std::allocator<std::vector<double>>>::_Vector_impl" = type { %"struct.std::_Vector_base<std::vector<double>, std::allocator<std::vector<double>>>::_Vector_impl_data" }
%"struct.std::_Vector_base<std::vector<double>, std::allocator<std::vector<double>>>::_Vector_impl_data" = type { ptr, ptr, ptr }
%"class.std::vector.18" = type { %"struct.std::_Vector_base.19" }
%"struct.std::_Vector_base.19" = type { %"struct.std::_Vector_base<int, std::allocator<int>>::_Vector_impl" }
%"struct.std::_Vector_base<int, std::allocator<int>>::_Vector_impl" = type { %"struct.std::_Vector_base<int, std::allocator<int>>::_Vector_impl_data" }
%"struct.std::_Vector_base<int, std::allocator<int>>::_Vector_impl_data" = type { ptr, ptr, ptr }
%"struct.std::array.103" = type { [2 x double] }
%"class.openmc::vector2d" = type { %"class.openmc::vector", i64 }
%"class.openmc::vector" = type { ptr, i64, i64 }
%"class.openmc::vector2d.104" = type { %"class.openmc::vector.9", i64 }
%"class.openmc::vector.9" = type { ptr, i64, i64 }
%"class.openmc::vector2d.156" = type { %"class.openmc::vector.59", i64 }
%"class.openmc::vector.59" = type { ptr, i64, i64 }
%"class.openmc::FilterBinIter" = type { i32, double, ptr, ptr, i8, ptr }
%"class.openmc::Particle" = type { %"class.openmc::NuclideMicroXSCache", [9 x %"struct.openmc::ElementMicroXS"], %"struct.openmc::MacroXS", i64, i32, i32, i32, [4 x i8], [6 x %"class.openmc::LocalCoord"], i32, [6 x i32], double, double, i32, i32, double, double, %"struct.openmc::Position", %"struct.openmc::Position", %"struct.openmc::Position", double, i8, i32, i32, i32, i32, i32, i32, double, [8 x i32], i32, i32, i32, i32, %"struct.openmc::BoundaryInfo", double, double, i32, i8, [8 x i64], i32, [5 x %"struct.openmc::Particle::Bank"], i64, i64, [1 x double], ptr, %"class.std::vector", [16 x %"struct.openmc::Particle::NuBank"], double, double, double, double, i8, double, double, i32, i64 }
%"class.openmc::NuclideMicroXSCache" = type { [1 x %"struct.openmc::NuclideMicroXS"] }
%"struct.openmc::NuclideMicroXS" = type { double, double, double, double, double, double, double, double, [6 x double], i32, i32, double, i32, i32, double, i8, double, double }
%"struct.openmc::ElementMicroXS" = type { i32, double, double, double, double, double, double, double }
%"struct.openmc::MacroXS" = type { double, double, double, double, double, [6 x double], double, double, double, double }
%"class.openmc::LocalCoord" = type <{ %"struct.openmc::Position", %"struct.openmc::Position", i32, i32, i32, i32, i32, i32, i8, [7 x i8] }>
%"struct.openmc::Position" = type { double, double, double }
%"struct.openmc::BoundaryInfo" = type <{ double, i32, i32, %"struct.std::array.0", [4 x i8] }>
%"struct.std::array.0" = type { [3 x i32] }
%"struct.openmc::Particle::Bank" = type { %"struct.openmc::Position", %"struct.openmc::Position", double, double, i32, i32, i32, i64, i64 }
%"class.std::vector" = type { %"struct.std::_Vector_base" }
%"struct.std::_Vector_base" = type { %"struct.std::_Vector_base<std::vector<openmc::Position>, std::allocator<std::vector<openmc::Position>>>::_Vector_impl" }
%"struct.std::_Vector_base<std::vector<openmc::Position>, std::allocator<std::vector<openmc::Position>>>::_Vector_impl" = type { %"struct.std::_Vector_base<std::vector<openmc::Position>, std::allocator<std::vector<openmc::Position>>>::_Vector_impl_data" }
%"struct.std::_Vector_base<std::vector<openmc::Position>, std::allocator<std::vector<openmc::Position>>>::_Vector_impl_data" = type { ptr, ptr, ptr }
%"struct.openmc::Particle::NuBank" = type { double, double, i32 }
%"class.openmc::FilterMatch" = type <{ [125 x i32], [4 x i8], [125 x double], i32, i32, i8, [7 x i8] }>
%"class.openmc::Filter" = type { i32, i32, i32, i64, %"class.openmc::vector.9", %"class.openmc::vector", %"class.openmc::static_map", %"class.openmc::vector.12", %"class.openmc::static_map.13", %"class.openmc::vector", i32, i8, %"class.openmc::vector.9", double, %"class.openmc::vector.9", double, double, i32, %"class.openmc::vector", i32, %"class.openmc::vector.16", i32, i32, double, double, %"class.openmc::vector", %"class.openmc::vector" }
%"class.openmc::static_map" = type <{ %"class.openmc::vector.10", %"class.openmc::vector.11", i8, [7 x i8] }>
%"class.openmc::vector.10" = type { ptr, i64, i64 }
%"class.openmc::vector.11" = type { ptr, i64, i64 }
%"class.openmc::vector.12" = type { ptr, i64, i64 }
%"class.openmc::static_map.13" = type <{ %"class.openmc::vector.14", %"class.openmc::vector.11", i8, [7 x i8] }>
%"class.openmc::vector.14" = type { ptr, i64, i64 }
%"class.openmc::vector.16" = type { ptr, i64, i64 }
%"class.openmc::Tally" = type { i32, %"class.std::__cxx11::basic_string", i32, i32, i8, i32, %"class.openmc::vector", %"class.openmc::vector", ptr, i64, i64, i8, i32, i32, %"class.std::vector.4", i32, %"class.openmc::vector", %"class.openmc::vector", i32, i64 }
%"class.std::vector.4" = type { %"struct.std::_Vector_base.5" }
%"struct.std::_Vector_base.5" = type { %"struct.std::_Vector_base<openmc::Trigger, std::allocator<openmc::Trigger>>::_Vector_impl" }
%"struct.std::_Vector_base<openmc::Trigger, std::allocator<openmc::Trigger>>::_Vector_impl" = type { %"struct.std::_Vector_base<openmc::Trigger, std::allocator<openmc::Trigger>>::_Vector_impl_data" }
%"struct.std::_Vector_base<openmc::Trigger, std::allocator<openmc::Trigger>>::_Vector_impl_data" = type { ptr, ptr, ptr }
%"class.openmc::BigFilterMatch" = type <{ %"class.std::vector.18", %"class.std::vector.23", i32, i8, [3 x i8] }>
%"class.openmc::vector.17" = type { ptr, i64, i64 }
%"class.__gnu_cxx::__normal_iterator" = type { ptr }
%"class.__gnu_cxx::__normal_iterator.28" = type { ptr }
%"class.openmc::Nuclide" = type { %"class.std::__cxx11::basic_string", i32, i32, i32, double, i64, %"class.openmc::vector.9", %"class.std::vector.29", %"class.std::vector.34", i32, i32, ptr, ptr, ptr, ptr, %"class.std::unique_ptr", ptr, i8, i8, %"class.std::vector.41", i32, %"class.std::unique_ptr.46", %"class.std::unique_ptr.46", %"class.std::unique_ptr.46", %"class.std::unique_ptr.46", %"class.std::unique_ptr.46", %"class.std::unique_ptr.46", %"class.std::unique_ptr.46", ptr, i8, %"class.openmc::vector.9", %"class.openmc::vector.9", %"class.openmc::vector.9", i8, i32, %"class.openmc::vector.54", %"class.openmc::vector.55", %"struct.std::array.56", %"class.openmc::vector", ptr }
%"class.std::vector.29" = type { %"struct.std::_Vector_base.30" }
%"struct.std::_Vector_base.30" = type { %"struct.std::_Vector_base<openmc::Nuclide::EnergyGrid, std::allocator<openmc::Nuclide::EnergyGrid>>::_Vector_impl" }
%"struct.std::_Vector_base<openmc::Nuclide::EnergyGrid, std::allocator<openmc::Nuclide::EnergyGrid>>::_Vector_impl" = type { %"struct.std::_Vector_base<openmc::Nuclide::EnergyGrid, std::allocator<openmc::Nuclide::EnergyGrid>>::_Vector_impl_data" }
%"struct.std::_Vector_base<openmc::Nuclide::EnergyGrid, std::allocator<openmc::Nuclide::EnergyGrid>>::_Vector_impl_data" = type { ptr, ptr, ptr }
%"class.std::vector.34" = type { %"struct.std::_Vector_base.35" }
%"struct.std::_Vector_base.35" = type { %"struct.std::_Vector_base<xt::xtensor_container<xt::uvector<double>, 2, xt::layout_type::row_major>, std::allocator<xt::xtensor_container<xt::uvector<double>, 2, xt::layout_type::row_major>>>::_Vector_impl" }
%"struct.std::_Vector_base<xt::xtensor_container<xt::uvector<double>, 2, xt::layout_type::row_major>, std::allocator<xt::xtensor_container<xt::uvector<double>, 2, xt::layout_type::row_major>>>::_Vector_impl" = type { %"struct.std::_Vector_base<xt::xtensor_container<xt::uvector<double>, 2, xt::layout_type::row_major>, std::allocator<xt::xtensor_container<xt::uvector<double>, 2, xt::layout_type::row_major>>>::_Vector_impl_data" }
%"struct.std::_Vector_base<xt::xtensor_container<xt::uvector<double>, 2, xt::layout_type::row_major>, std::allocator<xt::xtensor_container<xt::uvector<double>, 2, xt::layout_type::row_major>>>::_Vector_impl_data" = type { ptr, ptr, ptr }
%"class.std::unique_ptr" = type { %"struct.std::__uniq_ptr_data" }
%"struct.std::__uniq_ptr_data" = type { %"class.std::__uniq_ptr_impl" }
%"class.std::__uniq_ptr_impl" = type { %"class.std::tuple" }
%"class.std::tuple" = type { %"struct.std::_Tuple_impl" }
%"struct.std::_Tuple_impl" = type { %"struct.std::_Head_base.40" }
%"struct.std::_Head_base.40" = type { ptr }
%"class.std::vector.41" = type { %"struct.std::_Vector_base.42" }
%"struct.std::_Vector_base.42" = type { %"struct.std::_Vector_base<openmc::ReactionFlatContainer *, std::allocator<openmc::ReactionFlatContainer *>>::_Vector_impl" }
%"struct.std::_Vector_base<openmc::ReactionFlatContainer *, std::allocator<openmc::ReactionFlatContainer *>>::_Vector_impl" = type { %"struct.std::_Vector_base<openmc::ReactionFlatContainer *, std::allocator<openmc::ReactionFlatContainer *>>::_Vector_impl_data" }
%"struct.std::_Vector_base<openmc::ReactionFlatContainer *, std::allocator<openmc::ReactionFlatContainer *>>::_Vector_impl_data" = type { ptr, ptr, ptr }
%"class.std::unique_ptr.46" = type { %"struct.std::__uniq_ptr_data.47" }
%"struct.std::__uniq_ptr_data.47" = type { %"class.std::__uniq_ptr_impl.48" }
%"class.std::__uniq_ptr_impl.48" = type { %"class.std::tuple.49" }
%"class.std::tuple.49" = type { %"struct.std::_Tuple_impl.50" }
%"struct.std::_Tuple_impl.50" = type { %"struct.std::_Head_base.53" }
%"struct.std::_Head_base.53" = type { ptr }
%"class.openmc::vector.54" = type { ptr, i64, i64 }
%"class.openmc::vector.55" = type { ptr, i64, i64 }
%"struct.std::array.56" = type { [902 x i64] }
%"class.openmc::Material" = type { i32, %"class.std::__cxx11::basic_string", %"class.openmc::vector", %"class.openmc::vector", %"class.xt::xtensor_container", double, double, double, i8, i8, %"class.openmc::vector", %"class.openmc::vector", %"class.openmc::vector.59", %"class.openmc::Bremsstrahlung", i64, double }
%"class.xt::xtensor_container" = type { %"class.xt::xstrided_container.base", %"class.xt::xcontainer_semantic", %"class.xt::uvector" }
%"class.xt::xstrided_container.base" = type <{ %"struct.std::array.57", %"struct.std::array.58", %"struct.std::array.58", i32 }>
%"struct.std::array.57" = type { [1 x i64] }
%"struct.std::array.58" = type { [1 x i64] }
%"class.xt::xcontainer_semantic" = type { %"class.xt::xsemantic_base" }
%"class.xt::xsemantic_base" = type { %"class.xt::xsharable_expression" }
%"class.xt::xsharable_expression" = type { %"class.std::shared_ptr" }
%"class.std::shared_ptr" = type { %"class.std::__shared_ptr" }
%"class.std::__shared_ptr" = type { ptr, %"class.std::__shared_count" }
%"class.std::__shared_count" = type { ptr }
%"class.xt::uvector" = type { [8 x i8], ptr, ptr }
%"class.openmc::Bremsstrahlung" = type { %"class.openmc::BremsstrahlungData", %"class.openmc::BremsstrahlungData" }
%"class.openmc::BremsstrahlungData" = type { %"class.xt::xtensor_container.60", %"class.xt::xtensor_container.60", %"class.xt::xtensor_container", ptr, ptr, ptr }
%"class.xt::xtensor_container.60" = type { %"class.xt::xstrided_container.base.70", %"class.xt::xcontainer_semantic.71", %"class.xt::uvector" }
%"class.xt::xstrided_container.base.70" = type <{ %"struct.std::array.68", %"struct.std::array.69", %"struct.std::array.69", i32 }>
%"struct.std::array.68" = type { [2 x i64] }
%"struct.std::array.69" = type { [2 x i64] }
%"class.xt::xcontainer_semantic.71" = type { %"class.xt::xsemantic_base.72" }
%"class.xt::xsemantic_base.72" = type { %"class.xt::xsharable_expression.73" }
%"class.xt::xsharable_expression.73" = type { %"class.std::shared_ptr.75" }
%"class.std::shared_ptr.75" = type { %"class.std::__shared_ptr.76" }
%"class.std::__shared_ptr.76" = type { ptr, %"class.std::__shared_count" }
%"class.xt::xstrided_container" = type <{ %"struct.std::array.57", %"struct.std::array.58", %"struct.std::array.58", i32, [4 x i8] }>
%"class.openmc::ReactionFlat" = type { ptr, i64, i64 }
%"class.openmc::ReactionFlatContainer" = type { %"class.openmc::DataBuffer" }
%"class.openmc::DataBuffer" = type <{ ptr, i64, i64, i32, [4 x i8] }>
%"struct.__gnu_cxx::__ops::_Iter_less_val" = type { i8 }
%"struct.std::random_access_iterator_tag" = type { i8 }
%"class.openmc::ReactionProductFlat" = type { ptr, i64, i64, i64 }
%"class.openmc::Function1DFlat" = type { ptr }
%"class.openmc::Mgxs" = type { %"class.xt::xtensor_container", i32, i32, i32, %"class.std::vector.93", i8, i32, i32, %"class.std::vector.23", %"class.std::vector.23", %"class.std::__cxx11::basic_string", double, i8, %"class.std::vector.98" }
%"class.std::vector.93" = type { %"struct.std::_Vector_base.94" }
%"struct.std::_Vector_base.94" = type { %"struct.std::_Vector_base<openmc::XsData, std::allocator<openmc::XsData>>::_Vector_impl" }
%"struct.std::_Vector_base<openmc::XsData, std::allocator<openmc::XsData>>::_Vector_impl" = type { %"struct.std::_Vector_base<openmc::XsData, std::allocator<openmc::XsData>>::_Vector_impl_data" }
%"struct.std::_Vector_base<openmc::XsData, std::allocator<openmc::XsData>>::_Vector_impl_data" = type { ptr, ptr, ptr }
%"class.std::vector.98" = type { %"struct.std::_Vector_base.99" }
%"struct.std::_Vector_base.99" = type { %"struct.std::_Vector_base<openmc::CacheData, std::allocator<openmc::CacheData>>::_Vector_impl" }
%"struct.std::_Vector_base<openmc::CacheData, std::allocator<openmc::CacheData>>::_Vector_impl" = type { %"struct.std::_Vector_base<openmc::CacheData, std::allocator<openmc::CacheData>>::_Vector_impl_data" }
%"struct.std::_Vector_base<openmc::CacheData, std::allocator<openmc::CacheData>>::_Vector_impl_data" = type { ptr, ptr, ptr }
%"class.std::tuple.142" = type { %"struct.std::_Tuple_impl.143" }
%"struct.std::_Tuple_impl.143" = type { %"struct.std::_Tuple_impl.144", %"struct.std::_Head_base.148" }
%"struct.std::_Tuple_impl.144" = type { %"struct.std::_Tuple_impl.145", %"struct.std::_Head_base.147" }
%"struct.std::_Tuple_impl.145" = type { %"struct.std::_Head_base.146" }
%"struct.std::_Head_base.146" = type { double }
%"struct.std::_Head_base.147" = type { double }
%"struct.std::_Head_base.148" = type { double }
%"class.std::tuple.149" = type { %"struct.std::_Tuple_impl.150" }
%"struct.std::_Tuple_impl.150" = type { %"struct.std::_Tuple_impl.151", %"struct.std::_Head_base.155" }
%"struct.std::_Tuple_impl.151" = type { %"struct.std::_Tuple_impl.152", %"struct.std::_Head_base.154" }
%"struct.std::_Tuple_impl.152" = type { %"struct.std::_Head_base.153" }
%"struct.std::_Head_base.153" = type { ptr }
%"struct.std::_Head_base.154" = type { ptr }
%"struct.std::_Head_base.155" = type { ptr }
%"struct.openmc::ThermalTable" = type { i32, i32, double }
%"class.openmc::ThermalScattering" = type { %"class.std::__cxx11::basic_string", double, double, %"class.openmc::vector.9", %"class.std::vector.78", %"class.openmc::vector.105" }
%"class.openmc::vector.105" = type { ptr, i64, i64 }
%"class.openmc::WindowedMultipole" = type <{ %"class.std::__cxx11::basic_string", double, double, double, double, i32, i8, [3 x i8], %"class.openmc::vector.106", %"class.xt::xtensor_container.107", ptr, %"class.xt::xtensor_container.125", ptr, i32, i32, i32, [4 x i8] }>
%"class.openmc::vector.106" = type { ptr, i64, i64 }
%"class.xt::xtensor_container.107" = type { %"class.xt::xstrided_container.base.117", %"class.xt::xcontainer_semantic.118", %"class.xt::uvector" }
%"class.xt::xstrided_container.base.117" = type <{ %"struct.std::array.115", %"struct.std::array.116", %"struct.std::array.116", i32 }>
%"struct.std::array.115" = type { [3 x i64] }
%"struct.std::array.116" = type { [3 x i64] }
%"class.xt::xcontainer_semantic.118" = type { %"class.xt::xsemantic_base.119" }
%"class.xt::xsemantic_base.119" = type { %"class.xt::xsharable_expression.120" }
%"class.xt::xsharable_expression.120" = type { %"class.std::shared_ptr.122" }
%"class.std::shared_ptr.122" = type { %"class.std::__shared_ptr.123" }
%"class.std::__shared_ptr.123" = type { ptr, %"class.std::__shared_count" }
%"class.xt::xtensor_container.125" = type { %"class.xt::xstrided_container.base.133", %"class.xt::xcontainer_semantic.134", %"class.xt::uvector.141" }
%"class.xt::xstrided_container.base.133" = type <{ %"struct.std::array.68", %"struct.std::array.69", %"struct.std::array.69", i32 }>
%"class.xt::xcontainer_semantic.134" = type { %"class.xt::xsemantic_base.135" }
%"class.xt::xsemantic_base.135" = type { %"class.xt::xsharable_expression.136" }
%"class.xt::xsharable_expression.136" = type { %"class.std::shared_ptr.138" }
%"class.std::shared_ptr.138" = type { %"class.std::__shared_ptr.139" }
%"class.std::__shared_ptr.139" = type { ptr, %"class.std::__shared_count" }
%"class.xt::uvector.141" = type { [8 x i8], ptr, ptr }
%"class.openmc::UrrData" = type { i32, i32, i32, i8, i32, %"class.xt::xtensor_container", ptr, %"class.xt::xtensor_container.107", ptr, i32, i32 }
%"class.__gnu_cxx::__normal_iterator.157" = type { ptr }

$_ZNK6openmc5Tally9n_filtersEv = comdat any

$_ZNK6openmc5Tally7filtersEi = comdat any

$_ZNK6openmc6vectorIiE4sizeEv = comdat any

$_ZNK6openmc6vectorIiEixEm = comdat any

$_ZNK6openmc6Filter6n_binsEv = comdat any

$_ZNK6openmc5Tally7filtersEv = comdat any

$_ZNK6openmc6vectorIiE5beginEv = comdat any

$_ZNK6openmc6vectorIiE3endEv = comdat any

$_ZN6openmc6vectorINS_14BigFilterMatchEEixEm = comdat any

$_ZNSt6vectorIiSaIiEE5clearEv = comdat any

$_ZNSt6vectorIdSaIdEE5clearEv = comdat any

$_ZNSt6vectorIiSaIiEE9push_backERKi = comdat any

$_ZNSt6vectorIdSaIdEE9push_backEOd = comdat any

$_ZNKSt6vectorIiSaIiEE4sizeEv = comdat any

$_ZNSt6vectorIiSaIiEE15_M_erase_at_endEPi = comdat any

$_ZSt8_DestroyIPiiEvT_S1_RSaIT0_E = comdat any

$_ZNSt12_Vector_baseIiSaIiEE19_M_get_Tp_allocatorEv = comdat any

$__clang_call_terminate = comdat any

$_ZSt8_DestroyIPiEvT_S1_ = comdat any

$_ZNSt12_Destroy_auxILb1EE9__destroyIPiEEvT_S3_ = comdat any

$_ZNSt6vectorIdSaIdEE15_M_erase_at_endEPd = comdat any

$_ZSt8_DestroyIPddEvT_S1_RSaIT0_E = comdat any

$_ZNSt12_Vector_baseIdSaIdEE19_M_get_Tp_allocatorEv = comdat any

$_ZSt8_DestroyIPdEvT_S1_ = comdat any

$_ZNSt12_Destroy_auxILb1EE9__destroyIPdEEvT_S3_ = comdat any

$_ZNSt16allocator_traitsISaIiEE9constructIiJRKiEEEvRS0_PT_DpOT0_ = comdat any

$_ZNSt6vectorIiSaIiEE17_M_realloc_insertIJRKiEEEvN9__gnu_cxx17__normal_iteratorIPiS1_EEDpOT_ = comdat any

$_ZNSt6vectorIiSaIiEE3endEv = comdat any

$_ZNSt15__new_allocatorIiE9constructIiJRKiEEEvPT_DpOT0_ = comdat any

$_ZNKSt6vectorIiSaIiEE12_M_check_lenEmPKc = comdat any

$_ZN9__gnu_cxxmiIPiSt6vectorIiSaIiEEEENS_17__normal_iteratorIT_T0_E15difference_typeERKS8_SB_ = comdat any

$_ZNSt6vectorIiSaIiEE5beginEv = comdat any

$_ZNSt12_Vector_baseIiSaIiEE11_M_allocateEm = comdat any

$_ZNSt6vectorIiSaIiEE11_S_relocateEPiS2_S2_RS0_ = comdat any

$_ZNK9__gnu_cxx17__normal_iteratorIPiSt6vectorIiSaIiEEE4baseEv = comdat any

$_ZNSt12_Vector_baseIiSaIiEE13_M_deallocateEPim = comdat any

$_ZNKSt6vectorIiSaIiEE8max_sizeEv = comdat any

$_ZSt3maxImERKT_S2_S2_ = comdat any

$_ZNSt6vectorIiSaIiEE11_S_max_sizeERKS0_ = comdat any

$_ZNKSt12_Vector_baseIiSaIiEE19_M_get_Tp_allocatorEv = comdat any

$_ZNSt16allocator_traitsISaIiEE8max_sizeERKS0_ = comdat any

$_ZSt3minImERKT_S2_S2_ = comdat any

$_ZNKSt15__new_allocatorIiE8max_sizeEv = comdat any

$_ZNKSt15__new_allocatorIiE11_M_max_sizeEv = comdat any

$_ZN9__gnu_cxx17__normal_iteratorIPiSt6vectorIiSaIiEEEC2ERKS1_ = comdat any

$_ZNSt16allocator_traitsISaIiEE8allocateERS0_m = comdat any

$_ZNSt15__new_allocatorIiE8allocateEmPKv = comdat any

$_ZSt12__relocate_aIPiS0_SaIiEET0_T_S3_S2_RT1_ = comdat any

$_ZSt14__relocate_a_1IiiENSt9enable_ifIXsr3std24__is_bitwise_relocatableIT_EE5valueEPS1_E4typeES2_S2_S2_RSaIT0_E = comdat any

$_ZSt12__niter_baseIPiET_S1_ = comdat any

$_ZNSt16allocator_traitsISaIiEE10deallocateERS0_Pim = comdat any

$_ZNSt15__new_allocatorIiE10deallocateEPim = comdat any

$_ZNSt6vectorIdSaIdEE12emplace_backIJdEEERdDpOT_ = comdat any

$_ZNSt16allocator_traitsISaIdEE9constructIdJdEEEvRS0_PT_DpOT0_ = comdat any

$_ZNSt6vectorIdSaIdEE17_M_realloc_insertIJdEEEvN9__gnu_cxx17__normal_iteratorIPdS1_EEDpOT_ = comdat any

$_ZNSt6vectorIdSaIdEE3endEv = comdat any

$_ZNSt6vectorIdSaIdEE4backEv = comdat any

$_ZNSt15__new_allocatorIdE9constructIdJdEEEvPT_DpOT0_ = comdat any

$_ZNKSt6vectorIdSaIdEE12_M_check_lenEmPKc = comdat any

$_ZN9__gnu_cxxmiIPdSt6vectorIdSaIdEEEENS_17__normal_iteratorIT_T0_E15difference_typeERKS8_SB_ = comdat any

$_ZNSt6vectorIdSaIdEE5beginEv = comdat any

$_ZNSt12_Vector_baseIdSaIdEE11_M_allocateEm = comdat any

$_ZNSt6vectorIdSaIdEE11_S_relocateEPdS2_S2_RS0_ = comdat any

$_ZNK9__gnu_cxx17__normal_iteratorIPdSt6vectorIdSaIdEEE4baseEv = comdat any

$_ZNSt12_Vector_baseIdSaIdEE13_M_deallocateEPdm = comdat any

$_ZNKSt6vectorIdSaIdEE8max_sizeEv = comdat any

$_ZNKSt6vectorIdSaIdEE4sizeEv = comdat any

$_ZNSt6vectorIdSaIdEE11_S_max_sizeERKS0_ = comdat any

$_ZNKSt12_Vector_baseIdSaIdEE19_M_get_Tp_allocatorEv = comdat any

$_ZNSt16allocator_traitsISaIdEE8max_sizeERKS0_ = comdat any

$_ZNKSt15__new_allocatorIdE8max_sizeEv = comdat any

$_ZNKSt15__new_allocatorIdE11_M_max_sizeEv = comdat any

$_ZN9__gnu_cxx17__normal_iteratorIPdSt6vectorIdSaIdEEEC2ERKS1_ = comdat any

$_ZNSt16allocator_traitsISaIdEE8allocateERS0_m = comdat any

$_ZNSt15__new_allocatorIdE8allocateEmPKv = comdat any

$_ZSt12__relocate_aIPdS0_SaIdEET0_T_S3_S2_RT1_ = comdat any

$_ZSt14__relocate_a_1IddENSt9enable_ifIXsr3std24__is_bitwise_relocatableIT_EE5valueEPS1_E4typeES2_S2_S2_RSaIT0_E = comdat any

$_ZSt12__niter_baseIPdET_S1_ = comdat any

$_ZNSt16allocator_traitsISaIdEE10deallocateERS0_Pdm = comdat any

$_ZNSt15__new_allocatorIdE10deallocateEPdm = comdat any

$_ZNK9__gnu_cxx17__normal_iteratorIPdSt6vectorIdSaIdEEEmiEl = comdat any

$_ZNK9__gnu_cxx17__normal_iteratorIPdSt6vectorIdSaIdEEEdeEv = comdat any

$_ZNSt6vectorIiSaIiEEixEm = comdat any

$_ZNK6openmc5Tally7stridesEi = comdat any

$_ZNSt6vectorIdSaIdEEixEm = comdat any

$_ZNKSt10unique_ptrIN6openmc23Function1DFlatContainerESt14default_deleteIS1_EEcvbEv = comdat any

$_ZNKSt10unique_ptrIN6openmc23Function1DFlatContainerESt14default_deleteIS1_EEdeEv = comdat any

$_ZNKSt10unique_ptrIN6openmc23Function1DFlatContainerESt14default_deleteIS1_EE3getEv = comdat any

$_ZNKSt15__uniq_ptr_implIN6openmc23Function1DFlatContainerESt14default_deleteIS1_EE6_M_ptrEv = comdat any

$_ZSt3getILm0EJPN6openmc23Function1DFlatContainerESt14default_deleteIS1_EEERKNSt13tuple_elementIXT_ESt5tupleIJDpT0_EEE4typeERKS9_ = comdat any

$_ZSt12__get_helperILm0EPN6openmc23Function1DFlatContainerEJSt14default_deleteIS1_EEERKT0_RKSt11_Tuple_implIXT_EJS5_DpT1_EE = comdat any

$_ZNSt11_Tuple_implILm0EJPN6openmc23Function1DFlatContainerESt14default_deleteIS1_EEE7_M_headERKS5_ = comdat any

$_ZNSt10_Head_baseILm0EPN6openmc23Function1DFlatContainerELb0EE7_M_headERKS3_ = comdat any

$_ZNK6openmc19NuclideMicroXSCacheixEl = comdat any

$_ZNK2xt10xcontainerINS_17xtensor_containerINS_7uvectorIdSaIdEEELm1ELNS_11layout_typeE1ENS_22xtensor_expression_tagEEEEclIJiEEERKdDpT_ = comdat any

$_ZN2xt11data_offsetImSt5arrayIlLm1EElJEEET_RKT0_T1_DpT2_ = comdat any

$_ZNK2xt10xcontainerINS_17xtensor_containerINS_7uvectorIdSaIdEEELm1ELNS_11layout_typeE1ENS_22xtensor_expression_tagEEEE7stridesEv = comdat any

$_ZNK2xt10xcontainerINS_17xtensor_containerINS_7uvectorIdSaIdEEELm1ELNS_11layout_typeE1ENS_22xtensor_expression_tagEEEE7storageEv = comdat any

$_ZNK2xt7uvectorIdSaIdEEixEm = comdat any

$_ZNKSt5arrayIlLm1EE4sizeEv = comdat any

$_ZN2xt6detail15raw_data_offsetILm0ESt5arrayIlLm1EElJEEEDaRKT0_T1_DpT2_ = comdat any

$_ZN2xt11data_offsetImSt5arrayIlLm1EEEET_RKT0_ = comdat any

$_ZNKSt5arrayIlLm1EE4cendEv = comdat any

$_ZN2xt6detail15raw_data_offsetILm0EPKllJEEEDaRKT0_T1_DpT2_ = comdat any

$_ZNKSt5arrayIlLm1EEixEm = comdat any

$_ZN2xt6detail15raw_data_offsetILm1ESt5arrayIlLm1EEEEDaRKT0_ = comdat any

$_ZNSt14__array_traitsIlLm1EE6_S_refERA1_Klm = comdat any

$_ZNKSt5arrayIlLm1EE4dataEv = comdat any

$_ZNSt14__array_traitsIlLm1EE6_S_ptrERA1_Kl = comdat any

$_ZN2xt6detail15raw_data_offsetILm1EPKlEEDaRKT0_ = comdat any

$_ZNKR2xt10xcontainerINS_17xtensor_containerINS_7uvectorIdSaIdEEELm1ELNS_11layout_typeE1ENS_22xtensor_expression_tagEEEE12derived_castEv = comdat any

$_ZNK2xt18xstrided_containerINS_17xtensor_containerINS_7uvectorIdSaIdEEELm1ELNS_11layout_typeE1ENS_22xtensor_expression_tagEEEE12strides_implEv = comdat any

$_ZNK2xt17xtensor_containerINS_7uvectorIdSaIdEEELm1ELNS_11layout_typeE1ENS_22xtensor_expression_tagEE12storage_implEv = comdat any

$_ZNKSt5arrayImLm902EEixEm = comdat any

$_ZNK6openmc6vectorINS_21ReactionFlatContainerEEixEm = comdat any

$_ZNSt14__array_traitsImLm902EE6_S_refERA902_Kmm = comdat any

$_ZNK6openmc6Filter24matches_transport_groupsEv = comdat any

$_ZNK6openmc6Filter4binsEv = comdat any

$_ZNK6openmc6vectorIdE5frontEv = comdat any

$_ZNK6openmc6vectorIdE4backEv = comdat any

$_ZN6openmc17lower_bound_indexIPKddEENSt15iterator_traitsIT_E15difference_typeES4_S4_RKT0_ = comdat any

$_ZNK6openmc6vectorIdE5beginEv = comdat any

$_ZNK6openmc6vectorIdE3endEv = comdat any

$_ZNK6openmc6Filter6groupsEv = comdat any

$_ZSt11lower_boundIPKddET_S2_S2_RKT0_ = comdat any

$_ZSt13__lower_boundIPKddN9__gnu_cxx5__ops14_Iter_less_valEET_S5_S5_RKT0_T1_ = comdat any

$_ZN9__gnu_cxx5__ops15__iter_less_valEv = comdat any

$_ZSt8distanceIPKdENSt15iterator_traitsIT_E15difference_typeES3_S3_ = comdat any

$_ZSt7advanceIPKdlEvRT_T0_ = comdat any

$_ZNK9__gnu_cxx5__ops14_Iter_less_valclIPKdS3_EEbT_RT0_ = comdat any

$_ZSt10__distanceIPKdENSt15iterator_traitsIT_E15difference_typeES3_S3_St26random_access_iterator_tag = comdat any

$_ZSt19__iterator_categoryIPKdENSt15iterator_traitsIT_E17iterator_categoryERKS3_ = comdat any

$_ZSt9__advanceIPKdlEvRT_T0_St26random_access_iterator_tag = comdat any

$_ZN6openmc6vectorIiEixEm = comdat any

$_ZNKSt6vectorIPN6openmc21ReactionFlatContainerESaIS2_EEixEm = comdat any

$_ZNK6openmc12ReactionFlat10n_productsEv = comdat any

$_ZN6openmc19NuclideMicroXSCacheixEl = comdat any

$_ZNSt5arrayImLm902EEixEm = comdat any

$_ZN6openmc6vectorINS_21ReactionFlatContainerEEixEm = comdat any

$_ZSt10accumulateIPiiET0_T_S2_S1_ = comdat any

$_ZN6openmc8PositionC2Ev = comdat any

$_ZNK6openmc8Particle5aliveEv = comdat any

$_ZN6openmc8Particle7u_localEv = comdat any

$_ZNSt6vectorIN6openmc4MgxsESaIS1_EEixEm = comdat any

$_ZN6openmc4Mgxs6get_xsENS_8MgxsTypeEi = comdat any

$_ZN9__gnu_cxxneIPiSt6vectorIiSaIiEEEEbRKNS_17__normal_iteratorIT_T0_EESA_ = comdat any

$_ZNK9__gnu_cxx17__normal_iteratorIPiSt6vectorIiSaIiEEEdeEv = comdat any

$_ZN6openmc11FilterMatchC2Ev = comdat any

$_ZNK6openmc13FilterBinItereqERKS0_ = comdat any

$_ZNK6openmc13FilterBinIterneERKS0_ = comdat any

$_ZN9__gnu_cxx17__normal_iteratorIPiSt6vectorIiSaIiEEEppEv = comdat any

$_ZN2xt10xcontainerINS_17xtensor_containerINS_7uvectorIdSaIdEEELm1ELNS_11layout_typeE1ENS_22xtensor_expression_tagEEEEclIJiEEERdDpT_ = comdat any

$_ZN2xt10xcontainerINS_17xtensor_containerINS_7uvectorIdSaIdEEELm1ELNS_11layout_typeE1ENS_22xtensor_expression_tagEEEE7storageEv = comdat any

$_ZN2xt7uvectorIdSaIdEEixEm = comdat any

$_ZNR2xt10xcontainerINS_17xtensor_containerINS_7uvectorIdSaIdEEELm1ELNS_11layout_typeE1ENS_22xtensor_expression_tagEEEE12derived_castEv = comdat any

$_ZN2xt17xtensor_containerINS_7uvectorIdSaIdEEELm1ELNS_11layout_typeE1ENS_22xtensor_expression_tagEE12storage_implEv = comdat any

$_ZNSt5arrayIdLm2EEixEm = comdat any

$_ZN6openmc14NuclideMicroXSC2Ev = comdat any

$_ZNK6openmc8Material17mat_nuclide_indexEi = comdat any

$_ZNK6openmc8Material12atom_densityEi = comdat any

$_ZN6openmc7Nuclide12calculate_xsINS_14NuclideMicroXSEEET_iRNS_8ParticleEbdd = comdat any

$_ZNSt14__array_traitsIdLm2EE6_S_refERA2_Kdm = comdat any

$_ZN6openmc8vector2dIiEclEmm = comdat any

$_ZN6openmc8vector2dIdEclEmm = comdat any

$_ZNK6openmc6vectorINS_12ThermalTableEE4sizeEv = comdat any

$_ZNK6openmc8Material14thermal_tablesEi = comdat any

$_ZNK6openmc7Nuclide9multipoleEv = comdat any

$_ZSt3tieIJdddEESt5tupleIJDpRT_EES3_ = comdat any

$_ZNSt5tupleIJRdS0_S0_EEaSIJdddEEENSt9enable_ifIXcl12__assignableIDpT_EEERS1_E4typeEOS_IJS5_EE = comdat any

$_ZNK6openmc6vectorIdE4sizeEv = comdat any

$_ZSt3absd = comdat any

$_ZN6openmc6vectorIdEixEm = comdat any

$_ZNKSt5arrayIiLm6EE4sizeEv = comdat any

$_ZNKSt5arrayIiLm6EEixEm = comdat any

$_ZN6openmc6vectorINS_7UrrDataEEixEm = comdat any

$_ZN6openmc14NuclideMicroXSC2EddddddddPdiidiidbdd = comdat any

$_ZN6openmc8vector2dINS_12ThermalTableEEclEmm = comdat any

$_ZNSt5tupleIJRdS0_S0_EEC2ILb1ETnNSt9enable_ifIXclsr4_TCCIXT_EEE29__is_implicitly_constructibleIS0_S0_S0_EEEbE4typeELb1EEES0_S0_S0_ = comdat any

$_ZNSt11_Tuple_implILm0EJRdS0_S0_EEC2ES0_S0_S0_ = comdat any

$_ZNSt11_Tuple_implILm1EJRdS0_EEC2ES0_S0_ = comdat any

$_ZNSt10_Head_baseILm0ERdLb0EEC2ES0_ = comdat any

$_ZNSt11_Tuple_implILm2EJRdEEC2ES0_ = comdat any

$_ZNSt10_Head_baseILm1ERdLb0EEC2ES0_ = comdat any

$_ZNSt10_Head_baseILm2ERdLb0EEC2ES0_ = comdat any

$_ZNSt11_Tuple_implILm0EJRdS0_S0_EE9_M_assignIdJddEEEvOS_ILm0EJT_DpT0_EE = comdat any

$_ZNSt11_Tuple_implILm0EJdddEE7_M_headERS0_ = comdat any

$_ZNSt11_Tuple_implILm0EJRdS0_S0_EE7_M_headERS1_ = comdat any

$_ZNSt11_Tuple_implILm0EJRdS0_S0_EE7_M_tailERS1_ = comdat any

$_ZNSt11_Tuple_implILm1EJRdS0_EE9_M_assignIdJdEEEvOS_ILm1EJT_DpT0_EE = comdat any

$_ZNSt11_Tuple_implILm0EJdddEE7_M_tailERS0_ = comdat any

$_ZNSt10_Head_baseILm0EdLb0EE7_M_headERS0_ = comdat any

$_ZNSt10_Head_baseILm0ERdLb0EE7_M_headERS1_ = comdat any

$_ZNSt11_Tuple_implILm1EJddEE7_M_headERS0_ = comdat any

$_ZNSt11_Tuple_implILm1EJRdS0_EE7_M_headERS1_ = comdat any

$_ZNSt11_Tuple_implILm1EJRdS0_EE7_M_tailERS1_ = comdat any

$_ZNSt11_Tuple_implILm2EJRdEE9_M_assignIdEEvOS_ILm2EJT_EE = comdat any

$_ZNSt11_Tuple_implILm1EJddEE7_M_tailERS0_ = comdat any

$_ZNSt10_Head_baseILm1EdLb0EE7_M_headERS0_ = comdat any

$_ZNSt10_Head_baseILm1ERdLb0EE7_M_headERS1_ = comdat any

$_ZNSt11_Tuple_implILm2EJdEE7_M_headERS0_ = comdat any

$_ZNSt11_Tuple_implILm2EJRdEE7_M_headERS1_ = comdat any

$_ZNSt10_Head_baseILm2EdLb0EE7_M_headERS0_ = comdat any

$_ZNSt10_Head_baseILm2ERdLb0EE7_M_headERS1_ = comdat any

$_ZNSt14__array_traitsIiLm6EE6_S_refERA6_Kim = comdat any

$_ZNKSt6vectorIiSaIiEE5beginEv = comdat any

$_ZNKSt6vectorIiSaIiEE3endEv = comdat any

$_ZN9__gnu_cxxneIPKiSt6vectorIiSaIiEEEEbRKNS_17__normal_iteratorIT_T0_EESB_ = comdat any

$_ZNK9__gnu_cxx17__normal_iteratorIPKiSt6vectorIiSaIiEEEdeEv = comdat any

$_ZN9__gnu_cxx17__normal_iteratorIPKiSt6vectorIiSaIiEEEppEv = comdat any

$_ZN9__gnu_cxx17__normal_iteratorIPKiSt6vectorIiSaIiEEEC2ERKS2_ = comdat any

$_ZNK9__gnu_cxx17__normal_iteratorIPKiSt6vectorIiSaIiEEE4baseEv = comdat any

@dagmc = external global i8, align 1
@run_CE = external global i8, align 1
@max_lost_particles = external global i32, align 4
@gen_per_batch = external global i32, align 4
@n_particles = external global i64, align 8
@_ZN6openmc17WindowedMultipole21MAX_POLY_COEFFICIENTSE = external constant i32, align 4
@_ZN6openmc7Nuclide8XS_TOTALE = external global i32, align 4
@_ZN6openmc7Nuclide13XS_ABSORPTIONE = external global i32, align 4
@_ZN6openmc7Nuclide10XS_FISSIONE = external global i32, align 4
@_ZN6openmc7Nuclide13XS_NU_FISSIONE = external global i32, align 4
@_ZN6openmc7Nuclide14XS_PHOTON_PRODE = external global i32, align 4
@current_batch = external global i32, align 4
@current_gen = external global i32, align 4
@keff = external global double, align 8
@n_lost_particles = external global i32, align 4
@need_depletion_rx = external global i8, align 1
@depletion_scores_present = external global i8, align 1
@total_gen = external global i32, align 4
@_ZN6openmcL12DEPLETION_RXE = internal constant %"struct.std::array" { [6 x i32] [i32 102, i32 103, i32 107, i32 16, i32 17, i32 37] }, align 4
@_ZStL8__ioinit = internal global %"class.std::ios_base::Init" zeroinitializer, align 1
@__dso_handle = external hidden global i8
@_ZN6openmc5model13tally_filtersE = external global ptr, align 8
@.str = private unnamed_addr constant [26 x i8] c"vector::_M_realloc_insert\00", align 1
@_ZN6openmc5model7talliesE = external global ptr, align 8
@_ZN6openmc4data8nuclidesE = external global ptr, align 8
@_ZN6openmc8settings16survival_biasingE = external global i8, align 1
@_ZN6openmc5model9materialsE = external global ptr, align 8
@_ZN6openmc8settings8run_modeE = external global i32, align 4
@_ZN6openmc4data2mgE = external global %"class.openmc::MgxsInterface", align 8
@_ZN6openmc5model21active_analog_talliesE = external global %"class.std::vector.18", align 8
@_ZN6openmc8settings15assume_separateE = external global i8, align 1
@_ZN6openmc5model31active_tracklength_tallies_sizeE = external global i64, align 8
@_ZN6openmc5model33device_active_tracklength_talliesE = external global ptr, align 8
@_ZN6openmc4data10energy_minE = external global %"struct.std::array.103", align 8
@_ZN6openmc10simulation11log_spacingE = external global double, align 8
@_ZN6openmc5model27materials_mat_nuclide_indexE = external global %"class.openmc::vector2d", align 8
@_ZN6openmc5model22materials_atom_densityE = external global %"class.openmc::vector2d.104", align 8
@_ZN6openmc4data20device_thermal_scattE = external global ptr, align 8
@_ZN6openmc8settings18temperature_methodE = external global i32, align 4
@_ZN6openmc8settings10n_log_binsE = external global i32, align 4
@_ZN6openmc8settings14urr_ptables_onE = external global i8, align 1
@_ZN6openmc5model24materials_thermal_tablesE = external global %"class.openmc::vector2d.156", align 8
@_ZN6openmc5model24active_collision_talliesE = external global %"class.std::vector.18", align 8
@llvm.global_ctors = appending global [1 x { i32, ptr, ptr }] [{ i32, ptr, ptr } { i32 65535, ptr @_GLOBAL__sub_I_tally_scoring.cpp, ptr null }]

@_ZN6openmc13FilterBinIterC1ERKNS_5TallyERNS_8ParticleE = unnamed_addr alias void (ptr, ptr, ptr), ptr @_ZN6openmc13FilterBinIterC2ERKNS_5TallyERNS_8ParticleE
@_ZN6openmc13FilterBinIterC1ERKNS_5TallyEbPNS_11FilterMatchE = unnamed_addr alias void (ptr, ptr, i1, ptr), ptr @_ZN6openmc13FilterBinIterC2ERKNS_5TallyEbPNS_11FilterMatchE
@_ZN6openmc13FilterBinIterC1ERKNS_5TallyEbPNS_6vectorINS_14BigFilterMatchEEE = unnamed_addr alias void (ptr, ptr, i1, ptr), ptr @_ZN6openmc13FilterBinIterC2ERKNS_5TallyEbPNS_6vectorINS_14BigFilterMatchEEE

; Function Attrs: uwtable
define internal void @__cxx_global_var_init() #0 section ".text.startup" {
entry:
  call void @_ZNSt8ios_base4InitC1Ev(ptr noundef nonnull align 1 dereferenceable(1) @_ZStL8__ioinit)
  %0 = call i32 @__cxa_atexit(ptr @_ZNSt8ios_base4InitD1Ev, ptr @_ZStL8__ioinit, ptr @__dso_handle) #3
  ret void
}

declare void @_ZNSt8ios_base4InitC1Ev(ptr noundef nonnull align 1 dereferenceable(1)) unnamed_addr #1

; Function Attrs: nounwind
declare void @_ZNSt8ios_base4InitD1Ev(ptr noundef nonnull align 1 dereferenceable(1)) unnamed_addr #2

; Function Attrs: nounwind
declare i32 @__cxa_atexit(ptr, ptr, ptr) #3

; Function Attrs: mustprogress uwtable
define void @_ZN6openmc13FilterBinIterC2ERKNS_5TallyERNS_8ParticleE(ptr noundef nonnull align 8 dereferenceable(48) %this, ptr noundef nonnull align 8 dereferenceable(240) %tally, ptr noundef nonnull align 8 dereferenceable(2728) %p) unnamed_addr #4 align 2 {
entry:
  %this.addr = alloca ptr, align 8
  %tally.addr = alloca ptr, align 8
  %p.addr = alloca ptr, align 8
  %filt = alloca i32, align 4
  %cleanup.dest.slot = alloca i32, align 4
  %i_filt = alloca i32, align 4
  %match = alloca ptr, align 8
  store ptr %this, ptr %this.addr, align 8, !tbaa !24
  store ptr %tally, ptr %tally.addr, align 8, !tbaa !29
  store ptr %p, ptr %p.addr, align 8, !tbaa !31
  %this1 = load ptr, ptr %this.addr, align 8
  %index_ = getelementptr inbounds nuw %"class.openmc::FilterBinIter", ptr %this1, i32 0, i32 0
  store i32 1, ptr %index_, align 8, !tbaa !33
  %weight_ = getelementptr inbounds nuw %"class.openmc::FilterBinIter", ptr %this1, i32 0, i32 1
  store double 1.000000e+00, ptr %weight_, align 8, !tbaa !40
  %filter_matches_ = getelementptr inbounds nuw %"class.openmc::FilterBinIter", ptr %this1, i32 0, i32 2
  %0 = load ptr, ptr %p.addr, align 8, !tbaa !31
  %filter_matches_2 = getelementptr inbounds nuw %"class.openmc::Particle", ptr %0, i32 0, i32 45
  %1 = load ptr, ptr %filter_matches_2, align 8, !tbaa !41
  store ptr %1, ptr %filter_matches_, align 8, !tbaa !56
  %is_big_ = getelementptr inbounds nuw %"class.openmc::FilterBinIter", ptr %this1, i32 0, i32 4
  store i8 0, ptr %is_big_, align 8, !tbaa !57
  %tally_ = getelementptr inbounds nuw %"class.openmc::FilterBinIter", ptr %this1, i32 0, i32 5
  %2 = load ptr, ptr %tally.addr, align 8, !tbaa !29
  store ptr %2, ptr %tally_, align 8, !tbaa !29
  call void @llvm.lifetime.start.p0(i64 4, ptr %filt) #3
  store i32 0, ptr %filt, align 4, !tbaa !58
  br label %for.cond

for.cond:                                         ; preds = %for.inc, %entry
  %3 = load i32, ptr %filt, align 4, !tbaa !58
  %tally_3 = getelementptr inbounds nuw %"class.openmc::FilterBinIter", ptr %this1, i32 0, i32 5
  %4 = load ptr, ptr %tally_3, align 8, !tbaa !59
  %call = call noundef i32 @_ZNK6openmc5Tally9n_filtersEv(ptr noundef nonnull align 8 dereferenceable(240) %4)
  %cmp = icmp slt i32 %3, %call
  br i1 %cmp, label %for.body, label %for.cond.cleanup

for.cond.cleanup:                                 ; preds = %for.cond
  store i32 2, ptr %cleanup.dest.slot, align 4
  br label %cleanup17

for.body:                                         ; preds = %for.cond
  call void @llvm.lifetime.start.p0(i64 4, ptr %i_filt) #3
  %tally_4 = getelementptr inbounds nuw %"class.openmc::FilterBinIter", ptr %this1, i32 0, i32 5
  %5 = load ptr, ptr %tally_4, align 8, !tbaa !59
  %6 = load i32, ptr %filt, align 4, !tbaa !58
  %call5 = call noundef i32 @_ZNK6openmc5Tally7filtersEi(ptr noundef nonnull align 8 dereferenceable(240) %5, i32 noundef %6)
  store i32 %call5, ptr %i_filt, align 4, !tbaa !58
  call void @llvm.lifetime.start.p0(i64 8, ptr %match) #3
  %filter_matches_6 = getelementptr inbounds nuw %"class.openmc::FilterBinIter", ptr %this1, i32 0, i32 2
  %7 = load ptr, ptr %filter_matches_6, align 8, !tbaa !56
  %8 = load i32, ptr %filt, align 4, !tbaa !58
  %idxprom = sext i32 %8 to i64
  %arrayidx = getelementptr inbounds %"class.openmc::FilterMatch", ptr %7, i64 %idxprom
  store ptr %arrayidx, ptr %match, align 8, !tbaa !60
  %9 = load ptr, ptr %match, align 8, !tbaa !60
  %bins_present_ = getelementptr inbounds nuw %"class.openmc::FilterMatch", ptr %9, i32 0, i32 5
  %10 = load i8, ptr %bins_present_, align 8, !tbaa !61, !range !63, !noundef !64
  %loadedv = trunc i8 %10 to i1
  br i1 %loadedv, label %if.end, label %if.then

if.then:                                          ; preds = %for.body
  %11 = load ptr, ptr %match, align 8, !tbaa !60
  %bins_weights_length_ = getelementptr inbounds nuw %"class.openmc::FilterMatch", ptr %11, i32 0, i32 3
  store i32 0, ptr %bins_weights_length_, align 8, !tbaa !65
  %12 = load ptr, ptr @_ZN6openmc5model13tally_filtersE, align 8, !tbaa !66
  %13 = load i32, ptr %i_filt, align 4, !tbaa !58
  %idxprom7 = sext i32 %13 to i64
  %arrayidx8 = getelementptr inbounds %"class.openmc::Filter", ptr %12, i64 %idxprom7
  %14 = load ptr, ptr %p.addr, align 8, !tbaa !31
  %tally_9 = getelementptr inbounds nuw %"class.openmc::FilterBinIter", ptr %this1, i32 0, i32 5
  %15 = load ptr, ptr %tally_9, align 8, !tbaa !59
  %estimator_ = getelementptr inbounds nuw %"class.openmc::Tally", ptr %15, i32 0, i32 3
  %16 = load i32, ptr %estimator_, align 4, !tbaa !68
  %17 = load ptr, ptr %match, align 8, !tbaa !60
  call void @_ZNK6openmc6Filter12get_all_binsERKNS_8ParticleENS_14TallyEstimatorERNS_11FilterMatchE(ptr noundef nonnull align 8 dereferenceable(448) %arrayidx8, ptr noundef nonnull align 8 dereferenceable(2728) %14, i32 noundef %16, ptr noundef nonnull align 8 dereferenceable(1513) %17)
  %18 = load ptr, ptr %match, align 8, !tbaa !60
  %bins_present_10 = getelementptr inbounds nuw %"class.openmc::FilterMatch", ptr %18, i32 0, i32 5
  store i8 1, ptr %bins_present_10, align 8, !tbaa !61
  br label %if.end

if.end:                                           ; preds = %if.then, %for.body
  %19 = load ptr, ptr %match, align 8, !tbaa !60
  %bins_weights_length_11 = getelementptr inbounds nuw %"class.openmc::FilterMatch", ptr %19, i32 0, i32 3
  %20 = load i32, ptr %bins_weights_length_11, align 8, !tbaa !65
  %cmp12 = icmp eq i32 %20, 0
  br i1 %cmp12, label %if.then13, label %if.end15

if.then13:                                        ; preds = %if.end
  %index_14 = getelementptr inbounds nuw %"class.openmc::FilterBinIter", ptr %this1, i32 0, i32 0
  store i32 -1, ptr %index_14, align 8, !tbaa !33
  store i32 1, ptr %cleanup.dest.slot, align 4
  br label %cleanup

if.end15:                                         ; preds = %if.end
  %21 = load ptr, ptr %match, align 8, !tbaa !60
  %i_bin_ = getelementptr inbounds nuw %"class.openmc::FilterMatch", ptr %21, i32 0, i32 4
  store i32 0, ptr %i_bin_, align 4, !tbaa !83
  store i32 0, ptr %cleanup.dest.slot, align 4
  br label %cleanup

cleanup:                                          ; preds = %if.end15, %if.then13
  call void @llvm.lifetime.end.p0(i64 8, ptr %match) #3
  call void @llvm.lifetime.end.p0(i64 4, ptr %i_filt) #3
  %cleanup.dest = load i32, ptr %cleanup.dest.slot, align 4
  switch i32 %cleanup.dest, label %cleanup17 [
    i32 0, label %cleanup.cont
  ]

cleanup.cont:                                     ; preds = %cleanup
  br label %for.inc

for.inc:                                          ; preds = %cleanup.cont
  %22 = load i32, ptr %filt, align 4, !tbaa !58
  %inc = add nsw i32 %22, 1
  store i32 %inc, ptr %filt, align 4, !tbaa !58
  br label %for.cond, !llvm.loop !84

cleanup17:                                        ; preds = %cleanup, %for.cond.cleanup
  call void @llvm.lifetime.end.p0(i64 4, ptr %filt) #3
  %cleanup.dest18 = load i32, ptr %cleanup.dest.slot, align 4
  switch i32 %cleanup.dest18, label %unreachable [
    i32 2, label %for.end
    i32 1, label %return
  ]

for.end:                                          ; preds = %cleanup17
  call void @_ZN6openmc13FilterBinIter20compute_index_weightEv(ptr noundef nonnull align 8 dereferenceable(48) %this1)
  br label %return

return:                                           ; preds = %for.end, %cleanup17
  ret void

unreachable:                                      ; preds = %cleanup17
  unreachable
}

; Function Attrs: nocallback nofree nosync nounwind willreturn memory(argmem: readwrite)
declare void @llvm.lifetime.start.p0(i64 immarg, ptr captures(none)) #5

; Function Attrs: mustprogress uwtable
define linkonce_odr noundef i32 @_ZNK6openmc5Tally9n_filtersEv(ptr noundef nonnull align 8 dereferenceable(240) %this) #4 comdat align 2 {
entry:
  %this.addr = alloca ptr, align 8
  store ptr %this, ptr %this.addr, align 8, !tbaa !29
  %this1 = load ptr, ptr %this.addr, align 8
  %filters_ = getelementptr inbounds nuw %"class.openmc::Tally", ptr %this1, i32 0, i32 16
  %call = call noundef i64 @_ZNK6openmc6vectorIiE4sizeEv(ptr noundef nonnull align 8 dereferenceable(24) %filters_)
  %conv = trunc i64 %call to i32
  ret i32 %conv
}

; Function Attrs: mustprogress uwtable
define linkonce_odr noundef i32 @_ZNK6openmc5Tally7filtersEi(ptr noundef nonnull align 8 dereferenceable(240) %this, i32 noundef %i) #4 comdat align 2 {
entry:
  %this.addr = alloca ptr, align 8
  %i.addr = alloca i32, align 4
  store ptr %this, ptr %this.addr, align 8, !tbaa !29
  store i32 %i, ptr %i.addr, align 4, !tbaa !58
  %this1 = load ptr, ptr %this.addr, align 8
  %filters_ = getelementptr inbounds nuw %"class.openmc::Tally", ptr %this1, i32 0, i32 16
  %0 = load i32, ptr %i.addr, align 4, !tbaa !58
  %conv = sext i32 %0 to i64
  %call = call noundef nonnull align 4 dereferenceable(4) ptr @_ZNK6openmc6vectorIiEixEm(ptr noundef nonnull align 8 dereferenceable(24) %filters_, i64 noundef %conv)
  %1 = load i32, ptr %call, align 4, !tbaa !58
  ret i32 %1
}

declare void @_ZNK6openmc6Filter12get_all_binsERKNS_8ParticleENS_14TallyEstimatorERNS_11FilterMatchE(ptr noundef nonnull align 8 dereferenceable(448), ptr noundef nonnull align 8 dereferenceable(2728), i32 noundef, ptr noundef nonnull align 8 dereferenceable(1513)) #1

; Function Attrs: nocallback nofree nosync nounwind willreturn memory(argmem: readwrite)
declare void @llvm.lifetime.end.p0(i64 immarg, ptr captures(none)) #5

; Function Attrs: mustprogress uwtable
define void @_ZN6openmc13FilterBinIter20compute_index_weightEv(ptr noundef nonnull align 8 dereferenceable(48) %this) #4 align 2 {
entry:
  %this.addr = alloca ptr, align 8
  %i = alloca i32, align 4
  %i_filt = alloca i32, align 4
  %match = alloca ptr, align 8
  %i_bin = alloca i32, align 4
  %i18 = alloca i32, align 4
  %match27 = alloca ptr, align 8
  %i_bin28 = alloca i32, align 4
  store ptr %this, ptr %this.addr, align 8, !tbaa !24
  %this1 = load ptr, ptr %this.addr, align 8
  %is_big_ = getelementptr inbounds nuw %"class.openmc::FilterBinIter", ptr %this1, i32 0, i32 4
  %0 = load i8, ptr %is_big_, align 8, !tbaa !57, !range !63, !noundef !64
  %loadedv = trunc i8 %0 to i1
  br i1 %loadedv, label %if.then, label %if.else

if.then:                                          ; preds = %entry
  %index_ = getelementptr inbounds nuw %"class.openmc::FilterBinIter", ptr %this1, i32 0, i32 0
  store i32 0, ptr %index_, align 8, !tbaa !33
  %weight_ = getelementptr inbounds nuw %"class.openmc::FilterBinIter", ptr %this1, i32 0, i32 1
  store double 1.000000e+00, ptr %weight_, align 8, !tbaa !40
  call void @llvm.lifetime.start.p0(i64 4, ptr %i) #3
  store i32 0, ptr %i, align 4, !tbaa !58
  br label %for.cond

for.cond:                                         ; preds = %for.inc, %if.then
  %1 = load i32, ptr %i, align 4, !tbaa !58
  %conv = sext i32 %1 to i64
  %tally_ = getelementptr inbounds nuw %"class.openmc::FilterBinIter", ptr %this1, i32 0, i32 5
  %2 = load ptr, ptr %tally_, align 8, !tbaa !59
  %call = call noundef nonnull align 8 dereferenceable(24) ptr @_ZNK6openmc5Tally7filtersEv(ptr noundef nonnull align 8 dereferenceable(240) %2)
  %call2 = call noundef i64 @_ZNK6openmc6vectorIiE4sizeEv(ptr noundef nonnull align 8 dereferenceable(24) %call)
  %cmp = icmp ult i64 %conv, %call2
  br i1 %cmp, label %for.body, label %for.cond.cleanup

for.cond.cleanup:                                 ; preds = %for.cond
  call void @llvm.lifetime.end.p0(i64 4, ptr %i) #3
  br label %for.end

for.body:                                         ; preds = %for.cond
  call void @llvm.lifetime.start.p0(i64 4, ptr %i_filt) #3
  %tally_3 = getelementptr inbounds nuw %"class.openmc::FilterBinIter", ptr %this1, i32 0, i32 5
  %3 = load ptr, ptr %tally_3, align 8, !tbaa !59
  %4 = load i32, ptr %i, align 4, !tbaa !58
  %call4 = call noundef i32 @_ZNK6openmc5Tally7filtersEi(ptr noundef nonnull align 8 dereferenceable(240) %3, i32 noundef %4)
  store i32 %call4, ptr %i_filt, align 4, !tbaa !58
  call void @llvm.lifetime.start.p0(i64 8, ptr %match) #3
  %big_filter_matches_ = getelementptr inbounds nuw %"class.openmc::FilterBinIter", ptr %this1, i32 0, i32 3
  %5 = load ptr, ptr %big_filter_matches_, align 8, !tbaa !86
  %6 = load i32, ptr %i_filt, align 4, !tbaa !58
  %conv5 = sext i32 %6 to i64
  %call6 = call noundef nonnull align 8 dereferenceable(53) ptr @_ZN6openmc6vectorINS_14BigFilterMatchEEixEm(ptr noundef nonnull align 8 dereferenceable(24) %5, i64 noundef %conv5)
  store ptr %call6, ptr %match, align 8, !tbaa !87
  call void @llvm.lifetime.start.p0(i64 4, ptr %i_bin) #3
  %7 = load ptr, ptr %match, align 8, !tbaa !87
  %i_bin_ = getelementptr inbounds nuw %"class.openmc::BigFilterMatch", ptr %7, i32 0, i32 2
  %8 = load i32, ptr %i_bin_, align 8, !tbaa !89
  store i32 %8, ptr %i_bin, align 4, !tbaa !58
  %9 = load ptr, ptr %match, align 8, !tbaa !87
  %bins_ = getelementptr inbounds nuw %"class.openmc::BigFilterMatch", ptr %9, i32 0, i32 0
  %10 = load i32, ptr %i_bin, align 4, !tbaa !58
  %conv7 = sext i32 %10 to i64
  %call8 = call noundef nonnull align 4 dereferenceable(4) ptr @_ZNSt6vectorIiSaIiEEixEm(ptr noundef nonnull align 8 dereferenceable(24) %bins_, i64 noundef %conv7) #3
  %11 = load i32, ptr %call8, align 4, !tbaa !58
  %tally_9 = getelementptr inbounds nuw %"class.openmc::FilterBinIter", ptr %this1, i32 0, i32 5
  %12 = load ptr, ptr %tally_9, align 8, !tbaa !59
  %13 = load i32, ptr %i, align 4, !tbaa !58
  %call10 = call noundef i32 @_ZNK6openmc5Tally7stridesEi(ptr noundef nonnull align 8 dereferenceable(240) %12, i32 noundef %13)
  %mul = mul nsw i32 %11, %call10
  %index_11 = getelementptr inbounds nuw %"class.openmc::FilterBinIter", ptr %this1, i32 0, i32 0
  %14 = load i32, ptr %index_11, align 8, !tbaa !33
  %add = add nsw i32 %14, %mul
  store i32 %add, ptr %index_11, align 8, !tbaa !33
  %15 = load ptr, ptr %match, align 8, !tbaa !87
  %weights_ = getelementptr inbounds nuw %"class.openmc::BigFilterMatch", ptr %15, i32 0, i32 1
  %16 = load i32, ptr %i_bin, align 4, !tbaa !58
  %conv12 = sext i32 %16 to i64
  %call13 = call noundef nonnull align 8 dereferenceable(8) ptr @_ZNSt6vectorIdSaIdEEixEm(ptr noundef nonnull align 8 dereferenceable(24) %weights_, i64 noundef %conv12) #3
  %17 = load double, ptr %call13, align 8, !tbaa !99
  %weight_14 = getelementptr inbounds nuw %"class.openmc::FilterBinIter", ptr %this1, i32 0, i32 1
  %18 = load double, ptr %weight_14, align 8, !tbaa !40
  %mul15 = fmul double %18, %17
  store double %mul15, ptr %weight_14, align 8, !tbaa !40
  call void @llvm.lifetime.end.p0(i64 4, ptr %i_bin) #3
  call void @llvm.lifetime.end.p0(i64 8, ptr %match) #3
  call void @llvm.lifetime.end.p0(i64 4, ptr %i_filt) #3
  br label %for.inc

for.inc:                                          ; preds = %for.body
  %19 = load i32, ptr %i, align 4, !tbaa !58
  %inc = add nsw i32 %19, 1
  store i32 %inc, ptr %i, align 4, !tbaa !58
  br label %for.cond, !llvm.loop !100

for.end:                                          ; preds = %for.cond.cleanup
  br label %if.end

if.else:                                          ; preds = %entry
  %index_16 = getelementptr inbounds nuw %"class.openmc::FilterBinIter", ptr %this1, i32 0, i32 0
  store i32 0, ptr %index_16, align 8, !tbaa !33
  %weight_17 = getelementptr inbounds nuw %"class.openmc::FilterBinIter", ptr %this1, i32 0, i32 1
  store double 1.000000e+00, ptr %weight_17, align 8, !tbaa !40
  call void @llvm.lifetime.start.p0(i64 4, ptr %i18) #3
  store i32 0, ptr %i18, align 4, !tbaa !58
  br label %for.cond19

for.cond19:                                       ; preds = %for.inc43, %if.else
  %20 = load i32, ptr %i18, align 4, !tbaa !58
  %conv20 = sext i32 %20 to i64
  %tally_21 = getelementptr inbounds nuw %"class.openmc::FilterBinIter", ptr %this1, i32 0, i32 5
  %21 = load ptr, ptr %tally_21, align 8, !tbaa !59
  %call22 = call noundef nonnull align 8 dereferenceable(24) ptr @_ZNK6openmc5Tally7filtersEv(ptr noundef nonnull align 8 dereferenceable(240) %21)
  %call23 = call noundef i64 @_ZNK6openmc6vectorIiE4sizeEv(ptr noundef nonnull align 8 dereferenceable(24) %call22)
  %cmp24 = icmp ult i64 %conv20, %call23
  br i1 %cmp24, label %for.body26, label %for.cond.cleanup25

for.cond.cleanup25:                               ; preds = %for.cond19
  call void @llvm.lifetime.end.p0(i64 4, ptr %i18) #3
  br label %for.end45

for.body26:                                       ; preds = %for.cond19
  call void @llvm.lifetime.start.p0(i64 8, ptr %match27) #3
  %filter_matches_ = getelementptr inbounds nuw %"class.openmc::FilterBinIter", ptr %this1, i32 0, i32 2
  %22 = load ptr, ptr %filter_matches_, align 8, !tbaa !56
  %23 = load i32, ptr %i18, align 4, !tbaa !58
  %idxprom = sext i32 %23 to i64
  %arrayidx = getelementptr inbounds %"class.openmc::FilterMatch", ptr %22, i64 %idxprom
  store ptr %arrayidx, ptr %match27, align 8, !tbaa !60
  call void @llvm.lifetime.start.p0(i64 4, ptr %i_bin28) #3
  %24 = load ptr, ptr %match27, align 8, !tbaa !60
  %i_bin_29 = getelementptr inbounds nuw %"class.openmc::FilterMatch", ptr %24, i32 0, i32 4
  %25 = load i32, ptr %i_bin_29, align 4, !tbaa !83
  store i32 %25, ptr %i_bin28, align 4, !tbaa !58
  %26 = load ptr, ptr %match27, align 8, !tbaa !60
  %bins_30 = getelementptr inbounds nuw %"class.openmc::FilterMatch", ptr %26, i32 0, i32 0
  %27 = load i32, ptr %i_bin28, align 4, !tbaa !58
  %idxprom31 = sext i32 %27 to i64
  %arrayidx32 = getelementptr inbounds [125 x i32], ptr %bins_30, i64 0, i64 %idxprom31
  %28 = load i32, ptr %arrayidx32, align 4, !tbaa !58
  %tally_33 = getelementptr inbounds nuw %"class.openmc::FilterBinIter", ptr %this1, i32 0, i32 5
  %29 = load ptr, ptr %tally_33, align 8, !tbaa !59
  %30 = load i32, ptr %i18, align 4, !tbaa !58
  %call34 = call noundef i32 @_ZNK6openmc5Tally7stridesEi(ptr noundef nonnull align 8 dereferenceable(240) %29, i32 noundef %30)
  %mul35 = mul nsw i32 %28, %call34
  %index_36 = getelementptr inbounds nuw %"class.openmc::FilterBinIter", ptr %this1, i32 0, i32 0
  %31 = load i32, ptr %index_36, align 8, !tbaa !33
  %add37 = add nsw i32 %31, %mul35
  store i32 %add37, ptr %index_36, align 8, !tbaa !33
  %32 = load ptr, ptr %match27, align 8, !tbaa !60
  %weights_38 = getelementptr inbounds nuw %"class.openmc::FilterMatch", ptr %32, i32 0, i32 2
  %33 = load i32, ptr %i_bin28, align 4, !tbaa !58
  %idxprom39 = sext i32 %33 to i64
  %arrayidx40 = getelementptr inbounds [125 x double], ptr %weights_38, i64 0, i64 %idxprom39
  %34 = load double, ptr %arrayidx40, align 8, !tbaa !99
  %weight_41 = getelementptr inbounds nuw %"class.openmc::FilterBinIter", ptr %this1, i32 0, i32 1
  %35 = load double, ptr %weight_41, align 8, !tbaa !40
  %mul42 = fmul double %35, %34
  store double %mul42, ptr %weight_41, align 8, !tbaa !40
  call void @llvm.lifetime.end.p0(i64 4, ptr %i_bin28) #3
  call void @llvm.lifetime.end.p0(i64 8, ptr %match27) #3
  br label %for.inc43

for.inc43:                                        ; preds = %for.body26
  %36 = load i32, ptr %i18, align 4, !tbaa !58
  %inc44 = add nsw i32 %36, 1
  store i32 %inc44, ptr %i18, align 4, !tbaa !58
  br label %for.cond19, !llvm.loop !101

for.end45:                                        ; preds = %for.cond.cleanup25
  br label %if.end

if.end:                                           ; preds = %for.end45, %for.end
  ret void
}

; Function Attrs: mustprogress nounwind uwtable
define linkonce_odr noundef i64 @_ZNK6openmc6vectorIiE4sizeEv(ptr noundef nonnull align 8 dereferenceable(24) %this) #6 comdat align 2 {
entry:
  %this.addr = alloca ptr, align 8
  store ptr %this, ptr %this.addr, align 8, !tbaa !102
  %this1 = load ptr, ptr %this.addr, align 8
  %size_ = getelementptr inbounds nuw %"class.openmc::vector", ptr %this1, i32 0, i32 1
  %0 = load i64, ptr %size_, align 8, !tbaa !104
  ret i64 %0
}

; Function Attrs: mustprogress nounwind uwtable
define linkonce_odr noundef nonnull align 4 dereferenceable(4) ptr @_ZNK6openmc6vectorIiEixEm(ptr noundef nonnull align 8 dereferenceable(24) %this, i64 noundef %pos) #6 comdat align 2 {
entry:
  %this.addr = alloca ptr, align 8
  %pos.addr = alloca i64, align 8
  store ptr %this, ptr %this.addr, align 8, !tbaa !102
  store i64 %pos, ptr %pos.addr, align 8, !tbaa !105
  %this1 = load ptr, ptr %this.addr, align 8
  %data_ = getelementptr inbounds nuw %"class.openmc::vector", ptr %this1, i32 0, i32 0
  %0 = load ptr, ptr %data_, align 8, !tbaa !106
  %1 = load i64, ptr %pos.addr, align 8, !tbaa !105
  %arrayidx = getelementptr inbounds nuw i32, ptr %0, i64 %1
  ret ptr %arrayidx
}

; Function Attrs: mustprogress uwtable
define void @_ZN6openmc13FilterBinIterC2ERKNS_5TallyEbPNS_11FilterMatchE(ptr noundef nonnull align 8 dereferenceable(48) %this, ptr noundef nonnull align 8 dereferenceable(240) %tally, i1 noundef zeroext %end, ptr noundef %particle_filter_matches) unnamed_addr #4 align 2 {
entry:
  %this.addr = alloca ptr, align 8
  %tally.addr = alloca ptr, align 8
  %end.addr = alloca i8, align 1
  %particle_filter_matches.addr = alloca ptr, align 8
  %filt = alloca i32, align 4
  %cleanup.dest.slot = alloca i32, align 4
  %i_filt = alloca i32, align 4
  %match = alloca ptr, align 8
  %i = alloca i32, align 4
  store ptr %this, ptr %this.addr, align 8, !tbaa !24
  store ptr %tally, ptr %tally.addr, align 8, !tbaa !29
  %storedv = zext i1 %end to i8
  store i8 %storedv, ptr %end.addr, align 1, !tbaa !107
  store ptr %particle_filter_matches, ptr %particle_filter_matches.addr, align 8, !tbaa !60
  %this1 = load ptr, ptr %this.addr, align 8
  %index_ = getelementptr inbounds nuw %"class.openmc::FilterBinIter", ptr %this1, i32 0, i32 0
  store i32 1, ptr %index_, align 8, !tbaa !33
  %weight_ = getelementptr inbounds nuw %"class.openmc::FilterBinIter", ptr %this1, i32 0, i32 1
  store double 1.000000e+00, ptr %weight_, align 8, !tbaa !40
  %filter_matches_ = getelementptr inbounds nuw %"class.openmc::FilterBinIter", ptr %this1, i32 0, i32 2
  %0 = load ptr, ptr %particle_filter_matches.addr, align 8, !tbaa !60
  store ptr %0, ptr %filter_matches_, align 8, !tbaa !56
  %is_big_ = getelementptr inbounds nuw %"class.openmc::FilterBinIter", ptr %this1, i32 0, i32 4
  store i8 0, ptr %is_big_, align 8, !tbaa !57
  %tally_ = getelementptr inbounds nuw %"class.openmc::FilterBinIter", ptr %this1, i32 0, i32 5
  %1 = load ptr, ptr %tally.addr, align 8, !tbaa !29
  store ptr %1, ptr %tally_, align 8, !tbaa !29
  %2 = load i8, ptr %end.addr, align 1, !tbaa !107, !range !63, !noundef !64
  %loadedv = trunc i8 %2 to i1
  br i1 %loadedv, label %if.then, label %if.end

if.then:                                          ; preds = %entry
  %index_2 = getelementptr inbounds nuw %"class.openmc::FilterBinIter", ptr %this1, i32 0, i32 0
  store i32 -1, ptr %index_2, align 8, !tbaa !33
  br label %return

if.end:                                           ; preds = %entry
  call void @llvm.lifetime.start.p0(i64 4, ptr %filt) #3
  store i32 0, ptr %filt, align 4, !tbaa !58
  br label %for.cond

for.cond:                                         ; preds = %for.inc36, %if.end
  %3 = load i32, ptr %filt, align 4, !tbaa !58
  %tally_3 = getelementptr inbounds nuw %"class.openmc::FilterBinIter", ptr %this1, i32 0, i32 5
  %4 = load ptr, ptr %tally_3, align 8, !tbaa !59
  %call = call noundef i32 @_ZNK6openmc5Tally9n_filtersEv(ptr noundef nonnull align 8 dereferenceable(240) %4)
  %cmp = icmp slt i32 %3, %call
  br i1 %cmp, label %for.body, label %for.cond.cleanup

for.cond.cleanup:                                 ; preds = %for.cond
  store i32 2, ptr %cleanup.dest.slot, align 4
  br label %cleanup38

for.body:                                         ; preds = %for.cond
  call void @llvm.lifetime.start.p0(i64 4, ptr %i_filt) #3
  %tally_4 = getelementptr inbounds nuw %"class.openmc::FilterBinIter", ptr %this1, i32 0, i32 5
  %5 = load ptr, ptr %tally_4, align 8, !tbaa !59
  %6 = load i32, ptr %filt, align 4, !tbaa !58
  %call5 = call noundef i32 @_ZNK6openmc5Tally7filtersEi(ptr noundef nonnull align 8 dereferenceable(240) %5, i32 noundef %6)
  store i32 %call5, ptr %i_filt, align 4, !tbaa !58
  call void @llvm.lifetime.start.p0(i64 8, ptr %match) #3
  %filter_matches_6 = getelementptr inbounds nuw %"class.openmc::FilterBinIter", ptr %this1, i32 0, i32 2
  %7 = load ptr, ptr %filter_matches_6, align 8, !tbaa !56
  %8 = load i32, ptr %filt, align 4, !tbaa !58
  %idxprom = sext i32 %8 to i64
  %arrayidx = getelementptr inbounds %"class.openmc::FilterMatch", ptr %7, i64 %idxprom
  store ptr %arrayidx, ptr %match, align 8, !tbaa !60
  %9 = load ptr, ptr %match, align 8, !tbaa !60
  %bins_present_ = getelementptr inbounds nuw %"class.openmc::FilterMatch", ptr %9, i32 0, i32 5
  %10 = load i8, ptr %bins_present_, align 8, !tbaa !61, !range !63, !noundef !64
  %loadedv7 = trunc i8 %10 to i1
  br i1 %loadedv7, label %if.end29, label %if.then8

if.then8:                                         ; preds = %for.body
  %11 = load ptr, ptr %match, align 8, !tbaa !60
  %bins_weights_length_ = getelementptr inbounds nuw %"class.openmc::FilterMatch", ptr %11, i32 0, i32 3
  store i32 0, ptr %bins_weights_length_, align 8, !tbaa !65
  call void @llvm.lifetime.start.p0(i64 4, ptr %i) #3
  store i32 0, ptr %i, align 4, !tbaa !58
  br label %for.cond9

for.cond9:                                        ; preds = %for.inc, %if.then8
  %12 = load i32, ptr %i, align 4, !tbaa !58
  %13 = load ptr, ptr @_ZN6openmc5model13tally_filtersE, align 8, !tbaa !66
  %14 = load i32, ptr %i_filt, align 4, !tbaa !58
  %idxprom10 = sext i32 %14 to i64
  %arrayidx11 = getelementptr inbounds %"class.openmc::Filter", ptr %13, i64 %idxprom10
  %call12 = call noundef i32 @_ZNK6openmc6Filter6n_binsEv(ptr noundef nonnull align 8 dereferenceable(448) %arrayidx11)
  %cmp13 = icmp slt i32 %12, %call12
  br i1 %cmp13, label %for.body15, label %for.cond.cleanup14

for.cond.cleanup14:                               ; preds = %for.cond9
  store i32 5, ptr %cleanup.dest.slot, align 4
  call void @llvm.lifetime.end.p0(i64 4, ptr %i) #3
  br label %for.end

for.body15:                                       ; preds = %for.cond9
  %15 = load ptr, ptr %match, align 8, !tbaa !60
  %bins_weights_length_16 = getelementptr inbounds nuw %"class.openmc::FilterMatch", ptr %15, i32 0, i32 3
  %16 = load i32, ptr %bins_weights_length_16, align 8, !tbaa !65
  %cmp17 = icmp sge i32 %16, 125
  br i1 %cmp17, label %if.then18, label %if.end19

if.then18:                                        ; preds = %for.body15
  br label %if.end19

if.end19:                                         ; preds = %if.then18, %for.body15
  %17 = load i32, ptr %i, align 4, !tbaa !58
  %18 = load ptr, ptr %match, align 8, !tbaa !60
  %bins_ = getelementptr inbounds nuw %"class.openmc::FilterMatch", ptr %18, i32 0, i32 0
  %19 = load ptr, ptr %match, align 8, !tbaa !60
  %bins_weights_length_20 = getelementptr inbounds nuw %"class.openmc::FilterMatch", ptr %19, i32 0, i32 3
  %20 = load i32, ptr %bins_weights_length_20, align 8, !tbaa !65
  %idxprom21 = sext i32 %20 to i64
  %arrayidx22 = getelementptr inbounds [125 x i32], ptr %bins_, i64 0, i64 %idxprom21
  store i32 %17, ptr %arrayidx22, align 4, !tbaa !58
  %21 = load ptr, ptr %match, align 8, !tbaa !60
  %weights_ = getelementptr inbounds nuw %"class.openmc::FilterMatch", ptr %21, i32 0, i32 2
  %22 = load ptr, ptr %match, align 8, !tbaa !60
  %bins_weights_length_23 = getelementptr inbounds nuw %"class.openmc::FilterMatch", ptr %22, i32 0, i32 3
  %23 = load i32, ptr %bins_weights_length_23, align 8, !tbaa !65
  %idxprom24 = sext i32 %23 to i64
  %arrayidx25 = getelementptr inbounds [125 x double], ptr %weights_, i64 0, i64 %idxprom24
  store double 1.000000e+00, ptr %arrayidx25, align 8, !tbaa !99
  %24 = load ptr, ptr %match, align 8, !tbaa !60
  %bins_weights_length_26 = getelementptr inbounds nuw %"class.openmc::FilterMatch", ptr %24, i32 0, i32 3
  %25 = load i32, ptr %bins_weights_length_26, align 8, !tbaa !65
  %inc = add nsw i32 %25, 1
  store i32 %inc, ptr %bins_weights_length_26, align 8, !tbaa !65
  br label %for.inc

for.inc:                                          ; preds = %if.end19
  %26 = load i32, ptr %i, align 4, !tbaa !58
  %inc27 = add nsw i32 %26, 1
  store i32 %inc27, ptr %i, align 4, !tbaa !58
  br label %for.cond9, !llvm.loop !108

for.end:                                          ; preds = %for.cond.cleanup14
  %27 = load ptr, ptr %match, align 8, !tbaa !60
  %bins_present_28 = getelementptr inbounds nuw %"class.openmc::FilterMatch", ptr %27, i32 0, i32 5
  store i8 1, ptr %bins_present_28, align 8, !tbaa !61
  br label %if.end29

if.end29:                                         ; preds = %for.end, %for.body
  %28 = load ptr, ptr %match, align 8, !tbaa !60
  %bins_weights_length_30 = getelementptr inbounds nuw %"class.openmc::FilterMatch", ptr %28, i32 0, i32 3
  %29 = load i32, ptr %bins_weights_length_30, align 8, !tbaa !65
  %cmp31 = icmp eq i32 %29, 0
  br i1 %cmp31, label %if.then32, label %if.end34

if.then32:                                        ; preds = %if.end29
  %index_33 = getelementptr inbounds nuw %"class.openmc::FilterBinIter", ptr %this1, i32 0, i32 0
  store i32 -1, ptr %index_33, align 8, !tbaa !33
  store i32 1, ptr %cleanup.dest.slot, align 4
  br label %cleanup

if.end34:                                         ; preds = %if.end29
  %30 = load ptr, ptr %match, align 8, !tbaa !60
  %i_bin_ = getelementptr inbounds nuw %"class.openmc::FilterMatch", ptr %30, i32 0, i32 4
  store i32 0, ptr %i_bin_, align 4, !tbaa !83
  store i32 0, ptr %cleanup.dest.slot, align 4
  br label %cleanup

cleanup:                                          ; preds = %if.end34, %if.then32
  call void @llvm.lifetime.end.p0(i64 8, ptr %match) #3
  call void @llvm.lifetime.end.p0(i64 4, ptr %i_filt) #3
  %cleanup.dest = load i32, ptr %cleanup.dest.slot, align 4
  switch i32 %cleanup.dest, label %cleanup38 [
    i32 0, label %cleanup.cont
  ]

cleanup.cont:                                     ; preds = %cleanup
  br label %for.inc36

for.inc36:                                        ; preds = %cleanup.cont
  %31 = load i32, ptr %filt, align 4, !tbaa !58
  %inc37 = add nsw i32 %31, 1
  store i32 %inc37, ptr %filt, align 4, !tbaa !58
  br label %for.cond, !llvm.loop !109

cleanup38:                                        ; preds = %cleanup, %for.cond.cleanup
  call void @llvm.lifetime.end.p0(i64 4, ptr %filt) #3
  %cleanup.dest39 = load i32, ptr %cleanup.dest.slot, align 4
  switch i32 %cleanup.dest39, label %unreachable [
    i32 2, label %for.end40
    i32 1, label %return
  ]

for.end40:                                        ; preds = %cleanup38
  call void @_ZN6openmc13FilterBinIter20compute_index_weightEv(ptr noundef nonnull align 8 dereferenceable(48) %this1)
  br label %return

return:                                           ; preds = %for.end40, %cleanup38, %if.then
  ret void

unreachable:                                      ; preds = %cleanup38
  unreachable
}

; Function Attrs: mustprogress nounwind uwtable
define linkonce_odr noundef i32 @_ZNK6openmc6Filter6n_binsEv(ptr noundef nonnull align 8 dereferenceable(448) %this) #6 comdat align 2 {
entry:
  %this.addr = alloca ptr, align 8
  store ptr %this, ptr %this.addr, align 8, !tbaa !66
  %this1 = load ptr, ptr %this.addr, align 8
  %n_bins_ = getelementptr inbounds nuw %"class.openmc::Filter", ptr %this1, i32 0, i32 1
  %0 = load i32, ptr %n_bins_, align 4, !tbaa !110
  ret i32 %0
}

; Function Attrs: mustprogress uwtable
define void @_ZN6openmc13FilterBinIterC2ERKNS_5TallyEbPNS_6vectorINS_14BigFilterMatchEEE(ptr noundef nonnull align 8 dereferenceable(48) %this, ptr noundef nonnull align 8 dereferenceable(240) %tally, i1 noundef zeroext %end, ptr noundef %particle_filter_matches) unnamed_addr #4 align 2 {
entry:
  %this.addr = alloca ptr, align 8
  %tally.addr = alloca ptr, align 8
  %end.addr = alloca i8, align 1
  %particle_filter_matches.addr = alloca ptr, align 8
  %__range1 = alloca ptr, align 8
  %__begin1 = alloca ptr, align 8
  %__end1 = alloca ptr, align 8
  %cleanup.dest.slot = alloca i32, align 4
  %i_filt = alloca i32, align 4
  %match = alloca ptr, align 8
  %i = alloca i32, align 4
  %ref.tmp = alloca double, align 8
  store ptr %this, ptr %this.addr, align 8, !tbaa !24
  store ptr %tally, ptr %tally.addr, align 8, !tbaa !29
  %storedv = zext i1 %end to i8
  store i8 %storedv, ptr %end.addr, align 1, !tbaa !107
  store ptr %particle_filter_matches, ptr %particle_filter_matches.addr, align 8, !tbaa !129
  %this1 = load ptr, ptr %this.addr, align 8
  %index_ = getelementptr inbounds nuw %"class.openmc::FilterBinIter", ptr %this1, i32 0, i32 0
  store i32 1, ptr %index_, align 8, !tbaa !33
  %weight_ = getelementptr inbounds nuw %"class.openmc::FilterBinIter", ptr %this1, i32 0, i32 1
  store double 1.000000e+00, ptr %weight_, align 8, !tbaa !40
  %big_filter_matches_ = getelementptr inbounds nuw %"class.openmc::FilterBinIter", ptr %this1, i32 0, i32 3
  %0 = load ptr, ptr %particle_filter_matches.addr, align 8, !tbaa !129
  store ptr %0, ptr %big_filter_matches_, align 8, !tbaa !86
  %is_big_ = getelementptr inbounds nuw %"class.openmc::FilterBinIter", ptr %this1, i32 0, i32 4
  store i8 0, ptr %is_big_, align 8, !tbaa !57
  %tally_ = getelementptr inbounds nuw %"class.openmc::FilterBinIter", ptr %this1, i32 0, i32 5
  %1 = load ptr, ptr %tally.addr, align 8, !tbaa !29
  store ptr %1, ptr %tally_, align 8, !tbaa !29
  %is_big_2 = getelementptr inbounds nuw %"class.openmc::FilterBinIter", ptr %this1, i32 0, i32 4
  store i8 1, ptr %is_big_2, align 8, !tbaa !57
  %2 = load i8, ptr %end.addr, align 1, !tbaa !107, !range !63, !noundef !64
  %loadedv = trunc i8 %2 to i1
  br i1 %loadedv, label %if.then, label %if.end

if.then:                                          ; preds = %entry
  %index_3 = getelementptr inbounds nuw %"class.openmc::FilterBinIter", ptr %this1, i32 0, i32 0
  store i32 -1, ptr %index_3, align 8, !tbaa !33
  br label %return

if.end:                                           ; preds = %entry
  call void @llvm.lifetime.start.p0(i64 8, ptr %__range1) #3
  %tally_4 = getelementptr inbounds nuw %"class.openmc::FilterBinIter", ptr %this1, i32 0, i32 5
  %3 = load ptr, ptr %tally_4, align 8, !tbaa !59
  %call = call noundef nonnull align 8 dereferenceable(24) ptr @_ZNK6openmc5Tally7filtersEv(ptr noundef nonnull align 8 dereferenceable(240) %3)
  store ptr %call, ptr %__range1, align 8, !tbaa !102
  call void @llvm.lifetime.start.p0(i64 8, ptr %__begin1) #3
  %4 = load ptr, ptr %__range1, align 8, !tbaa !102
  %call5 = call noundef ptr @_ZNK6openmc6vectorIiE5beginEv(ptr noundef nonnull align 8 dereferenceable(24) %4)
  store ptr %call5, ptr %__begin1, align 8, !tbaa !130
  call void @llvm.lifetime.start.p0(i64 8, ptr %__end1) #3
  %5 = load ptr, ptr %__range1, align 8, !tbaa !102
  %call6 = call noundef ptr @_ZNK6openmc6vectorIiE3endEv(ptr noundef nonnull align 8 dereferenceable(24) %5)
  store ptr %call6, ptr %__end1, align 8, !tbaa !130
  br label %for.cond

for.cond:                                         ; preds = %for.inc29, %if.end
  %6 = load ptr, ptr %__begin1, align 8, !tbaa !130
  %7 = load ptr, ptr %__end1, align 8, !tbaa !130
  %cmp = icmp ne ptr %6, %7
  br i1 %cmp, label %for.body, label %for.cond.cleanup

for.cond.cleanup:                                 ; preds = %for.cond
  store i32 2, ptr %cleanup.dest.slot, align 4
  br label %cleanup30

for.body:                                         ; preds = %for.cond
  call void @llvm.lifetime.start.p0(i64 4, ptr %i_filt) #3
  %8 = load ptr, ptr %__begin1, align 8, !tbaa !130
  %9 = load i32, ptr %8, align 4, !tbaa !58
  store i32 %9, ptr %i_filt, align 4, !tbaa !58
  call void @llvm.lifetime.start.p0(i64 8, ptr %match) #3
  %big_filter_matches_7 = getelementptr inbounds nuw %"class.openmc::FilterBinIter", ptr %this1, i32 0, i32 3
  %10 = load ptr, ptr %big_filter_matches_7, align 8, !tbaa !86
  %11 = load i32, ptr %i_filt, align 4, !tbaa !58
  %conv = sext i32 %11 to i64
  %call8 = call noundef nonnull align 8 dereferenceable(53) ptr @_ZN6openmc6vectorINS_14BigFilterMatchEEixEm(ptr noundef nonnull align 8 dereferenceable(24) %10, i64 noundef %conv)
  store ptr %call8, ptr %match, align 8, !tbaa !87
  %12 = load ptr, ptr %match, align 8, !tbaa !87
  %bins_present_ = getelementptr inbounds nuw %"class.openmc::BigFilterMatch", ptr %12, i32 0, i32 3
  %13 = load i8, ptr %bins_present_, align 4, !tbaa !131, !range !63, !noundef !64
  %loadedv9 = trunc i8 %13 to i1
  br i1 %loadedv9, label %if.end19, label %if.then10

if.then10:                                        ; preds = %for.body
  %14 = load ptr, ptr %match, align 8, !tbaa !87
  %bins_ = getelementptr inbounds nuw %"class.openmc::BigFilterMatch", ptr %14, i32 0, i32 0
  call void @_ZNSt6vectorIiSaIiEE5clearEv(ptr noundef nonnull align 8 dereferenceable(24) %bins_) #3
  %15 = load ptr, ptr %match, align 8, !tbaa !87
  %weights_ = getelementptr inbounds nuw %"class.openmc::BigFilterMatch", ptr %15, i32 0, i32 1
  call void @_ZNSt6vectorIdSaIdEE5clearEv(ptr noundef nonnull align 8 dereferenceable(24) %weights_) #3
  call void @llvm.lifetime.start.p0(i64 4, ptr %i) #3
  store i32 0, ptr %i, align 4, !tbaa !58
  br label %for.cond11

for.cond11:                                       ; preds = %for.inc, %if.then10
  %16 = load i32, ptr %i, align 4, !tbaa !58
  %17 = load ptr, ptr @_ZN6openmc5model13tally_filtersE, align 8, !tbaa !66
  %18 = load i32, ptr %i_filt, align 4, !tbaa !58
  %idxprom = sext i32 %18 to i64
  %arrayidx = getelementptr inbounds %"class.openmc::Filter", ptr %17, i64 %idxprom
  %call12 = call noundef i32 @_ZNK6openmc6Filter6n_binsEv(ptr noundef nonnull align 8 dereferenceable(448) %arrayidx)
  %cmp13 = icmp slt i32 %16, %call12
  br i1 %cmp13, label %for.body15, label %for.cond.cleanup14

for.cond.cleanup14:                               ; preds = %for.cond11
  store i32 4, ptr %cleanup.dest.slot, align 4
  call void @llvm.lifetime.end.p0(i64 4, ptr %i) #3
  br label %for.end

for.body15:                                       ; preds = %for.cond11
  %19 = load ptr, ptr %match, align 8, !tbaa !87
  %bins_16 = getelementptr inbounds nuw %"class.openmc::BigFilterMatch", ptr %19, i32 0, i32 0
  call void @_ZNSt6vectorIiSaIiEE9push_backERKi(ptr noundef nonnull align 8 dereferenceable(24) %bins_16, ptr noundef nonnull align 4 dereferenceable(4) %i)
  %20 = load ptr, ptr %match, align 8, !tbaa !87
  %weights_17 = getelementptr inbounds nuw %"class.openmc::BigFilterMatch", ptr %20, i32 0, i32 1
  call void @llvm.lifetime.start.p0(i64 8, ptr %ref.tmp) #3
  store double 1.000000e+00, ptr %ref.tmp, align 8, !tbaa !99
  call void @_ZNSt6vectorIdSaIdEE9push_backEOd(ptr noundef nonnull align 8 dereferenceable(24) %weights_17, ptr noundef nonnull align 8 dereferenceable(8) %ref.tmp)
  call void @llvm.lifetime.end.p0(i64 8, ptr %ref.tmp) #3
  br label %for.inc

for.inc:                                          ; preds = %for.body15
  %21 = load i32, ptr %i, align 4, !tbaa !58
  %inc = add nsw i32 %21, 1
  store i32 %inc, ptr %i, align 4, !tbaa !58
  br label %for.cond11, !llvm.loop !132

for.end:                                          ; preds = %for.cond.cleanup14
  %22 = load ptr, ptr %match, align 8, !tbaa !87
  %bins_present_18 = getelementptr inbounds nuw %"class.openmc::BigFilterMatch", ptr %22, i32 0, i32 3
  store i8 1, ptr %bins_present_18, align 4, !tbaa !131
  br label %if.end19

if.end19:                                         ; preds = %for.end, %for.body
  %23 = load ptr, ptr %match, align 8, !tbaa !87
  %bins_20 = getelementptr inbounds nuw %"class.openmc::BigFilterMatch", ptr %23, i32 0, i32 0
  %call21 = call noundef i64 @_ZNKSt6vectorIiSaIiEE4sizeEv(ptr noundef nonnull align 8 dereferenceable(24) %bins_20) #3
  %cmp22 = icmp eq i64 %call21, 0
  br i1 %cmp22, label %if.then23, label %if.end25

if.then23:                                        ; preds = %if.end19
  %index_24 = getelementptr inbounds nuw %"class.openmc::FilterBinIter", ptr %this1, i32 0, i32 0
  store i32 -1, ptr %index_24, align 8, !tbaa !33
  store i32 1, ptr %cleanup.dest.slot, align 4
  br label %cleanup

if.end25:                                         ; preds = %if.end19
  %24 = load ptr, ptr %match, align 8, !tbaa !87
  %i_bin_ = getelementptr inbounds nuw %"class.openmc::BigFilterMatch", ptr %24, i32 0, i32 2
  store i32 0, ptr %i_bin_, align 8, !tbaa !89
  store i32 0, ptr %cleanup.dest.slot, align 4
  br label %cleanup

cleanup:                                          ; preds = %if.end25, %if.then23
  call void @llvm.lifetime.end.p0(i64 8, ptr %match) #3
  %cleanup.dest = load i32, ptr %cleanup.dest.slot, align 4
  switch i32 %cleanup.dest, label %cleanup26 [
    i32 0, label %cleanup.cont
  ]

cleanup.cont:                                     ; preds = %cleanup
  store i32 0, ptr %cleanup.dest.slot, align 4
  br label %cleanup26

cleanup26:                                        ; preds = %cleanup.cont, %cleanup
  call void @llvm.lifetime.end.p0(i64 4, ptr %i_filt) #3
  %cleanup.dest27 = load i32, ptr %cleanup.dest.slot, align 4
  switch i32 %cleanup.dest27, label %cleanup30 [
    i32 0, label %cleanup.cont28
  ]

cleanup.cont28:                                   ; preds = %cleanup26
  br label %for.inc29

for.inc29:                                        ; preds = %cleanup.cont28
  %25 = load ptr, ptr %__begin1, align 8, !tbaa !130
  %incdec.ptr = getelementptr inbounds nuw i32, ptr %25, i32 1
  store ptr %incdec.ptr, ptr %__begin1, align 8, !tbaa !130
  br label %for.cond

cleanup30:                                        ; preds = %cleanup26, %for.cond.cleanup
  call void @llvm.lifetime.end.p0(i64 8, ptr %__end1) #3
  call void @llvm.lifetime.end.p0(i64 8, ptr %__begin1) #3
  call void @llvm.lifetime.end.p0(i64 8, ptr %__range1) #3
  %cleanup.dest33 = load i32, ptr %cleanup.dest.slot, align 4
  switch i32 %cleanup.dest33, label %unreachable [
    i32 2, label %for.end34
    i32 1, label %return
  ]

for.end34:                                        ; preds = %cleanup30
  call void @_ZN6openmc13FilterBinIter20compute_index_weightEv(ptr noundef nonnull align 8 dereferenceable(48) %this1)
  br label %return

return:                                           ; preds = %for.end34, %cleanup30, %if.then
  ret void

unreachable:                                      ; preds = %cleanup30
  unreachable
}

; Function Attrs: mustprogress nounwind uwtable
define linkonce_odr noundef nonnull align 8 dereferenceable(24) ptr @_ZNK6openmc5Tally7filtersEv(ptr noundef nonnull align 8 dereferenceable(240) %this) #6 comdat align 2 {
entry:
  %this.addr = alloca ptr, align 8
  store ptr %this, ptr %this.addr, align 8, !tbaa !29
  %this1 = load ptr, ptr %this.addr, align 8
  %filters_ = getelementptr inbounds nuw %"class.openmc::Tally", ptr %this1, i32 0, i32 16
  ret ptr %filters_
}

; Function Attrs: mustprogress nounwind uwtable
define linkonce_odr noundef ptr @_ZNK6openmc6vectorIiE5beginEv(ptr noundef nonnull align 8 dereferenceable(24) %this) #6 comdat align 2 {
entry:
  %this.addr = alloca ptr, align 8
  store ptr %this, ptr %this.addr, align 8, !tbaa !102
  %this1 = load ptr, ptr %this.addr, align 8
  %data_ = getelementptr inbounds nuw %"class.openmc::vector", ptr %this1, i32 0, i32 0
  %0 = load ptr, ptr %data_, align 8, !tbaa !106
  ret ptr %0
}

; Function Attrs: mustprogress nounwind uwtable
define linkonce_odr noundef ptr @_ZNK6openmc6vectorIiE3endEv(ptr noundef nonnull align 8 dereferenceable(24) %this) #6 comdat align 2 {
entry:
  %this.addr = alloca ptr, align 8
  store ptr %this, ptr %this.addr, align 8, !tbaa !102
  %this1 = load ptr, ptr %this.addr, align 8
  %data_ = getelementptr inbounds nuw %"class.openmc::vector", ptr %this1, i32 0, i32 0
  %0 = load ptr, ptr %data_, align 8, !tbaa !106
  %size_ = getelementptr inbounds nuw %"class.openmc::vector", ptr %this1, i32 0, i32 1
  %1 = load i64, ptr %size_, align 8, !tbaa !104
  %add.ptr = getelementptr inbounds nuw i32, ptr %0, i64 %1
  ret ptr %add.ptr
}

; Function Attrs: mustprogress nounwind uwtable
define linkonce_odr noundef nonnull align 8 dereferenceable(53) ptr @_ZN6openmc6vectorINS_14BigFilterMatchEEixEm(ptr noundef nonnull align 8 dereferenceable(24) %this, i64 noundef %pos) #6 comdat align 2 {
entry:
  %this.addr = alloca ptr, align 8
  %pos.addr = alloca i64, align 8
  store ptr %this, ptr %this.addr, align 8, !tbaa !129
  store i64 %pos, ptr %pos.addr, align 8, !tbaa !105
  %this1 = load ptr, ptr %this.addr, align 8
  %data_ = getelementptr inbounds nuw %"class.openmc::vector.17", ptr %this1, i32 0, i32 0
  %0 = load ptr, ptr %data_, align 8, !tbaa !133
  %1 = load i64, ptr %pos.addr, align 8, !tbaa !105
  %arrayidx = getelementptr inbounds nuw %"class.openmc::BigFilterMatch", ptr %0, i64 %1
  ret ptr %arrayidx
}

; Function Attrs: mustprogress nounwind uwtable
define linkonce_odr void @_ZNSt6vectorIiSaIiEE5clearEv(ptr noundef nonnull align 8 dereferenceable(24) %this) #6 comdat align 2 {
entry:
  %this.addr = alloca ptr, align 8
  store ptr %this, ptr %this.addr, align 8, !tbaa !135
  %this1 = load ptr, ptr %this.addr, align 8
  %_M_impl = getelementptr inbounds nuw %"struct.std::_Vector_base.19", ptr %this1, i32 0, i32 0
  %_M_start = getelementptr inbounds nuw %"struct.std::_Vector_base<int, std::allocator<int>>::_Vector_impl_data", ptr %_M_impl, i32 0, i32 0
  %0 = load ptr, ptr %_M_start, align 8, !tbaa !137
  call void @_ZNSt6vectorIiSaIiEE15_M_erase_at_endEPi(ptr noundef nonnull align 8 dereferenceable(24) %this1, ptr noundef %0) #3
  ret void
}

; Function Attrs: mustprogress nounwind uwtable
define linkonce_odr void @_ZNSt6vectorIdSaIdEE5clearEv(ptr noundef nonnull align 8 dereferenceable(24) %this) #6 comdat align 2 {
entry:
  %this.addr = alloca ptr, align 8
  store ptr %this, ptr %this.addr, align 8, !tbaa !138
  %this1 = load ptr, ptr %this.addr, align 8
  %_M_impl = getelementptr inbounds nuw %"struct.std::_Vector_base.24", ptr %this1, i32 0, i32 0
  %_M_start = getelementptr inbounds nuw %"struct.std::_Vector_base<double, std::allocator<double>>::_Vector_impl_data", ptr %_M_impl, i32 0, i32 0
  %0 = load ptr, ptr %_M_start, align 8, !tbaa !140
  call void @_ZNSt6vectorIdSaIdEE15_M_erase_at_endEPd(ptr noundef nonnull align 8 dereferenceable(24) %this1, ptr noundef %0) #3
  ret void
}

; Function Attrs: mustprogress uwtable
define linkonce_odr void @_ZNSt6vectorIiSaIiEE9push_backERKi(ptr noundef nonnull align 8 dereferenceable(24) %this, ptr noundef nonnull align 4 dereferenceable(4) %__x) #4 comdat align 2 {
entry:
  %this.addr = alloca ptr, align 8
  %__x.addr = alloca ptr, align 8
  %agg.tmp = alloca %"class.__gnu_cxx::__normal_iterator", align 8
  store ptr %this, ptr %this.addr, align 8, !tbaa !135
  store ptr %__x, ptr %__x.addr, align 8, !tbaa !130
  %this1 = load ptr, ptr %this.addr, align 8
  %_M_impl = getelementptr inbounds nuw %"struct.std::_Vector_base.19", ptr %this1, i32 0, i32 0
  %_M_finish = getelementptr inbounds nuw %"struct.std::_Vector_base<int, std::allocator<int>>::_Vector_impl_data", ptr %_M_impl, i32 0, i32 1
  %0 = load ptr, ptr %_M_finish, align 8, !tbaa !141
  %_M_impl2 = getelementptr inbounds nuw %"struct.std::_Vector_base.19", ptr %this1, i32 0, i32 0
  %_M_end_of_storage = getelementptr inbounds nuw %"struct.std::_Vector_base<int, std::allocator<int>>::_Vector_impl_data", ptr %_M_impl2, i32 0, i32 2
  %1 = load ptr, ptr %_M_end_of_storage, align 8, !tbaa !142
  %cmp = icmp ne ptr %0, %1
  br i1 %cmp, label %if.then, label %if.else

if.then:                                          ; preds = %entry
  %_M_impl3 = getelementptr inbounds nuw %"struct.std::_Vector_base.19", ptr %this1, i32 0, i32 0
  %_M_impl4 = getelementptr inbounds nuw %"struct.std::_Vector_base.19", ptr %this1, i32 0, i32 0
  %_M_finish5 = getelementptr inbounds nuw %"struct.std::_Vector_base<int, std::allocator<int>>::_Vector_impl_data", ptr %_M_impl4, i32 0, i32 1
  %2 = load ptr, ptr %_M_finish5, align 8, !tbaa !141
  %3 = load ptr, ptr %__x.addr, align 8, !tbaa !130
  call void @_ZNSt16allocator_traitsISaIiEE9constructIiJRKiEEEvRS0_PT_DpOT0_(ptr noundef nonnull align 1 dereferenceable(1) %_M_impl3, ptr noundef %2, ptr noundef nonnull align 4 dereferenceable(4) %3) #3
  %_M_impl6 = getelementptr inbounds nuw %"struct.std::_Vector_base.19", ptr %this1, i32 0, i32 0
  %_M_finish7 = getelementptr inbounds nuw %"struct.std::_Vector_base<int, std::allocator<int>>::_Vector_impl_data", ptr %_M_impl6, i32 0, i32 1
  %4 = load ptr, ptr %_M_finish7, align 8, !tbaa !141
  %incdec.ptr = getelementptr inbounds nuw i32, ptr %4, i32 1
  store ptr %incdec.ptr, ptr %_M_finish7, align 8, !tbaa !141
  br label %if.end

if.else:                                          ; preds = %entry
  %call = call ptr @_ZNSt6vectorIiSaIiEE3endEv(ptr noundef nonnull align 8 dereferenceable(24) %this1) #3
  %coerce.dive = getelementptr inbounds nuw %"class.__gnu_cxx::__normal_iterator", ptr %agg.tmp, i32 0, i32 0
  store ptr %call, ptr %coerce.dive, align 8
  %5 = load ptr, ptr %__x.addr, align 8, !tbaa !130
  %coerce.dive8 = getelementptr inbounds nuw %"class.__gnu_cxx::__normal_iterator", ptr %agg.tmp, i32 0, i32 0
  %6 = load ptr, ptr %coerce.dive8, align 8
  call void @_ZNSt6vectorIiSaIiEE17_M_realloc_insertIJRKiEEEvN9__gnu_cxx17__normal_iteratorIPiS1_EEDpOT_(ptr noundef nonnull align 8 dereferenceable(24) %this1, ptr %6, ptr noundef nonnull align 4 dereferenceable(4) %5)
  br label %if.end

if.end:                                           ; preds = %if.else, %if.then
  ret void
}

; Function Attrs: mustprogress uwtable
define linkonce_odr void @_ZNSt6vectorIdSaIdEE9push_backEOd(ptr noundef nonnull align 8 dereferenceable(24) %this, ptr noundef nonnull align 8 dereferenceable(8) %__x) #4 comdat align 2 {
entry:
  %this.addr = alloca ptr, align 8
  %__x.addr = alloca ptr, align 8
  store ptr %this, ptr %this.addr, align 8, !tbaa !138
  store ptr %__x, ptr %__x.addr, align 8, !tbaa !143
  %this1 = load ptr, ptr %this.addr, align 8
  %0 = load ptr, ptr %__x.addr, align 8, !tbaa !143
  %call = call noundef nonnull align 8 dereferenceable(8) ptr @_ZNSt6vectorIdSaIdEE12emplace_backIJdEEERdDpOT_(ptr noundef nonnull align 8 dereferenceable(24) %this1, ptr noundef nonnull align 8 dereferenceable(8) %0)
  ret void
}

; Function Attrs: mustprogress nounwind uwtable
define linkonce_odr noundef i64 @_ZNKSt6vectorIiSaIiEE4sizeEv(ptr noundef nonnull align 8 dereferenceable(24) %this) #6 comdat align 2 {
entry:
  %this.addr = alloca ptr, align 8
  store ptr %this, ptr %this.addr, align 8, !tbaa !135
  %this1 = load ptr, ptr %this.addr, align 8
  %_M_impl = getelementptr inbounds nuw %"struct.std::_Vector_base.19", ptr %this1, i32 0, i32 0
  %_M_finish = getelementptr inbounds nuw %"struct.std::_Vector_base<int, std::allocator<int>>::_Vector_impl_data", ptr %_M_impl, i32 0, i32 1
  %0 = load ptr, ptr %_M_finish, align 8, !tbaa !141
  %_M_impl2 = getelementptr inbounds nuw %"struct.std::_Vector_base.19", ptr %this1, i32 0, i32 0
  %_M_start = getelementptr inbounds nuw %"struct.std::_Vector_base<int, std::allocator<int>>::_Vector_impl_data", ptr %_M_impl2, i32 0, i32 0
  %1 = load ptr, ptr %_M_start, align 8, !tbaa !137
  %sub.ptr.lhs.cast = ptrtoint ptr %0 to i64
  %sub.ptr.rhs.cast = ptrtoint ptr %1 to i64
  %sub.ptr.sub = sub i64 %sub.ptr.lhs.cast, %sub.ptr.rhs.cast
  %sub.ptr.div = sdiv exact i64 %sub.ptr.sub, 4
  ret i64 %sub.ptr.div
}

; Function Attrs: mustprogress nounwind uwtable
define linkonce_odr void @_ZNSt6vectorIiSaIiEE15_M_erase_at_endEPi(ptr noundef nonnull align 8 dereferenceable(24) %this, ptr noundef %__pos) #6 comdat align 2 personality ptr @__gxx_personality_v0 {
entry:
  %this.addr = alloca ptr, align 8
  %__pos.addr = alloca ptr, align 8
  %__n = alloca i64, align 8
  store ptr %this, ptr %this.addr, align 8, !tbaa !135
  store ptr %__pos, ptr %__pos.addr, align 8, !tbaa !130
  %this1 = load ptr, ptr %this.addr, align 8
  call void @llvm.lifetime.start.p0(i64 8, ptr %__n) #3
  %_M_impl = getelementptr inbounds nuw %"struct.std::_Vector_base.19", ptr %this1, i32 0, i32 0
  %_M_finish = getelementptr inbounds nuw %"struct.std::_Vector_base<int, std::allocator<int>>::_Vector_impl_data", ptr %_M_impl, i32 0, i32 1
  %0 = load ptr, ptr %_M_finish, align 8, !tbaa !141
  %1 = load ptr, ptr %__pos.addr, align 8, !tbaa !130
  %sub.ptr.lhs.cast = ptrtoint ptr %0 to i64
  %sub.ptr.rhs.cast = ptrtoint ptr %1 to i64
  %sub.ptr.sub = sub i64 %sub.ptr.lhs.cast, %sub.ptr.rhs.cast
  %sub.ptr.div = sdiv exact i64 %sub.ptr.sub, 4
  store i64 %sub.ptr.div, ptr %__n, align 8, !tbaa !105
  %2 = load i64, ptr %__n, align 8, !tbaa !105
  %tobool = icmp ne i64 %2, 0
  br i1 %tobool, label %if.then, label %if.end

if.then:                                          ; preds = %entry
  %3 = load ptr, ptr %__pos.addr, align 8, !tbaa !130
  %_M_impl2 = getelementptr inbounds nuw %"struct.std::_Vector_base.19", ptr %this1, i32 0, i32 0
  %_M_finish3 = getelementptr inbounds nuw %"struct.std::_Vector_base<int, std::allocator<int>>::_Vector_impl_data", ptr %_M_impl2, i32 0, i32 1
  %4 = load ptr, ptr %_M_finish3, align 8, !tbaa !141
  %call = call noundef nonnull align 1 dereferenceable(1) ptr @_ZNSt12_Vector_baseIiSaIiEE19_M_get_Tp_allocatorEv(ptr noundef nonnull align 8 dereferenceable(24) %this1) #3
  invoke void @_ZSt8_DestroyIPiiEvT_S1_RSaIT0_E(ptr noundef %3, ptr noundef %4, ptr noundef nonnull align 1 dereferenceable(1) %call)
          to label %invoke.cont unwind label %terminate.lpad

invoke.cont:                                      ; preds = %if.then
  %5 = load ptr, ptr %__pos.addr, align 8, !tbaa !130
  %_M_impl4 = getelementptr inbounds nuw %"struct.std::_Vector_base.19", ptr %this1, i32 0, i32 0
  %_M_finish5 = getelementptr inbounds nuw %"struct.std::_Vector_base<int, std::allocator<int>>::_Vector_impl_data", ptr %_M_impl4, i32 0, i32 1
  store ptr %5, ptr %_M_finish5, align 8, !tbaa !141
  br label %if.end

if.end:                                           ; preds = %invoke.cont, %entry
  call void @llvm.lifetime.end.p0(i64 8, ptr %__n) #3
  ret void

terminate.lpad:                                   ; preds = %if.then
  %6 = landingpad { ptr, i32 }
          catch ptr null
  %7 = extractvalue { ptr, i32 } %6, 0
  call void @__clang_call_terminate(ptr %7) #19
  unreachable
}

; Function Attrs: inlinehint mustprogress uwtable
define linkonce_odr void @_ZSt8_DestroyIPiiEvT_S1_RSaIT0_E(ptr noundef %__first, ptr noundef %__last, ptr noundef nonnull align 1 dereferenceable(1) %0) #7 comdat {
entry:
  %__first.addr = alloca ptr, align 8
  %__last.addr = alloca ptr, align 8
  %.addr = alloca ptr, align 8
  store ptr %__first, ptr %__first.addr, align 8, !tbaa !130
  store ptr %__last, ptr %__last.addr, align 8, !tbaa !130
  store ptr %0, ptr %.addr, align 8, !tbaa !144
  %1 = load ptr, ptr %__first.addr, align 8, !tbaa !130
  %2 = load ptr, ptr %__last.addr, align 8, !tbaa !130
  call void @_ZSt8_DestroyIPiEvT_S1_(ptr noundef %1, ptr noundef %2)
  ret void
}

; Function Attrs: mustprogress nounwind uwtable
define linkonce_odr noundef nonnull align 1 dereferenceable(1) ptr @_ZNSt12_Vector_baseIiSaIiEE19_M_get_Tp_allocatorEv(ptr noundef nonnull align 8 dereferenceable(24) %this) #6 comdat align 2 {
entry:
  %this.addr = alloca ptr, align 8
  store ptr %this, ptr %this.addr, align 8, !tbaa !146
  %this1 = load ptr, ptr %this.addr, align 8
  %_M_impl = getelementptr inbounds nuw %"struct.std::_Vector_base.19", ptr %this1, i32 0, i32 0
  ret ptr %_M_impl
}

declare i32 @__gxx_personality_v0(...)

; Function Attrs: noinline noreturn nounwind uwtable
define linkonce_odr hidden void @__clang_call_terminate(ptr noundef %0) #8 comdat {
  %2 = call ptr @__cxa_begin_catch(ptr %0) #3
  call void @_ZSt9terminatev() #19
  unreachable
}

declare ptr @__cxa_begin_catch(ptr)

declare void @_ZSt9terminatev()

; Function Attrs: inlinehint mustprogress uwtable
define linkonce_odr void @_ZSt8_DestroyIPiEvT_S1_(ptr noundef %__first, ptr noundef %__last) #7 comdat {
entry:
  %__first.addr = alloca ptr, align 8
  %__last.addr = alloca ptr, align 8
  store ptr %__first, ptr %__first.addr, align 8, !tbaa !130
  store ptr %__last, ptr %__last.addr, align 8, !tbaa !130
  %0 = load ptr, ptr %__first.addr, align 8, !tbaa !130
  %1 = load ptr, ptr %__last.addr, align 8, !tbaa !130
  call void @_ZNSt12_Destroy_auxILb1EE9__destroyIPiEEvT_S3_(ptr noundef %0, ptr noundef %1)
  ret void
}

; Function Attrs: mustprogress nounwind uwtable
define linkonce_odr void @_ZNSt12_Destroy_auxILb1EE9__destroyIPiEEvT_S3_(ptr noundef %0, ptr noundef %1) #6 comdat align 2 {
entry:
  %.addr = alloca ptr, align 8
  %.addr1 = alloca ptr, align 8
  store ptr %0, ptr %.addr, align 8, !tbaa !130
  store ptr %1, ptr %.addr1, align 8, !tbaa !130
  ret void
}

; Function Attrs: mustprogress nounwind uwtable
define linkonce_odr void @_ZNSt6vectorIdSaIdEE15_M_erase_at_endEPd(ptr noundef nonnull align 8 dereferenceable(24) %this, ptr noundef %__pos) #6 comdat align 2 personality ptr @__gxx_personality_v0 {
entry:
  %this.addr = alloca ptr, align 8
  %__pos.addr = alloca ptr, align 8
  %__n = alloca i64, align 8
  store ptr %this, ptr %this.addr, align 8, !tbaa !138
  store ptr %__pos, ptr %__pos.addr, align 8, !tbaa !143
  %this1 = load ptr, ptr %this.addr, align 8
  call void @llvm.lifetime.start.p0(i64 8, ptr %__n) #3
  %_M_impl = getelementptr inbounds nuw %"struct.std::_Vector_base.24", ptr %this1, i32 0, i32 0
  %_M_finish = getelementptr inbounds nuw %"struct.std::_Vector_base<double, std::allocator<double>>::_Vector_impl_data", ptr %_M_impl, i32 0, i32 1
  %0 = load ptr, ptr %_M_finish, align 8, !tbaa !148
  %1 = load ptr, ptr %__pos.addr, align 8, !tbaa !143
  %sub.ptr.lhs.cast = ptrtoint ptr %0 to i64
  %sub.ptr.rhs.cast = ptrtoint ptr %1 to i64
  %sub.ptr.sub = sub i64 %sub.ptr.lhs.cast, %sub.ptr.rhs.cast
  %sub.ptr.div = sdiv exact i64 %sub.ptr.sub, 8
  store i64 %sub.ptr.div, ptr %__n, align 8, !tbaa !105
  %2 = load i64, ptr %__n, align 8, !tbaa !105
  %tobool = icmp ne i64 %2, 0
  br i1 %tobool, label %if.then, label %if.end

if.then:                                          ; preds = %entry
  %3 = load ptr, ptr %__pos.addr, align 8, !tbaa !143
  %_M_impl2 = getelementptr inbounds nuw %"struct.std::_Vector_base.24", ptr %this1, i32 0, i32 0
  %_M_finish3 = getelementptr inbounds nuw %"struct.std::_Vector_base<double, std::allocator<double>>::_Vector_impl_data", ptr %_M_impl2, i32 0, i32 1
  %4 = load ptr, ptr %_M_finish3, align 8, !tbaa !148
  %call = call noundef nonnull align 1 dereferenceable(1) ptr @_ZNSt12_Vector_baseIdSaIdEE19_M_get_Tp_allocatorEv(ptr noundef nonnull align 8 dereferenceable(24) %this1) #3
  invoke void @_ZSt8_DestroyIPddEvT_S1_RSaIT0_E(ptr noundef %3, ptr noundef %4, ptr noundef nonnull align 1 dereferenceable(1) %call)
          to label %invoke.cont unwind label %terminate.lpad

invoke.cont:                                      ; preds = %if.then
  %5 = load ptr, ptr %__pos.addr, align 8, !tbaa !143
  %_M_impl4 = getelementptr inbounds nuw %"struct.std::_Vector_base.24", ptr %this1, i32 0, i32 0
  %_M_finish5 = getelementptr inbounds nuw %"struct.std::_Vector_base<double, std::allocator<double>>::_Vector_impl_data", ptr %_M_impl4, i32 0, i32 1
  store ptr %5, ptr %_M_finish5, align 8, !tbaa !148
  br label %if.end

if.end:                                           ; preds = %invoke.cont, %entry
  call void @llvm.lifetime.end.p0(i64 8, ptr %__n) #3
  ret void

terminate.lpad:                                   ; preds = %if.then
  %6 = landingpad { ptr, i32 }
          catch ptr null
  %7 = extractvalue { ptr, i32 } %6, 0
  call void @__clang_call_terminate(ptr %7) #19
  unreachable
}

; Function Attrs: inlinehint mustprogress uwtable
define linkonce_odr void @_ZSt8_DestroyIPddEvT_S1_RSaIT0_E(ptr noundef %__first, ptr noundef %__last, ptr noundef nonnull align 1 dereferenceable(1) %0) #7 comdat {
entry:
  %__first.addr = alloca ptr, align 8
  %__last.addr = alloca ptr, align 8
  %.addr = alloca ptr, align 8
  store ptr %__first, ptr %__first.addr, align 8, !tbaa !143
  store ptr %__last, ptr %__last.addr, align 8, !tbaa !143
  store ptr %0, ptr %.addr, align 8, !tbaa !149
  %1 = load ptr, ptr %__first.addr, align 8, !tbaa !143
  %2 = load ptr, ptr %__last.addr, align 8, !tbaa !143
  call void @_ZSt8_DestroyIPdEvT_S1_(ptr noundef %1, ptr noundef %2)
  ret void
}

; Function Attrs: mustprogress nounwind uwtable
define linkonce_odr noundef nonnull align 1 dereferenceable(1) ptr @_ZNSt12_Vector_baseIdSaIdEE19_M_get_Tp_allocatorEv(ptr noundef nonnull align 8 dereferenceable(24) %this) #6 comdat align 2 {
entry:
  %this.addr = alloca ptr, align 8
  store ptr %this, ptr %this.addr, align 8, !tbaa !151
  %this1 = load ptr, ptr %this.addr, align 8
  %_M_impl = getelementptr inbounds nuw %"struct.std::_Vector_base.24", ptr %this1, i32 0, i32 0
  ret ptr %_M_impl
}

; Function Attrs: inlinehint mustprogress uwtable
define linkonce_odr void @_ZSt8_DestroyIPdEvT_S1_(ptr noundef %__first, ptr noundef %__last) #7 comdat {
entry:
  %__first.addr = alloca ptr, align 8
  %__last.addr = alloca ptr, align 8
  store ptr %__first, ptr %__first.addr, align 8, !tbaa !143
  store ptr %__last, ptr %__last.addr, align 8, !tbaa !143
  %0 = load ptr, ptr %__first.addr, align 8, !tbaa !143
  %1 = load ptr, ptr %__last.addr, align 8, !tbaa !143
  call void @_ZNSt12_Destroy_auxILb1EE9__destroyIPdEEvT_S3_(ptr noundef %0, ptr noundef %1)
  ret void
}

; Function Attrs: mustprogress nounwind uwtable
define linkonce_odr void @_ZNSt12_Destroy_auxILb1EE9__destroyIPdEEvT_S3_(ptr noundef %0, ptr noundef %1) #6 comdat align 2 {
entry:
  %.addr = alloca ptr, align 8
  %.addr1 = alloca ptr, align 8
  store ptr %0, ptr %.addr, align 8, !tbaa !143
  store ptr %1, ptr %.addr1, align 8, !tbaa !143
  ret void
}

; Function Attrs: mustprogress nounwind uwtable
define linkonce_odr void @_ZNSt16allocator_traitsISaIiEE9constructIiJRKiEEEvRS0_PT_DpOT0_(ptr noundef nonnull align 1 dereferenceable(1) %__a, ptr noundef %__p, ptr noundef nonnull align 4 dereferenceable(4) %__args) #6 comdat align 2 {
entry:
  %__a.addr = alloca ptr, align 8
  %__p.addr = alloca ptr, align 8
  %__args.addr = alloca ptr, align 8
  store ptr %__a, ptr %__a.addr, align 8, !tbaa !144
  store ptr %__p, ptr %__p.addr, align 8, !tbaa !130
  store ptr %__args, ptr %__args.addr, align 8, !tbaa !130
  %0 = load ptr, ptr %__a.addr, align 8, !tbaa !144
  %1 = load ptr, ptr %__p.addr, align 8, !tbaa !130
  %2 = load ptr, ptr %__args.addr, align 8, !tbaa !130
  call void @_ZNSt15__new_allocatorIiE9constructIiJRKiEEEvPT_DpOT0_(ptr noundef nonnull align 1 dereferenceable(1) %0, ptr noundef %1, ptr noundef nonnull align 4 dereferenceable(4) %2) #3
  ret void
}

; Function Attrs: mustprogress uwtable
define linkonce_odr void @_ZNSt6vectorIiSaIiEE17_M_realloc_insertIJRKiEEEvN9__gnu_cxx17__normal_iteratorIPiS1_EEDpOT_(ptr noundef nonnull align 8 dereferenceable(24) %this, ptr %__position.coerce, ptr noundef nonnull align 4 dereferenceable(4) %__args) #4 comdat align 2 {
entry:
  %__position = alloca %"class.__gnu_cxx::__normal_iterator", align 8
  %this.addr = alloca ptr, align 8
  %__args.addr = alloca ptr, align 8
  %__len = alloca i64, align 8
  %__old_start = alloca ptr, align 8
  %__old_finish = alloca ptr, align 8
  %__elems_before = alloca i64, align 8
  %ref.tmp = alloca %"class.__gnu_cxx::__normal_iterator", align 8
  %__new_start = alloca ptr, align 8
  %__new_finish = alloca ptr, align 8
  %coerce.dive = getelementptr inbounds nuw %"class.__gnu_cxx::__normal_iterator", ptr %__position, i32 0, i32 0
  store ptr %__position.coerce, ptr %coerce.dive, align 8
  store ptr %this, ptr %this.addr, align 8, !tbaa !135
  store ptr %__args, ptr %__args.addr, align 8, !tbaa !130
  %this1 = load ptr, ptr %this.addr, align 8
  call void @llvm.lifetime.start.p0(i64 8, ptr %__len) #3
  %call = call noundef i64 @_ZNKSt6vectorIiSaIiEE12_M_check_lenEmPKc(ptr noundef nonnull align 8 dereferenceable(24) %this1, i64 noundef 1, ptr noundef @.str)
  store i64 %call, ptr %__len, align 8, !tbaa !105
  call void @llvm.lifetime.start.p0(i64 8, ptr %__old_start) #3
  %_M_impl = getelementptr inbounds nuw %"struct.std::_Vector_base.19", ptr %this1, i32 0, i32 0
  %_M_start = getelementptr inbounds nuw %"struct.std::_Vector_base<int, std::allocator<int>>::_Vector_impl_data", ptr %_M_impl, i32 0, i32 0
  %0 = load ptr, ptr %_M_start, align 8, !tbaa !137
  store ptr %0, ptr %__old_start, align 8, !tbaa !130
  call void @llvm.lifetime.start.p0(i64 8, ptr %__old_finish) #3
  %_M_impl2 = getelementptr inbounds nuw %"struct.std::_Vector_base.19", ptr %this1, i32 0, i32 0
  %_M_finish = getelementptr inbounds nuw %"struct.std::_Vector_base<int, std::allocator<int>>::_Vector_impl_data", ptr %_M_impl2, i32 0, i32 1
  %1 = load ptr, ptr %_M_finish, align 8, !tbaa !141
  store ptr %1, ptr %__old_finish, align 8, !tbaa !130
  call void @llvm.lifetime.start.p0(i64 8, ptr %__elems_before) #3
  call void @llvm.lifetime.start.p0(i64 8, ptr %ref.tmp) #3
  %call3 = call ptr @_ZNSt6vectorIiSaIiEE5beginEv(ptr noundef nonnull align 8 dereferenceable(24) %this1) #3
  %coerce.dive4 = getelementptr inbounds nuw %"class.__gnu_cxx::__normal_iterator", ptr %ref.tmp, i32 0, i32 0
  store ptr %call3, ptr %coerce.dive4, align 8
  %call5 = call noundef i64 @_ZN9__gnu_cxxmiIPiSt6vectorIiSaIiEEEENS_17__normal_iteratorIT_T0_E15difference_typeERKS8_SB_(ptr noundef nonnull align 8 dereferenceable(8) %__position, ptr noundef nonnull align 8 dereferenceable(8) %ref.tmp) #3
  call void @llvm.lifetime.end.p0(i64 8, ptr %ref.tmp) #3
  store i64 %call5, ptr %__elems_before, align 8, !tbaa !105
  call void @llvm.lifetime.start.p0(i64 8, ptr %__new_start) #3
  %2 = load i64, ptr %__len, align 8, !tbaa !105
  %call6 = call noundef ptr @_ZNSt12_Vector_baseIiSaIiEE11_M_allocateEm(ptr noundef nonnull align 8 dereferenceable(24) %this1, i64 noundef %2)
  store ptr %call6, ptr %__new_start, align 8, !tbaa !130
  call void @llvm.lifetime.start.p0(i64 8, ptr %__new_finish) #3
  %3 = load ptr, ptr %__new_start, align 8, !tbaa !130
  store ptr %3, ptr %__new_finish, align 8, !tbaa !130
  %_M_impl7 = getelementptr inbounds nuw %"struct.std::_Vector_base.19", ptr %this1, i32 0, i32 0
  %4 = load ptr, ptr %__new_start, align 8, !tbaa !130
  %5 = load i64, ptr %__elems_before, align 8, !tbaa !105
  %add.ptr = getelementptr inbounds nuw i32, ptr %4, i64 %5
  %6 = load ptr, ptr %__args.addr, align 8, !tbaa !130
  call void @_ZNSt16allocator_traitsISaIiEE9constructIiJRKiEEEvRS0_PT_DpOT0_(ptr noundef nonnull align 1 dereferenceable(1) %_M_impl7, ptr noundef %add.ptr, ptr noundef nonnull align 4 dereferenceable(4) %6) #3
  store ptr null, ptr %__new_finish, align 8, !tbaa !130
  %7 = load ptr, ptr %__old_start, align 8, !tbaa !130
  %call8 = call noundef nonnull align 8 dereferenceable(8) ptr @_ZNK9__gnu_cxx17__normal_iteratorIPiSt6vectorIiSaIiEEE4baseEv(ptr noundef nonnull align 8 dereferenceable(8) %__position) #3
  %8 = load ptr, ptr %call8, align 8, !tbaa !130
  %9 = load ptr, ptr %__new_start, align 8, !tbaa !130
  %call9 = call noundef nonnull align 1 dereferenceable(1) ptr @_ZNSt12_Vector_baseIiSaIiEE19_M_get_Tp_allocatorEv(ptr noundef nonnull align 8 dereferenceable(24) %this1) #3
  %call10 = call noundef ptr @_ZNSt6vectorIiSaIiEE11_S_relocateEPiS2_S2_RS0_(ptr noundef %7, ptr noundef %8, ptr noundef %9, ptr noundef nonnull align 1 dereferenceable(1) %call9) #3
  store ptr %call10, ptr %__new_finish, align 8, !tbaa !130
  %10 = load ptr, ptr %__new_finish, align 8, !tbaa !130
  %incdec.ptr = getelementptr inbounds nuw i32, ptr %10, i32 1
  store ptr %incdec.ptr, ptr %__new_finish, align 8, !tbaa !130
  %call11 = call noundef nonnull align 8 dereferenceable(8) ptr @_ZNK9__gnu_cxx17__normal_iteratorIPiSt6vectorIiSaIiEEE4baseEv(ptr noundef nonnull align 8 dereferenceable(8) %__position) #3
  %11 = load ptr, ptr %call11, align 8, !tbaa !130
  %12 = load ptr, ptr %__old_finish, align 8, !tbaa !130
  %13 = load ptr, ptr %__new_finish, align 8, !tbaa !130
  %call12 = call noundef nonnull align 1 dereferenceable(1) ptr @_ZNSt12_Vector_baseIiSaIiEE19_M_get_Tp_allocatorEv(ptr noundef nonnull align 8 dereferenceable(24) %this1) #3
  %call13 = call noundef ptr @_ZNSt6vectorIiSaIiEE11_S_relocateEPiS2_S2_RS0_(ptr noundef %11, ptr noundef %12, ptr noundef %13, ptr noundef nonnull align 1 dereferenceable(1) %call12) #3
  store ptr %call13, ptr %__new_finish, align 8, !tbaa !130
  %14 = load ptr, ptr %__old_start, align 8, !tbaa !130
  %_M_impl14 = getelementptr inbounds nuw %"struct.std::_Vector_base.19", ptr %this1, i32 0, i32 0
  %_M_end_of_storage = getelementptr inbounds nuw %"struct.std::_Vector_base<int, std::allocator<int>>::_Vector_impl_data", ptr %_M_impl14, i32 0, i32 2
  %15 = load ptr, ptr %_M_end_of_storage, align 8, !tbaa !142
  %16 = load ptr, ptr %__old_start, align 8, !tbaa !130
  %sub.ptr.lhs.cast = ptrtoint ptr %15 to i64
  %sub.ptr.rhs.cast = ptrtoint ptr %16 to i64
  %sub.ptr.sub = sub i64 %sub.ptr.lhs.cast, %sub.ptr.rhs.cast
  %sub.ptr.div = sdiv exact i64 %sub.ptr.sub, 4
  call void @_ZNSt12_Vector_baseIiSaIiEE13_M_deallocateEPim(ptr noundef nonnull align 8 dereferenceable(24) %this1, ptr noundef %14, i64 noundef %sub.ptr.div)
  %17 = load ptr, ptr %__new_start, align 8, !tbaa !130
  %_M_impl15 = getelementptr inbounds nuw %"struct.std::_Vector_base.19", ptr %this1, i32 0, i32 0
  %_M_start16 = getelementptr inbounds nuw %"struct.std::_Vector_base<int, std::allocator<int>>::_Vector_impl_data", ptr %_M_impl15, i32 0, i32 0
  store ptr %17, ptr %_M_start16, align 8, !tbaa !137
  %18 = load ptr, ptr %__new_finish, align 8, !tbaa !130
  %_M_impl17 = getelementptr inbounds nuw %"struct.std::_Vector_base.19", ptr %this1, i32 0, i32 0
  %_M_finish18 = getelementptr inbounds nuw %"struct.std::_Vector_base<int, std::allocator<int>>::_Vector_impl_data", ptr %_M_impl17, i32 0, i32 1
  store ptr %18, ptr %_M_finish18, align 8, !tbaa !141
  %19 = load ptr, ptr %__new_start, align 8, !tbaa !130
  %20 = load i64, ptr %__len, align 8, !tbaa !105
  %add.ptr19 = getelementptr inbounds nuw i32, ptr %19, i64 %20
  %_M_impl20 = getelementptr inbounds nuw %"struct.std::_Vector_base.19", ptr %this1, i32 0, i32 0
  %_M_end_of_storage21 = getelementptr inbounds nuw %"struct.std::_Vector_base<int, std::allocator<int>>::_Vector_impl_data", ptr %_M_impl20, i32 0, i32 2
  store ptr %add.ptr19, ptr %_M_end_of_storage21, align 8, !tbaa !142
  call void @llvm.lifetime.end.p0(i64 8, ptr %__new_finish) #3
  call void @llvm.lifetime.end.p0(i64 8, ptr %__new_start) #3
  call void @llvm.lifetime.end.p0(i64 8, ptr %__elems_before) #3
  call void @llvm.lifetime.end.p0(i64 8, ptr %__old_finish) #3
  call void @llvm.lifetime.end.p0(i64 8, ptr %__old_start) #3
  call void @llvm.lifetime.end.p0(i64 8, ptr %__len) #3
  ret void
}

; Function Attrs: mustprogress nounwind uwtable
define linkonce_odr ptr @_ZNSt6vectorIiSaIiEE3endEv(ptr noundef nonnull align 8 dereferenceable(24) %this) #6 comdat align 2 {
entry:
  %retval = alloca %"class.__gnu_cxx::__normal_iterator", align 8
  %this.addr = alloca ptr, align 8
  store ptr %this, ptr %this.addr, align 8, !tbaa !135
  %this1 = load ptr, ptr %this.addr, align 8
  %_M_impl = getelementptr inbounds nuw %"struct.std::_Vector_base.19", ptr %this1, i32 0, i32 0
  %_M_finish = getelementptr inbounds nuw %"struct.std::_Vector_base<int, std::allocator<int>>::_Vector_impl_data", ptr %_M_impl, i32 0, i32 1
  call void @_ZN9__gnu_cxx17__normal_iteratorIPiSt6vectorIiSaIiEEEC2ERKS1_(ptr noundef nonnull align 8 dereferenceable(8) %retval, ptr noundef nonnull align 8 dereferenceable(8) %_M_finish) #3
  %coerce.dive = getelementptr inbounds nuw %"class.__gnu_cxx::__normal_iterator", ptr %retval, i32 0, i32 0
  %0 = load ptr, ptr %coerce.dive, align 8
  ret ptr %0
}

; Function Attrs: mustprogress nounwind uwtable
define linkonce_odr void @_ZNSt15__new_allocatorIiE9constructIiJRKiEEEvPT_DpOT0_(ptr noundef nonnull align 1 dereferenceable(1) %this, ptr noundef %__p, ptr noundef nonnull align 4 dereferenceable(4) %__args) #6 comdat align 2 {
entry:
  %this.addr = alloca ptr, align 8
  %__p.addr = alloca ptr, align 8
  %__args.addr = alloca ptr, align 8
  store ptr %this, ptr %this.addr, align 8, !tbaa !153
  store ptr %__p, ptr %__p.addr, align 8, !tbaa !130
  store ptr %__args, ptr %__args.addr, align 8, !tbaa !130
  %this1 = load ptr, ptr %this.addr, align 8
  %0 = load ptr, ptr %__p.addr, align 8, !tbaa !130
  %1 = load ptr, ptr %__args.addr, align 8, !tbaa !130
  %2 = load i32, ptr %1, align 4, !tbaa !58
  store i32 %2, ptr %0, align 4, !tbaa !58
  ret void
}

; Function Attrs: mustprogress uwtable
define linkonce_odr noundef i64 @_ZNKSt6vectorIiSaIiEE12_M_check_lenEmPKc(ptr noundef nonnull align 8 dereferenceable(24) %this, i64 noundef %__n, ptr noundef %__s) #4 comdat align 2 {
entry:
  %this.addr = alloca ptr, align 8
  %__n.addr = alloca i64, align 8
  %__s.addr = alloca ptr, align 8
  %__len = alloca i64, align 8
  %ref.tmp = alloca i64, align 8
  store ptr %this, ptr %this.addr, align 8, !tbaa !135
  store i64 %__n, ptr %__n.addr, align 8, !tbaa !105
  store ptr %__s, ptr %__s.addr, align 8, !tbaa !155
  %this1 = load ptr, ptr %this.addr, align 8
  %call = call noundef i64 @_ZNKSt6vectorIiSaIiEE8max_sizeEv(ptr noundef nonnull align 8 dereferenceable(24) %this1) #3
  %call2 = call noundef i64 @_ZNKSt6vectorIiSaIiEE4sizeEv(ptr noundef nonnull align 8 dereferenceable(24) %this1) #3
  %sub = sub i64 %call, %call2
  %0 = load i64, ptr %__n.addr, align 8, !tbaa !105
  %cmp = icmp ult i64 %sub, %0
  br i1 %cmp, label %if.then, label %if.end

if.then:                                          ; preds = %entry
  %1 = load ptr, ptr %__s.addr, align 8, !tbaa !155
  call void @_ZSt20__throw_length_errorPKc(ptr noundef %1) #20
  unreachable

if.end:                                           ; preds = %entry
  call void @llvm.lifetime.start.p0(i64 8, ptr %__len) #3
  %call3 = call noundef i64 @_ZNKSt6vectorIiSaIiEE4sizeEv(ptr noundef nonnull align 8 dereferenceable(24) %this1) #3
  call void @llvm.lifetime.start.p0(i64 8, ptr %ref.tmp) #3
  %call4 = call noundef i64 @_ZNKSt6vectorIiSaIiEE4sizeEv(ptr noundef nonnull align 8 dereferenceable(24) %this1) #3
  store i64 %call4, ptr %ref.tmp, align 8, !tbaa !105
  %call5 = call noundef nonnull align 8 dereferenceable(8) ptr @_ZSt3maxImERKT_S2_S2_(ptr noundef nonnull align 8 dereferenceable(8) %ref.tmp, ptr noundef nonnull align 8 dereferenceable(8) %__n.addr)
  %2 = load i64, ptr %call5, align 8, !tbaa !105
  %add = add i64 %call3, %2
  call void @llvm.lifetime.end.p0(i64 8, ptr %ref.tmp) #3
  store i64 %add, ptr %__len, align 8, !tbaa !105
  %3 = load i64, ptr %__len, align 8, !tbaa !105
  %call6 = call noundef i64 @_ZNKSt6vectorIiSaIiEE4sizeEv(ptr noundef nonnull align 8 dereferenceable(24) %this1) #3
  %cmp7 = icmp ult i64 %3, %call6
  br i1 %cmp7, label %cond.true, label %lor.lhs.false

lor.lhs.false:                                    ; preds = %if.end
  %4 = load i64, ptr %__len, align 8, !tbaa !105
  %call8 = call noundef i64 @_ZNKSt6vectorIiSaIiEE8max_sizeEv(ptr noundef nonnull align 8 dereferenceable(24) %this1) #3
  %cmp9 = icmp ugt i64 %4, %call8
  br i1 %cmp9, label %cond.true, label %cond.false

cond.true:                                        ; preds = %lor.lhs.false, %if.end
  %call10 = call noundef i64 @_ZNKSt6vectorIiSaIiEE8max_sizeEv(ptr noundef nonnull align 8 dereferenceable(24) %this1) #3
  br label %cond.end

cond.false:                                       ; preds = %lor.lhs.false
  %5 = load i64, ptr %__len, align 8, !tbaa !105
  br label %cond.end

cond.end:                                         ; preds = %cond.false, %cond.true
  %cond = phi i64 [ %call10, %cond.true ], [ %5, %cond.false ]
  call void @llvm.lifetime.end.p0(i64 8, ptr %__len) #3
  ret i64 %cond
}

; Function Attrs: inlinehint mustprogress nounwind uwtable
define linkonce_odr noundef i64 @_ZN9__gnu_cxxmiIPiSt6vectorIiSaIiEEEENS_17__normal_iteratorIT_T0_E15difference_typeERKS8_SB_(ptr noundef nonnull align 8 dereferenceable(8) %__lhs, ptr noundef nonnull align 8 dereferenceable(8) %__rhs) #9 comdat {
entry:
  %__lhs.addr = alloca ptr, align 8
  %__rhs.addr = alloca ptr, align 8
  store ptr %__lhs, ptr %__lhs.addr, align 8, !tbaa !156
  store ptr %__rhs, ptr %__rhs.addr, align 8, !tbaa !156
  %0 = load ptr, ptr %__lhs.addr, align 8, !tbaa !156
  %call = call noundef nonnull align 8 dereferenceable(8) ptr @_ZNK9__gnu_cxx17__normal_iteratorIPiSt6vectorIiSaIiEEE4baseEv(ptr noundef nonnull align 8 dereferenceable(8) %0) #3
  %1 = load ptr, ptr %call, align 8, !tbaa !130
  %2 = load ptr, ptr %__rhs.addr, align 8, !tbaa !156
  %call1 = call noundef nonnull align 8 dereferenceable(8) ptr @_ZNK9__gnu_cxx17__normal_iteratorIPiSt6vectorIiSaIiEEE4baseEv(ptr noundef nonnull align 8 dereferenceable(8) %2) #3
  %3 = load ptr, ptr %call1, align 8, !tbaa !130
  %sub.ptr.lhs.cast = ptrtoint ptr %1 to i64
  %sub.ptr.rhs.cast = ptrtoint ptr %3 to i64
  %sub.ptr.sub = sub i64 %sub.ptr.lhs.cast, %sub.ptr.rhs.cast
  %sub.ptr.div = sdiv exact i64 %sub.ptr.sub, 4
  ret i64 %sub.ptr.div
}

; Function Attrs: mustprogress nounwind uwtable
define linkonce_odr ptr @_ZNSt6vectorIiSaIiEE5beginEv(ptr noundef nonnull align 8 dereferenceable(24) %this) #6 comdat align 2 {
entry:
  %retval = alloca %"class.__gnu_cxx::__normal_iterator", align 8
  %this.addr = alloca ptr, align 8
  store ptr %this, ptr %this.addr, align 8, !tbaa !135
  %this1 = load ptr, ptr %this.addr, align 8
  %_M_impl = getelementptr inbounds nuw %"struct.std::_Vector_base.19", ptr %this1, i32 0, i32 0
  %_M_start = getelementptr inbounds nuw %"struct.std::_Vector_base<int, std::allocator<int>>::_Vector_impl_data", ptr %_M_impl, i32 0, i32 0
  call void @_ZN9__gnu_cxx17__normal_iteratorIPiSt6vectorIiSaIiEEEC2ERKS1_(ptr noundef nonnull align 8 dereferenceable(8) %retval, ptr noundef nonnull align 8 dereferenceable(8) %_M_start) #3
  %coerce.dive = getelementptr inbounds nuw %"class.__gnu_cxx::__normal_iterator", ptr %retval, i32 0, i32 0
  %0 = load ptr, ptr %coerce.dive, align 8
  ret ptr %0
}

; Function Attrs: mustprogress uwtable
define linkonce_odr noundef ptr @_ZNSt12_Vector_baseIiSaIiEE11_M_allocateEm(ptr noundef nonnull align 8 dereferenceable(24) %this, i64 noundef %__n) #4 comdat align 2 {
entry:
  %this.addr = alloca ptr, align 8
  %__n.addr = alloca i64, align 8
  store ptr %this, ptr %this.addr, align 8, !tbaa !146
  store i64 %__n, ptr %__n.addr, align 8, !tbaa !105
  %this1 = load ptr, ptr %this.addr, align 8
  %0 = load i64, ptr %__n.addr, align 8, !tbaa !105
  %cmp = icmp ne i64 %0, 0
  br i1 %cmp, label %cond.true, label %cond.false

cond.true:                                        ; preds = %entry
  %_M_impl = getelementptr inbounds nuw %"struct.std::_Vector_base.19", ptr %this1, i32 0, i32 0
  %1 = load i64, ptr %__n.addr, align 8, !tbaa !105
  %call = call noundef ptr @_ZNSt16allocator_traitsISaIiEE8allocateERS0_m(ptr noundef nonnull align 1 dereferenceable(1) %_M_impl, i64 noundef %1)
  br label %cond.end

cond.false:                                       ; preds = %entry
  br label %cond.end

cond.end:                                         ; preds = %cond.false, %cond.true
  %cond = phi ptr [ %call, %cond.true ], [ null, %cond.false ]
  ret ptr %cond
}

; Function Attrs: mustprogress nounwind uwtable
define linkonce_odr noundef ptr @_ZNSt6vectorIiSaIiEE11_S_relocateEPiS2_S2_RS0_(ptr noundef %__first, ptr noundef %__last, ptr noundef %__result, ptr noundef nonnull align 1 dereferenceable(1) %__alloc) #6 comdat align 2 {
entry:
  %__first.addr = alloca ptr, align 8
  %__last.addr = alloca ptr, align 8
  %__result.addr = alloca ptr, align 8
  %__alloc.addr = alloca ptr, align 8
  store ptr %__first, ptr %__first.addr, align 8, !tbaa !130
  store ptr %__last, ptr %__last.addr, align 8, !tbaa !130
  store ptr %__result, ptr %__result.addr, align 8, !tbaa !130
  store ptr %__alloc, ptr %__alloc.addr, align 8, !tbaa !144
  %0 = load ptr, ptr %__first.addr, align 8, !tbaa !130
  %1 = load ptr, ptr %__last.addr, align 8, !tbaa !130
  %2 = load ptr, ptr %__result.addr, align 8, !tbaa !130
  %3 = load ptr, ptr %__alloc.addr, align 8, !tbaa !144
  %call = call noundef ptr @_ZSt12__relocate_aIPiS0_SaIiEET0_T_S3_S2_RT1_(ptr noundef %0, ptr noundef %1, ptr noundef %2, ptr noundef nonnull align 1 dereferenceable(1) %3) #3
  ret ptr %call
}

; Function Attrs: mustprogress nounwind uwtable
define linkonce_odr noundef nonnull align 8 dereferenceable(8) ptr @_ZNK9__gnu_cxx17__normal_iteratorIPiSt6vectorIiSaIiEEE4baseEv(ptr noundef nonnull align 8 dereferenceable(8) %this) #6 comdat align 2 {
entry:
  %this.addr = alloca ptr, align 8
  store ptr %this, ptr %this.addr, align 8, !tbaa !156
  %this1 = load ptr, ptr %this.addr, align 8
  %_M_current = getelementptr inbounds nuw %"class.__gnu_cxx::__normal_iterator", ptr %this1, i32 0, i32 0
  ret ptr %_M_current
}

; Function Attrs: mustprogress uwtable
define linkonce_odr void @_ZNSt12_Vector_baseIiSaIiEE13_M_deallocateEPim(ptr noundef nonnull align 8 dereferenceable(24) %this, ptr noundef %__p, i64 noundef %__n) #4 comdat align 2 {
entry:
  %this.addr = alloca ptr, align 8
  %__p.addr = alloca ptr, align 8
  %__n.addr = alloca i64, align 8
  store ptr %this, ptr %this.addr, align 8, !tbaa !146
  store ptr %__p, ptr %__p.addr, align 8, !tbaa !130
  store i64 %__n, ptr %__n.addr, align 8, !tbaa !105
  %this1 = load ptr, ptr %this.addr, align 8
  %0 = load ptr, ptr %__p.addr, align 8, !tbaa !130
  %tobool = icmp ne ptr %0, null
  br i1 %tobool, label %if.then, label %if.end

if.then:                                          ; preds = %entry
  %_M_impl = getelementptr inbounds nuw %"struct.std::_Vector_base.19", ptr %this1, i32 0, i32 0
  %1 = load ptr, ptr %__p.addr, align 8, !tbaa !130
  %2 = load i64, ptr %__n.addr, align 8, !tbaa !105
  call void @_ZNSt16allocator_traitsISaIiEE10deallocateERS0_Pim(ptr noundef nonnull align 1 dereferenceable(1) %_M_impl, ptr noundef %1, i64 noundef %2)
  br label %if.end

if.end:                                           ; preds = %if.then, %entry
  ret void
}

; Function Attrs: mustprogress nounwind uwtable
define linkonce_odr noundef i64 @_ZNKSt6vectorIiSaIiEE8max_sizeEv(ptr noundef nonnull align 8 dereferenceable(24) %this) #6 comdat align 2 {
entry:
  %this.addr = alloca ptr, align 8
  store ptr %this, ptr %this.addr, align 8, !tbaa !135
  %this1 = load ptr, ptr %this.addr, align 8
  %call = call noundef nonnull align 1 dereferenceable(1) ptr @_ZNKSt12_Vector_baseIiSaIiEE19_M_get_Tp_allocatorEv(ptr noundef nonnull align 8 dereferenceable(24) %this1) #3
  %call2 = call noundef i64 @_ZNSt6vectorIiSaIiEE11_S_max_sizeERKS0_(ptr noundef nonnull align 1 dereferenceable(1) %call) #3
  ret i64 %call2
}

; Function Attrs: noreturn
declare void @_ZSt20__throw_length_errorPKc(ptr noundef) #10

; Function Attrs: inlinehint mustprogress nounwind uwtable
define linkonce_odr noundef nonnull align 8 dereferenceable(8) ptr @_ZSt3maxImERKT_S2_S2_(ptr noundef nonnull align 8 dereferenceable(8) %__a, ptr noundef nonnull align 8 dereferenceable(8) %__b) #9 comdat {
entry:
  %retval = alloca ptr, align 8
  %__a.addr = alloca ptr, align 8
  %__b.addr = alloca ptr, align 8
  store ptr %__a, ptr %__a.addr, align 8, !tbaa !158
  store ptr %__b, ptr %__b.addr, align 8, !tbaa !158
  %0 = load ptr, ptr %__a.addr, align 8, !tbaa !158
  %1 = load i64, ptr %0, align 8, !tbaa !105
  %2 = load ptr, ptr %__b.addr, align 8, !tbaa !158
  %3 = load i64, ptr %2, align 8, !tbaa !105
  %cmp = icmp ult i64 %1, %3
  br i1 %cmp, label %if.then, label %if.end

if.then:                                          ; preds = %entry
  %4 = load ptr, ptr %__b.addr, align 8, !tbaa !158
  store ptr %4, ptr %retval, align 8
  br label %return

if.end:                                           ; preds = %entry
  %5 = load ptr, ptr %__a.addr, align 8, !tbaa !158
  store ptr %5, ptr %retval, align 8
  br label %return

return:                                           ; preds = %if.end, %if.then
  %6 = load ptr, ptr %retval, align 8
  ret ptr %6
}

; Function Attrs: mustprogress nounwind uwtable
define linkonce_odr noundef i64 @_ZNSt6vectorIiSaIiEE11_S_max_sizeERKS0_(ptr noundef nonnull align 1 dereferenceable(1) %__a) #6 comdat align 2 personality ptr @__gxx_personality_v0 {
entry:
  %__a.addr = alloca ptr, align 8
  %__diffmax = alloca i64, align 8
  %__allocmax = alloca i64, align 8
  store ptr %__a, ptr %__a.addr, align 8, !tbaa !144
  call void @llvm.lifetime.start.p0(i64 8, ptr %__diffmax) #3
  store i64 2305843009213693951, ptr %__diffmax, align 8, !tbaa !105
  call void @llvm.lifetime.start.p0(i64 8, ptr %__allocmax) #3
  %0 = load ptr, ptr %__a.addr, align 8, !tbaa !144
  %call = call noundef i64 @_ZNSt16allocator_traitsISaIiEE8max_sizeERKS0_(ptr noundef nonnull align 1 dereferenceable(1) %0) #3
  store i64 %call, ptr %__allocmax, align 8, !tbaa !105
  %call1 = invoke noundef nonnull align 8 dereferenceable(8) ptr @_ZSt3minImERKT_S2_S2_(ptr noundef nonnull align 8 dereferenceable(8) %__diffmax, ptr noundef nonnull align 8 dereferenceable(8) %__allocmax)
          to label %invoke.cont unwind label %terminate.lpad

invoke.cont:                                      ; preds = %entry
  %1 = load i64, ptr %call1, align 8, !tbaa !105
  call void @llvm.lifetime.end.p0(i64 8, ptr %__allocmax) #3
  call void @llvm.lifetime.end.p0(i64 8, ptr %__diffmax) #3
  ret i64 %1

terminate.lpad:                                   ; preds = %entry
  %2 = landingpad { ptr, i32 }
          catch ptr null
  %3 = extractvalue { ptr, i32 } %2, 0
  call void @__clang_call_terminate(ptr %3) #19
  unreachable
}

; Function Attrs: mustprogress nounwind uwtable
define linkonce_odr noundef nonnull align 1 dereferenceable(1) ptr @_ZNKSt12_Vector_baseIiSaIiEE19_M_get_Tp_allocatorEv(ptr noundef nonnull align 8 dereferenceable(24) %this) #6 comdat align 2 {
entry:
  %this.addr = alloca ptr, align 8
  store ptr %this, ptr %this.addr, align 8, !tbaa !146
  %this1 = load ptr, ptr %this.addr, align 8
  %_M_impl = getelementptr inbounds nuw %"struct.std::_Vector_base.19", ptr %this1, i32 0, i32 0
  ret ptr %_M_impl
}

; Function Attrs: mustprogress nounwind uwtable
define linkonce_odr noundef i64 @_ZNSt16allocator_traitsISaIiEE8max_sizeERKS0_(ptr noundef nonnull align 1 dereferenceable(1) %__a) #6 comdat align 2 {
entry:
  %__a.addr = alloca ptr, align 8
  store ptr %__a, ptr %__a.addr, align 8, !tbaa !144
  %0 = load ptr, ptr %__a.addr, align 8, !tbaa !144
  %call = call noundef i64 @_ZNKSt15__new_allocatorIiE8max_sizeEv(ptr noundef nonnull align 1 dereferenceable(1) %0) #3
  ret i64 %call
}

; Function Attrs: inlinehint mustprogress nounwind uwtable
define linkonce_odr noundef nonnull align 8 dereferenceable(8) ptr @_ZSt3minImERKT_S2_S2_(ptr noundef nonnull align 8 dereferenceable(8) %__a, ptr noundef nonnull align 8 dereferenceable(8) %__b) #9 comdat {
entry:
  %retval = alloca ptr, align 8
  %__a.addr = alloca ptr, align 8
  %__b.addr = alloca ptr, align 8
  store ptr %__a, ptr %__a.addr, align 8, !tbaa !158
  store ptr %__b, ptr %__b.addr, align 8, !tbaa !158
  %0 = load ptr, ptr %__b.addr, align 8, !tbaa !158
  %1 = load i64, ptr %0, align 8, !tbaa !105
  %2 = load ptr, ptr %__a.addr, align 8, !tbaa !158
  %3 = load i64, ptr %2, align 8, !tbaa !105
  %cmp = icmp ult i64 %1, %3
  br i1 %cmp, label %if.then, label %if.end

if.then:                                          ; preds = %entry
  %4 = load ptr, ptr %__b.addr, align 8, !tbaa !158
  store ptr %4, ptr %retval, align 8
  br label %return

if.end:                                           ; preds = %entry
  %5 = load ptr, ptr %__a.addr, align 8, !tbaa !158
  store ptr %5, ptr %retval, align 8
  br label %return

return:                                           ; preds = %if.end, %if.then
  %6 = load ptr, ptr %retval, align 8
  ret ptr %6
}

; Function Attrs: mustprogress nounwind uwtable
define linkonce_odr noundef i64 @_ZNKSt15__new_allocatorIiE8max_sizeEv(ptr noundef nonnull align 1 dereferenceable(1) %this) #6 comdat align 2 {
entry:
  %this.addr = alloca ptr, align 8
  store ptr %this, ptr %this.addr, align 8, !tbaa !153
  %this1 = load ptr, ptr %this.addr, align 8
  %call = call noundef i64 @_ZNKSt15__new_allocatorIiE11_M_max_sizeEv(ptr noundef nonnull align 1 dereferenceable(1) %this1) #3
  ret i64 %call
}

; Function Attrs: mustprogress nounwind uwtable
define linkonce_odr noundef i64 @_ZNKSt15__new_allocatorIiE11_M_max_sizeEv(ptr noundef nonnull align 1 dereferenceable(1) %this) #6 comdat align 2 {
entry:
  %this.addr = alloca ptr, align 8
  store ptr %this, ptr %this.addr, align 8, !tbaa !153
  %this1 = load ptr, ptr %this.addr, align 8
  ret i64 2305843009213693951
}

; Function Attrs: mustprogress nounwind uwtable
define linkonce_odr void @_ZN9__gnu_cxx17__normal_iteratorIPiSt6vectorIiSaIiEEEC2ERKS1_(ptr noundef nonnull align 8 dereferenceable(8) %this, ptr noundef nonnull align 8 dereferenceable(8) %__i) unnamed_addr #6 comdat align 2 {
entry:
  %this.addr = alloca ptr, align 8
  %__i.addr = alloca ptr, align 8
  store ptr %this, ptr %this.addr, align 8, !tbaa !156
  store ptr %__i, ptr %__i.addr, align 8, !tbaa !160
  %this1 = load ptr, ptr %this.addr, align 8
  %_M_current = getelementptr inbounds nuw %"class.__gnu_cxx::__normal_iterator", ptr %this1, i32 0, i32 0
  %0 = load ptr, ptr %__i.addr, align 8, !tbaa !160
  %1 = load ptr, ptr %0, align 8, !tbaa !130
  store ptr %1, ptr %_M_current, align 8, !tbaa !163
  ret void
}

; Function Attrs: mustprogress uwtable
define linkonce_odr noundef ptr @_ZNSt16allocator_traitsISaIiEE8allocateERS0_m(ptr noundef nonnull align 1 dereferenceable(1) %__a, i64 noundef %__n) #4 comdat align 2 {
entry:
  %__a.addr = alloca ptr, align 8
  %__n.addr = alloca i64, align 8
  store ptr %__a, ptr %__a.addr, align 8, !tbaa !144
  store i64 %__n, ptr %__n.addr, align 8, !tbaa !105
  %0 = load ptr, ptr %__a.addr, align 8, !tbaa !144
  %1 = load i64, ptr %__n.addr, align 8, !tbaa !105
  %call = call noundef ptr @_ZNSt15__new_allocatorIiE8allocateEmPKv(ptr noundef nonnull align 1 dereferenceable(1) %0, i64 noundef %1, ptr noundef null)
  ret ptr %call
}

; Function Attrs: mustprogress uwtable
define linkonce_odr noundef ptr @_ZNSt15__new_allocatorIiE8allocateEmPKv(ptr noundef nonnull align 1 dereferenceable(1) %this, i64 noundef %__n, ptr noundef %0) #4 comdat align 2 {
entry:
  %this.addr = alloca ptr, align 8
  %__n.addr = alloca i64, align 8
  %.addr = alloca ptr, align 8
  store ptr %this, ptr %this.addr, align 8, !tbaa !153
  store i64 %__n, ptr %__n.addr, align 8, !tbaa !105
  store ptr %0, ptr %.addr, align 8, !tbaa !165
  %this1 = load ptr, ptr %this.addr, align 8
  %1 = load i64, ptr %__n.addr, align 8, !tbaa !105
  %call = call noundef i64 @_ZNKSt15__new_allocatorIiE11_M_max_sizeEv(ptr noundef nonnull align 1 dereferenceable(1) %this1) #3
  %cmp = icmp ugt i64 %1, %call
  %conv = zext i1 %cmp to i64
  %expval = call i64 @llvm.expect.i64(i64 %conv, i64 0)
  %tobool = icmp ne i64 %expval, 0
  br i1 %tobool, label %if.then, label %if.end4

if.then:                                          ; preds = %entry
  %2 = load i64, ptr %__n.addr, align 8, !tbaa !105
  %cmp2 = icmp ugt i64 %2, 4611686018427387903
  br i1 %cmp2, label %if.then3, label %if.end

if.then3:                                         ; preds = %if.then
  call void @_ZSt28__throw_bad_array_new_lengthv() #20
  unreachable

if.end:                                           ; preds = %if.then
  call void @_ZSt17__throw_bad_allocv() #20
  unreachable

if.end4:                                          ; preds = %entry
  %3 = load i64, ptr %__n.addr, align 8, !tbaa !105
  %mul = mul i64 %3, 4
  %call5 = call noalias noundef nonnull ptr @_Znwm(i64 noundef %mul) #21
  ret ptr %call5
}

; Function Attrs: nocallback nofree nosync nounwind willreturn memory(none)
declare i64 @llvm.expect.i64(i64, i64) #11

; Function Attrs: noreturn
declare void @_ZSt28__throw_bad_array_new_lengthv() #10

; Function Attrs: noreturn
declare void @_ZSt17__throw_bad_allocv() #10

; Function Attrs: nobuiltin allocsize(0)
declare noundef nonnull ptr @_Znwm(i64 noundef) #12

; Function Attrs: inlinehint mustprogress nounwind uwtable
define linkonce_odr noundef ptr @_ZSt12__relocate_aIPiS0_SaIiEET0_T_S3_S2_RT1_(ptr noundef %__first, ptr noundef %__last, ptr noundef %__result, ptr noundef nonnull align 1 dereferenceable(1) %__alloc) #9 comdat {
entry:
  %__first.addr = alloca ptr, align 8
  %__last.addr = alloca ptr, align 8
  %__result.addr = alloca ptr, align 8
  %__alloc.addr = alloca ptr, align 8
  store ptr %__first, ptr %__first.addr, align 8, !tbaa !130
  store ptr %__last, ptr %__last.addr, align 8, !tbaa !130
  store ptr %__result, ptr %__result.addr, align 8, !tbaa !130
  store ptr %__alloc, ptr %__alloc.addr, align 8, !tbaa !144
  %0 = load ptr, ptr %__first.addr, align 8, !tbaa !130
  %call = call noundef ptr @_ZSt12__niter_baseIPiET_S1_(ptr noundef %0) #3
  %1 = load ptr, ptr %__last.addr, align 8, !tbaa !130
  %call1 = call noundef ptr @_ZSt12__niter_baseIPiET_S1_(ptr noundef %1) #3
  %2 = load ptr, ptr %__result.addr, align 8, !tbaa !130
  %call2 = call noundef ptr @_ZSt12__niter_baseIPiET_S1_(ptr noundef %2) #3
  %3 = load ptr, ptr %__alloc.addr, align 8, !tbaa !144
  %call3 = call noundef ptr @_ZSt14__relocate_a_1IiiENSt9enable_ifIXsr3std24__is_bitwise_relocatableIT_EE5valueEPS1_E4typeES2_S2_S2_RSaIT0_E(ptr noundef %call, ptr noundef %call1, ptr noundef %call2, ptr noundef nonnull align 1 dereferenceable(1) %3) #3
  ret ptr %call3
}

; Function Attrs: inlinehint mustprogress nounwind uwtable
define linkonce_odr noundef ptr @_ZSt14__relocate_a_1IiiENSt9enable_ifIXsr3std24__is_bitwise_relocatableIT_EE5valueEPS1_E4typeES2_S2_S2_RSaIT0_E(ptr noundef %__first, ptr noundef %__last, ptr noundef %__result, ptr noundef nonnull align 1 dereferenceable(1) %__alloc) #9 comdat {
entry:
  %__first.addr = alloca ptr, align 8
  %__last.addr = alloca ptr, align 8
  %__result.addr = alloca ptr, align 8
  %__alloc.addr = alloca ptr, align 8
  %__count = alloca i64, align 8
  store ptr %__first, ptr %__first.addr, align 8, !tbaa !130
  store ptr %__last, ptr %__last.addr, align 8, !tbaa !130
  store ptr %__result, ptr %__result.addr, align 8, !tbaa !130
  store ptr %__alloc, ptr %__alloc.addr, align 8, !tbaa !144
  call void @llvm.lifetime.start.p0(i64 8, ptr %__count) #3
  %0 = load ptr, ptr %__last.addr, align 8, !tbaa !130
  %1 = load ptr, ptr %__first.addr, align 8, !tbaa !130
  %sub.ptr.lhs.cast = ptrtoint ptr %0 to i64
  %sub.ptr.rhs.cast = ptrtoint ptr %1 to i64
  %sub.ptr.sub = sub i64 %sub.ptr.lhs.cast, %sub.ptr.rhs.cast
  %sub.ptr.div = sdiv exact i64 %sub.ptr.sub, 4
  store i64 %sub.ptr.div, ptr %__count, align 8, !tbaa !105
  %2 = load i64, ptr %__count, align 8, !tbaa !105
  %cmp = icmp sgt i64 %2, 0
  br i1 %cmp, label %if.then, label %if.end

if.then:                                          ; preds = %entry
  %3 = load ptr, ptr %__result.addr, align 8, !tbaa !130
  %4 = load ptr, ptr %__first.addr, align 8, !tbaa !130
  %5 = load i64, ptr %__count, align 8, !tbaa !105
  %mul = mul i64 %5, 4
  call void @llvm.memmove.p0.p0.i64(ptr align 4 %3, ptr align 4 %4, i64 %mul, i1 false)
  br label %if.end

if.end:                                           ; preds = %if.then, %entry
  %6 = load ptr, ptr %__result.addr, align 8, !tbaa !130
  %7 = load i64, ptr %__count, align 8, !tbaa !105
  %add.ptr = getelementptr inbounds i32, ptr %6, i64 %7
  call void @llvm.lifetime.end.p0(i64 8, ptr %__count) #3
  ret ptr %add.ptr
}

; Function Attrs: inlinehint mustprogress nounwind uwtable
define linkonce_odr noundef ptr @_ZSt12__niter_baseIPiET_S1_(ptr noundef %__it) #9 comdat {
entry:
  %__it.addr = alloca ptr, align 8
  store ptr %__it, ptr %__it.addr, align 8, !tbaa !130
  %0 = load ptr, ptr %__it.addr, align 8, !tbaa !130
  ret ptr %0
}

; Function Attrs: nocallback nofree nounwind willreturn memory(argmem: readwrite)
declare void @llvm.memmove.p0.p0.i64(ptr writeonly captures(none), ptr readonly captures(none), i64, i1 immarg) #13

; Function Attrs: mustprogress uwtable
define linkonce_odr void @_ZNSt16allocator_traitsISaIiEE10deallocateERS0_Pim(ptr noundef nonnull align 1 dereferenceable(1) %__a, ptr noundef %__p, i64 noundef %__n) #4 comdat align 2 {
entry:
  %__a.addr = alloca ptr, align 8
  %__p.addr = alloca ptr, align 8
  %__n.addr = alloca i64, align 8
  store ptr %__a, ptr %__a.addr, align 8, !tbaa !144
  store ptr %__p, ptr %__p.addr, align 8, !tbaa !130
  store i64 %__n, ptr %__n.addr, align 8, !tbaa !105
  %0 = load ptr, ptr %__a.addr, align 8, !tbaa !144
  %1 = load ptr, ptr %__p.addr, align 8, !tbaa !130
  %2 = load i64, ptr %__n.addr, align 8, !tbaa !105
  call void @_ZNSt15__new_allocatorIiE10deallocateEPim(ptr noundef nonnull align 1 dereferenceable(1) %0, ptr noundef %1, i64 noundef %2)
  ret void
}

; Function Attrs: mustprogress nounwind uwtable
define linkonce_odr void @_ZNSt15__new_allocatorIiE10deallocateEPim(ptr noundef nonnull align 1 dereferenceable(1) %this, ptr noundef %__p, i64 noundef %__n) #6 comdat align 2 {
entry:
  %this.addr = alloca ptr, align 8
  %__p.addr = alloca ptr, align 8
  %__n.addr = alloca i64, align 8
  store ptr %this, ptr %this.addr, align 8, !tbaa !153
  store ptr %__p, ptr %__p.addr, align 8, !tbaa !130
  store i64 %__n, ptr %__n.addr, align 8, !tbaa !105
  %this1 = load ptr, ptr %this.addr, align 8
  %0 = load ptr, ptr %__p.addr, align 8, !tbaa !130
  %1 = load i64, ptr %__n.addr, align 8, !tbaa !105
  %mul = mul i64 %1, 4
  call void @_ZdlPvm(ptr noundef %0, i64 noundef %mul) #22
  ret void
}

; Function Attrs: nobuiltin nounwind
declare void @_ZdlPvm(ptr noundef, i64 noundef) #14

; Function Attrs: mustprogress uwtable
define linkonce_odr noundef nonnull align 8 dereferenceable(8) ptr @_ZNSt6vectorIdSaIdEE12emplace_backIJdEEERdDpOT_(ptr noundef nonnull align 8 dereferenceable(24) %this, ptr noundef nonnull align 8 dereferenceable(8) %__args) #4 comdat align 2 {
entry:
  %this.addr = alloca ptr, align 8
  %__args.addr = alloca ptr, align 8
  %agg.tmp = alloca %"class.__gnu_cxx::__normal_iterator.28", align 8
  store ptr %this, ptr %this.addr, align 8, !tbaa !138
  store ptr %__args, ptr %__args.addr, align 8, !tbaa !143
  %this1 = load ptr, ptr %this.addr, align 8
  %_M_impl = getelementptr inbounds nuw %"struct.std::_Vector_base.24", ptr %this1, i32 0, i32 0
  %_M_finish = getelementptr inbounds nuw %"struct.std::_Vector_base<double, std::allocator<double>>::_Vector_impl_data", ptr %_M_impl, i32 0, i32 1
  %0 = load ptr, ptr %_M_finish, align 8, !tbaa !148
  %_M_impl2 = getelementptr inbounds nuw %"struct.std::_Vector_base.24", ptr %this1, i32 0, i32 0
  %_M_end_of_storage = getelementptr inbounds nuw %"struct.std::_Vector_base<double, std::allocator<double>>::_Vector_impl_data", ptr %_M_impl2, i32 0, i32 2
  %1 = load ptr, ptr %_M_end_of_storage, align 8, !tbaa !166
  %cmp = icmp ne ptr %0, %1
  br i1 %cmp, label %if.then, label %if.else

if.then:                                          ; preds = %entry
  %_M_impl3 = getelementptr inbounds nuw %"struct.std::_Vector_base.24", ptr %this1, i32 0, i32 0
  %_M_impl4 = getelementptr inbounds nuw %"struct.std::_Vector_base.24", ptr %this1, i32 0, i32 0
  %_M_finish5 = getelementptr inbounds nuw %"struct.std::_Vector_base<double, std::allocator<double>>::_Vector_impl_data", ptr %_M_impl4, i32 0, i32 1
  %2 = load ptr, ptr %_M_finish5, align 8, !tbaa !148
  %3 = load ptr, ptr %__args.addr, align 8, !tbaa !143
  call void @_ZNSt16allocator_traitsISaIdEE9constructIdJdEEEvRS0_PT_DpOT0_(ptr noundef nonnull align 1 dereferenceable(1) %_M_impl3, ptr noundef %2, ptr noundef nonnull align 8 dereferenceable(8) %3) #3
  %_M_impl6 = getelementptr inbounds nuw %"struct.std::_Vector_base.24", ptr %this1, i32 0, i32 0
  %_M_finish7 = getelementptr inbounds nuw %"struct.std::_Vector_base<double, std::allocator<double>>::_Vector_impl_data", ptr %_M_impl6, i32 0, i32 1
  %4 = load ptr, ptr %_M_finish7, align 8, !tbaa !148
  %incdec.ptr = getelementptr inbounds nuw double, ptr %4, i32 1
  store ptr %incdec.ptr, ptr %_M_finish7, align 8, !tbaa !148
  br label %if.end

if.else:                                          ; preds = %entry
  %call = call ptr @_ZNSt6vectorIdSaIdEE3endEv(ptr noundef nonnull align 8 dereferenceable(24) %this1) #3
  %coerce.dive = getelementptr inbounds nuw %"class.__gnu_cxx::__normal_iterator.28", ptr %agg.tmp, i32 0, i32 0
  store ptr %call, ptr %coerce.dive, align 8
  %5 = load ptr, ptr %__args.addr, align 8, !tbaa !143
  %coerce.dive8 = getelementptr inbounds nuw %"class.__gnu_cxx::__normal_iterator.28", ptr %agg.tmp, i32 0, i32 0
  %6 = load ptr, ptr %coerce.dive8, align 8
  call void @_ZNSt6vectorIdSaIdEE17_M_realloc_insertIJdEEEvN9__gnu_cxx17__normal_iteratorIPdS1_EEDpOT_(ptr noundef nonnull align 8 dereferenceable(24) %this1, ptr %6, ptr noundef nonnull align 8 dereferenceable(8) %5)
  br label %if.end

if.end:                                           ; preds = %if.else, %if.then
  %call9 = call noundef nonnull align 8 dereferenceable(8) ptr @_ZNSt6vectorIdSaIdEE4backEv(ptr noundef nonnull align 8 dereferenceable(24) %this1) #3
  ret ptr %call9
}

; Function Attrs: mustprogress nounwind uwtable
define linkonce_odr void @_ZNSt16allocator_traitsISaIdEE9constructIdJdEEEvRS0_PT_DpOT0_(ptr noundef nonnull align 1 dereferenceable(1) %__a, ptr noundef %__p, ptr noundef nonnull align 8 dereferenceable(8) %__args) #6 comdat align 2 {
entry:
  %__a.addr = alloca ptr, align 8
  %__p.addr = alloca ptr, align 8
  %__args.addr = alloca ptr, align 8
  store ptr %__a, ptr %__a.addr, align 8, !tbaa !149
  store ptr %__p, ptr %__p.addr, align 8, !tbaa !143
  store ptr %__args, ptr %__args.addr, align 8, !tbaa !143
  %0 = load ptr, ptr %__a.addr, align 8, !tbaa !149
  %1 = load ptr, ptr %__p.addr, align 8, !tbaa !143
  %2 = load ptr, ptr %__args.addr, align 8, !tbaa !143
  call void @_ZNSt15__new_allocatorIdE9constructIdJdEEEvPT_DpOT0_(ptr noundef nonnull align 1 dereferenceable(1) %0, ptr noundef %1, ptr noundef nonnull align 8 dereferenceable(8) %2) #3
  ret void
}

; Function Attrs: mustprogress uwtable
define linkonce_odr void @_ZNSt6vectorIdSaIdEE17_M_realloc_insertIJdEEEvN9__gnu_cxx17__normal_iteratorIPdS1_EEDpOT_(ptr noundef nonnull align 8 dereferenceable(24) %this, ptr %__position.coerce, ptr noundef nonnull align 8 dereferenceable(8) %__args) #4 comdat align 2 {
entry:
  %__position = alloca %"class.__gnu_cxx::__normal_iterator.28", align 8
  %this.addr = alloca ptr, align 8
  %__args.addr = alloca ptr, align 8
  %__len = alloca i64, align 8
  %__old_start = alloca ptr, align 8
  %__old_finish = alloca ptr, align 8
  %__elems_before = alloca i64, align 8
  %ref.tmp = alloca %"class.__gnu_cxx::__normal_iterator.28", align 8
  %__new_start = alloca ptr, align 8
  %__new_finish = alloca ptr, align 8
  %coerce.dive = getelementptr inbounds nuw %"class.__gnu_cxx::__normal_iterator.28", ptr %__position, i32 0, i32 0
  store ptr %__position.coerce, ptr %coerce.dive, align 8
  store ptr %this, ptr %this.addr, align 8, !tbaa !138
  store ptr %__args, ptr %__args.addr, align 8, !tbaa !143
  %this1 = load ptr, ptr %this.addr, align 8
  call void @llvm.lifetime.start.p0(i64 8, ptr %__len) #3
  %call = call noundef i64 @_ZNKSt6vectorIdSaIdEE12_M_check_lenEmPKc(ptr noundef nonnull align 8 dereferenceable(24) %this1, i64 noundef 1, ptr noundef @.str)
  store i64 %call, ptr %__len, align 8, !tbaa !105
  call void @llvm.lifetime.start.p0(i64 8, ptr %__old_start) #3
  %_M_impl = getelementptr inbounds nuw %"struct.std::_Vector_base.24", ptr %this1, i32 0, i32 0
  %_M_start = getelementptr inbounds nuw %"struct.std::_Vector_base<double, std::allocator<double>>::_Vector_impl_data", ptr %_M_impl, i32 0, i32 0
  %0 = load ptr, ptr %_M_start, align 8, !tbaa !140
  store ptr %0, ptr %__old_start, align 8, !tbaa !143
  call void @llvm.lifetime.start.p0(i64 8, ptr %__old_finish) #3
  %_M_impl2 = getelementptr inbounds nuw %"struct.std::_Vector_base.24", ptr %this1, i32 0, i32 0
  %_M_finish = getelementptr inbounds nuw %"struct.std::_Vector_base<double, std::allocator<double>>::_Vector_impl_data", ptr %_M_impl2, i32 0, i32 1
  %1 = load ptr, ptr %_M_finish, align 8, !tbaa !148
  store ptr %1, ptr %__old_finish, align 8, !tbaa !143
  call void @llvm.lifetime.start.p0(i64 8, ptr %__elems_before) #3
  call void @llvm.lifetime.start.p0(i64 8, ptr %ref.tmp) #3
  %call3 = call ptr @_ZNSt6vectorIdSaIdEE5beginEv(ptr noundef nonnull align 8 dereferenceable(24) %this1) #3
  %coerce.dive4 = getelementptr inbounds nuw %"class.__gnu_cxx::__normal_iterator.28", ptr %ref.tmp, i32 0, i32 0
  store ptr %call3, ptr %coerce.dive4, align 8
  %call5 = call noundef i64 @_ZN9__gnu_cxxmiIPdSt6vectorIdSaIdEEEENS_17__normal_iteratorIT_T0_E15difference_typeERKS8_SB_(ptr noundef nonnull align 8 dereferenceable(8) %__position, ptr noundef nonnull align 8 dereferenceable(8) %ref.tmp) #3
  call void @llvm.lifetime.end.p0(i64 8, ptr %ref.tmp) #3
  store i64 %call5, ptr %__elems_before, align 8, !tbaa !105
  call void @llvm.lifetime.start.p0(i64 8, ptr %__new_start) #3
  %2 = load i64, ptr %__len, align 8, !tbaa !105
  %call6 = call noundef ptr @_ZNSt12_Vector_baseIdSaIdEE11_M_allocateEm(ptr noundef nonnull align 8 dereferenceable(24) %this1, i64 noundef %2)
  store ptr %call6, ptr %__new_start, align 8, !tbaa !143
  call void @llvm.lifetime.start.p0(i64 8, ptr %__new_finish) #3
  %3 = load ptr, ptr %__new_start, align 8, !tbaa !143
  store ptr %3, ptr %__new_finish, align 8, !tbaa !143
  %_M_impl7 = getelementptr inbounds nuw %"struct.std::_Vector_base.24", ptr %this1, i32 0, i32 0
  %4 = load ptr, ptr %__new_start, align 8, !tbaa !143
  %5 = load i64, ptr %__elems_before, align 8, !tbaa !105
  %add.ptr = getelementptr inbounds nuw double, ptr %4, i64 %5
  %6 = load ptr, ptr %__args.addr, align 8, !tbaa !143
  call void @_ZNSt16allocator_traitsISaIdEE9constructIdJdEEEvRS0_PT_DpOT0_(ptr noundef nonnull align 1 dereferenceable(1) %_M_impl7, ptr noundef %add.ptr, ptr noundef nonnull align 8 dereferenceable(8) %6) #3
  store ptr null, ptr %__new_finish, align 8, !tbaa !143
  %7 = load ptr, ptr %__old_start, align 8, !tbaa !143
  %call8 = call noundef nonnull align 8 dereferenceable(8) ptr @_ZNK9__gnu_cxx17__normal_iteratorIPdSt6vectorIdSaIdEEE4baseEv(ptr noundef nonnull align 8 dereferenceable(8) %__position) #3
  %8 = load ptr, ptr %call8, align 8, !tbaa !143
  %9 = load ptr, ptr %__new_start, align 8, !tbaa !143
  %call9 = call noundef nonnull align 1 dereferenceable(1) ptr @_ZNSt12_Vector_baseIdSaIdEE19_M_get_Tp_allocatorEv(ptr noundef nonnull align 8 dereferenceable(24) %this1) #3
  %call10 = call noundef ptr @_ZNSt6vectorIdSaIdEE11_S_relocateEPdS2_S2_RS0_(ptr noundef %7, ptr noundef %8, ptr noundef %9, ptr noundef nonnull align 1 dereferenceable(1) %call9) #3
  store ptr %call10, ptr %__new_finish, align 8, !tbaa !143
  %10 = load ptr, ptr %__new_finish, align 8, !tbaa !143
  %incdec.ptr = getelementptr inbounds nuw double, ptr %10, i32 1
  store ptr %incdec.ptr, ptr %__new_finish, align 8, !tbaa !143
  %call11 = call noundef nonnull align 8 dereferenceable(8) ptr @_ZNK9__gnu_cxx17__normal_iteratorIPdSt6vectorIdSaIdEEE4baseEv(ptr noundef nonnull align 8 dereferenceable(8) %__position) #3
  %11 = load ptr, ptr %call11, align 8, !tbaa !143
  %12 = load ptr, ptr %__old_finish, align 8, !tbaa !143
  %13 = load ptr, ptr %__new_finish, align 8, !tbaa !143
  %call12 = call noundef nonnull align 1 dereferenceable(1) ptr @_ZNSt12_Vector_baseIdSaIdEE19_M_get_Tp_allocatorEv(ptr noundef nonnull align 8 dereferenceable(24) %this1) #3
  %call13 = call noundef ptr @_ZNSt6vectorIdSaIdEE11_S_relocateEPdS2_S2_RS0_(ptr noundef %11, ptr noundef %12, ptr noundef %13, ptr noundef nonnull align 1 dereferenceable(1) %call12) #3
  store ptr %call13, ptr %__new_finish, align 8, !tbaa !143
  %14 = load ptr, ptr %__old_start, align 8, !tbaa !143
  %_M_impl14 = getelementptr inbounds nuw %"struct.std::_Vector_base.24", ptr %this1, i32 0, i32 0
  %_M_end_of_storage = getelementptr inbounds nuw %"struct.std::_Vector_base<double, std::allocator<double>>::_Vector_impl_data", ptr %_M_impl14, i32 0, i32 2
  %15 = load ptr, ptr %_M_end_of_storage, align 8, !tbaa !166
  %16 = load ptr, ptr %__old_start, align 8, !tbaa !143
  %sub.ptr.lhs.cast = ptrtoint ptr %15 to i64
  %sub.ptr.rhs.cast = ptrtoint ptr %16 to i64
  %sub.ptr.sub = sub i64 %sub.ptr.lhs.cast, %sub.ptr.rhs.cast
  %sub.ptr.div = sdiv exact i64 %sub.ptr.sub, 8
  call void @_ZNSt12_Vector_baseIdSaIdEE13_M_deallocateEPdm(ptr noundef nonnull align 8 dereferenceable(24) %this1, ptr noundef %14, i64 noundef %sub.ptr.div)
  %17 = load ptr, ptr %__new_start, align 8, !tbaa !143
  %_M_impl15 = getelementptr inbounds nuw %"struct.std::_Vector_base.24", ptr %this1, i32 0, i32 0
  %_M_start16 = getelementptr inbounds nuw %"struct.std::_Vector_base<double, std::allocator<double>>::_Vector_impl_data", ptr %_M_impl15, i32 0, i32 0
  store ptr %17, ptr %_M_start16, align 8, !tbaa !140
  %18 = load ptr, ptr %__new_finish, align 8, !tbaa !143
  %_M_impl17 = getelementptr inbounds nuw %"struct.std::_Vector_base.24", ptr %this1, i32 0, i32 0
  %_M_finish18 = getelementptr inbounds nuw %"struct.std::_Vector_base<double, std::allocator<double>>::_Vector_impl_data", ptr %_M_impl17, i32 0, i32 1
  store ptr %18, ptr %_M_finish18, align 8, !tbaa !148
  %19 = load ptr, ptr %__new_start, align 8, !tbaa !143
  %20 = load i64, ptr %__len, align 8, !tbaa !105
  %add.ptr19 = getelementptr inbounds nuw double, ptr %19, i64 %20
  %_M_impl20 = getelementptr inbounds nuw %"struct.std::_Vector_base.24", ptr %this1, i32 0, i32 0
  %_M_end_of_storage21 = getelementptr inbounds nuw %"struct.std::_Vector_base<double, std::allocator<double>>::_Vector_impl_data", ptr %_M_impl20, i32 0, i32 2
  store ptr %add.ptr19, ptr %_M_end_of_storage21, align 8, !tbaa !166
  call void @llvm.lifetime.end.p0(i64 8, ptr %__new_finish) #3
  call void @llvm.lifetime.end.p0(i64 8, ptr %__new_start) #3
  call void @llvm.lifetime.end.p0(i64 8, ptr %__elems_before) #3
  call void @llvm.lifetime.end.p0(i64 8, ptr %__old_finish) #3
  call void @llvm.lifetime.end.p0(i64 8, ptr %__old_start) #3
  call void @llvm.lifetime.end.p0(i64 8, ptr %__len) #3
  ret void
}

; Function Attrs: mustprogress nounwind uwtable
define linkonce_odr ptr @_ZNSt6vectorIdSaIdEE3endEv(ptr noundef nonnull align 8 dereferenceable(24) %this) #6 comdat align 2 {
entry:
  %retval = alloca %"class.__gnu_cxx::__normal_iterator.28", align 8
  %this.addr = alloca ptr, align 8
  store ptr %this, ptr %this.addr, align 8, !tbaa !138
  %this1 = load ptr, ptr %this.addr, align 8
  %_M_impl = getelementptr inbounds nuw %"struct.std::_Vector_base.24", ptr %this1, i32 0, i32 0
  %_M_finish = getelementptr inbounds nuw %"struct.std::_Vector_base<double, std::allocator<double>>::_Vector_impl_data", ptr %_M_impl, i32 0, i32 1
  call void @_ZN9__gnu_cxx17__normal_iteratorIPdSt6vectorIdSaIdEEEC2ERKS1_(ptr noundef nonnull align 8 dereferenceable(8) %retval, ptr noundef nonnull align 8 dereferenceable(8) %_M_finish) #3
  %coerce.dive = getelementptr inbounds nuw %"class.__gnu_cxx::__normal_iterator.28", ptr %retval, i32 0, i32 0
  %0 = load ptr, ptr %coerce.dive, align 8
  ret ptr %0
}

; Function Attrs: mustprogress nounwind uwtable
define linkonce_odr noundef nonnull align 8 dereferenceable(8) ptr @_ZNSt6vectorIdSaIdEE4backEv(ptr noundef nonnull align 8 dereferenceable(24) %this) #6 comdat align 2 {
entry:
  %this.addr = alloca ptr, align 8
  %ref.tmp = alloca %"class.__gnu_cxx::__normal_iterator.28", align 8
  %ref.tmp2 = alloca %"class.__gnu_cxx::__normal_iterator.28", align 8
  store ptr %this, ptr %this.addr, align 8, !tbaa !138
  %this1 = load ptr, ptr %this.addr, align 8
  call void @llvm.lifetime.start.p0(i64 8, ptr %ref.tmp) #3
  call void @llvm.lifetime.start.p0(i64 8, ptr %ref.tmp2) #3
  %call = call ptr @_ZNSt6vectorIdSaIdEE3endEv(ptr noundef nonnull align 8 dereferenceable(24) %this1) #3
  %coerce.dive = getelementptr inbounds nuw %"class.__gnu_cxx::__normal_iterator.28", ptr %ref.tmp2, i32 0, i32 0
  store ptr %call, ptr %coerce.dive, align 8
  %call3 = call ptr @_ZNK9__gnu_cxx17__normal_iteratorIPdSt6vectorIdSaIdEEEmiEl(ptr noundef nonnull align 8 dereferenceable(8) %ref.tmp2, i64 noundef 1) #3
  %coerce.dive4 = getelementptr inbounds nuw %"class.__gnu_cxx::__normal_iterator.28", ptr %ref.tmp, i32 0, i32 0
  store ptr %call3, ptr %coerce.dive4, align 8
  %call5 = call noundef nonnull align 8 dereferenceable(8) ptr @_ZNK9__gnu_cxx17__normal_iteratorIPdSt6vectorIdSaIdEEEdeEv(ptr noundef nonnull align 8 dereferenceable(8) %ref.tmp) #3
  call void @llvm.lifetime.end.p0(i64 8, ptr %ref.tmp2) #3
  call void @llvm.lifetime.end.p0(i64 8, ptr %ref.tmp) #3
  ret ptr %call5
}

; Function Attrs: mustprogress nounwind uwtable
define linkonce_odr void @_ZNSt15__new_allocatorIdE9constructIdJdEEEvPT_DpOT0_(ptr noundef nonnull align 1 dereferenceable(1) %this, ptr noundef %__p, ptr noundef nonnull align 8 dereferenceable(8) %__args) #6 comdat align 2 {
entry:
  %this.addr = alloca ptr, align 8
  %__p.addr = alloca ptr, align 8
  %__args.addr = alloca ptr, align 8
  store ptr %this, ptr %this.addr, align 8, !tbaa !167
  store ptr %__p, ptr %__p.addr, align 8, !tbaa !143
  store ptr %__args, ptr %__args.addr, align 8, !tbaa !143
  %this1 = load ptr, ptr %this.addr, align 8
  %0 = load ptr, ptr %__p.addr, align 8, !tbaa !143
  %1 = load ptr, ptr %__args.addr, align 8, !tbaa !143
  %2 = load double, ptr %1, align 8, !tbaa !99
  store double %2, ptr %0, align 8, !tbaa !99
  ret void
}

; Function Attrs: mustprogress uwtable
define linkonce_odr noundef i64 @_ZNKSt6vectorIdSaIdEE12_M_check_lenEmPKc(ptr noundef nonnull align 8 dereferenceable(24) %this, i64 noundef %__n, ptr noundef %__s) #4 comdat align 2 {
entry:
  %this.addr = alloca ptr, align 8
  %__n.addr = alloca i64, align 8
  %__s.addr = alloca ptr, align 8
  %__len = alloca i64, align 8
  %ref.tmp = alloca i64, align 8
  store ptr %this, ptr %this.addr, align 8, !tbaa !138
  store i64 %__n, ptr %__n.addr, align 8, !tbaa !105
  store ptr %__s, ptr %__s.addr, align 8, !tbaa !155
  %this1 = load ptr, ptr %this.addr, align 8
  %call = call noundef i64 @_ZNKSt6vectorIdSaIdEE8max_sizeEv(ptr noundef nonnull align 8 dereferenceable(24) %this1) #3
  %call2 = call noundef i64 @_ZNKSt6vectorIdSaIdEE4sizeEv(ptr noundef nonnull align 8 dereferenceable(24) %this1) #3
  %sub = sub i64 %call, %call2
  %0 = load i64, ptr %__n.addr, align 8, !tbaa !105
  %cmp = icmp ult i64 %sub, %0
  br i1 %cmp, label %if.then, label %if.end

if.then:                                          ; preds = %entry
  %1 = load ptr, ptr %__s.addr, align 8, !tbaa !155
  call void @_ZSt20__throw_length_errorPKc(ptr noundef %1) #20
  unreachable

if.end:                                           ; preds = %entry
  call void @llvm.lifetime.start.p0(i64 8, ptr %__len) #3
  %call3 = call noundef i64 @_ZNKSt6vectorIdSaIdEE4sizeEv(ptr noundef nonnull align 8 dereferenceable(24) %this1) #3
  call void @llvm.lifetime.start.p0(i64 8, ptr %ref.tmp) #3
  %call4 = call noundef i64 @_ZNKSt6vectorIdSaIdEE4sizeEv(ptr noundef nonnull align 8 dereferenceable(24) %this1) #3
  store i64 %call4, ptr %ref.tmp, align 8, !tbaa !105
  %call5 = call noundef nonnull align 8 dereferenceable(8) ptr @_ZSt3maxImERKT_S2_S2_(ptr noundef nonnull align 8 dereferenceable(8) %ref.tmp, ptr noundef nonnull align 8 dereferenceable(8) %__n.addr)
  %2 = load i64, ptr %call5, align 8, !tbaa !105
  %add = add i64 %call3, %2
  call void @llvm.lifetime.end.p0(i64 8, ptr %ref.tmp) #3
  store i64 %add, ptr %__len, align 8, !tbaa !105
  %3 = load i64, ptr %__len, align 8, !tbaa !105
  %call6 = call noundef i64 @_ZNKSt6vectorIdSaIdEE4sizeEv(ptr noundef nonnull align 8 dereferenceable(24) %this1) #3
  %cmp7 = icmp ult i64 %3, %call6
  br i1 %cmp7, label %cond.true, label %lor.lhs.false

lor.lhs.false:                                    ; preds = %if.end
  %4 = load i64, ptr %__len, align 8, !tbaa !105
  %call8 = call noundef i64 @_ZNKSt6vectorIdSaIdEE8max_sizeEv(ptr noundef nonnull align 8 dereferenceable(24) %this1) #3
  %cmp9 = icmp ugt i64 %4, %call8
  br i1 %cmp9, label %cond.true, label %cond.false

cond.true:                                        ; preds = %lor.lhs.false, %if.end
  %call10 = call noundef i64 @_ZNKSt6vectorIdSaIdEE8max_sizeEv(ptr noundef nonnull align 8 dereferenceable(24) %this1) #3
  br label %cond.end

cond.false:                                       ; preds = %lor.lhs.false
  %5 = load i64, ptr %__len, align 8, !tbaa !105
  br label %cond.end

cond.end:                                         ; preds = %cond.false, %cond.true
  %cond = phi i64 [ %call10, %cond.true ], [ %5, %cond.false ]
  call void @llvm.lifetime.end.p0(i64 8, ptr %__len) #3
  ret i64 %cond
}

; Function Attrs: inlinehint mustprogress nounwind uwtable
define linkonce_odr noundef i64 @_ZN9__gnu_cxxmiIPdSt6vectorIdSaIdEEEENS_17__normal_iteratorIT_T0_E15difference_typeERKS8_SB_(ptr noundef nonnull align 8 dereferenceable(8) %__lhs, ptr noundef nonnull align 8 dereferenceable(8) %__rhs) #9 comdat {
entry:
  %__lhs.addr = alloca ptr, align 8
  %__rhs.addr = alloca ptr, align 8
  store ptr %__lhs, ptr %__lhs.addr, align 8, !tbaa !169
  store ptr %__rhs, ptr %__rhs.addr, align 8, !tbaa !169
  %0 = load ptr, ptr %__lhs.addr, align 8, !tbaa !169
  %call = call noundef nonnull align 8 dereferenceable(8) ptr @_ZNK9__gnu_cxx17__normal_iteratorIPdSt6vectorIdSaIdEEE4baseEv(ptr noundef nonnull align 8 dereferenceable(8) %0) #3
  %1 = load ptr, ptr %call, align 8, !tbaa !143
  %2 = load ptr, ptr %__rhs.addr, align 8, !tbaa !169
  %call1 = call noundef nonnull align 8 dereferenceable(8) ptr @_ZNK9__gnu_cxx17__normal_iteratorIPdSt6vectorIdSaIdEEE4baseEv(ptr noundef nonnull align 8 dereferenceable(8) %2) #3
  %3 = load ptr, ptr %call1, align 8, !tbaa !143
  %sub.ptr.lhs.cast = ptrtoint ptr %1 to i64
  %sub.ptr.rhs.cast = ptrtoint ptr %3 to i64
  %sub.ptr.sub = sub i64 %sub.ptr.lhs.cast, %sub.ptr.rhs.cast
  %sub.ptr.div = sdiv exact i64 %sub.ptr.sub, 8
  ret i64 %sub.ptr.div
}

; Function Attrs: mustprogress nounwind uwtable
define linkonce_odr ptr @_ZNSt6vectorIdSaIdEE5beginEv(ptr noundef nonnull align 8 dereferenceable(24) %this) #6 comdat align 2 {
entry:
  %retval = alloca %"class.__gnu_cxx::__normal_iterator.28", align 8
  %this.addr = alloca ptr, align 8
  store ptr %this, ptr %this.addr, align 8, !tbaa !138
  %this1 = load ptr, ptr %this.addr, align 8
  %_M_impl = getelementptr inbounds nuw %"struct.std::_Vector_base.24", ptr %this1, i32 0, i32 0
  %_M_start = getelementptr inbounds nuw %"struct.std::_Vector_base<double, std::allocator<double>>::_Vector_impl_data", ptr %_M_impl, i32 0, i32 0
  call void @_ZN9__gnu_cxx17__normal_iteratorIPdSt6vectorIdSaIdEEEC2ERKS1_(ptr noundef nonnull align 8 dereferenceable(8) %retval, ptr noundef nonnull align 8 dereferenceable(8) %_M_start) #3
  %coerce.dive = getelementptr inbounds nuw %"class.__gnu_cxx::__normal_iterator.28", ptr %retval, i32 0, i32 0
  %0 = load ptr, ptr %coerce.dive, align 8
  ret ptr %0
}

; Function Attrs: mustprogress uwtable
define linkonce_odr noundef ptr @_ZNSt12_Vector_baseIdSaIdEE11_M_allocateEm(ptr noundef nonnull align 8 dereferenceable(24) %this, i64 noundef %__n) #4 comdat align 2 {
entry:
  %this.addr = alloca ptr, align 8
  %__n.addr = alloca i64, align 8
  store ptr %this, ptr %this.addr, align 8, !tbaa !151
  store i64 %__n, ptr %__n.addr, align 8, !tbaa !105
  %this1 = load ptr, ptr %this.addr, align 8
  %0 = load i64, ptr %__n.addr, align 8, !tbaa !105
  %cmp = icmp ne i64 %0, 0
  br i1 %cmp, label %cond.true, label %cond.false

cond.true:                                        ; preds = %entry
  %_M_impl = getelementptr inbounds nuw %"struct.std::_Vector_base.24", ptr %this1, i32 0, i32 0
  %1 = load i64, ptr %__n.addr, align 8, !tbaa !105
  %call = call noundef ptr @_ZNSt16allocator_traitsISaIdEE8allocateERS0_m(ptr noundef nonnull align 1 dereferenceable(1) %_M_impl, i64 noundef %1)
  br label %cond.end

cond.false:                                       ; preds = %entry
  br label %cond.end

cond.end:                                         ; preds = %cond.false, %cond.true
  %cond = phi ptr [ %call, %cond.true ], [ null, %cond.false ]
  ret ptr %cond
}

; Function Attrs: mustprogress nounwind uwtable
define linkonce_odr noundef ptr @_ZNSt6vectorIdSaIdEE11_S_relocateEPdS2_S2_RS0_(ptr noundef %__first, ptr noundef %__last, ptr noundef %__result, ptr noundef nonnull align 1 dereferenceable(1) %__alloc) #6 comdat align 2 {
entry:
  %__first.addr = alloca ptr, align 8
  %__last.addr = alloca ptr, align 8
  %__result.addr = alloca ptr, align 8
  %__alloc.addr = alloca ptr, align 8
  store ptr %__first, ptr %__first.addr, align 8, !tbaa !143
  store ptr %__last, ptr %__last.addr, align 8, !tbaa !143
  store ptr %__result, ptr %__result.addr, align 8, !tbaa !143
  store ptr %__alloc, ptr %__alloc.addr, align 8, !tbaa !149
  %0 = load ptr, ptr %__first.addr, align 8, !tbaa !143
  %1 = load ptr, ptr %__last.addr, align 8, !tbaa !143
  %2 = load ptr, ptr %__result.addr, align 8, !tbaa !143
  %3 = load ptr, ptr %__alloc.addr, align 8, !tbaa !149
  %call = call noundef ptr @_ZSt12__relocate_aIPdS0_SaIdEET0_T_S3_S2_RT1_(ptr noundef %0, ptr noundef %1, ptr noundef %2, ptr noundef nonnull align 1 dereferenceable(1) %3) #3
  ret ptr %call
}

; Function Attrs: mustprogress nounwind uwtable
define linkonce_odr noundef nonnull align 8 dereferenceable(8) ptr @_ZNK9__gnu_cxx17__normal_iteratorIPdSt6vectorIdSaIdEEE4baseEv(ptr noundef nonnull align 8 dereferenceable(8) %this) #6 comdat align 2 {
entry:
  %this.addr = alloca ptr, align 8
  store ptr %this, ptr %this.addr, align 8, !tbaa !169
  %this1 = load ptr, ptr %this.addr, align 8
  %_M_current = getelementptr inbounds nuw %"class.__gnu_cxx::__normal_iterator.28", ptr %this1, i32 0, i32 0
  ret ptr %_M_current
}

; Function Attrs: mustprogress uwtable
define linkonce_odr void @_ZNSt12_Vector_baseIdSaIdEE13_M_deallocateEPdm(ptr noundef nonnull align 8 dereferenceable(24) %this, ptr noundef %__p, i64 noundef %__n) #4 comdat align 2 {
entry:
  %this.addr = alloca ptr, align 8
  %__p.addr = alloca ptr, align 8
  %__n.addr = alloca i64, align 8
  store ptr %this, ptr %this.addr, align 8, !tbaa !151
  store ptr %__p, ptr %__p.addr, align 8, !tbaa !143
  store i64 %__n, ptr %__n.addr, align 8, !tbaa !105
  %this1 = load ptr, ptr %this.addr, align 8
  %0 = load ptr, ptr %__p.addr, align 8, !tbaa !143
  %tobool = icmp ne ptr %0, null
  br i1 %tobool, label %if.then, label %if.end

if.then:                                          ; preds = %entry
  %_M_impl = getelementptr inbounds nuw %"struct.std::_Vector_base.24", ptr %this1, i32 0, i32 0
  %1 = load ptr, ptr %__p.addr, align 8, !tbaa !143
  %2 = load i64, ptr %__n.addr, align 8, !tbaa !105
  call void @_ZNSt16allocator_traitsISaIdEE10deallocateERS0_Pdm(ptr noundef nonnull align 1 dereferenceable(1) %_M_impl, ptr noundef %1, i64 noundef %2)
  br label %if.end

if.end:                                           ; preds = %if.then, %entry
  ret void
}

; Function Attrs: mustprogress nounwind uwtable
define linkonce_odr noundef i64 @_ZNKSt6vectorIdSaIdEE8max_sizeEv(ptr noundef nonnull align 8 dereferenceable(24) %this) #6 comdat align 2 {
entry:
  %this.addr = alloca ptr, align 8
  store ptr %this, ptr %this.addr, align 8, !tbaa !138
  %this1 = load ptr, ptr %this.addr, align 8
  %call = call noundef nonnull align 1 dereferenceable(1) ptr @_ZNKSt12_Vector_baseIdSaIdEE19_M_get_Tp_allocatorEv(ptr noundef nonnull align 8 dereferenceable(24) %this1) #3
  %call2 = call noundef i64 @_ZNSt6vectorIdSaIdEE11_S_max_sizeERKS0_(ptr noundef nonnull align 1 dereferenceable(1) %call) #3
  ret i64 %call2
}

; Function Attrs: mustprogress nounwind uwtable
define linkonce_odr noundef i64 @_ZNKSt6vectorIdSaIdEE4sizeEv(ptr noundef nonnull align 8 dereferenceable(24) %this) #6 comdat align 2 {
entry:
  %this.addr = alloca ptr, align 8
  store ptr %this, ptr %this.addr, align 8, !tbaa !138
  %this1 = load ptr, ptr %this.addr, align 8
  %_M_impl = getelementptr inbounds nuw %"struct.std::_Vector_base.24", ptr %this1, i32 0, i32 0
  %_M_finish = getelementptr inbounds nuw %"struct.std::_Vector_base<double, std::allocator<double>>::_Vector_impl_data", ptr %_M_impl, i32 0, i32 1
  %0 = load ptr, ptr %_M_finish, align 8, !tbaa !148
  %_M_impl2 = getelementptr inbounds nuw %"struct.std::_Vector_base.24", ptr %this1, i32 0, i32 0
  %_M_start = getelementptr inbounds nuw %"struct.std::_Vector_base<double, std::allocator<double>>::_Vector_impl_data", ptr %_M_impl2, i32 0, i32 0
  %1 = load ptr, ptr %_M_start, align 8, !tbaa !140
  %sub.ptr.lhs.cast = ptrtoint ptr %0 to i64
  %sub.ptr.rhs.cast = ptrtoint ptr %1 to i64
  %sub.ptr.sub = sub i64 %sub.ptr.lhs.cast, %sub.ptr.rhs.cast
  %sub.ptr.div = sdiv exact i64 %sub.ptr.sub, 8
  ret i64 %sub.ptr.div
}

; Function Attrs: mustprogress nounwind uwtable
define linkonce_odr noundef i64 @_ZNSt6vectorIdSaIdEE11_S_max_sizeERKS0_(ptr noundef nonnull align 1 dereferenceable(1) %__a) #6 comdat align 2 {
entry:
  %__a.addr = alloca ptr, align 8
  %__diffmax = alloca i64, align 8
  %__allocmax = alloca i64, align 8
  store ptr %__a, ptr %__a.addr, align 8, !tbaa !149
  call void @llvm.lifetime.start.p0(i64 8, ptr %__diffmax) #3
  store i64 1152921504606846975, ptr %__diffmax, align 8, !tbaa !105
  call void @llvm.lifetime.start.p0(i64 8, ptr %__allocmax) #3
  %0 = load ptr, ptr %__a.addr, align 8, !tbaa !149
  %call = call noundef i64 @_ZNSt16allocator_traitsISaIdEE8max_sizeERKS0_(ptr noundef nonnull align 1 dereferenceable(1) %0) #3
  store i64 %call, ptr %__allocmax, align 8, !tbaa !105
  %call1 = call noundef nonnull align 8 dereferenceable(8) ptr @_ZSt3minImERKT_S2_S2_(ptr noundef nonnull align 8 dereferenceable(8) %__diffmax, ptr noundef nonnull align 8 dereferenceable(8) %__allocmax)
  %1 = load i64, ptr %call1, align 8, !tbaa !105
  call void @llvm.lifetime.end.p0(i64 8, ptr %__allocmax) #3
  call void @llvm.lifetime.end.p0(i64 8, ptr %__diffmax) #3
  ret i64 %1
}

; Function Attrs: mustprogress nounwind uwtable
define linkonce_odr noundef nonnull align 1 dereferenceable(1) ptr @_ZNKSt12_Vector_baseIdSaIdEE19_M_get_Tp_allocatorEv(ptr noundef nonnull align 8 dereferenceable(24) %this) #6 comdat align 2 {
entry:
  %this.addr = alloca ptr, align 8
  store ptr %this, ptr %this.addr, align 8, !tbaa !151
  %this1 = load ptr, ptr %this.addr, align 8
  %_M_impl = getelementptr inbounds nuw %"struct.std::_Vector_base.24", ptr %this1, i32 0, i32 0
  ret ptr %_M_impl
}

; Function Attrs: mustprogress nounwind uwtable
define linkonce_odr noundef i64 @_ZNSt16allocator_traitsISaIdEE8max_sizeERKS0_(ptr noundef nonnull align 1 dereferenceable(1) %__a) #6 comdat align 2 {
entry:
  %__a.addr = alloca ptr, align 8
  store ptr %__a, ptr %__a.addr, align 8, !tbaa !149
  %0 = load ptr, ptr %__a.addr, align 8, !tbaa !149
  %call = call noundef i64 @_ZNKSt15__new_allocatorIdE8max_sizeEv(ptr noundef nonnull align 1 dereferenceable(1) %0) #3
  ret i64 %call
}

; Function Attrs: mustprogress nounwind uwtable
define linkonce_odr noundef i64 @_ZNKSt15__new_allocatorIdE8max_sizeEv(ptr noundef nonnull align 1 dereferenceable(1) %this) #6 comdat align 2 {
entry:
  %this.addr = alloca ptr, align 8
  store ptr %this, ptr %this.addr, align 8, !tbaa !167
  %this1 = load ptr, ptr %this.addr, align 8
  %call = call noundef i64 @_ZNKSt15__new_allocatorIdE11_M_max_sizeEv(ptr noundef nonnull align 1 dereferenceable(1) %this1) #3
  ret i64 %call
}

; Function Attrs: mustprogress nounwind uwtable
define linkonce_odr noundef i64 @_ZNKSt15__new_allocatorIdE11_M_max_sizeEv(ptr noundef nonnull align 1 dereferenceable(1) %this) #6 comdat align 2 {
entry:
  %this.addr = alloca ptr, align 8
  store ptr %this, ptr %this.addr, align 8, !tbaa !167
  %this1 = load ptr, ptr %this.addr, align 8
  ret i64 1152921504606846975
}

; Function Attrs: mustprogress nounwind uwtable
define linkonce_odr void @_ZN9__gnu_cxx17__normal_iteratorIPdSt6vectorIdSaIdEEEC2ERKS1_(ptr noundef nonnull align 8 dereferenceable(8) %this, ptr noundef nonnull align 8 dereferenceable(8) %__i) unnamed_addr #6 comdat align 2 {
entry:
  %this.addr = alloca ptr, align 8
  %__i.addr = alloca ptr, align 8
  store ptr %this, ptr %this.addr, align 8, !tbaa !169
  store ptr %__i, ptr %__i.addr, align 8, !tbaa !171
  %this1 = load ptr, ptr %this.addr, align 8
  %_M_current = getelementptr inbounds nuw %"class.__gnu_cxx::__normal_iterator.28", ptr %this1, i32 0, i32 0
  %0 = load ptr, ptr %__i.addr, align 8, !tbaa !171
  %1 = load ptr, ptr %0, align 8, !tbaa !143
  store ptr %1, ptr %_M_current, align 8, !tbaa !173
  ret void
}

; Function Attrs: mustprogress uwtable
define linkonce_odr noundef ptr @_ZNSt16allocator_traitsISaIdEE8allocateERS0_m(ptr noundef nonnull align 1 dereferenceable(1) %__a, i64 noundef %__n) #4 comdat align 2 {
entry:
  %__a.addr = alloca ptr, align 8
  %__n.addr = alloca i64, align 8
  store ptr %__a, ptr %__a.addr, align 8, !tbaa !149
  store i64 %__n, ptr %__n.addr, align 8, !tbaa !105
  %0 = load ptr, ptr %__a.addr, align 8, !tbaa !149
  %1 = load i64, ptr %__n.addr, align 8, !tbaa !105
  %call = call noundef ptr @_ZNSt15__new_allocatorIdE8allocateEmPKv(ptr noundef nonnull align 1 dereferenceable(1) %0, i64 noundef %1, ptr noundef null)
  ret ptr %call
}

; Function Attrs: mustprogress uwtable
define linkonce_odr noundef ptr @_ZNSt15__new_allocatorIdE8allocateEmPKv(ptr noundef nonnull align 1 dereferenceable(1) %this, i64 noundef %__n, ptr noundef %0) #4 comdat align 2 {
entry:
  %this.addr = alloca ptr, align 8
  %__n.addr = alloca i64, align 8
  %.addr = alloca ptr, align 8
  store ptr %this, ptr %this.addr, align 8, !tbaa !167
  store i64 %__n, ptr %__n.addr, align 8, !tbaa !105
  store ptr %0, ptr %.addr, align 8, !tbaa !165
  %this1 = load ptr, ptr %this.addr, align 8
  %1 = load i64, ptr %__n.addr, align 8, !tbaa !105
  %call = call noundef i64 @_ZNKSt15__new_allocatorIdE11_M_max_sizeEv(ptr noundef nonnull align 1 dereferenceable(1) %this1) #3
  %cmp = icmp ugt i64 %1, %call
  %conv = zext i1 %cmp to i64
  %expval = call i64 @llvm.expect.i64(i64 %conv, i64 0)
  %tobool = icmp ne i64 %expval, 0
  br i1 %tobool, label %if.then, label %if.end4

if.then:                                          ; preds = %entry
  %2 = load i64, ptr %__n.addr, align 8, !tbaa !105
  %cmp2 = icmp ugt i64 %2, 2305843009213693951
  br i1 %cmp2, label %if.then3, label %if.end

if.then3:                                         ; preds = %if.then
  call void @_ZSt28__throw_bad_array_new_lengthv() #20
  unreachable

if.end:                                           ; preds = %if.then
  call void @_ZSt17__throw_bad_allocv() #20
  unreachable

if.end4:                                          ; preds = %entry
  %3 = load i64, ptr %__n.addr, align 8, !tbaa !105
  %mul = mul i64 %3, 8
  %call5 = call noalias noundef nonnull ptr @_Znwm(i64 noundef %mul) #21
  ret ptr %call5
}

; Function Attrs: inlinehint mustprogress nounwind uwtable
define linkonce_odr noundef ptr @_ZSt12__relocate_aIPdS0_SaIdEET0_T_S3_S2_RT1_(ptr noundef %__first, ptr noundef %__last, ptr noundef %__result, ptr noundef nonnull align 1 dereferenceable(1) %__alloc) #9 comdat {
entry:
  %__first.addr = alloca ptr, align 8
  %__last.addr = alloca ptr, align 8
  %__result.addr = alloca ptr, align 8
  %__alloc.addr = alloca ptr, align 8
  store ptr %__first, ptr %__first.addr, align 8, !tbaa !143
  store ptr %__last, ptr %__last.addr, align 8, !tbaa !143
  store ptr %__result, ptr %__result.addr, align 8, !tbaa !143
  store ptr %__alloc, ptr %__alloc.addr, align 8, !tbaa !149
  %0 = load ptr, ptr %__first.addr, align 8, !tbaa !143
  %call = call noundef ptr @_ZSt12__niter_baseIPdET_S1_(ptr noundef %0) #3
  %1 = load ptr, ptr %__last.addr, align 8, !tbaa !143
  %call1 = call noundef ptr @_ZSt12__niter_baseIPdET_S1_(ptr noundef %1) #3
  %2 = load ptr, ptr %__result.addr, align 8, !tbaa !143
  %call2 = call noundef ptr @_ZSt12__niter_baseIPdET_S1_(ptr noundef %2) #3
  %3 = load ptr, ptr %__alloc.addr, align 8, !tbaa !149
  %call3 = call noundef ptr @_ZSt14__relocate_a_1IddENSt9enable_ifIXsr3std24__is_bitwise_relocatableIT_EE5valueEPS1_E4typeES2_S2_S2_RSaIT0_E(ptr noundef %call, ptr noundef %call1, ptr noundef %call2, ptr noundef nonnull align 1 dereferenceable(1) %3) #3
  ret ptr %call3
}

; Function Attrs: inlinehint mustprogress nounwind uwtable
define linkonce_odr noundef ptr @_ZSt14__relocate_a_1IddENSt9enable_ifIXsr3std24__is_bitwise_relocatableIT_EE5valueEPS1_E4typeES2_S2_S2_RSaIT0_E(ptr noundef %__first, ptr noundef %__last, ptr noundef %__result, ptr noundef nonnull align 1 dereferenceable(1) %__alloc) #9 comdat {
entry:
  %__first.addr = alloca ptr, align 8
  %__last.addr = alloca ptr, align 8
  %__result.addr = alloca ptr, align 8
  %__alloc.addr = alloca ptr, align 8
  %__count = alloca i64, align 8
  store ptr %__first, ptr %__first.addr, align 8, !tbaa !143
  store ptr %__last, ptr %__last.addr, align 8, !tbaa !143
  store ptr %__result, ptr %__result.addr, align 8, !tbaa !143
  store ptr %__alloc, ptr %__alloc.addr, align 8, !tbaa !149
  call void @llvm.lifetime.start.p0(i64 8, ptr %__count) #3
  %0 = load ptr, ptr %__last.addr, align 8, !tbaa !143
  %1 = load ptr, ptr %__first.addr, align 8, !tbaa !143
  %sub.ptr.lhs.cast = ptrtoint ptr %0 to i64
  %sub.ptr.rhs.cast = ptrtoint ptr %1 to i64
  %sub.ptr.sub = sub i64 %sub.ptr.lhs.cast, %sub.ptr.rhs.cast
  %sub.ptr.div = sdiv exact i64 %sub.ptr.sub, 8
  store i64 %sub.ptr.div, ptr %__count, align 8, !tbaa !105
  %2 = load i64, ptr %__count, align 8, !tbaa !105
  %cmp = icmp sgt i64 %2, 0
  br i1 %cmp, label %if.then, label %if.end

if.then:                                          ; preds = %entry
  %3 = load ptr, ptr %__result.addr, align 8, !tbaa !143
  %4 = load ptr, ptr %__first.addr, align 8, !tbaa !143
  %5 = load i64, ptr %__count, align 8, !tbaa !105
  %mul = mul i64 %5, 8
  call void @llvm.memmove.p0.p0.i64(ptr align 8 %3, ptr align 8 %4, i64 %mul, i1 false)
  br label %if.end

if.end:                                           ; preds = %if.then, %entry
  %6 = load ptr, ptr %__result.addr, align 8, !tbaa !143
  %7 = load i64, ptr %__count, align 8, !tbaa !105
  %add.ptr = getelementptr inbounds double, ptr %6, i64 %7
  call void @llvm.lifetime.end.p0(i64 8, ptr %__count) #3
  ret ptr %add.ptr
}

; Function Attrs: inlinehint mustprogress nounwind uwtable
define linkonce_odr noundef ptr @_ZSt12__niter_baseIPdET_S1_(ptr noundef %__it) #9 comdat {
entry:
  %__it.addr = alloca ptr, align 8
  store ptr %__it, ptr %__it.addr, align 8, !tbaa !143
  %0 = load ptr, ptr %__it.addr, align 8, !tbaa !143
  ret ptr %0
}

; Function Attrs: mustprogress uwtable
define linkonce_odr void @_ZNSt16allocator_traitsISaIdEE10deallocateERS0_Pdm(ptr noundef nonnull align 1 dereferenceable(1) %__a, ptr noundef %__p, i64 noundef %__n) #4 comdat align 2 {
entry:
  %__a.addr = alloca ptr, align 8
  %__p.addr = alloca ptr, align 8
  %__n.addr = alloca i64, align 8
  store ptr %__a, ptr %__a.addr, align 8, !tbaa !149
  store ptr %__p, ptr %__p.addr, align 8, !tbaa !143
  store i64 %__n, ptr %__n.addr, align 8, !tbaa !105
  %0 = load ptr, ptr %__a.addr, align 8, !tbaa !149
  %1 = load ptr, ptr %__p.addr, align 8, !tbaa !143
  %2 = load i64, ptr %__n.addr, align 8, !tbaa !105
  call void @_ZNSt15__new_allocatorIdE10deallocateEPdm(ptr noundef nonnull align 1 dereferenceable(1) %0, ptr noundef %1, i64 noundef %2)
  ret void
}

; Function Attrs: mustprogress nounwind uwtable
define linkonce_odr void @_ZNSt15__new_allocatorIdE10deallocateEPdm(ptr noundef nonnull align 1 dereferenceable(1) %this, ptr noundef %__p, i64 noundef %__n) #6 comdat align 2 {
entry:
  %this.addr = alloca ptr, align 8
  %__p.addr = alloca ptr, align 8
  %__n.addr = alloca i64, align 8
  store ptr %this, ptr %this.addr, align 8, !tbaa !167
  store ptr %__p, ptr %__p.addr, align 8, !tbaa !143
  store i64 %__n, ptr %__n.addr, align 8, !tbaa !105
  %this1 = load ptr, ptr %this.addr, align 8
  %0 = load ptr, ptr %__p.addr, align 8, !tbaa !143
  %1 = load i64, ptr %__n.addr, align 8, !tbaa !105
  %mul = mul i64 %1, 8
  call void @_ZdlPvm(ptr noundef %0, i64 noundef %mul) #22
  ret void
}

; Function Attrs: mustprogress nounwind uwtable
define linkonce_odr ptr @_ZNK9__gnu_cxx17__normal_iteratorIPdSt6vectorIdSaIdEEEmiEl(ptr noundef nonnull align 8 dereferenceable(8) %this, i64 noundef %__n) #6 comdat align 2 {
entry:
  %retval = alloca %"class.__gnu_cxx::__normal_iterator.28", align 8
  %this.addr = alloca ptr, align 8
  %__n.addr = alloca i64, align 8
  %ref.tmp = alloca ptr, align 8
  store ptr %this, ptr %this.addr, align 8, !tbaa !169
  store i64 %__n, ptr %__n.addr, align 8, !tbaa !105
  %this1 = load ptr, ptr %this.addr, align 8
  call void @llvm.lifetime.start.p0(i64 8, ptr %ref.tmp) #3
  %_M_current = getelementptr inbounds nuw %"class.__gnu_cxx::__normal_iterator.28", ptr %this1, i32 0, i32 0
  %0 = load ptr, ptr %_M_current, align 8, !tbaa !173
  %1 = load i64, ptr %__n.addr, align 8, !tbaa !105
  %idx.neg = sub i64 0, %1
  %add.ptr = getelementptr inbounds double, ptr %0, i64 %idx.neg
  store ptr %add.ptr, ptr %ref.tmp, align 8, !tbaa !143
  call void @_ZN9__gnu_cxx17__normal_iteratorIPdSt6vectorIdSaIdEEEC2ERKS1_(ptr noundef nonnull align 8 dereferenceable(8) %retval, ptr noundef nonnull align 8 dereferenceable(8) %ref.tmp) #3
  call void @llvm.lifetime.end.p0(i64 8, ptr %ref.tmp) #3
  %coerce.dive = getelementptr inbounds nuw %"class.__gnu_cxx::__normal_iterator.28", ptr %retval, i32 0, i32 0
  %2 = load ptr, ptr %coerce.dive, align 8
  ret ptr %2
}

; Function Attrs: mustprogress nounwind uwtable
define linkonce_odr noundef nonnull align 8 dereferenceable(8) ptr @_ZNK9__gnu_cxx17__normal_iteratorIPdSt6vectorIdSaIdEEEdeEv(ptr noundef nonnull align 8 dereferenceable(8) %this) #6 comdat align 2 {
entry:
  %this.addr = alloca ptr, align 8
  store ptr %this, ptr %this.addr, align 8, !tbaa !169
  %this1 = load ptr, ptr %this.addr, align 8
  %_M_current = getelementptr inbounds nuw %"class.__gnu_cxx::__normal_iterator.28", ptr %this1, i32 0, i32 0
  %0 = load ptr, ptr %_M_current, align 8, !tbaa !173
  ret ptr %0
}

; Function Attrs: mustprogress uwtable
define noundef nonnull align 8 dereferenceable(48) ptr @_ZN6openmc13FilterBinIterppEv(ptr noundef nonnull align 8 dereferenceable(48) %this) #4 align 2 {
entry:
  %this.addr = alloca ptr, align 8
  %done_looping = alloca i8, align 1
  %i = alloca i32, align 4
  %cleanup.dest.slot = alloca i32, align 4
  %i_filt = alloca i32, align 4
  %match = alloca ptr, align 8
  %done_looping21 = alloca i8, align 1
  %i22 = alloca i32, align 4
  %match32 = alloca ptr, align 8
  store ptr %this, ptr %this.addr, align 8, !tbaa !24
  %this1 = load ptr, ptr %this.addr, align 8
  %is_big_ = getelementptr inbounds nuw %"class.openmc::FilterBinIter", ptr %this1, i32 0, i32 4
  %0 = load i8, ptr %is_big_, align 8, !tbaa !57, !range !63, !noundef !64
  %loadedv = trunc i8 %0 to i1
  br i1 %loadedv, label %if.then, label %if.else20

if.then:                                          ; preds = %entry
  call void @llvm.lifetime.start.p0(i64 1, ptr %done_looping) #3
  store i8 1, ptr %done_looping, align 1, !tbaa !107
  call void @llvm.lifetime.start.p0(i64 4, ptr %i) #3
  %tally_ = getelementptr inbounds nuw %"class.openmc::FilterBinIter", ptr %this1, i32 0, i32 5
  %1 = load ptr, ptr %tally_, align 8, !tbaa !59
  %call = call noundef nonnull align 8 dereferenceable(24) ptr @_ZNK6openmc5Tally7filtersEv(ptr noundef nonnull align 8 dereferenceable(240) %1)
  %call2 = call noundef i64 @_ZNK6openmc6vectorIiE4sizeEv(ptr noundef nonnull align 8 dereferenceable(24) %call)
  %sub = sub i64 %call2, 1
  %conv = trunc i64 %sub to i32
  store i32 %conv, ptr %i, align 4, !tbaa !58
  br label %for.cond

for.cond:                                         ; preds = %for.inc, %if.then
  %2 = load i32, ptr %i, align 4, !tbaa !58
  %cmp = icmp sge i32 %2, 0
  br i1 %cmp, label %for.body, label %for.cond.cleanup

for.cond.cleanup:                                 ; preds = %for.cond
  store i32 2, ptr %cleanup.dest.slot, align 4
  br label %cleanup15

for.body:                                         ; preds = %for.cond
  call void @llvm.lifetime.start.p0(i64 4, ptr %i_filt) #3
  %tally_3 = getelementptr inbounds nuw %"class.openmc::FilterBinIter", ptr %this1, i32 0, i32 5
  %3 = load ptr, ptr %tally_3, align 8, !tbaa !59
  %4 = load i32, ptr %i, align 4, !tbaa !58
  %call4 = call noundef i32 @_ZNK6openmc5Tally7filtersEi(ptr noundef nonnull align 8 dereferenceable(240) %3, i32 noundef %4)
  store i32 %call4, ptr %i_filt, align 4, !tbaa !58
  call void @llvm.lifetime.start.p0(i64 8, ptr %match) #3
  %big_filter_matches_ = getelementptr inbounds nuw %"class.openmc::FilterBinIter", ptr %this1, i32 0, i32 3
  %5 = load ptr, ptr %big_filter_matches_, align 8, !tbaa !86
  %6 = load i32, ptr %i_filt, align 4, !tbaa !58
  %conv5 = sext i32 %6 to i64
  %call6 = call noundef nonnull align 8 dereferenceable(53) ptr @_ZN6openmc6vectorINS_14BigFilterMatchEEixEm(ptr noundef nonnull align 8 dereferenceable(24) %5, i64 noundef %conv5)
  store ptr %call6, ptr %match, align 8, !tbaa !87
  %7 = load ptr, ptr %match, align 8, !tbaa !87
  %i_bin_ = getelementptr inbounds nuw %"class.openmc::BigFilterMatch", ptr %7, i32 0, i32 2
  %8 = load i32, ptr %i_bin_, align 8, !tbaa !89
  %conv7 = sext i32 %8 to i64
  %9 = load ptr, ptr %match, align 8, !tbaa !87
  %bins_ = getelementptr inbounds nuw %"class.openmc::BigFilterMatch", ptr %9, i32 0, i32 0
  %call8 = call noundef i64 @_ZNKSt6vectorIiSaIiEE4sizeEv(ptr noundef nonnull align 8 dereferenceable(24) %bins_) #3
  %sub9 = sub i64 %call8, 1
  %cmp10 = icmp ult i64 %conv7, %sub9
  br i1 %cmp10, label %if.then11, label %if.else

if.then11:                                        ; preds = %for.body
  %10 = load ptr, ptr %match, align 8, !tbaa !87
  %i_bin_12 = getelementptr inbounds nuw %"class.openmc::BigFilterMatch", ptr %10, i32 0, i32 2
  %11 = load i32, ptr %i_bin_12, align 8, !tbaa !89
  %inc = add nsw i32 %11, 1
  store i32 %inc, ptr %i_bin_12, align 8, !tbaa !89
  store i8 0, ptr %done_looping, align 1, !tbaa !107
  store i32 2, ptr %cleanup.dest.slot, align 4
  br label %cleanup

if.else:                                          ; preds = %for.body
  %12 = load ptr, ptr %match, align 8, !tbaa !87
  %i_bin_13 = getelementptr inbounds nuw %"class.openmc::BigFilterMatch", ptr %12, i32 0, i32 2
  store i32 0, ptr %i_bin_13, align 8, !tbaa !89
  br label %if.end

if.end:                                           ; preds = %if.else
  store i32 0, ptr %cleanup.dest.slot, align 4
  br label %cleanup

cleanup:                                          ; preds = %if.end, %if.then11
  call void @llvm.lifetime.end.p0(i64 8, ptr %match) #3
  call void @llvm.lifetime.end.p0(i64 4, ptr %i_filt) #3
  %cleanup.dest = load i32, ptr %cleanup.dest.slot, align 4
  switch i32 %cleanup.dest, label %cleanup15 [
    i32 0, label %cleanup.cont
  ]

cleanup.cont:                                     ; preds = %cleanup
  br label %for.inc

for.inc:                                          ; preds = %cleanup.cont
  %13 = load i32, ptr %i, align 4, !tbaa !58
  %dec = add nsw i32 %13, -1
  store i32 %dec, ptr %i, align 4, !tbaa !58
  br label %for.cond, !llvm.loop !175

cleanup15:                                        ; preds = %cleanup, %for.cond.cleanup
  call void @llvm.lifetime.end.p0(i64 4, ptr %i) #3
  br label %for.end

for.end:                                          ; preds = %cleanup15
  %14 = load i8, ptr %done_looping, align 1, !tbaa !107, !range !63, !noundef !64
  %loadedv16 = trunc i8 %14 to i1
  br i1 %loadedv16, label %if.then17, label %if.else18

if.then17:                                        ; preds = %for.end
  %index_ = getelementptr inbounds nuw %"class.openmc::FilterBinIter", ptr %this1, i32 0, i32 0
  store i32 -1, ptr %index_, align 8, !tbaa !33
  br label %if.end19

if.else18:                                        ; preds = %for.end
  call void @_ZN6openmc13FilterBinIter20compute_index_weightEv(ptr noundef nonnull align 8 dereferenceable(48) %this1)
  br label %if.end19

if.end19:                                         ; preds = %if.else18, %if.then17
  call void @llvm.lifetime.end.p0(i64 1, ptr %done_looping) #3
  br label %if.end54

if.else20:                                        ; preds = %entry
  call void @llvm.lifetime.start.p0(i64 1, ptr %done_looping21) #3
  store i8 1, ptr %done_looping21, align 1, !tbaa !107
  call void @llvm.lifetime.start.p0(i64 4, ptr %i22) #3
  %tally_23 = getelementptr inbounds nuw %"class.openmc::FilterBinIter", ptr %this1, i32 0, i32 5
  %15 = load ptr, ptr %tally_23, align 8, !tbaa !59
  %call24 = call noundef nonnull align 8 dereferenceable(24) ptr @_ZNK6openmc5Tally7filtersEv(ptr noundef nonnull align 8 dereferenceable(240) %15)
  %call25 = call noundef i64 @_ZNK6openmc6vectorIiE4sizeEv(ptr noundef nonnull align 8 dereferenceable(24) %call24)
  %sub26 = sub i64 %call25, 1
  %conv27 = trunc i64 %sub26 to i32
  store i32 %conv27, ptr %i22, align 4, !tbaa !58
  br label %for.cond28

for.cond28:                                       ; preds = %for.inc45, %if.else20
  %16 = load i32, ptr %i22, align 4, !tbaa !58
  %cmp29 = icmp sge i32 %16, 0
  br i1 %cmp29, label %for.body31, label %for.cond.cleanup30

for.cond.cleanup30:                               ; preds = %for.cond28
  store i32 5, ptr %cleanup.dest.slot, align 4
  br label %cleanup47

for.body31:                                       ; preds = %for.cond28
  call void @llvm.lifetime.start.p0(i64 8, ptr %match32) #3
  %filter_matches_ = getelementptr inbounds nuw %"class.openmc::FilterBinIter", ptr %this1, i32 0, i32 2
  %17 = load ptr, ptr %filter_matches_, align 8, !tbaa !56
  %18 = load i32, ptr %i22, align 4, !tbaa !58
  %idxprom = sext i32 %18 to i64
  %arrayidx = getelementptr inbounds %"class.openmc::FilterMatch", ptr %17, i64 %idxprom
  store ptr %arrayidx, ptr %match32, align 8, !tbaa !60
  %19 = load ptr, ptr %match32, align 8, !tbaa !60
  %i_bin_33 = getelementptr inbounds nuw %"class.openmc::FilterMatch", ptr %19, i32 0, i32 4
  %20 = load i32, ptr %i_bin_33, align 4, !tbaa !83
  %21 = load ptr, ptr %match32, align 8, !tbaa !60
  %bins_weights_length_ = getelementptr inbounds nuw %"class.openmc::FilterMatch", ptr %21, i32 0, i32 3
  %22 = load i32, ptr %bins_weights_length_, align 8, !tbaa !65
  %sub34 = sub nsw i32 %22, 1
  %cmp35 = icmp slt i32 %20, %sub34
  br i1 %cmp35, label %if.then36, label %if.else39

if.then36:                                        ; preds = %for.body31
  %23 = load ptr, ptr %match32, align 8, !tbaa !60
  %i_bin_37 = getelementptr inbounds nuw %"class.openmc::FilterMatch", ptr %23, i32 0, i32 4
  %24 = load i32, ptr %i_bin_37, align 4, !tbaa !83
  %inc38 = add nsw i32 %24, 1
  store i32 %inc38, ptr %i_bin_37, align 4, !tbaa !83
  store i8 0, ptr %done_looping21, align 1, !tbaa !107
  store i32 5, ptr %cleanup.dest.slot, align 4
  br label %cleanup42

if.else39:                                        ; preds = %for.body31
  %25 = load ptr, ptr %match32, align 8, !tbaa !60
  %i_bin_40 = getelementptr inbounds nuw %"class.openmc::FilterMatch", ptr %25, i32 0, i32 4
  store i32 0, ptr %i_bin_40, align 4, !tbaa !83
  br label %if.end41

if.end41:                                         ; preds = %if.else39
  store i32 0, ptr %cleanup.dest.slot, align 4
  br label %cleanup42

cleanup42:                                        ; preds = %if.end41, %if.then36
  call void @llvm.lifetime.end.p0(i64 8, ptr %match32) #3
  %cleanup.dest43 = load i32, ptr %cleanup.dest.slot, align 4
  switch i32 %cleanup.dest43, label %cleanup47 [
    i32 0, label %cleanup.cont44
  ]

cleanup.cont44:                                   ; preds = %cleanup42
  br label %for.inc45

for.inc45:                                        ; preds = %cleanup.cont44
  %26 = load i32, ptr %i22, align 4, !tbaa !58
  %dec46 = add nsw i32 %26, -1
  store i32 %dec46, ptr %i22, align 4, !tbaa !58
  br label %for.cond28, !llvm.loop !176

cleanup47:                                        ; preds = %cleanup42, %for.cond.cleanup30
  call void @llvm.lifetime.end.p0(i64 4, ptr %i22) #3
  br label %for.end48

for.end48:                                        ; preds = %cleanup47
  %27 = load i8, ptr %done_looping21, align 1, !tbaa !107, !range !63, !noundef !64
  %loadedv49 = trunc i8 %27 to i1
  br i1 %loadedv49, label %if.then50, label %if.else52

if.then50:                                        ; preds = %for.end48
  %index_51 = getelementptr inbounds nuw %"class.openmc::FilterBinIter", ptr %this1, i32 0, i32 0
  store i32 -1, ptr %index_51, align 8, !tbaa !33
  br label %if.end53

if.else52:                                        ; preds = %for.end48
  call void @_ZN6openmc13FilterBinIter20compute_index_weightEv(ptr noundef nonnull align 8 dereferenceable(48) %this1)
  br label %if.end53

if.end53:                                         ; preds = %if.else52, %if.then50
  call void @llvm.lifetime.end.p0(i64 1, ptr %done_looping21) #3
  br label %if.end54

if.end54:                                         ; preds = %if.end53, %if.end19
  ret ptr %this1
}

; Function Attrs: mustprogress nounwind uwtable
define linkonce_odr noundef nonnull align 4 dereferenceable(4) ptr @_ZNSt6vectorIiSaIiEEixEm(ptr noundef nonnull align 8 dereferenceable(24) %this, i64 noundef %__n) #6 comdat align 2 {
entry:
  %this.addr = alloca ptr, align 8
  %__n.addr = alloca i64, align 8
  store ptr %this, ptr %this.addr, align 8, !tbaa !135
  store i64 %__n, ptr %__n.addr, align 8, !tbaa !105
  %this1 = load ptr, ptr %this.addr, align 8
  %_M_impl = getelementptr inbounds nuw %"struct.std::_Vector_base.19", ptr %this1, i32 0, i32 0
  %_M_start = getelementptr inbounds nuw %"struct.std::_Vector_base<int, std::allocator<int>>::_Vector_impl_data", ptr %_M_impl, i32 0, i32 0
  %0 = load ptr, ptr %_M_start, align 8, !tbaa !137
  %1 = load i64, ptr %__n.addr, align 8, !tbaa !105
  %add.ptr = getelementptr inbounds nuw i32, ptr %0, i64 %1
  ret ptr %add.ptr
}

; Function Attrs: mustprogress nounwind uwtable
define linkonce_odr noundef i32 @_ZNK6openmc5Tally7stridesEi(ptr noundef nonnull align 8 dereferenceable(240) %this, i32 noundef %i) #6 comdat align 2 {
entry:
  %this.addr = alloca ptr, align 8
  %i.addr = alloca i32, align 4
  store ptr %this, ptr %this.addr, align 8, !tbaa !29
  store i32 %i, ptr %i.addr, align 4, !tbaa !58
  %this1 = load ptr, ptr %this.addr, align 8
  %strides_ = getelementptr inbounds nuw %"class.openmc::Tally", ptr %this1, i32 0, i32 17
  %0 = load i32, ptr %i.addr, align 4, !tbaa !58
  %conv = sext i32 %0 to i64
  %call = call noundef nonnull align 4 dereferenceable(4) ptr @_ZNK6openmc6vectorIiEixEm(ptr noundef nonnull align 8 dereferenceable(24) %strides_, i64 noundef %conv)
  %1 = load i32, ptr %call, align 4, !tbaa !58
  ret i32 %1
}

; Function Attrs: mustprogress nounwind uwtable
define linkonce_odr noundef nonnull align 8 dereferenceable(8) ptr @_ZNSt6vectorIdSaIdEEixEm(ptr noundef nonnull align 8 dereferenceable(24) %this, i64 noundef %__n) #6 comdat align 2 {
entry:
  %this.addr = alloca ptr, align 8
  %__n.addr = alloca i64, align 8
  store ptr %this, ptr %this.addr, align 8, !tbaa !138
  store i64 %__n, ptr %__n.addr, align 8, !tbaa !105
  %this1 = load ptr, ptr %this.addr, align 8
  %_M_impl = getelementptr inbounds nuw %"struct.std::_Vector_base.24", ptr %this1, i32 0, i32 0
  %_M_start = getelementptr inbounds nuw %"struct.std::_Vector_base<double, std::allocator<double>>::_Vector_impl_data", ptr %_M_impl, i32 0, i32 0
  %0 = load ptr, ptr %_M_start, align 8, !tbaa !140
  %1 = load i64, ptr %__n.addr, align 8, !tbaa !105
  %add.ptr = getelementptr inbounds nuw double, ptr %0, i64 %1
  ret ptr %add.ptr
}

; Function Attrs: mustprogress uwtable
define void @_ZN6openmc24score_fission_delayed_dgEiidiPNS_11FilterMatchE(i32 noundef %i_tally, i32 noundef %d_bin, double noundef %score, i32 noundef %score_index, ptr noundef %filter_matches) #4 {
entry:
  %i_tally.addr = alloca i32, align 4
  %d_bin.addr = alloca i32, align 4
  %score.addr = alloca double, align 8
  %score_index.addr = alloca i32, align 4
  %filter_matches.addr = alloca ptr, align 8
  %tally = alloca ptr, align 8
  %i_filt = alloca i32, align 4
  %dg_match = alloca ptr, align 8
  %i_bin = alloca i32, align 4
  %original_bin = alloca i32, align 4
  %filter_index = alloca i32, align 4
  %filter_weight = alloca double, align 8
  %i = alloca i32, align 4
  %i_filt10 = alloca i32, align 4
  %match = alloca ptr, align 8
  %i_bin14 = alloca i32, align 4
  store i32 %i_tally, ptr %i_tally.addr, align 4, !tbaa !58
  store i32 %d_bin, ptr %d_bin.addr, align 4, !tbaa !58
  store double %score, ptr %score.addr, align 8, !tbaa !99
  store i32 %score_index, ptr %score_index.addr, align 4, !tbaa !58
  store ptr %filter_matches, ptr %filter_matches.addr, align 8, !tbaa !60
  call void @llvm.lifetime.start.p0(i64 8, ptr %tally) #3
  %0 = load ptr, ptr @_ZN6openmc5model7talliesE, align 8, !tbaa !29
  %1 = load i32, ptr %i_tally.addr, align 4, !tbaa !58
  %idxprom = sext i32 %1 to i64
  %arrayidx = getelementptr inbounds %"class.openmc::Tally", ptr %0, i64 %idxprom
  store ptr %arrayidx, ptr %tally, align 8, !tbaa !29
  call void @llvm.lifetime.start.p0(i64 4, ptr %i_filt) #3
  %2 = load ptr, ptr %tally, align 8, !tbaa !29
  %3 = load ptr, ptr %tally, align 8, !tbaa !29
  %delayedgroup_filter_ = getelementptr inbounds nuw %"class.openmc::Tally", ptr %3, i32 0, i32 13
  %4 = load i32, ptr %delayedgroup_filter_, align 8, !tbaa !177
  %call = call noundef i32 @_ZNK6openmc5Tally7filtersEi(ptr noundef nonnull align 8 dereferenceable(240) %2, i32 noundef %4)
  store i32 %call, ptr %i_filt, align 4, !tbaa !58
  call void @llvm.lifetime.start.p0(i64 8, ptr %dg_match) #3
  %5 = load ptr, ptr %filter_matches.addr, align 8, !tbaa !60
  %6 = load i32, ptr %i_filt, align 4, !tbaa !58
  %idxprom1 = sext i32 %6 to i64
  %arrayidx2 = getelementptr inbounds %"class.openmc::FilterMatch", ptr %5, i64 %idxprom1
  store ptr %arrayidx2, ptr %dg_match, align 8, !tbaa !60
  call void @llvm.lifetime.start.p0(i64 4, ptr %i_bin) #3
  %7 = load ptr, ptr %dg_match, align 8, !tbaa !60
  %i_bin_ = getelementptr inbounds nuw %"class.openmc::FilterMatch", ptr %7, i32 0, i32 4
  %8 = load i32, ptr %i_bin_, align 4, !tbaa !83
  store i32 %8, ptr %i_bin, align 4, !tbaa !58
  call void @llvm.lifetime.start.p0(i64 4, ptr %original_bin) #3
  %9 = load ptr, ptr %dg_match, align 8, !tbaa !60
  %bins_ = getelementptr inbounds nuw %"class.openmc::FilterMatch", ptr %9, i32 0, i32 0
  %10 = load i32, ptr %i_bin, align 4, !tbaa !58
  %idxprom3 = sext i32 %10 to i64
  %arrayidx4 = getelementptr inbounds [125 x i32], ptr %bins_, i64 0, i64 %idxprom3
  %11 = load i32, ptr %arrayidx4, align 4, !tbaa !58
  store i32 %11, ptr %original_bin, align 4, !tbaa !58
  %12 = load i32, ptr %d_bin.addr, align 4, !tbaa !58
  %13 = load ptr, ptr %dg_match, align 8, !tbaa !60
  %bins_5 = getelementptr inbounds nuw %"class.openmc::FilterMatch", ptr %13, i32 0, i32 0
  %14 = load i32, ptr %i_bin, align 4, !tbaa !58
  %idxprom6 = sext i32 %14 to i64
  %arrayidx7 = getelementptr inbounds [125 x i32], ptr %bins_5, i64 0, i64 %idxprom6
  store i32 %12, ptr %arrayidx7, align 4, !tbaa !58
  call void @llvm.lifetime.start.p0(i64 4, ptr %filter_index) #3
  store i32 0, ptr %filter_index, align 4, !tbaa !58
  call void @llvm.lifetime.start.p0(i64 8, ptr %filter_weight) #3
  store double 1.000000e+00, ptr %filter_weight, align 8, !tbaa !99
  call void @llvm.lifetime.start.p0(i64 4, ptr %i) #3
  store i32 0, ptr %i, align 4, !tbaa !58
  br label %for.cond

for.cond:                                         ; preds = %for.inc, %entry
  %15 = load i32, ptr %i, align 4, !tbaa !58
  %conv = sext i32 %15 to i64
  %16 = load ptr, ptr %tally, align 8, !tbaa !29
  %call8 = call noundef nonnull align 8 dereferenceable(24) ptr @_ZNK6openmc5Tally7filtersEv(ptr noundef nonnull align 8 dereferenceable(240) %16)
  %call9 = call noundef i64 @_ZNK6openmc6vectorIiE4sizeEv(ptr noundef nonnull align 8 dereferenceable(24) %call8)
  %cmp = icmp ult i64 %conv, %call9
  br i1 %cmp, label %for.body, label %for.cond.cleanup

for.cond.cleanup:                                 ; preds = %for.cond
  call void @llvm.lifetime.end.p0(i64 4, ptr %i) #3
  br label %for.end

for.body:                                         ; preds = %for.cond
  call void @llvm.lifetime.start.p0(i64 4, ptr %i_filt10) #3
  %17 = load ptr, ptr %tally, align 8, !tbaa !29
  %18 = load i32, ptr %i, align 4, !tbaa !58
  %call11 = call noundef i32 @_ZNK6openmc5Tally7filtersEi(ptr noundef nonnull align 8 dereferenceable(240) %17, i32 noundef %18)
  store i32 %call11, ptr %i_filt10, align 4, !tbaa !58
  call void @llvm.lifetime.start.p0(i64 8, ptr %match) #3
  %19 = load ptr, ptr %filter_matches.addr, align 8, !tbaa !60
  %20 = load i32, ptr %i_filt10, align 4, !tbaa !58
  %idxprom12 = sext i32 %20 to i64
  %arrayidx13 = getelementptr inbounds %"class.openmc::FilterMatch", ptr %19, i64 %idxprom12
  store ptr %arrayidx13, ptr %match, align 8, !tbaa !60
  call void @llvm.lifetime.start.p0(i64 4, ptr %i_bin14) #3
  %21 = load ptr, ptr %match, align 8, !tbaa !60
  %i_bin_15 = getelementptr inbounds nuw %"class.openmc::FilterMatch", ptr %21, i32 0, i32 4
  %22 = load i32, ptr %i_bin_15, align 4, !tbaa !83
  store i32 %22, ptr %i_bin14, align 4, !tbaa !58
  %23 = load ptr, ptr %match, align 8, !tbaa !60
  %bins_16 = getelementptr inbounds nuw %"class.openmc::FilterMatch", ptr %23, i32 0, i32 0
  %24 = load i32, ptr %i_bin14, align 4, !tbaa !58
  %idxprom17 = sext i32 %24 to i64
  %arrayidx18 = getelementptr inbounds [125 x i32], ptr %bins_16, i64 0, i64 %idxprom17
  %25 = load i32, ptr %arrayidx18, align 4, !tbaa !58
  %26 = load ptr, ptr %tally, align 8, !tbaa !29
  %27 = load i32, ptr %i, align 4, !tbaa !58
  %call19 = call noundef i32 @_ZNK6openmc5Tally7stridesEi(ptr noundef nonnull align 8 dereferenceable(240) %26, i32 noundef %27)
  %mul = mul nsw i32 %25, %call19
  %28 = load i32, ptr %filter_index, align 4, !tbaa !58
  %add = add nsw i32 %28, %mul
  store i32 %add, ptr %filter_index, align 4, !tbaa !58
  %29 = load ptr, ptr %match, align 8, !tbaa !60
  %weights_ = getelementptr inbounds nuw %"class.openmc::FilterMatch", ptr %29, i32 0, i32 2
  %30 = load i32, ptr %i_bin14, align 4, !tbaa !58
  %idxprom20 = sext i32 %30 to i64
  %arrayidx21 = getelementptr inbounds [125 x double], ptr %weights_, i64 0, i64 %idxprom20
  %31 = load double, ptr %arrayidx21, align 8, !tbaa !99
  %32 = load double, ptr %filter_weight, align 8, !tbaa !99
  %mul22 = fmul double %32, %31
  store double %mul22, ptr %filter_weight, align 8, !tbaa !99
  call void @llvm.lifetime.end.p0(i64 4, ptr %i_bin14) #3
  call void @llvm.lifetime.end.p0(i64 8, ptr %match) #3
  call void @llvm.lifetime.end.p0(i64 4, ptr %i_filt10) #3
  br label %for.inc

for.inc:                                          ; preds = %for.body
  %33 = load i32, ptr %i, align 4, !tbaa !58
  %inc = add nsw i32 %33, 1
  store i32 %inc, ptr %i, align 4, !tbaa !58
  br label %for.cond, !llvm.loop !178

for.end:                                          ; preds = %for.cond.cleanup
  %34 = load ptr, ptr %tally, align 8, !tbaa !29
  %35 = load i32, ptr %filter_index, align 4, !tbaa !58
  %conv23 = sext i32 %35 to i64
  %36 = load i32, ptr %score_index.addr, align 4, !tbaa !58
  %conv24 = sext i32 %36 to i64
  %call25 = call noundef ptr @_ZN6openmc5Tally7resultsEllNS_11TallyResultE(ptr noundef nonnull align 8 dereferenceable(240) %34, i64 noundef %conv23, i64 noundef %conv24, i32 noundef 0)
  %37 = load double, ptr %score.addr, align 8, !tbaa !99
  %38 = load double, ptr %filter_weight, align 8, !tbaa !99
  %mul26 = fmul double %37, %38
  %39 = atomicrmw fadd ptr %call25, double %mul26 monotonic, align 8
  %40 = load i32, ptr %original_bin, align 4, !tbaa !58
  %41 = load ptr, ptr %dg_match, align 8, !tbaa !60
  %bins_27 = getelementptr inbounds nuw %"class.openmc::FilterMatch", ptr %41, i32 0, i32 0
  %42 = load i32, ptr %i_bin, align 4, !tbaa !58
  %idxprom28 = sext i32 %42 to i64
  %arrayidx29 = getelementptr inbounds [125 x i32], ptr %bins_27, i64 0, i64 %idxprom28
  store i32 %40, ptr %arrayidx29, align 4, !tbaa !58
  call void @llvm.lifetime.end.p0(i64 8, ptr %filter_weight) #3
  call void @llvm.lifetime.end.p0(i64 4, ptr %filter_index) #3
  call void @llvm.lifetime.end.p0(i64 4, ptr %original_bin) #3
  call void @llvm.lifetime.end.p0(i64 4, ptr %i_bin) #3
  call void @llvm.lifetime.end.p0(i64 8, ptr %dg_match) #3
  call void @llvm.lifetime.end.p0(i64 4, ptr %i_filt) #3
  call void @llvm.lifetime.end.p0(i64 8, ptr %tally) #3
  ret void
}

declare noundef ptr @_ZN6openmc5Tally7resultsEllNS_11TallyResultE(ptr noundef nonnull align 8 dereferenceable(240), i64 noundef, i64 noundef, i32 noundef) #1

; Function Attrs: mustprogress uwtable
define noundef double @_ZN6openmc17get_nuc_fission_qERKNS_7NuclideERKNS_8ParticleEi(ptr noundef nonnull align 8 dereferenceable(7680) %nuc, ptr noundef nonnull align 8 dereferenceable(2728) %p, i32 noundef %score_bin) #4 {
entry:
  %retval = alloca double, align 8
  %nuc.addr = alloca ptr, align 8
  %p.addr = alloca ptr, align 8
  %score_bin.addr = alloca i32, align 4
  store ptr %nuc, ptr %nuc.addr, align 8, !tbaa !179
  store ptr %p, ptr %p.addr, align 8, !tbaa !31
  store i32 %score_bin, ptr %score_bin.addr, align 4, !tbaa !58
  %0 = load i32, ptr %score_bin.addr, align 4, !tbaa !58
  %cmp = icmp eq i32 %0, -14
  br i1 %cmp, label %if.then, label %if.else

if.then:                                          ; preds = %entry
  %1 = load ptr, ptr %nuc.addr, align 8, !tbaa !179
  %fission_q_prompt_ = getelementptr inbounds nuw %"class.openmc::Nuclide", ptr %1, i32 0, i32 22
  %call = call noundef zeroext i1 @_ZNKSt10unique_ptrIN6openmc23Function1DFlatContainerESt14default_deleteIS1_EEcvbEv(ptr noundef nonnull align 8 dereferenceable(8) %fission_q_prompt_) #3
  br i1 %call, label %if.then1, label %if.end

if.then1:                                         ; preds = %if.then
  %2 = load ptr, ptr %nuc.addr, align 8, !tbaa !179
  %fission_q_prompt_2 = getelementptr inbounds nuw %"class.openmc::Nuclide", ptr %2, i32 0, i32 22
  %call3 = call noundef nonnull align 8 dereferenceable(32) ptr @_ZNKSt10unique_ptrIN6openmc23Function1DFlatContainerESt14default_deleteIS1_EEdeEv(ptr noundef nonnull align 8 dereferenceable(8) %fission_q_prompt_2) #3
  %3 = load ptr, ptr %p.addr, align 8, !tbaa !31
  %E_last_ = getelementptr inbounds nuw %"class.openmc::Particle", ptr %3, i32 0, i32 12
  %4 = load double, ptr %E_last_, align 8, !tbaa !181
  %call4 = call noundef double @_ZNK6openmc23Function1DFlatContainerclEd(ptr noundef nonnull align 8 dereferenceable(32) %call3, double noundef %4)
  store double %call4, ptr %retval, align 8
  br label %return

if.end:                                           ; preds = %if.then
  br label %if.end15

if.else:                                          ; preds = %entry
  %5 = load i32, ptr %score_bin.addr, align 4, !tbaa !58
  %cmp5 = icmp eq i32 %5, -15
  br i1 %cmp5, label %if.then6, label %if.end14

if.then6:                                         ; preds = %if.else
  %6 = load ptr, ptr %nuc.addr, align 8, !tbaa !179
  %fission_q_recov_ = getelementptr inbounds nuw %"class.openmc::Nuclide", ptr %6, i32 0, i32 23
  %call7 = call noundef zeroext i1 @_ZNKSt10unique_ptrIN6openmc23Function1DFlatContainerESt14default_deleteIS1_EEcvbEv(ptr noundef nonnull align 8 dereferenceable(8) %fission_q_recov_) #3
  br i1 %call7, label %if.then8, label %if.end13

if.then8:                                         ; preds = %if.then6
  %7 = load ptr, ptr %nuc.addr, align 8, !tbaa !179
  %fission_q_recov_9 = getelementptr inbounds nuw %"class.openmc::Nuclide", ptr %7, i32 0, i32 23
  %call10 = call noundef nonnull align 8 dereferenceable(32) ptr @_ZNKSt10unique_ptrIN6openmc23Function1DFlatContainerESt14default_deleteIS1_EEdeEv(ptr noundef nonnull align 8 dereferenceable(8) %fission_q_recov_9) #3
  %8 = load ptr, ptr %p.addr, align 8, !tbaa !31
  %E_last_11 = getelementptr inbounds nuw %"class.openmc::Particle", ptr %8, i32 0, i32 12
  %9 = load double, ptr %E_last_11, align 8, !tbaa !181
  %call12 = call noundef double @_ZNK6openmc23Function1DFlatContainerclEd(ptr noundef nonnull align 8 dereferenceable(32) %call10, double noundef %9)
  store double %call12, ptr %retval, align 8
  br label %return

if.end13:                                         ; preds = %if.then6
  br label %if.end14

if.end14:                                         ; preds = %if.end13, %if.else
  br label %if.end15

if.end15:                                         ; preds = %if.end14, %if.end
  store double 0.000000e+00, ptr %retval, align 8
  br label %return

return:                                           ; preds = %if.end15, %if.then8, %if.then1
  %10 = load double, ptr %retval, align 8
  ret double %10
}

; Function Attrs: mustprogress nounwind uwtable
define linkonce_odr noundef zeroext i1 @_ZNKSt10unique_ptrIN6openmc23Function1DFlatContainerESt14default_deleteIS1_EEcvbEv(ptr noundef nonnull align 8 dereferenceable(8) %this) #6 comdat align 2 {
entry:
  %this.addr = alloca ptr, align 8
  store ptr %this, ptr %this.addr, align 8, !tbaa !182
  %this1 = load ptr, ptr %this.addr, align 8
  %call = call noundef ptr @_ZNKSt10unique_ptrIN6openmc23Function1DFlatContainerESt14default_deleteIS1_EE3getEv(ptr noundef nonnull align 8 dereferenceable(8) %this1) #3
  %cmp = icmp eq ptr %call, null
  %0 = zext i1 %cmp to i64
  %cond = select i1 %cmp, i1 false, i1 true
  ret i1 %cond
}

; Function Attrs: mustprogress nounwind uwtable
define linkonce_odr noundef nonnull align 8 dereferenceable(32) ptr @_ZNKSt10unique_ptrIN6openmc23Function1DFlatContainerESt14default_deleteIS1_EEdeEv(ptr noundef nonnull align 8 dereferenceable(8) %this) #6 comdat align 2 {
entry:
  %this.addr = alloca ptr, align 8
  store ptr %this, ptr %this.addr, align 8, !tbaa !182
  %this1 = load ptr, ptr %this.addr, align 8
  br label %do.body

do.body:                                          ; preds = %entry
  br label %do.cond

do.cond:                                          ; preds = %do.body
  br label %do.end

do.end:                                           ; preds = %do.cond
  %call = call noundef ptr @_ZNKSt10unique_ptrIN6openmc23Function1DFlatContainerESt14default_deleteIS1_EE3getEv(ptr noundef nonnull align 8 dereferenceable(8) %this1) #3
  ret ptr %call
}

declare noundef double @_ZNK6openmc23Function1DFlatContainerclEd(ptr noundef nonnull align 8 dereferenceable(32), double noundef) #1

; Function Attrs: mustprogress nounwind uwtable
define linkonce_odr noundef ptr @_ZNKSt10unique_ptrIN6openmc23Function1DFlatContainerESt14default_deleteIS1_EE3getEv(ptr noundef nonnull align 8 dereferenceable(8) %this) #6 comdat align 2 {
entry:
  %this.addr = alloca ptr, align 8
  store ptr %this, ptr %this.addr, align 8, !tbaa !182
  %this1 = load ptr, ptr %this.addr, align 8
  %_M_t = getelementptr inbounds nuw %"class.std::unique_ptr.46", ptr %this1, i32 0, i32 0
  %call = call noundef ptr @_ZNKSt15__uniq_ptr_implIN6openmc23Function1DFlatContainerESt14default_deleteIS1_EE6_M_ptrEv(ptr noundef nonnull align 8 dereferenceable(8) %_M_t) #3
  ret ptr %call
}

; Function Attrs: mustprogress nounwind uwtable
define linkonce_odr noundef ptr @_ZNKSt15__uniq_ptr_implIN6openmc23Function1DFlatContainerESt14default_deleteIS1_EE6_M_ptrEv(ptr noundef nonnull align 8 dereferenceable(8) %this) #6 comdat align 2 {
entry:
  %this.addr = alloca ptr, align 8
  store ptr %this, ptr %this.addr, align 8, !tbaa !184
  %this1 = load ptr, ptr %this.addr, align 8
  %_M_t = getelementptr inbounds nuw %"class.std::__uniq_ptr_impl.48", ptr %this1, i32 0, i32 0
  %call = call noundef nonnull align 8 dereferenceable(8) ptr @_ZSt3getILm0EJPN6openmc23Function1DFlatContainerESt14default_deleteIS1_EEERKNSt13tuple_elementIXT_ESt5tupleIJDpT0_EEE4typeERKS9_(ptr noundef nonnull align 8 dereferenceable(8) %_M_t) #3
  %0 = load ptr, ptr %call, align 8, !tbaa !186
  ret ptr %0
}

; Function Attrs: mustprogress nounwind uwtable
define linkonce_odr noundef nonnull align 8 dereferenceable(8) ptr @_ZSt3getILm0EJPN6openmc23Function1DFlatContainerESt14default_deleteIS1_EEERKNSt13tuple_elementIXT_ESt5tupleIJDpT0_EEE4typeERKS9_(ptr noundef nonnull align 8 dereferenceable(8) %__t) #6 comdat {
entry:
  %__t.addr = alloca ptr, align 8
  store ptr %__t, ptr %__t.addr, align 8, !tbaa !188
  %0 = load ptr, ptr %__t.addr, align 8, !tbaa !188
  %call = call noundef nonnull align 8 dereferenceable(8) ptr @_ZSt12__get_helperILm0EPN6openmc23Function1DFlatContainerEJSt14default_deleteIS1_EEERKT0_RKSt11_Tuple_implIXT_EJS5_DpT1_EE(ptr noundef nonnull align 8 dereferenceable(8) %0) #3
  ret ptr %call
}

; Function Attrs: mustprogress nounwind uwtable
define linkonce_odr noundef nonnull align 8 dereferenceable(8) ptr @_ZSt12__get_helperILm0EPN6openmc23Function1DFlatContainerEJSt14default_deleteIS1_EEERKT0_RKSt11_Tuple_implIXT_EJS5_DpT1_EE(ptr noundef nonnull align 8 dereferenceable(8) %__t) #6 comdat {
entry:
  %__t.addr = alloca ptr, align 8
  store ptr %__t, ptr %__t.addr, align 8, !tbaa !190
  %0 = load ptr, ptr %__t.addr, align 8, !tbaa !190
  %call = call noundef nonnull align 8 dereferenceable(8) ptr @_ZNSt11_Tuple_implILm0EJPN6openmc23Function1DFlatContainerESt14default_deleteIS1_EEE7_M_headERKS5_(ptr noundef nonnull align 8 dereferenceable(8) %0) #3
  ret ptr %call
}

; Function Attrs: mustprogress nounwind uwtable
define linkonce_odr noundef nonnull align 8 dereferenceable(8) ptr @_ZNSt11_Tuple_implILm0EJPN6openmc23Function1DFlatContainerESt14default_deleteIS1_EEE7_M_headERKS5_(ptr noundef nonnull align 8 dereferenceable(8) %__t) #6 comdat align 2 {
entry:
  %__t.addr = alloca ptr, align 8
  store ptr %__t, ptr %__t.addr, align 8, !tbaa !190
  %0 = load ptr, ptr %__t.addr, align 8, !tbaa !190
  %call = call noundef nonnull align 8 dereferenceable(8) ptr @_ZNSt10_Head_baseILm0EPN6openmc23Function1DFlatContainerELb0EE7_M_headERKS3_(ptr noundef nonnull align 8 dereferenceable(8) %0) #3
  ret ptr %call
}

; Function Attrs: mustprogress nounwind uwtable
define linkonce_odr noundef nonnull align 8 dereferenceable(8) ptr @_ZNSt10_Head_baseILm0EPN6openmc23Function1DFlatContainerELb0EE7_M_headERKS3_(ptr noundef nonnull align 8 dereferenceable(8) %__b) #6 comdat align 2 {
entry:
  %__b.addr = alloca ptr, align 8
  store ptr %__b, ptr %__b.addr, align 8, !tbaa !192
  %0 = load ptr, ptr %__b.addr, align 8, !tbaa !192
  %_M_head_impl = getelementptr inbounds nuw %"struct.std::_Head_base.53", ptr %0, i32 0, i32 0
  ret ptr %_M_head_impl
}

; Function Attrs: mustprogress uwtable
define noundef double @_ZN6openmc15score_fission_qERKNS_8ParticleEiRKNS_5TallyEdid(ptr noundef nonnull align 8 dereferenceable(2728) %p, i32 noundef %score_bin, ptr noundef nonnull align 8 dereferenceable(240) %tally, double noundef %flux, i32 noundef %i_nuclide, double noundef %atom_density) #4 {
entry:
  %retval = alloca double, align 8
  %p.addr = alloca ptr, align 8
  %score_bin.addr = alloca i32, align 4
  %tally.addr = alloca ptr, align 8
  %flux.addr = alloca double, align 8
  %i_nuclide.addr = alloca i32, align 4
  %atom_density.addr = alloca double, align 8
  %nuc = alloca ptr, align 8
  %ref.tmp = alloca %"struct.openmc::NuclideMicroXS", align 8
  %ref.tmp5 = alloca %"struct.openmc::NuclideMicroXS", align 8
  %ref.tmp11 = alloca %"struct.openmc::NuclideMicroXS", align 8
  %cleanup.dest.slot = alloca i32, align 4
  %ref.tmp19 = alloca %"struct.openmc::NuclideMicroXS", align 8
  %ref.tmp28 = alloca %"struct.openmc::NuclideMicroXS", align 8
  %ref.tmp35 = alloca %"struct.openmc::NuclideMicroXS", align 8
  %nuc46 = alloca ptr, align 8
  %ref.tmp52 = alloca %"struct.openmc::NuclideMicroXS", align 8
  %material = alloca ptr, align 8
  %score = alloca double, align 8
  %i = alloca i32, align 4
  %j_nuclide = alloca i32, align 4
  %atom_density70 = alloca double, align 8
  %nuc72 = alloca ptr, align 8
  %ref.tmp77 = alloca %"struct.openmc::NuclideMicroXS", align 8
  store ptr %p, ptr %p.addr, align 8, !tbaa !31
  store i32 %score_bin, ptr %score_bin.addr, align 4, !tbaa !58
  store ptr %tally, ptr %tally.addr, align 8, !tbaa !29
  store double %flux, ptr %flux.addr, align 8, !tbaa !99
  store i32 %i_nuclide, ptr %i_nuclide.addr, align 4, !tbaa !58
  store double %atom_density, ptr %atom_density.addr, align 8, !tbaa !99
  %0 = load ptr, ptr %tally.addr, align 8, !tbaa !29
  %estimator_ = getelementptr inbounds nuw %"class.openmc::Tally", ptr %0, i32 0, i32 3
  %1 = load i32, ptr %estimator_, align 4, !tbaa !68
  %cmp = icmp eq i32 %1, 0
  br i1 %cmp, label %if.then, label %if.else43

if.then:                                          ; preds = %entry
  call void @llvm.lifetime.start.p0(i64 8, ptr %nuc) #3
  %2 = load ptr, ptr @_ZN6openmc4data8nuclidesE, align 8, !tbaa !179
  %3 = load ptr, ptr %p.addr, align 8, !tbaa !31
  %event_nuclide_ = getelementptr inbounds nuw %"class.openmc::Particle", ptr %3, i32 0, i32 23
  %4 = load i32, ptr %event_nuclide_, align 8, !tbaa !194
  %idxprom = sext i32 %4 to i64
  %arrayidx = getelementptr inbounds %"class.openmc::Nuclide", ptr %2, i64 %idxprom
  store ptr %arrayidx, ptr %nuc, align 8, !tbaa !179
  %5 = load i8, ptr @_ZN6openmc8settings16survival_biasingE, align 1, !tbaa !107, !range !63, !noundef !64
  %loadedv = trunc i8 %5 to i1
  br i1 %loadedv, label %if.then1, label %if.else

if.then1:                                         ; preds = %if.then
  call void @llvm.lifetime.start.p0(i64 168, ptr %ref.tmp) #3
  %6 = load ptr, ptr %p.addr, align 8, !tbaa !31
  %neutron_xs_ = getelementptr inbounds nuw %"class.openmc::Particle", ptr %6, i32 0, i32 0
  %7 = load ptr, ptr %p.addr, align 8, !tbaa !31
  %event_nuclide_2 = getelementptr inbounds nuw %"class.openmc::Particle", ptr %7, i32 0, i32 23
  %8 = load i32, ptr %event_nuclide_2, align 8, !tbaa !194
  %conv = sext i32 %8 to i64
  call void @_ZNK6openmc19NuclideMicroXSCacheixEl(ptr dead_on_unwind writable sret(%"struct.openmc::NuclideMicroXS") align 8 %ref.tmp, ptr noundef nonnull align 8 dereferenceable(168) %neutron_xs_, i64 noundef %conv)
  %total = getelementptr inbounds nuw %"struct.openmc::NuclideMicroXS", ptr %ref.tmp, i32 0, i32 0
  %9 = load double, ptr %total, align 8, !tbaa !195
  %cmp3 = fcmp ogt double %9, 0.000000e+00
  call void @llvm.lifetime.end.p0(i64 168, ptr %ref.tmp) #3
  br i1 %cmp3, label %if.then4, label %if.end

if.then4:                                         ; preds = %if.then1
  %10 = load ptr, ptr %p.addr, align 8, !tbaa !31
  %wgt_last_ = getelementptr inbounds nuw %"class.openmc::Particle", ptr %10, i32 0, i32 20
  %11 = load double, ptr %wgt_last_, align 8, !tbaa !197
  %12 = load ptr, ptr %nuc, align 8, !tbaa !179
  %13 = load ptr, ptr %p.addr, align 8, !tbaa !31
  %14 = load i32, ptr %score_bin.addr, align 4, !tbaa !58
  %call = call noundef double @_ZN6openmc17get_nuc_fission_qERKNS_7NuclideERKNS_8ParticleEi(ptr noundef nonnull align 8 dereferenceable(7680) %12, ptr noundef nonnull align 8 dereferenceable(2728) %13, i32 noundef %14)
  %mul = fmul double %11, %call
  call void @llvm.lifetime.start.p0(i64 168, ptr %ref.tmp5) #3
  %15 = load ptr, ptr %p.addr, align 8, !tbaa !31
  %neutron_xs_6 = getelementptr inbounds nuw %"class.openmc::Particle", ptr %15, i32 0, i32 0
  %16 = load ptr, ptr %p.addr, align 8, !tbaa !31
  %event_nuclide_7 = getelementptr inbounds nuw %"class.openmc::Particle", ptr %16, i32 0, i32 23
  %17 = load i32, ptr %event_nuclide_7, align 8, !tbaa !194
  %conv8 = sext i32 %17 to i64
  call void @_ZNK6openmc19NuclideMicroXSCacheixEl(ptr dead_on_unwind writable sret(%"struct.openmc::NuclideMicroXS") align 8 %ref.tmp5, ptr noundef nonnull align 8 dereferenceable(168) %neutron_xs_6, i64 noundef %conv8)
  %fission = getelementptr inbounds nuw %"struct.openmc::NuclideMicroXS", ptr %ref.tmp5, i32 0, i32 2
  %18 = load double, ptr %fission, align 8, !tbaa !198
  %mul9 = fmul double %mul, %18
  %19 = load double, ptr %flux.addr, align 8, !tbaa !99
  %mul10 = fmul double %mul9, %19
  call void @llvm.lifetime.start.p0(i64 168, ptr %ref.tmp11) #3
  %20 = load ptr, ptr %p.addr, align 8, !tbaa !31
  %neutron_xs_12 = getelementptr inbounds nuw %"class.openmc::Particle", ptr %20, i32 0, i32 0
  %21 = load ptr, ptr %p.addr, align 8, !tbaa !31
  %event_nuclide_13 = getelementptr inbounds nuw %"class.openmc::Particle", ptr %21, i32 0, i32 23
  %22 = load i32, ptr %event_nuclide_13, align 8, !tbaa !194
  %conv14 = sext i32 %22 to i64
  call void @_ZNK6openmc19NuclideMicroXSCacheixEl(ptr dead_on_unwind writable sret(%"struct.openmc::NuclideMicroXS") align 8 %ref.tmp11, ptr noundef nonnull align 8 dereferenceable(168) %neutron_xs_12, i64 noundef %conv14)
  %total15 = getelementptr inbounds nuw %"struct.openmc::NuclideMicroXS", ptr %ref.tmp11, i32 0, i32 0
  %23 = load double, ptr %total15, align 8, !tbaa !195
  %div = fdiv double %mul10, %23
  store double %div, ptr %retval, align 8
  call void @llvm.lifetime.end.p0(i64 168, ptr %ref.tmp11) #3
  call void @llvm.lifetime.end.p0(i64 168, ptr %ref.tmp5) #3
  store i32 1, ptr %cleanup.dest.slot, align 4
  br label %cleanup

if.end:                                           ; preds = %if.then1
  br label %if.end42

if.else:                                          ; preds = %if.then
  %24 = load ptr, ptr %p.addr, align 8, !tbaa !31
  %event_ = getelementptr inbounds nuw %"class.openmc::Particle", ptr %24, i32 0, i32 22
  %25 = load i32, ptr %event_, align 4, !tbaa !199
  %cmp16 = icmp eq i32 %25, 3
  br i1 %cmp16, label %if.then17, label %if.end18

if.then17:                                        ; preds = %if.else
  store double 0.000000e+00, ptr %retval, align 8
  store i32 1, ptr %cleanup.dest.slot, align 4
  br label %cleanup

if.end18:                                         ; preds = %if.else
  call void @llvm.lifetime.start.p0(i64 168, ptr %ref.tmp19) #3
  %26 = load ptr, ptr %p.addr, align 8, !tbaa !31
  %neutron_xs_20 = getelementptr inbounds nuw %"class.openmc::Particle", ptr %26, i32 0, i32 0
  %27 = load ptr, ptr %p.addr, align 8, !tbaa !31
  %event_nuclide_21 = getelementptr inbounds nuw %"class.openmc::Particle", ptr %27, i32 0, i32 23
  %28 = load i32, ptr %event_nuclide_21, align 8, !tbaa !194
  %conv22 = sext i32 %28 to i64
  call void @_ZNK6openmc19NuclideMicroXSCacheixEl(ptr dead_on_unwind writable sret(%"struct.openmc::NuclideMicroXS") align 8 %ref.tmp19, ptr noundef nonnull align 8 dereferenceable(168) %neutron_xs_20, i64 noundef %conv22)
  %absorption = getelementptr inbounds nuw %"struct.openmc::NuclideMicroXS", ptr %ref.tmp19, i32 0, i32 1
  %29 = load double, ptr %absorption, align 8, !tbaa !200
  %cmp23 = fcmp ogt double %29, 0.000000e+00
  call void @llvm.lifetime.end.p0(i64 168, ptr %ref.tmp19) #3
  br i1 %cmp23, label %if.then24, label %if.end41

if.then24:                                        ; preds = %if.end18
  %30 = load ptr, ptr %p.addr, align 8, !tbaa !31
  %wgt_last_25 = getelementptr inbounds nuw %"class.openmc::Particle", ptr %30, i32 0, i32 20
  %31 = load double, ptr %wgt_last_25, align 8, !tbaa !197
  %32 = load ptr, ptr %nuc, align 8, !tbaa !179
  %33 = load ptr, ptr %p.addr, align 8, !tbaa !31
  %34 = load i32, ptr %score_bin.addr, align 4, !tbaa !58
  %call26 = call noundef double @_ZN6openmc17get_nuc_fission_qERKNS_7NuclideERKNS_8ParticleEi(ptr noundef nonnull align 8 dereferenceable(7680) %32, ptr noundef nonnull align 8 dereferenceable(2728) %33, i32 noundef %34)
  %mul27 = fmul double %31, %call26
  call void @llvm.lifetime.start.p0(i64 168, ptr %ref.tmp28) #3
  %35 = load ptr, ptr %p.addr, align 8, !tbaa !31
  %neutron_xs_29 = getelementptr inbounds nuw %"class.openmc::Particle", ptr %35, i32 0, i32 0
  %36 = load ptr, ptr %p.addr, align 8, !tbaa !31
  %event_nuclide_30 = getelementptr inbounds nuw %"class.openmc::Particle", ptr %36, i32 0, i32 23
  %37 = load i32, ptr %event_nuclide_30, align 8, !tbaa !194
  %conv31 = sext i32 %37 to i64
  call void @_ZNK6openmc19NuclideMicroXSCacheixEl(ptr dead_on_unwind writable sret(%"struct.openmc::NuclideMicroXS") align 8 %ref.tmp28, ptr noundef nonnull align 8 dereferenceable(168) %neutron_xs_29, i64 noundef %conv31)
  %fission32 = getelementptr inbounds nuw %"struct.openmc::NuclideMicroXS", ptr %ref.tmp28, i32 0, i32 2
  %38 = load double, ptr %fission32, align 8, !tbaa !198
  %mul33 = fmul double %mul27, %38
  %39 = load double, ptr %flux.addr, align 8, !tbaa !99
  %mul34 = fmul double %mul33, %39
  call void @llvm.lifetime.start.p0(i64 168, ptr %ref.tmp35) #3
  %40 = load ptr, ptr %p.addr, align 8, !tbaa !31
  %neutron_xs_36 = getelementptr inbounds nuw %"class.openmc::Particle", ptr %40, i32 0, i32 0
  %41 = load ptr, ptr %p.addr, align 8, !tbaa !31
  %event_nuclide_37 = getelementptr inbounds nuw %"class.openmc::Particle", ptr %41, i32 0, i32 23
  %42 = load i32, ptr %event_nuclide_37, align 8, !tbaa !194
  %conv38 = sext i32 %42 to i64
  call void @_ZNK6openmc19NuclideMicroXSCacheixEl(ptr dead_on_unwind writable sret(%"struct.openmc::NuclideMicroXS") align 8 %ref.tmp35, ptr noundef nonnull align 8 dereferenceable(168) %neutron_xs_36, i64 noundef %conv38)
  %absorption39 = getelementptr inbounds nuw %"struct.openmc::NuclideMicroXS", ptr %ref.tmp35, i32 0, i32 1
  %43 = load double, ptr %absorption39, align 8, !tbaa !200
  %div40 = fdiv double %mul34, %43
  store double %div40, ptr %retval, align 8
  call void @llvm.lifetime.end.p0(i64 168, ptr %ref.tmp35) #3
  call void @llvm.lifetime.end.p0(i64 168, ptr %ref.tmp28) #3
  store i32 1, ptr %cleanup.dest.slot, align 4
  br label %cleanup

if.end41:                                         ; preds = %if.end18
  br label %if.end42

if.end42:                                         ; preds = %if.end41, %if.end
  store i32 0, ptr %cleanup.dest.slot, align 4
  br label %cleanup

cleanup:                                          ; preds = %if.end42, %if.then24, %if.then17, %if.then4
  call void @llvm.lifetime.end.p0(i64 8, ptr %nuc) #3
  %cleanup.dest = load i32, ptr %cleanup.dest.slot, align 4
  switch i32 %cleanup.dest, label %unreachable [
    i32 0, label %cleanup.cont
    i32 1, label %return
  ]

cleanup.cont:                                     ; preds = %cleanup
  br label %if.end88

if.else43:                                        ; preds = %entry
  %44 = load i32, ptr %i_nuclide.addr, align 4, !tbaa !58
  %cmp44 = icmp sge i32 %44, 0
  br i1 %cmp44, label %if.then45, label %if.else58

if.then45:                                        ; preds = %if.else43
  call void @llvm.lifetime.start.p0(i64 8, ptr %nuc46) #3
  %45 = load ptr, ptr @_ZN6openmc4data8nuclidesE, align 8, !tbaa !179
  %46 = load i32, ptr %i_nuclide.addr, align 4, !tbaa !58
  %idxprom47 = sext i32 %46 to i64
  %arrayidx48 = getelementptr inbounds %"class.openmc::Nuclide", ptr %45, i64 %idxprom47
  store ptr %arrayidx48, ptr %nuc46, align 8, !tbaa !179
  %47 = load ptr, ptr %nuc46, align 8, !tbaa !179
  %48 = load ptr, ptr %p.addr, align 8, !tbaa !31
  %49 = load i32, ptr %score_bin.addr, align 4, !tbaa !58
  %call49 = call noundef double @_ZN6openmc17get_nuc_fission_qERKNS_7NuclideERKNS_8ParticleEi(ptr noundef nonnull align 8 dereferenceable(7680) %47, ptr noundef nonnull align 8 dereferenceable(2728) %48, i32 noundef %49)
  %50 = load double, ptr %atom_density.addr, align 8, !tbaa !99
  %mul50 = fmul double %call49, %50
  %51 = load double, ptr %flux.addr, align 8, !tbaa !99
  %mul51 = fmul double %mul50, %51
  call void @llvm.lifetime.start.p0(i64 168, ptr %ref.tmp52) #3
  %52 = load ptr, ptr %p.addr, align 8, !tbaa !31
  %neutron_xs_53 = getelementptr inbounds nuw %"class.openmc::Particle", ptr %52, i32 0, i32 0
  %53 = load i32, ptr %i_nuclide.addr, align 4, !tbaa !58
  %conv54 = sext i32 %53 to i64
  call void @_ZNK6openmc19NuclideMicroXSCacheixEl(ptr dead_on_unwind writable sret(%"struct.openmc::NuclideMicroXS") align 8 %ref.tmp52, ptr noundef nonnull align 8 dereferenceable(168) %neutron_xs_53, i64 noundef %conv54)
  %fission55 = getelementptr inbounds nuw %"struct.openmc::NuclideMicroXS", ptr %ref.tmp52, i32 0, i32 2
  %54 = load double, ptr %fission55, align 8, !tbaa !198
  %mul56 = fmul double %mul51, %54
  store double %mul56, ptr %retval, align 8
  call void @llvm.lifetime.end.p0(i64 168, ptr %ref.tmp52) #3
  store i32 1, ptr %cleanup.dest.slot, align 4
  call void @llvm.lifetime.end.p0(i64 8, ptr %nuc46) #3
  br label %return

if.else58:                                        ; preds = %if.else43
  %55 = load ptr, ptr %p.addr, align 8, !tbaa !31
  %material_ = getelementptr inbounds nuw %"class.openmc::Particle", ptr %55, i32 0, i32 32
  %56 = load i32, ptr %material_, align 8, !tbaa !201
  %cmp59 = icmp ne i32 %56, -1
  br i1 %cmp59, label %if.then60, label %if.end86

if.then60:                                        ; preds = %if.else58
  call void @llvm.lifetime.start.p0(i64 8, ptr %material) #3
  %57 = load ptr, ptr @_ZN6openmc5model9materialsE, align 8, !tbaa !202
  %58 = load ptr, ptr %p.addr, align 8, !tbaa !31
  %material_61 = getelementptr inbounds nuw %"class.openmc::Particle", ptr %58, i32 0, i32 32
  %59 = load i32, ptr %material_61, align 8, !tbaa !201
  %idxprom62 = sext i32 %59 to i64
  %arrayidx63 = getelementptr inbounds %"class.openmc::Material", ptr %57, i64 %idxprom62
  store ptr %arrayidx63, ptr %material, align 8, !tbaa !202
  call void @llvm.lifetime.start.p0(i64 8, ptr %score) #3
  store double 0.000000e+00, ptr %score, align 8, !tbaa !99
  call void @llvm.lifetime.start.p0(i64 4, ptr %i) #3
  store i32 0, ptr %i, align 4, !tbaa !58
  br label %for.cond

for.cond:                                         ; preds = %for.inc, %if.then60
  %60 = load i32, ptr %i, align 4, !tbaa !58
  %conv64 = sext i32 %60 to i64
  %61 = load ptr, ptr %material, align 8, !tbaa !202
  %nuclide_ = getelementptr inbounds nuw %"class.openmc::Material", ptr %61, i32 0, i32 2
  %call65 = call noundef i64 @_ZNK6openmc6vectorIiE4sizeEv(ptr noundef nonnull align 8 dereferenceable(24) %nuclide_)
  %cmp66 = icmp ult i64 %conv64, %call65
  br i1 %cmp66, label %for.body, label %for.cond.cleanup

for.cond.cleanup:                                 ; preds = %for.cond
  store i32 2, ptr %cleanup.dest.slot, align 4
  call void @llvm.lifetime.end.p0(i64 4, ptr %i) #3
  br label %for.end

for.body:                                         ; preds = %for.cond
  call void @llvm.lifetime.start.p0(i64 4, ptr %j_nuclide) #3
  %62 = load ptr, ptr %material, align 8, !tbaa !202
  %nuclide_67 = getelementptr inbounds nuw %"class.openmc::Material", ptr %62, i32 0, i32 2
  %63 = load i32, ptr %i, align 4, !tbaa !58
  %conv68 = sext i32 %63 to i64
  %call69 = call noundef nonnull align 4 dereferenceable(4) ptr @_ZNK6openmc6vectorIiEixEm(ptr noundef nonnull align 8 dereferenceable(24) %nuclide_67, i64 noundef %conv68)
  %64 = load i32, ptr %call69, align 4, !tbaa !58
  store i32 %64, ptr %j_nuclide, align 4, !tbaa !58
  call void @llvm.lifetime.start.p0(i64 8, ptr %atom_density70) #3
  %65 = load ptr, ptr %material, align 8, !tbaa !202
  %atom_density_ = getelementptr inbounds nuw %"class.openmc::Material", ptr %65, i32 0, i32 4
  %66 = load i32, ptr %i, align 4, !tbaa !58
  %call71 = call noundef nonnull align 8 dereferenceable(8) ptr @_ZNK2xt10xcontainerINS_17xtensor_containerINS_7uvectorIdSaIdEEELm1ELNS_11layout_typeE1ENS_22xtensor_expression_tagEEEEclIJiEEERKdDpT_(ptr noundef nonnull align 1 dereferenceable(1) %atom_density_, i32 noundef %66)
  %67 = load double, ptr %call71, align 8, !tbaa !99
  store double %67, ptr %atom_density70, align 8, !tbaa !99
  call void @llvm.lifetime.start.p0(i64 8, ptr %nuc72) #3
  %68 = load ptr, ptr @_ZN6openmc4data8nuclidesE, align 8, !tbaa !179
  %69 = load i32, ptr %j_nuclide, align 4, !tbaa !58
  %idxprom73 = sext i32 %69 to i64
  %arrayidx74 = getelementptr inbounds %"class.openmc::Nuclide", ptr %68, i64 %idxprom73
  store ptr %arrayidx74, ptr %nuc72, align 8, !tbaa !179
  %70 = load ptr, ptr %nuc72, align 8, !tbaa !179
  %71 = load ptr, ptr %p.addr, align 8, !tbaa !31
  %72 = load i32, ptr %score_bin.addr, align 4, !tbaa !58
  %call75 = call noundef double @_ZN6openmc17get_nuc_fission_qERKNS_7NuclideERKNS_8ParticleEi(ptr noundef nonnull align 8 dereferenceable(7680) %70, ptr noundef nonnull align 8 dereferenceable(2728) %71, i32 noundef %72)
  %73 = load double, ptr %atom_density70, align 8, !tbaa !99
  %mul76 = fmul double %call75, %73
  call void @llvm.lifetime.start.p0(i64 168, ptr %ref.tmp77) #3
  %74 = load ptr, ptr %p.addr, align 8, !tbaa !31
  %neutron_xs_78 = getelementptr inbounds nuw %"class.openmc::Particle", ptr %74, i32 0, i32 0
  %75 = load i32, ptr %j_nuclide, align 4, !tbaa !58
  %conv79 = sext i32 %75 to i64
  call void @_ZNK6openmc19NuclideMicroXSCacheixEl(ptr dead_on_unwind writable sret(%"struct.openmc::NuclideMicroXS") align 8 %ref.tmp77, ptr noundef nonnull align 8 dereferenceable(168) %neutron_xs_78, i64 noundef %conv79)
  %fission80 = getelementptr inbounds nuw %"struct.openmc::NuclideMicroXS", ptr %ref.tmp77, i32 0, i32 2
  %76 = load double, ptr %fission80, align 8, !tbaa !198
  %77 = load double, ptr %score, align 8, !tbaa !99
  %78 = call double @llvm.fmuladd.f64(double %mul76, double %76, double %77)
  store double %78, ptr %score, align 8, !tbaa !99
  call void @llvm.lifetime.end.p0(i64 168, ptr %ref.tmp77) #3
  call void @llvm.lifetime.end.p0(i64 8, ptr %nuc72) #3
  call void @llvm.lifetime.end.p0(i64 8, ptr %atom_density70) #3
  call void @llvm.lifetime.end.p0(i64 4, ptr %j_nuclide) #3
  br label %for.inc

for.inc:                                          ; preds = %for.body
  %79 = load i32, ptr %i, align 4, !tbaa !58
  %inc = add nsw i32 %79, 1
  store i32 %inc, ptr %i, align 4, !tbaa !58
  br label %for.cond, !llvm.loop !204

for.end:                                          ; preds = %for.cond.cleanup
  %80 = load double, ptr %score, align 8, !tbaa !99
  %81 = load double, ptr %flux.addr, align 8, !tbaa !99
  %mul83 = fmul double %80, %81
  store double %mul83, ptr %retval, align 8
  store i32 1, ptr %cleanup.dest.slot, align 4
  call void @llvm.lifetime.end.p0(i64 8, ptr %score) #3
  call void @llvm.lifetime.end.p0(i64 8, ptr %material) #3
  br label %return

if.end86:                                         ; preds = %if.else58
  br label %if.end87

if.end87:                                         ; preds = %if.end86
  br label %if.end88

if.end88:                                         ; preds = %if.end87, %cleanup.cont
  store double 0.000000e+00, ptr %retval, align 8
  br label %return

return:                                           ; preds = %if.end88, %for.end, %if.then45, %cleanup
  %82 = load double, ptr %retval, align 8
  ret double %82

unreachable:                                      ; preds = %cleanup
  unreachable
}

; Function Attrs: mustprogress nounwind uwtable
define linkonce_odr void @_ZNK6openmc19NuclideMicroXSCacheixEl(ptr dead_on_unwind noalias writable sret(%"struct.openmc::NuclideMicroXS") align 8 %agg.result, ptr noundef nonnull align 8 dereferenceable(168) %this, i64 noundef %i) #6 comdat align 2 {
entry:
  %this.addr = alloca ptr, align 8
  %i.addr = alloca i64, align 8
  store ptr %this, ptr %this.addr, align 8, !tbaa !205
  store i64 %i, ptr %i.addr, align 8, !tbaa !105
  %this1 = load ptr, ptr %this.addr, align 8
  %neutron_xs_ = getelementptr inbounds nuw %"class.openmc::NuclideMicroXSCache", ptr %this1, i32 0, i32 0
  %arrayidx = getelementptr inbounds [1 x %"struct.openmc::NuclideMicroXS"], ptr %neutron_xs_, i64 0, i64 0
  call void @llvm.memcpy.p0.p0.i64(ptr align 8 %agg.result, ptr align 8 %arrayidx, i64 168, i1 false), !tbaa.struct !207
  ret void
}

; Function Attrs: inlinehint mustprogress uwtable
define linkonce_odr noundef nonnull align 8 dereferenceable(8) ptr @_ZNK2xt10xcontainerINS_17xtensor_containerINS_7uvectorIdSaIdEEELm1ELNS_11layout_typeE1ENS_22xtensor_expression_tagEEEEclIJiEEERKdDpT_(ptr noundef nonnull align 1 dereferenceable(1) %this, i32 noundef %args) #7 comdat align 2 {
entry:
  %this.addr = alloca ptr, align 8
  %args.addr = alloca i32, align 4
  %index = alloca i64, align 8
  store ptr %this, ptr %this.addr, align 8, !tbaa !209
  store i32 %args, ptr %args.addr, align 4, !tbaa !58
  %this1 = load ptr, ptr %this.addr, align 8
  call void @llvm.lifetime.start.p0(i64 8, ptr %index) #3
  %call = call noundef nonnull align 8 dereferenceable(8) ptr @_ZNK2xt10xcontainerINS_17xtensor_containerINS_7uvectorIdSaIdEEELm1ELNS_11layout_typeE1ENS_22xtensor_expression_tagEEEE7stridesEv(ptr noundef nonnull align 1 dereferenceable(1) %this1) #3
  %0 = load i32, ptr %args.addr, align 4, !tbaa !58
  %conv = sext i32 %0 to i64
  %call2 = call noundef i64 @_ZN2xt11data_offsetImSt5arrayIlLm1EElJEEET_RKT0_T1_DpT2_(ptr noundef nonnull align 8 dereferenceable(8) %call, i64 noundef %conv) #3
  store i64 %call2, ptr %index, align 8, !tbaa !105
  %call3 = call noundef nonnull align 8 dereferenceable(24) ptr @_ZNK2xt10xcontainerINS_17xtensor_containerINS_7uvectorIdSaIdEEELm1ELNS_11layout_typeE1ENS_22xtensor_expression_tagEEEE7storageEv(ptr noundef nonnull align 1 dereferenceable(1) %this1) #3
  %1 = load i64, ptr %index, align 8, !tbaa !105
  %call4 = call noundef nonnull align 8 dereferenceable(8) ptr @_ZNK2xt7uvectorIdSaIdEEixEm(ptr noundef nonnull align 8 dereferenceable(24) %call3, i64 noundef %1)
  call void @llvm.lifetime.end.p0(i64 8, ptr %index) #3
  ret ptr %call4
}

; Function Attrs: nocallback nofree nosync nounwind speculatable willreturn memory(none)
declare double @llvm.fmuladd.f64(double, double, double) #15

; Function Attrs: nocallback nofree nounwind willreturn memory(argmem: readwrite)
declare void @llvm.memcpy.p0.p0.i64(ptr noalias writeonly captures(none), ptr noalias readonly captures(none), i64, i1 immarg) #13

; Function Attrs: inlinehint mustprogress nounwind uwtable
define linkonce_odr noundef i64 @_ZN2xt11data_offsetImSt5arrayIlLm1EElJEEET_RKT0_T1_DpT2_(ptr noundef nonnull align 8 dereferenceable(8) %strides, i64 noundef %arg) #9 comdat {
entry:
  %retval = alloca i64, align 8
  %strides.addr = alloca ptr, align 8
  %arg.addr = alloca i64, align 8
  %nargs = alloca i64, align 8
  %cleanup.dest.slot = alloca i32, align 4
  %view = alloca ptr, align 8
  store ptr %strides, ptr %strides.addr, align 8, !tbaa !211
  store i64 %arg, ptr %arg.addr, align 8, !tbaa !105
  call void @llvm.lifetime.start.p0(i64 8, ptr %nargs) #3
  store i64 1, ptr %nargs, align 8, !tbaa !105
  %0 = load ptr, ptr %strides.addr, align 8, !tbaa !211
  %call = call noundef i64 @_ZNKSt5arrayIlLm1EE4sizeEv(ptr noundef nonnull align 8 dereferenceable(8) %0) #23
  %cmp = icmp eq i64 1, %call
  br i1 %cmp, label %if.then, label %if.else

if.then:                                          ; preds = %entry
  %1 = load ptr, ptr %strides.addr, align 8, !tbaa !211
  %2 = load i64, ptr %arg.addr, align 8, !tbaa !105
  %call1 = call noundef i64 @_ZN2xt6detail15raw_data_offsetILm0ESt5arrayIlLm1EElJEEEDaRKT0_T1_DpT2_(ptr noundef nonnull align 8 dereferenceable(8) %1, i64 noundef %2) #3
  store i64 %call1, ptr %retval, align 8
  store i32 1, ptr %cleanup.dest.slot, align 4
  br label %cleanup

if.else:                                          ; preds = %entry
  %3 = load ptr, ptr %strides.addr, align 8, !tbaa !211
  %call2 = call noundef i64 @_ZNKSt5arrayIlLm1EE4sizeEv(ptr noundef nonnull align 8 dereferenceable(8) %3) #23
  %cmp3 = icmp ugt i64 1, %call2
  br i1 %cmp3, label %if.then4, label %if.else6

if.then4:                                         ; preds = %if.else
  %4 = load ptr, ptr %strides.addr, align 8, !tbaa !211
  %call5 = call noundef i64 @_ZN2xt11data_offsetImSt5arrayIlLm1EEEET_RKT0_(ptr noundef nonnull align 8 dereferenceable(8) %4) #3
  store i64 %call5, ptr %retval, align 8
  store i32 1, ptr %cleanup.dest.slot, align 4
  br label %cleanup

if.else6:                                         ; preds = %if.else
  call void @llvm.lifetime.start.p0(i64 8, ptr %view) #3
  %5 = load ptr, ptr %strides.addr, align 8, !tbaa !211
  %call7 = call noundef ptr @_ZNKSt5arrayIlLm1EE4cendEv(ptr noundef nonnull align 8 dereferenceable(8) %5) #3
  %add.ptr = getelementptr inbounds i64, ptr %call7, i64 -1
  store ptr %add.ptr, ptr %view, align 8, !tbaa !158
  %6 = load i64, ptr %arg.addr, align 8, !tbaa !105
  %call8 = call noundef i64 @_ZN2xt6detail15raw_data_offsetILm0EPKllJEEEDaRKT0_T1_DpT2_(ptr noundef nonnull align 8 dereferenceable(8) %view, i64 noundef %6) #3
  store i64 %call8, ptr %retval, align 8
  store i32 1, ptr %cleanup.dest.slot, align 4
  call void @llvm.lifetime.end.p0(i64 8, ptr %view) #3
  br label %cleanup

cleanup:                                          ; preds = %if.else6, %if.then4, %if.then
  call void @llvm.lifetime.end.p0(i64 8, ptr %nargs) #3
  %7 = load i64, ptr %retval, align 8
  ret i64 %7
}

; Function Attrs: mustprogress nounwind uwtable
define linkonce_odr noundef nonnull align 8 dereferenceable(8) ptr @_ZNK2xt10xcontainerINS_17xtensor_containerINS_7uvectorIdSaIdEEELm1ELNS_11layout_typeE1ENS_22xtensor_expression_tagEEEE7stridesEv(ptr noundef nonnull align 1 dereferenceable(1) %this) #6 comdat align 2 {
entry:
  %this.addr = alloca ptr, align 8
  store ptr %this, ptr %this.addr, align 8, !tbaa !209
  %this1 = load ptr, ptr %this.addr, align 8
  %call = call noundef nonnull align 8 dereferenceable(72) ptr @_ZNKR2xt10xcontainerINS_17xtensor_containerINS_7uvectorIdSaIdEEELm1ELNS_11layout_typeE1ENS_22xtensor_expression_tagEEEE12derived_castEv(ptr noundef nonnull align 1 dereferenceable(1) %this1) #3
  %call2 = call noundef nonnull align 8 dereferenceable(8) ptr @_ZNK2xt18xstrided_containerINS_17xtensor_containerINS_7uvectorIdSaIdEEELm1ELNS_11layout_typeE1ENS_22xtensor_expression_tagEEEE12strides_implEv(ptr noundef nonnull align 8 dereferenceable(28) %call) #3
  ret ptr %call2
}

; Function Attrs: inlinehint mustprogress nounwind uwtable
define linkonce_odr noundef nonnull align 8 dereferenceable(24) ptr @_ZNK2xt10xcontainerINS_17xtensor_containerINS_7uvectorIdSaIdEEELm1ELNS_11layout_typeE1ENS_22xtensor_expression_tagEEEE7storageEv(ptr noundef nonnull align 1 dereferenceable(1) %this) #9 comdat align 2 {
entry:
  %this.addr = alloca ptr, align 8
  store ptr %this, ptr %this.addr, align 8, !tbaa !209
  %this1 = load ptr, ptr %this.addr, align 8
  %call = call noundef nonnull align 8 dereferenceable(72) ptr @_ZNKR2xt10xcontainerINS_17xtensor_containerINS_7uvectorIdSaIdEEELm1ELNS_11layout_typeE1ENS_22xtensor_expression_tagEEEE12derived_castEv(ptr noundef nonnull align 1 dereferenceable(1) %this1) #3
  %call2 = call noundef nonnull align 8 dereferenceable(24) ptr @_ZNK2xt17xtensor_containerINS_7uvectorIdSaIdEEELm1ELNS_11layout_typeE1ENS_22xtensor_expression_tagEE12storage_implEv(ptr noundef nonnull align 8 dereferenceable(72) %call) #3
  ret ptr %call2
}

; Function Attrs: inlinehint mustprogress nounwind uwtable
define linkonce_odr noundef nonnull align 8 dereferenceable(8) ptr @_ZNK2xt7uvectorIdSaIdEEixEm(ptr noundef nonnull align 8 dereferenceable(24) %this, i64 noundef %i) #9 comdat align 2 {
entry:
  %this.addr = alloca ptr, align 8
  %i.addr = alloca i64, align 8
  store ptr %this, ptr %this.addr, align 8, !tbaa !213
  store i64 %i, ptr %i.addr, align 8, !tbaa !105
  %this1 = load ptr, ptr %this.addr, align 8
  %p_begin = getelementptr inbounds nuw %"class.xt::uvector", ptr %this1, i32 0, i32 1
  %0 = load ptr, ptr %p_begin, align 8, !tbaa !215
  %1 = load i64, ptr %i.addr, align 8, !tbaa !105
  %arrayidx = getelementptr inbounds nuw double, ptr %0, i64 %1
  ret ptr %arrayidx
}

; Function Attrs: mustprogress nounwind willreturn memory(none) uwtable
define linkonce_odr noundef i64 @_ZNKSt5arrayIlLm1EE4sizeEv(ptr noundef nonnull align 8 dereferenceable(8) %this) #16 comdat align 2 {
entry:
  %this.addr = alloca ptr, align 8
  store ptr %this, ptr %this.addr, align 8, !tbaa !211
  %this1 = load ptr, ptr %this.addr, align 8
  ret i64 1
}

; Function Attrs: inlinehint mustprogress nounwind uwtable
define linkonce_odr noundef i64 @_ZN2xt6detail15raw_data_offsetILm0ESt5arrayIlLm1EElJEEEDaRKT0_T1_DpT2_(ptr noundef nonnull align 8 dereferenceable(8) %strides, i64 noundef %arg) #9 comdat {
entry:
  %strides.addr = alloca ptr, align 8
  %arg.addr = alloca i64, align 8
  store ptr %strides, ptr %strides.addr, align 8, !tbaa !211
  store i64 %arg, ptr %arg.addr, align 8, !tbaa !105
  %0 = load i64, ptr %arg.addr, align 8, !tbaa !105
  %1 = load ptr, ptr %strides.addr, align 8, !tbaa !211
  %call = call noundef nonnull align 8 dereferenceable(8) ptr @_ZNKSt5arrayIlLm1EEixEm(ptr noundef nonnull align 8 dereferenceable(8) %1, i64 noundef 0) #3
  %2 = load i64, ptr %call, align 8, !tbaa !105
  %mul = mul nsw i64 %0, %2
  %3 = load ptr, ptr %strides.addr, align 8, !tbaa !211
  %call1 = call noundef i64 @_ZN2xt6detail15raw_data_offsetILm1ESt5arrayIlLm1EEEEDaRKT0_(ptr noundef nonnull align 8 dereferenceable(8) %3) #3
  %add = add nsw i64 %mul, %call1
  ret i64 %add
}

; Function Attrs: inlinehint mustprogress nounwind uwtable
define linkonce_odr noundef i64 @_ZN2xt11data_offsetImSt5arrayIlLm1EEEET_RKT0_(ptr noundef nonnull align 8 dereferenceable(8) %0) #9 comdat {
entry:
  %.addr = alloca ptr, align 8
  store ptr %0, ptr %.addr, align 8, !tbaa !211
  ret i64 0
}

; Function Attrs: mustprogress nounwind uwtable
define linkonce_odr noundef ptr @_ZNKSt5arrayIlLm1EE4cendEv(ptr noundef nonnull align 8 dereferenceable(8) %this) #6 comdat align 2 {
entry:
  %this.addr = alloca ptr, align 8
  store ptr %this, ptr %this.addr, align 8, !tbaa !211
  %this1 = load ptr, ptr %this.addr, align 8
  %call = call noundef ptr @_ZNKSt5arrayIlLm1EE4dataEv(ptr noundef nonnull align 8 dereferenceable(8) %this1) #3
  %add.ptr = getelementptr inbounds nuw i64, ptr %call, i64 1
  ret ptr %add.ptr
}

; Function Attrs: inlinehint mustprogress nounwind uwtable
define linkonce_odr noundef i64 @_ZN2xt6detail15raw_data_offsetILm0EPKllJEEEDaRKT0_T1_DpT2_(ptr noundef nonnull align 8 dereferenceable(8) %strides, i64 noundef %arg) #9 comdat {
entry:
  %strides.addr = alloca ptr, align 8
  %arg.addr = alloca i64, align 8
  store ptr %strides, ptr %strides.addr, align 8, !tbaa !218
  store i64 %arg, ptr %arg.addr, align 8, !tbaa !105
  %0 = load i64, ptr %arg.addr, align 8, !tbaa !105
  %1 = load ptr, ptr %strides.addr, align 8, !tbaa !218
  %2 = load ptr, ptr %1, align 8, !tbaa !158
  %arrayidx = getelementptr inbounds nuw i64, ptr %2, i64 0
  %3 = load i64, ptr %arrayidx, align 8, !tbaa !105
  %mul = mul nsw i64 %0, %3
  %4 = load ptr, ptr %strides.addr, align 8, !tbaa !218
  %call = call noundef i64 @_ZN2xt6detail15raw_data_offsetILm1EPKlEEDaRKT0_(ptr noundef nonnull align 8 dereferenceable(8) %4) #3
  %add = add nsw i64 %mul, %call
  ret i64 %add
}

; Function Attrs: mustprogress nounwind uwtable
define linkonce_odr noundef nonnull align 8 dereferenceable(8) ptr @_ZNKSt5arrayIlLm1EEixEm(ptr noundef nonnull align 8 dereferenceable(8) %this, i64 noundef %__n) #6 comdat align 2 {
entry:
  %this.addr = alloca ptr, align 8
  %__n.addr = alloca i64, align 8
  store ptr %this, ptr %this.addr, align 8, !tbaa !211
  store i64 %__n, ptr %__n.addr, align 8, !tbaa !105
  %this1 = load ptr, ptr %this.addr, align 8
  %_M_elems = getelementptr inbounds nuw %"struct.std::array.58", ptr %this1, i32 0, i32 0
  %0 = load i64, ptr %__n.addr, align 8, !tbaa !105
  %call = call noundef nonnull align 8 dereferenceable(8) ptr @_ZNSt14__array_traitsIlLm1EE6_S_refERA1_Klm(ptr noundef nonnull align 8 dereferenceable(8) %_M_elems, i64 noundef %0) #3
  ret ptr %call
}

; Function Attrs: inlinehint mustprogress nounwind uwtable
define linkonce_odr noundef i64 @_ZN2xt6detail15raw_data_offsetILm1ESt5arrayIlLm1EEEEDaRKT0_(ptr noundef nonnull align 8 dereferenceable(8) %0) #9 comdat {
entry:
  %.addr = alloca ptr, align 8
  store ptr %0, ptr %.addr, align 8, !tbaa !211
  ret i64 0
}

; Function Attrs: mustprogress nounwind uwtable
define linkonce_odr noundef nonnull align 8 dereferenceable(8) ptr @_ZNSt14__array_traitsIlLm1EE6_S_refERA1_Klm(ptr noundef nonnull align 8 dereferenceable(8) %__t, i64 noundef %__n) #6 comdat align 2 {
entry:
  %__t.addr = alloca ptr, align 8
  %__n.addr = alloca i64, align 8
  store ptr %__t, ptr %__t.addr, align 8, !tbaa !158
  store i64 %__n, ptr %__n.addr, align 8, !tbaa !105
  %0 = load ptr, ptr %__t.addr, align 8, !tbaa !158
  %1 = load i64, ptr %__n.addr, align 8, !tbaa !105
  %arrayidx = getelementptr inbounds nuw [1 x i64], ptr %0, i64 0, i64 %1
  ret ptr %arrayidx
}

; Function Attrs: mustprogress nounwind uwtable
define linkonce_odr noundef ptr @_ZNKSt5arrayIlLm1EE4dataEv(ptr noundef nonnull align 8 dereferenceable(8) %this) #6 comdat align 2 {
entry:
  %this.addr = alloca ptr, align 8
  store ptr %this, ptr %this.addr, align 8, !tbaa !211
  %this1 = load ptr, ptr %this.addr, align 8
  %_M_elems = getelementptr inbounds nuw %"struct.std::array.58", ptr %this1, i32 0, i32 0
  %call = call noundef ptr @_ZNSt14__array_traitsIlLm1EE6_S_ptrERA1_Kl(ptr noundef nonnull align 8 dereferenceable(8) %_M_elems) #3
  ret ptr %call
}

; Function Attrs: mustprogress nounwind uwtable
define linkonce_odr noundef ptr @_ZNSt14__array_traitsIlLm1EE6_S_ptrERA1_Kl(ptr noundef nonnull align 8 dereferenceable(8) %__t) #6 comdat align 2 {
entry:
  %__t.addr = alloca ptr, align 8
  store ptr %__t, ptr %__t.addr, align 8, !tbaa !158
  %0 = load ptr, ptr %__t.addr, align 8, !tbaa !158
  %arraydecay = getelementptr inbounds [1 x i64], ptr %0, i64 0, i64 0
  ret ptr %arraydecay
}

; Function Attrs: inlinehint mustprogress nounwind uwtable
define linkonce_odr noundef i64 @_ZN2xt6detail15raw_data_offsetILm1EPKlEEDaRKT0_(ptr noundef nonnull align 8 dereferenceable(8) %0) #9 comdat {
entry:
  %.addr = alloca ptr, align 8
  store ptr %0, ptr %.addr, align 8, !tbaa !218
  ret i64 0
}

; Function Attrs: inlinehint mustprogress nounwind uwtable
define linkonce_odr noundef nonnull align 8 dereferenceable(72) ptr @_ZNKR2xt10xcontainerINS_17xtensor_containerINS_7uvectorIdSaIdEEELm1ELNS_11layout_typeE1ENS_22xtensor_expression_tagEEEE12derived_castEv(ptr noundef nonnull align 1 dereferenceable(1) %this) #9 comdat align 2 {
entry:
  %this.addr = alloca ptr, align 8
  store ptr %this, ptr %this.addr, align 8, !tbaa !209
  %this1 = load ptr, ptr %this.addr, align 8
  ret ptr %this1
}

; Function Attrs: inlinehint mustprogress nounwind uwtable
define linkonce_odr noundef nonnull align 8 dereferenceable(8) ptr @_ZNK2xt18xstrided_containerINS_17xtensor_containerINS_7uvectorIdSaIdEEELm1ELNS_11layout_typeE1ENS_22xtensor_expression_tagEEEE12strides_implEv(ptr noundef nonnull align 8 dereferenceable(28) %this) #9 comdat align 2 {
entry:
  %this.addr = alloca ptr, align 8
  store ptr %this, ptr %this.addr, align 8, !tbaa !220
  %this1 = load ptr, ptr %this.addr, align 8
  %m_strides = getelementptr inbounds nuw %"class.xt::xstrided_container", ptr %this1, i32 0, i32 1
  ret ptr %m_strides
}

; Function Attrs: inlinehint mustprogress nounwind uwtable
define linkonce_odr noundef nonnull align 8 dereferenceable(24) ptr @_ZNK2xt17xtensor_containerINS_7uvectorIdSaIdEEELm1ELNS_11layout_typeE1ENS_22xtensor_expression_tagEE12storage_implEv(ptr noundef nonnull align 8 dereferenceable(72) %this) #9 comdat align 2 {
entry:
  %this.addr = alloca ptr, align 8
  store ptr %this, ptr %this.addr, align 8, !tbaa !222
  %this1 = load ptr, ptr %this.addr, align 8
  %m_storage = getelementptr inbounds nuw %"class.xt::xtensor_container", ptr %this1, i32 0, i32 2
  ret ptr %m_storage
}

; Function Attrs: mustprogress uwtable
define noundef double @_ZN6openmc27get_nuclide_neutron_heatingERKNS_8ParticleERKNS_7NuclideEii(ptr noundef nonnull align 8 dereferenceable(2728) %p, ptr noundef nonnull align 8 dereferenceable(7680) %nuc, i32 noundef %rxn_index, i32 noundef %i_nuclide) #4 {
entry:
  %retval = alloca double, align 8
  %p.addr = alloca ptr, align 8
  %nuc.addr = alloca ptr, align 8
  %rxn_index.addr = alloca i32, align 4
  %i_nuclide.addr = alloca i32, align 4
  %mt = alloca i64, align 8
  %cleanup.dest.slot = alloca i32, align 4
  %micro = alloca ptr, align 8
  %ref.tmp = alloca %"struct.openmc::NuclideMicroXS", align 8
  %i_temp = alloca i32, align 4
  %rx = alloca ptr, align 8
  %ref.tmp5 = alloca %"class.openmc::ReactionFlat", align 8
  %kerma = alloca double, align 8
  %kerma_fission = alloca double, align 8
  %ref.tmp20 = alloca %"struct.openmc::NuclideMicroXS", align 8
  %kerma_non_fission = alloca double, align 8
  store ptr %p, ptr %p.addr, align 8, !tbaa !31
  store ptr %nuc, ptr %nuc.addr, align 8, !tbaa !179
  store i32 %rxn_index, ptr %rxn_index.addr, align 4, !tbaa !58
  store i32 %i_nuclide, ptr %i_nuclide.addr, align 4, !tbaa !58
  call void @llvm.lifetime.start.p0(i64 8, ptr %mt) #3
  %0 = load ptr, ptr %nuc.addr, align 8, !tbaa !179
  %reaction_index_ = getelementptr inbounds nuw %"class.openmc::Nuclide", ptr %0, i32 0, i32 37
  %1 = load i32, ptr %rxn_index.addr, align 4, !tbaa !58
  %conv = sext i32 %1 to i64
  %call = call noundef nonnull align 8 dereferenceable(8) ptr @_ZNKSt5arrayImLm902EEixEm(ptr noundef nonnull align 8 dereferenceable(7216) %reaction_index_, i64 noundef %conv) #3
  %2 = load i64, ptr %call, align 8, !tbaa !105
  store i64 %2, ptr %mt, align 8, !tbaa !105
  %3 = load i64, ptr %mt, align 8, !tbaa !105
  %cmp = icmp eq i64 %3, -1
  br i1 %cmp, label %if.then, label %if.end

if.then:                                          ; preds = %entry
  store double 0.000000e+00, ptr %retval, align 8
  store i32 1, ptr %cleanup.dest.slot, align 4
  br label %cleanup30

if.end:                                           ; preds = %entry
  call void @llvm.lifetime.start.p0(i64 8, ptr %micro) #3
  call void @llvm.lifetime.start.p0(i64 168, ptr %ref.tmp) #3
  %4 = load ptr, ptr %p.addr, align 8, !tbaa !31
  %neutron_xs_ = getelementptr inbounds nuw %"class.openmc::Particle", ptr %4, i32 0, i32 0
  %5 = load i32, ptr %i_nuclide.addr, align 4, !tbaa !58
  %conv1 = sext i32 %5 to i64
  call void @_ZNK6openmc19NuclideMicroXSCacheixEl(ptr dead_on_unwind writable sret(%"struct.openmc::NuclideMicroXS") align 8 %ref.tmp, ptr noundef nonnull align 8 dereferenceable(168) %neutron_xs_, i64 noundef %conv1)
  store ptr %ref.tmp, ptr %micro, align 8, !tbaa !224
  call void @llvm.lifetime.start.p0(i64 4, ptr %i_temp) #3
  %6 = load ptr, ptr %micro, align 8, !tbaa !224
  %index_temp = getelementptr inbounds nuw %"struct.openmc::NuclideMicroXS", ptr %6, i32 0, i32 10
  %7 = load i32, ptr %index_temp, align 4, !tbaa !226
  store i32 %7, ptr %i_temp, align 4, !tbaa !58
  %8 = load i32, ptr %i_temp, align 4, !tbaa !58
  %cmp2 = icmp slt i32 %8, 0
  br i1 %cmp2, label %if.then3, label %if.end4

if.then3:                                         ; preds = %if.end
  store double 0.000000e+00, ptr %retval, align 8
  store i32 1, ptr %cleanup.dest.slot, align 4
  br label %cleanup27

if.end4:                                          ; preds = %if.end
  call void @llvm.lifetime.start.p0(i64 8, ptr %rx) #3
  call void @llvm.lifetime.start.p0(i64 24, ptr %ref.tmp5) #3
  %9 = load ptr, ptr %nuc.addr, align 8, !tbaa !179
  %reactions_ = getelementptr inbounds nuw %"class.openmc::Nuclide", ptr %9, i32 0, i32 36
  %10 = load i64, ptr %mt, align 8, !tbaa !105
  %call6 = call noundef nonnull align 8 dereferenceable(32) ptr @_ZNK6openmc6vectorINS_21ReactionFlatContainerEEixEm(ptr noundef nonnull align 8 dereferenceable(24) %reactions_, i64 noundef %10)
  call void @_ZNK6openmc21ReactionFlatContainer3objEv(ptr dead_on_unwind writable sret(%"class.openmc::ReactionFlat") align 8 %ref.tmp5, ptr noundef nonnull align 8 dereferenceable(32) %call6)
  store ptr %ref.tmp5, ptr %rx, align 8, !tbaa !227
  call void @llvm.lifetime.start.p0(i64 8, ptr %kerma) #3
  %11 = load ptr, ptr %rx, align 8, !tbaa !227
