; ModuleID = 'derivative-host-x86_64-unknown-linux-gnu.bc'
source_filename = "/g/g0/wright117/workspace/openmc/openmc-omp/openmc/src/tallies/derivative.cpp"
target datalayout = "e-m:e-p270:32:32-p271:32:32-p272:64:64-i64:64-i128:128-f80:128-n8:16:32:64-S128"
target triple = "x86_64-unknown-linux-gnu"

%"struct.std::array" = type { [6 x i32] }
%"class.std::ios_base::Init" = type { i8 }
%"class.std::unordered_map" = type { %"class.std::_Hashtable" }
%"class.std::_Hashtable" = type { ptr, i64, %"struct.std::__detail::_Hash_node_base", i64, %"struct.std::__detail::_Prime_rehash_policy", ptr }
%"struct.std::__detail::_Hash_node_base" = type { ptr }
%"struct.std::__detail::_Prime_rehash_policy" = type { float, i64 }
%"class.std::vector" = type { %"struct.std::_Vector_base" }
%"struct.std::_Vector_base" = type { %"struct.std::_Vector_base<openmc::TallyDerivative, std::allocator<openmc::TallyDerivative>>::_Vector_impl" }
%"struct.std::_Vector_base<openmc::TallyDerivative, std::allocator<openmc::TallyDerivative>>::_Vector_impl" = type { %"struct.std::_Vector_base<openmc::TallyDerivative, std::allocator<openmc::TallyDerivative>>::_Vector_impl_data" }
%"struct.std::_Vector_base<openmc::TallyDerivative, std::allocator<openmc::TallyDerivative>>::_Vector_impl_data" = type { ptr, ptr, ptr }
%"struct.std::piecewise_construct_t" = type { i8 }
%"struct.std::integral_constant" = type { i8 }
%"struct.std::integral_constant.0" = type { i8 }
%"struct.std::__is_move_insertable" = type { i8 }
%"struct.openmc::TallyDerivative" = type { i32, i32, i32, i32 }
%"class.std::allocator" = type { i8 }
%"class.__gnu_cxx::__normal_iterator" = type { ptr }
%"class.__gnu_cxx::__normal_iterator.1" = type { ptr }
%"class.std::move_iterator" = type { %"class.__gnu_cxx::__normal_iterator.1" }
%"class.std::initializer_list" = type { ptr, i64 }
%"struct.std::forward_iterator_tag" = type { i8 }
%"struct.std::random_access_iterator_tag" = type { i8 }
%"class.std::reverse_iterator" = type { %"class.__gnu_cxx::__normal_iterator.1" }
%"class.std::reverse_iterator.2" = type { %"class.__gnu_cxx::__normal_iterator" }
%"struct.std::vector<openmc::TallyDerivative>::_Temporary_value" = type { ptr, %"union.std::vector<openmc::TallyDerivative>::_Temporary_value::_Storage" }
%"union.std::vector<openmc::TallyDerivative>::_Temporary_value::_Storage" = type { %"struct.openmc::TallyDerivative" }
%"class.std::move_iterator.4" = type { ptr }
%"struct.std::__detail::_Hash_node_value_base" = type { %"struct.__gnu_cxx::__aligned_buffer" }
%"struct.__gnu_cxx::__aligned_buffer" = type { %"union.std::aligned_storage<8, 4>::type" }
%"union.std::aligned_storage<8, 4>::type" = type { [8 x i8] }
%"class.std::allocator.10" = type { i8 }
%"class.pugi::xml_node" = type { ptr }
%"class.std::__cxx11::basic_string" = type { %"struct.std::__cxx11::basic_string<char>::_Alloc_hider", i64, %union.anon }
%"struct.std::__cxx11::basic_string<char>::_Alloc_hider" = type { ptr }
%union.anon = type { i64, [8 x i8] }
%"class.openmc::Nuclide" = type { %"class.std::__cxx11::basic_string", i32, i32, i32, double, i64, %"class.openmc::vector", %"class.std::vector.16", %"class.std::vector.21", i32, i32, ptr, ptr, ptr, ptr, %"class.std::unique_ptr", ptr, i8, i8, %"class.std::vector.28", i32, %"class.std::unique_ptr.33", %"class.std::unique_ptr.33", %"class.std::unique_ptr.33", %"class.std::unique_ptr.33", %"class.std::unique_ptr.33", %"class.std::unique_ptr.33", %"class.std::unique_ptr.33", ptr, i8, %"class.openmc::vector", %"class.openmc::vector", %"class.openmc::vector", i8, i32, %"class.openmc::vector.41", %"class.openmc::vector.42", %"struct.std::array.43", %"class.openmc::vector.44", ptr }
%"class.std::vector.16" = type { %"struct.std::_Vector_base.17" }
%"struct.std::_Vector_base.17" = type { %"struct.std::_Vector_base<openmc::Nuclide::EnergyGrid, std::allocator<openmc::Nuclide::EnergyGrid>>::_Vector_impl" }
%"struct.std::_Vector_base<openmc::Nuclide::EnergyGrid, std::allocator<openmc::Nuclide::EnergyGrid>>::_Vector_impl" = type { %"struct.std::_Vector_base<openmc::Nuclide::EnergyGrid, std::allocator<openmc::Nuclide::EnergyGrid>>::_Vector_impl_data" }
%"struct.std::_Vector_base<openmc::Nuclide::EnergyGrid, std::allocator<openmc::Nuclide::EnergyGrid>>::_Vector_impl_data" = type { ptr, ptr, ptr }
%"class.std::vector.21" = type { %"struct.std::_Vector_base.22" }
%"struct.std::_Vector_base.22" = type { %"struct.std::_Vector_base<xt::xtensor_container<xt::uvector<double>, 2, xt::layout_type::row_major>, std::allocator<xt::xtensor_container<xt::uvector<double>, 2, xt::layout_type::row_major>>>::_Vector_impl" }
%"struct.std::_Vector_base<xt::xtensor_container<xt::uvector<double>, 2, xt::layout_type::row_major>, std::allocator<xt::xtensor_container<xt::uvector<double>, 2, xt::layout_type::row_major>>>::_Vector_impl" = type { %"struct.std::_Vector_base<xt::xtensor_container<xt::uvector<double>, 2, xt::layout_type::row_major>, std::allocator<xt::xtensor_container<xt::uvector<double>, 2, xt::layout_type::row_major>>>::_Vector_impl_data" }
%"struct.std::_Vector_base<xt::xtensor_container<xt::uvector<double>, 2, xt::layout_type::row_major>, std::allocator<xt::xtensor_container<xt::uvector<double>, 2, xt::layout_type::row_major>>>::_Vector_impl_data" = type { ptr, ptr, ptr }
%"class.std::unique_ptr" = type { %"struct.std::__uniq_ptr_data" }
%"struct.std::__uniq_ptr_data" = type { %"class.std::__uniq_ptr_impl" }
%"class.std::__uniq_ptr_impl" = type { %"class.std::tuple" }
%"class.std::tuple" = type { %"struct.std::_Tuple_impl" }
%"struct.std::_Tuple_impl" = type { %"struct.std::_Head_base.27" }
%"struct.std::_Head_base.27" = type { ptr }
%"class.std::vector.28" = type { %"struct.std::_Vector_base.29" }
%"struct.std::_Vector_base.29" = type { %"struct.std::_Vector_base<openmc::ReactionFlatContainer *, std::allocator<openmc::ReactionFlatContainer *>>::_Vector_impl" }
%"struct.std::_Vector_base<openmc::ReactionFlatContainer *, std::allocator<openmc::ReactionFlatContainer *>>::_Vector_impl" = type { %"struct.std::_Vector_base<openmc::ReactionFlatContainer *, std::allocator<openmc::ReactionFlatContainer *>>::_Vector_impl_data" }
%"struct.std::_Vector_base<openmc::ReactionFlatContainer *, std::allocator<openmc::ReactionFlatContainer *>>::_Vector_impl_data" = type { ptr, ptr, ptr }
%"class.std::unique_ptr.33" = type { %"struct.std::__uniq_ptr_data.34" }
%"struct.std::__uniq_ptr_data.34" = type { %"class.std::__uniq_ptr_impl.35" }
%"class.std::__uniq_ptr_impl.35" = type { %"class.std::tuple.36" }
%"class.std::tuple.36" = type { %"struct.std::_Tuple_impl.37" }
%"struct.std::_Tuple_impl.37" = type { %"struct.std::_Head_base.40" }
%"struct.std::_Head_base.40" = type { ptr }
%"class.openmc::vector" = type { ptr, i64, i64 }
%"class.openmc::vector.41" = type { ptr, i64, i64 }
%"class.openmc::vector.42" = type { ptr, i64, i64 }
%"struct.std::array.43" = type { [902 x i64] }
%"class.openmc::vector.44" = type { ptr, i64, i64 }
%"class.pugi::xml_attribute" = type { ptr }
%"class.std::allocator.13" = type { i8 }
%"class.fmt::v6::basic_string_view" = type { ptr, i64 }
%"class.fmt::v6::basic_format_args" = type { i64, %union.anon.45 }
%union.anon.45 = type { ptr }
%"class.fmt::v6::format_arg_store" = type { [2 x %"class.fmt::v6::internal::value"] }
%"class.fmt::v6::internal::value" = type { %union.anon.46 }
%union.anon.46 = type { i128 }
%struct._Save_errno = type { i32 }
%"struct.std::is_same" = type { i8 }
%struct._Guard = type { ptr }
%"class.fmt::v6::basic_memory_buffer" = type <{ %"class.fmt::v6::internal::buffer", [500 x i8], [4 x i8] }>
%"class.fmt::v6::internal::buffer" = type { ptr, ptr, i64, i64 }
%"class.std::back_insert_iterator" = type { ptr }
%"class.fmt::v6::buffer_range" = type { %"class.fmt::v6::internal::output_range" }
%"class.fmt::v6::internal::output_range" = type { %"class.std::back_insert_iterator" }
%"class.fmt::v6::internal::locale_ref" = type { ptr }
%"struct.fmt::v6::format_handler" = type { [8 x i8], %"class.fmt::v6::basic_format_parse_context", %"class.fmt::v6::basic_format_context", %"class.fmt::v6::basic_format_arg" }
%"class.fmt::v6::basic_format_parse_context" = type <{ %"class.fmt::v6::basic_string_view", i32, [4 x i8] }>
%"class.fmt::v6::basic_format_context" = type { %"class.std::back_insert_iterator", %"class.fmt::v6::basic_format_args", %"class.fmt::v6::internal::arg_map", %"class.fmt::v6::internal::locale_ref" }
%"class.fmt::v6::internal::arg_map" = type <{ ptr, i32, [4 x i8] }>
%"class.fmt::v6::basic_format_arg" = type <{ %"class.fmt::v6::internal::value", i32, [12 x i8] }>
%"struct.fmt::v6::internal::error_handler" = type { i8 }
%struct.pfs_writer = type { ptr }
%"struct.fmt::v6::internal::id_adapter" = type { ptr }
%"class.fmt::v6::arg_formatter" = type { %"class.fmt::v6::internal::arg_formatter_base", ptr, ptr }
%"class.fmt::v6::internal::arg_formatter_base" = type { %"class.fmt::v6::internal::basic_writer", ptr }
%"class.fmt::v6::internal::basic_writer" = type { %"class.std::back_insert_iterator", %"class.fmt::v6::internal::locale_ref" }
%"class.fmt::v6::internal::custom_formatter" = type { ptr, ptr }
%"struct.fmt::v6::basic_format_specs" = type { i32, i32, i8, i8, %"struct.fmt::v6::internal::fill_t" }
%"struct.fmt::v6::internal::fill_t" = type { [6 x i8] }
%"class.fmt::v6::internal::specs_checker" = type { %"class.fmt::v6::internal::specs_handler", %"class.fmt::v6::internal::numeric_specs_checker" }
%"class.fmt::v6::internal::specs_handler" = type { %"class.fmt::v6::internal::specs_setter", ptr, ptr }
%"class.fmt::v6::internal::specs_setter" = type { ptr }
%"class.fmt::v6::internal::numeric_specs_checker" = type <{ ptr, i32, [4 x i8] }>
%"struct.fmt::v6::internal::named_arg_base" = type { %"class.fmt::v6::basic_string_view", [32 x i8] }
%"class.fmt::v6::basic_format_arg<fmt::v6::basic_format_context<std::back_insert_iterator<fmt::v6::internal::buffer<char>>, char>>::handle" = type { %"struct.fmt::v6::internal::custom_value" }
%"struct.fmt::v6::internal::custom_value" = type { ptr, ptr }
%"struct.fmt::v6::monostate" = type { i8 }
%"struct.fmt::v6::internal::string_value" = type { ptr, i64 }
%"struct.fmt::v6::internal::arg_formatter_base<fmt::v6::buffer_range<char>>::char_spec_handler" = type <{ ptr, i8, [7 x i8] }>
%"struct.fmt::v6::internal::arg_formatter_base<fmt::v6::buffer_range<char>>::cstring_spec_handler" = type { ptr, ptr }
%"struct.fmt::v6::internal::basic_writer<fmt::v6::buffer_range<char>>::int_writer" = type <{ ptr, ptr, i32, [4 x i8], i32, [4 x i8] }>
%"struct.fmt::v6::internal::basic_writer<fmt::v6::buffer_range<char>>::int_writer<int, fmt::v6::basic_format_specs<char>>::dec_writer" = type { i32, i32 }
%"struct.fmt::v6::internal::basic_writer<fmt::v6::buffer_range<char>>::int_writer<int, fmt::v6::basic_format_specs<char>>::hex_writer" = type <{ ptr, i32, [4 x i8] }>
%"struct.fmt::v6::internal::basic_writer<fmt::v6::buffer_range<char>>::int_writer<int, fmt::v6::basic_format_specs<char>>::bin_writer" = type { i32, i32 }
%"struct.fmt::v6::internal::basic_writer<fmt::v6::buffer_range<char>>::int_writer<int, fmt::v6::basic_format_specs<char>>::bin_writer.50" = type { i32, i32 }
%"class.__gnu_cxx::__normal_iterator.52" = type { ptr }
%"struct.fmt::v6::internal::basic_writer<fmt::v6::buffer_range<char>>::int_writer<int, fmt::v6::basic_format_specs<char>>::num_writer" = type <{ i32, i32, ptr, i8, [7 x i8] }>
%"struct.fmt::v6::internal::basic_writer<fmt::v6::buffer_range<char>>::padded_int_writer" = type { i64, %"class.fmt::v6::basic_string_view", i8, i64, %"struct.fmt::v6::internal::basic_writer<fmt::v6::buffer_range<char>>::int_writer<int, fmt::v6::basic_format_specs<char>>::dec_writer" }
%class.anon = type { i8 }
%struct.accessor = type { %"class.std::back_insert_iterator" }
%"struct.fmt::v6::internal::basic_writer<fmt::v6::buffer_range<char>>::padded_int_writer.48" = type { i64, %"class.fmt::v6::basic_string_view", i8, i64, %"struct.fmt::v6::internal::basic_writer<fmt::v6::buffer_range<char>>::int_writer<int, fmt::v6::basic_format_specs<char>>::hex_writer" }
%"struct.fmt::v6::internal::basic_writer<fmt::v6::buffer_range<char>>::padded_int_writer.49" = type { i64, %"class.fmt::v6::basic_string_view", i8, i64, %"struct.fmt::v6::internal::basic_writer<fmt::v6::buffer_range<char>>::int_writer<int, fmt::v6::basic_format_specs<char>>::bin_writer" }
%"struct.fmt::v6::internal::basic_writer<fmt::v6::buffer_range<char>>::padded_int_writer.51" = type { i64, %"class.fmt::v6::basic_string_view", i8, i64, %"struct.fmt::v6::internal::basic_writer<fmt::v6::buffer_range<char>>::int_writer<int, fmt::v6::basic_format_specs<char>>::bin_writer.50" }
%"struct.fmt::v6::internal::basic_writer<fmt::v6::buffer_range<char>>::padded_int_writer.53" = type { i64, %"class.fmt::v6::basic_string_view", i8, i64, %"struct.fmt::v6::internal::basic_writer<fmt::v6::buffer_range<char>>::int_writer<int, fmt::v6::basic_format_specs<char>>::num_writer" }
%class.anon.54 = type { ptr, %"class.fmt::v6::basic_string_view", ptr, ptr }
%"struct.fmt::v6::internal::basic_writer<fmt::v6::buffer_range<char>>::int_writer.56" = type <{ ptr, ptr, i32, [4 x i8], i32, [4 x i8] }>
%"struct.fmt::v6::internal::basic_writer<fmt::v6::buffer_range<char>>::int_writer<unsigned int, fmt::v6::basic_format_specs<char>>::dec_writer" = type { i32, i32 }
%"struct.fmt::v6::internal::basic_writer<fmt::v6::buffer_range<char>>::int_writer<unsigned int, fmt::v6::basic_format_specs<char>>::hex_writer" = type <{ ptr, i32, [4 x i8] }>
%"struct.fmt::v6::internal::basic_writer<fmt::v6::buffer_range<char>>::int_writer<unsigned int, fmt::v6::basic_format_specs<char>>::bin_writer" = type { i32, i32 }
%"struct.fmt::v6::internal::basic_writer<fmt::v6::buffer_range<char>>::int_writer<unsigned int, fmt::v6::basic_format_specs<char>>::bin_writer.61" = type { i32, i32 }
%"struct.fmt::v6::internal::basic_writer<fmt::v6::buffer_range<char>>::int_writer<unsigned int, fmt::v6::basic_format_specs<char>>::num_writer" = type <{ i32, i32, ptr, i8, [7 x i8] }>
%"struct.fmt::v6::internal::basic_writer<fmt::v6::buffer_range<char>>::padded_int_writer.58" = type { i64, %"class.fmt::v6::basic_string_view", i8, i64, %"struct.fmt::v6::internal::basic_writer<fmt::v6::buffer_range<char>>::int_writer<unsigned int, fmt::v6::basic_format_specs<char>>::dec_writer" }
%"struct.fmt::v6::internal::basic_writer<fmt::v6::buffer_range<char>>::padded_int_writer.59" = type { i64, %"class.fmt::v6::basic_string_view", i8, i64, %"struct.fmt::v6::internal::basic_writer<fmt::v6::buffer_range<char>>::int_writer<unsigned int, fmt::v6::basic_format_specs<char>>::hex_writer" }
%"struct.fmt::v6::internal::basic_writer<fmt::v6::buffer_range<char>>::padded_int_writer.60" = type { i64, %"class.fmt::v6::basic_string_view", i8, i64, %"struct.fmt::v6::internal::basic_writer<fmt::v6::buffer_range<char>>::int_writer<unsigned int, fmt::v6::basic_format_specs<char>>::bin_writer" }
%"struct.fmt::v6::internal::basic_writer<fmt::v6::buffer_range<char>>::padded_int_writer.62" = type { i64, %"class.fmt::v6::basic_string_view", i8, i64, %"struct.fmt::v6::internal::basic_writer<fmt::v6::buffer_range<char>>::int_writer<unsigned int, fmt::v6::basic_format_specs<char>>::bin_writer.61" }
%"struct.fmt::v6::internal::basic_writer<fmt::v6::buffer_range<char>>::padded_int_writer.63" = type { i64, %"class.fmt::v6::basic_string_view", i8, i64, %"struct.fmt::v6::internal::basic_writer<fmt::v6::buffer_range<char>>::int_writer<unsigned int, fmt::v6::basic_format_specs<char>>::num_writer" }
%class.anon.64 = type { ptr, %"class.fmt::v6::basic_string_view", ptr, ptr }
%"struct.fmt::v6::internal::basic_writer<fmt::v6::buffer_range<char>>::int_writer.65" = type { ptr, ptr, i64, [4 x i8], i32 }
%"struct.fmt::v6::internal::basic_writer<fmt::v6::buffer_range<char>>::int_writer<long long, fmt::v6::basic_format_specs<char>>::dec_writer" = type { i64, i32 }
%"struct.fmt::v6::internal::basic_writer<fmt::v6::buffer_range<char>>::int_writer<long long, fmt::v6::basic_format_specs<char>>::hex_writer" = type <{ ptr, i32, [4 x i8] }>
%"struct.fmt::v6::internal::basic_writer<fmt::v6::buffer_range<char>>::int_writer<long long, fmt::v6::basic_format_specs<char>>::bin_writer" = type { i64, i32 }
%"struct.fmt::v6::internal::basic_writer<fmt::v6::buffer_range<char>>::int_writer<long long, fmt::v6::basic_format_specs<char>>::bin_writer.71" = type { i64, i32 }
%"struct.fmt::v6::internal::basic_writer<fmt::v6::buffer_range<char>>::int_writer<long long, fmt::v6::basic_format_specs<char>>::num_writer" = type <{ i64, i32, [4 x i8], ptr, i8, [7 x i8] }>
%"struct.fmt::v6::internal::basic_writer<fmt::v6::buffer_range<char>>::padded_int_writer.66" = type { i64, %"class.fmt::v6::basic_string_view", i8, i64, %"struct.fmt::v6::internal::basic_writer<fmt::v6::buffer_range<char>>::int_writer<long long, fmt::v6::basic_format_specs<char>>::dec_writer" }
%class.anon.67 = type { i8 }
%"struct.fmt::v6::internal::basic_writer<fmt::v6::buffer_range<char>>::padded_int_writer.69" = type { i64, %"class.fmt::v6::basic_string_view", i8, i64, %"struct.fmt::v6::internal::basic_writer<fmt::v6::buffer_range<char>>::int_writer<long long, fmt::v6::basic_format_specs<char>>::hex_writer" }
%"struct.fmt::v6::internal::basic_writer<fmt::v6::buffer_range<char>>::padded_int_writer.70" = type { i64, %"class.fmt::v6::basic_string_view", i8, i64, %"struct.fmt::v6::internal::basic_writer<fmt::v6::buffer_range<char>>::int_writer<long long, fmt::v6::basic_format_specs<char>>::bin_writer" }
%"struct.fmt::v6::internal::basic_writer<fmt::v6::buffer_range<char>>::padded_int_writer.72" = type { i64, %"class.fmt::v6::basic_string_view", i8, i64, %"struct.fmt::v6::internal::basic_writer<fmt::v6::buffer_range<char>>::int_writer<long long, fmt::v6::basic_format_specs<char>>::bin_writer.71" }
%"struct.fmt::v6::internal::basic_writer<fmt::v6::buffer_range<char>>::padded_int_writer.73" = type { i64, %"class.fmt::v6::basic_string_view", i8, i64, %"struct.fmt::v6::internal::basic_writer<fmt::v6::buffer_range<char>>::int_writer<long long, fmt::v6::basic_format_specs<char>>::num_writer" }
%class.anon.74 = type { ptr, %"class.fmt::v6::basic_string_view", ptr, ptr }
%"struct.fmt::v6::internal::basic_writer<fmt::v6::buffer_range<char>>::int_writer.75" = type { ptr, ptr, i64, [4 x i8], i32 }
%"struct.fmt::v6::internal::basic_writer<fmt::v6::buffer_range<char>>::int_writer<unsigned long long, fmt::v6::basic_format_specs<char>>::dec_writer" = type { i64, i32 }
%"struct.fmt::v6::internal::basic_writer<fmt::v6::buffer_range<char>>::int_writer<unsigned long long, fmt::v6::basic_format_specs<char>>::hex_writer" = type <{ ptr, i32, [4 x i8] }>
%"struct.fmt::v6::internal::basic_writer<fmt::v6::buffer_range<char>>::int_writer<unsigned long long, fmt::v6::basic_format_specs<char>>::bin_writer" = type { i64, i32 }
%"struct.fmt::v6::internal::basic_writer<fmt::v6::buffer_range<char>>::int_writer<unsigned long long, fmt::v6::basic_format_specs<char>>::bin_writer.79" = type { i64, i32 }
%"struct.fmt::v6::internal::basic_writer<fmt::v6::buffer_range<char>>::int_writer<unsigned long long, fmt::v6::basic_format_specs<char>>::num_writer" = type <{ i64, i32, [4 x i8], ptr, i8, [7 x i8] }>
%"struct.fmt::v6::internal::basic_writer<fmt::v6::buffer_range<char>>::padded_int_writer.76" = type { i64, %"class.fmt::v6::basic_string_view", i8, i64, %"struct.fmt::v6::internal::basic_writer<fmt::v6::buffer_range<char>>::int_writer<unsigned long long, fmt::v6::basic_format_specs<char>>::dec_writer" }
%"struct.fmt::v6::internal::basic_writer<fmt::v6::buffer_range<char>>::padded_int_writer.77" = type { i64, %"class.fmt::v6::basic_string_view", i8, i64, %"struct.fmt::v6::internal::basic_writer<fmt::v6::buffer_range<char>>::int_writer<unsigned long long, fmt::v6::basic_format_specs<char>>::hex_writer" }
%"struct.fmt::v6::internal::basic_writer<fmt::v6::buffer_range<char>>::padded_int_writer.78" = type { i64, %"class.fmt::v6::basic_string_view", i8, i64, %"struct.fmt::v6::internal::basic_writer<fmt::v6::buffer_range<char>>::int_writer<unsigned long long, fmt::v6::basic_format_specs<char>>::bin_writer" }
%"struct.fmt::v6::internal::basic_writer<fmt::v6::buffer_range<char>>::padded_int_writer.80" = type { i64, %"class.fmt::v6::basic_string_view", i8, i64, %"struct.fmt::v6::internal::basic_writer<fmt::v6::buffer_range<char>>::int_writer<unsigned long long, fmt::v6::basic_format_specs<char>>::bin_writer.79" }
%"struct.fmt::v6::internal::basic_writer<fmt::v6::buffer_range<char>>::padded_int_writer.81" = type { i64, %"class.fmt::v6::basic_string_view", i8, i64, %"struct.fmt::v6::internal::basic_writer<fmt::v6::buffer_range<char>>::int_writer<unsigned long long, fmt::v6::basic_format_specs<char>>::num_writer" }
%class.anon.82 = type { ptr, %"class.fmt::v6::basic_string_view", ptr, ptr }
%"struct.fmt::v6::internal::basic_writer<fmt::v6::buffer_range<char>>::int_writer.83" = type <{ ptr, ptr, i128, [4 x i8], i32, [8 x i8] }>
%"struct.fmt::v6::internal::basic_writer<fmt::v6::buffer_range<char>>::int_writer<__int128, fmt::v6::basic_format_specs<char>>::dec_writer" = type { i128, i32 }
%"struct.fmt::v6::internal::basic_writer<fmt::v6::buffer_range<char>>::int_writer<__int128, fmt::v6::basic_format_specs<char>>::hex_writer" = type <{ ptr, i32, [4 x i8] }>
%"struct.fmt::v6::internal::basic_writer<fmt::v6::buffer_range<char>>::int_writer<__int128, fmt::v6::basic_format_specs<char>>::bin_writer" = type { i128, i32 }
%"struct.fmt::v6::internal::basic_writer<fmt::v6::buffer_range<char>>::int_writer<__int128, fmt::v6::basic_format_specs<char>>::bin_writer.90" = type { i128, i32 }
%"struct.fmt::v6::internal::basic_writer<fmt::v6::buffer_range<char>>::int_writer<__int128, fmt::v6::basic_format_specs<char>>::num_writer" = type <{ i128, i32, [4 x i8], ptr, i8, [15 x i8] }>
%"struct.fmt::v6::internal::basic_writer<fmt::v6::buffer_range<char>>::padded_int_writer.85" = type { i64, %"class.fmt::v6::basic_string_view", i8, i64, %"struct.fmt::v6::internal::basic_writer<fmt::v6::buffer_range<char>>::int_writer<__int128, fmt::v6::basic_format_specs<char>>::dec_writer" }
%class.anon.86 = type { i8 }
%"struct.fmt::v6::internal::basic_writer<fmt::v6::buffer_range<char>>::padded_int_writer.88" = type { i64, %"class.fmt::v6::basic_string_view", i8, i64, %"struct.fmt::v6::internal::basic_writer<fmt::v6::buffer_range<char>>::int_writer<__int128, fmt::v6::basic_format_specs<char>>::hex_writer" }
%"struct.fmt::v6::internal::basic_writer<fmt::v6::buffer_range<char>>::padded_int_writer.89" = type { i64, %"class.fmt::v6::basic_string_view", i8, i64, %"struct.fmt::v6::internal::basic_writer<fmt::v6::buffer_range<char>>::int_writer<__int128, fmt::v6::basic_format_specs<char>>::bin_writer" }
%"struct.fmt::v6::internal::basic_writer<fmt::v6::buffer_range<char>>::padded_int_writer.91" = type { i64, %"class.fmt::v6::basic_string_view", i8, i64, %"struct.fmt::v6::internal::basic_writer<fmt::v6::buffer_range<char>>::int_writer<__int128, fmt::v6::basic_format_specs<char>>::bin_writer.90" }
%"struct.fmt::v6::internal::basic_writer<fmt::v6::buffer_range<char>>::padded_int_writer.92" = type { i64, %"class.fmt::v6::basic_string_view", i8, i64, [8 x i8], %"struct.fmt::v6::internal::basic_writer<fmt::v6::buffer_range<char>>::int_writer<__int128, fmt::v6::basic_format_specs<char>>::num_writer" }
%class.anon.93 = type { ptr, %"class.fmt::v6::basic_string_view", ptr, ptr }
%"struct.fmt::v6::internal::basic_writer<fmt::v6::buffer_range<char>>::int_writer.94" = type <{ ptr, ptr, i128, [4 x i8], i32, [8 x i8] }>
%"struct.fmt::v6::internal::basic_writer<fmt::v6::buffer_range<char>>::int_writer<unsigned __int128, fmt::v6::basic_format_specs<char>>::dec_writer" = type { i128, i32 }
%"struct.fmt::v6::internal::basic_writer<fmt::v6::buffer_range<char>>::int_writer<unsigned __int128, fmt::v6::basic_format_specs<char>>::hex_writer" = type <{ ptr, i32, [4 x i8] }>
%"struct.fmt::v6::internal::basic_writer<fmt::v6::buffer_range<char>>::int_writer<unsigned __int128, fmt::v6::basic_format_specs<char>>::bin_writer" = type { i128, i32 }
%"struct.fmt::v6::internal::basic_writer<fmt::v6::buffer_range<char>>::int_writer<unsigned __int128, fmt::v6::basic_format_specs<char>>::bin_writer.99" = type { i128, i32 }
%"struct.fmt::v6::internal::basic_writer<fmt::v6::buffer_range<char>>::int_writer<unsigned __int128, fmt::v6::basic_format_specs<char>>::num_writer" = type <{ i128, i32, [4 x i8], ptr, i8, [15 x i8] }>
%"struct.fmt::v6::internal::basic_writer<fmt::v6::buffer_range<char>>::padded_int_writer.96" = type { i64, %"class.fmt::v6::basic_string_view", i8, i64, %"struct.fmt::v6::internal::basic_writer<fmt::v6::buffer_range<char>>::int_writer<unsigned __int128, fmt::v6::basic_format_specs<char>>::dec_writer" }
%"struct.fmt::v6::internal::basic_writer<fmt::v6::buffer_range<char>>::padded_int_writer.97" = type { i64, %"class.fmt::v6::basic_string_view", i8, i64, %"struct.fmt::v6::internal::basic_writer<fmt::v6::buffer_range<char>>::int_writer<unsigned __int128, fmt::v6::basic_format_specs<char>>::hex_writer" }
%"struct.fmt::v6::internal::basic_writer<fmt::v6::buffer_range<char>>::padded_int_writer.98" = type { i64, %"class.fmt::v6::basic_string_view", i8, i64, %"struct.fmt::v6::internal::basic_writer<fmt::v6::buffer_range<char>>::int_writer<unsigned __int128, fmt::v6::basic_format_specs<char>>::bin_writer" }
%"struct.fmt::v6::internal::basic_writer<fmt::v6::buffer_range<char>>::padded_int_writer.100" = type { i64, %"class.fmt::v6::basic_string_view", i8, i64, %"struct.fmt::v6::internal::basic_writer<fmt::v6::buffer_range<char>>::int_writer<unsigned __int128, fmt::v6::basic_format_specs<char>>::bin_writer.99" }
%"struct.fmt::v6::internal::basic_writer<fmt::v6::buffer_range<char>>::padded_int_writer.101" = type { i64, %"class.fmt::v6::basic_string_view", i8, i64, [8 x i8], %"struct.fmt::v6::internal::basic_writer<fmt::v6::buffer_range<char>>::int_writer<unsigned __int128, fmt::v6::basic_format_specs<char>>::num_writer" }
%class.anon.102 = type { ptr, %"class.fmt::v6::basic_string_view", ptr, ptr }
%"struct.fmt::v6::internal::basic_writer<fmt::v6::buffer_range<char>>::str_writer" = type { ptr, i64 }
%"struct.fmt::v6::internal::arg_formatter_base<fmt::v6::buffer_range<char>>::char_writer" = type { i8 }
%"struct.fmt::v6::internal::basic_writer<fmt::v6::buffer_range<char>>::int_writer.103" = type <{ ptr, ptr, i32, [4 x i8], i32, [4 x i8] }>
%"struct.fmt::v6::internal::basic_writer<fmt::v6::buffer_range<char>>::int_writer<char, fmt::v6::basic_format_specs<char>>::dec_writer" = type { i32, i32 }
%"struct.fmt::v6::internal::basic_writer<fmt::v6::buffer_range<char>>::int_writer<char, fmt::v6::basic_format_specs<char>>::hex_writer" = type <{ ptr, i32, [4 x i8] }>
%"struct.fmt::v6::internal::basic_writer<fmt::v6::buffer_range<char>>::int_writer<char, fmt::v6::basic_format_specs<char>>::bin_writer" = type { i32, i32 }
%"struct.fmt::v6::internal::basic_writer<fmt::v6::buffer_range<char>>::int_writer<char, fmt::v6::basic_format_specs<char>>::bin_writer.108" = type { i32, i32 }
%"struct.fmt::v6::internal::basic_writer<fmt::v6::buffer_range<char>>::int_writer<char, fmt::v6::basic_format_specs<char>>::num_writer" = type <{ i32, i32, ptr, i8, [7 x i8] }>
%"struct.fmt::v6::internal::basic_writer<fmt::v6::buffer_range<char>>::padded_int_writer.105" = type { i64, %"class.fmt::v6::basic_string_view", i8, i64, %"struct.fmt::v6::internal::basic_writer<fmt::v6::buffer_range<char>>::int_writer<char, fmt::v6::basic_format_specs<char>>::dec_writer" }
%"struct.fmt::v6::internal::basic_writer<fmt::v6::buffer_range<char>>::padded_int_writer.106" = type { i64, %"class.fmt::v6::basic_string_view", i8, i64, %"struct.fmt::v6::internal::basic_writer<fmt::v6::buffer_range<char>>::int_writer<char, fmt::v6::basic_format_specs<char>>::hex_writer" }
%"struct.fmt::v6::internal::basic_writer<fmt::v6::buffer_range<char>>::padded_int_writer.107" = type { i64, %"class.fmt::v6::basic_string_view", i8, i64, %"struct.fmt::v6::internal::basic_writer<fmt::v6::buffer_range<char>>::int_writer<char, fmt::v6::basic_format_specs<char>>::bin_writer" }
%"struct.fmt::v6::internal::basic_writer<fmt::v6::buffer_range<char>>::padded_int_writer.109" = type { i64, %"class.fmt::v6::basic_string_view", i8, i64, %"struct.fmt::v6::internal::basic_writer<fmt::v6::buffer_range<char>>::int_writer<char, fmt::v6::basic_format_specs<char>>::bin_writer.108" }
%"struct.fmt::v6::internal::basic_writer<fmt::v6::buffer_range<char>>::padded_int_writer.110" = type { i64, %"class.fmt::v6::basic_string_view", i8, i64, %"struct.fmt::v6::internal::basic_writer<fmt::v6::buffer_range<char>>::int_writer<char, fmt::v6::basic_format_specs<char>>::num_writer" }
%class.anon.111 = type { ptr, %"class.fmt::v6::basic_string_view", ptr, ptr }
%"struct.fmt::v6::internal::float_specs" = type { i32, i32 }
%"struct.fmt::v6::internal::nonfinite_writer" = type { i32, ptr }
%"struct.std::is_same.112" = type { i8 }
%"class.fmt::v6::internal::float_writer" = type <{ ptr, i32, i32, i64, %"struct.fmt::v6::internal::float_specs", i8, [7 x i8] }>
%"class.fmt::v6::internal::counting_iterator" = type { i64 }
%"struct.fmt::v6::internal::counting_iterator::value_type" = type { i8 }
%"struct.std::output_iterator_tag" = type { i8 }
%"struct.std::is_same.113" = type { i8 }
%"struct.std::is_same.114" = type { i8 }
%"struct.fmt::v6::internal::basic_writer<fmt::v6::buffer_range<char>>::pointer_writer" = type { i64, i32 }
%"struct.fmt::v6::internal::arg_map<fmt::v6::basic_format_context<std::back_insert_iterator<fmt::v6::internal::buffer<char>>, char>>::entry" = type { %"class.fmt::v6::basic_string_view", %"class.fmt::v6::basic_format_arg" }
%"struct.fmt::v6::internal::width_adapter" = type { ptr }
%"struct.fmt::v6::internal::precision_adapter" = type { ptr }
%"struct.fmt::v6::internal::auto_id" = type { i8 }
%"class.fmt::v6::internal::width_checker" = type { ptr }
%"class.fmt::v6::internal::precision_checker" = type { ptr }
%"struct.fmt::v6::internal::arg_mapper" = type { i8 }
%"class.pugi::xml_object_range" = type { %"class.pugi::xml_named_node_iterator", %"class.pugi::xml_named_node_iterator" }
%"class.pugi::xml_named_node_iterator" = type { %"class.pugi::xml_node", %"class.pugi::xml_node", ptr }
%"struct.std::__detail::_Node_iterator" = type { %"struct.std::__detail::_Node_iterator_base" }
%"struct.std::__detail::_Node_iterator_base" = type { ptr }
%"struct.std::__detail::_Select1st" = type { i8 }
%"struct.std::pair" = type { i32, i32 }
%"struct.std::__detail::_Mod_range_hashing" = type { i8 }
%"struct.std::_Hashtable<int, std::pair<const int, int>, std::allocator<std::pair<const int, int>>, std::__detail::_Select1st, std::equal_to<int>, std::hash<int>, std::__detail::_Mod_range_hashing, std::__detail::_Default_ranged_hash, std::__detail::_Prime_rehash_policy, std::__detail::_Hashtable_traits<false, false, true>>::_Scoped_node" = type { ptr, ptr }
%"class.std::tuple.115" = type { %"struct.std::_Tuple_impl.116" }
%"struct.std::_Tuple_impl.116" = type { %"struct.std::_Head_base.117" }
%"struct.std::_Head_base.117" = type { ptr }
%"class.std::tuple.118" = type { i8 }
%"struct.std::pair.120" = type { i8, i64 }
%"struct.std::_Index_tuple" = type { i8 }
%"struct.std::_Index_tuple.119" = type { i8 }
%"struct.openmc::NuclideMicroXS" = type { double, double, double, double, double, double, double, double, [6 x double], i32, i32, double, i32, i32, double, i8, double, double }
%"class.std::tuple.154" = type { %"struct.std::_Tuple_impl.155" }
%"struct.std::_Tuple_impl.155" = type { %"struct.std::_Tuple_impl.156", %"struct.std::_Head_base.160" }
%"struct.std::_Tuple_impl.156" = type { %"struct.std::_Tuple_impl.157", %"struct.std::_Head_base.159" }
%"struct.std::_Tuple_impl.157" = type { %"struct.std::_Head_base.158" }
%"struct.std::_Head_base.158" = type { double }
%"struct.std::_Head_base.159" = type { double }
%"struct.std::_Head_base.160" = type { double }
%"class.std::tuple.197" = type { %"struct.std::_Tuple_impl.198" }
%"struct.std::_Tuple_impl.198" = type { %"struct.std::_Tuple_impl.199", %"struct.std::_Head_base.203" }
%"struct.std::_Tuple_impl.199" = type { %"struct.std::_Tuple_impl.200", %"struct.std::_Head_base.202" }
%"struct.std::_Tuple_impl.200" = type { %"struct.std::_Head_base.201" }
%"struct.std::_Head_base.201" = type { ptr }
%"struct.std::_Head_base.202" = type { ptr }
%"struct.std::_Head_base.203" = type { ptr }
%"class.openmc::Tally" = type { i32, %"class.std::__cxx11::basic_string", i32, i32, i8, i32, %"class.openmc::vector.44", %"class.openmc::vector.44", ptr, i64, i64, i8, i32, i32, %"class.std::vector.122", i32, %"class.openmc::vector.44", %"class.openmc::vector.44", i32, i64 }
%"class.std::vector.122" = type { %"struct.std::_Vector_base.123" }
%"struct.std::_Vector_base.123" = type { %"struct.std::_Vector_base<openmc::Trigger, std::allocator<openmc::Trigger>>::_Vector_impl" }
%"struct.std::_Vector_base<openmc::Trigger, std::allocator<openmc::Trigger>>::_Vector_impl" = type { %"struct.std::_Vector_base<openmc::Trigger, std::allocator<openmc::Trigger>>::_Vector_impl_data" }
%"struct.std::_Vector_base<openmc::Trigger, std::allocator<openmc::Trigger>>::_Vector_impl_data" = type { ptr, ptr, ptr }
%"class.openmc::Particle" = type { %"class.openmc::NuclideMicroXSCache", [9 x %"struct.openmc::ElementMicroXS"], %"struct.openmc::MacroXS", i64, i32, i32, i32, [4 x i8], [6 x %"class.openmc::LocalCoord"], i32, [6 x i32], double, double, i32, i32, double, double, %"struct.openmc::Position", %"struct.openmc::Position", %"struct.openmc::Position", double, i8, i32, i32, i32, i32, i32, i32, double, [8 x i32], i32, i32, i32, i32, %"struct.openmc::BoundaryInfo", double, double, i32, i8, [8 x i64], i32, [5 x %"struct.openmc::Particle::Bank"], i64, i64, [1 x double], ptr, %"class.std::vector.128", [16 x %"struct.openmc::Particle::NuBank"], double, double, double, double, i8, double, double, i32, i64 }
%"class.openmc::NuclideMicroXSCache" = type { [1 x %"struct.openmc::NuclideMicroXS"] }
%"struct.openmc::ElementMicroXS" = type { i32, double, double, double, double, double, double, double }
%"struct.openmc::MacroXS" = type { double, double, double, double, double, [6 x double], double, double, double, double }
%"class.openmc::LocalCoord" = type <{ %"struct.openmc::Position", %"struct.openmc::Position", i32, i32, i32, i32, i32, i32, i8, [7 x i8] }>
%"struct.openmc::Position" = type { double, double, double }
%"struct.openmc::BoundaryInfo" = type <{ double, i32, i32, %"struct.std::array.127", [4 x i8] }>
%"struct.std::array.127" = type { [3 x i32] }
%"struct.openmc::Particle::Bank" = type { %"struct.openmc::Position", %"struct.openmc::Position", double, double, i32, i32, i32, i64, i64 }
%"class.std::vector.128" = type { %"struct.std::_Vector_base.129" }
%"struct.std::_Vector_base.129" = type { %"struct.std::_Vector_base<std::vector<openmc::Position>, std::allocator<std::vector<openmc::Position>>>::_Vector_impl" }
%"struct.std::_Vector_base<std::vector<openmc::Position>, std::allocator<std::vector<openmc::Position>>>::_Vector_impl" = type { %"struct.std::_Vector_base<std::vector<openmc::Position>, std::allocator<std::vector<openmc::Position>>>::_Vector_impl_data" }
%"struct.std::_Vector_base<std::vector<openmc::Position>, std::allocator<std::vector<openmc::Position>>>::_Vector_impl_data" = type { ptr, ptr, ptr }
%"struct.openmc::Particle::NuBank" = type { double, double, i32 }
%"class.openmc::Material" = type { i32, %"class.std::__cxx11::basic_string", %"class.openmc::vector.44", %"class.openmc::vector.44", %"class.xt::xtensor_container", double, double, double, i8, i8, %"class.openmc::vector.44", %"class.openmc::vector.44", %"class.openmc::vector.135", %"class.openmc::Bremsstrahlung", i64, double }
%"class.xt::xtensor_container" = type { %"class.xt::xstrided_container.base", %"class.xt::xcontainer_semantic", %"class.xt::uvector" }
%"class.xt::xstrided_container.base" = type <{ %"struct.std::array.133", %"struct.std::array.134", %"struct.std::array.134", i32 }>
%"struct.std::array.133" = type { [1 x i64] }
%"struct.std::array.134" = type { [1 x i64] }
%"class.xt::xcontainer_semantic" = type { %"class.xt::xsemantic_base" }
%"class.xt::xsemantic_base" = type { %"class.xt::xsharable_expression" }
%"class.xt::xsharable_expression" = type { %"class.std::shared_ptr" }
%"class.std::shared_ptr" = type { %"class.std::__shared_ptr" }
%"class.std::__shared_ptr" = type { ptr, %"class.std::__shared_count" }
%"class.std::__shared_count" = type { ptr }
%"class.xt::uvector" = type { [8 x i8], ptr, ptr }
%"class.openmc::vector.135" = type { ptr, i64, i64 }
%"class.openmc::Bremsstrahlung" = type { %"class.openmc::BremsstrahlungData", %"class.openmc::BremsstrahlungData" }
%"class.openmc::BremsstrahlungData" = type { %"class.xt::xtensor_container.136", %"class.xt::xtensor_container.136", %"class.xt::xtensor_container", ptr, ptr, ptr }
%"class.xt::xtensor_container.136" = type { %"class.xt::xstrided_container.base.146", %"class.xt::xcontainer_semantic.147", %"class.xt::uvector" }
%"class.xt::xstrided_container.base.146" = type <{ %"struct.std::array.144", %"struct.std::array.145", %"struct.std::array.145", i32 }>
%"struct.std::array.144" = type { [2 x i64] }
%"struct.std::array.145" = type { [2 x i64] }
%"class.xt::xcontainer_semantic.147" = type { %"class.xt::xsemantic_base.148" }
%"class.xt::xsemantic_base.148" = type { %"class.xt::xsharable_expression.149" }
%"class.xt::xsharable_expression.149" = type { %"class.std::shared_ptr.151" }
%"class.std::shared_ptr.151" = type { %"class.std::__shared_ptr.152" }
%"class.std::__shared_ptr.152" = type { ptr, %"class.std::__shared_count" }
%"class.xt::xstrided_container" = type <{ %"struct.std::array.133", %"struct.std::array.134", %"struct.std::array.134", i32, [4 x i8] }>
%"class.fmt::v6::format_arg_store.204" = type { [3 x %"class.fmt::v6::internal::value"] }

$_ZNSt6vectorIN6openmc15TallyDerivativeESaIS1_EE19_S_nothrow_relocateESt17integral_constantIbLb1EE = comdat any

$_ZNSt6vectorIN6openmc15TallyDerivativeESaIS1_EE19_S_nothrow_relocateESt17integral_constantIbLb0EE = comdat any

$_ZNSt6vectorIN6openmc15TallyDerivativeESaIS1_EE15_S_use_relocateEv = comdat any

$_ZNSt6vectorIN6openmc15TallyDerivativeESaIS1_EE14_S_do_relocateEPS1_S4_S4_RS2_St17integral_constantIbLb1EE = comdat any

$_ZSt12__relocate_aIPN6openmc15TallyDerivativeES2_SaIS1_EET0_T_S5_S4_RT1_ = comdat any

$_ZSt14__relocate_a_1IPN6openmc15TallyDerivativeES2_SaIS1_EET0_T_S5_S4_RT1_ = comdat any

$_ZSt12__niter_baseIPN6openmc15TallyDerivativeEET_S3_ = comdat any

$_ZSt19__relocate_object_aIN6openmc15TallyDerivativeES1_SaIS1_EEvPT_PT0_RT1_ = comdat any

$_ZNSt16allocator_traitsISaIN6openmc15TallyDerivativeEEE9constructIS1_JS1_EEEvRS2_PT_DpOT0_ = comdat any

$_ZNSt16allocator_traitsISaIN6openmc15TallyDerivativeEEE7destroyIS1_EEvRS2_PT_ = comdat any

$_ZNSt15__new_allocatorIN6openmc15TallyDerivativeEE9constructIS1_JS1_EEEvPT_DpOT0_ = comdat any

$_ZNSt15__new_allocatorIN6openmc15TallyDerivativeEE7destroyIS1_EEvPT_ = comdat any

$_ZNSt6vectorIN6openmc15TallyDerivativeESaIS1_EE14_S_do_relocateEPS1_S4_S4_RS2_St17integral_constantIbLb0EE = comdat any

$_ZNSt6vectorIN6openmc15TallyDerivativeESaIS1_EE11_S_relocateEPS1_S4_S4_RS2_ = comdat any

$_ZNSt6vectorIN6openmc15TallyDerivativeESaIS1_EEC5ERKS2_ = comdat any

$_ZNSt12_Vector_baseIN6openmc15TallyDerivativeESaIS1_EEC2ERKS2_ = comdat any

$_ZNSt12_Vector_baseIN6openmc15TallyDerivativeESaIS1_EE12_Vector_implC2ERKS2_ = comdat any

$_ZNSt15__new_allocatorIN6openmc15TallyDerivativeEEC2ERKS2_ = comdat any

$_ZNSt6vectorIN6openmc15TallyDerivativeESaIS1_EEC5EmRKS2_ = comdat any

$_ZNSt6vectorIN6openmc15TallyDerivativeESaIS1_EE17_S_check_init_lenEmRKS2_ = comdat any

$_ZNSt12_Vector_baseIN6openmc15TallyDerivativeESaIS1_EEC2EmRKS2_ = comdat any

$_ZNSt6vectorIN6openmc15TallyDerivativeESaIS1_EE21_M_default_initializeEm = comdat any

$_ZNSt12_Vector_baseIN6openmc15TallyDerivativeESaIS1_EED2Ev = comdat any

$_ZNSt6vectorIN6openmc15TallyDerivativeESaIS1_EE11_S_max_sizeERKS2_ = comdat any

$_ZNSaIN6openmc15TallyDerivativeEEC2ERKS1_ = comdat any

$_ZNSt16allocator_traitsISaIN6openmc15TallyDerivativeEEE8max_sizeERKS2_ = comdat any

$_ZSt3minImERKT_S2_S2_ = comdat any

$__clang_call_terminate = comdat any

$_ZNKSt15__new_allocatorIN6openmc15TallyDerivativeEE8max_sizeEv = comdat any

$_ZNKSt15__new_allocatorIN6openmc15TallyDerivativeEE11_M_max_sizeEv = comdat any

$_ZNSt12_Vector_baseIN6openmc15TallyDerivativeESaIS1_EE17_M_create_storageEm = comdat any

$_ZNSt15__new_allocatorIN6openmc15TallyDerivativeEED2Ev = comdat any

$_ZNSt12_Vector_baseIN6openmc15TallyDerivativeESaIS1_EE11_M_allocateEm = comdat any

$_ZNSt16allocator_traitsISaIN6openmc15TallyDerivativeEEE8allocateERS2_m = comdat any

$_ZNSt15__new_allocatorIN6openmc15TallyDerivativeEE8allocateEmPKv = comdat any

$_ZSt27__uninitialized_default_n_aIPN6openmc15TallyDerivativeEmS1_ET_S3_T0_RSaIT1_E = comdat any

$_ZNSt12_Vector_baseIN6openmc15TallyDerivativeESaIS1_EE19_M_get_Tp_allocatorEv = comdat any

$_ZSt25__uninitialized_default_nIPN6openmc15TallyDerivativeEmET_S3_T0_ = comdat any

$_ZNSt27__uninitialized_default_n_1ILb0EE18__uninit_default_nIPN6openmc15TallyDerivativeEmEET_S5_T0_ = comdat any

$_ZSt10_ConstructIN6openmc15TallyDerivativeEJEEvPT_DpOT0_ = comdat any

$_ZSt8_DestroyIPN6openmc15TallyDerivativeEEvT_S3_ = comdat any

$_ZN6openmc15TallyDerivativeC2Ev = comdat any

$_ZNSt12_Destroy_auxILb1EE9__destroyIPN6openmc15TallyDerivativeEEEvT_S5_ = comdat any

$_ZNSt12_Vector_baseIN6openmc15TallyDerivativeESaIS1_EE13_M_deallocateEPS1_m = comdat any

$_ZNSt16allocator_traitsISaIN6openmc15TallyDerivativeEEE10deallocateERS2_PS1_m = comdat any

$_ZNSt15__new_allocatorIN6openmc15TallyDerivativeEE10deallocateEPS1_m = comdat any

$_ZNSt6vectorIN6openmc15TallyDerivativeESaIS1_EEC5EmRKS1_RKS2_ = comdat any

$_ZNSt6vectorIN6openmc15TallyDerivativeESaIS1_EE18_M_fill_initializeEmRKS1_ = comdat any

$_ZSt24__uninitialized_fill_n_aIPN6openmc15TallyDerivativeEmS1_S1_ET_S3_T0_RKT1_RSaIT2_E = comdat any

$_ZSt20uninitialized_fill_nIPN6openmc15TallyDerivativeEmS1_ET_S3_T0_RKT1_ = comdat any

$_ZNSt22__uninitialized_fill_nILb0EE15__uninit_fill_nIPN6openmc15TallyDerivativeEmS3_EET_S5_T0_RKT1_ = comdat any

$_ZSt18__do_uninit_fill_nIPN6openmc15TallyDerivativeEmS1_ET_S3_T0_RKT1_ = comdat any

$_ZSt10_ConstructIN6openmc15TallyDerivativeEJRKS1_EEvPT_DpOT0_ = comdat any

$_ZNSt6vectorIN6openmc15TallyDerivativeESaIS1_EEC5ERKS3_ = comdat any

$_ZNKSt6vectorIN6openmc15TallyDerivativeESaIS1_EE4sizeEv = comdat any

$_ZN9__gnu_cxx14__alloc_traitsISaIN6openmc15TallyDerivativeEES2_E17_S_select_on_copyERKS3_ = comdat any

$_ZNKSt12_Vector_baseIN6openmc15TallyDerivativeESaIS1_EE19_M_get_Tp_allocatorEv = comdat any

$_ZSt22__uninitialized_copy_aIN9__gnu_cxx17__normal_iteratorIPKN6openmc15TallyDerivativeESt6vectorIS3_SaIS3_EEEEPS3_S3_ET0_T_SC_SB_RSaIT1_E = comdat any

$_ZNKSt6vectorIN6openmc15TallyDerivativeESaIS1_EE5beginEv = comdat any

$_ZNKSt6vectorIN6openmc15TallyDerivativeESaIS1_EE3endEv = comdat any

$_ZNSt16allocator_traitsISaIN6openmc15TallyDerivativeEEE37select_on_container_copy_constructionERKS2_ = comdat any

$_ZSt18uninitialized_copyIN9__gnu_cxx17__normal_iteratorIPKN6openmc15TallyDerivativeESt6vectorIS3_SaIS3_EEEEPS3_ET0_T_SC_SB_ = comdat any

$_ZNSt20__uninitialized_copyILb0EE13__uninit_copyIN9__gnu_cxx17__normal_iteratorIPKN6openmc15TallyDerivativeESt6vectorIS5_SaIS5_EEEEPS5_EET0_T_SE_SD_ = comdat any

$_ZSt16__do_uninit_copyIN9__gnu_cxx17__normal_iteratorIPKN6openmc15TallyDerivativeESt6vectorIS3_SaIS3_EEEEPS3_ET0_T_SC_SB_ = comdat any

$_ZN9__gnu_cxxneIPKN6openmc15TallyDerivativeESt6vectorIS2_SaIS2_EEEEbRKNS_17__normal_iteratorIT_T0_EESD_ = comdat any

$_ZNK9__gnu_cxx17__normal_iteratorIPKN6openmc15TallyDerivativeESt6vectorIS2_SaIS2_EEEdeEv = comdat any

$_ZN9__gnu_cxx17__normal_iteratorIPKN6openmc15TallyDerivativeESt6vectorIS2_SaIS2_EEEppEv = comdat any

$_ZNK9__gnu_cxx17__normal_iteratorIPKN6openmc15TallyDerivativeESt6vectorIS2_SaIS2_EEE4baseEv = comdat any

$_ZN9__gnu_cxx17__normal_iteratorIPKN6openmc15TallyDerivativeESt6vectorIS2_SaIS2_EEEC2ERKS4_ = comdat any

$_ZNSt6vectorIN6openmc15TallyDerivativeESaIS1_EEC5ERKS3_RKS2_ = comdat any

$_ZNSt6vectorIN6openmc15TallyDerivativeESaIS1_EEC5EOS3_RKS2_St17integral_constantIbLb1EE = comdat any

$_ZNSt12_Vector_baseIN6openmc15TallyDerivativeESaIS1_EEC2ERKS2_OS3_ = comdat any

$_ZNSt12_Vector_baseIN6openmc15TallyDerivativeESaIS1_EE12_Vector_implC2EOS2_OS4_ = comdat any

$_ZNSt12_Vector_baseIN6openmc15TallyDerivativeESaIS1_EE17_Vector_impl_dataC2EOS4_ = comdat any

$_ZNSt6vectorIN6openmc15TallyDerivativeESaIS1_EEC5EOS3_RKS2_St17integral_constantIbLb0EE = comdat any

$_ZSteqRKSaIN6openmc15TallyDerivativeEES3_ = comdat any

$_ZNKSt12_Vector_baseIN6openmc15TallyDerivativeESaIS1_EE13get_allocatorEv = comdat any

$_ZNSt12_Vector_baseIN6openmc15TallyDerivativeESaIS1_EE17_Vector_impl_data12_M_swap_dataERS4_ = comdat any

$_ZNKSt6vectorIN6openmc15TallyDerivativeESaIS1_EE5emptyEv = comdat any

$_ZSt22__uninitialized_move_aIN9__gnu_cxx17__normal_iteratorIPN6openmc15TallyDerivativeESt6vectorIS3_SaIS3_EEEES4_S6_ET0_T_SA_S9_RT1_ = comdat any

$_ZNSt6vectorIN6openmc15TallyDerivativeESaIS1_EE5beginEv = comdat any

$_ZNSt6vectorIN6openmc15TallyDerivativeESaIS1_EE3endEv = comdat any

$_ZNSt6vectorIN6openmc15TallyDerivativeESaIS1_EE5clearEv = comdat any

$_ZNSt12_Vector_baseIN6openmc15TallyDerivativeESaIS1_EE17_Vector_impl_dataC2Ev = comdat any

$_ZNSt12_Vector_baseIN6openmc15TallyDerivativeESaIS1_EE17_Vector_impl_data12_M_copy_dataERKS4_ = comdat any

$_ZN9__gnu_cxxeqIPKN6openmc15TallyDerivativeESt6vectorIS2_SaIS2_EEEEbRKNS_17__normal_iteratorIT_T0_EESD_ = comdat any

$_ZSt22__uninitialized_copy_aISt13move_iteratorIN9__gnu_cxx17__normal_iteratorIPN6openmc15TallyDerivativeESt6vectorIS4_SaIS4_EEEEES5_S4_ET0_T_SC_SB_RSaIT1_E = comdat any

$_ZSt18make_move_iteratorIN9__gnu_cxx17__normal_iteratorIPN6openmc15TallyDerivativeESt6vectorIS3_SaIS3_EEEEESt13move_iteratorIT_ESA_ = comdat any

$_ZSt18uninitialized_copyISt13move_iteratorIN9__gnu_cxx17__normal_iteratorIPN6openmc15TallyDerivativeESt6vectorIS4_SaIS4_EEEEES5_ET0_T_SC_SB_ = comdat any

$_ZNSt20__uninitialized_copyILb0EE13__uninit_copyISt13move_iteratorIN9__gnu_cxx17__normal_iteratorIPN6openmc15TallyDerivativeESt6vectorIS6_SaIS6_EEEEES7_EET0_T_SE_SD_ = comdat any

$_ZSt16__do_uninit_copyISt13move_iteratorIN9__gnu_cxx17__normal_iteratorIPN6openmc15TallyDerivativeESt6vectorIS4_SaIS4_EEEEES5_ET0_T_SC_SB_ = comdat any

$_ZStneIN9__gnu_cxx17__normal_iteratorIPN6openmc15TallyDerivativeESt6vectorIS3_SaIS3_EEEEEbRKSt13move_iteratorIT_ESD_ = comdat any

$_ZSt10_ConstructIN6openmc15TallyDerivativeEJS1_EEvPT_DpOT0_ = comdat any

$_ZNKSt13move_iteratorIN9__gnu_cxx17__normal_iteratorIPN6openmc15TallyDerivativeESt6vectorIS3_SaIS3_EEEEEdeEv = comdat any

$_ZNSt13move_iteratorIN9__gnu_cxx17__normal_iteratorIPN6openmc15TallyDerivativeESt6vectorIS3_SaIS3_EEEEEppEv = comdat any

$_ZSteqIN9__gnu_cxx17__normal_iteratorIPN6openmc15TallyDerivativeESt6vectorIS3_SaIS3_EEEEEbRKSt13move_iteratorIT_ESD_ = comdat any

$_ZN9__gnu_cxxeqIPN6openmc15TallyDerivativeESt6vectorIS2_SaIS2_EEEEbRKNS_17__normal_iteratorIT_T0_EESC_ = comdat any

$_ZNKSt13move_iteratorIN9__gnu_cxx17__normal_iteratorIPN6openmc15TallyDerivativeESt6vectorIS3_SaIS3_EEEEE4baseEv = comdat any

$_ZNK9__gnu_cxx17__normal_iteratorIPN6openmc15TallyDerivativeESt6vectorIS2_SaIS2_EEE4baseEv = comdat any

$_ZNK9__gnu_cxx17__normal_iteratorIPN6openmc15TallyDerivativeESt6vectorIS2_SaIS2_EEEdeEv = comdat any

$_ZN9__gnu_cxx17__normal_iteratorIPN6openmc15TallyDerivativeESt6vectorIS2_SaIS2_EEEppEv = comdat any

$_ZNSt13move_iteratorIN9__gnu_cxx17__normal_iteratorIPN6openmc15TallyDerivativeESt6vectorIS3_SaIS3_EEEEEC2ES8_ = comdat any

$_ZN9__gnu_cxx17__normal_iteratorIPN6openmc15TallyDerivativeESt6vectorIS2_SaIS2_EEEC2ERKS3_ = comdat any

$_ZNSt6vectorIN6openmc15TallyDerivativeESaIS1_EE15_M_erase_at_endEPS1_ = comdat any

$_ZSt8_DestroyIPN6openmc15TallyDerivativeES1_EvT_S3_RSaIT0_E = comdat any

$_ZNSt6vectorIN6openmc15TallyDerivativeESaIS1_EEC5EOS3_RKS2_ = comdat any

$_ZNSt6vectorIN6openmc15TallyDerivativeESaIS1_EEC5ESt16initializer_listIS1_ERKS2_ = comdat any

$_ZNSt6vectorIN6openmc15TallyDerivativeESaIS1_EE19_M_range_initializeIPKS1_EEvT_S7_St20forward_iterator_tag = comdat any

$_ZNKSt16initializer_listIN6openmc15TallyDerivativeEE5beginEv = comdat any

$_ZNKSt16initializer_listIN6openmc15TallyDerivativeEE3endEv = comdat any

$_ZSt8distanceIPKN6openmc15TallyDerivativeEENSt15iterator_traitsIT_E15difference_typeES5_S5_ = comdat any

$_ZSt22__uninitialized_copy_aIPKN6openmc15TallyDerivativeEPS1_S1_ET0_T_S6_S5_RSaIT1_E = comdat any

$_ZSt10__distanceIPKN6openmc15TallyDerivativeEENSt15iterator_traitsIT_E15difference_typeES5_S5_St26random_access_iterator_tag = comdat any

$_ZSt19__iterator_categoryIPKN6openmc15TallyDerivativeEENSt15iterator_traitsIT_E17iterator_categoryERKS5_ = comdat any

$_ZSt18uninitialized_copyIPKN6openmc15TallyDerivativeEPS1_ET0_T_S6_S5_ = comdat any

$_ZNSt20__uninitialized_copyILb0EE13__uninit_copyIPKN6openmc15TallyDerivativeEPS3_EET0_T_S8_S7_ = comdat any

$_ZSt16__do_uninit_copyIPKN6openmc15TallyDerivativeEPS1_ET0_T_S6_S5_ = comdat any

$_ZNKSt16initializer_listIN6openmc15TallyDerivativeEE4sizeEv = comdat any

$_ZNSt6vectorIN6openmc15TallyDerivativeESaIS1_EED5Ev = comdat any

$_ZNSt6vectorIN6openmc15TallyDerivativeESaIS1_EEaSERKS3_ = comdat any

$_ZNKSt6vectorIN6openmc15TallyDerivativeESaIS1_EE8capacityEv = comdat any

$_ZNSt6vectorIN6openmc15TallyDerivativeESaIS1_EE20_M_allocate_and_copyIN9__gnu_cxx17__normal_iteratorIPKS1_S3_EEEEPS1_mT_SB_ = comdat any

$_ZSt8_DestroyIN9__gnu_cxx17__normal_iteratorIPN6openmc15TallyDerivativeESt6vectorIS3_SaIS3_EEEES3_EvT_S9_RSaIT0_E = comdat any

$_ZSt4copyIN9__gnu_cxx17__normal_iteratorIPKN6openmc15TallyDerivativeESt6vectorIS3_SaIS3_EEEENS1_IPS3_S8_EEET0_T_SD_SC_ = comdat any

$_ZSt4copyIPN6openmc15TallyDerivativeES2_ET0_T_S4_S3_ = comdat any

$_ZSt22__uninitialized_copy_aIPN6openmc15TallyDerivativeES2_S1_ET0_T_S4_S3_RSaIT1_E = comdat any

$_ZSt8_DestroyIN9__gnu_cxx17__normal_iteratorIPN6openmc15TallyDerivativeESt6vectorIS3_SaIS3_EEEEEvT_S9_ = comdat any

$_ZNSt12_Destroy_auxILb1EE9__destroyIN9__gnu_cxx17__normal_iteratorIPN6openmc15TallyDerivativeESt6vectorIS5_SaIS5_EEEEEEvT_SB_ = comdat any

$_ZSt13__copy_move_aILb0EN9__gnu_cxx17__normal_iteratorIPKN6openmc15TallyDerivativeESt6vectorIS3_SaIS3_EEEENS1_IPS3_S8_EEET1_T0_SD_SC_ = comdat any

$_ZSt12__miter_baseIN9__gnu_cxx17__normal_iteratorIPKN6openmc15TallyDerivativeESt6vectorIS3_SaIS3_EEEEET_SA_ = comdat any

$_ZSt12__niter_wrapIN9__gnu_cxx17__normal_iteratorIPN6openmc15TallyDerivativeESt6vectorIS3_SaIS3_EEEES4_ET_S9_T0_ = comdat any

$_ZSt14__copy_move_a1ILb0EPKN6openmc15TallyDerivativeEPS1_ET1_T0_S6_S5_ = comdat any

$_ZSt12__niter_baseIPKN6openmc15TallyDerivativeESt6vectorIS1_SaIS1_EEET_N9__gnu_cxx17__normal_iteratorIS7_T0_EE = comdat any

$_ZSt12__niter_baseIPN6openmc15TallyDerivativeESt6vectorIS1_SaIS1_EEET_N9__gnu_cxx17__normal_iteratorIS6_T0_EE = comdat any

$_ZNK9__gnu_cxx17__normal_iteratorIPN6openmc15TallyDerivativeESt6vectorIS2_SaIS2_EEEplEl = comdat any

$_ZSt14__copy_move_a2ILb0EPKN6openmc15TallyDerivativeEPS1_ET1_T0_S6_S5_ = comdat any

$_ZNSt11__copy_moveILb0ELb1ESt26random_access_iterator_tagE8__copy_mIN6openmc15TallyDerivativeEEEPT_PKS5_S8_S6_ = comdat any

$_ZSt13__copy_move_aILb0EPN6openmc15TallyDerivativeES2_ET1_T0_S4_S3_ = comdat any

$_ZSt12__miter_baseIPN6openmc15TallyDerivativeEET_S3_ = comdat any

$_ZSt12__niter_wrapIPN6openmc15TallyDerivativeEET_RKS3_S3_ = comdat any

$_ZSt14__copy_move_a1ILb0EPN6openmc15TallyDerivativeES2_ET1_T0_S4_S3_ = comdat any

$_ZSt14__copy_move_a2ILb0EPN6openmc15TallyDerivativeES2_ET1_T0_S4_S3_ = comdat any

$_ZSt18uninitialized_copyIPN6openmc15TallyDerivativeES2_ET0_T_S4_S3_ = comdat any

$_ZNSt20__uninitialized_copyILb0EE13__uninit_copyIPN6openmc15TallyDerivativeES4_EET0_T_S6_S5_ = comdat any

$_ZSt16__do_uninit_copyIPN6openmc15TallyDerivativeES2_ET0_T_S4_S3_ = comdat any

$_ZSt10_ConstructIN6openmc15TallyDerivativeEJRS1_EEvPT_DpOT0_ = comdat any

$_ZNSt6vectorIN6openmc15TallyDerivativeESaIS1_EEaSEOS3_ = comdat any

$_ZNSt6vectorIN6openmc15TallyDerivativeESaIS1_EE14_M_move_assignEOS3_St17integral_constantIbLb1EE = comdat any

$_ZSt15__alloc_on_moveISaIN6openmc15TallyDerivativeEEEvRT_S4_ = comdat any

$_ZNSt6vectorIN6openmc15TallyDerivativeESaIS1_EEaSESt16initializer_listIS1_E = comdat any

$_ZNSt6vectorIN6openmc15TallyDerivativeESaIS1_EE13_M_assign_auxIPKS1_EEvT_S7_St20forward_iterator_tag = comdat any

$_ZNSt6vectorIN6openmc15TallyDerivativeESaIS1_EE20_M_allocate_and_copyIPKS1_EEPS1_mT_S8_ = comdat any

$_ZSt4copyIPKN6openmc15TallyDerivativeEPS1_ET0_T_S6_S5_ = comdat any

$_ZSt7advanceIPKN6openmc15TallyDerivativeEmEvRT_T0_ = comdat any

$_ZSt13__copy_move_aILb0EPKN6openmc15TallyDerivativeEPS1_ET1_T0_S6_S5_ = comdat any

$_ZSt12__miter_baseIPKN6openmc15TallyDerivativeEET_S4_ = comdat any

$_ZSt12__niter_baseIPKN6openmc15TallyDerivativeEET_S4_ = comdat any

$_ZSt9__advanceIPKN6openmc15TallyDerivativeElEvRT_T0_St26random_access_iterator_tag = comdat any

$_ZNSt6vectorIN6openmc15TallyDerivativeESaIS1_EE6assignEmRKS1_ = comdat any

$_ZNSt6vectorIN6openmc15TallyDerivativeESaIS1_EE14_M_fill_assignEmRKS1_ = comdat any

$_ZSt4fillIN9__gnu_cxx17__normal_iteratorIPN6openmc15TallyDerivativeESt6vectorIS3_SaIS3_EEEES3_EvT_S9_RKT0_ = comdat any

$_ZSt6fill_nIPN6openmc15TallyDerivativeEmS1_ET_S3_T0_RKT1_ = comdat any

$_ZSt8__fill_aIN9__gnu_cxx17__normal_iteratorIPN6openmc15TallyDerivativeESt6vectorIS3_SaIS3_EEEES3_EvT_S9_RKT0_ = comdat any

$_ZSt9__fill_a1IPN6openmc15TallyDerivativeESt6vectorIS1_SaIS1_EES1_EvN9__gnu_cxx17__normal_iteratorIT_T0_EESA_RKT1_ = comdat any

$_ZSt9__fill_a1IPN6openmc15TallyDerivativeES1_EN9__gnu_cxx11__enable_ifIXntsr11__is_scalarIT0_EE7__valueEvE6__typeET_S8_RKS5_ = comdat any

$_ZSt10__fill_n_aIPN6openmc15TallyDerivativeEmS1_ET_S3_T0_RKT1_St26random_access_iterator_tag = comdat any

$_ZSt17__size_to_integerm = comdat any

$_ZSt19__iterator_categoryIPN6openmc15TallyDerivativeEENSt15iterator_traitsIT_E17iterator_categoryERKS4_ = comdat any

$_ZSt8__fill_aIPN6openmc15TallyDerivativeES1_EvT_S3_RKT0_ = comdat any

$_ZNSt6vectorIN6openmc15TallyDerivativeESaIS1_EE6assignESt16initializer_listIS1_E = comdat any

$_ZNSt6vectorIN6openmc15TallyDerivativeESaIS1_EE6rbeginEv = comdat any

$_ZNSt16reverse_iteratorIN9__gnu_cxx17__normal_iteratorIPN6openmc15TallyDerivativeESt6vectorIS3_SaIS3_EEEEEC2ES8_ = comdat any

$_ZNKSt6vectorIN6openmc15TallyDerivativeESaIS1_EE6rbeginEv = comdat any

$_ZNSt16reverse_iteratorIN9__gnu_cxx17__normal_iteratorIPKN6openmc15TallyDerivativeESt6vectorIS3_SaIS3_EEEEEC2ES9_ = comdat any

$_ZNSt6vectorIN6openmc15TallyDerivativeESaIS1_EE4rendEv = comdat any

$_ZNKSt6vectorIN6openmc15TallyDerivativeESaIS1_EE4rendEv = comdat any

$_ZNKSt6vectorIN6openmc15TallyDerivativeESaIS1_EE6cbeginEv = comdat any

$_ZNKSt6vectorIN6openmc15TallyDerivativeESaIS1_EE4cendEv = comdat any

$_ZNKSt6vectorIN6openmc15TallyDerivativeESaIS1_EE7crbeginEv = comdat any

$_ZNKSt6vectorIN6openmc15TallyDerivativeESaIS1_EE5crendEv = comdat any

$_ZNKSt6vectorIN6openmc15TallyDerivativeESaIS1_EE8max_sizeEv = comdat any

$_ZNSt6vectorIN6openmc15TallyDerivativeESaIS1_EE6resizeEm = comdat any

$_ZNSt6vectorIN6openmc15TallyDerivativeESaIS1_EE17_M_default_appendEm = comdat any

$_ZNKSt6vectorIN6openmc15TallyDerivativeESaIS1_EE12_M_check_lenEmPKc = comdat any

$_ZSt3maxImERKT_S2_S2_ = comdat any

$_ZNSt6vectorIN6openmc15TallyDerivativeESaIS1_EE6resizeEmRKS1_ = comdat any

$_ZNSt6vectorIN6openmc15TallyDerivativeESaIS1_EE14_M_fill_insertEN9__gnu_cxx17__normal_iteratorIPS1_S3_EEmRKS1_ = comdat any

$_ZNSt6vectorIN6openmc15TallyDerivativeESaIS1_EE16_Temporary_valueC2IJRKS1_EEEPS3_DpOT_ = comdat any

$_ZNSt6vectorIN6openmc15TallyDerivativeESaIS1_EE16_Temporary_value6_M_valEv = comdat any

$_ZN9__gnu_cxxmiIPN6openmc15TallyDerivativeESt6vectorIS2_SaIS2_EEEENS_17__normal_iteratorIT_T0_E15difference_typeERKSA_SD_ = comdat any

$_ZSt22__uninitialized_move_aIPN6openmc15TallyDerivativeES2_SaIS1_EET0_T_S5_S4_RT1_ = comdat any

$_ZSt13move_backwardIPN6openmc15TallyDerivativeES2_ET0_T_S4_S3_ = comdat any

$_ZSt4fillIPN6openmc15TallyDerivativeES1_EvT_S3_RKT0_ = comdat any

$_ZSt34__uninitialized_move_if_noexcept_aIPN6openmc15TallyDerivativeES2_SaIS1_EET0_T_S5_S4_RT1_ = comdat any

$_ZNSt16allocator_traitsISaIN6openmc15TallyDerivativeEEE9constructIS1_JRKS1_EEEvRS2_PT_DpOT0_ = comdat any

$_ZNSt6vectorIN6openmc15TallyDerivativeESaIS1_EE16_Temporary_value6_M_ptrEv = comdat any

$_ZNSt6vectorIN6openmc15TallyDerivativeESaIS1_EE16_Temporary_value8_StorageC5Ev = comdat any

$_ZNSt15__new_allocatorIN6openmc15TallyDerivativeEE9constructIS1_JRKS1_EEEvPT_DpOT0_ = comdat any

$_ZSt22__uninitialized_copy_aISt13move_iteratorIPN6openmc15TallyDerivativeEES3_S2_ET0_T_S6_S5_RSaIT1_E = comdat any

$_ZSt18make_move_iteratorIPN6openmc15TallyDerivativeEESt13move_iteratorIT_ES4_ = comdat any

$_ZSt18uninitialized_copyISt13move_iteratorIPN6openmc15TallyDerivativeEES3_ET0_T_S6_S5_ = comdat any

$_ZNSt20__uninitialized_copyILb0EE13__uninit_copyISt13move_iteratorIPN6openmc15TallyDerivativeEES5_EET0_T_S8_S7_ = comdat any

$_ZSt16__do_uninit_copyISt13move_iteratorIPN6openmc15TallyDerivativeEES3_ET0_T_S6_S5_ = comdat any

$_ZStneIPN6openmc15TallyDerivativeEEbRKSt13move_iteratorIT_ES7_ = comdat any

$_ZNKSt13move_iteratorIPN6openmc15TallyDerivativeEEdeEv = comdat any

$_ZNSt13move_iteratorIPN6openmc15TallyDerivativeEEppEv = comdat any

$_ZSteqIPN6openmc15TallyDerivativeEEbRKSt13move_iteratorIT_ES7_ = comdat any

$_ZNKSt13move_iteratorIPN6openmc15TallyDerivativeEE4baseEv = comdat any

$_ZNSt13move_iteratorIPN6openmc15TallyDerivativeEEC2ES2_ = comdat any

$_ZSt22__copy_move_backward_aILb1EPN6openmc15TallyDerivativeES2_ET1_T0_S4_S3_ = comdat any

$_ZSt23__copy_move_backward_a1ILb1EPN6openmc15TallyDerivativeES2_ET1_T0_S4_S3_ = comdat any

$_ZSt23__copy_move_backward_a2ILb1EPN6openmc15TallyDerivativeES2_ET1_T0_S4_S3_ = comdat any

$_ZNSt20__copy_move_backwardILb1ELb1ESt26random_access_iterator_tagE13__copy_move_bIN6openmc15TallyDerivativeEEEPT_PKS5_S8_S6_ = comdat any

$_ZNSt6vectorIN6openmc15TallyDerivativeESaIS1_EE16_Temporary_valueD5Ev = comdat any

$_ZNSt6vectorIN6openmc15TallyDerivativeESaIS1_EE16_Temporary_value8_StorageD5Ev = comdat any

$_ZSt32__make_move_if_noexcept_iteratorIN6openmc15TallyDerivativeESt13move_iteratorIPS1_EET0_PT_ = comdat any

$_ZNSt6vectorIN6openmc15TallyDerivativeESaIS1_EE13shrink_to_fitEv = comdat any

$_ZNSt6vectorIN6openmc15TallyDerivativeESaIS1_EE16_M_shrink_to_fitEv = comdat any

$_ZNSt19__shrink_to_fit_auxISt6vectorIN6openmc15TallyDerivativeESaIS2_EELb1EE8_S_do_itERS4_ = comdat any

$_ZSt32__make_move_if_noexcept_iteratorIN9__gnu_cxx17__normal_iteratorIPN6openmc15TallyDerivativeESt6vectorIS3_SaIS3_EEEESt13move_iteratorIS8_EET0_T_ = comdat any

$_ZNSt6vectorIN6openmc15TallyDerivativeESaIS1_EEC2ISt13move_iteratorIN9__gnu_cxx17__normal_iteratorIPS1_S3_EEEvEET_SB_RKS2_ = comdat any

$_ZNSt6vectorIN6openmc15TallyDerivativeESaIS1_EE4swapERS3_ = comdat any

$_ZNSt6vectorIN6openmc15TallyDerivativeESaIS1_EE19_M_range_initializeISt13move_iteratorIN9__gnu_cxx17__normal_iteratorIPS1_S3_EEEEEvT_SB_St20forward_iterator_tag = comdat any

$_ZSt19__iterator_categoryISt13move_iteratorIN9__gnu_cxx17__normal_iteratorIPN6openmc15TallyDerivativeESt6vectorIS4_SaIS4_EEEEEENSt15iterator_traitsIT_E17iterator_categoryERKSC_ = comdat any

$_ZSt8distanceISt13move_iteratorIN9__gnu_cxx17__normal_iteratorIPN6openmc15TallyDerivativeESt6vectorIS4_SaIS4_EEEEEENSt15iterator_traitsIT_E15difference_typeESC_SC_ = comdat any

$_ZSt10__distanceISt13move_iteratorIN9__gnu_cxx17__normal_iteratorIPN6openmc15TallyDerivativeESt6vectorIS4_SaIS4_EEEEEENSt15iterator_traitsIT_E15difference_typeESC_SC_St26random_access_iterator_tag = comdat any

$_ZStmiIN9__gnu_cxx17__normal_iteratorIPN6openmc15TallyDerivativeESt6vectorIS3_SaIS3_EEEES8_EDTmicldtfp_4baseEcldtfp0_4baseEERKSt13move_iteratorIT_ERKSA_IT0_E = comdat any

$_ZN9__gnu_cxx14__alloc_traitsISaIN6openmc15TallyDerivativeEES2_E10_S_on_swapERS3_S5_ = comdat any

$_ZSt15__alloc_on_swapISaIN6openmc15TallyDerivativeEEEvRT_S4_ = comdat any

$_ZNSt6vectorIN6openmc15TallyDerivativeESaIS1_EE7reserveEm = comdat any

$_ZNSt6vectorIN6openmc15TallyDerivativeESaIS1_EEixEm = comdat any

$_ZNKSt6vectorIN6openmc15TallyDerivativeESaIS1_EEixEm = comdat any

$_ZNKSt6vectorIN6openmc15TallyDerivativeESaIS1_EE14_M_range_checkEm = comdat any

$_ZNSt6vectorIN6openmc15TallyDerivativeESaIS1_EE2atEm = comdat any

$_ZNKSt6vectorIN6openmc15TallyDerivativeESaIS1_EE2atEm = comdat any

$_ZNSt6vectorIN6openmc15TallyDerivativeESaIS1_EE5frontEv = comdat any

$_ZNKSt6vectorIN6openmc15TallyDerivativeESaIS1_EE5frontEv = comdat any

$_ZNSt6vectorIN6openmc15TallyDerivativeESaIS1_EE4backEv = comdat any

$_ZNK9__gnu_cxx17__normal_iteratorIPN6openmc15TallyDerivativeESt6vectorIS2_SaIS2_EEEmiEl = comdat any

$_ZNKSt6vectorIN6openmc15TallyDerivativeESaIS1_EE4backEv = comdat any

$_ZNK9__gnu_cxx17__normal_iteratorIPKN6openmc15TallyDerivativeESt6vectorIS2_SaIS2_EEEmiEl = comdat any

$_ZNSt6vectorIN6openmc15TallyDerivativeESaIS1_EE4dataEv = comdat any

$_ZNKSt6vectorIN6openmc15TallyDerivativeESaIS1_EE11_M_data_ptrIS1_EEPT_S6_ = comdat any

$_ZNKSt6vectorIN6openmc15TallyDerivativeESaIS1_EE4dataEv = comdat any

$_ZNSt6vectorIN6openmc15TallyDerivativeESaIS1_EE9push_backERKS1_ = comdat any

$_ZNSt6vectorIN6openmc15TallyDerivativeESaIS1_EE17_M_realloc_insertIJRKS1_EEEvN9__gnu_cxx17__normal_iteratorIPS1_S3_EEDpOT_ = comdat any

$_ZNSt6vectorIN6openmc15TallyDerivativeESaIS1_EE9push_backEOS1_ = comdat any

$_ZNSt6vectorIN6openmc15TallyDerivativeESaIS1_EE12emplace_backIJS1_EEERS1_DpOT_ = comdat any

$_ZNSt6vectorIN6openmc15TallyDerivativeESaIS1_EE17_M_realloc_insertIJS1_EEEvN9__gnu_cxx17__normal_iteratorIPS1_S3_EEDpOT_ = comdat any

$_ZNSt6vectorIN6openmc15TallyDerivativeESaIS1_EE8pop_backEv = comdat any

$_ZNSt6vectorIN6openmc15TallyDerivativeESaIS1_EE6insertEN9__gnu_cxx17__normal_iteratorIPKS1_S3_EERS6_ = comdat any

$_ZN9__gnu_cxxmiIPKN6openmc15TallyDerivativeEPS2_St6vectorIS2_SaIS2_EEEEDTmicldtfp_4baseEcldtfp0_4baseEERKNS_17__normal_iteratorIT_T1_EERKNSA_IT0_SC_EE = comdat any

$_ZN9__gnu_cxxeqIPKN6openmc15TallyDerivativeEPS2_St6vectorIS2_SaIS2_EEEEbRKNS_17__normal_iteratorIT_T1_EERKNS9_IT0_SB_EE = comdat any

$_ZN9__gnu_cxxmiIPKN6openmc15TallyDerivativeESt6vectorIS2_SaIS2_EEEENS_17__normal_iteratorIT_T0_E15difference_typeERKSB_SE_ = comdat any

$_ZNSt6vectorIN6openmc15TallyDerivativeESaIS1_EE13_M_insert_auxIS1_EEvN9__gnu_cxx17__normal_iteratorIPS1_S3_EEOT_ = comdat any

$_ZNSt6vectorIN6openmc15TallyDerivativeESaIS1_EE6insertEN9__gnu_cxx17__normal_iteratorIPKS1_S3_EEOS1_ = comdat any

$_ZNSt6vectorIN6openmc15TallyDerivativeESaIS1_EE14_M_insert_rvalEN9__gnu_cxx17__normal_iteratorIPKS1_S3_EEOS1_ = comdat any

$_ZNSt6vectorIN6openmc15TallyDerivativeESaIS1_EE6insertEN9__gnu_cxx17__normal_iteratorIPKS1_S3_EESt16initializer_listIS1_E = comdat any

$_ZNSt6vectorIN6openmc15TallyDerivativeESaIS1_EE15_M_range_insertIPKS1_EEvN9__gnu_cxx17__normal_iteratorIPS1_S3_EET_SB_St20forward_iterator_tag = comdat any

$_ZSt4copyIPKN6openmc15TallyDerivativeEN9__gnu_cxx17__normal_iteratorIPS1_St6vectorIS1_SaIS1_EEEEET0_T_SC_SB_ = comdat any

$_ZSt13__copy_move_aILb0EPKN6openmc15TallyDerivativeEN9__gnu_cxx17__normal_iteratorIPS1_St6vectorIS1_SaIS1_EEEEET1_T0_SC_SB_ = comdat any

$_ZNSt6vectorIN6openmc15TallyDerivativeESaIS1_EE6insertEN9__gnu_cxx17__normal_iteratorIPKS1_S3_EEmRS6_ = comdat any

$_ZNSt6vectorIN6openmc15TallyDerivativeESaIS1_EE5eraseEN9__gnu_cxx17__normal_iteratorIPKS1_S3_EE = comdat any

$_ZNSt6vectorIN6openmc15TallyDerivativeESaIS1_EE8_M_eraseEN9__gnu_cxx17__normal_iteratorIPS1_S3_EE = comdat any

$_ZN9__gnu_cxxneIPN6openmc15TallyDerivativeESt6vectorIS2_SaIS2_EEEEbRKNS_17__normal_iteratorIT_T0_EESC_ = comdat any

$_ZSt4moveIN9__gnu_cxx17__normal_iteratorIPN6openmc15TallyDerivativeESt6vectorIS3_SaIS3_EEEES8_ET0_T_SA_S9_ = comdat any

$_ZSt13__copy_move_aILb1EN9__gnu_cxx17__normal_iteratorIPN6openmc15TallyDerivativeESt6vectorIS3_SaIS3_EEEES8_ET1_T0_SA_S9_ = comdat any

$_ZSt12__miter_baseIN9__gnu_cxx17__normal_iteratorIPN6openmc15TallyDerivativeESt6vectorIS3_SaIS3_EEEEET_S9_ = comdat any

$_ZSt14__copy_move_a1ILb1EPN6openmc15TallyDerivativeES2_ET1_T0_S4_S3_ = comdat any

$_ZSt14__copy_move_a2ILb1EPN6openmc15TallyDerivativeES2_ET1_T0_S4_S3_ = comdat any

$_ZNSt11__copy_moveILb1ELb1ESt26random_access_iterator_tagE8__copy_mIN6openmc15TallyDerivativeEEEPT_PKS5_S8_S6_ = comdat any

$_ZNSt6vectorIN6openmc15TallyDerivativeESaIS1_EE5eraseEN9__gnu_cxx17__normal_iteratorIPKS1_S3_EES8_ = comdat any

$_ZNSt6vectorIN6openmc15TallyDerivativeESaIS1_EE8_M_eraseEN9__gnu_cxx17__normal_iteratorIPS1_S3_EES7_ = comdat any

$_ZNSt6vectorIN6openmc15TallyDerivativeESaIS1_EE14_M_emplace_auxEN9__gnu_cxx17__normal_iteratorIPKS1_S3_EEOS1_ = comdat any

$_ZNSt6vectorIN6openmc15TallyDerivativeESaIS1_EE14_M_move_assignEOS3_St17integral_constantIbLb0EE = comdat any

$_ZNSt6vectorIN6openmc15TallyDerivativeESaIS1_EE13_M_assign_auxISt13move_iteratorIN9__gnu_cxx17__normal_iteratorIPS1_S3_EEEEEvT_SB_St20forward_iterator_tag = comdat any

$_ZNSt6vectorIN6openmc15TallyDerivativeESaIS1_EE20_M_allocate_and_copyISt13move_iteratorIN9__gnu_cxx17__normal_iteratorIPS1_S3_EEEEES8_mT_SB_ = comdat any

$_ZSt4copyISt13move_iteratorIN9__gnu_cxx17__normal_iteratorIPN6openmc15TallyDerivativeESt6vectorIS4_SaIS4_EEEEES5_ET0_T_SC_SB_ = comdat any

$_ZSt7advanceISt13move_iteratorIN9__gnu_cxx17__normal_iteratorIPN6openmc15TallyDerivativeESt6vectorIS4_SaIS4_EEEEEmEvRT_T0_ = comdat any

$_ZSt13__copy_move_aILb1EN9__gnu_cxx17__normal_iteratorIPN6openmc15TallyDerivativeESt6vectorIS3_SaIS3_EEEES4_ET1_T0_SA_S9_ = comdat any

$_ZSt12__miter_baseIN9__gnu_cxx17__normal_iteratorIPN6openmc15TallyDerivativeESt6vectorIS3_SaIS3_EEEEEDTcl12__miter_basecldtfp_4baseEEESt13move_iteratorIT_E = comdat any

$_ZSt9__advanceISt13move_iteratorIN9__gnu_cxx17__normal_iteratorIPN6openmc15TallyDerivativeESt6vectorIS4_SaIS4_EEEEElEvRT_T0_St26random_access_iterator_tag = comdat any

$_ZNSt13move_iteratorIN9__gnu_cxx17__normal_iteratorIPN6openmc15TallyDerivativeESt6vectorIS3_SaIS3_EEEEEmmEv = comdat any

$_ZNSt13move_iteratorIN9__gnu_cxx17__normal_iteratorIPN6openmc15TallyDerivativeESt6vectorIS3_SaIS3_EEEEEpLEl = comdat any

$_ZN9__gnu_cxx17__normal_iteratorIPN6openmc15TallyDerivativeESt6vectorIS2_SaIS2_EEEmmEv = comdat any

$_ZN9__gnu_cxx17__normal_iteratorIPN6openmc15TallyDerivativeESt6vectorIS2_SaIS2_EEEpLEl = comdat any

$_ZNSt13unordered_mapIiiSt4hashIiESt8equal_toIiESaISt4pairIKiiEEEC2Ev = comdat any

$_ZNSt13unordered_mapIiiSt4hashIiESt8equal_toIiESaISt4pairIKiiEEED2Ev = comdat any

$_ZNSt10_HashtableIiSt4pairIKiiESaIS2_ENSt8__detail10_Select1stESt8equal_toIiESt4hashIiENS4_18_Mod_range_hashingENS4_20_Default_ranged_hashENS4_20_Prime_rehash_policyENS4_17_Hashtable_traitsILb0ELb0ELb1EEEEC2Ev = comdat any

$_ZNSt8__detail15_Hashtable_baseIiSt4pairIKiiENS_10_Select1stESt8equal_toIiESt4hashIiENS_18_Mod_range_hashingENS_20_Default_ranged_hashENS_17_Hashtable_traitsILb0ELb0ELb1EEEEC2Ev = comdat any

$_ZNSt8__detail16_Hashtable_allocISaINS_10_Hash_nodeISt4pairIKiiELb0EEEEEC2Ev = comdat any

$_ZNSt8__detail15_Hash_node_baseC2Ev = comdat any

$_ZNSt8__detail20_Prime_rehash_policyC2Ef = comdat any

$_ZNSt8__detail15_Hash_code_baseIiSt4pairIKiiENS_10_Select1stESt4hashIiENS_18_Mod_range_hashingENS_20_Default_ranged_hashELb0EEC2Ev = comdat any

$_ZNSt8__detail21_Hashtable_ebo_helperILi0ESt8equal_toIiELb1EEC2Ev = comdat any

$_ZNSt8__detail21_Hashtable_ebo_helperILi1ESt4hashIiELb1EEC2Ev = comdat any

$_ZNSt8__detail21_Hashtable_ebo_helperILi0ESaINS_10_Hash_nodeISt4pairIKiiELb0EEEELb1EEC2Ev = comdat any

$_ZNSaINSt8__detail10_Hash_nodeISt4pairIKiiELb0EEEEC2Ev = comdat any

$_ZNSt15__new_allocatorINSt8__detail10_Hash_nodeISt4pairIKiiELb0EEEEC2Ev = comdat any

$_ZNSt10_HashtableIiSt4pairIKiiESaIS2_ENSt8__detail10_Select1stESt8equal_toIiESt4hashIiENS4_18_Mod_range_hashingENS4_20_Default_ranged_hashENS4_20_Prime_rehash_policyENS4_17_Hashtable_traitsILb0ELb0ELb1EEEED2Ev = comdat any

$_ZNSt10_HashtableIiSt4pairIKiiESaIS2_ENSt8__detail10_Select1stESt8equal_toIiESt4hashIiENS4_18_Mod_range_hashingENS4_20_Default_ranged_hashENS4_20_Prime_rehash_policyENS4_17_Hashtable_traitsILb0ELb0ELb1EEEE5clearEv = comdat any

$_ZNSt10_HashtableIiSt4pairIKiiESaIS2_ENSt8__detail10_Select1stESt8equal_toIiESt4hashIiENS4_18_Mod_range_hashingENS4_20_Default_ranged_hashENS4_20_Prime_rehash_policyENS4_17_Hashtable_traitsILb0ELb0ELb1EEEE21_M_deallocate_bucketsEv = comdat any

$_ZNSt15__new_allocatorINSt8__detail10_Hash_nodeISt4pairIKiiELb0EEEED2Ev = comdat any

$_ZNSt8__detail16_Hashtable_allocISaINS_10_Hash_nodeISt4pairIKiiELb0EEEEE19_M_deallocate_nodesEPS5_ = comdat any

$_ZNKSt10_HashtableIiSt4pairIKiiESaIS2_ENSt8__detail10_Select1stESt8equal_toIiESt4hashIiENS4_18_Mod_range_hashingENS4_20_Default_ranged_hashENS4_20_Prime_rehash_policyENS4_17_Hashtable_traitsILb0ELb0ELb1EEEE8_M_beginEv = comdat any

$_ZNKSt8__detail10_Hash_nodeISt4pairIKiiELb0EE7_M_nextEv = comdat any

$_ZNSt8__detail16_Hashtable_allocISaINS_10_Hash_nodeISt4pairIKiiELb0EEEEE18_M_deallocate_nodeEPS5_ = comdat any

$_ZNSt16allocator_traitsISaINSt8__detail10_Hash_nodeISt4pairIKiiELb0EEEEE7destroyIS4_EEvRS6_PT_ = comdat any

$_ZNSt8__detail16_Hashtable_allocISaINS_10_Hash_nodeISt4pairIKiiELb0EEEEE17_M_node_allocatorEv = comdat any

$_ZNSt8__detail21_Hash_node_value_baseISt4pairIKiiEE9_M_valptrEv = comdat any

$_ZNSt8__detail16_Hashtable_allocISaINS_10_Hash_nodeISt4pairIKiiELb0EEEEE22_M_deallocate_node_ptrEPS5_ = comdat any

$_ZNSt15__new_allocatorINSt8__detail10_Hash_nodeISt4pairIKiiELb0EEEE7destroyIS4_EEvPT_ = comdat any

$_ZNSt8__detail21_Hashtable_ebo_helperILi0ESaINS_10_Hash_nodeISt4pairIKiiELb0EEEELb1EE6_M_getEv = comdat any

$_ZN9__gnu_cxx16__aligned_bufferISt4pairIKiiEE6_M_ptrEv = comdat any

$_ZN9__gnu_cxx16__aligned_bufferISt4pairIKiiEE7_M_addrEv = comdat any

$_ZNSt19__ptr_traits_ptr_toIPNSt8__detail10_Hash_nodeISt4pairIKiiELb0EEES5_Lb0EE10pointer_toERS5_ = comdat any

$_ZNSt16allocator_traitsISaINSt8__detail10_Hash_nodeISt4pairIKiiELb0EEEEE10deallocateERS6_PS5_m = comdat any

$_ZNSt15__new_allocatorINSt8__detail10_Hash_nodeISt4pairIKiiELb0EEEE10deallocateEPS5_m = comdat any

$_ZNSt10_HashtableIiSt4pairIKiiESaIS2_ENSt8__detail10_Select1stESt8equal_toIiESt4hashIiENS4_18_Mod_range_hashingENS4_20_Default_ranged_hashENS4_20_Prime_rehash_policyENS4_17_Hashtable_traitsILb0ELb0ELb1EEEE21_M_deallocate_bucketsEPPNS4_15_Hash_node_baseEm = comdat any

$_ZNKSt10_HashtableIiSt4pairIKiiESaIS2_ENSt8__detail10_Select1stESt8equal_toIiESt4hashIiENS4_18_Mod_range_hashingENS4_20_Default_ranged_hashENS4_20_Prime_rehash_policyENS4_17_Hashtable_traitsILb0ELb0ELb1EEEE21_M_uses_single_bucketEPPNS4_15_Hash_node_baseE = comdat any

$_ZNSt8__detail16_Hashtable_allocISaINS_10_Hash_nodeISt4pairIKiiELb0EEEEE21_M_deallocate_bucketsEPPNS_15_Hash_node_baseEm = comdat any

$_ZNSt19__ptr_traits_ptr_toIPPNSt8__detail15_Hash_node_baseES2_Lb0EE10pointer_toERS2_ = comdat any

$_ZNSaIPNSt8__detail15_Hash_node_baseEEC2INS_10_Hash_nodeISt4pairIKiiELb0EEEEERKSaIT_E = comdat any

$_ZNSt16allocator_traitsISaIPNSt8__detail15_Hash_node_baseEEE10deallocateERS3_PS2_m = comdat any

$_ZNSt15__new_allocatorIPNSt8__detail15_Hash_node_baseEED2Ev = comdat any

$_ZNSt15__new_allocatorIPNSt8__detail15_Hash_node_baseEEC2Ev = comdat any

$_ZNSt15__new_allocatorIPNSt8__detail15_Hash_node_baseEE10deallocateEPS2_m = comdat any

$_ZNSt6vectorIN6openmc15TallyDerivativeESaIS1_EEC2Ev = comdat any

$_ZNSt12_Vector_baseIN6openmc15TallyDerivativeESaIS1_EEC2Ev = comdat any

$_ZNSt12_Vector_baseIN6openmc15TallyDerivativeESaIS1_EE12_Vector_implC2Ev = comdat any

$_ZNSaIN6openmc15TallyDerivativeEEC2Ev = comdat any

$_ZNSt15__new_allocatorIN6openmc15TallyDerivativeEEC2Ev = comdat any

$_ZN6openmc14check_for_nodeEN4pugi8xml_nodeEPKc = comdat any

$_ZNSt7__cxx114stoiERKNS_12basic_stringIcSt11char_traitsIcESaIcEEEPmi = comdat any

$_ZN6openmc11fatal_errorEPKc = comdat any

$_ZSteqIcSt11char_traitsIcESaIcEEbRKNSt7__cxx1112basic_stringIT_T0_T1_EEPKS5_ = comdat any

$_ZSteqIcEN9__gnu_cxx11__enable_ifIXsr9__is_charIT_EE7__valueEbE6__typeERKNSt7__cxx1112basic_stringIS2_St11char_traitsIS2_ESaIS2_EEESC_ = comdat any

$_ZN3fmt2v66formatIA76_cJRNSt7__cxx1112basic_stringIcSt11char_traitsIcESaIcEEERiEcEENS4_IT1_S5_ISB_ESaISB_EEERKT_DpOT0_ = comdat any

$_ZN3fmt2v66formatIA44_cJRNSt7__cxx1112basic_stringIcSt11char_traitsIcESaIcEEERiEcEENS4_IT1_S5_ISB_ESaISB_EEERKT_DpOT0_ = comdat any

$_ZN9__gnu_cxx6__stoaIlicJiEEET0_PFT_PKT1_PPS3_DpT2_EPKcS5_PmS9_ = comdat any

$_ZZN9__gnu_cxx6__stoaIlicJiEEET0_PFT_PKT1_PPS3_DpT2_EPKcS5_PmS9_EN11_Save_errnoC2Ev = comdat any

$_ZZN9__gnu_cxx6__stoaIlicJiEEET0_PFT_PKT1_PPS3_DpT2_EPKcS5_PmS9_EN10_Range_chk6_S_chkElSt17integral_constantIbLb1EE = comdat any

$_ZZN9__gnu_cxx6__stoaIlicJiEEET0_PFT_PKT1_PPS3_DpT2_EPKcS5_PmS9_EN11_Save_errnoD2Ev = comdat any

$_ZNSt19__ptr_traits_ptr_toIPKcS0_Lb0EE10pointer_toERS0_ = comdat any

$_ZNSt16allocator_traitsISaIcEE10deallocateERS0_Pcm = comdat any

$_ZNSt15__new_allocatorIcE10deallocateEPcm = comdat any

$_ZNSt15__new_allocatorIcED2Ev = comdat any

$_ZNSt15__new_allocatorIcEC2Ev = comdat any

$_ZNSt7__cxx1112basic_stringIcSt11char_traitsIcESaIcEE12_M_constructIPKcEEvT_S8_St20forward_iterator_tag = comdat any

$_ZNSt19__ptr_traits_ptr_toIPccLb0EE10pointer_toERc = comdat any

$_ZNSt15__new_allocatorIcEC2ERKS0_ = comdat any

$_ZSt8distanceIPKcENSt15iterator_traitsIT_E15difference_typeES3_S3_ = comdat any

$_ZZNSt7__cxx1112basic_stringIcSt11char_traitsIcESaIcEE12_M_constructIPKcEEvT_S8_St20forward_iterator_tagEN6_GuardC2EPS4_ = comdat any

$_ZZNSt7__cxx1112basic_stringIcSt11char_traitsIcESaIcEE12_M_constructIPKcEEvT_S8_St20forward_iterator_tagEN6_GuardD2Ev = comdat any

$_ZSt10__distanceIPKcENSt15iterator_traitsIT_E15difference_typeES3_S3_St26random_access_iterator_tag = comdat any

$_ZSt19__iterator_categoryIPKcENSt15iterator_traitsIT_E17iterator_categoryERKS3_ = comdat any

$_ZNSt11char_traitsIcE6assignERcRKc = comdat any

$_ZNSt11char_traitsIcE4copyEPcPKcm = comdat any

$_ZNSt11char_traitsIcE7compareEPKcS2_m = comdat any

$_ZN3fmt2v68internal7vformatIcEENSt7__cxx1112basic_stringIT_St11char_traitsIS5_ESaIS5_EEENS0_17basic_string_viewIS5_EENS0_17basic_format_argsINS0_20basic_format_contextISt20back_insert_iteratorINS1_6bufferIS5_EEES5_EEEE = comdat any

$_ZN3fmt2v614to_string_viewIcTnNSt9enable_ifIXsr7is_charIT_EE5valueEiE4typeELi0EEENS0_17basic_string_viewIS3_EEPKS3_ = comdat any

$_ZN3fmt2v68internal17make_args_checkedIJRNSt7__cxx1112basic_stringIcSt11char_traitsIcESaIcEEERiEA76_ccEENS0_16format_arg_storeINS0_20basic_format_contextISt20back_insert_iteratorINS1_6bufferIT1_EEESG_EEJDpNSt16remove_referenceIT_E4typeEEEERKT0_DpRKSN_ = comdat any

$_ZN3fmt2v617basic_format_argsINS0_20basic_format_contextISt20back_insert_iteratorINS0_8internal6bufferIcEEEcEEEC2IJNSt7__cxx1112basic_stringIcSt11char_traitsIcESaIcEEEiEEERKNS0_16format_arg_storeIS8_JDpT_EEE = comdat any

$_ZN3fmt2v619basic_memory_bufferIcLm500ESaIcEEC2ERKS2_ = comdat any

$_ZN3fmt2v68internal10vformat_toIcEENS0_20basic_format_contextISt20back_insert_iteratorINS1_6bufferIT_EEES6_E8iteratorERS7_NS0_17basic_string_viewIS6_EENS0_17basic_format_argsIS9_EE = comdat any

$_ZN3fmt2v69to_stringIcLm500EEENSt7__cxx1112basic_stringIT_St11char_traitsIS4_ESaIS4_EEERKNS0_19basic_memory_bufferIS4_XT0_ES7_EE = comdat any

$_ZN3fmt2v619basic_memory_bufferIcLm500ESaIcEED2Ev = comdat any

$_ZN3fmt2v68internal6bufferIcEC2EPcmm = comdat any

$_ZN3fmt2v68internal6bufferIcE3setEPcm = comdat any

$_ZN3fmt2v619basic_memory_bufferIcLm500ESaIcEE4growEm = comdat any

$_ZN3fmt2v619basic_memory_bufferIcLm500ESaIcEED0Ev = comdat any

$_ZN3fmt2v68internal6bufferIcED2Ev = comdat any

$_ZN3fmt2v68internal6bufferIcED0Ev = comdat any

$_ZNK3fmt2v68internal6bufferIcE8capacityEv = comdat any

$_ZN3fmt2v68internal6bufferIcE4dataEv = comdat any

$_ZNSt16allocator_traitsISaIcEE8allocateERS0_m = comdat any

$_ZSt18uninitialized_copyIPcS0_ET0_T_S2_S1_ = comdat any

$_ZNK3fmt2v68internal6bufferIcE4sizeEv = comdat any

$_ZN3fmt2v68internal12make_checkedIcEEPT_S4_m = comdat any

$_ZNSt15__new_allocatorIcE8allocateEmPKv = comdat any

$_ZNKSt15__new_allocatorIcE11_M_max_sizeEv = comdat any

$_ZNSt20__uninitialized_copyILb1EE13__uninit_copyIPcS2_EET0_T_S4_S3_ = comdat any

$_ZSt4copyIPcS0_ET0_T_S2_S1_ = comdat any

$_ZSt13__copy_move_aILb0EPcS0_ET1_T0_S2_S1_ = comdat any

$_ZSt12__miter_baseIPcET_S1_ = comdat any

$_ZSt12__niter_wrapIPcET_RKS1_S1_ = comdat any

$_ZSt14__copy_move_a1ILb0EPcS0_ET1_T0_S2_S1_ = comdat any

$_ZSt12__niter_baseIPcET_S1_ = comdat any

$_ZSt14__copy_move_a2ILb0EPcS0_ET1_T0_S2_S1_ = comdat any

$_ZNSt11__copy_moveILb0ELb1ESt26random_access_iterator_tagE8__copy_mIcEEPT_PKS3_S6_S4_ = comdat any

$_ZN3fmt2v610vformat_toINS0_13arg_formatterINS0_12buffer_rangeIcEEEEcNS0_20basic_format_contextISt20back_insert_iteratorINS0_8internal6bufferIcEEEcEEEENT1_8iteratorENT_5rangeENS0_17basic_string_viewIT0_EENS0_17basic_format_argsISD_EENS8_10locale_refE = comdat any

$_ZN3fmt2v612buffer_rangeIcEC2ERNS0_8internal6bufferIcEE = comdat any

$_ZN3fmt2v614to_string_viewIcEENS0_17basic_string_viewIT_EES4_ = comdat any

$_ZN3fmt2v68internal10locale_refC2Ev = comdat any

$_ZN3fmt2v614format_handlerINS0_13arg_formatterINS0_12buffer_rangeIcEEEEcNS0_20basic_format_contextISt20back_insert_iteratorINS0_8internal6bufferIcEEEcEEEC2ES4_NS0_17basic_string_viewIcEENS0_17basic_format_argsISC_EENS8_10locale_refE = comdat any

$_ZN3fmt2v68internal19parse_format_stringILb0EcRNS0_14format_handlerINS0_13arg_formatterINS0_12buffer_rangeIcEEEEcNS0_20basic_format_contextISt20back_insert_iteratorINS1_6bufferIcEEEcEEEEEEvNS0_17basic_string_viewIT0_EEOT1_ = comdat any

$_ZN3fmt2v620basic_format_contextISt20back_insert_iteratorINS0_8internal6bufferIcEEEcE3outEv = comdat any

$_ZN3fmt2v614format_handlerINS0_13arg_formatterINS0_12buffer_rangeIcEEEEcNS0_20basic_format_contextISt20back_insert_iteratorINS0_8internal6bufferIcEEEcEEED2Ev = comdat any

$_ZN3fmt2v626basic_format_parse_contextIcNS0_8internal13error_handlerEEC2ENS0_17basic_string_viewIcEES3_ = comdat any

$_ZNK3fmt2v68internal12output_rangeISt20back_insert_iteratorINS1_6bufferIcEEEcE5beginEv = comdat any

$_ZN3fmt2v620basic_format_contextISt20back_insert_iteratorINS0_8internal6bufferIcEEEcEC2ES6_NS0_17basic_format_argsIS7_EENS3_10locale_refE = comdat any

$_ZN3fmt2v616basic_format_argINS0_20basic_format_contextISt20back_insert_iteratorINS0_8internal6bufferIcEEEcEEEC2Ev = comdat any

$_ZN3fmt2v620basic_format_contextISt20back_insert_iteratorINS0_8internal6bufferIcEEEcED2Ev = comdat any

$_ZN3fmt2v68internal7arg_mapINS0_20basic_format_contextISt20back_insert_iteratorINS1_6bufferIcEEEcEEEC2Ev = comdat any

$_ZN3fmt2v68internal5valueINS0_20basic_format_contextISt20back_insert_iteratorINS1_6bufferIcEEEcEEEC2Ei = comdat any

$_ZN3fmt2v68internal7arg_mapINS0_20basic_format_contextISt20back_insert_iteratorINS1_6bufferIcEEEcEEED2Ev = comdat any

$_ZNK3fmt2v617basic_string_viewIcE4dataEv = comdat any

$_ZNK3fmt2v617basic_string_viewIcE4sizeEv = comdat any

$_ZN3fmt2v68internal4findILb0EcPKcEEbT1_S5_T0_RS5_ = comdat any

$_ZZN3fmt2v68internal19parse_format_stringILb0EcRNS0_14format_handlerINS0_13arg_formatterINS0_12buffer_rangeIcEEEEcNS0_20basic_format_contextISt20back_insert_iteratorINS1_6bufferIcEEEcEEEEEEvNS0_17basic_string_viewIT0_EEOT1_EN10pfs_writerclEPKcSN_ = comdat any

$_ZN3fmt2v614format_handlerINS0_13arg_formatterINS0_12buffer_rangeIcEEEEcNS0_20basic_format_contextISt20back_insert_iteratorINS0_8internal6bufferIcEEEcEEE9on_arg_idEv = comdat any

$_ZN3fmt2v614format_handlerINS0_13arg_formatterINS0_12buffer_rangeIcEEEEcNS0_20basic_format_contextISt20back_insert_iteratorINS0_8internal6bufferIcEEEcEEE20on_replacement_fieldEPKc = comdat any

$_ZN3fmt2v614format_handlerINS0_13arg_formatterINS0_12buffer_rangeIcEEEEcNS0_20basic_format_contextISt20back_insert_iteratorINS0_8internal6bufferIcEEEcEEE7on_textEPKcSF_ = comdat any

$_ZN3fmt2v68internal12parse_arg_idIcNS1_10id_adapterIRNS0_14format_handlerINS0_13arg_formatterINS0_12buffer_rangeIcEEEEcNS0_20basic_format_contextISt20back_insert_iteratorINS1_6bufferIcEEEcEEEEcEEEEPKT_SK_SK_OT0_ = comdat any

$_ZN3fmt2v614format_handlerINS0_13arg_formatterINS0_12buffer_rangeIcEEEEcNS0_20basic_format_contextISt20back_insert_iteratorINS0_8internal6bufferIcEEEcEEE15on_format_specsEPKcSF_ = comdat any

$_ZN3fmt2v68internal11to_unsignedIlEENSt13make_unsignedIT_E4typeES4_ = comdat any

$_ZN3fmt2v614format_handlerINS0_13arg_formatterINS0_12buffer_rangeIcEEEEcNS0_20basic_format_contextISt20back_insert_iteratorINS0_8internal6bufferIcEEEcEEE7get_argEi = comdat any

$_ZN3fmt2v626basic_format_parse_contextIcNS0_8internal13error_handlerEE11next_arg_idEv = comdat any

$_ZN3fmt2v68internal7get_argINS0_20basic_format_contextISt20back_insert_iteratorINS1_6bufferIcEEEcEEEENT_10format_argERS9_i = comdat any

$_ZNK3fmt2v620basic_format_contextISt20back_insert_iteratorINS0_8internal6bufferIcEEEcE3argEi = comdat any

$_ZNK3fmt2v616basic_format_argINS0_20basic_format_contextISt20back_insert_iteratorINS0_8internal6bufferIcEEEcEEEcvbEv = comdat any

$_ZN3fmt2v620basic_format_contextISt20back_insert_iteratorINS0_8internal6bufferIcEEEcE8on_errorEPKc = comdat any

$_ZNK3fmt2v617basic_format_argsINS0_20basic_format_contextISt20back_insert_iteratorINS0_8internal6bufferIcEEEcEEE3getEi = comdat any

$_ZNK3fmt2v617basic_format_argsINS0_20basic_format_contextISt20back_insert_iteratorINS0_8internal6bufferIcEEEcEEE6do_getEi = comdat any

$_ZNK3fmt2v68internal14named_arg_baseIcE11deserializeINS0_20basic_format_contextISt20back_insert_iteratorINS1_6bufferIcEEEcEEEENS0_16basic_format_argIT_EEv = comdat any

$_ZNK3fmt2v617basic_format_argsINS0_20basic_format_contextISt20back_insert_iteratorINS0_8internal6bufferIcEEEcEEE9is_packedEv = comdat any

$_ZNK3fmt2v617basic_format_argsINS0_20basic_format_contextISt20back_insert_iteratorINS0_8internal6bufferIcEEEcEEE8max_sizeEv = comdat any

$_ZNK3fmt2v617basic_format_argsINS0_20basic_format_contextISt20back_insert_iteratorINS0_8internal6bufferIcEEEcEEE4typeEi = comdat any

$_ZN3fmt2v620basic_format_contextISt20back_insert_iteratorINS0_8internal6bufferIcEEEcE13error_handlerEv = comdat any

$_ZN3fmt2v626basic_format_parse_contextIcNS0_8internal13error_handlerEE8on_errorEPKc = comdat any

$_ZN3fmt2v610advance_toIcNS0_8internal13error_handlerEEEvRNS0_26basic_format_parse_contextIT_T0_EEPKS5_ = comdat any

$_ZN3fmt2v620basic_format_contextISt20back_insert_iteratorINS0_8internal6bufferIcEEEcE10advance_toES6_ = comdat any

$_ZN3fmt2v616visit_format_argINS0_13arg_formatterINS0_12buffer_rangeIcEEEENS0_20basic_format_contextISt20back_insert_iteratorINS0_8internal6bufferIcEEEcEEEEDTclfp_Li0EEEOT_RKNS0_16basic_format_argIT0_EE = comdat any

$_ZN3fmt2v613arg_formatterINS0_12buffer_rangeIcEEEC2ERNS0_20basic_format_contextISt20back_insert_iteratorINS0_8internal6bufferIcEEEcEEPNS0_26basic_format_parse_contextIcNS7_13error_handlerEEEPNS0_18basic_format_specsIcEE = comdat any

$_ZN3fmt2v626basic_format_parse_contextIcNS0_8internal13error_handlerEE10advance_toEPKc = comdat any

$_ZNK3fmt2v626basic_format_parse_contextIcNS0_8internal13error_handlerEE5beginEv = comdat any

$_ZN3fmt2v617basic_string_viewIcE13remove_prefixEm = comdat any

$_ZNK3fmt2v617basic_string_viewIcE5beginEv = comdat any

$_ZN3fmt2v68internal18arg_formatter_baseINS0_12buffer_rangeIcEENS1_13error_handlerEEclIiTnNSt9enable_ifIXsr11is_integralIT_EE5valueEiE4typeELi0EEESt20back_insert_iteratorINS1_6bufferIcEEES9_ = comdat any

$_ZN3fmt2v68internal18arg_formatter_baseINS0_12buffer_rangeIcEENS1_13error_handlerEEclIjTnNSt9enable_ifIXsr11is_integralIT_EE5valueEiE4typeELi0EEESt20back_insert_iteratorINS1_6bufferIcEEES9_ = comdat any

$_ZN3fmt2v68internal18arg_formatter_baseINS0_12buffer_rangeIcEENS1_13error_handlerEEclIxTnNSt9enable_ifIXsr11is_integralIT_EE5valueEiE4typeELi0EEESt20back_insert_iteratorINS1_6bufferIcEEES9_ = comdat any

$_ZN3fmt2v68internal18arg_formatter_baseINS0_12buffer_rangeIcEENS1_13error_handlerEEclIyTnNSt9enable_ifIXsr11is_integralIT_EE5valueEiE4typeELi0EEESt20back_insert_iteratorINS1_6bufferIcEEES9_ = comdat any

$_ZN3fmt2v68internal18arg_formatter_baseINS0_12buffer_rangeIcEENS1_13error_handlerEEclInTnNSt9enable_ifIXsr11is_integralIT_EE5valueEiE4typeELi0EEESt20back_insert_iteratorINS1_6bufferIcEEES9_ = comdat any

$_ZN3fmt2v68internal18arg_formatter_baseINS0_12buffer_rangeIcEENS1_13error_handlerEEclIoTnNSt9enable_ifIXsr11is_integralIT_EE5valueEiE4typeELi0EEESt20back_insert_iteratorINS1_6bufferIcEEES9_ = comdat any

$_ZN3fmt2v68internal18arg_formatter_baseINS0_12buffer_rangeIcEENS1_13error_handlerEEclEb = comdat any

$_ZN3fmt2v68internal18arg_formatter_baseINS0_12buffer_rangeIcEENS1_13error_handlerEEclEc = comdat any

$_ZN3fmt2v68internal18arg_formatter_baseINS0_12buffer_rangeIcEENS1_13error_handlerEEclIfTnNSt9enable_ifIXsr3std17is_floating_pointIT_EE5valueEiE4typeELi0EEESt20back_insert_iteratorINS1_6bufferIcEEES9_ = comdat any

$_ZN3fmt2v68internal18arg_formatter_baseINS0_12buffer_rangeIcEENS1_13error_handlerEEclIdTnNSt9enable_ifIXsr3std17is_floating_pointIT_EE5valueEiE4typeELi0EEESt20back_insert_iteratorINS1_6bufferIcEEES9_ = comdat any

$_ZN3fmt2v68internal18arg_formatter_baseINS0_12buffer_rangeIcEENS1_13error_handlerEEclIeTnNSt9enable_ifIXsr3std17is_floating_pointIT_EE5valueEiE4typeELi0EEESt20back_insert_iteratorINS1_6bufferIcEEES9_ = comdat any

$_ZN3fmt2v68internal18arg_formatter_baseINS0_12buffer_rangeIcEENS1_13error_handlerEEclEPKc = comdat any

$_ZN3fmt2v68internal18arg_formatter_baseINS0_12buffer_rangeIcEENS1_13error_handlerEEclENS0_17basic_string_viewIcEE = comdat any

$_ZN3fmt2v617basic_string_viewIcEC2EPKcm = comdat any

$_ZN3fmt2v68internal18arg_formatter_baseINS0_12buffer_rangeIcEENS1_13error_handlerEEclEPKv = comdat any

$_ZN3fmt2v613arg_formatterINS0_12buffer_rangeIcEEEclENS0_16basic_format_argINS0_20basic_format_contextISt20back_insert_iteratorINS0_8internal6bufferIcEEEcEEE6handleE = comdat any

$_ZN3fmt2v616basic_format_argINS0_20basic_format_contextISt20back_insert_iteratorINS0_8internal6bufferIcEEEcEEE6handleC2ENS4_12custom_valueIS8_EE = comdat any

$_ZN3fmt2v68internal18arg_formatter_baseINS0_12buffer_rangeIcEENS1_13error_handlerEEclENS0_9monostateE = comdat any

$_ZN3fmt2v68internal12basic_writerINS0_12buffer_rangeIcEEE9write_intIiNS0_18basic_format_specsIcEEEEvT_RKT0_ = comdat any

$_ZN3fmt2v68internal12basic_writerINS0_12buffer_rangeIcEEE5writeEi = comdat any

$_ZN3fmt2v68internal18arg_formatter_baseINS0_12buffer_rangeIcEENS1_13error_handlerEE3outEv = comdat any

$_ZN3fmt2v68internal20handle_int_type_specINS1_12basic_writerINS0_12buffer_rangeIcEEE10int_writerIiNS0_18basic_format_specsIcEEEEEEvcOT_ = comdat any

$_ZN3fmt2v68internal12basic_writerINS0_12buffer_rangeIcEEE10int_writerIiNS0_18basic_format_specsIcEEEC2ERS5_iRKS8_ = comdat any

$_ZN3fmt2v68internal12basic_writerINS0_12buffer_rangeIcEEE10int_writerIiNS0_18basic_format_specsIcEEE6on_decEv = comdat any

$_ZN3fmt2v68internal12basic_writerINS0_12buffer_rangeIcEEE10int_writerIiNS0_18basic_format_specsIcEEE6on_hexEv = comdat any

$_ZN3fmt2v68internal12basic_writerINS0_12buffer_rangeIcEEE10int_writerIiNS0_18basic_format_specsIcEEE6on_binEv = comdat any

$_ZN3fmt2v68internal12basic_writerINS0_12buffer_rangeIcEEE10int_writerIiNS0_18basic_format_specsIcEEE6on_octEv = comdat any

$_ZN3fmt2v68internal12basic_writerINS0_12buffer_rangeIcEEE10int_writerIiNS0_18basic_format_specsIcEEE6on_numEv = comdat any

$_ZN3fmt2v68internal12basic_writerINS0_12buffer_rangeIcEEE10int_writerIiNS0_18basic_format_specsIcEEE8on_errorEv = comdat any

$_ZN3fmt2v68internal12count_digitsEj = comdat any

$_ZN3fmt2v68internal12basic_writerINS0_12buffer_rangeIcEEE9write_intINS5_10int_writerIiNS0_18basic_format_specsIcEEE10dec_writerEEEviNS0_17basic_string_viewIcEES9_T_ = comdat any

$_ZNK3fmt2v68internal12basic_writerINS0_12buffer_rangeIcEEE10int_writerIiNS0_18basic_format_specsIcEEE10get_prefixEv = comdat any

$_ZN3fmt2v68internal11to_unsignedIiEENSt13make_unsignedIT_E4typeES4_ = comdat any

$_ZN3fmt2v68internal6fill_tIcEixEm = comdat any

$_ZN3fmt2v68internal12basic_writerINS0_12buffer_rangeIcEEE12write_paddedINS5_17padded_int_writerINS5_10int_writerIiNS0_18basic_format_specsIcEEE10dec_writerEEEEEvRKSA_OT_ = comdat any

$_ZNK3fmt2v68internal12basic_writerINS0_12buffer_rangeIcEEE17padded_int_writerINS5_10int_writerIiNS0_18basic_format_specsIcEEE10dec_writerEE4sizeEv = comdat any

$_ZNK3fmt2v68internal12basic_writerINS0_12buffer_rangeIcEEE17padded_int_writerINS5_10int_writerIiNS0_18basic_format_specsIcEEE10dec_writerEE5widthEv = comdat any

$_ZNK3fmt2v68internal12basic_writerINS0_12buffer_rangeIcEEE17padded_int_writerINS5_10int_writerIiNS0_18basic_format_specsIcEEE10dec_writerEEclIPcEEvOT_ = comdat any

$_ZN3fmt2v68internal12basic_writerINS0_12buffer_rangeIcEEE7reserveEm = comdat any

$_ZNK3fmt2v68internal6fill_tIcEixEm = comdat any

$_ZSt6fill_nIPcmcET_S1_T0_RKT1_ = comdat any

$_ZNK3fmt2v68internal12basic_writerINS0_12buffer_rangeIcEEE17padded_int_writerINS5_10int_writerIiNS0_18basic_format_specsIcEEE10dec_writerEEclIRPcEEvOT_ = comdat any

$_ZN3fmt2v68internal8copy_strIcPKcPcTnNSt9enable_ifIXntsr16needs_conversionIT0_T_EE5valueEiE4typeELi0EEET1_S7_S7_SB_ = comdat any

$_ZNK3fmt2v617basic_string_viewIcE3endEv = comdat any

$_ZNK3fmt2v68internal12basic_writerINS0_12buffer_rangeIcEEE10int_writerIiNS0_18basic_format_specsIcEEE10dec_writerclIRPcEEvOT_ = comdat any

$_ZSt4copyIPKcPcET0_T_S4_S3_ = comdat any

$_ZSt13__copy_move_aILb0EPKcPcET1_T0_S4_S3_ = comdat any

$_ZSt12__miter_baseIPKcET_S2_ = comdat any

$_ZSt14__copy_move_a1ILb0EPKcPcET1_T0_S4_S3_ = comdat any

$_ZSt12__niter_baseIPKcET_S2_ = comdat any

$_ZSt14__copy_move_a2ILb0EPKcPcET1_T0_S4_S3_ = comdat any

$_ZN3fmt2v68internal14format_decimalIcPcjEET0_S4_T1_i = comdat any

$_ZN3fmt2v68internal14format_decimalIcjPcZNS1_14format_decimalIcS3_jEET0_S5_T1_iEUlS3_E_EES6_S6_S5_iT2_ = comdat any

$_ZN3fmt2v68internal14format_decimalIjcZNS1_14format_decimalIcPcjEET0_S5_T1_iEUlS4_E_EEPS5_S8_T_iS6_ = comdat any

$_ZN3fmt2v68internal8copy_strIcPcS3_TnNSt9enable_ifIXntsr16needs_conversionIT0_T_EE5valueEiE4typeELi0EEET1_S5_S5_S9_ = comdat any

$_ZZN3fmt2v68internal14format_decimalIcPcjEET0_S4_T1_iENKUlS3_E_clES3_ = comdat any

$_ZN3fmt2v68internal7reserveINS1_6bufferIcEETnNSt9enable_ifIXsr13is_contiguousIT_EE5valueEiE4typeELi0EEEPNS6_10value_typeERSt20back_insert_iteratorIS6_Em = comdat any

$_ZN3fmt2v68internal13get_containerINS1_6bufferIcEEEERT_St20back_insert_iteratorIS5_E = comdat any

$_ZN3fmt2v68internal6bufferIcE6resizeEm = comdat any

$_ZN3fmt2v68internal8get_dataINS1_6bufferIcEEEEPNT_10value_typeERS5_ = comdat any

$_ZZN3fmt2v68internal13get_containerINS1_6bufferIcEEEERT_St20back_insert_iteratorIS5_EEN8accessorC2ES7_IS4_E = comdat any

$_ZN3fmt2v68internal6bufferIcE7reserveEm = comdat any

$_ZSt10__fill_n_aIPcmcET_S1_T0_RKT1_St26random_access_iterator_tag = comdat any

$_ZSt19__iterator_categoryIPcENSt15iterator_traitsIT_E17iterator_categoryERKS2_ = comdat any

$_ZSt8__fill_aIPccEvT_S1_RKT0_ = comdat any

$_ZSt9__fill_a1IcEN9__gnu_cxx11__enable_ifIXsr9__is_byteIT_EE7__valueEvE6__typeEPS2_S5_RKS2_ = comdat any

$_ZN3fmt2v68internal12count_digitsILj4EjEEiT0_ = comdat any

$_ZN3fmt2v68internal12basic_writerINS0_12buffer_rangeIcEEE9write_intINS5_10int_writerIiNS0_18basic_format_specsIcEEE10hex_writerEEEviNS0_17basic_string_viewIcEES9_T_ = comdat any

$_ZN3fmt2v68internal12basic_writerINS0_12buffer_rangeIcEEE12write_paddedINS5_17padded_int_writerINS5_10int_writerIiNS0_18basic_format_specsIcEEE10hex_writerEEEEEvRKSA_OT_ = comdat any

$_ZNK3fmt2v68internal12basic_writerINS0_12buffer_rangeIcEEE17padded_int_writerINS5_10int_writerIiNS0_18basic_format_specsIcEEE10hex_writerEE4sizeEv = comdat any

$_ZNK3fmt2v68internal12basic_writerINS0_12buffer_rangeIcEEE17padded_int_writerINS5_10int_writerIiNS0_18basic_format_specsIcEEE10hex_writerEE5widthEv = comdat any

$_ZNK3fmt2v68internal12basic_writerINS0_12buffer_rangeIcEEE17padded_int_writerINS5_10int_writerIiNS0_18basic_format_specsIcEEE10hex_writerEEclIPcEEvOT_ = comdat any

$_ZNK3fmt2v68internal12basic_writerINS0_12buffer_rangeIcEEE17padded_int_writerINS5_10int_writerIiNS0_18basic_format_specsIcEEE10hex_writerEEclIRPcEEvOT_ = comdat any

$_ZNK3fmt2v68internal12basic_writerINS0_12buffer_rangeIcEEE10int_writerIiNS0_18basic_format_specsIcEEE10hex_writerclIRPcEEvOT_ = comdat any

$_ZN3fmt2v68internal11format_uintILj4EcjEEPT0_S4_T1_ib = comdat any

$_ZN3fmt2v68internal12count_digitsILj1EjEEiT0_ = comdat any

$_ZN3fmt2v68internal12basic_writerINS0_12buffer_rangeIcEEE9write_intINS5_10int_writerIiNS0_18basic_format_specsIcEEE10bin_writerILi1EEEEEviNS0_17basic_string_viewIcEES9_T_ = comdat any

$_ZN3fmt2v68internal12basic_writerINS0_12buffer_rangeIcEEE12write_paddedINS5_17padded_int_writerINS5_10int_writerIiNS0_18basic_format_specsIcEEE10bin_writerILi1EEEEEEEvRKSA_OT_ = comdat any

$_ZNK3fmt2v68internal12basic_writerINS0_12buffer_rangeIcEEE17padded_int_writerINS5_10int_writerIiNS0_18basic_format_specsIcEEE10bin_writerILi1EEEE4sizeEv = comdat any

$_ZNK3fmt2v68internal12basic_writerINS0_12buffer_rangeIcEEE17padded_int_writerINS5_10int_writerIiNS0_18basic_format_specsIcEEE10bin_writerILi1EEEE5widthEv = comdat any

$_ZNK3fmt2v68internal12basic_writerINS0_12buffer_rangeIcEEE17padded_int_writerINS5_10int_writerIiNS0_18basic_format_specsIcEEE10bin_writerILi1EEEEclIPcEEvOT_ = comdat any

$_ZNK3fmt2v68internal12basic_writerINS0_12buffer_rangeIcEEE17padded_int_writerINS5_10int_writerIiNS0_18basic_format_specsIcEEE10bin_writerILi1EEEEclIRPcEEvOT_ = comdat any

$_ZNK3fmt2v68internal12basic_writerINS0_12buffer_rangeIcEEE10int_writerIiNS0_18basic_format_specsIcEEE10bin_writerILi1EEclIRPcEEvOT_ = comdat any

$_ZN3fmt2v68internal11format_uintILj1EcjEEPT0_S4_T1_ib = comdat any

$_ZN3fmt2v68internal12count_digitsILj3EjEEiT0_ = comdat any

$_ZN3fmt2v68internal12basic_writerINS0_12buffer_rangeIcEEE9write_intINS5_10int_writerIiNS0_18basic_format_specsIcEEE10bin_writerILi3EEEEEviNS0_17basic_string_viewIcEES9_T_ = comdat any

$_ZN3fmt2v68internal12basic_writerINS0_12buffer_rangeIcEEE12write_paddedINS5_17padded_int_writerINS5_10int_writerIiNS0_18basic_format_specsIcEEE10bin_writerILi3EEEEEEEvRKSA_OT_ = comdat any

$_ZNK3fmt2v68internal12basic_writerINS0_12buffer_rangeIcEEE17padded_int_writerINS5_10int_writerIiNS0_18basic_format_specsIcEEE10bin_writerILi3EEEE4sizeEv = comdat any

$_ZNK3fmt2v68internal12basic_writerINS0_12buffer_rangeIcEEE17padded_int_writerINS5_10int_writerIiNS0_18basic_format_specsIcEEE10bin_writerILi3EEEE5widthEv = comdat any

$_ZNK3fmt2v68internal12basic_writerINS0_12buffer_rangeIcEEE17padded_int_writerINS5_10int_writerIiNS0_18basic_format_specsIcEEE10bin_writerILi3EEEEclIPcEEvOT_ = comdat any

$_ZNK3fmt2v68internal12basic_writerINS0_12buffer_rangeIcEEE17padded_int_writerINS5_10int_writerIiNS0_18basic_format_specsIcEEE10bin_writerILi3EEEEclIRPcEEvOT_ = comdat any

$_ZNK3fmt2v68internal12basic_writerINS0_12buffer_rangeIcEEE10int_writerIiNS0_18basic_format_specsIcEEE10bin_writerILi3EEclIRPcEEvOT_ = comdat any

$_ZN3fmt2v68internal11format_uintILj3EcjEEPT0_S4_T1_ib = comdat any

$_ZN3fmt2v68internal8groupingIcEENSt7__cxx1112basic_stringIcSt11char_traitsIcESaIcEEENS1_10locale_refE = comdat any

$_ZN3fmt2v68internal13thousands_sepIcEET_NS1_10locale_refE = comdat any

$_ZN9__gnu_cxxneIPKcNSt7__cxx1112basic_stringIcSt11char_traitsIcESaIcEEEEEbRKNS_17__normal_iteratorIT_T0_EESE_ = comdat any

$_ZNK9__gnu_cxx17__normal_iteratorIPKcNSt7__cxx1112basic_stringIcSt11char_traitsIcESaIcEEEEdeEv = comdat any

$_ZN3fmt2v68internal9max_valueIcEET_v = comdat any

$_ZN9__gnu_cxx17__normal_iteratorIPKcNSt7__cxx1112basic_stringIcSt11char_traitsIcESaIcEEEEppEv = comdat any

$_ZN9__gnu_cxxeqIPKcNSt7__cxx1112basic_stringIcSt11char_traitsIcESaIcEEEEEbRKNS_17__normal_iteratorIT_T0_EESE_ = comdat any

$_ZN3fmt2v68internal12basic_writerINS0_12buffer_rangeIcEEE9write_intINS5_10int_writerIiNS0_18basic_format_specsIcEEE10num_writerEEEviNS0_17basic_string_viewIcEES9_T_ = comdat any

$_ZN9__gnu_cxx17__normal_iteratorIPKcNSt7__cxx1112basic_stringIcSt11char_traitsIcESaIcEEEEC2ERKS2_ = comdat any

$_ZNK9__gnu_cxx17__normal_iteratorIPKcNSt7__cxx1112basic_stringIcSt11char_traitsIcESaIcEEEE4baseEv = comdat any

$_ZNSt14numeric_limitsIcE3maxEv = comdat any

$_ZN3fmt2v68internal12basic_writerINS0_12buffer_rangeIcEEE12write_paddedINS5_17padded_int_writerINS5_10int_writerIiNS0_18basic_format_specsIcEEE10num_writerEEEEEvRKSA_OT_ = comdat any

$_ZNK3fmt2v68internal12basic_writerINS0_12buffer_rangeIcEEE17padded_int_writerINS5_10int_writerIiNS0_18basic_format_specsIcEEE10num_writerEE4sizeEv = comdat any

$_ZNK3fmt2v68internal12basic_writerINS0_12buffer_rangeIcEEE17padded_int_writerINS5_10int_writerIiNS0_18basic_format_specsIcEEE10num_writerEE5widthEv = comdat any

$_ZNK3fmt2v68internal12basic_writerINS0_12buffer_rangeIcEEE17padded_int_writerINS5_10int_writerIiNS0_18basic_format_specsIcEEE10num_writerEEclIPcEEvOT_ = comdat any

$_ZNK3fmt2v68internal12basic_writerINS0_12buffer_rangeIcEEE17padded_int_writerINS5_10int_writerIiNS0_18basic_format_specsIcEEE10num_writerEEclIRPcEEvOT_ = comdat any

$_ZNK3fmt2v68internal12basic_writerINS0_12buffer_rangeIcEEE10int_writerIiNS0_18basic_format_specsIcEEE10num_writerclIRPcEEvOT_ = comdat any

$_ZN3fmt2v68internal14format_decimalIcjPcZNKS1_12basic_writerINS0_12buffer_rangeIcEEE10int_writerIiNS0_18basic_format_specsIcEEE10num_writerclIRS3_EEvOT_EUlSE_E_EET1_SI_T0_iT2_ = comdat any

$_ZN3fmt2v68internal14format_decimalIjcZNKS1_12basic_writerINS0_12buffer_rangeIcEEE10int_writerIiNS0_18basic_format_specsIcEEE10num_writerclIRPcEEvOT_EUlSE_E_EEPT0_SJ_SF_iT1_ = comdat any

$_ZZNK3fmt2v68internal12basic_writerINS0_12buffer_rangeIcEEE10int_writerIiNS0_18basic_format_specsIcEEE10num_writerclIRPcEEvOT_ENKUlSD_E_clESD_ = comdat any

$_ZNK9__gnu_cxx17__normal_iteratorIPKcNSt7__cxx1112basic_stringIcSt11char_traitsIcESaIcEEEEplEl = comdat any

$_ZSt18uninitialized_copyIPKcPcET0_T_S4_S3_ = comdat any

$_ZNSt20__uninitialized_copyILb1EE13__uninit_copyIPKcPcEET0_T_S6_S5_ = comdat any

$_ZN3fmt2v612format_errorC2EPKc = comdat any

$_ZN3fmt2v68internal11is_negativeIiTnNSt9enable_ifIXsr3std14numeric_limitsIT_EE9is_signedEiE4typeELi0EEEbS4_ = comdat any

$_ZN3fmt2v68internal12basic_writerINS0_12buffer_rangeIcEEE13write_decimalIiEEvT_ = comdat any

$_ZNK3fmt2v68internal12basic_writerINS0_12buffer_rangeIcEEE3outEv = comdat any

$_ZN3fmt2v68internal12basic_writerINS0_12buffer_rangeIcEEE9write_intIjNS0_18basic_format_specsIcEEEEvT_RKT0_ = comdat any

$_ZN3fmt2v68internal12basic_writerINS0_12buffer_rangeIcEEE5writeEj = comdat any

$_ZN3fmt2v68internal20handle_int_type_specINS1_12basic_writerINS0_12buffer_rangeIcEEE10int_writerIjNS0_18basic_format_specsIcEEEEEEvcOT_ = comdat any

$_ZN3fmt2v68internal12basic_writerINS0_12buffer_rangeIcEEE10int_writerIjNS0_18basic_format_specsIcEEEC2ERS5_jRKS8_ = comdat any

$_ZN3fmt2v68internal12basic_writerINS0_12buffer_rangeIcEEE10int_writerIjNS0_18basic_format_specsIcEEE6on_decEv = comdat any

$_ZN3fmt2v68internal12basic_writerINS0_12buffer_rangeIcEEE10int_writerIjNS0_18basic_format_specsIcEEE6on_hexEv = comdat any

$_ZN3fmt2v68internal12basic_writerINS0_12buffer_rangeIcEEE10int_writerIjNS0_18basic_format_specsIcEEE6on_binEv = comdat any

$_ZN3fmt2v68internal12basic_writerINS0_12buffer_rangeIcEEE10int_writerIjNS0_18basic_format_specsIcEEE6on_octEv = comdat any

$_ZN3fmt2v68internal12basic_writerINS0_12buffer_rangeIcEEE10int_writerIjNS0_18basic_format_specsIcEEE6on_numEv = comdat any

$_ZN3fmt2v68internal12basic_writerINS0_12buffer_rangeIcEEE10int_writerIjNS0_18basic_format_specsIcEEE8on_errorEv = comdat any

$_ZN3fmt2v68internal12basic_writerINS0_12buffer_rangeIcEEE9write_intINS5_10int_writerIjNS0_18basic_format_specsIcEEE10dec_writerEEEviNS0_17basic_string_viewIcEES9_T_ = comdat any

$_ZNK3fmt2v68internal12basic_writerINS0_12buffer_rangeIcEEE10int_writerIjNS0_18basic_format_specsIcEEE10get_prefixEv = comdat any

$_ZN3fmt2v68internal12basic_writerINS0_12buffer_rangeIcEEE12write_paddedINS5_17padded_int_writerINS5_10int_writerIjNS0_18basic_format_specsIcEEE10dec_writerEEEEEvRKSA_OT_ = comdat any

$_ZNK3fmt2v68internal12basic_writerINS0_12buffer_rangeIcEEE17padded_int_writerINS5_10int_writerIjNS0_18basic_format_specsIcEEE10dec_writerEE4sizeEv = comdat any

$_ZNK3fmt2v68internal12basic_writerINS0_12buffer_rangeIcEEE17padded_int_writerINS5_10int_writerIjNS0_18basic_format_specsIcEEE10dec_writerEE5widthEv = comdat any

$_ZNK3fmt2v68internal12basic_writerINS0_12buffer_rangeIcEEE17padded_int_writerINS5_10int_writerIjNS0_18basic_format_specsIcEEE10dec_writerEEclIPcEEvOT_ = comdat any

$_ZNK3fmt2v68internal12basic_writerINS0_12buffer_rangeIcEEE17padded_int_writerINS5_10int_writerIjNS0_18basic_format_specsIcEEE10dec_writerEEclIRPcEEvOT_ = comdat any

$_ZNK3fmt2v68internal12basic_writerINS0_12buffer_rangeIcEEE10int_writerIjNS0_18basic_format_specsIcEEE10dec_writerclIRPcEEvOT_ = comdat any

$_ZN3fmt2v68internal12basic_writerINS0_12buffer_rangeIcEEE9write_intINS5_10int_writerIjNS0_18basic_format_specsIcEEE10hex_writerEEEviNS0_17basic_string_viewIcEES9_T_ = comdat any

$_ZN3fmt2v68internal12basic_writerINS0_12buffer_rangeIcEEE12write_paddedINS5_17padded_int_writerINS5_10int_writerIjNS0_18basic_format_specsIcEEE10hex_writerEEEEEvRKSA_OT_ = comdat any

$_ZNK3fmt2v68internal12basic_writerINS0_12buffer_rangeIcEEE17padded_int_writerINS5_10int_writerIjNS0_18basic_format_specsIcEEE10hex_writerEE4sizeEv = comdat any

$_ZNK3fmt2v68internal12basic_writerINS0_12buffer_rangeIcEEE17padded_int_writerINS5_10int_writerIjNS0_18basic_format_specsIcEEE10hex_writerEE5widthEv = comdat any

$_ZNK3fmt2v68internal12basic_writerINS0_12buffer_rangeIcEEE17padded_int_writerINS5_10int_writerIjNS0_18basic_format_specsIcEEE10hex_writerEEclIPcEEvOT_ = comdat any

$_ZNK3fmt2v68internal12basic_writerINS0_12buffer_rangeIcEEE17padded_int_writerINS5_10int_writerIjNS0_18basic_format_specsIcEEE10hex_writerEEclIRPcEEvOT_ = comdat any

$_ZNK3fmt2v68internal12basic_writerINS0_12buffer_rangeIcEEE10int_writerIjNS0_18basic_format_specsIcEEE10hex_writerclIRPcEEvOT_ = comdat any

$_ZN3fmt2v68internal12basic_writerINS0_12buffer_rangeIcEEE9write_intINS5_10int_writerIjNS0_18basic_format_specsIcEEE10bin_writerILi1EEEEEviNS0_17basic_string_viewIcEES9_T_ = comdat any

$_ZN3fmt2v68internal12basic_writerINS0_12buffer_rangeIcEEE12write_paddedINS5_17padded_int_writerINS5_10int_writerIjNS0_18basic_format_specsIcEEE10bin_writerILi1EEEEEEEvRKSA_OT_ = comdat any

$_ZNK3fmt2v68internal12basic_writerINS0_12buffer_rangeIcEEE17padded_int_writerINS5_10int_writerIjNS0_18basic_format_specsIcEEE10bin_writerILi1EEEE4sizeEv = comdat any

$_ZNK3fmt2v68internal12basic_writerINS0_12buffer_rangeIcEEE17padded_int_writerINS5_10int_writerIjNS0_18basic_format_specsIcEEE10bin_writerILi1EEEE5widthEv = comdat any

$_ZNK3fmt2v68internal12basic_writerINS0_12buffer_rangeIcEEE17padded_int_writerINS5_10int_writerIjNS0_18basic_format_specsIcEEE10bin_writerILi1EEEEclIPcEEvOT_ = comdat any

$_ZNK3fmt2v68internal12basic_writerINS0_12buffer_rangeIcEEE17padded_int_writerINS5_10int_writerIjNS0_18basic_format_specsIcEEE10bin_writerILi1EEEEclIRPcEEvOT_ = comdat any

$_ZNK3fmt2v68internal12basic_writerINS0_12buffer_rangeIcEEE10int_writerIjNS0_18basic_format_specsIcEEE10bin_writerILi1EEclIRPcEEvOT_ = comdat any

$_ZN3fmt2v68internal12basic_writerINS0_12buffer_rangeIcEEE9write_intINS5_10int_writerIjNS0_18basic_format_specsIcEEE10bin_writerILi3EEEEEviNS0_17basic_string_viewIcEES9_T_ = comdat any

$_ZN3fmt2v68internal12basic_writerINS0_12buffer_rangeIcEEE12write_paddedINS5_17padded_int_writerINS5_10int_writerIjNS0_18basic_format_specsIcEEE10bin_writerILi3EEEEEEEvRKSA_OT_ = comdat any

$_ZNK3fmt2v68internal12basic_writerINS0_12buffer_rangeIcEEE17padded_int_writerINS5_10int_writerIjNS0_18basic_format_specsIcEEE10bin_writerILi3EEEE4sizeEv = comdat any

$_ZNK3fmt2v68internal12basic_writerINS0_12buffer_rangeIcEEE17padded_int_writerINS5_10int_writerIjNS0_18basic_format_specsIcEEE10bin_writerILi3EEEE5widthEv = comdat any

$_ZNK3fmt2v68internal12basic_writerINS0_12buffer_rangeIcEEE17padded_int_writerINS5_10int_writerIjNS0_18basic_format_specsIcEEE10bin_writerILi3EEEEclIPcEEvOT_ = comdat any

$_ZNK3fmt2v68internal12basic_writerINS0_12buffer_rangeIcEEE17padded_int_writerINS5_10int_writerIjNS0_18basic_format_specsIcEEE10bin_writerILi3EEEEclIRPcEEvOT_ = comdat any

$_ZNK3fmt2v68internal12basic_writerINS0_12buffer_rangeIcEEE10int_writerIjNS0_18basic_format_specsIcEEE10bin_writerILi3EEclIRPcEEvOT_ = comdat any

$_ZN3fmt2v68internal12basic_writerINS0_12buffer_rangeIcEEE9write_intINS5_10int_writerIjNS0_18basic_format_specsIcEEE10num_writerEEEviNS0_17basic_string_viewIcEES9_T_ = comdat any

$_ZN3fmt2v68internal12basic_writerINS0_12buffer_rangeIcEEE12write_paddedINS5_17padded_int_writerINS5_10int_writerIjNS0_18basic_format_specsIcEEE10num_writerEEEEEvRKSA_OT_ = comdat any

$_ZNK3fmt2v68internal12basic_writerINS0_12buffer_rangeIcEEE17padded_int_writerINS5_10int_writerIjNS0_18basic_format_specsIcEEE10num_writerEE4sizeEv = comdat any

$_ZNK3fmt2v68internal12basic_writerINS0_12buffer_rangeIcEEE17padded_int_writerINS5_10int_writerIjNS0_18basic_format_specsIcEEE10num_writerEE5widthEv = comdat any

$_ZNK3fmt2v68internal12basic_writerINS0_12buffer_rangeIcEEE17padded_int_writerINS5_10int_writerIjNS0_18basic_format_specsIcEEE10num_writerEEclIPcEEvOT_ = comdat any

$_ZNK3fmt2v68internal12basic_writerINS0_12buffer_rangeIcEEE17padded_int_writerINS5_10int_writerIjNS0_18basic_format_specsIcEEE10num_writerEEclIRPcEEvOT_ = comdat any

$_ZNK3fmt2v68internal12basic_writerINS0_12buffer_rangeIcEEE10int_writerIjNS0_18basic_format_specsIcEEE10num_writerclIRPcEEvOT_ = comdat any

$_ZN3fmt2v68internal14format_decimalIcjPcZNKS1_12basic_writerINS0_12buffer_rangeIcEEE10int_writerIjNS0_18basic_format_specsIcEEE10num_writerclIRS3_EEvOT_EUlSE_E_EET1_SI_T0_iT2_ = comdat any

$_ZN3fmt2v68internal14format_decimalIjcZNKS1_12basic_writerINS0_12buffer_rangeIcEEE10int_writerIjNS0_18basic_format_specsIcEEE10num_writerclIRPcEEvOT_EUlSE_E_EEPT0_SJ_SF_iT1_ = comdat any

$_ZZNK3fmt2v68internal12basic_writerINS0_12buffer_rangeIcEEE10int_writerIjNS0_18basic_format_specsIcEEE10num_writerclIRPcEEvOT_ENKUlSD_E_clESD_ = comdat any

$_ZN3fmt2v68internal11is_negativeIjTnNSt9enable_ifIXntsr3std14numeric_limitsIT_EE9is_signedEiE4typeELi0EEEbS4_ = comdat any

$_ZN3fmt2v68internal12basic_writerINS0_12buffer_rangeIcEEE13write_decimalIjEEvT_ = comdat any

$_ZN3fmt2v68internal12basic_writerINS0_12buffer_rangeIcEEE9write_intIxNS0_18basic_format_specsIcEEEEvT_RKT0_ = comdat any

$_ZN3fmt2v68internal12basic_writerINS0_12buffer_rangeIcEEE5writeEx = comdat any

$_ZN3fmt2v68internal20handle_int_type_specINS1_12basic_writerINS0_12buffer_rangeIcEEE10int_writerIxNS0_18basic_format_specsIcEEEEEEvcOT_ = comdat any

$_ZN3fmt2v68internal12basic_writerINS0_12buffer_rangeIcEEE10int_writerIxNS0_18basic_format_specsIcEEEC2ERS5_xRKS8_ = comdat any

$_ZN3fmt2v68internal12basic_writerINS0_12buffer_rangeIcEEE10int_writerIxNS0_18basic_format_specsIcEEE6on_decEv = comdat any

$_ZN3fmt2v68internal12basic_writerINS0_12buffer_rangeIcEEE10int_writerIxNS0_18basic_format_specsIcEEE6on_hexEv = comdat any

$_ZN3fmt2v68internal12basic_writerINS0_12buffer_rangeIcEEE10int_writerIxNS0_18basic_format_specsIcEEE6on_binEv = comdat any

$_ZN3fmt2v68internal12basic_writerINS0_12buffer_rangeIcEEE10int_writerIxNS0_18basic_format_specsIcEEE6on_octEv = comdat any

$_ZN3fmt2v68internal12basic_writerINS0_12buffer_rangeIcEEE10int_writerIxNS0_18basic_format_specsIcEEE6on_numEv = comdat any

$_ZN3fmt2v68internal12basic_writerINS0_12buffer_rangeIcEEE10int_writerIxNS0_18basic_format_specsIcEEE8on_errorEv = comdat any

$_ZN3fmt2v68internal12count_digitsEm = comdat any

$_ZN3fmt2v68internal12basic_writerINS0_12buffer_rangeIcEEE9write_intINS5_10int_writerIxNS0_18basic_format_specsIcEEE10dec_writerEEEviNS0_17basic_string_viewIcEES9_T_ = comdat any

$_ZNK3fmt2v68internal12basic_writerINS0_12buffer_rangeIcEEE10int_writerIxNS0_18basic_format_specsIcEEE10get_prefixEv = comdat any

$_ZN3fmt2v68internal12basic_writerINS0_12buffer_rangeIcEEE12write_paddedINS5_17padded_int_writerINS5_10int_writerIxNS0_18basic_format_specsIcEEE10dec_writerEEEEEvRKSA_OT_ = comdat any

$_ZNK3fmt2v68internal12basic_writerINS0_12buffer_rangeIcEEE17padded_int_writerINS5_10int_writerIxNS0_18basic_format_specsIcEEE10dec_writerEE4sizeEv = comdat any

$_ZNK3fmt2v68internal12basic_writerINS0_12buffer_rangeIcEEE17padded_int_writerINS5_10int_writerIxNS0_18basic_format_specsIcEEE10dec_writerEE5widthEv = comdat any

$_ZNK3fmt2v68internal12basic_writerINS0_12buffer_rangeIcEEE17padded_int_writerINS5_10int_writerIxNS0_18basic_format_specsIcEEE10dec_writerEEclIPcEEvOT_ = comdat any

$_ZNK3fmt2v68internal12basic_writerINS0_12buffer_rangeIcEEE17padded_int_writerINS5_10int_writerIxNS0_18basic_format_specsIcEEE10dec_writerEEclIRPcEEvOT_ = comdat any

$_ZNK3fmt2v68internal12basic_writerINS0_12buffer_rangeIcEEE10int_writerIxNS0_18basic_format_specsIcEEE10dec_writerclIRPcEEvOT_ = comdat any

$_ZN3fmt2v68internal14format_decimalIcPcmEET0_S4_T1_i = comdat any

$_ZN3fmt2v68internal14format_decimalIcmPcZNS1_14format_decimalIcS3_mEET0_S5_T1_iEUlS3_E_EES6_S6_S5_iT2_ = comdat any

$_ZN3fmt2v68internal14format_decimalImcZNS1_14format_decimalIcPcmEET0_S5_T1_iEUlS4_E_EEPS5_S8_T_iS6_ = comdat any

$_ZZN3fmt2v68internal14format_decimalIcPcmEET0_S4_T1_iENKUlS3_E_clES3_ = comdat any

$_ZN3fmt2v68internal12count_digitsILj4EmEEiT0_ = comdat any

$_ZN3fmt2v68internal12basic_writerINS0_12buffer_rangeIcEEE9write_intINS5_10int_writerIxNS0_18basic_format_specsIcEEE10hex_writerEEEviNS0_17basic_string_viewIcEES9_T_ = comdat any

$_ZN3fmt2v68internal12basic_writerINS0_12buffer_rangeIcEEE12write_paddedINS5_17padded_int_writerINS5_10int_writerIxNS0_18basic_format_specsIcEEE10hex_writerEEEEEvRKSA_OT_ = comdat any

$_ZNK3fmt2v68internal12basic_writerINS0_12buffer_rangeIcEEE17padded_int_writerINS5_10int_writerIxNS0_18basic_format_specsIcEEE10hex_writerEE4sizeEv = comdat any

$_ZNK3fmt2v68internal12basic_writerINS0_12buffer_rangeIcEEE17padded_int_writerINS5_10int_writerIxNS0_18basic_format_specsIcEEE10hex_writerEE5widthEv = comdat any

$_ZNK3fmt2v68internal12basic_writerINS0_12buffer_rangeIcEEE17padded_int_writerINS5_10int_writerIxNS0_18basic_format_specsIcEEE10hex_writerEEclIPcEEvOT_ = comdat any

$_ZNK3fmt2v68internal12basic_writerINS0_12buffer_rangeIcEEE17padded_int_writerINS5_10int_writerIxNS0_18basic_format_specsIcEEE10hex_writerEEclIRPcEEvOT_ = comdat any

$_ZNK3fmt2v68internal12basic_writerINS0_12buffer_rangeIcEEE10int_writerIxNS0_18basic_format_specsIcEEE10hex_writerclIRPcEEvOT_ = comdat any

$_ZN3fmt2v68internal11format_uintILj4EcmEEPT0_S4_T1_ib = comdat any

$_ZN3fmt2v68internal12count_digitsILj1EmEEiT0_ = comdat any

$_ZN3fmt2v68internal12basic_writerINS0_12buffer_rangeIcEEE9write_intINS5_10int_writerIxNS0_18basic_format_specsIcEEE10bin_writerILi1EEEEEviNS0_17basic_string_viewIcEES9_T_ = comdat any

$_ZN3fmt2v68internal12basic_writerINS0_12buffer_rangeIcEEE12write_paddedINS5_17padded_int_writerINS5_10int_writerIxNS0_18basic_format_specsIcEEE10bin_writerILi1EEEEEEEvRKSA_OT_ = comdat any

$_ZNK3fmt2v68internal12basic_writerINS0_12buffer_rangeIcEEE17padded_int_writerINS5_10int_writerIxNS0_18basic_format_specsIcEEE10bin_writerILi1EEEE4sizeEv = comdat any

$_ZNK3fmt2v68internal12basic_writerINS0_12buffer_rangeIcEEE17padded_int_writerINS5_10int_writerIxNS0_18basic_format_specsIcEEE10bin_writerILi1EEEE5widthEv = comdat any

$_ZNK3fmt2v68internal12basic_writerINS0_12buffer_rangeIcEEE17padded_int_writerINS5_10int_writerIxNS0_18basic_format_specsIcEEE10bin_writerILi1EEEEclIPcEEvOT_ = comdat any

$_ZNK3fmt2v68internal12basic_writerINS0_12buffer_rangeIcEEE17padded_int_writerINS5_10int_writerIxNS0_18basic_format_specsIcEEE10bin_writerILi1EEEEclIRPcEEvOT_ = comdat any

$_ZNK3fmt2v68internal12basic_writerINS0_12buffer_rangeIcEEE10int_writerIxNS0_18basic_format_specsIcEEE10bin_writerILi1EEclIRPcEEvOT_ = comdat any

$_ZN3fmt2v68internal11format_uintILj1EcmEEPT0_S4_T1_ib = comdat any

$_ZN3fmt2v68internal12count_digitsILj3EmEEiT0_ = comdat any

$_ZN3fmt2v68internal12basic_writerINS0_12buffer_rangeIcEEE9write_intINS5_10int_writerIxNS0_18basic_format_specsIcEEE10bin_writerILi3EEEEEviNS0_17basic_string_viewIcEES9_T_ = comdat any

$_ZN3fmt2v68internal12basic_writerINS0_12buffer_rangeIcEEE12write_paddedINS5_17padded_int_writerINS5_10int_writerIxNS0_18basic_format_specsIcEEE10bin_writerILi3EEEEEEEvRKSA_OT_ = comdat any

$_ZNK3fmt2v68internal12basic_writerINS0_12buffer_rangeIcEEE17padded_int_writerINS5_10int_writerIxNS0_18basic_format_specsIcEEE10bin_writerILi3EEEE4sizeEv = comdat any

$_ZNK3fmt2v68internal12basic_writerINS0_12buffer_rangeIcEEE17padded_int_writerINS5_10int_writerIxNS0_18basic_format_specsIcEEE10bin_writerILi3EEEE5widthEv = comdat any

$_ZNK3fmt2v68internal12basic_writerINS0_12buffer_rangeIcEEE17padded_int_writerINS5_10int_writerIxNS0_18basic_format_specsIcEEE10bin_writerILi3EEEEclIPcEEvOT_ = comdat any

$_ZNK3fmt2v68internal12basic_writerINS0_12buffer_rangeIcEEE17padded_int_writerINS5_10int_writerIxNS0_18basic_format_specsIcEEE10bin_writerILi3EEEEclIRPcEEvOT_ = comdat any

$_ZNK3fmt2v68internal12basic_writerINS0_12buffer_rangeIcEEE10int_writerIxNS0_18basic_format_specsIcEEE10bin_writerILi3EEclIRPcEEvOT_ = comdat any

$_ZN3fmt2v68internal11format_uintILj3EcmEEPT0_S4_T1_ib = comdat any

$_ZN3fmt2v68internal12basic_writerINS0_12buffer_rangeIcEEE9write_intINS5_10int_writerIxNS0_18basic_format_specsIcEEE10num_writerEEEviNS0_17basic_string_viewIcEES9_T_ = comdat any

$_ZN3fmt2v68internal12basic_writerINS0_12buffer_rangeIcEEE12write_paddedINS5_17padded_int_writerINS5_10int_writerIxNS0_18basic_format_specsIcEEE10num_writerEEEEEvRKSA_OT_ = comdat any

$_ZNK3fmt2v68internal12basic_writerINS0_12buffer_rangeIcEEE17padded_int_writerINS5_10int_writerIxNS0_18basic_format_specsIcEEE10num_writerEE4sizeEv = comdat any

$_ZNK3fmt2v68internal12basic_writerINS0_12buffer_rangeIcEEE17padded_int_writerINS5_10int_writerIxNS0_18basic_format_specsIcEEE10num_writerEE5widthEv = comdat any

$_ZNK3fmt2v68internal12basic_writerINS0_12buffer_rangeIcEEE17padded_int_writerINS5_10int_writerIxNS0_18basic_format_specsIcEEE10num_writerEEclIPcEEvOT_ = comdat any

$_ZNK3fmt2v68internal12basic_writerINS0_12buffer_rangeIcEEE17padded_int_writerINS5_10int_writerIxNS0_18basic_format_specsIcEEE10num_writerEEclIRPcEEvOT_ = comdat any

$_ZNK3fmt2v68internal12basic_writerINS0_12buffer_rangeIcEEE10int_writerIxNS0_18basic_format_specsIcEEE10num_writerclIRPcEEvOT_ = comdat any

$_ZN3fmt2v68internal14format_decimalIcmPcZNKS1_12basic_writerINS0_12buffer_rangeIcEEE10int_writerIxNS0_18basic_format_specsIcEEE10num_writerclIRS3_EEvOT_EUlSE_E_EET1_SI_T0_iT2_ = comdat any

$_ZN3fmt2v68internal14format_decimalImcZNKS1_12basic_writerINS0_12buffer_rangeIcEEE10int_writerIxNS0_18basic_format_specsIcEEE10num_writerclIRPcEEvOT_EUlSE_E_EEPT0_SJ_SF_iT1_ = comdat any

$_ZZNK3fmt2v68internal12basic_writerINS0_12buffer_rangeIcEEE10int_writerIxNS0_18basic_format_specsIcEEE10num_writerclIRPcEEvOT_ENKUlSD_E_clESD_ = comdat any

$_ZN3fmt2v68internal11is_negativeIxTnNSt9enable_ifIXsr3std14numeric_limitsIT_EE9is_signedEiE4typeELi0EEEbS4_ = comdat any

$_ZN3fmt2v68internal12basic_writerINS0_12buffer_rangeIcEEE13write_decimalIxEEvT_ = comdat any

$_ZN3fmt2v68internal12basic_writerINS0_12buffer_rangeIcEEE9write_intIyNS0_18basic_format_specsIcEEEEvT_RKT0_ = comdat any

$_ZN3fmt2v68internal12basic_writerINS0_12buffer_rangeIcEEE5writeEy = comdat any

$_ZN3fmt2v68internal20handle_int_type_specINS1_12basic_writerINS0_12buffer_rangeIcEEE10int_writerIyNS0_18basic_format_specsIcEEEEEEvcOT_ = comdat any

$_ZN3fmt2v68internal12basic_writerINS0_12buffer_rangeIcEEE10int_writerIyNS0_18basic_format_specsIcEEEC2ERS5_yRKS8_ = comdat any

$_ZN3fmt2v68internal12basic_writerINS0_12buffer_rangeIcEEE10int_writerIyNS0_18basic_format_specsIcEEE6on_decEv = comdat any

$_ZN3fmt2v68internal12basic_writerINS0_12buffer_rangeIcEEE10int_writerIyNS0_18basic_format_specsIcEEE6on_hexEv = comdat any

$_ZN3fmt2v68internal12basic_writerINS0_12buffer_rangeIcEEE10int_writerIyNS0_18basic_format_specsIcEEE6on_binEv = comdat any

$_ZN3fmt2v68internal12basic_writerINS0_12buffer_rangeIcEEE10int_writerIyNS0_18basic_format_specsIcEEE6on_octEv = comdat any

$_ZN3fmt2v68internal12basic_writerINS0_12buffer_rangeIcEEE10int_writerIyNS0_18basic_format_specsIcEEE6on_numEv = comdat any

$_ZN3fmt2v68internal12basic_writerINS0_12buffer_rangeIcEEE10int_writerIyNS0_18basic_format_specsIcEEE8on_errorEv = comdat any

$_ZN3fmt2v68internal12basic_writerINS0_12buffer_rangeIcEEE9write_intINS5_10int_writerIyNS0_18basic_format_specsIcEEE10dec_writerEEEviNS0_17basic_string_viewIcEES9_T_ = comdat any

$_ZNK3fmt2v68internal12basic_writerINS0_12buffer_rangeIcEEE10int_writerIyNS0_18basic_format_specsIcEEE10get_prefixEv = comdat any

$_ZN3fmt2v68internal12basic_writerINS0_12buffer_rangeIcEEE12write_paddedINS5_17padded_int_writerINS5_10int_writerIyNS0_18basic_format_specsIcEEE10dec_writerEEEEEvRKSA_OT_ = comdat any

$_ZNK3fmt2v68internal12basic_writerINS0_12buffer_rangeIcEEE17padded_int_writerINS5_10int_writerIyNS0_18basic_format_specsIcEEE10dec_writerEE4sizeEv = comdat any

$_ZNK3fmt2v68internal12basic_writerINS0_12buffer_rangeIcEEE17padded_int_writerINS5_10int_writerIyNS0_18basic_format_specsIcEEE10dec_writerEE5widthEv = comdat any

$_ZNK3fmt2v68internal12basic_writerINS0_12buffer_rangeIcEEE17padded_int_writerINS5_10int_writerIyNS0_18basic_format_specsIcEEE10dec_writerEEclIPcEEvOT_ = comdat any

$_ZNK3fmt2v68internal12basic_writerINS0_12buffer_rangeIcEEE17padded_int_writerINS5_10int_writerIyNS0_18basic_format_specsIcEEE10dec_writerEEclIRPcEEvOT_ = comdat any

$_ZNK3fmt2v68internal12basic_writerINS0_12buffer_rangeIcEEE10int_writerIyNS0_18basic_format_specsIcEEE10dec_writerclIRPcEEvOT_ = comdat any

$_ZN3fmt2v68internal12basic_writerINS0_12buffer_rangeIcEEE9write_intINS5_10int_writerIyNS0_18basic_format_specsIcEEE10hex_writerEEEviNS0_17basic_string_viewIcEES9_T_ = comdat any

$_ZN3fmt2v68internal12basic_writerINS0_12buffer_rangeIcEEE12write_paddedINS5_17padded_int_writerINS5_10int_writerIyNS0_18basic_format_specsIcEEE10hex_writerEEEEEvRKSA_OT_ = comdat any

$_ZNK3fmt2v68internal12basic_writerINS0_12buffer_rangeIcEEE17padded_int_writerINS5_10int_writerIyNS0_18basic_format_specsIcEEE10hex_writerEE4sizeEv = comdat any

$_ZNK3fmt2v68internal12basic_writerINS0_12buffer_rangeIcEEE17padded_int_writerINS5_10int_writerIyNS0_18basic_format_specsIcEEE10hex_writerEE5widthEv = comdat any

$_ZNK3fmt2v68internal12basic_writerINS0_12buffer_rangeIcEEE17padded_int_writerINS5_10int_writerIyNS0_18basic_format_specsIcEEE10hex_writerEEclIPcEEvOT_ = comdat any

$_ZNK3fmt2v68internal12basic_writerINS0_12buffer_rangeIcEEE17padded_int_writerINS5_10int_writerIyNS0_18basic_format_specsIcEEE10hex_writerEEclIRPcEEvOT_ = comdat any

$_ZNK3fmt2v68internal12basic_writerINS0_12buffer_rangeIcEEE10int_writerIyNS0_18basic_format_specsIcEEE10hex_writerclIRPcEEvOT_ = comdat any

$_ZN3fmt2v68internal12basic_writerINS0_12buffer_rangeIcEEE9write_intINS5_10int_writerIyNS0_18basic_format_specsIcEEE10bin_writerILi1EEEEEviNS0_17basic_string_viewIcEES9_T_ = comdat any

$_ZN3fmt2v68internal12basic_writerINS0_12buffer_rangeIcEEE12write_paddedINS5_17padded_int_writerINS5_10int_writerIyNS0_18basic_format_specsIcEEE10bin_writerILi1EEEEEEEvRKSA_OT_ = comdat any

$_ZNK3fmt2v68internal12basic_writerINS0_12buffer_rangeIcEEE17padded_int_writerINS5_10int_writerIyNS0_18basic_format_specsIcEEE10bin_writerILi1EEEE4sizeEv = comdat any

$_ZNK3fmt2v68internal12basic_writerINS0_12buffer_rangeIcEEE17padded_int_writerINS5_10int_writerIyNS0_18basic_format_specsIcEEE10bin_writerILi1EEEE5widthEv = comdat any

$_ZNK3fmt2v68internal12basic_writerINS0_12buffer_rangeIcEEE17padded_int_writerINS5_10int_writerIyNS0_18basic_format_specsIcEEE10bin_writerILi1EEEEclIPcEEvOT_ = comdat any

$_ZNK3fmt2v68internal12basic_writerINS0_12buffer_rangeIcEEE17padded_int_writerINS5_10int_writerIyNS0_18basic_format_specsIcEEE10bin_writerILi1EEEEclIRPcEEvOT_ = comdat any

$_ZNK3fmt2v68internal12basic_writerINS0_12buffer_rangeIcEEE10int_writerIyNS0_18basic_format_specsIcEEE10bin_writerILi1EEclIRPcEEvOT_ = comdat any

$_ZN3fmt2v68internal12basic_writerINS0_12buffer_rangeIcEEE9write_intINS5_10int_writerIyNS0_18basic_format_specsIcEEE10bin_writerILi3EEEEEviNS0_17basic_string_viewIcEES9_T_ = comdat any

$_ZN3fmt2v68internal12basic_writerINS0_12buffer_rangeIcEEE12write_paddedINS5_17padded_int_writerINS5_10int_writerIyNS0_18basic_format_specsIcEEE10bin_writerILi3EEEEEEEvRKSA_OT_ = comdat any

$_ZNK3fmt2v68internal12basic_writerINS0_12buffer_rangeIcEEE17padded_int_writerINS5_10int_writerIyNS0_18basic_format_specsIcEEE10bin_writerILi3EEEE4sizeEv = comdat any

$_ZNK3fmt2v68internal12basic_writerINS0_12buffer_rangeIcEEE17padded_int_writerINS5_10int_writerIyNS0_18basic_format_specsIcEEE10bin_writerILi3EEEE5widthEv = comdat any

$_ZNK3fmt2v68internal12basic_writerINS0_12buffer_rangeIcEEE17padded_int_writerINS5_10int_writerIyNS0_18basic_format_specsIcEEE10bin_writerILi3EEEEclIPcEEvOT_ = comdat any

$_ZNK3fmt2v68internal12basic_writerINS0_12buffer_rangeIcEEE17padded_int_writerINS5_10int_writerIyNS0_18basic_format_specsIcEEE10bin_writerILi3EEEEclIRPcEEvOT_ = comdat any

$_ZNK3fmt2v68internal12basic_writerINS0_12buffer_rangeIcEEE10int_writerIyNS0_18basic_format_specsIcEEE10bin_writerILi3EEclIRPcEEvOT_ = comdat any

$_ZN3fmt2v68internal12basic_writerINS0_12buffer_rangeIcEEE9write_intINS5_10int_writerIyNS0_18basic_format_specsIcEEE10num_writerEEEviNS0_17basic_string_viewIcEES9_T_ = comdat any

$_ZN3fmt2v68internal12basic_writerINS0_12buffer_rangeIcEEE12write_paddedINS5_17padded_int_writerINS5_10int_writerIyNS0_18basic_format_specsIcEEE10num_writerEEEEEvRKSA_OT_ = comdat any

$_ZNK3fmt2v68internal12basic_writerINS0_12buffer_rangeIcEEE17padded_int_writerINS5_10int_writerIyNS0_18basic_format_specsIcEEE10num_writerEE4sizeEv = comdat any

$_ZNK3fmt2v68internal12basic_writerINS0_12buffer_rangeIcEEE17padded_int_writerINS5_10int_writerIyNS0_18basic_format_specsIcEEE10num_writerEE5widthEv = comdat any

$_ZNK3fmt2v68internal12basic_writerINS0_12buffer_rangeIcEEE17padded_int_writerINS5_10int_writerIyNS0_18basic_format_specsIcEEE10num_writerEEclIPcEEvOT_ = comdat any

$_ZNK3fmt2v68internal12basic_writerINS0_12buffer_rangeIcEEE17padded_int_writerINS5_10int_writerIyNS0_18basic_format_specsIcEEE10num_writerEEclIRPcEEvOT_ = comdat any

$_ZNK3fmt2v68internal12basic_writerINS0_12buffer_rangeIcEEE10int_writerIyNS0_18basic_format_specsIcEEE10num_writerclIRPcEEvOT_ = comdat any

$_ZN3fmt2v68internal14format_decimalIcmPcZNKS1_12basic_writerINS0_12buffer_rangeIcEEE10int_writerIyNS0_18basic_format_specsIcEEE10num_writerclIRS3_EEvOT_EUlSE_E_EET1_SI_T0_iT2_ = comdat any

$_ZN3fmt2v68internal14format_decimalImcZNKS1_12basic_writerINS0_12buffer_rangeIcEEE10int_writerIyNS0_18basic_format_specsIcEEE10num_writerclIRPcEEvOT_EUlSE_E_EEPT0_SJ_SF_iT1_ = comdat any

$_ZZNK3fmt2v68internal12basic_writerINS0_12buffer_rangeIcEEE10int_writerIyNS0_18basic_format_specsIcEEE10num_writerclIRPcEEvOT_ENKUlSD_E_clESD_ = comdat any

$_ZN3fmt2v68internal11is_negativeIyTnNSt9enable_ifIXntsr3std14numeric_limitsIT_EE9is_signedEiE4typeELi0EEEbS4_ = comdat any

$_ZN3fmt2v68internal12basic_writerINS0_12buffer_rangeIcEEE13write_decimalIyEEvT_ = comdat any

$_ZN3fmt2v68internal12basic_writerINS0_12buffer_rangeIcEEE9write_intInNS0_18basic_format_specsIcEEEEvT_RKT0_ = comdat any

$_ZN3fmt2v68internal12basic_writerINS0_12buffer_rangeIcEEE5writeEn = comdat any

$_ZN3fmt2v68internal20handle_int_type_specINS1_12basic_writerINS0_12buffer_rangeIcEEE10int_writerInNS0_18basic_format_specsIcEEEEEEvcOT_ = comdat any

$_ZN3fmt2v68internal12basic_writerINS0_12buffer_rangeIcEEE10int_writerInNS0_18basic_format_specsIcEEEC2ERS5_nRKS8_ = comdat any

$_ZN3fmt2v68internal12basic_writerINS0_12buffer_rangeIcEEE10int_writerInNS0_18basic_format_specsIcEEE6on_decEv = comdat any

$_ZN3fmt2v68internal12basic_writerINS0_12buffer_rangeIcEEE10int_writerInNS0_18basic_format_specsIcEEE6on_hexEv = comdat any

$_ZN3fmt2v68internal12basic_writerINS0_12buffer_rangeIcEEE10int_writerInNS0_18basic_format_specsIcEEE6on_binEv = comdat any

$_ZN3fmt2v68internal12basic_writerINS0_12buffer_rangeIcEEE10int_writerInNS0_18basic_format_specsIcEEE6on_octEv = comdat any

$_ZN3fmt2v68internal12basic_writerINS0_12buffer_rangeIcEEE10int_writerInNS0_18basic_format_specsIcEEE6on_numEv = comdat any

$_ZN3fmt2v68internal12basic_writerINS0_12buffer_rangeIcEEE10int_writerInNS0_18basic_format_specsIcEEE8on_errorEv = comdat any

$_ZN3fmt2v68internal12count_digitsEo = comdat any

$_ZN3fmt2v68internal12basic_writerINS0_12buffer_rangeIcEEE9write_intINS5_10int_writerInNS0_18basic_format_specsIcEEE10dec_writerEEEviNS0_17basic_string_viewIcEES9_T_ = comdat any

$_ZNK3fmt2v68internal12basic_writerINS0_12buffer_rangeIcEEE10int_writerInNS0_18basic_format_specsIcEEE10get_prefixEv = comdat any

$_ZN3fmt2v68internal12basic_writerINS0_12buffer_rangeIcEEE12write_paddedINS5_17padded_int_writerINS5_10int_writerInNS0_18basic_format_specsIcEEE10dec_writerEEEEEvRKSA_OT_ = comdat any

$_ZNK3fmt2v68internal12basic_writerINS0_12buffer_rangeIcEEE17padded_int_writerINS5_10int_writerInNS0_18basic_format_specsIcEEE10dec_writerEE4sizeEv = comdat any

$_ZNK3fmt2v68internal12basic_writerINS0_12buffer_rangeIcEEE17padded_int_writerINS5_10int_writerInNS0_18basic_format_specsIcEEE10dec_writerEE5widthEv = comdat any

$_ZNK3fmt2v68internal12basic_writerINS0_12buffer_rangeIcEEE17padded_int_writerINS5_10int_writerInNS0_18basic_format_specsIcEEE10dec_writerEEclIPcEEvOT_ = comdat any

$_ZNK3fmt2v68internal12basic_writerINS0_12buffer_rangeIcEEE17padded_int_writerINS5_10int_writerInNS0_18basic_format_specsIcEEE10dec_writerEEclIRPcEEvOT_ = comdat any

$_ZNK3fmt2v68internal12basic_writerINS0_12buffer_rangeIcEEE10int_writerInNS0_18basic_format_specsIcEEE10dec_writerclIRPcEEvOT_ = comdat any

$_ZN3fmt2v68internal14format_decimalIcPcoEET0_S4_T1_i = comdat any

$_ZN3fmt2v68internal14format_decimalIcoPcZNS1_14format_decimalIcS3_oEET0_S5_T1_iEUlS3_E_EES6_S6_S5_iT2_ = comdat any

$_ZN3fmt2v68internal14format_decimalIocZNS1_14format_decimalIcPcoEET0_S5_T1_iEUlS4_E_EEPS5_S8_T_iS6_ = comdat any

$_ZZN3fmt2v68internal14format_decimalIcPcoEET0_S4_T1_iENKUlS3_E_clES3_ = comdat any

$_ZN3fmt2v68internal12count_digitsILj4EoEEiT0_ = comdat any

$_ZN3fmt2v68internal12basic_writerINS0_12buffer_rangeIcEEE9write_intINS5_10int_writerInNS0_18basic_format_specsIcEEE10hex_writerEEEviNS0_17basic_string_viewIcEES9_T_ = comdat any

$_ZN3fmt2v68internal12basic_writerINS0_12buffer_rangeIcEEE12write_paddedINS5_17padded_int_writerINS5_10int_writerInNS0_18basic_format_specsIcEEE10hex_writerEEEEEvRKSA_OT_ = comdat any

$_ZNK3fmt2v68internal12basic_writerINS0_12buffer_rangeIcEEE17padded_int_writerINS5_10int_writerInNS0_18basic_format_specsIcEEE10hex_writerEE4sizeEv = comdat any

$_ZNK3fmt2v68internal12basic_writerINS0_12buffer_rangeIcEEE17padded_int_writerINS5_10int_writerInNS0_18basic_format_specsIcEEE10hex_writerEE5widthEv = comdat any

$_ZNK3fmt2v68internal12basic_writerINS0_12buffer_rangeIcEEE17padded_int_writerINS5_10int_writerInNS0_18basic_format_specsIcEEE10hex_writerEEclIPcEEvOT_ = comdat any

$_ZNK3fmt2v68internal12basic_writerINS0_12buffer_rangeIcEEE17padded_int_writerINS5_10int_writerInNS0_18basic_format_specsIcEEE10hex_writerEEclIRPcEEvOT_ = comdat any

$_ZNK3fmt2v68internal12basic_writerINS0_12buffer_rangeIcEEE10int_writerInNS0_18basic_format_specsIcEEE10hex_writerclIRPcEEvOT_ = comdat any

$_ZN3fmt2v68internal11format_uintILj4EcoEEPT0_S4_T1_ib = comdat any

$_ZN3fmt2v68internal12count_digitsILj1EoEEiT0_ = comdat any

$_ZN3fmt2v68internal12basic_writerINS0_12buffer_rangeIcEEE9write_intINS5_10int_writerInNS0_18basic_format_specsIcEEE10bin_writerILi1EEEEEviNS0_17basic_string_viewIcEES9_T_ = comdat any

$_ZN3fmt2v68internal12basic_writerINS0_12buffer_rangeIcEEE12write_paddedINS5_17padded_int_writerINS5_10int_writerInNS0_18basic_format_specsIcEEE10bin_writerILi1EEEEEEEvRKSA_OT_ = comdat any

$_ZNK3fmt2v68internal12basic_writerINS0_12buffer_rangeIcEEE17padded_int_writerINS5_10int_writerInNS0_18basic_format_specsIcEEE10bin_writerILi1EEEE4sizeEv = comdat any

$_ZNK3fmt2v68internal12basic_writerINS0_12buffer_rangeIcEEE17padded_int_writerINS5_10int_writerInNS0_18basic_format_specsIcEEE10bin_writerILi1EEEE5widthEv = comdat any

$_ZNK3fmt2v68internal12basic_writerINS0_12buffer_rangeIcEEE17padded_int_writerINS5_10int_writerInNS0_18basic_format_specsIcEEE10bin_writerILi1EEEEclIPcEEvOT_ = comdat any

$_ZNK3fmt2v68internal12basic_writerINS0_12buffer_rangeIcEEE17padded_int_writerINS5_10int_writerInNS0_18basic_format_specsIcEEE10bin_writerILi1EEEEclIRPcEEvOT_ = comdat any

$_ZNK3fmt2v68internal12basic_writerINS0_12buffer_rangeIcEEE10int_writerInNS0_18basic_format_specsIcEEE10bin_writerILi1EEclIRPcEEvOT_ = comdat any

$_ZN3fmt2v68internal11format_uintILj1EcoEEPT0_S4_T1_ib = comdat any

$_ZN3fmt2v68internal12count_digitsILj3EoEEiT0_ = comdat any

$_ZN3fmt2v68internal12basic_writerINS0_12buffer_rangeIcEEE9write_intINS5_10int_writerInNS0_18basic_format_specsIcEEE10bin_writerILi3EEEEEviNS0_17basic_string_viewIcEES9_T_ = comdat any

$_ZN3fmt2v68internal12basic_writerINS0_12buffer_rangeIcEEE12write_paddedINS5_17padded_int_writerINS5_10int_writerInNS0_18basic_format_specsIcEEE10bin_writerILi3EEEEEEEvRKSA_OT_ = comdat any

$_ZNK3fmt2v68internal12basic_writerINS0_12buffer_rangeIcEEE17padded_int_writerINS5_10int_writerInNS0_18basic_format_specsIcEEE10bin_writerILi3EEEE4sizeEv = comdat any

$_ZNK3fmt2v68internal12basic_writerINS0_12buffer_rangeIcEEE17padded_int_writerINS5_10int_writerInNS0_18basic_format_specsIcEEE10bin_writerILi3EEEE5widthEv = comdat any

$_ZNK3fmt2v68internal12basic_writerINS0_12buffer_rangeIcEEE17padded_int_writerINS5_10int_writerInNS0_18basic_format_specsIcEEE10bin_writerILi3EEEEclIPcEEvOT_ = comdat any

$_ZNK3fmt2v68internal12basic_writerINS0_12buffer_rangeIcEEE17padded_int_writerINS5_10int_writerInNS0_18basic_format_specsIcEEE10bin_writerILi3EEEEclIRPcEEvOT_ = comdat any

$_ZNK3fmt2v68internal12basic_writerINS0_12buffer_rangeIcEEE10int_writerInNS0_18basic_format_specsIcEEE10bin_writerILi3EEclIRPcEEvOT_ = comdat any

$_ZN3fmt2v68internal11format_uintILj3EcoEEPT0_S4_T1_ib = comdat any

$_ZN3fmt2v68internal12basic_writerINS0_12buffer_rangeIcEEE9write_intINS5_10int_writerInNS0_18basic_format_specsIcEEE10num_writerEEEviNS0_17basic_string_viewIcEES9_T_ = comdat any

$_ZN3fmt2v68internal12basic_writerINS0_12buffer_rangeIcEEE12write_paddedINS5_17padded_int_writerINS5_10int_writerInNS0_18basic_format_specsIcEEE10num_writerEEEEEvRKSA_OT_ = comdat any

$_ZNK3fmt2v68internal12basic_writerINS0_12buffer_rangeIcEEE17padded_int_writerINS5_10int_writerInNS0_18basic_format_specsIcEEE10num_writerEE4sizeEv = comdat any

$_ZNK3fmt2v68internal12basic_writerINS0_12buffer_rangeIcEEE17padded_int_writerINS5_10int_writerInNS0_18basic_format_specsIcEEE10num_writerEE5widthEv = comdat any

$_ZNK3fmt2v68internal12basic_writerINS0_12buffer_rangeIcEEE17padded_int_writerINS5_10int_writerInNS0_18basic_format_specsIcEEE10num_writerEEclIPcEEvOT_ = comdat any

$_ZNK3fmt2v68internal12basic_writerINS0_12buffer_rangeIcEEE17padded_int_writerINS5_10int_writerInNS0_18basic_format_specsIcEEE10num_writerEEclIRPcEEvOT_ = comdat any

$_ZNK3fmt2v68internal12basic_writerINS0_12buffer_rangeIcEEE10int_writerInNS0_18basic_format_specsIcEEE10num_writerclIRPcEEvOT_ = comdat any

$_ZN3fmt2v68internal14format_decimalIcoPcZNKS1_12basic_writerINS0_12buffer_rangeIcEEE10int_writerInNS0_18basic_format_specsIcEEE10num_writerclIRS3_EEvOT_EUlSE_E_EET1_SI_T0_iT2_ = comdat any

$_ZN3fmt2v68internal14format_decimalIocZNKS1_12basic_writerINS0_12buffer_rangeIcEEE10int_writerInNS0_18basic_format_specsIcEEE10num_writerclIRPcEEvOT_EUlSE_E_EEPT0_SJ_SF_iT1_ = comdat any

$_ZZNK3fmt2v68internal12basic_writerINS0_12buffer_rangeIcEEE10int_writerInNS0_18basic_format_specsIcEEE10num_writerclIRPcEEvOT_ENKUlSD_E_clESD_ = comdat any

$_ZN3fmt2v68internal11is_negativeInTnNSt9enable_ifIXsr3std14numeric_limitsIT_EE9is_signedEiE4typeELi0EEEbS4_ = comdat any

$_ZN3fmt2v68internal12basic_writerINS0_12buffer_rangeIcEEE13write_decimalInEEvT_ = comdat any

$_ZN3fmt2v68internal12basic_writerINS0_12buffer_rangeIcEEE9write_intIoNS0_18basic_format_specsIcEEEEvT_RKT0_ = comdat any

$_ZN3fmt2v68internal12basic_writerINS0_12buffer_rangeIcEEE5writeEo = comdat any

$_ZN3fmt2v68internal20handle_int_type_specINS1_12basic_writerINS0_12buffer_rangeIcEEE10int_writerIoNS0_18basic_format_specsIcEEEEEEvcOT_ = comdat any

$_ZN3fmt2v68internal12basic_writerINS0_12buffer_rangeIcEEE10int_writerIoNS0_18basic_format_specsIcEEEC2ERS5_oRKS8_ = comdat any

$_ZN3fmt2v68internal12basic_writerINS0_12buffer_rangeIcEEE10int_writerIoNS0_18basic_format_specsIcEEE6on_decEv = comdat any

$_ZN3fmt2v68internal12basic_writerINS0_12buffer_rangeIcEEE10int_writerIoNS0_18basic_format_specsIcEEE6on_hexEv = comdat any

$_ZN3fmt2v68internal12basic_writerINS0_12buffer_rangeIcEEE10int_writerIoNS0_18basic_format_specsIcEEE6on_binEv = comdat any

$_ZN3fmt2v68internal12basic_writerINS0_12buffer_rangeIcEEE10int_writerIoNS0_18basic_format_specsIcEEE6on_octEv = comdat any

$_ZN3fmt2v68internal12basic_writerINS0_12buffer_rangeIcEEE10int_writerIoNS0_18basic_format_specsIcEEE6on_numEv = comdat any

$_ZN3fmt2v68internal12basic_writerINS0_12buffer_rangeIcEEE10int_writerIoNS0_18basic_format_specsIcEEE8on_errorEv = comdat any

$_ZN3fmt2v68internal12basic_writerINS0_12buffer_rangeIcEEE9write_intINS5_10int_writerIoNS0_18basic_format_specsIcEEE10dec_writerEEEviNS0_17basic_string_viewIcEES9_T_ = comdat any

$_ZNK3fmt2v68internal12basic_writerINS0_12buffer_rangeIcEEE10int_writerIoNS0_18basic_format_specsIcEEE10get_prefixEv = comdat any

$_ZN3fmt2v68internal12basic_writerINS0_12buffer_rangeIcEEE12write_paddedINS5_17padded_int_writerINS5_10int_writerIoNS0_18basic_format_specsIcEEE10dec_writerEEEEEvRKSA_OT_ = comdat any

$_ZNK3fmt2v68internal12basic_writerINS0_12buffer_rangeIcEEE17padded_int_writerINS5_10int_writerIoNS0_18basic_format_specsIcEEE10dec_writerEE4sizeEv = comdat any

$_ZNK3fmt2v68internal12basic_writerINS0_12buffer_rangeIcEEE17padded_int_writerINS5_10int_writerIoNS0_18basic_format_specsIcEEE10dec_writerEE5widthEv = comdat any

$_ZNK3fmt2v68internal12basic_writerINS0_12buffer_rangeIcEEE17padded_int_writerINS5_10int_writerIoNS0_18basic_format_specsIcEEE10dec_writerEEclIPcEEvOT_ = comdat any

$_ZNK3fmt2v68internal12basic_writerINS0_12buffer_rangeIcEEE17padded_int_writerINS5_10int_writerIoNS0_18basic_format_specsIcEEE10dec_writerEEclIRPcEEvOT_ = comdat any

$_ZNK3fmt2v68internal12basic_writerINS0_12buffer_rangeIcEEE10int_writerIoNS0_18basic_format_specsIcEEE10dec_writerclIRPcEEvOT_ = comdat any

$_ZN3fmt2v68internal12basic_writerINS0_12buffer_rangeIcEEE9write_intINS5_10int_writerIoNS0_18basic_format_specsIcEEE10hex_writerEEEviNS0_17basic_string_viewIcEES9_T_ = comdat any

$_ZN3fmt2v68internal12basic_writerINS0_12buffer_rangeIcEEE12write_paddedINS5_17padded_int_writerINS5_10int_writerIoNS0_18basic_format_specsIcEEE10hex_writerEEEEEvRKSA_OT_ = comdat any

$_ZNK3fmt2v68internal12basic_writerINS0_12buffer_rangeIcEEE17padded_int_writerINS5_10int_writerIoNS0_18basic_format_specsIcEEE10hex_writerEE4sizeEv = comdat any

$_ZNK3fmt2v68internal12basic_writerINS0_12buffer_rangeIcEEE17padded_int_writerINS5_10int_writerIoNS0_18basic_format_specsIcEEE10hex_writerEE5widthEv = comdat any

$_ZNK3fmt2v68internal12basic_writerINS0_12buffer_rangeIcEEE17padded_int_writerINS5_10int_writerIoNS0_18basic_format_specsIcEEE10hex_writerEEclIPcEEvOT_ = comdat any

$_ZNK3fmt2v68internal12basic_writerINS0_12buffer_rangeIcEEE17padded_int_writerINS5_10int_writerIoNS0_18basic_format_specsIcEEE10hex_writerEEclIRPcEEvOT_ = comdat any

$_ZNK3fmt2v68internal12basic_writerINS0_12buffer_rangeIcEEE10int_writerIoNS0_18basic_format_specsIcEEE10hex_writerclIRPcEEvOT_ = comdat any

$_ZN3fmt2v68internal12basic_writerINS0_12buffer_rangeIcEEE9write_intINS5_10int_writerIoNS0_18basic_format_specsIcEEE10bin_writerILi1EEEEEviNS0_17basic_string_viewIcEES9_T_ = comdat any

$_ZN3fmt2v68internal12basic_writerINS0_12buffer_rangeIcEEE12write_paddedINS5_17padded_int_writerINS5_10int_writerIoNS0_18basic_format_specsIcEEE10bin_writerILi1EEEEEEEvRKSA_OT_ = comdat any

$_ZNK3fmt2v68internal12basic_writerINS0_12buffer_rangeIcEEE17padded_int_writerINS5_10int_writerIoNS0_18basic_format_specsIcEEE10bin_writerILi1EEEE4sizeEv = comdat any

$_ZNK3fmt2v68internal12basic_writerINS0_12buffer_rangeIcEEE17padded_int_writerINS5_10int_writerIoNS0_18basic_format_specsIcEEE10bin_writerILi1EEEE5widthEv = comdat any

$_ZNK3fmt2v68internal12basic_writerINS0_12buffer_rangeIcEEE17padded_int_writerINS5_10int_writerIoNS0_18basic_format_specsIcEEE10bin_writerILi1EEEEclIPcEEvOT_ = comdat any

$_ZNK3fmt2v68internal12basic_writerINS0_12buffer_rangeIcEEE17padded_int_writerINS5_10int_writerIoNS0_18basic_format_specsIcEEE10bin_writerILi1EEEEclIRPcEEvOT_ = comdat any

$_ZNK3fmt2v68internal12basic_writerINS0_12buffer_rangeIcEEE10int_writerIoNS0_18basic_format_specsIcEEE10bin_writerILi1EEclIRPcEEvOT_ = comdat any

$_ZN3fmt2v68internal12basic_writerINS0_12buffer_rangeIcEEE9write_intINS5_10int_writerIoNS0_18basic_format_specsIcEEE10bin_writerILi3EEEEEviNS0_17basic_string_viewIcEES9_T_ = comdat any

$_ZN3fmt2v68internal12basic_writerINS0_12buffer_rangeIcEEE12write_paddedINS5_17padded_int_writerINS5_10int_writerIoNS0_18basic_format_specsIcEEE10bin_writerILi3EEEEEEEvRKSA_OT_ = comdat any

$_ZNK3fmt2v68internal12basic_writerINS0_12buffer_rangeIcEEE17padded_int_writerINS5_10int_writerIoNS0_18basic_format_specsIcEEE10bin_writerILi3EEEE4sizeEv = comdat any

$_ZNK3fmt2v68internal12basic_writerINS0_12buffer_rangeIcEEE17padded_int_writerINS5_10int_writerIoNS0_18basic_format_specsIcEEE10bin_writerILi3EEEE5widthEv = comdat any

$_ZNK3fmt2v68internal12basic_writerINS0_12buffer_rangeIcEEE17padded_int_writerINS5_10int_writerIoNS0_18basic_format_specsIcEEE10bin_writerILi3EEEEclIPcEEvOT_ = comdat any

$_ZNK3fmt2v68internal12basic_writerINS0_12buffer_rangeIcEEE17padded_int_writerINS5_10int_writerIoNS0_18basic_format_specsIcEEE10bin_writerILi3EEEEclIRPcEEvOT_ = comdat any

$_ZNK3fmt2v68internal12basic_writerINS0_12buffer_rangeIcEEE10int_writerIoNS0_18basic_format_specsIcEEE10bin_writerILi3EEclIRPcEEvOT_ = comdat any

$_ZN3fmt2v68internal12basic_writerINS0_12buffer_rangeIcEEE9write_intINS5_10int_writerIoNS0_18basic_format_specsIcEEE10num_writerEEEviNS0_17basic_string_viewIcEES9_T_ = comdat any

$_ZN3fmt2v68internal12basic_writerINS0_12buffer_rangeIcEEE12write_paddedINS5_17padded_int_writerINS5_10int_writerIoNS0_18basic_format_specsIcEEE10num_writerEEEEEvRKSA_OT_ = comdat any

$_ZNK3fmt2v68internal12basic_writerINS0_12buffer_rangeIcEEE17padded_int_writerINS5_10int_writerIoNS0_18basic_format_specsIcEEE10num_writerEE4sizeEv = comdat any

$_ZNK3fmt2v68internal12basic_writerINS0_12buffer_rangeIcEEE17padded_int_writerINS5_10int_writerIoNS0_18basic_format_specsIcEEE10num_writerEE5widthEv = comdat any

$_ZNK3fmt2v68internal12basic_writerINS0_12buffer_rangeIcEEE17padded_int_writerINS5_10int_writerIoNS0_18basic_format_specsIcEEE10num_writerEEclIPcEEvOT_ = comdat any

$_ZNK3fmt2v68internal12basic_writerINS0_12buffer_rangeIcEEE17padded_int_writerINS5_10int_writerIoNS0_18basic_format_specsIcEEE10num_writerEEclIRPcEEvOT_ = comdat any

$_ZNK3fmt2v68internal12basic_writerINS0_12buffer_rangeIcEEE10int_writerIoNS0_18basic_format_specsIcEEE10num_writerclIRPcEEvOT_ = comdat any

$_ZN3fmt2v68internal14format_decimalIcoPcZNKS1_12basic_writerINS0_12buffer_rangeIcEEE10int_writerIoNS0_18basic_format_specsIcEEE10num_writerclIRS3_EEvOT_EUlSE_E_EET1_SI_T0_iT2_ = comdat any

$_ZN3fmt2v68internal14format_decimalIocZNKS1_12basic_writerINS0_12buffer_rangeIcEEE10int_writerIoNS0_18basic_format_specsIcEEE10num_writerclIRPcEEvOT_EUlSE_E_EEPT0_SJ_SF_iT1_ = comdat any

$_ZZNK3fmt2v68internal12basic_writerINS0_12buffer_rangeIcEEE10int_writerIoNS0_18basic_format_specsIcEEE10num_writerclIRPcEEvOT_ENKUlSD_E_clESD_ = comdat any

$_ZN3fmt2v68internal11is_negativeIoTnNSt9enable_ifIXntsr3std14numeric_limitsIT_EE9is_signedEiE4typeELi0EEEbS4_ = comdat any

$_ZN3fmt2v68internal12basic_writerINS0_12buffer_rangeIcEEE13write_decimalIoEEvT_ = comdat any

$_ZN3fmt2v68internal18arg_formatter_baseINS0_12buffer_rangeIcEENS1_13error_handlerEE5writeEb = comdat any

$_ZN3fmt2v617basic_string_viewIcEC2EPKc = comdat any

$_ZN3fmt2v68internal12basic_writerINS0_12buffer_rangeIcEEE5writeIcEEvNS0_17basic_string_viewIT_EERKNS0_18basic_format_specsIcEE = comdat any

$_ZN3fmt2v68internal12basic_writerINS0_12buffer_rangeIcEEE5writeENS0_17basic_string_viewIcEE = comdat any

$_ZNSt11char_traitsIcE6lengthEPKc = comdat any

$_ZN3fmt2v68internal16code_point_indexIcEEmNS0_17basic_string_viewIT_EEm = comdat any

$_ZN3fmt2v68internal12basic_writerINS0_12buffer_rangeIcEEE5writeIcEEvPKT_mRKNS0_18basic_format_specsIcEE = comdat any

$_ZN3fmt2v68internal12basic_writerINS0_12buffer_rangeIcEEE12write_paddedINS5_10str_writerIcEEEEvRKNS0_18basic_format_specsIcEEOT_ = comdat any

$_ZNK3fmt2v68internal12basic_writerINS0_12buffer_rangeIcEEE10str_writerIcE4sizeEv = comdat any

$_ZNK3fmt2v68internal12basic_writerINS0_12buffer_rangeIcEEE10str_writerIcE5widthEv = comdat any

$_ZNK3fmt2v68internal12basic_writerINS0_12buffer_rangeIcEEE10str_writerIcEclIPcEEvOT_ = comdat any

$_ZNK3fmt2v68internal12basic_writerINS0_12buffer_rangeIcEEE10str_writerIcEclIRPcEEvOT_ = comdat any

$_ZN3fmt2v68internal17count_code_pointsIcEEmNS0_17basic_string_viewIT_EE = comdat any

$_ZN3fmt2v68internal17handle_char_specsIcNS1_18arg_formatter_baseINS0_12buffer_rangeIcEENS1_13error_handlerEE17char_spec_handlerEEEvPKNS0_18basic_format_specsIT_EEOT0_ = comdat any

$_ZN3fmt2v68internal18arg_formatter_baseINS0_12buffer_rangeIcEENS1_13error_handlerEE17char_spec_handlerC2ERS6_c = comdat any

$_ZN3fmt2v68internal18arg_formatter_baseINS0_12buffer_rangeIcEENS1_13error_handlerEE17char_spec_handler7on_charEv = comdat any

$_ZN3fmt2v68internal18arg_formatter_baseINS0_12buffer_rangeIcEENS1_13error_handlerEE17char_spec_handler6on_intEv = comdat any

$_ZN3fmt2v68internal18arg_formatter_baseINS0_12buffer_rangeIcEENS1_13error_handlerEE10write_charEc = comdat any

$_ZN3fmt2v68internal12basic_writerINS0_12buffer_rangeIcEEE12write_paddedINS1_18arg_formatter_baseIS4_NS1_13error_handlerEE11char_writerEEEvRKNS0_18basic_format_specsIcEEOT_ = comdat any

$_ZN3fmt2v68internal12basic_writerINS0_12buffer_rangeIcEEE5writeEc = comdat any

$_ZNK3fmt2v68internal18arg_formatter_baseINS0_12buffer_rangeIcEENS1_13error_handlerEE11char_writer4sizeEv = comdat any

$_ZNK3fmt2v68internal18arg_formatter_baseINS0_12buffer_rangeIcEENS1_13error_handlerEE11char_writer5widthEv = comdat any

$_ZNK3fmt2v68internal18arg_formatter_baseINS0_12buffer_rangeIcEENS1_13error_handlerEE11char_writerclIPcEEvOT_ = comdat any

$_ZNK3fmt2v68internal18arg_formatter_baseINS0_12buffer_rangeIcEENS1_13error_handlerEE11char_writerclIRPcEEvOT_ = comdat any

$_ZN3fmt2v68internal12basic_writerINS0_12buffer_rangeIcEEE9write_intIcNS0_18basic_format_specsIcEEEEvT_RKT0_ = comdat any

$_ZN3fmt2v68internal20handle_int_type_specINS1_12basic_writerINS0_12buffer_rangeIcEEE10int_writerIcNS0_18basic_format_specsIcEEEEEEvcOT_ = comdat any

$_ZN3fmt2v68internal12basic_writerINS0_12buffer_rangeIcEEE10int_writerIcNS0_18basic_format_specsIcEEEC2ERS5_cRKS8_ = comdat any

$_ZN3fmt2v68internal12basic_writerINS0_12buffer_rangeIcEEE10int_writerIcNS0_18basic_format_specsIcEEE6on_decEv = comdat any

$_ZN3fmt2v68internal12basic_writerINS0_12buffer_rangeIcEEE10int_writerIcNS0_18basic_format_specsIcEEE6on_hexEv = comdat any

$_ZN3fmt2v68internal12basic_writerINS0_12buffer_rangeIcEEE10int_writerIcNS0_18basic_format_specsIcEEE6on_binEv = comdat any

$_ZN3fmt2v68internal12basic_writerINS0_12buffer_rangeIcEEE10int_writerIcNS0_18basic_format_specsIcEEE6on_octEv = comdat any

$_ZN3fmt2v68internal12basic_writerINS0_12buffer_rangeIcEEE10int_writerIcNS0_18basic_format_specsIcEEE6on_numEv = comdat any

$_ZN3fmt2v68internal12basic_writerINS0_12buffer_rangeIcEEE10int_writerIcNS0_18basic_format_specsIcEEE8on_errorEv = comdat any

$_ZN3fmt2v68internal12basic_writerINS0_12buffer_rangeIcEEE9write_intINS5_10int_writerIcNS0_18basic_format_specsIcEEE10dec_writerEEEviNS0_17basic_string_viewIcEES9_T_ = comdat any

$_ZNK3fmt2v68internal12basic_writerINS0_12buffer_rangeIcEEE10int_writerIcNS0_18basic_format_specsIcEEE10get_prefixEv = comdat any

$_ZN3fmt2v68internal12basic_writerINS0_12buffer_rangeIcEEE12write_paddedINS5_17padded_int_writerINS5_10int_writerIcNS0_18basic_format_specsIcEEE10dec_writerEEEEEvRKSA_OT_ = comdat any

$_ZNK3fmt2v68internal12basic_writerINS0_12buffer_rangeIcEEE17padded_int_writerINS5_10int_writerIcNS0_18basic_format_specsIcEEE10dec_writerEE4sizeEv = comdat any

$_ZNK3fmt2v68internal12basic_writerINS0_12buffer_rangeIcEEE17padded_int_writerINS5_10int_writerIcNS0_18basic_format_specsIcEEE10dec_writerEE5widthEv = comdat any

$_ZNK3fmt2v68internal12basic_writerINS0_12buffer_rangeIcEEE17padded_int_writerINS5_10int_writerIcNS0_18basic_format_specsIcEEE10dec_writerEEclIPcEEvOT_ = comdat any

$_ZNK3fmt2v68internal12basic_writerINS0_12buffer_rangeIcEEE17padded_int_writerINS5_10int_writerIcNS0_18basic_format_specsIcEEE10dec_writerEEclIRPcEEvOT_ = comdat any

$_ZNK3fmt2v68internal12basic_writerINS0_12buffer_rangeIcEEE10int_writerIcNS0_18basic_format_specsIcEEE10dec_writerclIRPcEEvOT_ = comdat any

$_ZN3fmt2v68internal12basic_writerINS0_12buffer_rangeIcEEE9write_intINS5_10int_writerIcNS0_18basic_format_specsIcEEE10hex_writerEEEviNS0_17basic_string_viewIcEES9_T_ = comdat any

$_ZN3fmt2v68internal12basic_writerINS0_12buffer_rangeIcEEE12write_paddedINS5_17padded_int_writerINS5_10int_writerIcNS0_18basic_format_specsIcEEE10hex_writerEEEEEvRKSA_OT_ = comdat any

$_ZNK3fmt2v68internal12basic_writerINS0_12buffer_rangeIcEEE17padded_int_writerINS5_10int_writerIcNS0_18basic_format_specsIcEEE10hex_writerEE4sizeEv = comdat any

$_ZNK3fmt2v68internal12basic_writerINS0_12buffer_rangeIcEEE17padded_int_writerINS5_10int_writerIcNS0_18basic_format_specsIcEEE10hex_writerEE5widthEv = comdat any

$_ZNK3fmt2v68internal12basic_writerINS0_12buffer_rangeIcEEE17padded_int_writerINS5_10int_writerIcNS0_18basic_format_specsIcEEE10hex_writerEEclIPcEEvOT_ = comdat any

$_ZNK3fmt2v68internal12basic_writerINS0_12buffer_rangeIcEEE17padded_int_writerINS5_10int_writerIcNS0_18basic_format_specsIcEEE10hex_writerEEclIRPcEEvOT_ = comdat any

$_ZNK3fmt2v68internal12basic_writerINS0_12buffer_rangeIcEEE10int_writerIcNS0_18basic_format_specsIcEEE10hex_writerclIRPcEEvOT_ = comdat any

$_ZN3fmt2v68internal12basic_writerINS0_12buffer_rangeIcEEE9write_intINS5_10int_writerIcNS0_18basic_format_specsIcEEE10bin_writerILi1EEEEEviNS0_17basic_string_viewIcEES9_T_ = comdat any

$_ZN3fmt2v68internal12basic_writerINS0_12buffer_rangeIcEEE12write_paddedINS5_17padded_int_writerINS5_10int_writerIcNS0_18basic_format_specsIcEEE10bin_writerILi1EEEEEEEvRKSA_OT_ = comdat any

$_ZNK3fmt2v68internal12basic_writerINS0_12buffer_rangeIcEEE17padded_int_writerINS5_10int_writerIcNS0_18basic_format_specsIcEEE10bin_writerILi1EEEE4sizeEv = comdat any

$_ZNK3fmt2v68internal12basic_writerINS0_12buffer_rangeIcEEE17padded_int_writerINS5_10int_writerIcNS0_18basic_format_specsIcEEE10bin_writerILi1EEEE5widthEv = comdat any

$_ZNK3fmt2v68internal12basic_writerINS0_12buffer_rangeIcEEE17padded_int_writerINS5_10int_writerIcNS0_18basic_format_specsIcEEE10bin_writerILi1EEEEclIPcEEvOT_ = comdat any

$_ZNK3fmt2v68internal12basic_writerINS0_12buffer_rangeIcEEE17padded_int_writerINS5_10int_writerIcNS0_18basic_format_specsIcEEE10bin_writerILi1EEEEclIRPcEEvOT_ = comdat any

$_ZNK3fmt2v68internal12basic_writerINS0_12buffer_rangeIcEEE10int_writerIcNS0_18basic_format_specsIcEEE10bin_writerILi1EEclIRPcEEvOT_ = comdat any

$_ZN3fmt2v68internal12basic_writerINS0_12buffer_rangeIcEEE9write_intINS5_10int_writerIcNS0_18basic_format_specsIcEEE10bin_writerILi3EEEEEviNS0_17basic_string_viewIcEES9_T_ = comdat any

$_ZN3fmt2v68internal12basic_writerINS0_12buffer_rangeIcEEE12write_paddedINS5_17padded_int_writerINS5_10int_writerIcNS0_18basic_format_specsIcEEE10bin_writerILi3EEEEEEEvRKSA_OT_ = comdat any

$_ZNK3fmt2v68internal12basic_writerINS0_12buffer_rangeIcEEE17padded_int_writerINS5_10int_writerIcNS0_18basic_format_specsIcEEE10bin_writerILi3EEEE4sizeEv = comdat any

$_ZNK3fmt2v68internal12basic_writerINS0_12buffer_rangeIcEEE17padded_int_writerINS5_10int_writerIcNS0_18basic_format_specsIcEEE10bin_writerILi3EEEE5widthEv = comdat any

$_ZNK3fmt2v68internal12basic_writerINS0_12buffer_rangeIcEEE17padded_int_writerINS5_10int_writerIcNS0_18basic_format_specsIcEEE10bin_writerILi3EEEEclIPcEEvOT_ = comdat any

$_ZNK3fmt2v68internal12basic_writerINS0_12buffer_rangeIcEEE17padded_int_writerINS5_10int_writerIcNS0_18basic_format_specsIcEEE10bin_writerILi3EEEEclIRPcEEvOT_ = comdat any

$_ZNK3fmt2v68internal12basic_writerINS0_12buffer_rangeIcEEE10int_writerIcNS0_18basic_format_specsIcEEE10bin_writerILi3EEclIRPcEEvOT_ = comdat any

$_ZN3fmt2v68internal12basic_writerINS0_12buffer_rangeIcEEE9write_intINS5_10int_writerIcNS0_18basic_format_specsIcEEE10num_writerEEEviNS0_17basic_string_viewIcEES9_T_ = comdat any

$_ZN3fmt2v68internal12basic_writerINS0_12buffer_rangeIcEEE12write_paddedINS5_17padded_int_writerINS5_10int_writerIcNS0_18basic_format_specsIcEEE10num_writerEEEEEvRKSA_OT_ = comdat any

$_ZNK3fmt2v68internal12basic_writerINS0_12buffer_rangeIcEEE17padded_int_writerINS5_10int_writerIcNS0_18basic_format_specsIcEEE10num_writerEE4sizeEv = comdat any

$_ZNK3fmt2v68internal12basic_writerINS0_12buffer_rangeIcEEE17padded_int_writerINS5_10int_writerIcNS0_18basic_format_specsIcEEE10num_writerEE5widthEv = comdat any

$_ZNK3fmt2v68internal12basic_writerINS0_12buffer_rangeIcEEE17padded_int_writerINS5_10int_writerIcNS0_18basic_format_specsIcEEE10num_writerEEclIPcEEvOT_ = comdat any

$_ZNK3fmt2v68internal12basic_writerINS0_12buffer_rangeIcEEE17padded_int_writerINS5_10int_writerIcNS0_18basic_format_specsIcEEE10num_writerEEclIRPcEEvOT_ = comdat any

$_ZNK3fmt2v68internal12basic_writerINS0_12buffer_rangeIcEEE10int_writerIcNS0_18basic_format_specsIcEEE10num_writerclIRPcEEvOT_ = comdat any

$_ZN3fmt2v68internal14format_decimalIcjPcZNKS1_12basic_writerINS0_12buffer_rangeIcEEE10int_writerIcNS0_18basic_format_specsIcEEE10num_writerclIRS3_EEvOT_EUlSE_E_EET1_SI_T0_iT2_ = comdat any

$_ZN3fmt2v68internal14format_decimalIjcZNKS1_12basic_writerINS0_12buffer_rangeIcEEE10int_writerIcNS0_18basic_format_specsIcEEE10num_writerclIRPcEEvOT_EUlSE_E_EEPT0_SJ_SF_iT1_ = comdat any

$_ZZNK3fmt2v68internal12basic_writerINS0_12buffer_rangeIcEEE10int_writerIcNS0_18basic_format_specsIcEEE10num_writerclIRPcEEvOT_ENKUlSD_E_clESD_ = comdat any

$_ZN3fmt2v68internal11is_negativeIcTnNSt9enable_ifIXsr3std14numeric_limitsIT_EE9is_signedEiE4typeELi0EEEbS4_ = comdat any

$_ZN3fmt2v68internal12basic_writerINS0_12buffer_rangeIcEEE5writeIfTnNSt9enable_ifIXsr3std17is_floating_pointIT_EE5valueEiE4typeELi0EEEvS8_NS0_18basic_format_specsIcEE = comdat any

$_ZN3fmt2v618basic_format_specsIcEC2Ev = comdat any

$_ZN3fmt2v68internal21parse_float_type_specINS1_13error_handlerEcEENS1_11float_specsERKNS0_18basic_format_specsIT0_EEOT_ = comdat any

$_ZSt7signbitf = comdat any

$_ZSt8isfinitef = comdat any

$_ZSt5isinff = comdat any

$_ZN3fmt2v68internal12basic_writerINS0_12buffer_rangeIcEEE12write_paddedINS1_16nonfinite_writerIcEEEEvRKNS0_18basic_format_specsIcEEOT_ = comdat any

$_ZN3fmt2v68internal6bufferIcE9push_backERKc = comdat any

$_ZN3fmt2v68internal13promote_floatEf = comdat any

$_ZN3fmt2v68internal9max_valueIiEET_v = comdat any

$_ZN3fmt2v68internal11const_checkISt7is_sameIffEEET_S5_ = comdat any

$_ZNKSt17integral_constantIbLb1EEcvbEv = comdat any

$_ZN3fmt2v68internal9use_grisuIfEEbv = comdat any

$_ZN3fmt2v68internal11const_checkIiEET_S3_ = comdat any

$_ZN3fmt2v68internal13decimal_pointIcEET_NS1_10locale_refE = comdat any

$_ZN3fmt2v68internal12basic_writerINS0_12buffer_rangeIcEEE12write_paddedINS1_12float_writerIcEEEEvRKNS0_18basic_format_specsIcEEOT_ = comdat any

$_ZN3fmt2v68internal12float_writerIcEC2EPKciiNS1_11float_specsEc = comdat any

$_ZNK3fmt2v68internal16nonfinite_writerIcE4sizeEv = comdat any

$_ZNK3fmt2v68internal16nonfinite_writerIcE5widthEv = comdat any

$_ZNK3fmt2v68internal16nonfinite_writerIcEclIPcEEvOT_ = comdat any

$_ZNK3fmt2v68internal16nonfinite_writerIcEclIRPcEEvOT_ = comdat any

$_ZNSt14numeric_limitsIiE3maxEv = comdat any

$_ZNK3fmt2v68internal12float_writerIcE4sizeEv = comdat any

$_ZNK3fmt2v68internal12float_writerIcE5widthEv = comdat any

$_ZN3fmt2v68internal12float_writerIcEclIPcEEvOT_ = comdat any

$_ZN3fmt2v68internal12float_writerIcEclIRPcEEvOT_ = comdat any

$_ZNK3fmt2v68internal12float_writerIcE8prettifyIPcEET_S6_ = comdat any

$_ZSt6fill_nIPcicET_S1_T0_RKT1_ = comdat any

$_ZN3fmt2v68internal14write_exponentIcPcEET0_iS4_ = comdat any

$_ZSt10__fill_n_aIPcicET_S1_T0_RKT1_St26random_access_iterator_tag = comdat any

$_ZSt17__size_to_integeri = comdat any

$_ZNK3fmt2v68internal12float_writerIcE8prettifyINS1_17counting_iteratorEEET_S6_ = comdat any

$_ZN3fmt2v68internal17counting_iteratorC2Ev = comdat any

$_ZNK3fmt2v68internal17counting_iterator5countEv = comdat any

$_ZN3fmt2v68internal17counting_iteratorppEi = comdat any

$_ZNK3fmt2v68internal17counting_iteratordeEv = comdat any

$_ZN3fmt2v68internal17counting_iterator10value_typeaSIcEEvRKT_ = comdat any

$_ZN3fmt2v68internal8copy_strIcPKcNS1_17counting_iteratorETnNSt9enable_ifIXntsr16needs_conversionIT0_T_EE5valueEiE4typeELi0EEET1_S7_S7_SB_ = comdat any

$_ZSt6fill_nIN3fmt2v68internal17counting_iteratorEicET_S4_T0_RKT1_ = comdat any

$_ZN3fmt2v68internal14write_exponentIcNS1_17counting_iteratorEEET0_iS4_ = comdat any

$_ZN3fmt2v68internal17counting_iteratorppEv = comdat any

$_ZSt4copyIPKcN3fmt2v68internal17counting_iteratorEET0_T_S7_S6_ = comdat any

$_ZSt13__copy_move_aILb0EPKcN3fmt2v68internal17counting_iteratorEET1_T0_S7_S6_ = comdat any

$_ZSt12__niter_wrapIN3fmt2v68internal17counting_iteratorEET_RKS4_S4_ = comdat any

$_ZSt14__copy_move_a1ILb0EPKcN3fmt2v68internal17counting_iteratorEET1_T0_S7_S6_ = comdat any

$_ZSt12__niter_baseIN3fmt2v68internal17counting_iteratorEET_S4_ = comdat any

$_ZSt14__copy_move_a2ILb0EPKcN3fmt2v68internal17counting_iteratorEET1_T0_S7_S6_ = comdat any

$_ZNSt11__copy_moveILb0ELb0ESt26random_access_iterator_tagE8__copy_mIPKcN3fmt2v68internal17counting_iteratorEEET0_T_SA_S9_ = comdat any

$_ZSt10__fill_n_aIN3fmt2v68internal17counting_iteratorEicET_S4_T0_RKT1_St19output_iterator_tag = comdat any

$_ZSt19__iterator_categoryIN3fmt2v68internal17counting_iteratorEENSt15iterator_traitsIT_E17iterator_categoryERKS5_ = comdat any

$_ZSt11__fill_n_a1IN3fmt2v68internal17counting_iteratorEicEN9__gnu_cxx11__enable_ifIXsr11__is_scalarIT1_EE7__valueET_E6__typeES7_T0_RKS6_ = comdat any

$_ZN3fmt2v68internal6fill_tIcE4makeEv = comdat any

$_ZN3fmt2v68internal12basic_writerINS0_12buffer_rangeIcEEE5writeIdTnNSt9enable_ifIXsr3std17is_floating_pointIT_EE5valueEiE4typeELi0EEEvS8_NS0_18basic_format_specsIcEE = comdat any

$_ZSt7signbitd = comdat any

$_ZSt8isfinited = comdat any

$_ZSt5isinfd = comdat any

$_ZN3fmt2v68internal13promote_floatIdEET_S3_ = comdat any

$_ZN3fmt2v68internal11const_checkISt7is_sameIdfEEET_S5_ = comdat any

$_ZNKSt17integral_constantIbLb0EEcvbEv = comdat any

$_ZN3fmt2v68internal9use_grisuIdEEbv = comdat any

$_ZN3fmt2v68internal12basic_writerINS0_12buffer_rangeIcEEE5writeIeTnNSt9enable_ifIXsr3std17is_floating_pointIT_EE5valueEiE4typeELi0EEEvS8_NS0_18basic_format_specsIcEE = comdat any

$_ZSt7signbite = comdat any

$_ZSt8isfinitee = comdat any

$_ZSt5isinfe = comdat any

$_ZN3fmt2v68internal13promote_floatIeEET_S3_ = comdat any

$_ZN3fmt2v68internal11const_checkISt7is_sameIefEEET_S5_ = comdat any

$_ZN3fmt2v68internal9use_grisuIeEEbv = comdat any

$_ZN3fmt2v68internal18arg_formatter_baseINS0_12buffer_rangeIcEENS1_13error_handlerEE5writeEPKc = comdat any

$_ZN3fmt2v68internal24handle_cstring_type_specIcNS1_18arg_formatter_baseINS0_12buffer_rangeIcEENS1_13error_handlerEE20cstring_spec_handlerEEEvT_OT0_ = comdat any

$_ZN3fmt2v68internal18arg_formatter_baseINS0_12buffer_rangeIcEENS1_13error_handlerEE20cstring_spec_handlerC2ERS6_PKc = comdat any

$_ZN3fmt2v68internal18arg_formatter_baseINS0_12buffer_rangeIcEENS1_13error_handlerEE20cstring_spec_handler9on_stringEv = comdat any

$_ZN3fmt2v68internal18arg_formatter_baseINS0_12buffer_rangeIcEENS1_13error_handlerEE20cstring_spec_handler10on_pointerEv = comdat any

$_ZN3fmt2v68internal18arg_formatter_baseINS0_12buffer_rangeIcEENS1_13error_handlerEE13write_pointerEPKv = comdat any

$_ZN3fmt2v68internal12basic_writerINS0_12buffer_rangeIcEEE13write_pointerImEEvT_PKNS0_18basic_format_specsIcEE = comdat any

$_ZN3fmt2v68internal10to_uintptrEPKv = comdat any

$_ZNK3fmt2v68internal12basic_writerINS0_12buffer_rangeIcEEE14pointer_writerImEclIPcEEvOT_ = comdat any

$_ZN3fmt2v68internal12basic_writerINS0_12buffer_rangeIcEEE12write_paddedIRNS5_14pointer_writerImEEEEvRKNS0_18basic_format_specsIcEEOT_ = comdat any

$_ZNK3fmt2v68internal12basic_writerINS0_12buffer_rangeIcEEE14pointer_writerImE4sizeEv = comdat any

$_ZNK3fmt2v68internal12basic_writerINS0_12buffer_rangeIcEEE14pointer_writerImE5widthEv = comdat any

$_ZNK3fmt2v68internal12basic_writerINS0_12buffer_rangeIcEEE14pointer_writerImEclIRPcEEvOT_ = comdat any

$_ZN3fmt2v68internal8bit_castImPKvEET_RKT0_ = comdat any

$_ZN3fmt2v68internal22check_string_type_specIcNS1_13error_handlerEEEvT_OT0_ = comdat any

$_ZN3fmt2v68internal23check_pointer_type_specIcNS1_13error_handlerEEEvT_OT0_ = comdat any

$_ZNK3fmt2v616basic_format_argINS0_20basic_format_contextISt20back_insert_iteratorINS0_8internal6bufferIcEEEcEEE6handle6formatERNS0_26basic_format_parse_contextIcNS4_13error_handlerEEERS8_ = comdat any

$_ZN3fmt2v612buffer_rangeIcECI2NS0_8internal12output_rangeISt20back_insert_iteratorINS3_6bufferIcEEEcEEES8_ = comdat any

$_ZN3fmt2v620basic_format_contextISt20back_insert_iteratorINS0_8internal6bufferIcEEEcE6localeEv = comdat any

$_ZN3fmt2v68internal18arg_formatter_baseINS0_12buffer_rangeIcEENS1_13error_handlerEEC2ES4_PNS0_18basic_format_specsIcEENS1_10locale_refE = comdat any

$_ZN3fmt2v68internal12output_rangeISt20back_insert_iteratorINS1_6bufferIcEEEcEC2ES6_ = comdat any

$_ZN3fmt2v68internal12basic_writerINS0_12buffer_rangeIcEEEC2ES4_NS1_10locale_refE = comdat any

$_ZSt6copy_nIPKcmPcET1_T_T0_S3_ = comdat any

$_ZSt8__copy_nIPKcmPcET1_T_T0_S3_St26random_access_iterator_tag = comdat any

$_ZN3fmt2v68internal10id_adapterIRNS0_14format_handlerINS0_13arg_formatterINS0_12buffer_rangeIcEEEEcNS0_20basic_format_contextISt20back_insert_iteratorINS1_6bufferIcEEEcEEEEcEclEv = comdat any

$_ZN3fmt2v68internal21parse_nonnegative_intIcRNS1_10id_adapterIRNS0_14format_handlerINS0_13arg_formatterINS0_12buffer_rangeIcEEEEcNS0_20basic_format_contextISt20back_insert_iteratorINS1_6bufferIcEEEcEEEEcEEEEiRPKT_SL_OT0_ = comdat any

$_ZN3fmt2v68internal10id_adapterIRNS0_14format_handlerINS0_13arg_formatterINS0_12buffer_rangeIcEEEEcNS0_20basic_format_contextISt20back_insert_iteratorINS1_6bufferIcEEEcEEEEcE8on_errorEPKc = comdat any

$_ZN3fmt2v68internal10id_adapterIRNS0_14format_handlerINS0_13arg_formatterINS0_12buffer_rangeIcEEEEcNS0_20basic_format_contextISt20back_insert_iteratorINS1_6bufferIcEEEcEEEEcEclEi = comdat any

$_ZN3fmt2v68internal13is_name_startIcEEbT_ = comdat any

$_ZN3fmt2v68internal10id_adapterIRNS0_14format_handlerINS0_13arg_formatterINS0_12buffer_rangeIcEEEEcNS0_20basic_format_contextISt20back_insert_iteratorINS1_6bufferIcEEEcEEEEcEclENS0_17basic_string_viewIcEE = comdat any

$_ZN3fmt2v614format_handlerINS0_13arg_formatterINS0_12buffer_rangeIcEEEEcNS0_20basic_format_contextISt20back_insert_iteratorINS0_8internal6bufferIcEEEcEEE9on_arg_idEi = comdat any

$_ZN3fmt2v626basic_format_parse_contextIcNS0_8internal13error_handlerEE12check_arg_idEi = comdat any

$_ZN3fmt2v614format_handlerINS0_13arg_formatterINS0_12buffer_rangeIcEEEEcNS0_20basic_format_contextISt20back_insert_iteratorINS0_8internal6bufferIcEEEcEEE9on_arg_idENS0_17basic_string_viewIcEE = comdat any

$_ZN3fmt2v620basic_format_contextISt20back_insert_iteratorINS0_8internal6bufferIcEEEcE3argENS0_17basic_string_viewIcEE = comdat any

$_ZN3fmt2v68internal7arg_mapINS0_20basic_format_contextISt20back_insert_iteratorINS1_6bufferIcEEEcEEE4initERKNS0_17basic_format_argsIS8_EE = comdat any

$_ZNK3fmt2v68internal7arg_mapINS0_20basic_format_contextISt20back_insert_iteratorINS1_6bufferIcEEEcEEE4findENS0_17basic_string_viewIcEE = comdat any

$_ZNK3fmt2v616basic_format_argINS0_20basic_format_contextISt20back_insert_iteratorINS0_8internal6bufferIcEEEcEEE4typeEv = comdat any

$_ZN3fmt2v68internal7arg_mapINS0_20basic_format_contextISt20back_insert_iteratorINS1_6bufferIcEEEcEEE5entryC2Ev = comdat any

$_ZN3fmt2v68internal7arg_mapINS0_20basic_format_contextISt20back_insert_iteratorINS1_6bufferIcEEEcEEE9push_backENS1_5valueIS8_EE = comdat any

$_ZN3fmt2v617basic_string_viewIcEC2Ev = comdat any

$_ZN3fmt2v6eqENS0_17basic_string_viewIcEES2_ = comdat any

$_ZNK3fmt2v617basic_string_viewIcE7compareES2_ = comdat any

$_ZN3fmt2v68internal16custom_formatterINS0_20basic_format_contextISt20back_insert_iteratorINS1_6bufferIcEEEcEEEC2ERNS0_26basic_format_parse_contextIcNS1_13error_handlerEEERS8_ = comdat any

$_ZN3fmt2v616visit_format_argIRNS0_8internal16custom_formatterINS0_20basic_format_contextISt20back_insert_iteratorINS2_6bufferIcEEEcEEEES9_EEDTclfp_Li0EEEOT_RKNS0_16basic_format_argIT0_EE = comdat any

$_ZN3fmt2v68internal13specs_handlerINS0_26basic_format_parse_contextIcNS1_13error_handlerEEENS0_20basic_format_contextISt20back_insert_iteratorINS1_6bufferIcEEEcEEEC2ERNS0_18basic_format_specsIcEERS5_RSB_ = comdat any

$_ZN3fmt2v68internal13specs_checkerINS1_13specs_handlerINS0_26basic_format_parse_contextIcNS1_13error_handlerEEENS0_20basic_format_contextISt20back_insert_iteratorINS1_6bufferIcEEEcEEEEEC2ERKSD_NS1_4typeE = comdat any

$_ZN3fmt2v68internal18parse_format_specsIcRNS1_13specs_checkerINS1_13specs_handlerINS0_26basic_format_parse_contextIcNS1_13error_handlerEEENS0_20basic_format_contextISt20back_insert_iteratorINS1_6bufferIcEEEcEEEEEEEEPKT_SJ_SJ_OT0_ = comdat any

$_ZNK3fmt2v68internal16custom_formatterINS0_20basic_format_contextISt20back_insert_iteratorINS1_6bufferIcEEEcEEEclIiEEbT_ = comdat any

$_ZNK3fmt2v68internal16custom_formatterINS0_20basic_format_contextISt20back_insert_iteratorINS1_6bufferIcEEEcEEEclIjEEbT_ = comdat any

$_ZNK3fmt2v68internal16custom_formatterINS0_20basic_format_contextISt20back_insert_iteratorINS1_6bufferIcEEEcEEEclIxEEbT_ = comdat any

$_ZNK3fmt2v68internal16custom_formatterINS0_20basic_format_contextISt20back_insert_iteratorINS1_6bufferIcEEEcEEEclIyEEbT_ = comdat any

$_ZNK3fmt2v68internal16custom_formatterINS0_20basic_format_contextISt20back_insert_iteratorINS1_6bufferIcEEEcEEEclInEEbT_ = comdat any

$_ZNK3fmt2v68internal16custom_formatterINS0_20basic_format_contextISt20back_insert_iteratorINS1_6bufferIcEEEcEEEclIoEEbT_ = comdat any

$_ZNK3fmt2v68internal16custom_formatterINS0_20basic_format_contextISt20back_insert_iteratorINS1_6bufferIcEEEcEEEclIbEEbT_ = comdat any

$_ZNK3fmt2v68internal16custom_formatterINS0_20basic_format_contextISt20back_insert_iteratorINS1_6bufferIcEEEcEEEclIcEEbT_ = comdat any

$_ZNK3fmt2v68internal16custom_formatterINS0_20basic_format_contextISt20back_insert_iteratorINS1_6bufferIcEEEcEEEclIfEEbT_ = comdat any

$_ZNK3fmt2v68internal16custom_formatterINS0_20basic_format_contextISt20back_insert_iteratorINS1_6bufferIcEEEcEEEclIdEEbT_ = comdat any

$_ZNK3fmt2v68internal16custom_formatterINS0_20basic_format_contextISt20back_insert_iteratorINS1_6bufferIcEEEcEEEclIeEEbT_ = comdat any

$_ZNK3fmt2v68internal16custom_formatterINS0_20basic_format_contextISt20back_insert_iteratorINS1_6bufferIcEEEcEEEclIPKcEEbT_ = comdat any

$_ZNK3fmt2v68internal16custom_formatterINS0_20basic_format_contextISt20back_insert_iteratorINS1_6bufferIcEEEcEEEclINS0_17basic_string_viewIcEEEEbT_ = comdat any

$_ZNK3fmt2v68internal16custom_formatterINS0_20basic_format_contextISt20back_insert_iteratorINS1_6bufferIcEEEcEEEclIPKvEEbT_ = comdat any

$_ZNK3fmt2v68internal16custom_formatterINS0_20basic_format_contextISt20back_insert_iteratorINS1_6bufferIcEEEcEEEclENS0_16basic_format_argIS8_E6handleE = comdat any

$_ZNK3fmt2v68internal16custom_formatterINS0_20basic_format_contextISt20back_insert_iteratorINS1_6bufferIcEEEcEEEclINS0_9monostateEEEbT_ = comdat any

$_ZN3fmt2v68internal12specs_setterIcEC2ERNS0_18basic_format_specsIcEE = comdat any

$_ZN3fmt2v68internal13specs_handlerINS0_26basic_format_parse_contextIcNS1_13error_handlerEEENS0_20basic_format_contextISt20back_insert_iteratorINS1_6bufferIcEEEcEEEC2ERKSC_ = comdat any

$_ZN3fmt2v68internal21numeric_specs_checkerINS1_13specs_handlerINS0_26basic_format_parse_contextIcNS1_13error_handlerEEENS0_20basic_format_contextISt20back_insert_iteratorINS1_6bufferIcEEEcEEEEEC2ERSD_NS1_4typeE = comdat any

$_ZN3fmt2v68internal12specs_setterIcEC2ERKS3_ = comdat any

$_ZN3fmt2v68internal11parse_alignIcRNS1_13specs_checkerINS1_13specs_handlerINS0_26basic_format_parse_contextIcNS1_13error_handlerEEENS0_20basic_format_contextISt20back_insert_iteratorINS1_6bufferIcEEEcEEEEEEEEPKT_SJ_SJ_OT0_ = comdat any

$_ZN3fmt2v68internal13specs_checkerINS1_13specs_handlerINS0_26basic_format_parse_contextIcNS1_13error_handlerEEENS0_20basic_format_contextISt20back_insert_iteratorINS1_6bufferIcEEEcEEEEE7on_plusEv = comdat any

$_ZN3fmt2v68internal13specs_checkerINS1_13specs_handlerINS0_26basic_format_parse_contextIcNS1_13error_handlerEEENS0_20basic_format_contextISt20back_insert_iteratorINS1_6bufferIcEEEcEEEEE8on_minusEv = comdat any

$_ZN3fmt2v68internal13specs_checkerINS1_13specs_handlerINS0_26basic_format_parse_contextIcNS1_13error_handlerEEENS0_20basic_format_contextISt20back_insert_iteratorINS1_6bufferIcEEEcEEEEE8on_spaceEv = comdat any

$_ZN3fmt2v68internal13specs_checkerINS1_13specs_handlerINS0_26basic_format_parse_contextIcNS1_13error_handlerEEENS0_20basic_format_contextISt20back_insert_iteratorINS1_6bufferIcEEEcEEEEE7on_hashEv = comdat any

$_ZN3fmt2v68internal13specs_checkerINS1_13specs_handlerINS0_26basic_format_parse_contextIcNS1_13error_handlerEEENS0_20basic_format_contextISt20back_insert_iteratorINS1_6bufferIcEEEcEEEEE7on_zeroEv = comdat any

$_ZN3fmt2v68internal11parse_widthIcRNS1_13specs_checkerINS1_13specs_handlerINS0_26basic_format_parse_contextIcNS1_13error_handlerEEENS0_20basic_format_contextISt20back_insert_iteratorINS1_6bufferIcEEEcEEEEEEEEPKT_SJ_SJ_OT0_ = comdat any

$_ZN3fmt2v68internal15parse_precisionIcRNS1_13specs_checkerINS1_13specs_handlerINS0_26basic_format_parse_contextIcNS1_13error_handlerEEENS0_20basic_format_contextISt20back_insert_iteratorINS1_6bufferIcEEEcEEEEEEEEPKT_SJ_SJ_OT0_ = comdat any

$_ZN3fmt2v68internal12specs_setterIcE7on_typeEc = comdat any

$_ZN3fmt2v68internal13specs_handlerINS0_26basic_format_parse_contextIcNS1_13error_handlerEEENS0_20basic_format_contextISt20back_insert_iteratorINS1_6bufferIcEEEcEEE8on_errorEPKc = comdat any

$_ZN3fmt2v68internal12specs_setterIcE7on_fillEc = comdat any

$_ZN3fmt2v68internal13specs_checkerINS1_13specs_handlerINS0_26basic_format_parse_contextIcNS1_13error_handlerEEENS0_20basic_format_contextISt20back_insert_iteratorINS1_6bufferIcEEEcEEEEE8on_alignENS0_5align4typeE = comdat any

$_ZN3fmt2v68internal21numeric_specs_checkerINS1_13specs_handlerINS0_26basic_format_parse_contextIcNS1_13error_handlerEEENS0_20basic_format_contextISt20back_insert_iteratorINS1_6bufferIcEEEcEEEEE24require_numeric_argumentEv = comdat any

$_ZN3fmt2v68internal12specs_setterIcE8on_alignENS0_5align4typeE = comdat any

$_ZN3fmt2v68internal18is_arithmetic_typeENS1_4typeE = comdat any

$_ZN3fmt2v68internal21numeric_specs_checkerINS1_13specs_handlerINS0_26basic_format_parse_contextIcNS1_13error_handlerEEENS0_20basic_format_contextISt20back_insert_iteratorINS1_6bufferIcEEEcEEEEE10check_signEv = comdat any

$_ZN3fmt2v68internal12specs_setterIcE7on_plusEv = comdat any

$_ZN3fmt2v68internal16is_integral_typeENS1_4typeE = comdat any

$_ZN3fmt2v68internal12specs_setterIcE8on_minusEv = comdat any

$_ZN3fmt2v68internal12specs_setterIcE8on_spaceEv = comdat any

$_ZN3fmt2v68internal12specs_setterIcE7on_hashEv = comdat any

$_ZN3fmt2v68internal12specs_setterIcE7on_zeroEv = comdat any

$_ZN3fmt2v68internal12specs_setterIcE8on_widthEi = comdat any

$_ZN3fmt2v68internal21parse_nonnegative_intIcRNS1_13specs_checkerINS1_13specs_handlerINS0_26basic_format_parse_contextIcNS1_13error_handlerEEENS0_20basic_format_contextISt20back_insert_iteratorINS1_6bufferIcEEEcEEEEEEEEiRPKT_SJ_OT0_ = comdat any

$_ZN3fmt2v68internal12parse_arg_idIcNS1_13width_adapterIRNS1_13specs_checkerINS1_13specs_handlerINS0_26basic_format_parse_contextIcNS1_13error_handlerEEENS0_20basic_format_contextISt20back_insert_iteratorINS1_6bufferIcEEEcEEEEEEcEEEEPKT_SL_SL_OT0_ = comdat any

$_ZN3fmt2v68internal13width_adapterIRNS1_13specs_checkerINS1_13specs_handlerINS0_26basic_format_parse_contextIcNS1_13error_handlerEEENS0_20basic_format_contextISt20back_insert_iteratorINS1_6bufferIcEEEcEEEEEEcEC2ESG_ = comdat any

$_ZN3fmt2v68internal13width_adapterIRNS1_13specs_checkerINS1_13specs_handlerINS0_26basic_format_parse_contextIcNS1_13error_handlerEEENS0_20basic_format_contextISt20back_insert_iteratorINS1_6bufferIcEEEcEEEEEEcEclEv = comdat any

$_ZN3fmt2v68internal21parse_nonnegative_intIcRNS1_13width_adapterIRNS1_13specs_checkerINS1_13specs_handlerINS0_26basic_format_parse_contextIcNS1_13error_handlerEEENS0_20basic_format_contextISt20back_insert_iteratorINS1_6bufferIcEEEcEEEEEEcEEEEiRPKT_SM_OT0_ = comdat any

$_ZN3fmt2v68internal13width_adapterIRNS1_13specs_checkerINS1_13specs_handlerINS0_26basic_format_parse_contextIcNS1_13error_handlerEEENS0_20basic_format_contextISt20back_insert_iteratorINS1_6bufferIcEEEcEEEEEEcE8on_errorEPKc = comdat any

$_ZN3fmt2v68internal13width_adapterIRNS1_13specs_checkerINS1_13specs_handlerINS0_26basic_format_parse_contextIcNS1_13error_handlerEEENS0_20basic_format_contextISt20back_insert_iteratorINS1_6bufferIcEEEcEEEEEEcEclEi = comdat any

$_ZN3fmt2v68internal13width_adapterIRNS1_13specs_checkerINS1_13specs_handlerINS0_26basic_format_parse_contextIcNS1_13error_handlerEEENS0_20basic_format_contextISt20back_insert_iteratorINS1_6bufferIcEEEcEEEEEEcEclENS0_17basic_string_viewIcEE = comdat any

$_ZN3fmt2v68internal13specs_handlerINS0_26basic_format_parse_contextIcNS1_13error_handlerEEENS0_20basic_format_contextISt20back_insert_iteratorINS1_6bufferIcEEEcEEE16on_dynamic_widthINS1_7auto_idEEEvT_ = comdat any

$_ZN3fmt2v68internal16get_dynamic_specINS1_13width_checkerENS0_16basic_format_argINS0_20basic_format_contextISt20back_insert_iteratorINS1_6bufferIcEEEcEEEENS1_13error_handlerEEEiT0_T1_ = comdat any

$_ZN3fmt2v68internal13specs_handlerINS0_26basic_format_parse_contextIcNS1_13error_handlerEEENS0_20basic_format_contextISt20back_insert_iteratorINS1_6bufferIcEEEcEEE7get_argENS1_7auto_idE = comdat any

$_ZN3fmt2v616visit_format_argINS0_8internal13width_checkerINS2_13error_handlerEEENS0_20basic_format_contextISt20back_insert_iteratorINS2_6bufferIcEEEcEEEEDTclfp_Li0EEEOT_RKNS0_16basic_format_argIT0_EE = comdat any

$_ZN3fmt2v68internal13width_checkerINS1_13error_handlerEEC2ERS3_ = comdat any

$_ZN3fmt2v68internal13width_checkerINS1_13error_handlerEEclIiTnNSt9enable_ifIXsr10is_integerIT_EE5valueEiE4typeELi0EEEyS7_ = comdat any

$_ZN3fmt2v68internal13width_checkerINS1_13error_handlerEEclIjTnNSt9enable_ifIXsr10is_integerIT_EE5valueEiE4typeELi0EEEyS7_ = comdat any

$_ZN3fmt2v68internal13width_checkerINS1_13error_handlerEEclIxTnNSt9enable_ifIXsr10is_integerIT_EE5valueEiE4typeELi0EEEyS7_ = comdat any

$_ZN3fmt2v68internal13width_checkerINS1_13error_handlerEEclIyTnNSt9enable_ifIXsr10is_integerIT_EE5valueEiE4typeELi0EEEyS7_ = comdat any

$_ZN3fmt2v68internal13width_checkerINS1_13error_handlerEEclInTnNSt9enable_ifIXsr10is_integerIT_EE5valueEiE4typeELi0EEEyS7_ = comdat any

$_ZN3fmt2v68internal13width_checkerINS1_13error_handlerEEclIoTnNSt9enable_ifIXsr10is_integerIT_EE5valueEiE4typeELi0EEEyS7_ = comdat any

$_ZN3fmt2v68internal13width_checkerINS1_13error_handlerEEclIbTnNSt9enable_ifIXntsr10is_integerIT_EE5valueEiE4typeELi0EEEyS7_ = comdat any

$_ZN3fmt2v68internal13width_checkerINS1_13error_handlerEEclIcTnNSt9enable_ifIXntsr10is_integerIT_EE5valueEiE4typeELi0EEEyS7_ = comdat any

$_ZN3fmt2v68internal13width_checkerINS1_13error_handlerEEclIfTnNSt9enable_ifIXntsr10is_integerIT_EE5valueEiE4typeELi0EEEyS7_ = comdat any

$_ZN3fmt2v68internal13width_checkerINS1_13error_handlerEEclIdTnNSt9enable_ifIXntsr10is_integerIT_EE5valueEiE4typeELi0EEEyS7_ = comdat any

$_ZN3fmt2v68internal13width_checkerINS1_13error_handlerEEclIeTnNSt9enable_ifIXntsr10is_integerIT_EE5valueEiE4typeELi0EEEyS7_ = comdat any

$_ZN3fmt2v68internal13width_checkerINS1_13error_handlerEEclIPKcTnNSt9enable_ifIXntsr10is_integerIT_EE5valueEiE4typeELi0EEEyS9_ = comdat any

$_ZN3fmt2v68internal13width_checkerINS1_13error_handlerEEclINS0_17basic_string_viewIcEETnNSt9enable_ifIXntsr10is_integerIT_EE5valueEiE4typeELi0EEEyS9_ = comdat any

$_ZN3fmt2v68internal13width_checkerINS1_13error_handlerEEclIPKvTnNSt9enable_ifIXntsr10is_integerIT_EE5valueEiE4typeELi0EEEyS9_ = comdat any

$_ZN3fmt2v68internal13width_checkerINS1_13error_handlerEEclINS0_16basic_format_argINS0_20basic_format_contextISt20back_insert_iteratorINS1_6bufferIcEEEcEEE6handleETnNSt9enable_ifIXntsr10is_integerIT_EE5valueEiE4typeELi0EEEySG_ = comdat any

$_ZN3fmt2v68internal13width_checkerINS1_13error_handlerEEclINS0_9monostateETnNSt9enable_ifIXntsr10is_integerIT_EE5valueEiE4typeELi0EEEyS8_ = comdat any

$_ZN3fmt2v68internal13specs_handlerINS0_26basic_format_parse_contextIcNS1_13error_handlerEEENS0_20basic_format_contextISt20back_insert_iteratorINS1_6bufferIcEEEcEEE16on_dynamic_widthIiEEvT_ = comdat any

$_ZN3fmt2v68internal13specs_handlerINS0_26basic_format_parse_contextIcNS1_13error_handlerEEENS0_20basic_format_contextISt20back_insert_iteratorINS1_6bufferIcEEEcEEE7get_argEi = comdat any

$_ZN3fmt2v68internal13specs_handlerINS0_26basic_format_parse_contextIcNS1_13error_handlerEEENS0_20basic_format_contextISt20back_insert_iteratorINS1_6bufferIcEEEcEEE16on_dynamic_widthINS0_17basic_string_viewIcEEEEvT_ = comdat any

$_ZN3fmt2v68internal13specs_handlerINS0_26basic_format_parse_contextIcNS1_13error_handlerEEENS0_20basic_format_contextISt20back_insert_iteratorINS1_6bufferIcEEEcEEE7get_argENS0_17basic_string_viewIcEE = comdat any

$_ZN3fmt2v626basic_format_parse_contextIcNS0_8internal13error_handlerEE12check_arg_idENS0_17basic_string_viewIcEE = comdat any

$_ZN3fmt2v68internal12specs_setterIcE12on_precisionEi = comdat any

$_ZN3fmt2v68internal12parse_arg_idIcNS1_17precision_adapterIRNS1_13specs_checkerINS1_13specs_handlerINS0_26basic_format_parse_contextIcNS1_13error_handlerEEENS0_20basic_format_contextISt20back_insert_iteratorINS1_6bufferIcEEEcEEEEEEcEEEEPKT_SL_SL_OT0_ = comdat any

$_ZN3fmt2v68internal17precision_adapterIRNS1_13specs_checkerINS1_13specs_handlerINS0_26basic_format_parse_contextIcNS1_13error_handlerEEENS0_20basic_format_contextISt20back_insert_iteratorINS1_6bufferIcEEEcEEEEEEcEC2ESG_ = comdat any

$_ZN3fmt2v68internal13specs_checkerINS1_13specs_handlerINS0_26basic_format_parse_contextIcNS1_13error_handlerEEENS0_20basic_format_contextISt20back_insert_iteratorINS1_6bufferIcEEEcEEEEE13end_precisionEv = comdat any

$_ZN3fmt2v68internal17precision_adapterIRNS1_13specs_checkerINS1_13specs_handlerINS0_26basic_format_parse_contextIcNS1_13error_handlerEEENS0_20basic_format_contextISt20back_insert_iteratorINS1_6bufferIcEEEcEEEEEEcEclEv = comdat any

$_ZN3fmt2v68internal21parse_nonnegative_intIcRNS1_17precision_adapterIRNS1_13specs_checkerINS1_13specs_handlerINS0_26basic_format_parse_contextIcNS1_13error_handlerEEENS0_20basic_format_contextISt20back_insert_iteratorINS1_6bufferIcEEEcEEEEEEcEEEEiRPKT_SM_OT0_ = comdat any

$_ZN3fmt2v68internal17precision_adapterIRNS1_13specs_checkerINS1_13specs_handlerINS0_26basic_format_parse_contextIcNS1_13error_handlerEEENS0_20basic_format_contextISt20back_insert_iteratorINS1_6bufferIcEEEcEEEEEEcE8on_errorEPKc = comdat any

$_ZN3fmt2v68internal17precision_adapterIRNS1_13specs_checkerINS1_13specs_handlerINS0_26basic_format_parse_contextIcNS1_13error_handlerEEENS0_20basic_format_contextISt20back_insert_iteratorINS1_6bufferIcEEEcEEEEEEcEclEi = comdat any

$_ZN3fmt2v68internal17precision_adapterIRNS1_13specs_checkerINS1_13specs_handlerINS0_26basic_format_parse_contextIcNS1_13error_handlerEEENS0_20basic_format_contextISt20back_insert_iteratorINS1_6bufferIcEEEcEEEEEEcEclENS0_17basic_string_viewIcEE = comdat any

$_ZN3fmt2v68internal13specs_handlerINS0_26basic_format_parse_contextIcNS1_13error_handlerEEENS0_20basic_format_contextISt20back_insert_iteratorINS1_6bufferIcEEEcEEE20on_dynamic_precisionINS1_7auto_idEEEvT_ = comdat any

$_ZN3fmt2v68internal16get_dynamic_specINS1_17precision_checkerENS0_16basic_format_argINS0_20basic_format_contextISt20back_insert_iteratorINS1_6bufferIcEEEcEEEENS1_13error_handlerEEEiT0_T1_ = comdat any

$_ZN3fmt2v616visit_format_argINS0_8internal17precision_checkerINS2_13error_handlerEEENS0_20basic_format_contextISt20back_insert_iteratorINS2_6bufferIcEEEcEEEEDTclfp_Li0EEEOT_RKNS0_16basic_format_argIT0_EE = comdat any

$_ZN3fmt2v68internal17precision_checkerINS1_13error_handlerEEC2ERS3_ = comdat any

$_ZN3fmt2v68internal17precision_checkerINS1_13error_handlerEEclIiTnNSt9enable_ifIXsr10is_integerIT_EE5valueEiE4typeELi0EEEyS7_ = comdat any

$_ZN3fmt2v68internal17precision_checkerINS1_13error_handlerEEclIjTnNSt9enable_ifIXsr10is_integerIT_EE5valueEiE4typeELi0EEEyS7_ = comdat any

$_ZN3fmt2v68internal17precision_checkerINS1_13error_handlerEEclIxTnNSt9enable_ifIXsr10is_integerIT_EE5valueEiE4typeELi0EEEyS7_ = comdat any

$_ZN3fmt2v68internal17precision_checkerINS1_13error_handlerEEclIyTnNSt9enable_ifIXsr10is_integerIT_EE5valueEiE4typeELi0EEEyS7_ = comdat any

$_ZN3fmt2v68internal17precision_checkerINS1_13error_handlerEEclInTnNSt9enable_ifIXsr10is_integerIT_EE5valueEiE4typeELi0EEEyS7_ = comdat any

$_ZN3fmt2v68internal17precision_checkerINS1_13error_handlerEEclIoTnNSt9enable_ifIXsr10is_integerIT_EE5valueEiE4typeELi0EEEyS7_ = comdat any

$_ZN3fmt2v68internal17precision_checkerINS1_13error_handlerEEclIbTnNSt9enable_ifIXntsr10is_integerIT_EE5valueEiE4typeELi0EEEyS7_ = comdat any

$_ZN3fmt2v68internal17precision_checkerINS1_13error_handlerEEclIcTnNSt9enable_ifIXntsr10is_integerIT_EE5valueEiE4typeELi0EEEyS7_ = comdat any

$_ZN3fmt2v68internal17precision_checkerINS1_13error_handlerEEclIfTnNSt9enable_ifIXntsr10is_integerIT_EE5valueEiE4typeELi0EEEyS7_ = comdat any

$_ZN3fmt2v68internal17precision_checkerINS1_13error_handlerEEclIdTnNSt9enable_ifIXntsr10is_integerIT_EE5valueEiE4typeELi0EEEyS7_ = comdat any

$_ZN3fmt2v68internal17precision_checkerINS1_13error_handlerEEclIeTnNSt9enable_ifIXntsr10is_integerIT_EE5valueEiE4typeELi0EEEyS7_ = comdat any

$_ZN3fmt2v68internal17precision_checkerINS1_13error_handlerEEclIPKcTnNSt9enable_ifIXntsr10is_integerIT_EE5valueEiE4typeELi0EEEyS9_ = comdat any

$_ZN3fmt2v68internal17precision_checkerINS1_13error_handlerEEclINS0_17basic_string_viewIcEETnNSt9enable_ifIXntsr10is_integerIT_EE5valueEiE4typeELi0EEEyS9_ = comdat any

$_ZN3fmt2v68internal17precision_checkerINS1_13error_handlerEEclIPKvTnNSt9enable_ifIXntsr10is_integerIT_EE5valueEiE4typeELi0EEEyS9_ = comdat any

$_ZN3fmt2v68internal17precision_checkerINS1_13error_handlerEEclINS0_16basic_format_argINS0_20basic_format_contextISt20back_insert_iteratorINS1_6bufferIcEEEcEEE6handleETnNSt9enable_ifIXntsr10is_integerIT_EE5valueEiE4typeELi0EEEySG_ = comdat any

$_ZN3fmt2v68internal17precision_checkerINS1_13error_handlerEEclINS0_9monostateETnNSt9enable_ifIXntsr10is_integerIT_EE5valueEiE4typeELi0EEEyS8_ = comdat any

$_ZN3fmt2v68internal13specs_handlerINS0_26basic_format_parse_contextIcNS1_13error_handlerEEENS0_20basic_format_contextISt20back_insert_iteratorINS1_6bufferIcEEEcEEE20on_dynamic_precisionIiEEvT_ = comdat any

$_ZN3fmt2v68internal13specs_handlerINS0_26basic_format_parse_contextIcNS1_13error_handlerEEENS0_20basic_format_contextISt20back_insert_iteratorINS1_6bufferIcEEEcEEE20on_dynamic_precisionINS0_17basic_string_viewIcEEEEvT_ = comdat any

$_ZN3fmt2v68internal21numeric_specs_checkerINS1_13specs_handlerINS0_26basic_format_parse_contextIcNS1_13error_handlerEEENS0_20basic_format_contextISt20back_insert_iteratorINS1_6bufferIcEEEcEEEEE15check_precisionEv = comdat any

$_ZSt13back_inserterIN3fmt2v68internal6bufferIcEEESt20back_insert_iteratorIT_ERS6_ = comdat any

$_ZNSt20back_insert_iteratorIN3fmt2v68internal6bufferIcEEEC2ERS4_ = comdat any

$_ZNK3fmt2v68internal6bufferIcE4dataEv = comdat any

$_ZN3fmt2v619basic_memory_bufferIcLm500ESaIcEE10deallocateEv = comdat any

$_ZN3fmt2v68internal19check_format_stringIJNSt7__cxx1112basic_stringIcSt11char_traitsIcESaIcEEEiEA76_cTnNSt9enable_ifIXntsr17is_compile_stringIT0_EE5valueEiE4typeELi0EEEvRKSB_ = comdat any

$_ZN3fmt2v616format_arg_storeINS0_20basic_format_contextISt20back_insert_iteratorINS0_8internal6bufferIcEEEcEEJNSt7__cxx1112basic_stringIcSt11char_traitsIcESaIcEEEiEEC2ERKSE_RKi = comdat any

$_ZN3fmt2v68internal8make_argILb1ENS0_20basic_format_contextISt20back_insert_iteratorINS1_6bufferIcEEEcEENSt7__cxx1112basic_stringIcSt11char_traitsIcESaIcEEETnNSt9enable_ifIXT_EiE4typeELi0EEENS1_5valueIT0_EERKT1_ = comdat any

$_ZN3fmt2v68internal8make_argILb1ENS0_20basic_format_contextISt20back_insert_iteratorINS1_6bufferIcEEEcEEiTnNSt9enable_ifIXT_EiE4typeELi0EEENS1_5valueIT0_EERKT1_ = comdat any

$_ZN3fmt2v68internal10arg_mapperINS0_20basic_format_contextISt20back_insert_iteratorINS1_6bufferIcEEEcEEE3mapINSt7__cxx1112basic_stringIcSt11char_traitsIcESaIcEEETnNSt9enable_ifIXsr8internal9is_stringIT_EE5valueEiE4typeELi0EEENS0_17basic_string_viewIcEERKSI_ = comdat any

$_ZN3fmt2v68internal5valueINS0_20basic_format_contextISt20back_insert_iteratorINS1_6bufferIcEEEcEEEC2ENS0_17basic_string_viewIcEE = comdat any

$_ZN3fmt2v614to_string_viewIcSt11char_traitsIcESaIcEEENS0_17basic_string_viewIT_EERKNSt7__cxx1112basic_stringIS6_T0_T1_EE = comdat any

$_ZN3fmt2v617basic_string_viewIcEC2ISt11char_traitsIcESaIcEEERKNSt7__cxx1112basic_stringIcT_T0_EE = comdat any

$_ZN3fmt2v68internal10arg_mapperINS0_20basic_format_contextISt20back_insert_iteratorINS1_6bufferIcEEEcEEE3mapEi = comdat any

$_ZN3fmt2v617basic_format_argsINS0_20basic_format_contextISt20back_insert_iteratorINS0_8internal6bufferIcEEEcEEE8set_dataEPKNS4_5valueIS8_EE = comdat any

$_ZN3fmt2v68internal17make_args_checkedIJRNSt7__cxx1112basic_stringIcSt11char_traitsIcESaIcEEERiEA44_ccEENS0_16format_arg_storeINS0_20basic_format_contextISt20back_insert_iteratorINS1_6bufferIT1_EEESG_EEJDpNSt16remove_referenceIT_E4typeEEEERKT0_DpRKSN_ = comdat any

$_ZN3fmt2v68internal19check_format_stringIJNSt7__cxx1112basic_stringIcSt11char_traitsIcESaIcEEEiEA44_cTnNSt9enable_ifIXntsr17is_compile_stringIT0_EE5valueEiE4typeELi0EEEvRKSB_ = comdat any

$_ZNK4pugi16xml_object_rangeINS_23xml_named_node_iteratorEE5beginEv = comdat any

$_ZNK4pugi16xml_object_rangeINS_23xml_named_node_iteratorEE3endEv = comdat any

$_ZNSt6vectorIN6openmc15TallyDerivativeESaIS1_EE12emplace_backIJRN4pugi8xml_nodeEEEERS1_DpOT_ = comdat any

$_ZNSt13unordered_mapIiiSt4hashIiESt8equal_toIiESaISt4pairIKiiEEE4findERS5_ = comdat any

$_ZNSt8__detaileqERKNS_19_Node_iterator_baseISt4pairIKiiELb0EEES6_ = comdat any

$_ZNSt13unordered_mapIiiSt4hashIiESt8equal_toIiESaISt4pairIKiiEEE3endEv = comdat any

$_ZNSt13unordered_mapIiiSt4hashIiESt8equal_toIiESaISt4pairIKiiEEEixERS5_ = comdat any

$_ZStplIcSt11char_traitsIcESaIcEENSt7__cxx1112basic_stringIT_T0_T1_EEPKS5_OS8_ = comdat any

$_ZNSt7__cxx119to_stringEi = comdat any

$_ZNSt16allocator_traitsISaIN6openmc15TallyDerivativeEEE9constructIS1_JRN4pugi8xml_nodeEEEEvRS2_PT_DpOT0_ = comdat any

$_ZNSt6vectorIN6openmc15TallyDerivativeESaIS1_EE17_M_realloc_insertIJRN4pugi8xml_nodeEEEEvN9__gnu_cxx17__normal_iteratorIPS1_S3_EEDpOT_ = comdat any

$_ZNSt15__new_allocatorIN6openmc15TallyDerivativeEE9constructIS1_JRN4pugi8xml_nodeEEEEvPT_DpOT0_ = comdat any

$_ZNSt10_HashtableIiSt4pairIKiiESaIS2_ENSt8__detail10_Select1stESt8equal_toIiESt4hashIiENS4_18_Mod_range_hashingENS4_20_Default_ranged_hashENS4_20_Prime_rehash_policyENS4_17_Hashtable_traitsILb0ELb0ELb1EEEE4findERS1_ = comdat any

$_ZNKSt10_HashtableIiSt4pairIKiiESaIS2_ENSt8__detail10_Select1stESt8equal_toIiESt4hashIiENS4_18_Mod_range_hashingENS4_20_Default_ranged_hashENS4_20_Prime_rehash_policyENS4_17_Hashtable_traitsILb0ELb0ELb1EEEE4sizeEv = comdat any

$_ZNSt10_HashtableIiSt4pairIKiiESaIS2_ENSt8__detail10_Select1stESt8equal_toIiESt4hashIiENS4_18_Mod_range_hashingENS4_20_Default_ranged_hashENS4_20_Prime_rehash_policyENS4_17_Hashtable_traitsILb0ELb0ELb1EEEE22__small_size_thresholdEv = comdat any

$_ZNSt10_HashtableIiSt4pairIKiiESaIS2_ENSt8__detail10_Select1stESt8equal_toIiESt4hashIiENS4_18_Mod_range_hashingENS4_20_Default_ranged_hashENS4_20_Prime_rehash_policyENS4_17_Hashtable_traitsILb0ELb0ELb1EEEE5beginEv = comdat any

$_ZNSt8__detailneERKNS_19_Node_iterator_baseISt4pairIKiiELb0EEES6_ = comdat any

$_ZNSt10_HashtableIiSt4pairIKiiESaIS2_ENSt8__detail10_Select1stESt8equal_toIiESt4hashIiENS4_18_Mod_range_hashingENS4_20_Default_ranged_hashENS4_20_Prime_rehash_policyENS4_17_Hashtable_traitsILb0ELb0ELb1EEEE3endEv = comdat any

$_ZNKSt8__detail15_Hashtable_baseIiSt4pairIKiiENS_10_Select1stESt8equal_toIiESt4hashIiENS_18_Mod_range_hashingENS_20_Default_ranged_hashENS_17_Hashtable_traitsILb0ELb0ELb1EEEE13_M_key_equalsERS2_RKNS_16_Hash_node_valueIS3_Lb0EEE = comdat any

$_ZNSt8__detail14_Node_iteratorISt4pairIKiiELb0ELb0EEppEv = comdat any

$_ZNKSt8__detail15_Hash_code_baseIiSt4pairIKiiENS_10_Select1stESt4hashIiENS_18_Mod_range_hashingENS_20_Default_ranged_hashELb0EE12_M_hash_codeERS2_ = comdat any

$_ZNKSt10_HashtableIiSt4pairIKiiESaIS2_ENSt8__detail10_Select1stESt8equal_toIiESt4hashIiENS4_18_Mod_range_hashingENS4_20_Default_ranged_hashENS4_20_Prime_rehash_policyENS4_17_Hashtable_traitsILb0ELb0ELb1EEEE15_M_bucket_indexEm = comdat any

$_ZNKSt10_HashtableIiSt4pairIKiiESaIS2_ENSt8__detail10_Select1stESt8equal_toIiESt4hashIiENS4_18_Mod_range_hashingENS4_20_Default_ranged_hashENS4_20_Prime_rehash_policyENS4_17_Hashtable_traitsILb0ELb0ELb1EEEE12_M_find_nodeEmRS1_m = comdat any

$_ZNSt8__detail14_Node_iteratorISt4pairIKiiELb0ELb0EEC2EPNS_10_Hash_nodeIS3_Lb0EEE = comdat any

$_ZNSt8__detail22_Hashtable_hash_traitsISt4hashIiEE22__small_size_thresholdEv = comdat any

$_ZNKSt8__detail15_Hashtable_baseIiSt4pairIKiiENS_10_Select1stESt8equal_toIiESt4hashIiENS_18_Mod_range_hashingENS_20_Default_ranged_hashENS_17_Hashtable_traitsILb0ELb0ELb1EEEE5_M_eqEv = comdat any

$_ZNKSt8equal_toIiEclERKiS2_ = comdat any

$_ZNKSt8__detail10_Select1stclIRKSt4pairIKiiEEEONS0_10__1st_typeIT_E4typeEOS8_ = comdat any

$_ZNKSt8__detail21_Hash_node_value_baseISt4pairIKiiEE4_M_vEv = comdat any

$_ZNKSt8__detail21_Hashtable_ebo_helperILi0ESt8equal_toIiELb1EE7_M_cgetEv = comdat any

$_ZNKSt8__detail21_Hash_node_value_baseISt4pairIKiiEE9_M_valptrEv = comdat any

$_ZNK9__gnu_cxx16__aligned_bufferISt4pairIKiiEE6_M_ptrEv = comdat any

$_ZNK9__gnu_cxx16__aligned_bufferISt4pairIKiiEE7_M_addrEv = comdat any

$_ZNSt8__detail19_Node_iterator_baseISt4pairIKiiELb0EE7_M_incrEv = comdat any

$_ZNKSt8__detail15_Hash_code_baseIiSt4pairIKiiENS_10_Select1stESt4hashIiENS_18_Mod_range_hashingENS_20_Default_ranged_hashELb0EE7_M_hashEv = comdat any

$_ZNKSt4hashIiEclEi = comdat any

$_ZNKSt8__detail21_Hashtable_ebo_helperILi1ESt4hashIiELb1EE7_M_cgetEv = comdat any

$_ZNKSt8__detail15_Hash_code_baseIiSt4pairIKiiENS_10_Select1stESt4hashIiENS_18_Mod_range_hashingENS_20_Default_ranged_hashELb0EE15_M_bucket_indexEmm = comdat any

$_ZNKSt8__detail18_Mod_range_hashingclEmm = comdat any

$_ZNKSt10_HashtableIiSt4pairIKiiESaIS2_ENSt8__detail10_Select1stESt8equal_toIiESt4hashIiENS4_18_Mod_range_hashingENS4_20_Default_ranged_hashENS4_20_Prime_rehash_policyENS4_17_Hashtable_traitsILb0ELb0ELb1EEEE19_M_find_before_nodeEmRS1_m = comdat any

$_ZNKSt8__detail15_Hashtable_baseIiSt4pairIKiiENS_10_Select1stESt8equal_toIiESt4hashIiENS_18_Mod_range_hashingENS_20_Default_ranged_hashENS_17_Hashtable_traitsILb0ELb0ELb1EEEE9_M_equalsERS2_mRKNS_16_Hash_node_valueIS3_Lb0EEE = comdat any

$_ZNKSt10_HashtableIiSt4pairIKiiESaIS2_ENSt8__detail10_Select1stESt8equal_toIiESt4hashIiENS4_18_Mod_range_hashingENS4_20_Default_ranged_hashENS4_20_Prime_rehash_policyENS4_17_Hashtable_traitsILb0ELb0ELb1EEEE15_M_bucket_indexERKNS4_16_Hash_node_valueIS2_Lb0EEE = comdat any

$_ZNSt8__detail15_Hashtable_baseIiSt4pairIKiiENS_10_Select1stESt8equal_toIiESt4hashIiENS_18_Mod_range_hashingENS_20_Default_ranged_hashENS_17_Hashtable_traitsILb0ELb0ELb1EEEE9_S_equalsEmRKNS_21_Hash_node_code_cacheILb0EEE = comdat any

$_ZNKSt8__detail15_Hash_code_baseIiSt4pairIKiiENS_10_Select1stESt4hashIiENS_18_Mod_range_hashingENS_20_Default_ranged_hashELb0EE15_M_bucket_indexERKNS_16_Hash_node_valueIS3_Lb0EEEm = comdat any

$_ZNSt8__detail19_Node_iterator_baseISt4pairIKiiELb0EEC2EPNS_10_Hash_nodeIS3_Lb0EEE = comdat any

$_ZNSt8__detail9_Map_baseIiSt4pairIKiiESaIS3_ENS_10_Select1stESt8equal_toIiESt4hashIiENS_18_Mod_range_hashingENS_20_Default_ranged_hashENS_20_Prime_rehash_policyENS_17_Hashtable_traitsILb0ELb0ELb1EEELb1EEixERS2_ = comdat any

$_ZNSt8__detail21_Hash_node_value_baseISt4pairIKiiEE4_M_vEv = comdat any

$_ZNSt5tupleIJRKiEEC2ILb1ETnNSt9enable_ifIXclsr4_TCCIXT_EEE29__is_implicitly_constructibleIS1_EEEbE4typeELb1EEES1_ = comdat any

$_ZNSt10_HashtableIiSt4pairIKiiESaIS2_ENSt8__detail10_Select1stESt8equal_toIiESt4hashIiENS4_18_Mod_range_hashingENS4_20_Default_ranged_hashENS4_20_Prime_rehash_policyENS4_17_Hashtable_traitsILb0ELb0ELb1EEEE12_Scoped_nodeC2IJRKSt21piecewise_construct_tSt5tupleIJRS1_EESL_IJEEEEEPNS4_16_Hashtable_allocISaINS4_10_Hash_nodeIS2_Lb0EEEEEEDpOT_ = comdat any

$_ZNSt10_HashtableIiSt4pairIKiiESaIS2_ENSt8__detail10_Select1stESt8equal_toIiESt4hashIiENS4_18_Mod_range_hashingENS4_20_Default_ranged_hashENS4_20_Prime_rehash_policyENS4_17_Hashtable_traitsILb0ELb0ELb1EEEE21_M_insert_unique_nodeEmmPNS4_10_Hash_nodeIS2_Lb0EEEm = comdat any

$_ZNKSt8__detail14_Node_iteratorISt4pairIKiiELb0ELb0EEptEv = comdat any

$_ZNSt10_HashtableIiSt4pairIKiiESaIS2_ENSt8__detail10_Select1stESt8equal_toIiESt4hashIiENS4_18_Mod_range_hashingENS4_20_Default_ranged_hashENS4_20_Prime_rehash_policyENS4_17_Hashtable_traitsILb0ELb0ELb1EEEE12_Scoped_nodeD2Ev = comdat any

$_ZNSt11_Tuple_implILm0EJRKiEEC2ES1_ = comdat any

$_ZNSt10_Head_baseILm0ERKiLb0EEC2ES1_ = comdat any

$_ZNSt8__detail16_Hashtable_allocISaINS_10_Hash_nodeISt4pairIKiiELb0EEEEE16_M_allocate_nodeIJRKSt21piecewise_construct_tSt5tupleIJRS3_EESC_IJEEEEEPS5_DpOT_ = comdat any

$_ZNSt16allocator_traitsISaINSt8__detail10_Hash_nodeISt4pairIKiiELb0EEEEE8allocateERS6_m = comdat any

$_ZSt12__to_addressINSt8__detail10_Hash_nodeISt4pairIKiiELb0EEEEPT_S7_ = comdat any

$_ZNSt8__detail10_Hash_nodeISt4pairIKiiELb0EEC2Ev = comdat any

$_ZNSt16allocator_traitsISaINSt8__detail10_Hash_nodeISt4pairIKiiELb0EEEEE9constructIS4_JRKSt21piecewise_construct_tSt5tupleIJRS3_EESC_IJEEEEEvRS6_PT_DpOT0_ = comdat any

$_ZNSt15__new_allocatorINSt8__detail10_Hash_nodeISt4pairIKiiELb0EEEE8allocateEmPKv = comdat any

$_ZNKSt15__new_allocatorINSt8__detail10_Hash_nodeISt4pairIKiiELb0EEEE11_M_max_sizeEv = comdat any

$_ZNSt15__new_allocatorINSt8__detail10_Hash_nodeISt4pairIKiiELb0EEEE9constructIS4_JRKSt21piecewise_construct_tSt5tupleIJRS3_EESB_IJEEEEEvPT_DpOT0_ = comdat any

$_ZNSt5tupleIJRKiEEC2EOS2_ = comdat any

$_ZNSt4pairIKiiEC2IJRS0_EJEEESt21piecewise_construct_tSt5tupleIJDpT_EES5_IJDpT0_EE = comdat any

$_ZNSt11_Tuple_implILm0EJRKiEEC2EOS2_ = comdat any

$_ZNSt4pairIKiiEC2IJRS0_EJLm0EEJETpTnmJEEERSt5tupleIJDpT_EERS4_IJDpT1_EESt12_Index_tupleIJXspT0_EEESD_IJXspT2_EEE = comdat any

$_ZSt3getILm0EJRKiEERNSt13tuple_elementIXT_ESt5tupleIJDpT0_EEE4typeERS6_ = comdat any

$_ZSt12__get_helperILm0ERKiJEERT0_RSt11_Tuple_implIXT_EJS2_DpT1_EE = comdat any

$_ZNSt11_Tuple_implILm0EJRKiEE7_M_headERS2_ = comdat any

$_ZNSt10_Head_baseILm0ERKiLb0EE7_M_headERS2_ = comdat any

$_ZNKSt8__detail20_Prime_rehash_policy8_M_stateEv = comdat any

$_ZNSt10_HashtableIiSt4pairIKiiESaIS2_ENSt8__detail10_Select1stESt8equal_toIiESt4hashIiENS4_18_Mod_range_hashingENS4_20_Default_ranged_hashENS4_20_Prime_rehash_policyENS4_17_Hashtable_traitsILb0ELb0ELb1EEEE9_M_rehashEmRKm = comdat any

$_ZNKSt8__detail15_Hash_code_baseIiSt4pairIKiiENS_10_Select1stESt4hashIiENS_18_Mod_range_hashingENS_20_Default_ranged_hashELb0EE13_M_store_codeERNS_21_Hash_node_code_cacheILb0EEEm = comdat any

$_ZNSt10_HashtableIiSt4pairIKiiESaIS2_ENSt8__detail10_Select1stESt8equal_toIiESt4hashIiENS4_18_Mod_range_hashingENS4_20_Default_ranged_hashENS4_20_Prime_rehash_policyENS4_17_Hashtable_traitsILb0ELb0ELb1EEEE22_M_insert_bucket_beginEmPNS4_10_Hash_nodeIS2_Lb0EEE = comdat any

$_ZNSt10_HashtableIiSt4pairIKiiESaIS2_ENSt8__detail10_Select1stESt8equal_toIiESt4hashIiENS4_18_Mod_range_hashingENS4_20_Default_ranged_hashENS4_20_Prime_rehash_policyENS4_17_Hashtable_traitsILb0ELb0ELb1EEEE13_M_rehash_auxEmSt17integral_constantIbLb1EE = comdat any

$_ZNSt8__detail20_Prime_rehash_policy8_M_resetEm = comdat any

$_ZNSt10_HashtableIiSt4pairIKiiESaIS2_ENSt8__detail10_Select1stESt8equal_toIiESt4hashIiENS4_18_Mod_range_hashingENS4_20_Default_ranged_hashENS4_20_Prime_rehash_policyENS4_17_Hashtable_traitsILb0ELb0ELb1EEEE19_M_allocate_bucketsEm = comdat any

$_ZNSt8__detail16_Hashtable_allocISaINS_10_Hash_nodeISt4pairIKiiELb0EEEEE19_M_allocate_bucketsEm = comdat any

$_ZNSt16allocator_traitsISaIPNSt8__detail15_Hash_node_baseEEE8allocateERS3_m = comdat any

$_ZSt12__to_addressIPNSt8__detail15_Hash_node_baseEEPT_S4_ = comdat any

$_ZNSt15__new_allocatorIPNSt8__detail15_Hash_node_baseEE8allocateEmPKv = comdat any

$_ZNKSt15__new_allocatorIPNSt8__detail15_Hash_node_baseEE11_M_max_sizeEv = comdat any

$_ZNSt8__detail14__to_chars_lenIjEEjT_i = comdat any

$_ZNSt7__cxx1112basic_stringIcSt11char_traitsIcESaIcEEC2IS3_EEmcRKS3_ = comdat any

$_ZNSt8__detail18__to_chars_10_implIjEEvPcjT_ = comdat any

$_ZNK6openmc6vectorIiE4sizeEv = comdat any

$_ZNK6openmc6vectorIiEixEm = comdat any

$_ZNK2xt10xcontainerINS_17xtensor_containerINS_7uvectorIdSaIdEEELm1ELNS_11layout_typeE1ENS_22xtensor_expression_tagEEEEclIJiEEERKdDpT_ = comdat any

$_ZNK6openmc19NuclideMicroXSCacheixEl = comdat any

$_ZNKSt10unique_ptrIN6openmc17WindowedMultipoleESt14default_deleteIS1_EEptEv = comdat any

$_ZSt3tieIJdddEESt5tupleIJDpRT_EES3_ = comdat any

$_ZNSt5tupleIJRdS0_S0_EEaSIJdddEEENSt9enable_ifIXcl12__assignableIDpT_EEERS1_E4typeEOS_IJS5_EE = comdat any

$_ZN2xt11data_offsetImSt5arrayIlLm1EElJEEET_RKT0_T1_DpT2_ = comdat any

$_ZNK2xt10xcontainerINS_17xtensor_containerINS_7uvectorIdSaIdEEELm1ELNS_11layout_typeE1ENS_22xtensor_expression_tagEEEE7stridesEv = comdat any

$_ZNK2xt10xcontainerINS_17xtensor_containerINS_7uvectorIdSaIdEEELm1ELNS_11layout_typeE1ENS_22xtensor_expression_tagEEEE7storageEv = comdat any

$_ZNK2xt7uvectorIdSaIdEEixEm = comdat any

$_ZNKSt5arrayIlLm1EE4sizeEv = comdat any

$_ZN2xt6detail15raw_data_offsetILm0ESt5arrayIlLm1EElJEEEDaRKT0_T1_DpT2_ = comdat any

$_ZN2xt11data_offsetImSt5arrayIlLm1EEEET_RKT0_ = comdat any

$_ZNKSt5arrayIlLm1EE4cendEv = comdat any

$_ZN2xt6detail15raw_data_offsetILm0EPKllJEEEDaRKT0_T1_DpT2_ = comdat any

$_ZNKSt5arrayIlLm1EEixEm = comdat any

$_ZN2xt6detail15raw_data_offsetILm1ESt5arrayIlLm1EEEEDaRKT0_ = comdat any

$_ZNSt14__array_traitsIlLm1EE6_S_refERA1_Klm = comdat any

$_ZNKSt5arrayIlLm1EE4dataEv = comdat any

$_ZNSt14__array_traitsIlLm1EE6_S_ptrERA1_Kl = comdat any

$_ZN2xt6detail15raw_data_offsetILm1EPKlEEDaRKT0_ = comdat any

$_ZNKR2xt10xcontainerINS_17xtensor_containerINS_7uvectorIdSaIdEEELm1ELNS_11layout_typeE1ENS_22xtensor_expression_tagEEEE12derived_castEv = comdat any

$_ZNK2xt18xstrided_containerINS_17xtensor_containerINS_7uvectorIdSaIdEEELm1ELNS_11layout_typeE1ENS_22xtensor_expression_tagEEEE12strides_implEv = comdat any

$_ZNK2xt17xtensor_containerINS_7uvectorIdSaIdEEELm1ELNS_11layout_typeE1ENS_22xtensor_expression_tagEE12storage_implEv = comdat any

$_ZNKSt10unique_ptrIN6openmc17WindowedMultipoleESt14default_deleteIS1_EE3getEv = comdat any

$_ZNKSt15__uniq_ptr_implIN6openmc17WindowedMultipoleESt14default_deleteIS1_EE6_M_ptrEv = comdat any

$_ZSt3getILm0EJPN6openmc17WindowedMultipoleESt14default_deleteIS1_EEERKNSt13tuple_elementIXT_ESt5tupleIJDpT0_EEE4typeERKS9_ = comdat any

$_ZSt12__get_helperILm0EPN6openmc17WindowedMultipoleEJSt14default_deleteIS1_EEERKT0_RKSt11_Tuple_implIXT_EJS5_DpT1_EE = comdat any

$_ZNSt11_Tuple_implILm0EJPN6openmc17WindowedMultipoleESt14default_deleteIS1_EEE7_M_headERKS5_ = comdat any

$_ZNSt10_Head_baseILm0EPN6openmc17WindowedMultipoleELb0EE7_M_headERKS3_ = comdat any

$_ZNSt5tupleIJRdS0_S0_EEC2ILb1ETnNSt9enable_ifIXclsr4_TCCIXT_EEE29__is_implicitly_constructibleIS0_S0_S0_EEEbE4typeELb1EEES0_S0_S0_ = comdat any

$_ZNSt11_Tuple_implILm0EJRdS0_S0_EEC2ES0_S0_S0_ = comdat any

$_ZNSt11_Tuple_implILm1EJRdS0_EEC2ES0_S0_ = comdat any

$_ZNSt10_Head_baseILm0ERdLb0EEC2ES0_ = comdat any

$_ZNSt11_Tuple_implILm2EJRdEEC2ES0_ = comdat any

$_ZNSt10_Head_baseILm1ERdLb0EEC2ES0_ = comdat any

$_ZNSt10_Head_baseILm2ERdLb0EEC2ES0_ = comdat any

$_ZNSt11_Tuple_implILm0EJRdS0_S0_EE9_M_assignIdJddEEEvOS_ILm0EJT_DpT0_EE = comdat any

$_ZNSt11_Tuple_implILm0EJdddEE7_M_headERS0_ = comdat any

$_ZNSt11_Tuple_implILm0EJRdS0_S0_EE7_M_headERS1_ = comdat any

$_ZNSt11_Tuple_implILm0EJRdS0_S0_EE7_M_tailERS1_ = comdat any

$_ZNSt11_Tuple_implILm1EJRdS0_EE9_M_assignIdJdEEEvOS_ILm1EJT_DpT0_EE = comdat any

$_ZNSt11_Tuple_implILm0EJdddEE7_M_tailERS0_ = comdat any

$_ZNSt10_Head_baseILm0EdLb0EE7_M_headERS0_ = comdat any

$_ZNSt10_Head_baseILm0ERdLb0EE7_M_headERS1_ = comdat any

$_ZNSt11_Tuple_implILm1EJddEE7_M_headERS0_ = comdat any

$_ZNSt11_Tuple_implILm1EJRdS0_EE7_M_headERS1_ = comdat any

$_ZNSt11_Tuple_implILm1EJRdS0_EE7_M_tailERS1_ = comdat any

$_ZNSt11_Tuple_implILm2EJRdEE9_M_assignIdEEvOS_ILm2EJT_EE = comdat any

$_ZNSt11_Tuple_implILm1EJddEE7_M_tailERS0_ = comdat any

$_ZNSt10_Head_baseILm1EdLb0EE7_M_headERS0_ = comdat any

$_ZNSt10_Head_baseILm1ERdLb0EE7_M_headERS1_ = comdat any

$_ZNSt11_Tuple_implILm2EJdEE7_M_headERS0_ = comdat any

$_ZNSt11_Tuple_implILm2EJRdEE7_M_headERS1_ = comdat any

$_ZNSt10_Head_baseILm2EdLb0EE7_M_headERS0_ = comdat any

$_ZNSt10_Head_baseILm2ERdLb0EE7_M_headERS1_ = comdat any

$_ZN6openmc19NuclideMicroXSCacheixEl = comdat any

$_ZN3fmt2v66formatIA65_cJRNSt7__cxx1112basic_stringIcSt11char_traitsIcESaIcEEERKiSB_EcEENS4_IT1_S5_ISC_ESaISC_EEERKT_DpOT0_ = comdat any

$_ZNK6openmc6vectorIiE5beginEv = comdat any

$_ZNK6openmc6vectorIiE3endEv = comdat any

$_ZN3fmt2v68internal17make_args_checkedIJRNSt7__cxx1112basic_stringIcSt11char_traitsIcESaIcEEERKiSB_EA65_ccEENS0_16format_arg_storeINS0_20basic_format_contextISt20back_insert_iteratorINS1_6bufferIT1_EEESH_EEJDpNSt16remove_referenceIT_E4typeEEEERKT0_DpRKSO_ = comdat any

$_ZN3fmt2v617basic_format_argsINS0_20basic_format_contextISt20back_insert_iteratorINS0_8internal6bufferIcEEEcEEEC2IJNSt7__cxx1112basic_stringIcSt11char_traitsIcESaIcEEEKiSH_EEERKNS0_16format_arg_storeIS8_JDpT_EEE = comdat any

$_ZN3fmt2v68internal19check_format_stringIJNSt7__cxx1112basic_stringIcSt11char_traitsIcESaIcEEEiiEA65_cTnNSt9enable_ifIXntsr17is_compile_stringIT0_EE5valueEiE4typeELi0EEEvRKSB_ = comdat any

$_ZN3fmt2v616format_arg_storeINS0_20basic_format_contextISt20back_insert_iteratorINS0_8internal6bufferIcEEEcEEJNSt7__cxx1112basic_stringIcSt11char_traitsIcESaIcEEEKiSF_EEC2ERKSE_RSF_SJ_ = comdat any

$_ZTVN3fmt2v619basic_memory_bufferIcLm500ESaIcEEE = comdat any

$_ZTIN3fmt2v619basic_memory_bufferIcLm500ESaIcEEE = comdat any

$_ZTSN3fmt2v619basic_memory_bufferIcLm500ESaIcEEE = comdat any

$_ZTISaIcE = comdat any

$_ZTSSaIcE = comdat any

$_ZTISt15__new_allocatorIcE = comdat any

$_ZTSSt15__new_allocatorIcE = comdat any

$_ZTIN3fmt2v68internal6bufferIcEE = comdat any

$_ZTSN3fmt2v68internal6bufferIcEE = comdat any

$_ZTVN3fmt2v68internal6bufferIcEE = comdat any

$_ZSt19piecewise_construct = comdat any

$_ZZNSt8__detail18__to_chars_10_implIjEEvPcjT_E8__digits = comdat any

@dagmc = external global i8, align 1
@run_CE = external global i8, align 1
@max_lost_particles = external global i32, align 4
@gen_per_batch = external global i32, align 4
@n_particles = external global i64, align 8
@_ZN6openmc17WindowedMultipole21MAX_POLY_COEFFICIENTSE = external constant i32, align 4
@_ZN6openmc7Nuclide8XS_TOTALE = external global i32, align 4
@_ZN6openmc7Nuclide13XS_ABSORPTIONE = external global i32, align 4
@_ZN6openmc7Nuclide10XS_FISSIONE = external global i32, align 4
@_ZN6openmc7Nuclide13XS_NU_FISSIONE = external global i32, align 4
@_ZN6openmc7Nuclide14XS_PHOTON_PRODE = external global i32, align 4
@_ZN6openmcL12DEPLETION_RXE = internal constant %"struct.std::array" { [6 x i32] [i32 102, i32 103, i32 107, i32 16, i32 17, i32 37] }, align 4
@_ZStL8__ioinit = internal global %"class.std::ios_base::Init" zeroinitializer, align 1
@__dso_handle = external hidden global i8
@.str = private unnamed_addr constant [49 x i8] c"cannot create std::vector larger than max_size()\00", align 1
@.str.1 = private unnamed_addr constant [26 x i8] c"vector::_M_default_append\00", align 1
@.str.2 = private unnamed_addr constant [23 x i8] c"vector::_M_fill_insert\00", align 1
@.str.3 = private unnamed_addr constant [16 x i8] c"vector::reserve\00", align 1
@.str.4 = private unnamed_addr constant [74 x i8] c"vector::_M_range_check: __n (which is %zu) >= this->size() (which is %zu)\00", align 1
@.str.5 = private unnamed_addr constant [26 x i8] c"vector::_M_realloc_insert\00", align 1
@.str.6 = private unnamed_addr constant [24 x i8] c"vector::_M_range_insert\00", align 1
@_ZN6openmc5model15tally_deriv_mapE = global %"class.std::unordered_map" zeroinitializer, align 8
@_ZN6openmc5model12tally_derivsE = global %"class.std::vector" zeroinitializer, align 8
@.str.9 = private unnamed_addr constant [3 x i8] c"id\00", align 1
@.str.10 = private unnamed_addr constant [67 x i8] c"Must specify an ID for <derivative> elements in the tally XML file\00", align 1
@.str.11 = private unnamed_addr constant [54 x i8] c"<derivative> IDs must be an integer greater than zero\00", align 1
@.str.12 = private unnamed_addr constant [9 x i8] c"variable\00", align 1
@.str.13 = private unnamed_addr constant [8 x i8] c"density\00", align 1
@.str.14 = private unnamed_addr constant [16 x i8] c"nuclide_density\00", align 1
@.str.15 = private unnamed_addr constant [8 x i8] c"nuclide\00", align 1
@_ZN6openmc4data13nuclides_sizeE = external global i64, align 8
@_ZN6openmc4data8nuclidesE = external global ptr, align 8
@.str.16 = private unnamed_addr constant [76 x i8] c"Could not find the nuclide \22{}\22 specified in derivative {} in any material.\00", align 1
@.str.17 = private unnamed_addr constant [12 x i8] c"temperature\00", align 1
@.str.18 = private unnamed_addr constant [44 x i8] c"Unrecognized variable \22{}\22 on derivative {}\00", align 1
@.str.19 = private unnamed_addr constant [9 x i8] c"material\00", align 1
@.str.20 = private unnamed_addr constant [5 x i8] c"stoi\00", align 1
@.str.21 = private unnamed_addr constant [50 x i8] c"basic_string: construction from null is not valid\00", align 1
@_ZTVN3fmt2v619basic_memory_bufferIcLm500ESaIcEEE = linkonce_odr unnamed_addr constant { [5 x ptr] } { [5 x ptr] [ptr null, ptr @_ZTIN3fmt2v619basic_memory_bufferIcLm500ESaIcEEE, ptr @_ZN3fmt2v619basic_memory_bufferIcLm500ESaIcEE4growEm, ptr @_ZN3fmt2v619basic_memory_bufferIcLm500ESaIcEED2Ev, ptr @_ZN3fmt2v619basic_memory_bufferIcLm500ESaIcEED0Ev] }, comdat, align 8
@_ZTIN3fmt2v619basic_memory_bufferIcLm500ESaIcEEE = linkonce_odr constant { ptr, ptr, i32, i32, ptr, i64, ptr, i64 } { ptr getelementptr inbounds (ptr, ptr @_ZTVN10__cxxabiv121__vmi_class_type_infoE, i64 2), ptr @_ZTSN3fmt2v619basic_memory_bufferIcLm500ESaIcEEE, i32 0, i32 2, ptr @_ZTISaIcE, i64 0, ptr @_ZTIN3fmt2v68internal6bufferIcEE, i64 2 }, comdat, align 8
@_ZTVN10__cxxabiv121__vmi_class_type_infoE = external global [0 x ptr]
@_ZTSN3fmt2v619basic_memory_bufferIcLm500ESaIcEEE = linkonce_odr constant [45 x i8] c"N3fmt2v619basic_memory_bufferIcLm500ESaIcEEE\00", comdat, align 1
@_ZTISaIcE = linkonce_odr constant { ptr, ptr, ptr } { ptr getelementptr inbounds (ptr, ptr @_ZTVN10__cxxabiv120__si_class_type_infoE, i64 2), ptr @_ZTSSaIcE, ptr @_ZTISt15__new_allocatorIcE }, comdat, align 8
@_ZTVN10__cxxabiv120__si_class_type_infoE = external global [0 x ptr]
@_ZTSSaIcE = linkonce_odr constant [6 x i8] c"SaIcE\00", comdat, align 1
@_ZTISt15__new_allocatorIcE = linkonce_odr constant { ptr, ptr } { ptr getelementptr inbounds (ptr, ptr @_ZTVN10__cxxabiv117__class_type_infoE, i64 2), ptr @_ZTSSt15__new_allocatorIcE }, comdat, align 8
@_ZTVN10__cxxabiv117__class_type_infoE = external global [0 x ptr]
@_ZTSSt15__new_allocatorIcE = linkonce_odr constant [23 x i8] c"St15__new_allocatorIcE\00", comdat, align 1
@_ZTIN3fmt2v68internal6bufferIcEE = linkonce_odr constant { ptr, ptr } { ptr getelementptr inbounds (ptr, ptr @_ZTVN10__cxxabiv117__class_type_infoE, i64 2), ptr @_ZTSN3fmt2v68internal6bufferIcEE }, comdat, align 8
@_ZTSN3fmt2v68internal6bufferIcEE = linkonce_odr constant [29 x i8] c"N3fmt2v68internal6bufferIcEE\00", comdat, align 1
@_ZTVN3fmt2v68internal6bufferIcEE = linkonce_odr unnamed_addr constant { [5 x ptr] } { [5 x ptr] [ptr null, ptr @_ZTIN3fmt2v68internal6bufferIcEE, ptr @__cxa_pure_virtual, ptr @_ZN3fmt2v68internal6bufferIcED2Ev, ptr @_ZN3fmt2v68internal6bufferIcED0Ev] }, comdat, align 8
@.str.22 = private unnamed_addr constant [22 x i8] c"invalid format string\00", align 1
@.str.23 = private unnamed_addr constant [25 x i8] c"unknown format specifier\00", align 1
@.str.24 = private unnamed_addr constant [29 x i8] c"missing '}' in format string\00", align 1
@.str.25 = private unnamed_addr constant [81 x i8] c"/g/g0/wright117/workspace/openmc/openmc-omp/openmc/vendor/fmt/include/fmt/core.h\00", align 1
@.str.26 = private unnamed_addr constant [15 x i8] c"negative value\00", align 1
@.str.27 = private unnamed_addr constant [31 x i8] c"unmatched '}' in format string\00", align 1
@.str.28 = private unnamed_addr constant [28 x i8] c"argument index out of range\00", align 1
@.str.29 = private unnamed_addr constant [57 x i8] c"cannot switch from manual to automatic argument indexing\00", align 1
@.str.30 = private unnamed_addr constant [22 x i8] c"invalid argument type\00", align 1
@_ZN3fmt2v68internal10basic_dataIvE23zero_or_powers_of_10_32E = external constant [0 x i32], align 4
@.str.31 = private unnamed_addr constant [83 x i8] c"/g/g0/wright117/workspace/openmc/openmc-omp/openmc/vendor/fmt/include/fmt/format.h\00", align 1
@.str.32 = private unnamed_addr constant [20 x i8] c"invalid digit count\00", align 1
@_ZN3fmt2v68internal10basic_dataIvE6digitsE = external constant [0 x i8], align 1
@.str.33 = private unnamed_addr constant [17 x i8] c"0123456789ABCDEF\00", align 1
@_ZN3fmt2v68internal10basic_dataIvE10hex_digitsE = external constant [0 x i8], align 1
@.str.34 = private unnamed_addr constant [23 x i8] c"invalid type specifier\00", align 1
@_ZTIN3fmt2v612format_errorE = external constant ptr
@_ZTVN3fmt2v612format_errorE = available_externally unnamed_addr constant { [5 x ptr] } { [5 x ptr] [ptr null, ptr @_ZTIN3fmt2v612format_errorE, ptr @_ZN3fmt2v612format_errorD1Ev, ptr @_ZN3fmt2v612format_errorD0Ev, ptr @_ZNKSt13runtime_error4whatEv] }, align 8
@_ZN3fmt2v68internal10basic_dataIvE23zero_or_powers_of_10_64E = external constant [0 x i64], align 8
@.str.35 = private unnamed_addr constant [5 x i8] c"true\00", align 1
@.str.36 = private unnamed_addr constant [6 x i8] c"false\00", align 1
@.str.37 = private unnamed_addr constant [34 x i8] c"invalid format specifier for char\00", align 1
@.str.38 = private unnamed_addr constant [4 x i8] c"INF\00", align 1
@.str.39 = private unnamed_addr constant [4 x i8] c"inf\00", align 1
@.str.40 = private unnamed_addr constant [4 x i8] c"NAN\00", align 1
@.str.41 = private unnamed_addr constant [4 x i8] c"nan\00", align 1
@_ZN3fmt2v68internal10basic_dataIvE5signsE = external constant [0 x i8], align 1
@.str.42 = private unnamed_addr constant [18 x i8] c"number is too big\00", align 1
@.str.43 = private unnamed_addr constant [22 x i8] c"exponent out of range\00", align 1
@.str.44 = private unnamed_addr constant [23 x i8] c"string pointer is null\00", align 1
@.str.45 = private unnamed_addr constant [1 x i8] zeroinitializer, align 1
@.str.46 = private unnamed_addr constant [57 x i8] c"cannot switch from automatic to manual argument indexing\00", align 1
@.str.47 = private unnamed_addr constant [19 x i8] c"argument not found\00", align 1
@.str.48 = private unnamed_addr constant [27 x i8] c"invalid fill character '{'\00", align 1
@.str.49 = private unnamed_addr constant [43 x i8] c"format specifier requires numeric argument\00", align 1
@.str.50 = private unnamed_addr constant [42 x i8] c"format specifier requires signed argument\00", align 1
@.str.51 = private unnamed_addr constant [15 x i8] c"negative width\00", align 1
@.str.52 = private unnamed_addr constant [21 x i8] c"width is not integer\00", align 1
@.str.53 = private unnamed_addr constant [28 x i8] c"missing precision specifier\00", align 1
@.str.54 = private unnamed_addr constant [19 x i8] c"negative precision\00", align 1
@.str.55 = private unnamed_addr constant [25 x i8] c"precision is not integer\00", align 1
@.str.56 = private unnamed_addr constant [45 x i8] c"precision not allowed for this argument type\00", align 1
@.str.57 = private unnamed_addr constant [11 x i8] c"derivative\00", align 1
@.str.58 = private unnamed_addr constant [49 x i8] c"Two or more derivatives use the same unique ID: \00", align 1
@.str.59 = private unnamed_addr constant [55 x i8] c"Differential tallies not supported in multi-group mode\00", align 1
@_ZSt19piecewise_construct = linkonce_odr constant %"struct.std::piecewise_construct_t" zeroinitializer, comdat, align 1
@.str.60 = private unnamed_addr constant [22 x i8] c"basic_string::replace\00", align 1
@.str.61 = private unnamed_addr constant [55 x i8] c"%s: __pos (which is %zu) > this->size() (which is %zu)\00", align 1
@_ZZNSt8__detail18__to_chars_10_implIjEEvPcjT_E8__digits = linkonce_odr constant [201 x i8] c"00010203040506070809101112131415161718192021222324252627282930313233343536373839404142434445464748495051525354555657585960616263646566676869707172737475767778798081828384858687888990919293949596979899\00", comdat, align 16
@_ZZNSt8__detail18__to_chars_10_implIjEEvPcjT_E8__digits.const = private unnamed_addr constant [201 x i8] c"00010203040506070809101112131415161718192021222324252627282930313233343536373839404142434445464748495051525354555657585960616263646566676869707172737475767778798081828384858687888990919293949596979899\00", align 16
@_ZN6openmc5model7talliesE = external global ptr, align 8
@_ZN6openmc5model9materialsE = external global ptr, align 8
@.str.62 = private unnamed_addr constant [51 x i8] c"Tally derivative not defined for a score on tally \00", align 1
@.str.63 = private unnamed_addr constant [79 x i8] c"Differential tallies are only implemented for analog and collision estimators.\00", align 1
@.str.64 = private unnamed_addr constant [65 x i8] c"Could not find nuclide {} in material {} for tally derivative {}\00", align 1
@llvm.global_ctors = appending global [1 x { i32, ptr, ptr }] [{ i32, ptr, ptr } { i32 65535, ptr @_GLOBAL__sub_I_derivative.cpp, ptr null }]

@_ZNSt6vectorIN6openmc15TallyDerivativeESaIS1_EEC1ERKS2_ = weak_odr unnamed_addr alias void (ptr, ptr), ptr @_ZNSt6vectorIN6openmc15TallyDerivativeESaIS1_EEC2ERKS2_
@_ZNSt6vectorIN6openmc15TallyDerivativeESaIS1_EEC1EmRKS2_ = weak_odr unnamed_addr alias void (ptr, i64, ptr), ptr @_ZNSt6vectorIN6openmc15TallyDerivativeESaIS1_EEC2EmRKS2_
@_ZNSt6vectorIN6openmc15TallyDerivativeESaIS1_EEC1EmRKS1_RKS2_ = weak_odr unnamed_addr alias void (ptr, i64, ptr, ptr), ptr @_ZNSt6vectorIN6openmc15TallyDerivativeESaIS1_EEC2EmRKS1_RKS2_
@_ZNSt6vectorIN6openmc15TallyDerivativeESaIS1_EEC1ERKS3_ = weak_odr unnamed_addr alias void (ptr, ptr), ptr @_ZNSt6vectorIN6openmc15TallyDerivativeESaIS1_EEC2ERKS3_
@_ZNSt6vectorIN6openmc15TallyDerivativeESaIS1_EEC1ERKS3_RKS2_ = weak_odr unnamed_addr alias void (ptr, ptr, ptr), ptr @_ZNSt6vectorIN6openmc15TallyDerivativeESaIS1_EEC2ERKS3_RKS2_
@_ZNSt6vectorIN6openmc15TallyDerivativeESaIS1_EEC1EOS3_RKS2_St17integral_constantIbLb1EE = weak_odr unnamed_addr alias void (ptr, ptr, ptr), ptr @_ZNSt6vectorIN6openmc15TallyDerivativeESaIS1_EEC2EOS3_RKS2_St17integral_constantIbLb1EE
@_ZNSt6vectorIN6openmc15TallyDerivativeESaIS1_EEC1EOS3_RKS2_St17integral_constantIbLb0EE = weak_odr unnamed_addr alias void (ptr, ptr, ptr), ptr @_ZNSt6vectorIN6openmc15TallyDerivativeESaIS1_EEC2EOS3_RKS2_St17integral_constantIbLb0EE
@_ZNSt6vectorIN6openmc15TallyDerivativeESaIS1_EEC1EOS3_RKS2_ = weak_odr unnamed_addr alias void (ptr, ptr, ptr), ptr @_ZNSt6vectorIN6openmc15TallyDerivativeESaIS1_EEC2EOS3_RKS2_
@_ZNSt6vectorIN6openmc15TallyDerivativeESaIS1_EEC1ESt16initializer_listIS1_ERKS2_ = weak_odr unnamed_addr alias void (ptr, ptr, i64, ptr), ptr @_ZNSt6vectorIN6openmc15TallyDerivativeESaIS1_EEC2ESt16initializer_listIS1_ERKS2_
@_ZNSt6vectorIN6openmc15TallyDerivativeESaIS1_EED1Ev = weak_odr unnamed_addr alias void (ptr), ptr @_ZNSt6vectorIN6openmc15TallyDerivativeESaIS1_EED2Ev
@_ZNSt6vectorIN6openmc15TallyDerivativeESaIS1_EE16_Temporary_value8_StorageC1Ev = weak_odr unnamed_addr alias void (ptr), ptr @_ZNSt6vectorIN6openmc15TallyDerivativeESaIS1_EE16_Temporary_value8_StorageC2Ev
@_ZNSt6vectorIN6openmc15TallyDerivativeESaIS1_EE16_Temporary_valueD1Ev = weak_odr unnamed_addr alias void (ptr), ptr @_ZNSt6vectorIN6openmc15TallyDerivativeESaIS1_EE16_Temporary_valueD2Ev
@_ZNSt6vectorIN6openmc15TallyDerivativeESaIS1_EE16_Temporary_value8_StorageD1Ev = weak_odr unnamed_addr alias void (ptr), ptr @_ZNSt6vectorIN6openmc15TallyDerivativeESaIS1_EE16_Temporary_value8_StorageD2Ev
@_ZN6openmc15TallyDerivativeC1EN4pugi8xml_nodeE = unnamed_addr alias void (ptr, ptr), ptr @_ZN6openmc15TallyDerivativeC2EN4pugi8xml_nodeE

; Function Attrs: uwtable
define internal void @__cxx_global_var_init() #0 section ".text.startup" {
entry:
  call void @_ZNSt8ios_base4InitC1Ev(ptr noundef nonnull align 1 dereferenceable(1) @_ZStL8__ioinit)
  %0 = call i32 @__cxa_atexit(ptr @_ZNSt8ios_base4InitD1Ev, ptr @_ZStL8__ioinit, ptr @__dso_handle) #3
  ret void
}

declare void @_ZNSt8ios_base4InitC1Ev(ptr noundef nonnull align 1 dereferenceable(1)) unnamed_addr #1

; Function Attrs: nounwind
declare void @_ZNSt8ios_base4InitD1Ev(ptr noundef nonnull align 1 dereferenceable(1)) unnamed_addr #2

; Function Attrs: nounwind
declare i32 @__cxa_atexit(ptr, ptr, ptr) #3

; Function Attrs: mustprogress nounwind uwtable
define weak_odr noundef zeroext i1 @_ZNSt6vectorIN6openmc15TallyDerivativeESaIS1_EE19_S_nothrow_relocateESt17integral_constantIbLb1EE() #4 comdat align 2 {
entry:
  %0 = alloca %"struct.std::integral_constant", align 1
  ret i1 true
}

; Function Attrs: mustprogress nounwind uwtable
define weak_odr noundef zeroext i1 @_ZNSt6vectorIN6openmc15TallyDerivativeESaIS1_EE19_S_nothrow_relocateESt17integral_constantIbLb0EE() #4 comdat align 2 {
entry:
  %0 = alloca %"struct.std::integral_constant.0", align 1
  ret i1 false
}

; Function Attrs: mustprogress nounwind uwtable
define weak_odr noundef zeroext i1 @_ZNSt6vectorIN6openmc15TallyDerivativeESaIS1_EE15_S_use_relocateEv() #4 comdat align 2 {
entry:
  %agg.tmp = alloca %"struct.std::integral_constant", align 1
  %ref.tmp = alloca %"struct.std::__is_move_insertable", align 1
  call void @llvm.lifetime.start.p0(i64 1, ptr %ref.tmp) #3
  %call = call noundef zeroext i1 @_ZNSt6vectorIN6openmc15TallyDerivativeESaIS1_EE19_S_nothrow_relocateESt17integral_constantIbLb1EE()
  call void @llvm.lifetime.end.p0(i64 1, ptr %ref.tmp) #3
  ret i1 %call
}

; Function Attrs: nocallback nofree nosync nounwind willreturn memory(argmem: readwrite)
declare void @llvm.lifetime.start.p0(i64 immarg, ptr captures(none)) #5

; Function Attrs: nocallback nofree nosync nounwind willreturn memory(argmem: readwrite)
declare void @llvm.lifetime.end.p0(i64 immarg, ptr captures(none)) #5

; Function Attrs: mustprogress nounwind uwtable
define weak_odr noundef ptr @_ZNSt6vectorIN6openmc15TallyDerivativeESaIS1_EE14_S_do_relocateEPS1_S4_S4_RS2_St17integral_constantIbLb1EE(ptr noundef %__first, ptr noundef %__last, ptr noundef %__result, ptr noundef nonnull align 1 dereferenceable(1) %__alloc) #4 comdat align 2 {
entry:
  %0 = alloca %"struct.std::integral_constant", align 1
  %__first.addr = alloca ptr, align 8
  %__last.addr = alloca ptr, align 8
  %__result.addr = alloca ptr, align 8
  %__alloc.addr = alloca ptr, align 8
  store ptr %__first, ptr %__first.addr, align 8, !tbaa !17
  store ptr %__last, ptr %__last.addr, align 8, !tbaa !17
  store ptr %__result, ptr %__result.addr, align 8, !tbaa !17
  store ptr %__alloc, ptr %__alloc.addr, align 8, !tbaa !22
  %1 = load ptr, ptr %__first.addr, align 8, !tbaa !17
  %2 = load ptr, ptr %__last.addr, align 8, !tbaa !17
  %3 = load ptr, ptr %__result.addr, align 8, !tbaa !17
  %4 = load ptr, ptr %__alloc.addr, align 8, !tbaa !22
  %call = call noundef ptr @_ZSt12__relocate_aIPN6openmc15TallyDerivativeES2_SaIS1_EET0_T_S5_S4_RT1_(ptr noundef %1, ptr noundef %2, ptr noundef %3, ptr noundef nonnull align 1 dereferenceable(1) %4) #3
  ret ptr %call
}

; Function Attrs: inlinehint mustprogress nounwind uwtable
define linkonce_odr noundef ptr @_ZSt12__relocate_aIPN6openmc15TallyDerivativeES2_SaIS1_EET0_T_S5_S4_RT1_(ptr noundef %__first, ptr noundef %__last, ptr noundef %__result, ptr noundef nonnull align 1 dereferenceable(1) %__alloc) #6 comdat {
entry:
  %__first.addr = alloca ptr, align 8
  %__last.addr = alloca ptr, align 8
  %__result.addr = alloca ptr, align 8
  %__alloc.addr = alloca ptr, align 8
  store ptr %__first, ptr %__first.addr, align 8, !tbaa !17
  store ptr %__last, ptr %__last.addr, align 8, !tbaa !17
  store ptr %__result, ptr %__result.addr, align 8, !tbaa !17
  store ptr %__alloc, ptr %__alloc.addr, align 8, !tbaa !22
  %0 = load ptr, ptr %__first.addr, align 8, !tbaa !17
  %call = call noundef ptr @_ZSt12__niter_baseIPN6openmc15TallyDerivativeEET_S3_(ptr noundef %0) #3
  %1 = load ptr, ptr %__last.addr, align 8, !tbaa !17
  %call1 = call noundef ptr @_ZSt12__niter_baseIPN6openmc15TallyDerivativeEET_S3_(ptr noundef %1) #3
  %2 = load ptr, ptr %__result.addr, align 8, !tbaa !17
  %call2 = call noundef ptr @_ZSt12__niter_baseIPN6openmc15TallyDerivativeEET_S3_(ptr noundef %2) #3
  %3 = load ptr, ptr %__alloc.addr, align 8, !tbaa !22
  %call3 = call noundef ptr @_ZSt14__relocate_a_1IPN6openmc15TallyDerivativeES2_SaIS1_EET0_T_S5_S4_RT1_(ptr noundef %call, ptr noundef %call1, ptr noundef %call2, ptr noundef nonnull align 1 dereferenceable(1) %3) #3
  ret ptr %call3
}

; Function Attrs: inlinehint mustprogress nounwind uwtable
define linkonce_odr noundef ptr @_ZSt14__relocate_a_1IPN6openmc15TallyDerivativeES2_SaIS1_EET0_T_S5_S4_RT1_(ptr noundef %__first, ptr noundef %__last, ptr noundef %__result, ptr noundef nonnull align 1 dereferenceable(1) %__alloc) #6 comdat {
entry:
  %__first.addr = alloca ptr, align 8
  %__last.addr = alloca ptr, align 8
  %__result.addr = alloca ptr, align 8
  %__alloc.addr = alloca ptr, align 8
  %__cur = alloca ptr, align 8
  store ptr %__first, ptr %__first.addr, align 8, !tbaa !17
  store ptr %__last, ptr %__last.addr, align 8, !tbaa !17
  store ptr %__result, ptr %__result.addr, align 8, !tbaa !17
  store ptr %__alloc, ptr %__alloc.addr, align 8, !tbaa !22
  call void @llvm.lifetime.start.p0(i64 8, ptr %__cur) #3
  %0 = load ptr, ptr %__result.addr, align 8, !tbaa !17
  store ptr %0, ptr %__cur, align 8, !tbaa !17
  br label %for.cond

for.cond:                                         ; preds = %for.inc, %entry
  %1 = load ptr, ptr %__first.addr, align 8, !tbaa !17
  %2 = load ptr, ptr %__last.addr, align 8, !tbaa !17
  %cmp = icmp ne ptr %1, %2
  br i1 %cmp, label %for.body, label %for.end

for.body:                                         ; preds = %for.cond
  %3 = load ptr, ptr %__cur, align 8, !tbaa !17
  %4 = load ptr, ptr %__first.addr, align 8, !tbaa !17
  %5 = load ptr, ptr %__alloc.addr, align 8, !tbaa !22
  call void @_ZSt19__relocate_object_aIN6openmc15TallyDerivativeES1_SaIS1_EEvPT_PT0_RT1_(ptr noundef %3, ptr noundef %4, ptr noundef nonnull align 1 dereferenceable(1) %5) #3
  br label %for.inc

for.inc:                                          ; preds = %for.body
  %6 = load ptr, ptr %__first.addr, align 8, !tbaa !17
  %incdec.ptr = getelementptr inbounds nuw %"struct.openmc::TallyDerivative", ptr %6, i32 1
  store ptr %incdec.ptr, ptr %__first.addr, align 8, !tbaa !17
  %7 = load ptr, ptr %__cur, align 8, !tbaa !17
  %incdec.ptr1 = getelementptr inbounds nuw %"struct.openmc::TallyDerivative", ptr %7, i32 1
  store ptr %incdec.ptr1, ptr %__cur, align 8, !tbaa !17
  br label %for.cond, !llvm.loop !24

for.end:                                          ; preds = %for.cond
  %8 = load ptr, ptr %__cur, align 8, !tbaa !17
  call void @llvm.lifetime.end.p0(i64 8, ptr %__cur) #3
  ret ptr %8
}

; Function Attrs: inlinehint mustprogress nounwind uwtable
define linkonce_odr noundef ptr @_ZSt12__niter_baseIPN6openmc15TallyDerivativeEET_S3_(ptr noundef %__it) #6 comdat {
entry:
  %__it.addr = alloca ptr, align 8
  store ptr %__it, ptr %__it.addr, align 8, !tbaa !17
  %0 = load ptr, ptr %__it.addr, align 8, !tbaa !17
  ret ptr %0
}

; Function Attrs: inlinehint mustprogress nounwind uwtable
define linkonce_odr void @_ZSt19__relocate_object_aIN6openmc15TallyDerivativeES1_SaIS1_EEvPT_PT0_RT1_(ptr noalias noundef %__dest, ptr noalias noundef %__orig, ptr noundef nonnull align 1 dereferenceable(1) %__alloc) #6 comdat {
entry:
  %__dest.addr = alloca ptr, align 8
  %__orig.addr = alloca ptr, align 8
  %__alloc.addr = alloca ptr, align 8
  store ptr %__dest, ptr %__dest.addr, align 8, !tbaa !17
  store ptr %__orig, ptr %__orig.addr, align 8, !tbaa !17
  store ptr %__alloc, ptr %__alloc.addr, align 8, !tbaa !22
  %0 = load ptr, ptr %__alloc.addr, align 8, !tbaa !22
  %1 = load ptr, ptr %__dest.addr, align 8, !tbaa !17
  %2 = load ptr, ptr %__orig.addr, align 8, !tbaa !17
  call void @_ZNSt16allocator_traitsISaIN6openmc15TallyDerivativeEEE9constructIS1_JS1_EEEvRS2_PT_DpOT0_(ptr noundef nonnull align 1 dereferenceable(1) %0, ptr noundef %1, ptr noundef nonnull align 4 dereferenceable(16) %2) #3
  %3 = load ptr, ptr %__alloc.addr, align 8, !tbaa !22
  %4 = load ptr, ptr %__orig.addr, align 8, !tbaa !17
  call void @_ZNSt16allocator_traitsISaIN6openmc15TallyDerivativeEEE7destroyIS1_EEvRS2_PT_(ptr noundef nonnull align 1 dereferenceable(1) %3, ptr noundef %4) #3
  ret void
}

; Function Attrs: mustprogress nounwind uwtable
define linkonce_odr void @_ZNSt16allocator_traitsISaIN6openmc15TallyDerivativeEEE9constructIS1_JS1_EEEvRS2_PT_DpOT0_(ptr noundef nonnull align 1 dereferenceable(1) %__a, ptr noundef %__p, ptr noundef nonnull align 4 dereferenceable(16) %__args) #4 comdat align 2 {
entry:
  %__a.addr = alloca ptr, align 8
  %__p.addr = alloca ptr, align 8
  %__args.addr = alloca ptr, align 8
  store ptr %__a, ptr %__a.addr, align 8, !tbaa !22
  store ptr %__p, ptr %__p.addr, align 8, !tbaa !17
  store ptr %__args, ptr %__args.addr, align 8, !tbaa !17
  %0 = load ptr, ptr %__a.addr, align 8, !tbaa !22
  %1 = load ptr, ptr %__p.addr, align 8, !tbaa !17
  %2 = load ptr, ptr %__args.addr, align 8, !tbaa !17
  call void @_ZNSt15__new_allocatorIN6openmc15TallyDerivativeEE9constructIS1_JS1_EEEvPT_DpOT0_(ptr noundef nonnull align 1 dereferenceable(1) %0, ptr noundef %1, ptr noundef nonnull align 4 dereferenceable(16) %2) #3
  ret void
}

; Function Attrs: mustprogress nounwind uwtable
define linkonce_odr void @_ZNSt16allocator_traitsISaIN6openmc15TallyDerivativeEEE7destroyIS1_EEvRS2_PT_(ptr noundef nonnull align 1 dereferenceable(1) %__a, ptr noundef %__p) #4 comdat align 2 {
entry:
  %__a.addr = alloca ptr, align 8
  %__p.addr = alloca ptr, align 8
  store ptr %__a, ptr %__a.addr, align 8, !tbaa !22
  store ptr %__p, ptr %__p.addr, align 8, !tbaa !17
  %0 = load ptr, ptr %__a.addr, align 8, !tbaa !22
  %1 = load ptr, ptr %__p.addr, align 8, !tbaa !17
  call void @_ZNSt15__new_allocatorIN6openmc15TallyDerivativeEE7destroyIS1_EEvPT_(ptr noundef nonnull align 1 dereferenceable(1) %0, ptr noundef %1) #3
  ret void
}

; Function Attrs: mustprogress nounwind uwtable
define linkonce_odr void @_ZNSt15__new_allocatorIN6openmc15TallyDerivativeEE9constructIS1_JS1_EEEvPT_DpOT0_(ptr noundef nonnull align 1 dereferenceable(1) %this, ptr noundef %__p, ptr noundef nonnull align 4 dereferenceable(16) %__args) #4 comdat align 2 {
entry:
  %this.addr = alloca ptr, align 8
  %__p.addr = alloca ptr, align 8
  %__args.addr = alloca ptr, align 8
  store ptr %this, ptr %this.addr, align 8, !tbaa !26
  store ptr %__p, ptr %__p.addr, align 8, !tbaa !17
  store ptr %__args, ptr %__args.addr, align 8, !tbaa !17
  %this1 = load ptr, ptr %this.addr, align 8
  %0 = load ptr, ptr %__p.addr, align 8, !tbaa !17
  %1 = load ptr, ptr %__args.addr, align 8, !tbaa !17
  call void @llvm.memcpy.p0.p0.i64(ptr align 4 %0, ptr align 4 %1, i64 16, i1 false), !tbaa.struct !28
  ret void
}

; Function Attrs: nocallback nofree nounwind willreturn memory(argmem: readwrite)
declare void @llvm.memcpy.p0.p0.i64(ptr noalias writeonly captures(none), ptr noalias readonly captures(none), i64, i1 immarg) #7

; Function Attrs: mustprogress nounwind uwtable
define linkonce_odr void @_ZNSt15__new_allocatorIN6openmc15TallyDerivativeEE7destroyIS1_EEvPT_(ptr noundef nonnull align 1 dereferenceable(1) %this, ptr noundef %__p) #4 comdat align 2 {
entry:
  %this.addr = alloca ptr, align 8
  %__p.addr = alloca ptr, align 8
  store ptr %this, ptr %this.addr, align 8, !tbaa !26
  store ptr %__p, ptr %__p.addr, align 8, !tbaa !17
  %this1 = load ptr, ptr %this.addr, align 8
  %0 = load ptr, ptr %__p.addr, align 8, !tbaa !17
  ret void
}

; Function Attrs: mustprogress nounwind uwtable
define weak_odr noundef ptr @_ZNSt6vectorIN6openmc15TallyDerivativeESaIS1_EE14_S_do_relocateEPS1_S4_S4_RS2_St17integral_constantIbLb0EE(ptr noundef %0, ptr noundef %1, ptr noundef %__result, ptr noundef nonnull align 1 dereferenceable(1) %2) #4 comdat align 2 {
entry:
  %3 = alloca %"struct.std::integral_constant.0", align 1
  %.addr = alloca ptr, align 8
  %.addr1 = alloca ptr, align 8
  %__result.addr = alloca ptr, align 8
  %.addr2 = alloca ptr, align 8
  store ptr %0, ptr %.addr, align 8, !tbaa !17
  store ptr %1, ptr %.addr1, align 8, !tbaa !17
  store ptr %__result, ptr %__result.addr, align 8, !tbaa !17
  store ptr %2, ptr %.addr2, align 8, !tbaa !22
  %4 = load ptr, ptr %__result.addr, align 8, !tbaa !17
  ret ptr %4
}

; Function Attrs: mustprogress nounwind uwtable
define weak_odr noundef ptr @_ZNSt6vectorIN6openmc15TallyDerivativeESaIS1_EE11_S_relocateEPS1_S4_S4_RS2_(ptr noundef %__first, ptr noundef %__last, ptr noundef %__result, ptr noundef nonnull align 1 dereferenceable(1) %__alloc) #4 comdat align 2 {
entry:
  %__first.addr = alloca ptr, align 8
  %__last.addr = alloca ptr, align 8
  %__result.addr = alloca ptr, align 8
  %__alloc.addr = alloca ptr, align 8
  store ptr %__first, ptr %__first.addr, align 8, !tbaa !17
  store ptr %__last, ptr %__last.addr, align 8, !tbaa !17
  store ptr %__result, ptr %__result.addr, align 8, !tbaa !17
  store ptr %__alloc, ptr %__alloc.addr, align 8, !tbaa !22
  %0 = load ptr, ptr %__first.addr, align 8, !tbaa !17
  %1 = load ptr, ptr %__last.addr, align 8, !tbaa !17
  %2 = load ptr, ptr %__result.addr, align 8, !tbaa !17
  %3 = load ptr, ptr %__alloc.addr, align 8, !tbaa !22
  %call = call noundef ptr @_ZSt12__relocate_aIPN6openmc15TallyDerivativeES2_SaIS1_EET0_T_S5_S4_RT1_(ptr noundef %0, ptr noundef %1, ptr noundef %2, ptr noundef nonnull align 1 dereferenceable(1) %3) #3
  ret ptr %call
}

; Function Attrs: mustprogress nounwind uwtable
define weak_odr void @_ZNSt6vectorIN6openmc15TallyDerivativeESaIS1_EEC2ERKS2_(ptr noundef nonnull align 8 dereferenceable(24) %this, ptr noundef nonnull align 1 dereferenceable(1) %__a) unnamed_addr #4 comdat($_ZNSt6vectorIN6openmc15TallyDerivativeESaIS1_EEC5ERKS2_) align 2 {
entry:
  %this.addr = alloca ptr, align 8
  %__a.addr = alloca ptr, align 8
  store ptr %this, ptr %this.addr, align 8, !tbaa !33
  store ptr %__a, ptr %__a.addr, align 8, !tbaa !22
  %this1 = load ptr, ptr %this.addr, align 8
  %0 = load ptr, ptr %__a.addr, align 8, !tbaa !22
  call void @_ZNSt12_Vector_baseIN6openmc15TallyDerivativeESaIS1_EEC2ERKS2_(ptr noundef nonnull align 8 dereferenceable(24) %this1, ptr noundef nonnull align 1 dereferenceable(1) %0) #3
  ret void
}

; Function Attrs: mustprogress nounwind uwtable
define linkonce_odr void @_ZNSt12_Vector_baseIN6openmc15TallyDerivativeESaIS1_EEC2ERKS2_(ptr noundef nonnull align 8 dereferenceable(24) %this, ptr noundef nonnull align 1 dereferenceable(1) %__a) unnamed_addr #4 comdat align 2 {
entry:
  %this.addr = alloca ptr, align 8
  %__a.addr = alloca ptr, align 8
  store ptr %this, ptr %this.addr, align 8, !tbaa !35
  store ptr %__a, ptr %__a.addr, align 8, !tbaa !22
  %this1 = load ptr, ptr %this.addr, align 8
  %_M_impl = getelementptr inbounds nuw %"struct.std::_Vector_base", ptr %this1, i32 0, i32 0
  %0 = load ptr, ptr %__a.addr, align 8, !tbaa !22
  call void @_ZNSt12_Vector_baseIN6openmc15TallyDerivativeESaIS1_EE12_Vector_implC2ERKS2_(ptr noundef nonnull align 8 dereferenceable(24) %_M_impl, ptr noundef nonnull align 1 dereferenceable(1) %0) #3
  ret void
}

; Function Attrs: mustprogress nounwind uwtable
define linkonce_odr void @_ZNSt12_Vector_baseIN6openmc15TallyDerivativeESaIS1_EE12_Vector_implC2ERKS2_(ptr noundef nonnull align 8 dereferenceable(24) %this, ptr noundef nonnull align 1 dereferenceable(1) %__a) unnamed_addr #4 comdat align 2 {
entry:
  %this.addr = alloca ptr, align 8
  %__a.addr = alloca ptr, align 8
  store ptr %this, ptr %this.addr, align 8, !tbaa !37
  store ptr %__a, ptr %__a.addr, align 8, !tbaa !22
  %this1 = load ptr, ptr %this.addr, align 8
  %0 = load ptr, ptr %__a.addr, align 8, !tbaa !22
  call void @_ZNSaIN6openmc15TallyDerivativeEEC2ERKS1_(ptr noundef nonnull align 1 dereferenceable(1) %this1, ptr noundef nonnull align 1 dereferenceable(1) %0) #3
  call void @_ZNSt12_Vector_baseIN6openmc15TallyDerivativeESaIS1_EE17_Vector_impl_dataC2Ev(ptr noundef nonnull align 8 dereferenceable(24) %this1) #3
  ret void
}

; Function Attrs: mustprogress nounwind uwtable
define linkonce_odr void @_ZNSt15__new_allocatorIN6openmc15TallyDerivativeEEC2ERKS2_(ptr noundef nonnull align 1 dereferenceable(1) %this, ptr noundef nonnull align 1 dereferenceable(1) %0) unnamed_addr #4 comdat align 2 {
entry:
  %this.addr = alloca ptr, align 8
  %.addr = alloca ptr, align 8
  store ptr %this, ptr %this.addr, align 8, !tbaa !26
  store ptr %0, ptr %.addr, align 8, !tbaa !26
  %this1 = load ptr, ptr %this.addr, align 8
  ret void
}

; Function Attrs: mustprogress uwtable
define weak_odr void @_ZNSt6vectorIN6openmc15TallyDerivativeESaIS1_EEC2EmRKS2_(ptr noundef nonnull align 8 dereferenceable(24) %this, i64 noundef %__n, ptr noundef nonnull align 1 dereferenceable(1) %__a) unnamed_addr #8 comdat($_ZNSt6vectorIN6openmc15TallyDerivativeESaIS1_EEC5EmRKS2_) align 2 personality ptr @__gxx_personality_v0 {
entry:
  %this.addr = alloca ptr, align 8
  %__n.addr = alloca i64, align 8
  %__a.addr = alloca ptr, align 8
  %exn.slot = alloca ptr, align 8
  %ehselector.slot = alloca i32, align 4
  store ptr %this, ptr %this.addr, align 8, !tbaa !33
  store i64 %__n, ptr %__n.addr, align 8, !tbaa !39
  store ptr %__a, ptr %__a.addr, align 8, !tbaa !22
  %this1 = load ptr, ptr %this.addr, align 8
  %0 = load i64, ptr %__n.addr, align 8, !tbaa !39
  %1 = load ptr, ptr %__a.addr, align 8, !tbaa !22
  %call = call noundef i64 @_ZNSt6vectorIN6openmc15TallyDerivativeESaIS1_EE17_S_check_init_lenEmRKS2_(i64 noundef %0, ptr noundef nonnull align 1 dereferenceable(1) %1)
  %2 = load ptr, ptr %__a.addr, align 8, !tbaa !22
  call void @_ZNSt12_Vector_baseIN6openmc15TallyDerivativeESaIS1_EEC2EmRKS2_(ptr noundef nonnull align 8 dereferenceable(24) %this1, i64 noundef %call, ptr noundef nonnull align 1 dereferenceable(1) %2)
  %3 = load i64, ptr %__n.addr, align 8, !tbaa !39
  invoke void @_ZNSt6vectorIN6openmc15TallyDerivativeESaIS1_EE21_M_default_initializeEm(ptr noundef nonnull align 8 dereferenceable(24) %this1, i64 noundef %3)
          to label %invoke.cont unwind label %lpad

invoke.cont:                                      ; preds = %entry
  ret void

lpad:                                             ; preds = %entry
  %4 = landingpad { ptr, i32 }
          cleanup
  %5 = extractvalue { ptr, i32 } %4, 0
  store ptr %5, ptr %exn.slot, align 8
  %6 = extractvalue { ptr, i32 } %4, 1
  store i32 %6, ptr %ehselector.slot, align 4
  call void @_ZNSt12_Vector_baseIN6openmc15TallyDerivativeESaIS1_EED2Ev(ptr noundef nonnull align 8 dereferenceable(24) %this1) #3
  br label %eh.resume

eh.resume:                                        ; preds = %lpad
  %exn = load ptr, ptr %exn.slot, align 8
  %sel = load i32, ptr %ehselector.slot, align 4
  %lpad.val = insertvalue { ptr, i32 } poison, ptr %exn, 0
  %lpad.val2 = insertvalue { ptr, i32 } %lpad.val, i32 %sel, 1
  resume { ptr, i32 } %lpad.val2
}

; Function Attrs: mustprogress uwtable
define weak_odr noundef i64 @_ZNSt6vectorIN6openmc15TallyDerivativeESaIS1_EE17_S_check_init_lenEmRKS2_(i64 noundef %__n, ptr noundef nonnull align 1 dereferenceable(1) %__a) #8 comdat align 2 {
entry:
  %__n.addr = alloca i64, align 8
  %__a.addr = alloca ptr, align 8
  %ref.tmp = alloca %"class.std::allocator", align 1
  store i64 %__n, ptr %__n.addr, align 8, !tbaa !39
  store ptr %__a, ptr %__a.addr, align 8, !tbaa !22
  %0 = load i64, ptr %__n.addr, align 8, !tbaa !39
  call void @llvm.lifetime.start.p0(i64 1, ptr %ref.tmp) #3
  %1 = load ptr, ptr %__a.addr, align 8, !tbaa !22
  call void @_ZNSaIN6openmc15TallyDerivativeEEC2ERKS1_(ptr noundef nonnull align 1 dereferenceable(1) %ref.tmp, ptr noundef nonnull align 1 dereferenceable(1) %1) #3
  %call = call noundef i64 @_ZNSt6vectorIN6openmc15TallyDerivativeESaIS1_EE11_S_max_sizeERKS2_(ptr noundef nonnull align 1 dereferenceable(1) %ref.tmp) #3
  %cmp = icmp ugt i64 %0, %call
  call void @_ZNSt15__new_allocatorIN6openmc15TallyDerivativeEED2Ev(ptr noundef nonnull align 1 dereferenceable(1) %ref.tmp) #3
  call void @llvm.lifetime.end.p0(i64 1, ptr %ref.tmp) #3
  br i1 %cmp, label %if.then, label %if.end

if.then:                                          ; preds = %entry
  call void @_ZSt20__throw_length_errorPKc(ptr noundef @.str) #25
  unreachable

if.end:                                           ; preds = %entry
  %2 = load i64, ptr %__n.addr, align 8, !tbaa !39
  ret i64 %2
}

; Function Attrs: mustprogress uwtable
define linkonce_odr void @_ZNSt12_Vector_baseIN6openmc15TallyDerivativeESaIS1_EEC2EmRKS2_(ptr noundef nonnull align 8 dereferenceable(24) %this, i64 noundef %__n, ptr noundef nonnull align 1 dereferenceable(1) %__a) unnamed_addr #8 comdat align 2 personality ptr @__gxx_personality_v0 {
entry:
  %this.addr = alloca ptr, align 8
  %__n.addr = alloca i64, align 8
  %__a.addr = alloca ptr, align 8
  %exn.slot = alloca ptr, align 8
  %ehselector.slot = alloca i32, align 4
  store ptr %this, ptr %this.addr, align 8, !tbaa !35
  store i64 %__n, ptr %__n.addr, align 8, !tbaa !39
  store ptr %__a, ptr %__a.addr, align 8, !tbaa !22
  %this1 = load ptr, ptr %this.addr, align 8
  %_M_impl = getelementptr inbounds nuw %"struct.std::_Vector_base", ptr %this1, i32 0, i32 0
  %0 = load ptr, ptr %__a.addr, align 8, !tbaa !22
  call void @_ZNSt12_Vector_baseIN6openmc15TallyDerivativeESaIS1_EE12_Vector_implC2ERKS2_(ptr noundef nonnull align 8 dereferenceable(24) %_M_impl, ptr noundef nonnull align 1 dereferenceable(1) %0) #3
  %1 = load i64, ptr %__n.addr, align 8, !tbaa !39
  invoke void @_ZNSt12_Vector_baseIN6openmc15TallyDerivativeESaIS1_EE17_M_create_storageEm(ptr noundef nonnull align 8 dereferenceable(24) %this1, i64 noundef %1)
          to label %invoke.cont unwind label %lpad

invoke.cont:                                      ; preds = %entry
  ret void

lpad:                                             ; preds = %entry
  %2 = landingpad { ptr, i32 }
          cleanup
  %3 = extractvalue { ptr, i32 } %2, 0
  store ptr %3, ptr %exn.slot, align 8
  %4 = extractvalue { ptr, i32 } %2, 1
  store i32 %4, ptr %ehselector.slot, align 4
  call void @_ZNSt15__new_allocatorIN6openmc15TallyDerivativeEED2Ev(ptr noundef nonnull align 8 dereferenceable(24) %_M_impl) #3
  br label %eh.resume

eh.resume:                                        ; preds = %lpad
  %exn = load ptr, ptr %exn.slot, align 8
  %sel = load i32, ptr %ehselector.slot, align 4
  %lpad.val = insertvalue { ptr, i32 } poison, ptr %exn, 0
  %lpad.val2 = insertvalue { ptr, i32 } %lpad.val, i32 %sel, 1
  resume { ptr, i32 } %lpad.val2
}

; Function Attrs: mustprogress uwtable
define weak_odr void @_ZNSt6vectorIN6openmc15TallyDerivativeESaIS1_EE21_M_default_initializeEm(ptr noundef nonnull align 8 dereferenceable(24) %this, i64 noundef %__n) #8 comdat align 2 {
entry:
  %this.addr = alloca ptr, align 8
  %__n.addr = alloca i64, align 8
  store ptr %this, ptr %this.addr, align 8, !tbaa !33
  store i64 %__n, ptr %__n.addr, align 8, !tbaa !39
  %this1 = load ptr, ptr %this.addr, align 8
  %_M_impl = getelementptr inbounds nuw %"struct.std::_Vector_base", ptr %this1, i32 0, i32 0
  %_M_start = getelementptr inbounds nuw %"struct.std::_Vector_base<openmc::TallyDerivative, std::allocator<openmc::TallyDerivative>>::_Vector_impl_data", ptr %_M_impl, i32 0, i32 0
  %0 = load ptr, ptr %_M_start, align 8, !tbaa !41
  %1 = load i64, ptr %__n.addr, align 8, !tbaa !39
  %call = call noundef nonnull align 1 dereferenceable(1) ptr @_ZNSt12_Vector_baseIN6openmc15TallyDerivativeESaIS1_EE19_M_get_Tp_allocatorEv(ptr noundef nonnull align 8 dereferenceable(24) %this1) #3
  %call2 = call noundef ptr @_ZSt27__uninitialized_default_n_aIPN6openmc15TallyDerivativeEmS1_ET_S3_T0_RSaIT1_E(ptr noundef %0, i64 noundef %1, ptr noundef nonnull align 1 dereferenceable(1) %call)
  %_M_impl3 = getelementptr inbounds nuw %"struct.std::_Vector_base", ptr %this1, i32 0, i32 0
  %_M_finish = getelementptr inbounds nuw %"struct.std::_Vector_base<openmc::TallyDerivative, std::allocator<openmc::TallyDerivative>>::_Vector_impl_data", ptr %_M_impl3, i32 0, i32 1
  store ptr %call2, ptr %_M_finish, align 8, !tbaa !43
  ret void
}

declare i32 @__gxx_personality_v0(...)

; Function Attrs: mustprogress nounwind uwtable
define linkonce_odr void @_ZNSt12_Vector_baseIN6openmc15TallyDerivativeESaIS1_EED2Ev(ptr noundef nonnull align 8 dereferenceable(24) %this) unnamed_addr #4 comdat align 2 personality ptr @__gxx_personality_v0 {
entry:
  %this.addr = alloca ptr, align 8
  store ptr %this, ptr %this.addr, align 8, !tbaa !35
  %this1 = load ptr, ptr %this.addr, align 8
  %_M_impl = getelementptr inbounds nuw %"struct.std::_Vector_base", ptr %this1, i32 0, i32 0
  %_M_start = getelementptr inbounds nuw %"struct.std::_Vector_base<openmc::TallyDerivative, std::allocator<openmc::TallyDerivative>>::_Vector_impl_data", ptr %_M_impl, i32 0, i32 0
  %0 = load ptr, ptr %_M_start, align 8, !tbaa !41
  %_M_impl2 = getelementptr inbounds nuw %"struct.std::_Vector_base", ptr %this1, i32 0, i32 0
  %_M_end_of_storage = getelementptr inbounds nuw %"struct.std::_Vector_base<openmc::TallyDerivative, std::allocator<openmc::TallyDerivative>>::_Vector_impl_data", ptr %_M_impl2, i32 0, i32 2
  %1 = load ptr, ptr %_M_end_of_storage, align 8, !tbaa !44
  %_M_impl3 = getelementptr inbounds nuw %"struct.std::_Vector_base", ptr %this1, i32 0, i32 0
  %_M_start4 = getelementptr inbounds nuw %"struct.std::_Vector_base<openmc::TallyDerivative, std::allocator<openmc::TallyDerivative>>::_Vector_impl_data", ptr %_M_impl3, i32 0, i32 0
  %2 = load ptr, ptr %_M_start4, align 8, !tbaa !41
  %sub.ptr.lhs.cast = ptrtoint ptr %1 to i64
  %sub.ptr.rhs.cast = ptrtoint ptr %2 to i64
  %sub.ptr.sub = sub i64 %sub.ptr.lhs.cast, %sub.ptr.rhs.cast
  %sub.ptr.div = sdiv exact i64 %sub.ptr.sub, 16
  invoke void @_ZNSt12_Vector_baseIN6openmc15TallyDerivativeESaIS1_EE13_M_deallocateEPS1_m(ptr noundef nonnull align 8 dereferenceable(24) %this1, ptr noundef %0, i64 noundef %sub.ptr.div)
          to label %invoke.cont unwind label %terminate.lpad

invoke.cont:                                      ; preds = %entry
  %_M_impl5 = getelementptr inbounds nuw %"struct.std::_Vector_base", ptr %this1, i32 0, i32 0
  call void @_ZNSt15__new_allocatorIN6openmc15TallyDerivativeEED2Ev(ptr noundef nonnull align 8 dereferenceable(24) %_M_impl5) #3
  ret void

terminate.lpad:                                   ; preds = %entry
  %3 = landingpad { ptr, i32 }
          catch ptr null
  %4 = extractvalue { ptr, i32 } %3, 0
  call void @__clang_call_terminate(ptr %4) #26
  unreachable
}

; Function Attrs: mustprogress nounwind uwtable
define weak_odr noundef i64 @_ZNSt6vectorIN6openmc15TallyDerivativeESaIS1_EE11_S_max_sizeERKS2_(ptr noundef nonnull align 1 dereferenceable(1) %__a) #4 comdat align 2 personality ptr @__gxx_personality_v0 {
entry:
  %__a.addr = alloca ptr, align 8
  %__diffmax = alloca i64, align 8
  %__allocmax = alloca i64, align 8
  store ptr %__a, ptr %__a.addr, align 8, !tbaa !22
  call void @llvm.lifetime.start.p0(i64 8, ptr %__diffmax) #3
  store i64 576460752303423487, ptr %__diffmax, align 8, !tbaa !39
  call void @llvm.lifetime.start.p0(i64 8, ptr %__allocmax) #3
  %0 = load ptr, ptr %__a.addr, align 8, !tbaa !22
  %call = call noundef i64 @_ZNSt16allocator_traitsISaIN6openmc15TallyDerivativeEEE8max_sizeERKS2_(ptr noundef nonnull align 1 dereferenceable(1) %0) #3
  store i64 %call, ptr %__allocmax, align 8, !tbaa !39
  %call1 = invoke noundef nonnull align 8 dereferenceable(8) ptr @_ZSt3minImERKT_S2_S2_(ptr noundef nonnull align 8 dereferenceable(8) %__diffmax, ptr noundef nonnull align 8 dereferenceable(8) %__allocmax)
          to label %invoke.cont unwind label %terminate.lpad

invoke.cont:                                      ; preds = %entry
  %1 = load i64, ptr %call1, align 8, !tbaa !39
  call void @llvm.lifetime.end.p0(i64 8, ptr %__allocmax) #3
  call void @llvm.lifetime.end.p0(i64 8, ptr %__diffmax) #3
  ret i64 %1

terminate.lpad:                                   ; preds = %entry
  %2 = landingpad { ptr, i32 }
          catch ptr null
  %3 = extractvalue { ptr, i32 } %2, 0
  call void @__clang_call_terminate(ptr %3) #26
  unreachable
}

; Function Attrs: mustprogress nounwind uwtable
define linkonce_odr void @_ZNSaIN6openmc15TallyDerivativeEEC2ERKS1_(ptr noundef nonnull align 1 dereferenceable(1) %this, ptr noundef nonnull align 1 dereferenceable(1) %__a) unnamed_addr #4 comdat align 2 {
entry:
  %this.addr = alloca ptr, align 8
  %__a.addr = alloca ptr, align 8
  store ptr %this, ptr %this.addr, align 8, !tbaa !22
  store ptr %__a, ptr %__a.addr, align 8, !tbaa !22
  %this1 = load ptr, ptr %this.addr, align 8
  %0 = load ptr, ptr %__a.addr, align 8, !tbaa !22
  call void @_ZNSt15__new_allocatorIN6openmc15TallyDerivativeEEC2ERKS2_(ptr noundef nonnull align 1 dereferenceable(1) %this1, ptr noundef nonnull align 1 dereferenceable(1) %0) #3
  ret void
}

; Function Attrs: noreturn
declare void @_ZSt20__throw_length_errorPKc(ptr noundef) #9

; Function Attrs: mustprogress nounwind uwtable
define linkonce_odr noundef i64 @_ZNSt16allocator_traitsISaIN6openmc15TallyDerivativeEEE8max_sizeERKS2_(ptr noundef nonnull align 1 dereferenceable(1) %__a) #4 comdat align 2 {
entry:
  %__a.addr = alloca ptr, align 8
  store ptr %__a, ptr %__a.addr, align 8, !tbaa !22
  %0 = load ptr, ptr %__a.addr, align 8, !tbaa !22
  %call = call noundef i64 @_ZNKSt15__new_allocatorIN6openmc15TallyDerivativeEE8max_sizeEv(ptr noundef nonnull align 1 dereferenceable(1) %0) #3
  ret i64 %call
}

; Function Attrs: inlinehint mustprogress nounwind uwtable
define linkonce_odr noundef nonnull align 8 dereferenceable(8) ptr @_ZSt3minImERKT_S2_S2_(ptr noundef nonnull align 8 dereferenceable(8) %__a, ptr noundef nonnull align 8 dereferenceable(8) %__b) #6 comdat {
entry:
  %retval = alloca ptr, align 8
  %__a.addr = alloca ptr, align 8
  %__b.addr = alloca ptr, align 8
  store ptr %__a, ptr %__a.addr, align 8, !tbaa !45
  store ptr %__b, ptr %__b.addr, align 8, !tbaa !45
  %0 = load ptr, ptr %__b.addr, align 8, !tbaa !45
  %1 = load i64, ptr %0, align 8, !tbaa !39
  %2 = load ptr, ptr %__a.addr, align 8, !tbaa !45
  %3 = load i64, ptr %2, align 8, !tbaa !39
  %cmp = icmp ult i64 %1, %3
  br i1 %cmp, label %if.then, label %if.end

if.then:                                          ; preds = %entry
  %4 = load ptr, ptr %__b.addr, align 8, !tbaa !45
  store ptr %4, ptr %retval, align 8
  br label %return

if.end:                                           ; preds = %entry
  %5 = load ptr, ptr %__a.addr, align 8, !tbaa !45
  store ptr %5, ptr %retval, align 8
  br label %return

return:                                           ; preds = %if.end, %if.then
  %6 = load ptr, ptr %retval, align 8
  ret ptr %6
}

; Function Attrs: noinline noreturn nounwind uwtable
define linkonce_odr hidden void @__clang_call_terminate(ptr noundef %0) #10 comdat {
  %2 = call ptr @__cxa_begin_catch(ptr %0) #3
  call void @_ZSt9terminatev() #26
  unreachable
}

declare ptr @__cxa_begin_catch(ptr)

declare void @_ZSt9terminatev()

; Function Attrs: mustprogress nounwind uwtable
define linkonce_odr noundef i64 @_ZNKSt15__new_allocatorIN6openmc15TallyDerivativeEE8max_sizeEv(ptr noundef nonnull align 1 dereferenceable(1) %this) #4 comdat align 2 {
entry:
  %this.addr = alloca ptr, align 8
  store ptr %this, ptr %this.addr, align 8, !tbaa !26
  %this1 = load ptr, ptr %this.addr, align 8
  %call = call noundef i64 @_ZNKSt15__new_allocatorIN6openmc15TallyDerivativeEE11_M_max_sizeEv(ptr noundef nonnull align 1 dereferenceable(1) %this1) #3
  ret i64 %call
}

; Function Attrs: mustprogress nounwind uwtable
define linkonce_odr noundef i64 @_ZNKSt15__new_allocatorIN6openmc15TallyDerivativeEE11_M_max_sizeEv(ptr noundef nonnull align 1 dereferenceable(1) %this) #4 comdat align 2 {
entry:
  %this.addr = alloca ptr, align 8
  store ptr %this, ptr %this.addr, align 8, !tbaa !26
  %this1 = load ptr, ptr %this.addr, align 8
  ret i64 576460752303423487
}

; Function Attrs: mustprogress uwtable
define linkonce_odr void @_ZNSt12_Vector_baseIN6openmc15TallyDerivativeESaIS1_EE17_M_create_storageEm(ptr noundef nonnull align 8 dereferenceable(24) %this, i64 noundef %__n) #8 comdat align 2 {
entry:
  %this.addr = alloca ptr, align 8
  %__n.addr = alloca i64, align 8
  store ptr %this, ptr %this.addr, align 8, !tbaa !35
  store i64 %__n, ptr %__n.addr, align 8, !tbaa !39
  %this1 = load ptr, ptr %this.addr, align 8
  %0 = load i64, ptr %__n.addr, align 8, !tbaa !39
  %call = call noundef ptr @_ZNSt12_Vector_baseIN6openmc15TallyDerivativeESaIS1_EE11_M_allocateEm(ptr noundef nonnull align 8 dereferenceable(24) %this1, i64 noundef %0)
  %_M_impl = getelementptr inbounds nuw %"struct.std::_Vector_base", ptr %this1, i32 0, i32 0
  %_M_start = getelementptr inbounds nuw %"struct.std::_Vector_base<openmc::TallyDerivative, std::allocator<openmc::TallyDerivative>>::_Vector_impl_data", ptr %_M_impl, i32 0, i32 0
  store ptr %call, ptr %_M_start, align 8, !tbaa !41
  %_M_impl2 = getelementptr inbounds nuw %"struct.std::_Vector_base", ptr %this1, i32 0, i32 0
  %_M_start3 = getelementptr inbounds nuw %"struct.std::_Vector_base<openmc::TallyDerivative, std::allocator<openmc::TallyDerivative>>::_Vector_impl_data", ptr %_M_impl2, i32 0, i32 0
  %1 = load ptr, ptr %_M_start3, align 8, !tbaa !41
  %_M_impl4 = getelementptr inbounds nuw %"struct.std::_Vector_base", ptr %this1, i32 0, i32 0
  %_M_finish = getelementptr inbounds nuw %"struct.std::_Vector_base<openmc::TallyDerivative, std::allocator<openmc::TallyDerivative>>::_Vector_impl_data", ptr %_M_impl4, i32 0, i32 1
  store ptr %1, ptr %_M_finish, align 8, !tbaa !43
  %_M_impl5 = getelementptr inbounds nuw %"struct.std::_Vector_base", ptr %this1, i32 0, i32 0
  %_M_start6 = getelementptr inbounds nuw %"struct.std::_Vector_base<openmc::TallyDerivative, std::allocator<openmc::TallyDerivative>>::_Vector_impl_data", ptr %_M_impl5, i32 0, i32 0
  %2 = load ptr, ptr %_M_start6, align 8, !tbaa !41
  %3 = load i64, ptr %__n.addr, align 8, !tbaa !39
  %add.ptr = getelementptr inbounds nuw %"struct.openmc::TallyDerivative", ptr %2, i64 %3
  %_M_impl7 = getelementptr inbounds nuw %"struct.std::_Vector_base", ptr %this1, i32 0, i32 0
  %_M_end_of_storage = getelementptr inbounds nuw %"struct.std::_Vector_base<openmc::TallyDerivative, std::allocator<openmc::TallyDerivative>>::_Vector_impl_data", ptr %_M_impl7, i32 0, i32 2
  store ptr %add.ptr, ptr %_M_end_of_storage, align 8, !tbaa !44
  ret void
}

; Function Attrs: mustprogress nounwind uwtable
define linkonce_odr void @_ZNSt15__new_allocatorIN6openmc15TallyDerivativeEED2Ev(ptr noundef nonnull align 1 dereferenceable(1) %this) unnamed_addr #4 comdat align 2 {
entry:
  %this.addr = alloca ptr, align 8
  store ptr %this, ptr %this.addr, align 8, !tbaa !26
  %this1 = load ptr, ptr %this.addr, align 8
  ret void
}

; Function Attrs: mustprogress uwtable
define linkonce_odr noundef ptr @_ZNSt12_Vector_baseIN6openmc15TallyDerivativeESaIS1_EE11_M_allocateEm(ptr noundef nonnull align 8 dereferenceable(24) %this, i64 noundef %__n) #8 comdat align 2 {
entry:
  %this.addr = alloca ptr, align 8
  %__n.addr = alloca i64, align 8
  store ptr %this, ptr %this.addr, align 8, !tbaa !35
  store i64 %__n, ptr %__n.addr, align 8, !tbaa !39
  %this1 = load ptr, ptr %this.addr, align 8
  %0 = load i64, ptr %__n.addr, align 8, !tbaa !39
  %cmp = icmp ne i64 %0, 0
  br i1 %cmp, label %cond.true, label %cond.false

cond.true:                                        ; preds = %entry
  %_M_impl = getelementptr inbounds nuw %"struct.std::_Vector_base", ptr %this1, i32 0, i32 0
  %1 = load i64, ptr %__n.addr, align 8, !tbaa !39
  %call = call noundef ptr @_ZNSt16allocator_traitsISaIN6openmc15TallyDerivativeEEE8allocateERS2_m(ptr noundef nonnull align 1 dereferenceable(1) %_M_impl, i64 noundef %1)
  br label %cond.end

cond.false:                                       ; preds = %entry
  br label %cond.end

cond.end:                                         ; preds = %cond.false, %cond.true
  %cond = phi ptr [ %call, %cond.true ], [ null, %cond.false ]
  ret ptr %cond
}

; Function Attrs: mustprogress uwtable
define linkonce_odr noundef ptr @_ZNSt16allocator_traitsISaIN6openmc15TallyDerivativeEEE8allocateERS2_m(ptr noundef nonnull align 1 dereferenceable(1) %__a, i64 noundef %__n) #8 comdat align 2 {
entry:
  %__a.addr = alloca ptr, align 8
  %__n.addr = alloca i64, align 8
  store ptr %__a, ptr %__a.addr, align 8, !tbaa !22
  store i64 %__n, ptr %__n.addr, align 8, !tbaa !39
  %0 = load ptr, ptr %__a.addr, align 8, !tbaa !22
  %1 = load i64, ptr %__n.addr, align 8, !tbaa !39
  %call = call noundef ptr @_ZNSt15__new_allocatorIN6openmc15TallyDerivativeEE8allocateEmPKv(ptr noundef nonnull align 1 dereferenceable(1) %0, i64 noundef %1, ptr noundef null)
  ret ptr %call
}

; Function Attrs: mustprogress uwtable
define linkonce_odr noundef ptr @_ZNSt15__new_allocatorIN6openmc15TallyDerivativeEE8allocateEmPKv(ptr noundef nonnull align 1 dereferenceable(1) %this, i64 noundef %__n, ptr noundef %0) #8 comdat align 2 {
entry:
  %this.addr = alloca ptr, align 8
  %__n.addr = alloca i64, align 8
  %.addr = alloca ptr, align 8
  store ptr %this, ptr %this.addr, align 8, !tbaa !26
  store i64 %__n, ptr %__n.addr, align 8, !tbaa !39
  store ptr %0, ptr %.addr, align 8, !tbaa !47
  %this1 = load ptr, ptr %this.addr, align 8
  %1 = load i64, ptr %__n.addr, align 8, !tbaa !39
  %call = call noundef i64 @_ZNKSt15__new_allocatorIN6openmc15TallyDerivativeEE11_M_max_sizeEv(ptr noundef nonnull align 1 dereferenceable(1) %this1) #3
  %cmp = icmp ugt i64 %1, %call
  %conv = zext i1 %cmp to i64
  %expval = call i64 @llvm.expect.i64(i64 %conv, i64 0)
  %tobool = icmp ne i64 %expval, 0
  br i1 %tobool, label %if.then, label %if.end4

if.then:                                          ; preds = %entry
  %2 = load i64, ptr %__n.addr, align 8, !tbaa !39
  %cmp2 = icmp ugt i64 %2, 1152921504606846975
  br i1 %cmp2, label %if.then3, label %if.end

if.then3:                                         ; preds = %if.then
  call void @_ZSt28__throw_bad_array_new_lengthv() #25
  unreachable

if.end:                                           ; preds = %if.then
  call void @_ZSt17__throw_bad_allocv() #25
  unreachable

if.end4:                                          ; preds = %entry
  %3 = load i64, ptr %__n.addr, align 8, !tbaa !39
  %mul = mul i64 %3, 16
  %call5 = call noalias noundef nonnull ptr @_Znwm(i64 noundef %mul) #27
  ret ptr %call5
}

; Function Attrs: nocallback nofree nosync nounwind willreturn memory(none)
declare i64 @llvm.expect.i64(i64, i64) #11

; Function Attrs: noreturn
declare void @_ZSt28__throw_bad_array_new_lengthv() #9

; Function Attrs: noreturn
declare void @_ZSt17__throw_bad_allocv() #9

; Function Attrs: nobuiltin allocsize(0)
declare noundef nonnull ptr @_Znwm(i64 noundef) #12

; Function Attrs: inlinehint mustprogress uwtable
define linkonce_odr noundef ptr @_ZSt27__uninitialized_default_n_aIPN6openmc15TallyDerivativeEmS1_ET_S3_T0_RSaIT1_E(ptr noundef %__first, i64 noundef %__n, ptr noundef nonnull align 1 dereferenceable(1) %0) #13 comdat {
entry:
  %__first.addr = alloca ptr, align 8
  %__n.addr = alloca i64, align 8
  %.addr = alloca ptr, align 8
  store ptr %__first, ptr %__first.addr, align 8, !tbaa !17
  store i64 %__n, ptr %__n.addr, align 8, !tbaa !39
  store ptr %0, ptr %.addr, align 8, !tbaa !22
  %1 = load ptr, ptr %__first.addr, align 8, !tbaa !17
  %2 = load i64, ptr %__n.addr, align 8, !tbaa !39
  %call = call noundef ptr @_ZSt25__uninitialized_default_nIPN6openmc15TallyDerivativeEmET_S3_T0_(ptr noundef %1, i64 noundef %2)
  ret ptr %call
}

; Function Attrs: mustprogress nounwind uwtable
define linkonce_odr noundef nonnull align 1 dereferenceable(1) ptr @_ZNSt12_Vector_baseIN6openmc15TallyDerivativeESaIS1_EE19_M_get_Tp_allocatorEv(ptr noundef nonnull align 8 dereferenceable(24) %this) #4 comdat align 2 {
entry:
  %this.addr = alloca ptr, align 8
  store ptr %this, ptr %this.addr, align 8, !tbaa !35
  %this1 = load ptr, ptr %this.addr, align 8
  %_M_impl = getelementptr inbounds nuw %"struct.std::_Vector_base", ptr %this1, i32 0, i32 0
  ret ptr %_M_impl
}

; Function Attrs: inlinehint mustprogress uwtable
define linkonce_odr noundef ptr @_ZSt25__uninitialized_default_nIPN6openmc15TallyDerivativeEmET_S3_T0_(ptr noundef %__first, i64 noundef %__n) #13 comdat {
entry:
  %__first.addr = alloca ptr, align 8
  %__n.addr = alloca i64, align 8
  %__can_fill = alloca i8, align 1
  store ptr %__first, ptr %__first.addr, align 8, !tbaa !17
  store i64 %__n, ptr %__n.addr, align 8, !tbaa !39
  call void @llvm.lifetime.start.p0(i64 1, ptr %__can_fill) #3
  store i8 1, ptr %__can_fill, align 1, !tbaa !48
  %0 = load ptr, ptr %__first.addr, align 8, !tbaa !17
  %1 = load i64, ptr %__n.addr, align 8, !tbaa !39
  %call = call noundef ptr @_ZNSt27__uninitialized_default_n_1ILb0EE18__uninit_default_nIPN6openmc15TallyDerivativeEmEET_S5_T0_(ptr noundef %0, i64 noundef %1)
  call void @llvm.lifetime.end.p0(i64 1, ptr %__can_fill) #3
  ret ptr %call
}

; Function Attrs: mustprogress uwtable
define linkonce_odr noundef ptr @_ZNSt27__uninitialized_default_n_1ILb0EE18__uninit_default_nIPN6openmc15TallyDerivativeEmEET_S5_T0_(ptr noundef %__first, i64 noundef %__n) #8 comdat align 2 personality ptr @__gxx_personality_v0 {
entry:
  %__first.addr = alloca ptr, align 8
  %__n.addr = alloca i64, align 8
  %__cur = alloca ptr, align 8
  %exn.slot = alloca ptr, align 8
  %ehselector.slot = alloca i32, align 4
  store ptr %__first, ptr %__first.addr, align 8, !tbaa !17
  store i64 %__n, ptr %__n.addr, align 8, !tbaa !39
  call void @llvm.lifetime.start.p0(i64 8, ptr %__cur) #3
  %0 = load ptr, ptr %__first.addr, align 8, !tbaa !17
  store ptr %0, ptr %__cur, align 8, !tbaa !17
  br label %for.cond

for.cond:                                         ; preds = %for.inc, %entry
  %1 = load i64, ptr %__n.addr, align 8, !tbaa !39
  %cmp = icmp ugt i64 %1, 0
  br i1 %cmp, label %for.body, label %for.end

for.body:                                         ; preds = %for.cond
  %2 = load ptr, ptr %__cur, align 8, !tbaa !17
  invoke void @_ZSt10_ConstructIN6openmc15TallyDerivativeEJEEvPT_DpOT0_(ptr noundef %2)
          to label %invoke.cont unwind label %lpad

invoke.cont:                                      ; preds = %for.body
  br label %for.inc

for.inc:                                          ; preds = %invoke.cont
  %3 = load i64, ptr %__n.addr, align 8, !tbaa !39
  %dec = add i64 %3, -1
  store i64 %dec, ptr %__n.addr, align 8, !tbaa !39
  %4 = load ptr, ptr %__cur, align 8, !tbaa !17
  %incdec.ptr = getelementptr inbounds nuw %"struct.openmc::TallyDerivative", ptr %4, i32 1
  store ptr %incdec.ptr, ptr %__cur, align 8, !tbaa !17
  br label %for.cond, !llvm.loop !50

lpad:                                             ; preds = %for.body
  %5 = landingpad { ptr, i32 }
          catch ptr null
  %6 = extractvalue { ptr, i32 } %5, 0
  store ptr %6, ptr %exn.slot, align 8
  %7 = extractvalue { ptr, i32 } %5, 1
  store i32 %7, ptr %ehselector.slot, align 4
  br label %catch

catch:                                            ; preds = %lpad
  %exn = load ptr, ptr %exn.slot, align 8
  %8 = call ptr @__cxa_begin_catch(ptr %exn) #3
  %9 = load ptr, ptr %__first.addr, align 8, !tbaa !17
  %10 = load ptr, ptr %__cur, align 8, !tbaa !17
  invoke void @_ZSt8_DestroyIPN6openmc15TallyDerivativeEEvT_S3_(ptr noundef %9, ptr noundef %10)
          to label %invoke.cont2 unwind label %lpad1

invoke.cont2:                                     ; preds = %catch
  invoke void @__cxa_rethrow() #25
          to label %unreachable unwind label %lpad1

for.end:                                          ; preds = %for.cond
  %11 = load ptr, ptr %__cur, align 8, !tbaa !17
  call void @llvm.lifetime.end.p0(i64 8, ptr %__cur) #3
  ret ptr %11

lpad1:                                            ; preds = %invoke.cont2, %catch
  %12 = landingpad { ptr, i32 }
          cleanup
  %13 = extractvalue { ptr, i32 } %12, 0
  store ptr %13, ptr %exn.slot, align 8
  %14 = extractvalue { ptr, i32 } %12, 1
  store i32 %14, ptr %ehselector.slot, align 4
  invoke void @__cxa_end_catch()
          to label %invoke.cont3 unwind label %terminate.lpad

invoke.cont3:                                     ; preds = %lpad1
  call void @llvm.lifetime.end.p0(i64 8, ptr %__cur) #3
  br label %eh.resume

try.cont:                                         ; No predecessors!
  unreachable

eh.resume:                                        ; preds = %invoke.cont3
  %exn4 = load ptr, ptr %exn.slot, align 8
  %sel = load i32, ptr %ehselector.slot, align 4
  %lpad.val = insertvalue { ptr, i32 } poison, ptr %exn4, 0
  %lpad.val5 = insertvalue { ptr, i32 } %lpad.val, i32 %sel, 1
  resume { ptr, i32 } %lpad.val5

terminate.lpad:                                   ; preds = %lpad1
  %15 = landingpad { ptr, i32 }
          catch ptr null
  %16 = extractvalue { ptr, i32 } %15, 0
  call void @__clang_call_terminate(ptr %16) #26
  unreachable

unreachable:                                      ; preds = %invoke.cont2
  unreachable
}

; Function Attrs: inlinehint mustprogress uwtable
define linkonce_odr void @_ZSt10_ConstructIN6openmc15TallyDerivativeEJEEvPT_DpOT0_(ptr noundef %__p) #13 comdat {
entry:
  %__p.addr = alloca ptr, align 8
  store ptr %__p, ptr %__p.addr, align 8, !tbaa !17
  %0 = load ptr, ptr %__p.addr, align 8, !tbaa !17
  call void @_ZN6openmc15TallyDerivativeC2Ev(ptr noundef nonnull align 4 dereferenceable(16) %0)
  ret void
}

; Function Attrs: inlinehint mustprogress uwtable
define linkonce_odr void @_ZSt8_DestroyIPN6openmc15TallyDerivativeEEvT_S3_(ptr noundef %__first, ptr noundef %__last) #13 comdat {
entry:
  %__first.addr = alloca ptr, align 8
  %__last.addr = alloca ptr, align 8
  store ptr %__first, ptr %__first.addr, align 8, !tbaa !17
  store ptr %__last, ptr %__last.addr, align 8, !tbaa !17
  %0 = load ptr, ptr %__first.addr, align 8, !tbaa !17
  %1 = load ptr, ptr %__last.addr, align 8, !tbaa !17
  call void @_ZNSt12_Destroy_auxILb1EE9__destroyIPN6openmc15TallyDerivativeEEEvT_S5_(ptr noundef %0, ptr noundef %1)
  ret void
}

declare void @__cxa_rethrow()

declare void @__cxa_end_catch()

; Function Attrs: mustprogress nounwind uwtable
define linkonce_odr void @_ZN6openmc15TallyDerivativeC2Ev(ptr noundef nonnull align 4 dereferenceable(16) %this) unnamed_addr #4 comdat align 2 {
entry:
  %this.addr = alloca ptr, align 8
  store ptr %this, ptr %this.addr, align 8, !tbaa !17
  %this1 = load ptr, ptr %this.addr, align 8
  ret void
}

; Function Attrs: mustprogress nounwind uwtable
define linkonce_odr void @_ZNSt12_Destroy_auxILb1EE9__destroyIPN6openmc15TallyDerivativeEEEvT_S5_(ptr noundef %0, ptr noundef %1) #4 comdat align 2 {
entry:
  %.addr = alloca ptr, align 8
  %.addr1 = alloca ptr, align 8
  store ptr %0, ptr %.addr, align 8, !tbaa !17
  store ptr %1, ptr %.addr1, align 8, !tbaa !17
  ret void
}

; Function Attrs: mustprogress uwtable
define linkonce_odr void @_ZNSt12_Vector_baseIN6openmc15TallyDerivativeESaIS1_EE13_M_deallocateEPS1_m(ptr noundef nonnull align 8 dereferenceable(24) %this, ptr noundef %__p, i64 noundef %__n) #8 comdat align 2 {
entry:
  %this.addr = alloca ptr, align 8
  %__p.addr = alloca ptr, align 8
  %__n.addr = alloca i64, align 8
  store ptr %this, ptr %this.addr, align 8, !tbaa !35
  store ptr %__p, ptr %__p.addr, align 8, !tbaa !17
  store i64 %__n, ptr %__n.addr, align 8, !tbaa !39
  %this1 = load ptr, ptr %this.addr, align 8
  %0 = load ptr, ptr %__p.addr, align 8, !tbaa !17
  %tobool = icmp ne ptr %0, null
  br i1 %tobool, label %if.then, label %if.end

if.then:                                          ; preds = %entry
  %_M_impl = getelementptr inbounds nuw %"struct.std::_Vector_base", ptr %this1, i32 0, i32 0
  %1 = load ptr, ptr %__p.addr, align 8, !tbaa !17
  %2 = load i64, ptr %__n.addr, align 8, !tbaa !39
  call void @_ZNSt16allocator_traitsISaIN6openmc15TallyDerivativeEEE10deallocateERS2_PS1_m(ptr noundef nonnull align 1 dereferenceable(1) %_M_impl, ptr noundef %1, i64 noundef %2)
  br label %if.end

if.end:                                           ; preds = %if.then, %entry
  ret void
}

; Function Attrs: mustprogress uwtable
define linkonce_odr void @_ZNSt16allocator_traitsISaIN6openmc15TallyDerivativeEEE10deallocateERS2_PS1_m(ptr noundef nonnull align 1 dereferenceable(1) %__a, ptr noundef %__p, i64 noundef %__n) #8 comdat align 2 {
entry:
  %__a.addr = alloca ptr, align 8
  %__p.addr = alloca ptr, align 8
  %__n.addr = alloca i64, align 8
  store ptr %__a, ptr %__a.addr, align 8, !tbaa !22
  store ptr %__p, ptr %__p.addr, align 8, !tbaa !17
  store i64 %__n, ptr %__n.addr, align 8, !tbaa !39
  %0 = load ptr, ptr %__a.addr, align 8, !tbaa !22
  %1 = load ptr, ptr %__p.addr, align 8, !tbaa !17
  %2 = load i64, ptr %__n.addr, align 8, !tbaa !39
  call void @_ZNSt15__new_allocatorIN6openmc15TallyDerivativeEE10deallocateEPS1_m(ptr noundef nonnull align 1 dereferenceable(1) %0, ptr noundef %1, i64 noundef %2)
  ret void
}

; Function Attrs: mustprogress nounwind uwtable
define linkonce_odr void @_ZNSt15__new_allocatorIN6openmc15TallyDerivativeEE10deallocateEPS1_m(ptr noundef nonnull align 1 dereferenceable(1) %this, ptr noundef %__p, i64 noundef %__n) #4 comdat align 2 {
entry:
  %this.addr = alloca ptr, align 8
  %__p.addr = alloca ptr, align 8
  %__n.addr = alloca i64, align 8
  store ptr %this, ptr %this.addr, align 8, !tbaa !26
  store ptr %__p, ptr %__p.addr, align 8, !tbaa !17
  store i64 %__n, ptr %__n.addr, align 8, !tbaa !39
  %this1 = load ptr, ptr %this.addr, align 8
  %0 = load ptr, ptr %__p.addr, align 8, !tbaa !17
  %1 = load i64, ptr %__n.addr, align 8, !tbaa !39
  %mul = mul i64 %1, 16
  call void @_ZdlPvm(ptr noundef %0, i64 noundef %mul) #28
  ret void
}

; Function Attrs: nobuiltin nounwind
declare void @_ZdlPvm(ptr noundef, i64 noundef) #14

; Function Attrs: mustprogress uwtable
define weak_odr void @_ZNSt6vectorIN6openmc15TallyDerivativeESaIS1_EEC2EmRKS1_RKS2_(ptr noundef nonnull align 8 dereferenceable(24) %this, i64 noundef %__n, ptr noundef nonnull align 4 dereferenceable(16) %__value, ptr noundef nonnull align 1 dereferenceable(1) %__a) unnamed_addr #8 comdat($_ZNSt6vectorIN6openmc15TallyDerivativeESaIS1_EEC5EmRKS1_RKS2_) align 2 personality ptr @__gxx_personality_v0 {
entry:
  %this.addr = alloca ptr, align 8
  %__n.addr = alloca i64, align 8
  %__value.addr = alloca ptr, align 8
  %__a.addr = alloca ptr, align 8
  %exn.slot = alloca ptr, align 8
  %ehselector.slot = alloca i32, align 4
  store ptr %this, ptr %this.addr, align 8, !tbaa !33
  store i64 %__n, ptr %__n.addr, align 8, !tbaa !39
  store ptr %__value, ptr %__value.addr, align 8, !tbaa !17
  store ptr %__a, ptr %__a.addr, align 8, !tbaa !22
  %this1 = load ptr, ptr %this.addr, align 8
  %0 = load i64, ptr %__n.addr, align 8, !tbaa !39
  %1 = load ptr, ptr %__a.addr, align 8, !tbaa !22
  %call = call noundef i64 @_ZNSt6vectorIN6openmc15TallyDerivativeESaIS1_EE17_S_check_init_lenEmRKS2_(i64 noundef %0, ptr noundef nonnull align 1 dereferenceable(1) %1)
  %2 = load ptr, ptr %__a.addr, align 8, !tbaa !22
  call void @_ZNSt12_Vector_baseIN6openmc15TallyDerivativeESaIS1_EEC2EmRKS2_(ptr noundef nonnull align 8 dereferenceable(24) %this1, i64 noundef %call, ptr noundef nonnull align 1 dereferenceable(1) %2)
  %3 = load i64, ptr %__n.addr, align 8, !tbaa !39
  %4 = load ptr, ptr %__value.addr, align 8, !tbaa !17
  invoke void @_ZNSt6vectorIN6openmc15TallyDerivativeESaIS1_EE18_M_fill_initializeEmRKS1_(ptr noundef nonnull align 8 dereferenceable(24) %this1, i64 noundef %3, ptr noundef nonnull align 4 dereferenceable(16) %4)
          to label %invoke.cont unwind label %lpad

invoke.cont:                                      ; preds = %entry
  ret void

lpad:                                             ; preds = %entry
  %5 = landingpad { ptr, i32 }
          cleanup
  %6 = extractvalue { ptr, i32 } %5, 0
  store ptr %6, ptr %exn.slot, align 8
  %7 = extractvalue { ptr, i32 } %5, 1
  store i32 %7, ptr %ehselector.slot, align 4
  call void @_ZNSt12_Vector_baseIN6openmc15TallyDerivativeESaIS1_EED2Ev(ptr noundef nonnull align 8 dereferenceable(24) %this1) #3
  br label %eh.resume

eh.resume:                                        ; preds = %lpad
  %exn = load ptr, ptr %exn.slot, align 8
  %sel = load i32, ptr %ehselector.slot, align 4
  %lpad.val = insertvalue { ptr, i32 } poison, ptr %exn, 0
  %lpad.val2 = insertvalue { ptr, i32 } %lpad.val, i32 %sel, 1
  resume { ptr, i32 } %lpad.val2
}

; Function Attrs: mustprogress uwtable
define weak_odr void @_ZNSt6vectorIN6openmc15TallyDerivativeESaIS1_EE18_M_fill_initializeEmRKS1_(ptr noundef nonnull align 8 dereferenceable(24) %this, i64 noundef %__n, ptr noundef nonnull align 4 dereferenceable(16) %__value) #8 comdat align 2 {
entry:
  %this.addr = alloca ptr, align 8
  %__n.addr = alloca i64, align 8
  %__value.addr = alloca ptr, align 8
  store ptr %this, ptr %this.addr, align 8, !tbaa !33
  store i64 %__n, ptr %__n.addr, align 8, !tbaa !39
  store ptr %__value, ptr %__value.addr, align 8, !tbaa !17
  %this1 = load ptr, ptr %this.addr, align 8
  %_M_impl = getelementptr inbounds nuw %"struct.std::_Vector_base", ptr %this1, i32 0, i32 0
  %_M_start = getelementptr inbounds nuw %"struct.std::_Vector_base<openmc::TallyDerivative, std::allocator<openmc::TallyDerivative>>::_Vector_impl_data", ptr %_M_impl, i32 0, i32 0
  %0 = load ptr, ptr %_M_start, align 8, !tbaa !41
  %1 = load i64, ptr %__n.addr, align 8, !tbaa !39
  %2 = load ptr, ptr %__value.addr, align 8, !tbaa !17
  %call = call noundef nonnull align 1 dereferenceable(1) ptr @_ZNSt12_Vector_baseIN6openmc15TallyDerivativeESaIS1_EE19_M_get_Tp_allocatorEv(ptr noundef nonnull align 8 dereferenceable(24) %this1) #3
  %call2 = call noundef ptr @_ZSt24__uninitialized_fill_n_aIPN6openmc15TallyDerivativeEmS1_S1_ET_S3_T0_RKT1_RSaIT2_E(ptr noundef %0, i64 noundef %1, ptr noundef nonnull align 4 dereferenceable(16) %2, ptr noundef nonnull align 1 dereferenceable(1) %call)
  %_M_impl3 = getelementptr inbounds nuw %"struct.std::_Vector_base", ptr %this1, i32 0, i32 0
  %_M_finish = getelementptr inbounds nuw %"struct.std::_Vector_base<openmc::TallyDerivative, std::allocator<openmc::TallyDerivative>>::_Vector_impl_data", ptr %_M_impl3, i32 0, i32 1
  store ptr %call2, ptr %_M_finish, align 8, !tbaa !43
  ret void
}

; Function Attrs: inlinehint mustprogress uwtable
define linkonce_odr noundef ptr @_ZSt24__uninitialized_fill_n_aIPN6openmc15TallyDerivativeEmS1_S1_ET_S3_T0_RKT1_RSaIT2_E(ptr noundef %__first, i64 noundef %__n, ptr noundef nonnull align 4 dereferenceable(16) %__x, ptr noundef nonnull align 1 dereferenceable(1) %0) #13 comdat {
entry:
  %__first.addr = alloca ptr, align 8
  %__n.addr = alloca i64, align 8
  %__x.addr = alloca ptr, align 8
  %.addr = alloca ptr, align 8
  store ptr %__first, ptr %__first.addr, align 8, !tbaa !17
  store i64 %__n, ptr %__n.addr, align 8, !tbaa !39
  store ptr %__x, ptr %__x.addr, align 8, !tbaa !17
  store ptr %0, ptr %.addr, align 8, !tbaa !22
  %1 = load ptr, ptr %__first.addr, align 8, !tbaa !17
  %2 = load i64, ptr %__n.addr, align 8, !tbaa !39
  %3 = load ptr, ptr %__x.addr, align 8, !tbaa !17
  %call = call noundef ptr @_ZSt20uninitialized_fill_nIPN6openmc15TallyDerivativeEmS1_ET_S3_T0_RKT1_(ptr noundef %1, i64 noundef %2, ptr noundef nonnull align 4 dereferenceable(16) %3)
  ret ptr %call
}

; Function Attrs: inlinehint mustprogress uwtable
define linkonce_odr noundef ptr @_ZSt20uninitialized_fill_nIPN6openmc15TallyDerivativeEmS1_ET_S3_T0_RKT1_(ptr noundef %__first, i64 noundef %__n, ptr noundef nonnull align 4 dereferenceable(16) %__x) #13 comdat {
entry:
  %__first.addr = alloca ptr, align 8
  %__n.addr = alloca i64, align 8
  %__x.addr = alloca ptr, align 8
  %__can_fill = alloca i8, align 1
  store ptr %__first, ptr %__first.addr, align 8, !tbaa !17
  store i64 %__n, ptr %__n.addr, align 8, !tbaa !39
  store ptr %__x, ptr %__x.addr, align 8, !tbaa !17
  call void @llvm.lifetime.start.p0(i64 1, ptr %__can_fill) #3
  store i8 0, ptr %__can_fill, align 1, !tbaa !48
  %0 = load ptr, ptr %__first.addr, align 8, !tbaa !17
  %1 = load i64, ptr %__n.addr, align 8, !tbaa !39
  %2 = load ptr, ptr %__x.addr, align 8, !tbaa !17
  %call = call noundef ptr @_ZNSt22__uninitialized_fill_nILb0EE15__uninit_fill_nIPN6openmc15TallyDerivativeEmS3_EET_S5_T0_RKT1_(ptr noundef %0, i64 noundef %1, ptr noundef nonnull align 4 dereferenceable(16) %2)
  call void @llvm.lifetime.end.p0(i64 1, ptr %__can_fill) #3
  ret ptr %call
}

; Function Attrs: mustprogress uwtable
define linkonce_odr noundef ptr @_ZNSt22__uninitialized_fill_nILb0EE15__uninit_fill_nIPN6openmc15TallyDerivativeEmS3_EET_S5_T0_RKT1_(ptr noundef %__first, i64 noundef %__n, ptr noundef nonnull align 4 dereferenceable(16) %__x) #8 comdat align 2 {
entry:
  %__first.addr = alloca ptr, align 8
  %__n.addr = alloca i64, align 8
  %__x.addr = alloca ptr, align 8
  store ptr %__first, ptr %__first.addr, align 8, !tbaa !17
  store i64 %__n, ptr %__n.addr, align 8, !tbaa !39
  store ptr %__x, ptr %__x.addr, align 8, !tbaa !17
  %0 = load ptr, ptr %__first.addr, align 8, !tbaa !17
  %1 = load i64, ptr %__n.addr, align 8, !tbaa !39
  %2 = load ptr, ptr %__x.addr, align 8, !tbaa !17
  %call = call noundef ptr @_ZSt18__do_uninit_fill_nIPN6openmc15TallyDerivativeEmS1_ET_S3_T0_RKT1_(ptr noundef %0, i64 noundef %1, ptr noundef nonnull align 4 dereferenceable(16) %2)
  ret ptr %call
}

; Function Attrs: mustprogress uwtable
define linkonce_odr noundef ptr @_ZSt18__do_uninit_fill_nIPN6openmc15TallyDerivativeEmS1_ET_S3_T0_RKT1_(ptr noundef %__first, i64 noundef %__n, ptr noundef nonnull align 4 dereferenceable(16) %__x) #8 comdat personality ptr @__gxx_personality_v0 {
entry:
  %__first.addr = alloca ptr, align 8
  %__n.addr = alloca i64, align 8
  %__x.addr = alloca ptr, align 8
  %__cur = alloca ptr, align 8
  %exn.slot = alloca ptr, align 8
  %ehselector.slot = alloca i32, align 4
  store ptr %__first, ptr %__first.addr, align 8, !tbaa !17
  store i64 %__n, ptr %__n.addr, align 8, !tbaa !39
  store ptr %__x, ptr %__x.addr, align 8, !tbaa !17
  call void @llvm.lifetime.start.p0(i64 8, ptr %__cur) #3
  %0 = load ptr, ptr %__first.addr, align 8, !tbaa !17
  store ptr %0, ptr %__cur, align 8, !tbaa !17
  br label %for.cond

for.cond:                                         ; preds = %for.inc, %entry
  %1 = load i64, ptr %__n.addr, align 8, !tbaa !39
  %cmp = icmp ugt i64 %1, 0
  br i1 %cmp, label %for.body, label %for.end

for.body:                                         ; preds = %for.cond
  %2 = load ptr, ptr %__cur, align 8, !tbaa !17
  %3 = load ptr, ptr %__x.addr, align 8, !tbaa !17
  invoke void @_ZSt10_ConstructIN6openmc15TallyDerivativeEJRKS1_EEvPT_DpOT0_(ptr noundef %2, ptr noundef nonnull align 4 dereferenceable(16) %3)
          to label %invoke.cont unwind label %lpad

invoke.cont:                                      ; preds = %for.body
  br label %for.inc

for.inc:                                          ; preds = %invoke.cont
  %4 = load i64, ptr %__n.addr, align 8, !tbaa !39
  %dec = add i64 %4, -1
  store i64 %dec, ptr %__n.addr, align 8, !tbaa !39
  %5 = load ptr, ptr %__cur, align 8, !tbaa !17
  %incdec.ptr = getelementptr inbounds nuw %"struct.openmc::TallyDerivative", ptr %5, i32 1
  store ptr %incdec.ptr, ptr %__cur, align 8, !tbaa !17
  br label %for.cond, !llvm.loop !51

lpad:                                             ; preds = %for.body
  %6 = landingpad { ptr, i32 }
          catch ptr null
  %7 = extractvalue { ptr, i32 } %6, 0
  store ptr %7, ptr %exn.slot, align 8
  %8 = extractvalue { ptr, i32 } %6, 1
  store i32 %8, ptr %ehselector.slot, align 4
  br label %catch

catch:                                            ; preds = %lpad
  %exn = load ptr, ptr %exn.slot, align 8
  %9 = call ptr @__cxa_begin_catch(ptr %exn) #3
  %10 = load ptr, ptr %__first.addr, align 8, !tbaa !17
  %11 = load ptr, ptr %__cur, align 8, !tbaa !17
  invoke void @_ZSt8_DestroyIPN6openmc15TallyDerivativeEEvT_S3_(ptr noundef %10, ptr noundef %11)
          to label %invoke.cont2 unwind label %lpad1

invoke.cont2:                                     ; preds = %catch
  invoke void @__cxa_rethrow() #25
          to label %unreachable unwind label %lpad1

for.end:                                          ; preds = %for.cond
  %12 = load ptr, ptr %__cur, align 8, !tbaa !17
  call void @llvm.lifetime.end.p0(i64 8, ptr %__cur) #3
  ret ptr %12

lpad1:                                            ; preds = %invoke.cont2, %catch
  %13 = landingpad { ptr, i32 }
          cleanup
  %14 = extractvalue { ptr, i32 } %13, 0
  store ptr %14, ptr %exn.slot, align 8
  %15 = extractvalue { ptr, i32 } %13, 1
  store i32 %15, ptr %ehselector.slot, align 4
  invoke void @__cxa_end_catch()
          to label %invoke.cont3 unwind label %terminate.lpad

invoke.cont3:                                     ; preds = %lpad1
  call void @llvm.lifetime.end.p0(i64 8, ptr %__cur) #3
  br label %eh.resume

try.cont:                                         ; No predecessors!
  unreachable

eh.resume:                                        ; preds = %invoke.cont3
  %exn4 = load ptr, ptr %exn.slot, align 8
  %sel = load i32, ptr %ehselector.slot, align 4
  %lpad.val = insertvalue { ptr, i32 } poison, ptr %exn4, 0
  %lpad.val5 = insertvalue { ptr, i32 } %lpad.val, i32 %sel, 1
  resume { ptr, i32 } %lpad.val5

terminate.lpad:                                   ; preds = %lpad1
  %16 = landingpad { ptr, i32 }
          catch ptr null
  %17 = extractvalue { ptr, i32 } %16, 0
  call void @__clang_call_terminate(ptr %17) #26
  unreachable

unreachable:                                      ; preds = %invoke.cont2
  unreachable
}

; Function Attrs: inlinehint mustprogress nounwind uwtable
define linkonce_odr void @_ZSt10_ConstructIN6openmc15TallyDerivativeEJRKS1_EEvPT_DpOT0_(ptr noundef %__p, ptr noundef nonnull align 4 dereferenceable(16) %__args) #6 comdat {
entry:
  %__p.addr = alloca ptr, align 8
  %__args.addr = alloca ptr, align 8
  store ptr %__p, ptr %__p.addr, align 8, !tbaa !17
  store ptr %__args, ptr %__args.addr, align 8, !tbaa !17
  %0 = load ptr, ptr %__p.addr, align 8, !tbaa !17
  %1 = load ptr, ptr %__args.addr, align 8, !tbaa !17
  call void @llvm.memcpy.p0.p0.i64(ptr align 4 %0, ptr align 4 %1, i64 16, i1 false), !tbaa.struct !28
  ret void
}

; Function Attrs: mustprogress uwtable
define weak_odr void @_ZNSt6vectorIN6openmc15TallyDerivativeESaIS1_EEC2ERKS3_(ptr noundef nonnull align 8 dereferenceable(24) %this, ptr noundef nonnull align 8 dereferenceable(24) %__x) unnamed_addr #8 comdat($_ZNSt6vectorIN6openmc15TallyDerivativeESaIS1_EEC5ERKS3_) align 2 personality ptr @__gxx_personality_v0 {
entry:
  %this.addr = alloca ptr, align 8
  %__x.addr = alloca ptr, align 8
  %ref.tmp = alloca %"class.std::allocator", align 1
  %exn.slot = alloca ptr, align 8
  %ehselector.slot = alloca i32, align 4
  %agg.tmp = alloca %"class.__gnu_cxx::__normal_iterator", align 8
  %agg.tmp4 = alloca %"class.__gnu_cxx::__normal_iterator", align 8
  store ptr %this, ptr %this.addr, align 8, !tbaa !33
  store ptr %__x, ptr %__x.addr, align 8, !tbaa !33
  %this1 = load ptr, ptr %this.addr, align 8
  %0 = load ptr, ptr %__x.addr, align 8, !tbaa !33
  %call = call noundef i64 @_ZNKSt6vectorIN6openmc15TallyDerivativeESaIS1_EE4sizeEv(ptr noundef nonnull align 8 dereferenceable(24) %0) #3
  call void @llvm.lifetime.start.p0(i64 1, ptr %ref.tmp) #3
  %1 = load ptr, ptr %__x.addr, align 8, !tbaa !33
  %call2 = call noundef nonnull align 1 dereferenceable(1) ptr @_ZNKSt12_Vector_baseIN6openmc15TallyDerivativeESaIS1_EE19_M_get_Tp_allocatorEv(ptr noundef nonnull align 8 dereferenceable(24) %1) #3
  call void @_ZN9__gnu_cxx14__alloc_traitsISaIN6openmc15TallyDerivativeEES2_E17_S_select_on_copyERKS3_(ptr dead_on_unwind writable sret(%"class.std::allocator") align 1 %ref.tmp, ptr noundef nonnull align 1 dereferenceable(1) %call2)
  invoke void @_ZNSt12_Vector_baseIN6openmc15TallyDerivativeESaIS1_EEC2EmRKS2_(ptr noundef nonnull align 8 dereferenceable(24) %this1, i64 noundef %call, ptr noundef nonnull align 1 dereferenceable(1) %ref.tmp)
          to label %invoke.cont unwind label %lpad

invoke.cont:                                      ; preds = %entry
  call void @_ZNSt15__new_allocatorIN6openmc15TallyDerivativeEED2Ev(ptr noundef nonnull align 1 dereferenceable(1) %ref.tmp) #3
  call void @llvm.lifetime.end.p0(i64 1, ptr %ref.tmp) #3
  %2 = load ptr, ptr %__x.addr, align 8, !tbaa !33
  %call3 = call ptr @_ZNKSt6vectorIN6openmc15TallyDerivativeESaIS1_EE5beginEv(ptr noundef nonnull align 8 dereferenceable(24) %2) #3
  %coerce.dive = getelementptr inbounds nuw %"class.__gnu_cxx::__normal_iterator", ptr %agg.tmp, i32 0, i32 0
  store ptr %call3, ptr %coerce.dive, align 8
  %3 = load ptr, ptr %__x.addr, align 8, !tbaa !33
  %call5 = call ptr @_ZNKSt6vectorIN6openmc15TallyDerivativeESaIS1_EE3endEv(ptr noundef nonnull align 8 dereferenceable(24) %3) #3
  %coerce.dive6 = getelementptr inbounds nuw %"class.__gnu_cxx::__normal_iterator", ptr %agg.tmp4, i32 0, i32 0
  store ptr %call5, ptr %coerce.dive6, align 8
  %_M_impl = getelementptr inbounds nuw %"struct.std::_Vector_base", ptr %this1, i32 0, i32 0
  %_M_start = getelementptr inbounds nuw %"struct.std::_Vector_base<openmc::TallyDerivative, std::allocator<openmc::TallyDerivative>>::_Vector_impl_data", ptr %_M_impl, i32 0, i32 0
  %4 = load ptr, ptr %_M_start, align 8, !tbaa !41
  %call7 = call noundef nonnull align 1 dereferenceable(1) ptr @_ZNSt12_Vector_baseIN6openmc15TallyDerivativeESaIS1_EE19_M_get_Tp_allocatorEv(ptr noundef nonnull align 8 dereferenceable(24) %this1) #3
  %coerce.dive8 = getelementptr inbounds nuw %"class.__gnu_cxx::__normal_iterator", ptr %agg.tmp, i32 0, i32 0
  %5 = load ptr, ptr %coerce.dive8, align 8
  %coerce.dive9 = getelementptr inbounds nuw %"class.__gnu_cxx::__normal_iterator", ptr %agg.tmp4, i32 0, i32 0
  %6 = load ptr, ptr %coerce.dive9, align 8
  %call12 = invoke noundef ptr @_ZSt22__uninitialized_copy_aIN9__gnu_cxx17__normal_iteratorIPKN6openmc15TallyDerivativeESt6vectorIS3_SaIS3_EEEEPS3_S3_ET0_T_SC_SB_RSaIT1_E(ptr %5, ptr %6, ptr noundef %4, ptr noundef nonnull align 1 dereferenceable(1) %call7)
          to label %invoke.cont11 unwind label %lpad10

invoke.cont11:                                    ; preds = %invoke.cont
  %_M_impl13 = getelementptr inbounds nuw %"struct.std::_Vector_base", ptr %this1, i32 0, i32 0
  %_M_finish = getelementptr inbounds nuw %"struct.std::_Vector_base<openmc::TallyDerivative, std::allocator<openmc::TallyDerivative>>::_Vector_impl_data", ptr %_M_impl13, i32 0, i32 1
  store ptr %call12, ptr %_M_finish, align 8, !tbaa !43
  ret void

lpad:                                             ; preds = %entry
  %7 = landingpad { ptr, i32 }
          cleanup
  %8 = extractvalue { ptr, i32 } %7, 0
  store ptr %8, ptr %exn.slot, align 8
  %9 = extractvalue { ptr, i32 } %7, 1
  store i32 %9, ptr %ehselector.slot, align 4
  call void @_ZNSt15__new_allocatorIN6openmc15TallyDerivativeEED2Ev(ptr noundef nonnull align 1 dereferenceable(1) %ref.tmp) #3
  call void @llvm.lifetime.end.p0(i64 1, ptr %ref.tmp) #3
  br label %eh.resume

lpad10:                                           ; preds = %invoke.cont
  %10 = landingpad { ptr, i32 }
          cleanup
  %11 = extractvalue { ptr, i32 } %10, 0
  store ptr %11, ptr %exn.slot, align 8
  %12 = extractvalue { ptr, i32 } %10, 1
  store i32 %12, ptr %ehselector.slot, align 4
  call void @_ZNSt12_Vector_baseIN6openmc15TallyDerivativeESaIS1_EED2Ev(ptr noundef nonnull align 8 dereferenceable(24) %this1) #3
  br label %eh.resume

eh.resume:                                        ; preds = %lpad10, %lpad
  %exn = load ptr, ptr %exn.slot, align 8
  %sel = load i32, ptr %ehselector.slot, align 4
  %lpad.val = insertvalue { ptr, i32 } poison, ptr %exn, 0
  %lpad.val14 = insertvalue { ptr, i32 } %lpad.val, i32 %sel, 1
  resume { ptr, i32 } %lpad.val14
}

; Function Attrs: mustprogress nounwind uwtable
define weak_odr noundef i64 @_ZNKSt6vectorIN6openmc15TallyDerivativeESaIS1_EE4sizeEv(ptr noundef nonnull align 8 dereferenceable(24) %this) #4 comdat align 2 {
entry:
  %this.addr = alloca ptr, align 8
  store ptr %this, ptr %this.addr, align 8, !tbaa !33
  %this1 = load ptr, ptr %this.addr, align 8
  %_M_impl = getelementptr inbounds nuw %"struct.std::_Vector_base", ptr %this1, i32 0, i32 0
  %_M_finish = getelementptr inbounds nuw %"struct.std::_Vector_base<openmc::TallyDerivative, std::allocator<openmc::TallyDerivative>>::_Vector_impl_data", ptr %_M_impl, i32 0, i32 1
  %0 = load ptr, ptr %_M_finish, align 8, !tbaa !43
  %_M_impl2 = getelementptr inbounds nuw %"struct.std::_Vector_base", ptr %this1, i32 0, i32 0
  %_M_start = getelementptr inbounds nuw %"struct.std::_Vector_base<openmc::TallyDerivative, std::allocator<openmc::TallyDerivative>>::_Vector_impl_data", ptr %_M_impl2, i32 0, i32 0
  %1 = load ptr, ptr %_M_start, align 8, !tbaa !41
  %sub.ptr.lhs.cast = ptrtoint ptr %0 to i64
  %sub.ptr.rhs.cast = ptrtoint ptr %1 to i64
  %sub.ptr.sub = sub i64 %sub.ptr.lhs.cast, %sub.ptr.rhs.cast
  %sub.ptr.div = sdiv exact i64 %sub.ptr.sub, 16
  ret i64 %sub.ptr.div
}

; Function Attrs: mustprogress uwtable
define linkonce_odr void @_ZN9__gnu_cxx14__alloc_traitsISaIN6openmc15TallyDerivativeEES2_E17_S_select_on_copyERKS3_(ptr dead_on_unwind noalias writable sret(%"class.std::allocator") align 1 %agg.result, ptr noundef nonnull align 1 dereferenceable(1) %__a) #8 comdat align 2 {
entry:
  %result.ptr = alloca ptr, align 8
  %__a.addr = alloca ptr, align 8
  store ptr %agg.result, ptr %result.ptr, align 8
  store ptr %__a, ptr %__a.addr, align 8, !tbaa !22
  %0 = load ptr, ptr %__a.addr, align 8, !tbaa !22
  call void @_ZNSt16allocator_traitsISaIN6openmc15TallyDerivativeEEE37select_on_container_copy_constructionERKS2_(ptr dead_on_unwind writable sret(%"class.std::allocator") align 1 %agg.result, ptr noundef nonnull align 1 dereferenceable(1) %0)
  ret void
}

; Function Attrs: mustprogress nounwind uwtable
define linkonce_odr noundef nonnull align 1 dereferenceable(1) ptr @_ZNKSt12_Vector_baseIN6openmc15TallyDerivativeESaIS1_EE19_M_get_Tp_allocatorEv(ptr noundef nonnull align 8 dereferenceable(24) %this) #4 comdat align 2 {
entry:
  %this.addr = alloca ptr, align 8
  store ptr %this, ptr %this.addr, align 8, !tbaa !35
  %this1 = load ptr, ptr %this.addr, align 8
  %_M_impl = getelementptr inbounds nuw %"struct.std::_Vector_base", ptr %this1, i32 0, i32 0
  ret ptr %_M_impl
}

; Function Attrs: inlinehint mustprogress uwtable
define linkonce_odr noundef ptr @_ZSt22__uninitialized_copy_aIN9__gnu_cxx17__normal_iteratorIPKN6openmc15TallyDerivativeESt6vectorIS3_SaIS3_EEEEPS3_S3_ET0_T_SC_SB_RSaIT1_E(ptr %__first.coerce, ptr %__last.coerce, ptr noundef %__result, ptr noundef nonnull align 1 dereferenceable(1) %0) #13 comdat {
entry:
  %__first = alloca %"class.__gnu_cxx::__normal_iterator", align 8
  %__last = alloca %"class.__gnu_cxx::__normal_iterator", align 8
  %__result.addr = alloca ptr, align 8
  %.addr = alloca ptr, align 8
  %agg.tmp = alloca %"class.__gnu_cxx::__normal_iterator", align 8
  %agg.tmp2 = alloca %"class.__gnu_cxx::__normal_iterator", align 8
  %coerce.dive = getelementptr inbounds nuw %"class.__gnu_cxx::__normal_iterator", ptr %__first, i32 0, i32 0
  store ptr %__first.coerce, ptr %coerce.dive, align 8
  %coerce.dive1 = getelementptr inbounds nuw %"class.__gnu_cxx::__normal_iterator", ptr %__last, i32 0, i32 0
  store ptr %__last.coerce, ptr %coerce.dive1, align 8
  store ptr %__result, ptr %__result.addr, align 8, !tbaa !17
  store ptr %0, ptr %.addr, align 8, !tbaa !22
  call void @llvm.memcpy.p0.p0.i64(ptr align 8 %agg.tmp, ptr align 8 %__first, i64 8, i1 false), !tbaa.struct !52
  call void @llvm.memcpy.p0.p0.i64(ptr align 8 %agg.tmp2, ptr align 8 %__last, i64 8, i1 false), !tbaa.struct !52
  %1 = load ptr, ptr %__result.addr, align 8, !tbaa !17
  %coerce.dive3 = getelementptr inbounds nuw %"class.__gnu_cxx::__normal_iterator", ptr %agg.tmp, i32 0, i32 0
  %2 = load ptr, ptr %coerce.dive3, align 8
  %coerce.dive4 = getelementptr inbounds nuw %"class.__gnu_cxx::__normal_iterator", ptr %agg.tmp2, i32 0, i32 0
  %3 = load ptr, ptr %coerce.dive4, align 8
  %call = call noundef ptr @_ZSt18uninitialized_copyIN9__gnu_cxx17__normal_iteratorIPKN6openmc15TallyDerivativeESt6vectorIS3_SaIS3_EEEEPS3_ET0_T_SC_SB_(ptr %2, ptr %3, ptr noundef %1)
  ret ptr %call
}

; Function Attrs: mustprogress nounwind uwtable
define weak_odr ptr @_ZNKSt6vectorIN6openmc15TallyDerivativeESaIS1_EE5beginEv(ptr noundef nonnull align 8 dereferenceable(24) %this) #4 comdat align 2 {
entry:
  %retval = alloca %"class.__gnu_cxx::__normal_iterator", align 8
  %this.addr = alloca ptr, align 8
  store ptr %this, ptr %this.addr, align 8, !tbaa !33
  %this1 = load ptr, ptr %this.addr, align 8
  %_M_impl = getelementptr inbounds nuw %"struct.std::_Vector_base", ptr %this1, i32 0, i32 0
  %_M_start = getelementptr inbounds nuw %"struct.std::_Vector_base<openmc::TallyDerivative, std::allocator<openmc::TallyDerivative>>::_Vector_impl_data", ptr %_M_impl, i32 0, i32 0
  call void @_ZN9__gnu_cxx17__normal_iteratorIPKN6openmc15TallyDerivativeESt6vectorIS2_SaIS2_EEEC2ERKS4_(ptr noundef nonnull align 8 dereferenceable(8) %retval, ptr noundef nonnull align 8 dereferenceable(8) %_M_start) #3
  %coerce.dive = getelementptr inbounds nuw %"class.__gnu_cxx::__normal_iterator", ptr %retval, i32 0, i32 0
  %0 = load ptr, ptr %coerce.dive, align 8
  ret ptr %0
}

; Function Attrs: mustprogress nounwind uwtable
define weak_odr ptr @_ZNKSt6vectorIN6openmc15TallyDerivativeESaIS1_EE3endEv(ptr noundef nonnull align 8 dereferenceable(24) %this) #4 comdat align 2 {
entry:
  %retval = alloca %"class.__gnu_cxx::__normal_iterator", align 8
  %this.addr = alloca ptr, align 8
  store ptr %this, ptr %this.addr, align 8, !tbaa !33
  %this1 = load ptr, ptr %this.addr, align 8
  %_M_impl = getelementptr inbounds nuw %"struct.std::_Vector_base", ptr %this1, i32 0, i32 0
  %_M_finish = getelementptr inbounds nuw %"struct.std::_Vector_base<openmc::TallyDerivative, std::allocator<openmc::TallyDerivative>>::_Vector_impl_data", ptr %_M_impl, i32 0, i32 1
  call void @_ZN9__gnu_cxx17__normal_iteratorIPKN6openmc15TallyDerivativeESt6vectorIS2_SaIS2_EEEC2ERKS4_(ptr noundef nonnull align 8 dereferenceable(8) %retval, ptr noundef nonnull align 8 dereferenceable(8) %_M_finish) #3
  %coerce.dive = getelementptr inbounds nuw %"class.__gnu_cxx::__normal_iterator", ptr %retval, i32 0, i32 0
  %0 = load ptr, ptr %coerce.dive, align 8
  ret ptr %0
}

; Function Attrs: mustprogress nounwind uwtable
define linkonce_odr void @_ZNSt16allocator_traitsISaIN6openmc15TallyDerivativeEEE37select_on_container_copy_constructionERKS2_(ptr dead_on_unwind noalias writable sret(%"class.std::allocator") align 1 %agg.result, ptr noundef nonnull align 1 dereferenceable(1) %__rhs) #4 comdat align 2 {
entry:
  %result.ptr = alloca ptr, align 8
  %__rhs.addr = alloca ptr, align 8
  store ptr %agg.result, ptr %result.ptr, align 8
  store ptr %__rhs, ptr %__rhs.addr, align 8, !tbaa !22
  %0 = load ptr, ptr %__rhs.addr, align 8, !tbaa !22
  call void @_ZNSaIN6openmc15TallyDerivativeEEC2ERKS1_(ptr noundef nonnull align 1 dereferenceable(1) %agg.result, ptr noundef nonnull align 1 dereferenceable(1) %0) #3
  ret void
}

; Function Attrs: inlinehint mustprogress uwtable
define linkonce_odr noundef ptr @_ZSt18uninitialized_copyIN9__gnu_cxx17__normal_iteratorIPKN6openmc15TallyDerivativeESt6vectorIS3_SaIS3_EEEEPS3_ET0_T_SC_SB_(ptr %__first.coerce, ptr %__last.coerce, ptr noundef %__result) #13 comdat {
entry:
  %__first = alloca %"class.__gnu_cxx::__normal_iterator", align 8
  %__last = alloca %"class.__gnu_cxx::__normal_iterator", align 8
  %__result.addr = alloca ptr, align 8
  %__can_memmove = alloca i8, align 1
  %__assignable = alloca i8, align 1
  %agg.tmp = alloca %"class.__gnu_cxx::__normal_iterator", align 8
  %agg.tmp2 = alloca %"class.__gnu_cxx::__normal_iterator", align 8
  %coerce.dive = getelementptr inbounds nuw %"class.__gnu_cxx::__normal_iterator", ptr %__first, i32 0, i32 0
  store ptr %__first.coerce, ptr %coerce.dive, align 8
  %coerce.dive1 = getelementptr inbounds nuw %"class.__gnu_cxx::__normal_iterator", ptr %__last, i32 0, i32 0
  store ptr %__last.coerce, ptr %coerce.dive1, align 8
  store ptr %__result, ptr %__result.addr, align 8, !tbaa !17
  call void @llvm.lifetime.start.p0(i64 1, ptr %__can_memmove) #3
  store i8 0, ptr %__can_memmove, align 1, !tbaa !48
  call void @llvm.lifetime.start.p0(i64 1, ptr %__assignable) #3
  store i8 0, ptr %__assignable, align 1, !tbaa !48
  call void @llvm.memcpy.p0.p0.i64(ptr align 8 %agg.tmp, ptr align 8 %__first, i64 8, i1 false), !tbaa.struct !52
  call void @llvm.memcpy.p0.p0.i64(ptr align 8 %agg.tmp2, ptr align 8 %__last, i64 8, i1 false), !tbaa.struct !52
  %0 = load ptr, ptr %__result.addr, align 8, !tbaa !17
  %coerce.dive3 = getelementptr inbounds nuw %"class.__gnu_cxx::__normal_iterator", ptr %agg.tmp, i32 0, i32 0
  %1 = load ptr, ptr %coerce.dive3, align 8
  %coerce.dive4 = getelementptr inbounds nuw %"class.__gnu_cxx::__normal_iterator", ptr %agg.tmp2, i32 0, i32 0
  %2 = load ptr, ptr %coerce.dive4, align 8
  %call = call noundef ptr @_ZNSt20__uninitialized_copyILb0EE13__uninit_copyIN9__gnu_cxx17__normal_iteratorIPKN6openmc15TallyDerivativeESt6vectorIS5_SaIS5_EEEEPS5_EET0_T_SE_SD_(ptr %1, ptr %2, ptr noundef %0)
  call void @llvm.lifetime.end.p0(i64 1, ptr %__assignable) #3
  call void @llvm.lifetime.end.p0(i64 1, ptr %__can_memmove) #3
  ret ptr %call
}

; Function Attrs: mustprogress uwtable
define linkonce_odr noundef ptr @_ZNSt20__uninitialized_copyILb0EE13__uninit_copyIN9__gnu_cxx17__normal_iteratorIPKN6openmc15TallyDerivativeESt6vectorIS5_SaIS5_EEEEPS5_EET0_T_SE_SD_(ptr %__first.coerce, ptr %__last.coerce, ptr noundef %__result) #8 comdat align 2 {
entry:
  %__first = alloca %"class.__gnu_cxx::__normal_iterator", align 8
  %__last = alloca %"class.__gnu_cxx::__normal_iterator", align 8
  %__result.addr = alloca ptr, align 8
  %agg.tmp = alloca %"class.__gnu_cxx::__normal_iterator", align 8
  %agg.tmp2 = alloca %"class.__gnu_cxx::__normal_iterator", align 8
  %coerce.dive = getelementptr inbounds nuw %"class.__gnu_cxx::__normal_iterator", ptr %__first, i32 0, i32 0
  store ptr %__first.coerce, ptr %coerce.dive, align 8
  %coerce.dive1 = getelementptr inbounds nuw %"class.__gnu_cxx::__normal_iterator", ptr %__last, i32 0, i32 0
  store ptr %__last.coerce, ptr %coerce.dive1, align 8
  store ptr %__result, ptr %__result.addr, align 8, !tbaa !17
  call void @llvm.memcpy.p0.p0.i64(ptr align 8 %agg.tmp, ptr align 8 %__first, i64 8, i1 false), !tbaa.struct !52
  call void @llvm.memcpy.p0.p0.i64(ptr align 8 %agg.tmp2, ptr align 8 %__last, i64 8, i1 false), !tbaa.struct !52
  %0 = load ptr, ptr %__result.addr, align 8, !tbaa !17
  %coerce.dive3 = getelementptr inbounds nuw %"class.__gnu_cxx::__normal_iterator", ptr %agg.tmp, i32 0, i32 0
  %1 = load ptr, ptr %coerce.dive3, align 8
  %coerce.dive4 = getelementptr inbounds nuw %"class.__gnu_cxx::__normal_iterator", ptr %agg.tmp2, i32 0, i32 0
  %2 = load ptr, ptr %coerce.dive4, align 8
  %call = call noundef ptr @_ZSt16__do_uninit_copyIN9__gnu_cxx17__normal_iteratorIPKN6openmc15TallyDerivativeESt6vectorIS3_SaIS3_EEEEPS3_ET0_T_SC_SB_(ptr %1, ptr %2, ptr noundef %0)
  ret ptr %call
}

; Function Attrs: mustprogress nounwind uwtable
define linkonce_odr noundef ptr @_ZSt16__do_uninit_copyIN9__gnu_cxx17__normal_iteratorIPKN6openmc15TallyDerivativeESt6vectorIS3_SaIS3_EEEEPS3_ET0_T_SC_SB_(ptr %__first.coerce, ptr %__last.coerce, ptr noundef %__result) #4 comdat {
entry:
  %__first = alloca %"class.__gnu_cxx::__normal_iterator", align 8
  %__last = alloca %"class.__gnu_cxx::__normal_iterator", align 8
  %__result.addr = alloca ptr, align 8
  %__cur = alloca ptr, align 8
  %coerce.dive = getelementptr inbounds nuw %"class.__gnu_cxx::__normal_iterator", ptr %__first, i32 0, i32 0
  store ptr %__first.coerce, ptr %coerce.dive, align 8
  %coerce.dive1 = getelementptr inbounds nuw %"class.__gnu_cxx::__normal_iterator", ptr %__last, i32 0, i32 0
  store ptr %__last.coerce, ptr %coerce.dive1, align 8
  store ptr %__result, ptr %__result.addr, align 8, !tbaa !17
  call void @llvm.lifetime.start.p0(i64 8, ptr %__cur) #3
  %0 = load ptr, ptr %__result.addr, align 8, !tbaa !17
  store ptr %0, ptr %__cur, align 8, !tbaa !17
  br label %for.cond

for.cond:                                         ; preds = %for.inc, %entry
  %call = call noundef zeroext i1 @_ZN9__gnu_cxxneIPKN6openmc15TallyDerivativeESt6vectorIS2_SaIS2_EEEEbRKNS_17__normal_iteratorIT_T0_EESD_(ptr noundef nonnull align 8 dereferenceable(8) %__first, ptr noundef nonnull align 8 dereferenceable(8) %__last) #3
  br i1 %call, label %for.body, label %for.end

for.body:                                         ; preds = %for.cond
  %1 = load ptr, ptr %__cur, align 8, !tbaa !17
  %call2 = call noundef nonnull align 4 dereferenceable(16) ptr @_ZNK9__gnu_cxx17__normal_iteratorIPKN6openmc15TallyDerivativeESt6vectorIS2_SaIS2_EEEdeEv(ptr noundef nonnull align 8 dereferenceable(8) %__first) #3
  call void @_ZSt10_ConstructIN6openmc15TallyDerivativeEJRKS1_EEvPT_DpOT0_(ptr noundef %1, ptr noundef nonnull align 4 dereferenceable(16) %call2)
  br label %for.inc

for.inc:                                          ; preds = %for.body
  %call3 = call noundef nonnull align 8 dereferenceable(8) ptr @_ZN9__gnu_cxx17__normal_iteratorIPKN6openmc15TallyDerivativeESt6vectorIS2_SaIS2_EEEppEv(ptr noundef nonnull align 8 dereferenceable(8) %__first) #3
  %2 = load ptr, ptr %__cur, align 8, !tbaa !17
  %incdec.ptr = getelementptr inbounds nuw %"struct.openmc::TallyDerivative", ptr %2, i32 1
  store ptr %incdec.ptr, ptr %__cur, align 8, !tbaa !17
  br label %for.cond, !llvm.loop !53

for.end:                                          ; preds = %for.cond
  %3 = load ptr, ptr %__cur, align 8, !tbaa !17
  call void @llvm.lifetime.end.p0(i64 8, ptr %__cur) #3
  ret ptr %3
}

; Function Attrs: inlinehint mustprogress nounwind uwtable
define linkonce_odr noundef zeroext i1 @_ZN9__gnu_cxxneIPKN6openmc15TallyDerivativeESt6vectorIS2_SaIS2_EEEEbRKNS_17__normal_iteratorIT_T0_EESD_(ptr noundef nonnull align 8 dereferenceable(8) %__lhs, ptr noundef nonnull align 8 dereferenceable(8) %__rhs) #6 comdat {
entry:
  %__lhs.addr = alloca ptr, align 8
  %__rhs.addr = alloca ptr, align 8
  store ptr %__lhs, ptr %__lhs.addr, align 8, !tbaa !54
  store ptr %__rhs, ptr %__rhs.addr, align 8, !tbaa !54
  %0 = load ptr, ptr %__lhs.addr, align 8, !tbaa !54
  %call = call noundef nonnull align 8 dereferenceable(8) ptr @_ZNK9__gnu_cxx17__normal_iteratorIPKN6openmc15TallyDerivativeESt6vectorIS2_SaIS2_EEE4baseEv(ptr noundef nonnull align 8 dereferenceable(8) %0) #3
  %1 = load ptr, ptr %call, align 8, !tbaa !17
  %2 = load ptr, ptr %__rhs.addr, align 8, !tbaa !54
  %call1 = call noundef nonnull align 8 dereferenceable(8) ptr @_ZNK9__gnu_cxx17__normal_iteratorIPKN6openmc15TallyDerivativeESt6vectorIS2_SaIS2_EEE4baseEv(ptr noundef nonnull align 8 dereferenceable(8) %2) #3
  %3 = load ptr, ptr %call1, align 8, !tbaa !17
  %cmp = icmp ne ptr %1, %3
  ret i1 %cmp
}

; Function Attrs: mustprogress nounwind uwtable
define linkonce_odr noundef nonnull align 4 dereferenceable(16) ptr @_ZNK9__gnu_cxx17__normal_iteratorIPKN6openmc15TallyDerivativeESt6vectorIS2_SaIS2_EEEdeEv(ptr noundef nonnull align 8 dereferenceable(8) %this) #4 comdat align 2 {
entry:
  %this.addr = alloca ptr, align 8
  store ptr %this, ptr %this.addr, align 8, !tbaa !54
  %this1 = load ptr, ptr %this.addr, align 8
  %_M_current = getelementptr inbounds nuw %"class.__gnu_cxx::__normal_iterator", ptr %this1, i32 0, i32 0
  %0 = load ptr, ptr %_M_current, align 8, !tbaa !56
  ret ptr %0
}

; Function Attrs: mustprogress nounwind uwtable
define linkonce_odr noundef nonnull align 8 dereferenceable(8) ptr @_ZN9__gnu_cxx17__normal_iteratorIPKN6openmc15TallyDerivativeESt6vectorIS2_SaIS2_EEEppEv(ptr noundef nonnull align 8 dereferenceable(8) %this) #4 comdat align 2 {
entry:
  %this.addr = alloca ptr, align 8
  store ptr %this, ptr %this.addr, align 8, !tbaa !54
  %this1 = load ptr, ptr %this.addr, align 8
  %_M_current = getelementptr inbounds nuw %"class.__gnu_cxx::__normal_iterator", ptr %this1, i32 0, i32 0
  %0 = load ptr, ptr %_M_current, align 8, !tbaa !56
  %incdec.ptr = getelementptr inbounds nuw %"struct.openmc::TallyDerivative", ptr %0, i32 1
  store ptr %incdec.ptr, ptr %_M_current, align 8, !tbaa !56
  ret ptr %this1
}

; Function Attrs: mustprogress nounwind uwtable
define linkonce_odr noundef nonnull align 8 dereferenceable(8) ptr @_ZNK9__gnu_cxx17__normal_iteratorIPKN6openmc15TallyDerivativeESt6vectorIS2_SaIS2_EEE4baseEv(ptr noundef nonnull align 8 dereferenceable(8) %this) #4 comdat align 2 {
entry:
  %this.addr = alloca ptr, align 8
  store ptr %this, ptr %this.addr, align 8, !tbaa !54
  %this1 = load ptr, ptr %this.addr, align 8
  %_M_current = getelementptr inbounds nuw %"class.__gnu_cxx::__normal_iterator", ptr %this1, i32 0, i32 0
  ret ptr %_M_current
}

; Function Attrs: mustprogress nounwind uwtable
define linkonce_odr void @_ZN9__gnu_cxx17__normal_iteratorIPKN6openmc15TallyDerivativeESt6vectorIS2_SaIS2_EEEC2ERKS4_(ptr noundef nonnull align 8 dereferenceable(8) %this, ptr noundef nonnull align 8 dereferenceable(8) %__i) unnamed_addr #4 comdat align 2 {
entry:
  %this.addr = alloca ptr, align 8
  %__i.addr = alloca ptr, align 8
  store ptr %this, ptr %this.addr, align 8, !tbaa !54
  store ptr %__i, ptr %__i.addr, align 8, !tbaa !58
  %this1 = load ptr, ptr %this.addr, align 8
  %_M_current = getelementptr inbounds nuw %"class.__gnu_cxx::__normal_iterator", ptr %this1, i32 0, i32 0
  %0 = load ptr, ptr %__i.addr, align 8, !tbaa !58
  %1 = load ptr, ptr %0, align 8, !tbaa !17
  store ptr %1, ptr %_M_current, align 8, !tbaa !56
  ret void
}

; Function Attrs: mustprogress uwtable
define weak_odr void @_ZNSt6vectorIN6openmc15TallyDerivativeESaIS1_EEC2ERKS3_RKS2_(ptr noundef nonnull align 8 dereferenceable(24) %this, ptr noundef nonnull align 8 dereferenceable(24) %__x, ptr noundef nonnull align 1 dereferenceable(1) %__a) unnamed_addr #8 comdat($_ZNSt6vectorIN6openmc15TallyDerivativeESaIS1_EEC5ERKS3_RKS2_) align 2 personality ptr @__gxx_personality_v0 {
entry:
  %this.addr = alloca ptr, align 8
  %__x.addr = alloca ptr, align 8
  %__a.addr = alloca ptr, align 8
  %agg.tmp = alloca %"class.__gnu_cxx::__normal_iterator", align 8
  %agg.tmp3 = alloca %"class.__gnu_cxx::__normal_iterator", align 8
  %exn.slot = alloca ptr, align 8
  %ehselector.slot = alloca i32, align 4
  store ptr %this, ptr %this.addr, align 8, !tbaa !33
  store ptr %__x, ptr %__x.addr, align 8, !tbaa !33
  store ptr %__a, ptr %__a.addr, align 8, !tbaa !22
  %this1 = load ptr, ptr %this.addr, align 8
  %0 = load ptr, ptr %__x.addr, align 8, !tbaa !33
  %call = call noundef i64 @_ZNKSt6vectorIN6openmc15TallyDerivativeESaIS1_EE4sizeEv(ptr noundef nonnull align 8 dereferenceable(24) %0) #3
  %1 = load ptr, ptr %__a.addr, align 8, !tbaa !22
  call void @_ZNSt12_Vector_baseIN6openmc15TallyDerivativeESaIS1_EEC2EmRKS2_(ptr noundef nonnull align 8 dereferenceable(24) %this1, i64 noundef %call, ptr noundef nonnull align 1 dereferenceable(1) %1)
  %2 = load ptr, ptr %__x.addr, align 8, !tbaa !33
  %call2 = call ptr @_ZNKSt6vectorIN6openmc15TallyDerivativeESaIS1_EE5beginEv(ptr noundef nonnull align 8 dereferenceable(24) %2) #3
  %coerce.dive = getelementptr inbounds nuw %"class.__gnu_cxx::__normal_iterator", ptr %agg.tmp, i32 0, i32 0
  store ptr %call2, ptr %coerce.dive, align 8
  %3 = load ptr, ptr %__x.addr, align 8, !tbaa !33
  %call4 = call ptr @_ZNKSt6vectorIN6openmc15TallyDerivativeESaIS1_EE3endEv(ptr noundef nonnull align 8 dereferenceable(24) %3) #3
  %coerce.dive5 = getelementptr inbounds nuw %"class.__gnu_cxx::__normal_iterator", ptr %agg.tmp3, i32 0, i32 0
  store ptr %call4, ptr %coerce.dive5, align 8
  %_M_impl = getelementptr inbounds nuw %"struct.std::_Vector_base", ptr %this1, i32 0, i32 0
  %_M_start = getelementptr inbounds nuw %"struct.std::_Vector_base<openmc::TallyDerivative, std::allocator<openmc::TallyDerivative>>::_Vector_impl_data", ptr %_M_impl, i32 0, i32 0
  %4 = load ptr, ptr %_M_start, align 8, !tbaa !41
  %call6 = call noundef nonnull align 1 dereferenceable(1) ptr @_ZNSt12_Vector_baseIN6openmc15TallyDerivativeESaIS1_EE19_M_get_Tp_allocatorEv(ptr noundef nonnull align 8 dereferenceable(24) %this1) #3
  %coerce.dive7 = getelementptr inbounds nuw %"class.__gnu_cxx::__normal_iterator", ptr %agg.tmp, i32 0, i32 0
  %5 = load ptr, ptr %coerce.dive7, align 8
  %coerce.dive8 = getelementptr inbounds nuw %"class.__gnu_cxx::__normal_iterator", ptr %agg.tmp3, i32 0, i32 0
  %6 = load ptr, ptr %coerce.dive8, align 8
  %call9 = invoke noundef ptr @_ZSt22__uninitialized_copy_aIN9__gnu_cxx17__normal_iteratorIPKN6openmc15TallyDerivativeESt6vectorIS3_SaIS3_EEEEPS3_S3_ET0_T_SC_SB_RSaIT1_E(ptr %5, ptr %6, ptr noundef %4, ptr noundef nonnull align 1 dereferenceable(1) %call6)
          to label %invoke.cont unwind label %lpad

invoke.cont:                                      ; preds = %entry
  %_M_impl10 = getelementptr inbounds nuw %"struct.std::_Vector_base", ptr %this1, i32 0, i32 0
  %_M_finish = getelementptr inbounds nuw %"struct.std::_Vector_base<openmc::TallyDerivative, std::allocator<openmc::TallyDerivative>>::_Vector_impl_data", ptr %_M_impl10, i32 0, i32 1
  store ptr %call9, ptr %_M_finish, align 8, !tbaa !43
  ret void

lpad:                                             ; preds = %entry
  %7 = landingpad { ptr, i32 }
          cleanup
  %8 = extractvalue { ptr, i32 } %7, 0
  store ptr %8, ptr %exn.slot, align 8
  %9 = extractvalue { ptr, i32 } %7, 1
  store i32 %9, ptr %ehselector.slot, align 4
  call void @_ZNSt12_Vector_baseIN6openmc15TallyDerivativeESaIS1_EED2Ev(ptr noundef nonnull align 8 dereferenceable(24) %this1) #3
  br label %eh.resume

eh.resume:                                        ; preds = %lpad
  %exn = load ptr, ptr %exn.slot, align 8
  %sel = load i32, ptr %ehselector.slot, align 4
  %lpad.val = insertvalue { ptr, i32 } poison, ptr %exn, 0
  %lpad.val11 = insertvalue { ptr, i32 } %lpad.val, i32 %sel, 1
  resume { ptr, i32 } %lpad.val11
}

; Function Attrs: mustprogress nounwind uwtable
define weak_odr void @_ZNSt6vectorIN6openmc15TallyDerivativeESaIS1_EEC2EOS3_RKS2_St17integral_constantIbLb1EE(ptr noundef nonnull align 8 dereferenceable(24) %this, ptr noundef nonnull align 8 dereferenceable(24) %__rv, ptr noundef nonnull align 1 dereferenceable(1) %__m) unnamed_addr #4 comdat($_ZNSt6vectorIN6openmc15TallyDerivativeESaIS1_EEC5EOS3_RKS2_St17integral_constantIbLb1EE) align 2 personality ptr @__gxx_personality_v0 {
entry:
  %0 = alloca %"struct.std::integral_constant", align 1
  %this.addr = alloca ptr, align 8
  %__rv.addr = alloca ptr, align 8
  %__m.addr = alloca ptr, align 8
  store ptr %this, ptr %this.addr, align 8, !tbaa !33
  store ptr %__rv, ptr %__rv.addr, align 8, !tbaa !33
  store ptr %__m, ptr %__m.addr, align 8, !tbaa !22
  %this1 = load ptr, ptr %this.addr, align 8
  %1 = load ptr, ptr %__m.addr, align 8, !tbaa !22
  %2 = load ptr, ptr %__rv.addr, align 8, !tbaa !33
  invoke void @_ZNSt12_Vector_baseIN6openmc15TallyDerivativeESaIS1_EEC2ERKS2_OS3_(ptr noundef nonnull align 8 dereferenceable(24) %this1, ptr noundef nonnull align 1 dereferenceable(1) %1, ptr noundef nonnull align 8 dereferenceable(24) %2)
          to label %invoke.cont unwind label %terminate.lpad

invoke.cont:                                      ; preds = %entry
  ret void

terminate.lpad:                                   ; preds = %entry
  %3 = landingpad { ptr, i32 }
          catch ptr null
  %4 = extractvalue { ptr, i32 } %3, 0
  call void @__clang_call_terminate(ptr %4) #26
  unreachable
}

; Function Attrs: mustprogress nounwind uwtable
define linkonce_odr void @_ZNSt12_Vector_baseIN6openmc15TallyDerivativeESaIS1_EEC2ERKS2_OS3_(ptr noundef nonnull align 8 dereferenceable(24) %this, ptr noundef nonnull align 1 dereferenceable(1) %__a, ptr noundef nonnull align 8 dereferenceable(24) %__x) unnamed_addr #4 comdat align 2 {
entry:
  %this.addr = alloca ptr, align 8
  %__a.addr = alloca ptr, align 8
  %__x.addr = alloca ptr, align 8
  %ref.tmp = alloca %"class.std::allocator", align 1
  store ptr %this, ptr %this.addr, align 8, !tbaa !35
  store ptr %__a, ptr %__a.addr, align 8, !tbaa !22
  store ptr %__x, ptr %__x.addr, align 8, !tbaa !35
  %this1 = load ptr, ptr %this.addr, align 8
  %_M_impl = getelementptr inbounds nuw %"struct.std::_Vector_base", ptr %this1, i32 0, i32 0
  call void @llvm.lifetime.start.p0(i64 1, ptr %ref.tmp) #3
  %0 = load ptr, ptr %__a.addr, align 8, !tbaa !22
  call void @_ZNSaIN6openmc15TallyDerivativeEEC2ERKS1_(ptr noundef nonnull align 1 dereferenceable(1) %ref.tmp, ptr noundef nonnull align 1 dereferenceable(1) %0) #3
  %1 = load ptr, ptr %__x.addr, align 8, !tbaa !35
  %_M_impl2 = getelementptr inbounds nuw %"struct.std::_Vector_base", ptr %1, i32 0, i32 0
  call void @_ZNSt12_Vector_baseIN6openmc15TallyDerivativeESaIS1_EE12_Vector_implC2EOS2_OS4_(ptr noundef nonnull align 8 dereferenceable(24) %_M_impl, ptr noundef nonnull align 1 dereferenceable(1) %ref.tmp, ptr noundef nonnull align 8 dereferenceable(24) %_M_impl2) #3
  call void @_ZNSt15__new_allocatorIN6openmc15TallyDerivativeEED2Ev(ptr noundef nonnull align 1 dereferenceable(1) %ref.tmp) #3
  call void @llvm.lifetime.end.p0(i64 1, ptr %ref.tmp) #3
  ret void
}

; Function Attrs: mustprogress nounwind uwtable
define linkonce_odr void @_ZNSt12_Vector_baseIN6openmc15TallyDerivativeESaIS1_EE12_Vector_implC2EOS2_OS4_(ptr noundef nonnull align 8 dereferenceable(24) %this, ptr noundef nonnull align 1 dereferenceable(1) %__a, ptr noundef nonnull align 8 dereferenceable(24) %__rv) unnamed_addr #4 comdat align 2 {
entry:
  %this.addr = alloca ptr, align 8
  %__a.addr = alloca ptr, align 8
  %__rv.addr = alloca ptr, align 8
  store ptr %this, ptr %this.addr, align 8, !tbaa !37
  store ptr %__a, ptr %__a.addr, align 8, !tbaa !22
  store ptr %__rv, ptr %__rv.addr, align 8, !tbaa !37
  %this1 = load ptr, ptr %this.addr, align 8
  %0 = load ptr, ptr %__a.addr, align 8, !tbaa !22
  call void @_ZNSaIN6openmc15TallyDerivativeEEC2ERKS1_(ptr noundef nonnull align 1 dereferenceable(1) %this1, ptr noundef nonnull align 1 dereferenceable(1) %0) #3
  %1 = load ptr, ptr %__rv.addr, align 8, !tbaa !37
  call void @_ZNSt12_Vector_baseIN6openmc15TallyDerivativeESaIS1_EE17_Vector_impl_dataC2EOS4_(ptr noundef nonnull align 8 dereferenceable(24) %this1, ptr noundef nonnull align 8 dereferenceable(24) %1) #3
  ret void
}

; Function Attrs: mustprogress nounwind uwtable
define linkonce_odr void @_ZNSt12_Vector_baseIN6openmc15TallyDerivativeESaIS1_EE17_Vector_impl_dataC2EOS4_(ptr noundef nonnull align 8 dereferenceable(24) %this, ptr noundef nonnull align 8 dereferenceable(24) %__x) unnamed_addr #4 comdat align 2 {
entry:
  %this.addr = alloca ptr, align 8
  %__x.addr = alloca ptr, align 8
  store ptr %this, ptr %this.addr, align 8, !tbaa !61
  store ptr %__x, ptr %__x.addr, align 8, !tbaa !61
  %this1 = load ptr, ptr %this.addr, align 8
  %_M_start = getelementptr inbounds nuw %"struct.std::_Vector_base<openmc::TallyDerivative, std::allocator<openmc::TallyDerivative>>::_Vector_impl_data", ptr %this1, i32 0, i32 0
  %0 = load ptr, ptr %__x.addr, align 8, !tbaa !61
  %_M_start2 = getelementptr inbounds nuw %"struct.std::_Vector_base<openmc::TallyDerivative, std::allocator<openmc::TallyDerivative>>::_Vector_impl_data", ptr %0, i32 0, i32 0
  %1 = load ptr, ptr %_M_start2, align 8, !tbaa !41
  store ptr %1, ptr %_M_start, align 8, !tbaa !41
  %_M_finish = getelementptr inbounds nuw %"struct.std::_Vector_base<openmc::TallyDerivative, std::allocator<openmc::TallyDerivative>>::_Vector_impl_data", ptr %this1, i32 0, i32 1
  %2 = load ptr, ptr %__x.addr, align 8, !tbaa !61
  %_M_finish3 = getelementptr inbounds nuw %"struct.std::_Vector_base<openmc::TallyDerivative, std::allocator<openmc::TallyDerivative>>::_Vector_impl_data", ptr %2, i32 0, i32 1
  %3 = load ptr, ptr %_M_finish3, align 8, !tbaa !43
  store ptr %3, ptr %_M_finish, align 8, !tbaa !43
  %_M_end_of_storage = getelementptr inbounds nuw %"struct.std::_Vector_base<openmc::TallyDerivative, std::allocator<openmc::TallyDerivative>>::_Vector_impl_data", ptr %this1, i32 0, i32 2
  %4 = load ptr, ptr %__x.addr, align 8, !tbaa !61
  %_M_end_of_storage4 = getelementptr inbounds nuw %"struct.std::_Vector_base<openmc::TallyDerivative, std::allocator<openmc::TallyDerivative>>::_Vector_impl_data", ptr %4, i32 0, i32 2
  %5 = load ptr, ptr %_M_end_of_storage4, align 8, !tbaa !44
  store ptr %5, ptr %_M_end_of_storage, align 8, !tbaa !44
  %6 = load ptr, ptr %__x.addr, align 8, !tbaa !61
  %_M_end_of_storage5 = getelementptr inbounds nuw %"struct.std::_Vector_base<openmc::TallyDerivative, std::allocator<openmc::TallyDerivative>>::_Vector_impl_data", ptr %6, i32 0, i32 2
  store ptr null, ptr %_M_end_of_storage5, align 8, !tbaa !44
  %7 = load ptr, ptr %__x.addr, align 8, !tbaa !61
  %_M_finish6 = getelementptr inbounds nuw %"struct.std::_Vector_base<openmc::TallyDerivative, std::allocator<openmc::TallyDerivative>>::_Vector_impl_data", ptr %7, i32 0, i32 1
  store ptr null, ptr %_M_finish6, align 8, !tbaa !43
  %8 = load ptr, ptr %__x.addr, align 8, !tbaa !61
  %_M_start7 = getelementptr inbounds nuw %"struct.std::_Vector_base<openmc::TallyDerivative, std::allocator<openmc::TallyDerivative>>::_Vector_impl_data", ptr %8, i32 0, i32 0
  store ptr null, ptr %_M_start7, align 8, !tbaa !41
  ret void
}

; Function Attrs: mustprogress uwtable
define weak_odr void @_ZNSt6vectorIN6openmc15TallyDerivativeESaIS1_EEC2EOS3_RKS2_St17integral_constantIbLb0EE(ptr noundef nonnull align 8 dereferenceable(24) %this, ptr noundef nonnull align 8 dereferenceable(24) %__rv, ptr noundef nonnull align 1 dereferenceable(1) %__m) unnamed_addr #8 comdat($_ZNSt6vectorIN6openmc15TallyDerivativeESaIS1_EEC5EOS3_RKS2_St17integral_constantIbLb0EE) align 2 personality ptr @__gxx_personality_v0 {
entry:
  %0 = alloca %"struct.std::integral_constant.0", align 1
  %this.addr = alloca ptr, align 8
  %__rv.addr = alloca ptr, align 8
  %__m.addr = alloca ptr, align 8
  %ref.tmp = alloca %"class.std::allocator", align 1
  %exn.slot = alloca ptr, align 8
  %ehselector.slot = alloca i32, align 4
  %agg.tmp = alloca %"class.__gnu_cxx::__normal_iterator.1", align 8
  %agg.tmp7 = alloca %"class.__gnu_cxx::__normal_iterator.1", align 8
  store ptr %this, ptr %this.addr, align 8, !tbaa !33
  store ptr %__rv, ptr %__rv.addr, align 8, !tbaa !33
  store ptr %__m, ptr %__m.addr, align 8, !tbaa !22
  %this1 = load ptr, ptr %this.addr, align 8
  %1 = load ptr, ptr %__m.addr, align 8, !tbaa !22
  call void @_ZNSt12_Vector_baseIN6openmc15TallyDerivativeESaIS1_EEC2ERKS2_(ptr noundef nonnull align 8 dereferenceable(24) %this1, ptr noundef nonnull align 1 dereferenceable(1) %1) #3
  call void @llvm.lifetime.start.p0(i64 1, ptr %ref.tmp) #3
  %2 = load ptr, ptr %__rv.addr, align 8, !tbaa !33
  call void @_ZNKSt12_Vector_baseIN6openmc15TallyDerivativeESaIS1_EE13get_allocatorEv(ptr dead_on_unwind writable sret(%"class.std::allocator") align 1 %ref.tmp, ptr noundef nonnull align 8 dereferenceable(24) %2) #3
  %3 = load ptr, ptr %__m.addr, align 8, !tbaa !22
  %call = call noundef zeroext i1 @_ZSteqRKSaIN6openmc15TallyDerivativeEES3_(ptr noundef nonnull align 1 dereferenceable(1) %ref.tmp, ptr noundef nonnull align 1 dereferenceable(1) %3) #3
  call void @_ZNSt15__new_allocatorIN6openmc15TallyDerivativeEED2Ev(ptr noundef nonnull align 1 dereferenceable(1) %ref.tmp) #3
  call void @llvm.lifetime.end.p0(i64 1, ptr %ref.tmp) #3
  br i1 %call, label %if.then, label %if.else

if.then:                                          ; preds = %entry
  %_M_impl = getelementptr inbounds nuw %"struct.std::_Vector_base", ptr %this1, i32 0, i32 0
  %4 = load ptr, ptr %__rv.addr, align 8, !tbaa !33
  %_M_impl2 = getelementptr inbounds nuw %"struct.std::_Vector_base", ptr %4, i32 0, i32 0
  call void @_ZNSt12_Vector_baseIN6openmc15TallyDerivativeESaIS1_EE17_Vector_impl_data12_M_swap_dataERS4_(ptr noundef nonnull align 8 dereferenceable(24) %_M_impl, ptr noundef nonnull align 8 dereferenceable(24) %_M_impl2) #3
  br label %if.end17

if.else:                                          ; preds = %entry
  %5 = load ptr, ptr %__rv.addr, align 8, !tbaa !33
  %call3 = call noundef zeroext i1 @_ZNKSt6vectorIN6openmc15TallyDerivativeESaIS1_EE5emptyEv(ptr noundef nonnull align 8 dereferenceable(24) %5) #3
  br i1 %call3, label %if.end, label %if.then4

if.then4:                                         ; preds = %if.else
  %6 = load ptr, ptr %__rv.addr, align 8, !tbaa !33
  %call5 = call noundef i64 @_ZNKSt6vectorIN6openmc15TallyDerivativeESaIS1_EE4sizeEv(ptr noundef nonnull align 8 dereferenceable(24) %6) #3
  invoke void @_ZNSt12_Vector_baseIN6openmc15TallyDerivativeESaIS1_EE17_M_create_storageEm(ptr noundef nonnull align 8 dereferenceable(24) %this1, i64 noundef %call5)
          to label %invoke.cont unwind label %lpad

invoke.cont:                                      ; preds = %if.then4
  %7 = load ptr, ptr %__rv.addr, align 8, !tbaa !33
  %call6 = call ptr @_ZNSt6vectorIN6openmc15TallyDerivativeESaIS1_EE5beginEv(ptr noundef nonnull align 8 dereferenceable(24) %7) #3
  %coerce.dive = getelementptr inbounds nuw %"class.__gnu_cxx::__normal_iterator.1", ptr %agg.tmp, i32 0, i32 0
  store ptr %call6, ptr %coerce.dive, align 8
  %8 = load ptr, ptr %__rv.addr, align 8, !tbaa !33
  %call8 = call ptr @_ZNSt6vectorIN6openmc15TallyDerivativeESaIS1_EE3endEv(ptr noundef nonnull align 8 dereferenceable(24) %8) #3
  %coerce.dive9 = getelementptr inbounds nuw %"class.__gnu_cxx::__normal_iterator.1", ptr %agg.tmp7, i32 0, i32 0
  store ptr %call8, ptr %coerce.dive9, align 8
  %_M_impl10 = getelementptr inbounds nuw %"struct.std::_Vector_base", ptr %this1, i32 0, i32 0
  %_M_start = getelementptr inbounds nuw %"struct.std::_Vector_base<openmc::TallyDerivative, std::allocator<openmc::TallyDerivative>>::_Vector_impl_data", ptr %_M_impl10, i32 0, i32 0
  %9 = load ptr, ptr %_M_start, align 8, !tbaa !41
  %call11 = call noundef nonnull align 1 dereferenceable(1) ptr @_ZNSt12_Vector_baseIN6openmc15TallyDerivativeESaIS1_EE19_M_get_Tp_allocatorEv(ptr noundef nonnull align 8 dereferenceable(24) %this1) #3
  %coerce.dive12 = getelementptr inbounds nuw %"class.__gnu_cxx::__normal_iterator.1", ptr %agg.tmp, i32 0, i32 0
  %10 = load ptr, ptr %coerce.dive12, align 8
  %coerce.dive13 = getelementptr inbounds nuw %"class.__gnu_cxx::__normal_iterator.1", ptr %agg.tmp7, i32 0, i32 0
  %11 = load ptr, ptr %coerce.dive13, align 8
  %call15 = invoke noundef ptr @_ZSt22__uninitialized_move_aIN9__gnu_cxx17__normal_iteratorIPN6openmc15TallyDerivativeESt6vectorIS3_SaIS3_EEEES4_S6_ET0_T_SA_S9_RT1_(ptr %10, ptr %11, ptr noundef %9, ptr noundef nonnull align 1 dereferenceable(1) %call11)
          to label %invoke.cont14 unwind label %lpad

invoke.cont14:                                    ; preds = %invoke.cont
  %_M_impl16 = getelementptr inbounds nuw %"struct.std::_Vector_base", ptr %this1, i32 0, i32 0
  %_M_finish = getelementptr inbounds nuw %"struct.std::_Vector_base<openmc::TallyDerivative, std::allocator<openmc::TallyDerivative>>::_Vector_impl_data", ptr %_M_impl16, i32 0, i32 1
  store ptr %call15, ptr %_M_finish, align 8, !tbaa !43
  %12 = load ptr, ptr %__rv.addr, align 8, !tbaa !33
  call void @_ZNSt6vectorIN6openmc15TallyDerivativeESaIS1_EE5clearEv(ptr noundef nonnull align 8 dereferenceable(24) %12) #3
  br label %if.end

lpad:                                             ; preds = %invoke.cont, %if.then4
  %13 = landingpad { ptr, i32 }
          cleanup
  %14 = extractvalue { ptr, i32 } %13, 0
  store ptr %14, ptr %exn.slot, align 8
  %15 = extractvalue { ptr, i32 } %13, 1
  store i32 %15, ptr %ehselector.slot, align 4
  call void @_ZNSt12_Vector_baseIN6openmc15TallyDerivativeESaIS1_EED2Ev(ptr noundef nonnull align 8 dereferenceable(24) %this1) #3
  br label %eh.resume

if.end:                                           ; preds = %invoke.cont14, %if.else
  br label %if.end17

if.end17:                                         ; preds = %if.end, %if.then
  ret void

eh.resume:                                        ; preds = %lpad
  %exn = load ptr, ptr %exn.slot, align 8
  %sel = load i32, ptr %ehselector.slot, align 4
  %lpad.val = insertvalue { ptr, i32 } poison, ptr %exn, 0
  %lpad.val18 = insertvalue { ptr, i32 } %lpad.val, i32 %sel, 1
  resume { ptr, i32 } %lpad.val18
}

; Function Attrs: mustprogress nounwind uwtable
define linkonce_odr noundef zeroext i1 @_ZSteqRKSaIN6openmc15TallyDerivativeEES3_(ptr noundef nonnull align 1 dereferenceable(1) %0, ptr noundef nonnull align 1 dereferenceable(1) %1) #4 comdat {
entry:
  %.addr = alloca ptr, align 8
  %.addr1 = alloca ptr, align 8
  store ptr %0, ptr %.addr, align 8, !tbaa !22
  store ptr %1, ptr %.addr1, align 8, !tbaa !22
  ret i1 true
}

; Function Attrs: mustprogress nounwind uwtable
define linkonce_odr void @_ZNKSt12_Vector_baseIN6openmc15TallyDerivativeESaIS1_EE13get_allocatorEv(ptr dead_on_unwind noalias writable sret(%"class.std::allocator") align 1 %agg.result, ptr noundef nonnull align 8 dereferenceable(24) %this) #4 comdat align 2 {
entry:
  %result.ptr = alloca ptr, align 8
  %this.addr = alloca ptr, align 8
  store ptr %agg.result, ptr %result.ptr, align 8
  store ptr %this, ptr %this.addr, align 8, !tbaa !35
  %this1 = load ptr, ptr %this.addr, align 8
  %call = call noundef nonnull align 1 dereferenceable(1) ptr @_ZNKSt12_Vector_baseIN6openmc15TallyDerivativeESaIS1_EE19_M_get_Tp_allocatorEv(ptr noundef nonnull align 8 dereferenceable(24) %this1) #3
  call void @_ZNSaIN6openmc15TallyDerivativeEEC2ERKS1_(ptr noundef nonnull align 1 dereferenceable(1) %agg.result, ptr noundef nonnull align 1 dereferenceable(1) %call) #3
  ret void
}

; Function Attrs: mustprogress nounwind uwtable
define linkonce_odr void @_ZNSt12_Vector_baseIN6openmc15TallyDerivativeESaIS1_EE17_Vector_impl_data12_M_swap_dataERS4_(ptr noundef nonnull align 8 dereferenceable(24) %this, ptr noundef nonnull align 8 dereferenceable(24) %__x) #4 comdat align 2 {
entry:
  %this.addr = alloca ptr, align 8
  %__x.addr = alloca ptr, align 8
  %__tmp = alloca %"struct.std::_Vector_base<openmc::TallyDerivative, std::allocator<openmc::TallyDerivative>>::_Vector_impl_data", align 8
  store ptr %this, ptr %this.addr, align 8, !tbaa !61
  store ptr %__x, ptr %__x.addr, align 8, !tbaa !61
  %this1 = load ptr, ptr %this.addr, align 8
  call void @llvm.lifetime.start.p0(i64 24, ptr %__tmp) #3
  call void @_ZNSt12_Vector_baseIN6openmc15TallyDerivativeESaIS1_EE17_Vector_impl_dataC2Ev(ptr noundef nonnull align 8 dereferenceable(24) %__tmp) #3
  call void @_ZNSt12_Vector_baseIN6openmc15TallyDerivativeESaIS1_EE17_Vector_impl_data12_M_copy_dataERKS4_(ptr noundef nonnull align 8 dereferenceable(24) %__tmp, ptr noundef nonnull align 8 dereferenceable(24) %this1) #3
  %0 = load ptr, ptr %__x.addr, align 8, !tbaa !61
  call void @_ZNSt12_Vector_baseIN6openmc15TallyDerivativeESaIS1_EE17_Vector_impl_data12_M_copy_dataERKS4_(ptr noundef nonnull align 8 dereferenceable(24) %this1, ptr noundef nonnull align 8 dereferenceable(24) %0) #3
  %1 = load ptr, ptr %__x.addr, align 8, !tbaa !61
  call void @_ZNSt12_Vector_baseIN6openmc15TallyDerivativeESaIS1_EE17_Vector_impl_data12_M_copy_dataERKS4_(ptr noundef nonnull align 8 dereferenceable(24) %1, ptr noundef nonnull align 8 dereferenceable(24) %__tmp) #3
  call void @llvm.lifetime.end.p0(i64 24, ptr %__tmp) #3
  ret void
}

; Function Attrs: mustprogress nounwind uwtable
define weak_odr noundef zeroext i1 @_ZNKSt6vectorIN6openmc15TallyDerivativeESaIS1_EE5emptyEv(ptr noundef nonnull align 8 dereferenceable(24) %this) #4 comdat align 2 {
entry:
  %this.addr = alloca ptr, align 8
  %ref.tmp = alloca %"class.__gnu_cxx::__normal_iterator", align 8
  %ref.tmp2 = alloca %"class.__gnu_cxx::__normal_iterator", align 8
  store ptr %this, ptr %this.addr, align 8, !tbaa !33
  %this1 = load ptr, ptr %this.addr, align 8
  call void @llvm.lifetime.start.p0(i64 8, ptr %ref.tmp) #3
  %call = call ptr @_ZNKSt6vectorIN6openmc15TallyDerivativeESaIS1_EE5beginEv(ptr noundef nonnull align 8 dereferenceable(24) %this1) #3
  %coerce.dive = getelementptr inbounds nuw %"class.__gnu_cxx::__normal_iterator", ptr %ref.tmp, i32 0, i32 0
  store ptr %call, ptr %coerce.dive, align 8
  call void @llvm.lifetime.start.p0(i64 8, ptr %ref.tmp2) #3
  %call3 = call ptr @_ZNKSt6vectorIN6openmc15TallyDerivativeESaIS1_EE3endEv(ptr noundef nonnull align 8 dereferenceable(24) %this1) #3
  %coerce.dive4 = getelementptr inbounds nuw %"class.__gnu_cxx::__normal_iterator", ptr %ref.tmp2, i32 0, i32 0
  store ptr %call3, ptr %coerce.dive4, align 8
  %call5 = call noundef zeroext i1 @_ZN9__gnu_cxxeqIPKN6openmc15TallyDerivativeESt6vectorIS2_SaIS2_EEEEbRKNS_17__normal_iteratorIT_T0_EESD_(ptr noundef nonnull align 8 dereferenceable(8) %ref.tmp, ptr noundef nonnull align 8 dereferenceable(8) %ref.tmp2) #3
  call void @llvm.lifetime.end.p0(i64 8, ptr %ref.tmp2) #3
  call void @llvm.lifetime.end.p0(i64 8, ptr %ref.tmp) #3
  ret i1 %call5
}

; Function Attrs: inlinehint mustprogress uwtable
define linkonce_odr noundef ptr @_ZSt22__uninitialized_move_aIN9__gnu_cxx17__normal_iteratorIPN6openmc15TallyDerivativeESt6vectorIS3_SaIS3_EEEES4_S6_ET0_T_SA_S9_RT1_(ptr %__first.coerce, ptr %__last.coerce, ptr noundef %__result, ptr noundef nonnull align 1 dereferenceable(1) %__alloc) #13 comdat {
entry:
  %__first = alloca %"class.__gnu_cxx::__normal_iterator.1", align 8
  %__last = alloca %"class.__gnu_cxx::__normal_iterator.1", align 8
  %__result.addr = alloca ptr, align 8
  %__alloc.addr = alloca ptr, align 8
  %agg.tmp = alloca %"class.std::move_iterator", align 8
  %agg.tmp2 = alloca %"class.__gnu_cxx::__normal_iterator.1", align 8
  %agg.tmp6 = alloca %"class.std::move_iterator", align 8
  %agg.tmp7 = alloca %"class.__gnu_cxx::__normal_iterator.1", align 8
  %coerce.dive = getelementptr inbounds nuw %"class.__gnu_cxx::__normal_iterator.1", ptr %__first, i32 0, i32 0
  store ptr %__first.coerce, ptr %coerce.dive, align 8
  %coerce.dive1 = getelementptr inbounds nuw %"class.__gnu_cxx::__normal_iterator.1", ptr %__last, i32 0, i32 0
  store ptr %__last.coerce, ptr %coerce.dive1, align 8
  store ptr %__result, ptr %__result.addr, align 8, !tbaa !17
  store ptr %__alloc, ptr %__alloc.addr, align 8, !tbaa !22
  call void @llvm.memcpy.p0.p0.i64(ptr align 8 %agg.tmp2, ptr align 8 %__first, i64 8, i1 false), !tbaa.struct !52
  %coerce.dive3 = getelementptr inbounds nuw %"class.__gnu_cxx::__normal_iterator.1", ptr %agg.tmp2, i32 0, i32 0
  %0 = load ptr, ptr %coerce.dive3, align 8
  %call = call ptr @_ZSt18make_move_iteratorIN9__gnu_cxx17__normal_iteratorIPN6openmc15TallyDerivativeESt6vectorIS3_SaIS3_EEEEESt13move_iteratorIT_ESA_(ptr %0)
  %coerce.dive4 = getelementptr inbounds nuw %"class.std::move_iterator", ptr %agg.tmp, i32 0, i32 0
  %coerce.dive5 = getelementptr inbounds nuw %"class.__gnu_cxx::__normal_iterator.1", ptr %coerce.dive4, i32 0, i32 0
  store ptr %call, ptr %coerce.dive5, align 8
  call void @llvm.memcpy.p0.p0.i64(ptr align 8 %agg.tmp7, ptr align 8 %__last, i64 8, i1 false), !tbaa.struct !52
  %coerce.dive8 = getelementptr inbounds nuw %"class.__gnu_cxx::__normal_iterator.1", ptr %agg.tmp7, i32 0, i32 0
  %1 = load ptr, ptr %coerce.dive8, align 8
  %call9 = call ptr @_ZSt18make_move_iteratorIN9__gnu_cxx17__normal_iteratorIPN6openmc15TallyDerivativeESt6vectorIS3_SaIS3_EEEEESt13move_iteratorIT_ESA_(ptr %1)
  %coerce.dive10 = getelementptr inbounds nuw %"class.std::move_iterator", ptr %agg.tmp6, i32 0, i32 0
  %coerce.dive11 = getelementptr inbounds nuw %"class.__gnu_cxx::__normal_iterator.1", ptr %coerce.dive10, i32 0, i32 0
  store ptr %call9, ptr %coerce.dive11, align 8
  %2 = load ptr, ptr %__result.addr, align 8, !tbaa !17
  %3 = load ptr, ptr %__alloc.addr, align 8, !tbaa !22
  %coerce.dive12 = getelementptr inbounds nuw %"class.std::move_iterator", ptr %agg.tmp, i32 0, i32 0
  %coerce.dive13 = getelementptr inbounds nuw %"class.__gnu_cxx::__normal_iterator.1", ptr %coerce.dive12, i32 0, i32 0
  %4 = load ptr, ptr %coerce.dive13, align 8
  %coerce.dive14 = getelementptr inbounds nuw %"class.std::move_iterator", ptr %agg.tmp6, i32 0, i32 0
  %coerce.dive15 = getelementptr inbounds nuw %"class.__gnu_cxx::__normal_iterator.1", ptr %coerce.dive14, i32 0, i32 0
  %5 = load ptr, ptr %coerce.dive15, align 8
  %call16 = call noundef ptr @_ZSt22__uninitialized_copy_aISt13move_iteratorIN9__gnu_cxx17__normal_iteratorIPN6openmc15TallyDerivativeESt6vectorIS4_SaIS4_EEEEES5_S4_ET0_T_SC_SB_RSaIT1_E(ptr %4, ptr %5, ptr noundef %2, ptr noundef nonnull align 1 dereferenceable(1) %3)
  ret ptr %call16
}

; Function Attrs: mustprogress nounwind uwtable
define weak_odr ptr @_ZNSt6vectorIN6openmc15TallyDerivativeESaIS1_EE5beginEv(ptr noundef nonnull align 8 dereferenceable(24) %this) #4 comdat align 2 {
entry:
  %retval = alloca %"class.__gnu_cxx::__normal_iterator.1", align 8
  %this.addr = alloca ptr, align 8
  store ptr %this, ptr %this.addr, align 8, !tbaa !33
  %this1 = load ptr, ptr %this.addr, align 8
  %_M_impl = getelementptr inbounds nuw %"struct.std::_Vector_base", ptr %this1, i32 0, i32 0
  %_M_start = getelementptr inbounds nuw %"struct.std::_Vector_base<openmc::TallyDerivative, std::allocator<openmc::TallyDerivative>>::_Vector_impl_data", ptr %_M_impl, i32 0, i32 0
  call void @_ZN9__gnu_cxx17__normal_iteratorIPN6openmc15TallyDerivativeESt6vectorIS2_SaIS2_EEEC2ERKS3_(ptr noundef nonnull align 8 dereferenceable(8) %retval, ptr noundef nonnull align 8 dereferenceable(8) %_M_start) #3
  %coerce.dive = getelementptr inbounds nuw %"class.__gnu_cxx::__normal_iterator.1", ptr %retval, i32 0, i32 0
  %0 = load ptr, ptr %coerce.dive, align 8
  ret ptr %0
}

; Function Attrs: mustprogress nounwind uwtable
define weak_odr ptr @_ZNSt6vectorIN6openmc15TallyDerivativeESaIS1_EE3endEv(ptr noundef nonnull align 8 dereferenceable(24) %this) #4 comdat align 2 {
entry:
  %retval = alloca %"class.__gnu_cxx::__normal_iterator.1", align 8
  %this.addr = alloca ptr, align 8
  store ptr %this, ptr %this.addr, align 8, !tbaa !33
  %this1 = load ptr, ptr %this.addr, align 8
  %_M_impl = getelementptr inbounds nuw %"struct.std::_Vector_base", ptr %this1, i32 0, i32 0
  %_M_finish = getelementptr inbounds nuw %"struct.std::_Vector_base<openmc::TallyDerivative, std::allocator<openmc::TallyDerivative>>::_Vector_impl_data", ptr %_M_impl, i32 0, i32 1
  call void @_ZN9__gnu_cxx17__normal_iteratorIPN6openmc15TallyDerivativeESt6vectorIS2_SaIS2_EEEC2ERKS3_(ptr noundef nonnull align 8 dereferenceable(8) %retval, ptr noundef nonnull align 8 dereferenceable(8) %_M_finish) #3
  %coerce.dive = getelementptr inbounds nuw %"class.__gnu_cxx::__normal_iterator.1", ptr %retval, i32 0, i32 0
  %0 = load ptr, ptr %coerce.dive, align 8
  ret ptr %0
}

; Function Attrs: mustprogress nounwind uwtable
define weak_odr void @_ZNSt6vectorIN6openmc15TallyDerivativeESaIS1_EE5clearEv(ptr noundef nonnull align 8 dereferenceable(24) %this) #4 comdat align 2 {
entry:
  %this.addr = alloca ptr, align 8
  store ptr %this, ptr %this.addr, align 8, !tbaa !33
  %this1 = load ptr, ptr %this.addr, align 8
  %_M_impl = getelementptr inbounds nuw %"struct.std::_Vector_base", ptr %this1, i32 0, i32 0
  %_M_start = getelementptr inbounds nuw %"struct.std::_Vector_base<openmc::TallyDerivative, std::allocator<openmc::TallyDerivative>>::_Vector_impl_data", ptr %_M_impl, i32 0, i32 0
  %0 = load ptr, ptr %_M_start, align 8, !tbaa !41
  call void @_ZNSt6vectorIN6openmc15TallyDerivativeESaIS1_EE15_M_erase_at_endEPS1_(ptr noundef nonnull align 8 dereferenceable(24) %this1, ptr noundef %0) #3
  ret void
}

; Function Attrs: mustprogress nounwind uwtable
define linkonce_odr void @_ZNSt12_Vector_baseIN6openmc15TallyDerivativeESaIS1_EE17_Vector_impl_dataC2Ev(ptr noundef nonnull align 8 dereferenceable(24) %this) unnamed_addr #4 comdat align 2 {
entry:
  %this.addr = alloca ptr, align 8
  store ptr %this, ptr %this.addr, align 8, !tbaa !61
  %this1 = load ptr, ptr %this.addr, align 8
  %_M_start = getelementptr inbounds nuw %"struct.std::_Vector_base<openmc::TallyDerivative, std::allocator<openmc::TallyDerivative>>::_Vector_impl_data", ptr %this1, i32 0, i32 0
  store ptr null, ptr %_M_start, align 8, !tbaa !41
  %_M_finish = getelementptr inbounds nuw %"struct.std::_Vector_base<openmc::TallyDerivative, std::allocator<openmc::TallyDerivative>>::_Vector_impl_data", ptr %this1, i32 0, i32 1
  store ptr null, ptr %_M_finish, align 8, !tbaa !43
  %_M_end_of_storage = getelementptr inbounds nuw %"struct.std::_Vector_base<openmc::TallyDerivative, std::allocator<openmc::TallyDerivative>>::_Vector_impl_data", ptr %this1, i32 0, i32 2
  store ptr null, ptr %_M_end_of_storage, align 8, !tbaa !44
  ret void
}

; Function Attrs: mustprogress nounwind uwtable
define linkonce_odr void @_ZNSt12_Vector_baseIN6openmc15TallyDerivativeESaIS1_EE17_Vector_impl_data12_M_copy_dataERKS4_(ptr noundef nonnull align 8 dereferenceable(24) %this, ptr noundef nonnull align 8 dereferenceable(24) %__x) #4 comdat align 2 {
entry:
  %this.addr = alloca ptr, align 8
  %__x.addr = alloca ptr, align 8
  store ptr %this, ptr %this.addr, align 8, !tbaa !61
  store ptr %__x, ptr %__x.addr, align 8, !tbaa !61
  %this1 = load ptr, ptr %this.addr, align 8
  %0 = load ptr, ptr %__x.addr, align 8, !tbaa !61
  %_M_start = getelementptr inbounds nuw %"struct.std::_Vector_base<openmc::TallyDerivative, std::allocator<openmc::TallyDerivative>>::_Vector_impl_data", ptr %0, i32 0, i32 0
  %1 = load ptr, ptr %_M_start, align 8, !tbaa !41
  %_M_start2 = getelementptr inbounds nuw %"struct.std::_Vector_base<openmc::TallyDerivative, std::allocator<openmc::TallyDerivative>>::_Vector_impl_data", ptr %this1, i32 0, i32 0
  store ptr %1, ptr %_M_start2, align 8, !tbaa !41
  %2 = load ptr, ptr %__x.addr, align 8, !tbaa !61
  %_M_finish = getelementptr inbounds nuw %"struct.std::_Vector_base<openmc::TallyDerivative, std::allocator<openmc::TallyDerivative>>::_Vector_impl_data", ptr %2, i32 0, i32 1
  %3 = load ptr, ptr %_M_finish, align 8, !tbaa !43
  %_M_finish3 = getelementptr inbounds nuw %"struct.std::_Vector_base<openmc::TallyDerivative, std::allocator<openmc::TallyDerivative>>::_Vector_impl_data", ptr %this1, i32 0, i32 1
  store ptr %3, ptr %_M_finish3, align 8, !tbaa !43
  %4 = load ptr, ptr %__x.addr, align 8, !tbaa !61
  %_M_end_of_storage = getelementptr inbounds nuw %"struct.std::_Vector_base<openmc::TallyDerivative, std::allocator<openmc::TallyDerivative>>::_Vector_impl_data", ptr %4, i32 0, i32 2
  %5 = load ptr, ptr %_M_end_of_storage, align 8, !tbaa !44
  %_M_end_of_storage4 = getelementptr inbounds nuw %"struct.std::_Vector_base<openmc::TallyDerivative, std::allocator<openmc::TallyDerivative>>::_Vector_impl_data", ptr %this1, i32 0, i32 2
  store ptr %5, ptr %_M_end_of_storage4, align 8, !tbaa !44
  ret void
}

; Function Attrs: inlinehint mustprogress nounwind uwtable
define linkonce_odr noundef zeroext i1 @_ZN9__gnu_cxxeqIPKN6openmc15TallyDerivativeESt6vectorIS2_SaIS2_EEEEbRKNS_17__normal_iteratorIT_T0_EESD_(ptr noundef nonnull align 8 dereferenceable(8) %__lhs, ptr noundef nonnull align 8 dereferenceable(8) %__rhs) #6 comdat {
entry:
  %__lhs.addr = alloca ptr, align 8
  %__rhs.addr = alloca ptr, align 8
  store ptr %__lhs, ptr %__lhs.addr, align 8, !tbaa !54
  store ptr %__rhs, ptr %__rhs.addr, align 8, !tbaa !54
  %0 = load ptr, ptr %__lhs.addr, align 8, !tbaa !54
  %call = call noundef nonnull align 8 dereferenceable(8) ptr @_ZNK9__gnu_cxx17__normal_iteratorIPKN6openmc15TallyDerivativeESt6vectorIS2_SaIS2_EEE4baseEv(ptr noundef nonnull align 8 dereferenceable(8) %0) #3
  %1 = load ptr, ptr %call, align 8, !tbaa !17
  %2 = load ptr, ptr %__rhs.addr, align 8, !tbaa !54
  %call1 = call noundef nonnull align 8 dereferenceable(8) ptr @_ZNK9__gnu_cxx17__normal_iteratorIPKN6openmc15TallyDerivativeESt6vectorIS2_SaIS2_EEE4baseEv(ptr noundef nonnull align 8 dereferenceable(8) %2) #3
  %3 = load ptr, ptr %call1, align 8, !tbaa !17
  %cmp = icmp eq ptr %1, %3
  ret i1 %cmp
}

; Function Attrs: inlinehint mustprogress uwtable
define linkonce_odr noundef ptr @_ZSt22__uninitialized_copy_aISt13move_iteratorIN9__gnu_cxx17__normal_iteratorIPN6openmc15TallyDerivativeESt6vectorIS4_SaIS4_EEEEES5_S4_ET0_T_SC_SB_RSaIT1_E(ptr %__first.coerce, ptr %__last.coerce, ptr noundef %__result, ptr noundef nonnull align 1 dereferenceable(1) %0) #13 comdat {
entry:
  %__first = alloca %"class.std::move_iterator", align 8
  %__last = alloca %"class.std::move_iterator", align 8
  %__result.addr = alloca ptr, align 8
  %.addr = alloca ptr, align 8
  %agg.tmp = alloca %"class.std::move_iterator", align 8
  %agg.tmp4 = alloca %"class.std::move_iterator", align 8
  %coerce.dive = getelementptr inbounds nuw %"class.std::move_iterator", ptr %__first, i32 0, i32 0
  %coerce.dive1 = getelementptr inbounds nuw %"class.__gnu_cxx::__normal_iterator.1", ptr %coerce.dive, i32 0, i32 0
  store ptr %__first.coerce, ptr %coerce.dive1, align 8
  %coerce.dive2 = getelementptr inbounds nuw %"class.std::move_iterator", ptr %__last, i32 0, i32 0
  %coerce.dive3 = getelementptr inbounds nuw %"class.__gnu_cxx::__normal_iterator.1", ptr %coerce.dive2, i32 0, i32 0
  store ptr %__last.coerce, ptr %coerce.dive3, align 8
  store ptr %__result, ptr %__result.addr, align 8, !tbaa !17
  store ptr %0, ptr %.addr, align 8, !tbaa !22
  call void @llvm.memcpy.p0.p0.i64(ptr align 8 %agg.tmp, ptr align 8 %__first, i64 8, i1 false), !tbaa.struct !52
  call void @llvm.memcpy.p0.p0.i64(ptr align 8 %agg.tmp4, ptr align 8 %__last, i64 8, i1 false), !tbaa.struct !52
  %1 = load ptr, ptr %__result.addr, align 8, !tbaa !17
  %coerce.dive5 = getelementptr inbounds nuw %"class.std::move_iterator", ptr %agg.tmp, i32 0, i32 0
  %coerce.dive6 = getelementptr inbounds nuw %"class.__gnu_cxx::__normal_iterator.1", ptr %coerce.dive5, i32 0, i32 0
  %2 = load ptr, ptr %coerce.dive6, align 8
  %coerce.dive7 = getelementptr inbounds nuw %"class.std::move_iterator", ptr %agg.tmp4, i32 0, i32 0
  %coerce.dive8 = getelementptr inbounds nuw %"class.__gnu_cxx::__normal_iterator.1", ptr %coerce.dive7, i32 0, i32 0
  %3 = load ptr, ptr %coerce.dive8, align 8
  %call = call noundef ptr @_ZSt18uninitialized_copyISt13move_iteratorIN9__gnu_cxx17__normal_iteratorIPN6openmc15TallyDerivativeESt6vectorIS4_SaIS4_EEEEES5_ET0_T_SC_SB_(ptr %2, ptr %3, ptr noundef %1)
  ret ptr %call
}

; Function Attrs: inlinehint mustprogress uwtable
define linkonce_odr ptr @_ZSt18make_move_iteratorIN9__gnu_cxx17__normal_iteratorIPN6openmc15TallyDerivativeESt6vectorIS3_SaIS3_EEEEESt13move_iteratorIT_ESA_(ptr %__i.coerce) #13 comdat {
entry:
  %retval = alloca %"class.std::move_iterator", align 8
  %__i = alloca %"class.__gnu_cxx::__normal_iterator.1", align 8
  %agg.tmp = alloca %"class.__gnu_cxx::__normal_iterator.1", align 8
  %coerce.dive = getelementptr inbounds nuw %"class.__gnu_cxx::__normal_iterator.1", ptr %__i, i32 0, i32 0
  store ptr %__i.coerce, ptr %coerce.dive, align 8
  call void @llvm.memcpy.p0.p0.i64(ptr align 8 %agg.tmp, ptr align 8 %__i, i64 8, i1 false), !tbaa.struct !52
  %coerce.dive1 = getelementptr inbounds nuw %"class.__gnu_cxx::__normal_iterator.1", ptr %agg.tmp, i32 0, i32 0
  %0 = load ptr, ptr %coerce.dive1, align 8
  call void @_ZNSt13move_iteratorIN9__gnu_cxx17__normal_iteratorIPN6openmc15TallyDerivativeESt6vectorIS3_SaIS3_EEEEEC2ES8_(ptr noundef nonnull align 8 dereferenceable(8) %retval, ptr %0)
  %coerce.dive2 = getelementptr inbounds nuw %"class.std::move_iterator", ptr %retval, i32 0, i32 0
  %coerce.dive3 = getelementptr inbounds nuw %"class.__gnu_cxx::__normal_iterator.1", ptr %coerce.dive2, i32 0, i32 0
  %1 = load ptr, ptr %coerce.dive3, align 8
  ret ptr %1
}

; Function Attrs: inlinehint mustprogress uwtable
define linkonce_odr noundef ptr @_ZSt18uninitialized_copyISt13move_iteratorIN9__gnu_cxx17__normal_iteratorIPN6openmc15TallyDerivativeESt6vectorIS4_SaIS4_EEEEES5_ET0_T_SC_SB_(ptr %__first.coerce, ptr %__last.coerce, ptr noundef %__result) #13 comdat {
entry:
  %__first = alloca %"class.std::move_iterator", align 8
  %__last = alloca %"class.std::move_iterator", align 8
  %__result.addr = alloca ptr, align 8
  %__can_memmove = alloca i8, align 1
  %__assignable = alloca i8, align 1
  %agg.tmp = alloca %"class.std::move_iterator", align 8
  %agg.tmp4 = alloca %"class.std::move_iterator", align 8
  %coerce.dive = getelementptr inbounds nuw %"class.std::move_iterator", ptr %__first, i32 0, i32 0
  %coerce.dive1 = getelementptr inbounds nuw %"class.__gnu_cxx::__normal_iterator.1", ptr %coerce.dive, i32 0, i32 0
  store ptr %__first.coerce, ptr %coerce.dive1, align 8
  %coerce.dive2 = getelementptr inbounds nuw %"class.std::move_iterator", ptr %__last, i32 0, i32 0
  %coerce.dive3 = getelementptr inbounds nuw %"class.__gnu_cxx::__normal_iterator.1", ptr %coerce.dive2, i32 0, i32 0
  store ptr %__last.coerce, ptr %coerce.dive3, align 8
  store ptr %__result, ptr %__result.addr, align 8, !tbaa !17
  call void @llvm.lifetime.start.p0(i64 1, ptr %__can_memmove) #3
  store i8 0, ptr %__can_memmove, align 1, !tbaa !48
  call void @llvm.lifetime.start.p0(i64 1, ptr %__assignable) #3
  store i8 0, ptr %__assignable, align 1, !tbaa !48
  call void @llvm.memcpy.p0.p0.i64(ptr align 8 %agg.tmp, ptr align 8 %__first, i64 8, i1 false), !tbaa.struct !52
  call void @llvm.memcpy.p0.p0.i64(ptr align 8 %agg.tmp4, ptr align 8 %__last, i64 8, i1 false), !tbaa.struct !52
  %0 = load ptr, ptr %__result.addr, align 8, !tbaa !17
  %coerce.dive5 = getelementptr inbounds nuw %"class.std::move_iterator", ptr %agg.tmp, i32 0, i32 0
  %coerce.dive6 = getelementptr inbounds nuw %"class.__gnu_cxx::__normal_iterator.1", ptr %coerce.dive5, i32 0, i32 0
  %1 = load ptr, ptr %coerce.dive6, align 8
  %coerce.dive7 = getelementptr inbounds nuw %"class.std::move_iterator", ptr %agg.tmp4, i32 0, i32 0
  %coerce.dive8 = getelementptr inbounds nuw %"class.__gnu_cxx::__normal_iterator.1", ptr %coerce.dive7, i32 0, i32 0
  %2 = load ptr, ptr %coerce.dive8, align 8
  %call = call noundef ptr @_ZNSt20__uninitialized_copyILb0EE13__uninit_copyISt13move_iteratorIN9__gnu_cxx17__normal_iteratorIPN6openmc15TallyDerivativeESt6vectorIS6_SaIS6_EEEEES7_EET0_T_SE_SD_(ptr %1, ptr %2, ptr noundef %0)
  call void @llvm.lifetime.end.p0(i64 1, ptr %__assignable) #3
  call void @llvm.lifetime.end.p0(i64 1, ptr %__can_memmove) #3
  ret ptr %call
}

; Function Attrs: mustprogress uwtable
define linkonce_odr noundef ptr @_ZNSt20__uninitialized_copyILb0EE13__uninit_copyISt13move_iteratorIN9__gnu_cxx17__normal_iteratorIPN6openmc15TallyDerivativeESt6vectorIS6_SaIS6_EEEEES7_EET0_T_SE_SD_(ptr %__first.coerce, ptr %__last.coerce, ptr noundef %__result) #8 comdat align 2 {
entry:
  %__first = alloca %"class.std::move_iterator", align 8
  %__last = alloca %"class.std::move_iterator", align 8
  %__result.addr = alloca ptr, align 8
  %agg.tmp = alloca %"class.std::move_iterator", align 8
  %agg.tmp4 = alloca %"class.std::move_iterator", align 8
  %coerce.dive = getelementptr inbounds nuw %"class.std::move_iterator", ptr %__first, i32 0, i32 0
  %coerce.dive1 = getelementptr inbounds nuw %"class.__gnu_cxx::__normal_iterator.1", ptr %coerce.dive, i32 0, i32 0
  store ptr %__first.coerce, ptr %coerce.dive1, align 8
  %coerce.dive2 = getelementptr inbounds nuw %"class.std::move_iterator", ptr %__last, i32 0, i32 0
  %coerce.dive3 = getelementptr inbounds nuw %"class.__gnu_cxx::__normal_iterator.1", ptr %coerce.dive2, i32 0, i32 0
  store ptr %__last.coerce, ptr %coerce.dive3, align 8
  store ptr %__result, ptr %__result.addr, align 8, !tbaa !17
  call void @llvm.memcpy.p0.p0.i64(ptr align 8 %agg.tmp, ptr align 8 %__first, i64 8, i1 false), !tbaa.struct !52
  call void @llvm.memcpy.p0.p0.i64(ptr align 8 %agg.tmp4, ptr align 8 %__last, i64 8, i1 false), !tbaa.struct !52
  %0 = load ptr, ptr %__result.addr, align 8, !tbaa !17
  %coerce.dive5 = getelementptr inbounds nuw %"class.std::move_iterator", ptr %agg.tmp, i32 0, i32 0
  %coerce.dive6 = getelementptr inbounds nuw %"class.__gnu_cxx::__normal_iterator.1", ptr %coerce.dive5, i32 0, i32 0
  %1 = load ptr, ptr %coerce.dive6, align 8
  %coerce.dive7 = getelementptr inbounds nuw %"class.std::move_iterator", ptr %agg.tmp4, i32 0, i32 0
  %coerce.dive8 = getelementptr inbounds nuw %"class.__gnu_cxx::__normal_iterator.1", ptr %coerce.dive7, i32 0, i32 0
  %2 = load ptr, ptr %coerce.dive8, align 8
  %call = call noundef ptr @_ZSt16__do_uninit_copyISt13move_iteratorIN9__gnu_cxx17__normal_iteratorIPN6openmc15TallyDerivativeESt6vectorIS4_SaIS4_EEEEES5_ET0_T_SC_SB_(ptr %1, ptr %2, ptr noundef %0)
  ret ptr %call
}

; Function Attrs: mustprogress uwtable
define linkonce_odr noundef ptr @_ZSt16__do_uninit_copyISt13move_iteratorIN9__gnu_cxx17__normal_iteratorIPN6openmc15TallyDerivativeESt6vectorIS4_SaIS4_EEEEES5_ET0_T_SC_SB_(ptr %__first.coerce, ptr %__last.coerce, ptr noundef %__result) #8 comdat personality ptr @__gxx_personality_v0 {
entry:
  %__first = alloca %"class.std::move_iterator", align 8
  %__last = alloca %"class.std::move_iterator", align 8
  %__result.addr = alloca ptr, align 8
  %__cur = alloca ptr, align 8
  %exn.slot = alloca ptr, align 8
  %ehselector.slot = alloca i32, align 4
  %coerce.dive = getelementptr inbounds nuw %"class.std::move_iterator", ptr %__first, i32 0, i32 0
  %coerce.dive1 = getelementptr inbounds nuw %"class.__gnu_cxx::__normal_iterator.1", ptr %coerce.dive, i32 0, i32 0
  store ptr %__first.coerce, ptr %coerce.dive1, align 8
  %coerce.dive2 = getelementptr inbounds nuw %"class.std::move_iterator", ptr %__last, i32 0, i32 0
  %coerce.dive3 = getelementptr inbounds nuw %"class.__gnu_cxx::__normal_iterator.1", ptr %coerce.dive2, i32 0, i32 0
  store ptr %__last.coerce, ptr %coerce.dive3, align 8
  store ptr %__result, ptr %__result.addr, align 8, !tbaa !17
  call void @llvm.lifetime.start.p0(i64 8, ptr %__cur) #3
  %0 = load ptr, ptr %__result.addr, align 8, !tbaa !17
  store ptr %0, ptr %__cur, align 8, !tbaa !17
  br label %for.cond

for.cond:                                         ; preds = %invoke.cont7, %entry
  %call = invoke noundef zeroext i1 @_ZStneIN9__gnu_cxx17__normal_iteratorIPN6openmc15TallyDerivativeESt6vectorIS3_SaIS3_EEEEEbRKSt13move_iteratorIT_ESD_(ptr noundef nonnull align 8 dereferenceable(8) %__first, ptr noundef nonnull align 8 dereferenceable(8) %__last)
          to label %invoke.cont unwind label %lpad

invoke.cont:                                      ; preds = %for.cond
  br i1 %call, label %for.body, label %for.end

for.body:                                         ; preds = %invoke.cont
  %1 = load ptr, ptr %__cur, align 8, !tbaa !17
  %call5 = invoke noundef nonnull align 4 dereferenceable(16) ptr @_ZNKSt13move_iteratorIN9__gnu_cxx17__normal_iteratorIPN6openmc15TallyDerivativeESt6vectorIS3_SaIS3_EEEEEdeEv(ptr noundef nonnull align 8 dereferenceable(8) %__first)
          to label %invoke.cont4 unwind label %lpad

invoke.cont4:                                     ; preds = %for.body
  invoke void @_ZSt10_ConstructIN6openmc15TallyDerivativeEJS1_EEvPT_DpOT0_(ptr noundef %1, ptr noundef nonnull align 4 dereferenceable(16) %call5)
          to label %invoke.cont6 unwind label %lpad

invoke.cont6:                                     ; preds = %invoke.cont4
  br label %for.inc

for.inc:                                          ; preds = %invoke.cont6
  %call8 = invoke noundef nonnull align 8 dereferenceable(8) ptr @_ZNSt13move_iteratorIN9__gnu_cxx17__normal_iteratorIPN6openmc15TallyDerivativeESt6vectorIS3_SaIS3_EEEEEppEv(ptr noundef nonnull align 8 dereferenceable(8) %__first)
          to label %invoke.cont7 unwind label %lpad

invoke.cont7:                                     ; preds = %for.inc
  %2 = load ptr, ptr %__cur, align 8, !tbaa !17
  %incdec.ptr = getelementptr inbounds nuw %"struct.openmc::TallyDerivative", ptr %2, i32 1
  store ptr %incdec.ptr, ptr %__cur, align 8, !tbaa !17
  br label %for.cond, !llvm.loop !63

lpad:                                             ; preds = %for.inc, %invoke.cont4, %for.body, %for.cond
  %3 = landingpad { ptr, i32 }
          catch ptr null
  %4 = extractvalue { ptr, i32 } %3, 0
  store ptr %4, ptr %exn.slot, align 8
  %5 = extractvalue { ptr, i32 } %3, 1
  store i32 %5, ptr %ehselector.slot, align 4
  br label %catch

catch:                                            ; preds = %lpad
  %exn = load ptr, ptr %exn.slot, align 8
  %6 = call ptr @__cxa_begin_catch(ptr %exn) #3
  %7 = load ptr, ptr %__result.addr, align 8, !tbaa !17
  %8 = load ptr, ptr %__cur, align 8, !tbaa !17
  invoke void @_ZSt8_DestroyIPN6openmc15TallyDerivativeEEvT_S3_(ptr noundef %7, ptr noundef %8)
          to label %invoke.cont10 unwind label %lpad9

invoke.cont10:                                    ; preds = %catch
  invoke void @__cxa_rethrow() #25
          to label %unreachable unwind label %lpad9

for.end:                                          ; preds = %invoke.cont
  %9 = load ptr, ptr %__cur, align 8, !tbaa !17
  call void @llvm.lifetime.end.p0(i64 8, ptr %__cur) #3
  ret ptr %9

lpad9:                                            ; preds = %invoke.cont10, %catch
  %10 = landingpad { ptr, i32 }
          cleanup
  %11 = extractvalue { ptr, i32 } %10, 0
  store ptr %11, ptr %exn.slot, align 8
  %12 = extractvalue { ptr, i32 } %10, 1
  store i32 %12, ptr %ehselector.slot, align 4
  invoke void @__cxa_end_catch()
          to label %invoke.cont11 unwind label %terminate.lpad

invoke.cont11:                                    ; preds = %lpad9
  call void @llvm.lifetime.end.p0(i64 8, ptr %__cur) #3
  br label %eh.resume

try.cont:                                         ; No predecessors!
  unreachable

eh.resume:                                        ; preds = %invoke.cont11
  %exn12 = load ptr, ptr %exn.slot, align 8
  %sel = load i32, ptr %ehselector.slot, align 4
  %lpad.val = insertvalue { ptr, i32 } poison, ptr %exn12, 0
  %lpad.val13 = insertvalue { ptr, i32 } %lpad.val, i32 %sel, 1
  resume { ptr, i32 } %lpad.val13

terminate.lpad:                                   ; preds = %lpad9
  %13 = landingpad { ptr, i32 }
          catch ptr null
  %14 = extractvalue { ptr, i32 } %13, 0
  call void @__clang_call_terminate(ptr %14) #26
  unreachable

unreachable:                                      ; preds = %invoke.cont10
  unreachable
}

; Function Attrs: inlinehint mustprogress uwtable
define linkonce_odr noundef zeroext i1 @_ZStneIN9__gnu_cxx17__normal_iteratorIPN6openmc15TallyDerivativeESt6vectorIS3_SaIS3_EEEEEbRKSt13move_iteratorIT_ESD_(ptr noundef nonnull align 8 dereferenceable(8) %__x, ptr noundef nonnull align 8 dereferenceable(8) %__y) #13 comdat {
entry:
  %__x.addr = alloca ptr, align 8
  %__y.addr = alloca ptr, align 8
  store ptr %__x, ptr %__x.addr, align 8, !tbaa !64
  store ptr %__y, ptr %__y.addr, align 8, !tbaa !64
  %0 = load ptr, ptr %__x.addr, align 8, !tbaa !64
  %1 = load ptr, ptr %__y.addr, align 8, !tbaa !64
  %call = call noundef zeroext i1 @_ZSteqIN9__gnu_cxx17__normal_iteratorIPN6openmc15TallyDerivativeESt6vectorIS3_SaIS3_EEEEEbRKSt13move_iteratorIT_ESD_(ptr noundef nonnull align 8 dereferenceable(8) %0, ptr noundef nonnull align 8 dereferenceable(8) %1)
  %lnot = xor i1 %call, true
  ret i1 %lnot
}

; Function Attrs: inlinehint mustprogress nounwind uwtable
define linkonce_odr void @_ZSt10_ConstructIN6openmc15TallyDerivativeEJS1_EEvPT_DpOT0_(ptr noundef %__p, ptr noundef nonnull align 4 dereferenceable(16) %__args) #6 comdat {
entry:
  %__p.addr = alloca ptr, align 8
  %__args.addr = alloca ptr, align 8
  store ptr %__p, ptr %__p.addr, align 8, !tbaa !17
  store ptr %__args, ptr %__args.addr, align 8, !tbaa !17
  %0 = load ptr, ptr %__p.addr, align 8, !tbaa !17
  %1 = load ptr, ptr %__args.addr, align 8, !tbaa !17
  call void @llvm.memcpy.p0.p0.i64(ptr align 4 %0, ptr align 4 %1, i64 16, i1 false), !tbaa.struct !28
  ret void
}

; Function Attrs: mustprogress nounwind uwtable
define linkonce_odr noundef nonnull align 4 dereferenceable(16) ptr @_ZNKSt13move_iteratorIN9__gnu_cxx17__normal_iteratorIPN6openmc15TallyDerivativeESt6vectorIS3_SaIS3_EEEEEdeEv(ptr noundef nonnull align 8 dereferenceable(8) %this) #4 comdat align 2 {
entry:
  %this.addr = alloca ptr, align 8
  store ptr %this, ptr %this.addr, align 8, !tbaa !64
  %this1 = load ptr, ptr %this.addr, align 8
  %_M_current = getelementptr inbounds nuw %"class.std::move_iterator", ptr %this1, i32 0, i32 0
  %call = call noundef nonnull align 4 dereferenceable(16) ptr @_ZNK9__gnu_cxx17__normal_iteratorIPN6openmc15TallyDerivativeESt6vectorIS2_SaIS2_EEEdeEv(ptr noundef nonnull align 8 dereferenceable(8) %_M_current) #3
  ret ptr %call
}

; Function Attrs: mustprogress nounwind uwtable
define linkonce_odr noundef nonnull align 8 dereferenceable(8) ptr @_ZNSt13move_iteratorIN9__gnu_cxx17__normal_iteratorIPN6openmc15TallyDerivativeESt6vectorIS3_SaIS3_EEEEEppEv(ptr noundef nonnull align 8 dereferenceable(8) %this) #4 comdat align 2 {
entry:
  %this.addr = alloca ptr, align 8
  store ptr %this, ptr %this.addr, align 8, !tbaa !64
  %this1 = load ptr, ptr %this.addr, align 8
  %_M_current = getelementptr inbounds nuw %"class.std::move_iterator", ptr %this1, i32 0, i32 0
  %call = call noundef nonnull align 8 dereferenceable(8) ptr @_ZN9__gnu_cxx17__normal_iteratorIPN6openmc15TallyDerivativeESt6vectorIS2_SaIS2_EEEppEv(ptr noundef nonnull align 8 dereferenceable(8) %_M_current) #3
  ret ptr %this1
}

; Function Attrs: inlinehint mustprogress uwtable
define linkonce_odr noundef zeroext i1 @_ZSteqIN9__gnu_cxx17__normal_iteratorIPN6openmc15TallyDerivativeESt6vectorIS3_SaIS3_EEEEEbRKSt13move_iteratorIT_ESD_(ptr noundef nonnull align 8 dereferenceable(8) %__x, ptr noundef nonnull align 8 dereferenceable(8) %__y) #13 comdat {
entry:
  %__x.addr = alloca ptr, align 8
  %__y.addr = alloca ptr, align 8
  %ref.tmp = alloca %"class.__gnu_cxx::__normal_iterator.1", align 8
  %ref.tmp1 = alloca %"class.__gnu_cxx::__normal_iterator.1", align 8
  store ptr %__x, ptr %__x.addr, align 8, !tbaa !64
  store ptr %__y, ptr %__y.addr, align 8, !tbaa !64
  call void @llvm.lifetime.start.p0(i64 8, ptr %ref.tmp) #3
  %0 = load ptr, ptr %__x.addr, align 8, !tbaa !64
  %call = call ptr @_ZNKSt13move_iteratorIN9__gnu_cxx17__normal_iteratorIPN6openmc15TallyDerivativeESt6vectorIS3_SaIS3_EEEEE4baseEv(ptr noundef nonnull align 8 dereferenceable(8) %0)
  %coerce.dive = getelementptr inbounds nuw %"class.__gnu_cxx::__normal_iterator.1", ptr %ref.tmp, i32 0, i32 0
  store ptr %call, ptr %coerce.dive, align 8
  call void @llvm.lifetime.start.p0(i64 8, ptr %ref.tmp1) #3
  %1 = load ptr, ptr %__y.addr, align 8, !tbaa !64
  %call2 = call ptr @_ZNKSt13move_iteratorIN9__gnu_cxx17__normal_iteratorIPN6openmc15TallyDerivativeESt6vectorIS3_SaIS3_EEEEE4baseEv(ptr noundef nonnull align 8 dereferenceable(8) %1)
  %coerce.dive3 = getelementptr inbounds nuw %"class.__gnu_cxx::__normal_iterator.1", ptr %ref.tmp1, i32 0, i32 0
  store ptr %call2, ptr %coerce.dive3, align 8
  %call4 = call noundef zeroext i1 @_ZN9__gnu_cxxeqIPN6openmc15TallyDerivativeESt6vectorIS2_SaIS2_EEEEbRKNS_17__normal_iteratorIT_T0_EESC_(ptr noundef nonnull align 8 dereferenceable(8) %ref.tmp, ptr noundef nonnull align 8 dereferenceable(8) %ref.tmp1) #3
  call void @llvm.lifetime.end.p0(i64 8, ptr %ref.tmp1) #3
  call void @llvm.lifetime.end.p0(i64 8, ptr %ref.tmp) #3
  ret i1 %call4
}

; Function Attrs: inlinehint mustprogress nounwind uwtable
define linkonce_odr noundef zeroext i1 @_ZN9__gnu_cxxeqIPN6openmc15TallyDerivativeESt6vectorIS2_SaIS2_EEEEbRKNS_17__normal_iteratorIT_T0_EESC_(ptr noundef nonnull align 8 dereferenceable(8) %__lhs, ptr noundef nonnull align 8 dereferenceable(8) %__rhs) #6 comdat {
entry:
  %__lhs.addr = alloca ptr, align 8
  %__rhs.addr = alloca ptr, align 8
  store ptr %__lhs, ptr %__lhs.addr, align 8, !tbaa !66
  store ptr %__rhs, ptr %__rhs.addr, align 8, !tbaa !66
  %0 = load ptr, ptr %__lhs.addr, align 8, !tbaa !66
  %call = call noundef nonnull align 8 dereferenceable(8) ptr @_ZNK9__gnu_cxx17__normal_iteratorIPN6openmc15TallyDerivativeESt6vectorIS2_SaIS2_EEE4baseEv(ptr noundef nonnull align 8 dereferenceable(8) %0) #3
  %1 = load ptr, ptr %call, align 8, !tbaa !17
  %2 = load ptr, ptr %__rhs.addr, align 8, !tbaa !66
  %call1 = call noundef nonnull align 8 dereferenceable(8) ptr @_ZNK9__gnu_cxx17__normal_iteratorIPN6openmc15TallyDerivativeESt6vectorIS2_SaIS2_EEE4baseEv(ptr noundef nonnull align 8 dereferenceable(8) %2) #3
  %3 = load ptr, ptr %call1, align 8, !tbaa !17
  %cmp = icmp eq ptr %1, %3
  ret i1 %cmp
}

; Function Attrs: mustprogress nounwind uwtable
define linkonce_odr ptr @_ZNKSt13move_iteratorIN9__gnu_cxx17__normal_iteratorIPN6openmc15TallyDerivativeESt6vectorIS3_SaIS3_EEEEE4baseEv(ptr noundef nonnull align 8 dereferenceable(8) %this) #4 comdat align 2 {
entry:
  %retval = alloca %"class.__gnu_cxx::__normal_iterator.1", align 8
  %this.addr = alloca ptr, align 8
  store ptr %this, ptr %this.addr, align 8, !tbaa !64
  %this1 = load ptr, ptr %this.addr, align 8
  %_M_current = getelementptr inbounds nuw %"class.std::move_iterator", ptr %this1, i32 0, i32 0
  call void @llvm.memcpy.p0.p0.i64(ptr align 8 %retval, ptr align 8 %_M_current, i64 8, i1 false), !tbaa.struct !52
  %coerce.dive = getelementptr inbounds nuw %"class.__gnu_cxx::__normal_iterator.1", ptr %retval, i32 0, i32 0
  %0 = load ptr, ptr %coerce.dive, align 8
  ret ptr %0
}

; Function Attrs: mustprogress nounwind uwtable
define linkonce_odr noundef nonnull align 8 dereferenceable(8) ptr @_ZNK9__gnu_cxx17__normal_iteratorIPN6openmc15TallyDerivativeESt6vectorIS2_SaIS2_EEE4baseEv(ptr noundef nonnull align 8 dereferenceable(8) %this) #4 comdat align 2 {
entry:
  %this.addr = alloca ptr, align 8
  store ptr %this, ptr %this.addr, align 8, !tbaa !66
  %this1 = load ptr, ptr %this.addr, align 8
  %_M_current = getelementptr inbounds nuw %"class.__gnu_cxx::__normal_iterator.1", ptr %this1, i32 0, i32 0
  ret ptr %_M_current
}

; Function Attrs: mustprogress nounwind uwtable
define linkonce_odr noundef nonnull align 4 dereferenceable(16) ptr @_ZNK9__gnu_cxx17__normal_iteratorIPN6openmc15TallyDerivativeESt6vectorIS2_SaIS2_EEEdeEv(ptr noundef nonnull align 8 dereferenceable(8) %this) #4 comdat align 2 {
entry:
  %this.addr = alloca ptr, align 8
  store ptr %this, ptr %this.addr, align 8, !tbaa !66
  %this1 = load ptr, ptr %this.addr, align 8
  %_M_current = getelementptr inbounds nuw %"class.__gnu_cxx::__normal_iterator.1", ptr %this1, i32 0, i32 0
  %0 = load ptr, ptr %_M_current, align 8, !tbaa !68
  ret ptr %0
}

; Function Attrs: mustprogress nounwind uwtable
define linkonce_odr noundef nonnull align 8 dereferenceable(8) ptr @_ZN9__gnu_cxx17__normal_iteratorIPN6openmc15TallyDerivativeESt6vectorIS2_SaIS2_EEEppEv(ptr noundef nonnull align 8 dereferenceable(8) %this) #4 comdat align 2 {
entry:
  %this.addr = alloca ptr, align 8
  store ptr %this, ptr %this.addr, align 8, !tbaa !66
  %this1 = load ptr, ptr %this.addr, align 8
  %_M_current = getelementptr inbounds nuw %"class.__gnu_cxx::__normal_iterator.1", ptr %this1, i32 0, i32 0
  %0 = load ptr, ptr %_M_current, align 8, !tbaa !68
  %incdec.ptr = getelementptr inbounds nuw %"struct.openmc::TallyDerivative", ptr %0, i32 1
  store ptr %incdec.ptr, ptr %_M_current, align 8, !tbaa !68
  ret ptr %this1
}

; Function Attrs: mustprogress nounwind uwtable
define linkonce_odr void @_ZNSt13move_iteratorIN9__gnu_cxx17__normal_iteratorIPN6openmc15TallyDerivativeESt6vectorIS3_SaIS3_EEEEEC2ES8_(ptr noundef nonnull align 8 dereferenceable(8) %this, ptr %__i.coerce) unnamed_addr #4 comdat align 2 {
entry:
  %__i = alloca %"class.__gnu_cxx::__normal_iterator.1", align 8
  %this.addr = alloca ptr, align 8
  %coerce.dive = getelementptr inbounds nuw %"class.__gnu_cxx::__normal_iterator.1", ptr %__i, i32 0, i32 0
  store ptr %__i.coerce, ptr %coerce.dive, align 8
  store ptr %this, ptr %this.addr, align 8, !tbaa !64
  %this1 = load ptr, ptr %this.addr, align 8
  %_M_current = getelementptr inbounds nuw %"class.std::move_iterator", ptr %this1, i32 0, i32 0
  call void @llvm.memcpy.p0.p0.i64(ptr align 8 %_M_current, ptr align 8 %__i, i64 8, i1 false), !tbaa.struct !52
  ret void
}

; Function Attrs: mustprogress nounwind uwtable
define linkonce_odr void @_ZN9__gnu_cxx17__normal_iteratorIPN6openmc15TallyDerivativeESt6vectorIS2_SaIS2_EEEC2ERKS3_(ptr noundef nonnull align 8 dereferenceable(8) %this, ptr noundef nonnull align 8 dereferenceable(8) %__i) unnamed_addr #4 comdat align 2 {
entry:
  %this.addr = alloca ptr, align 8
  %__i.addr = alloca ptr, align 8
  store ptr %this, ptr %this.addr, align 8, !tbaa !66
  store ptr %__i, ptr %__i.addr, align 8, !tbaa !58
  %this1 = load ptr, ptr %this.addr, align 8
  %_M_current = getelementptr inbounds nuw %"class.__gnu_cxx::__normal_iterator.1", ptr %this1, i32 0, i32 0
  %0 = load ptr, ptr %__i.addr, align 8, !tbaa !58
  %1 = load ptr, ptr %0, align 8, !tbaa !17
  store ptr %1, ptr %_M_current, align 8, !tbaa !68
  ret void
}

; Function Attrs: mustprogress nounwind uwtable
define weak_odr void @_ZNSt6vectorIN6openmc15TallyDerivativeESaIS1_EE15_M_erase_at_endEPS1_(ptr noundef nonnull align 8 dereferenceable(24) %this, ptr noundef %__pos) #4 comdat align 2 personality ptr @__gxx_personality_v0 {
entry:
  %this.addr = alloca ptr, align 8
  %__pos.addr = alloca ptr, align 8
  %__n = alloca i64, align 8
  store ptr %this, ptr %this.addr, align 8, !tbaa !33
  store ptr %__pos, ptr %__pos.addr, align 8, !tbaa !17
  %this1 = load ptr, ptr %this.addr, align 8
  call void @llvm.lifetime.start.p0(i64 8, ptr %__n) #3
  %_M_impl = getelementptr inbounds nuw %"struct.std::_Vector_base", ptr %this1, i32 0, i32 0
  %_M_finish = getelementptr inbounds nuw %"struct.std::_Vector_base<openmc::TallyDerivative, std::allocator<openmc::TallyDerivative>>::_Vector_impl_data", ptr %_M_impl, i32 0, i32 1
  %0 = load ptr, ptr %_M_finish, align 8, !tbaa !43
  %1 = load ptr, ptr %__pos.addr, align 8, !tbaa !17
  %sub.ptr.lhs.cast = ptrtoint ptr %0 to i64
  %sub.ptr.rhs.cast = ptrtoint ptr %1 to i64
  %sub.ptr.sub = sub i64 %sub.ptr.lhs.cast, %sub.ptr.rhs.cast
  %sub.ptr.div = sdiv exact i64 %sub.ptr.sub, 16
  store i64 %sub.ptr.div, ptr %__n, align 8, !tbaa !39
  %2 = load i64, ptr %__n, align 8, !tbaa !39
  %tobool = icmp ne i64 %2, 0
  br i1 %tobool, label %if.then, label %if.end

if.then:                                          ; preds = %entry
  %3 = load ptr, ptr %__pos.addr, align 8, !tbaa !17
  %_M_impl2 = getelementptr inbounds nuw %"struct.std::_Vector_base", ptr %this1, i32 0, i32 0
  %_M_finish3 = getelementptr inbounds nuw %"struct.std::_Vector_base<openmc::TallyDerivative, std::allocator<openmc::TallyDerivative>>::_Vector_impl_data", ptr %_M_impl2, i32 0, i32 1
  %4 = load ptr, ptr %_M_finish3, align 8, !tbaa !43
  %call = call noundef nonnull align 1 dereferenceable(1) ptr @_ZNSt12_Vector_baseIN6openmc15TallyDerivativeESaIS1_EE19_M_get_Tp_allocatorEv(ptr noundef nonnull align 8 dereferenceable(24) %this1) #3
  invoke void @_ZSt8_DestroyIPN6openmc15TallyDerivativeES1_EvT_S3_RSaIT0_E(ptr noundef %3, ptr noundef %4, ptr noundef nonnull align 1 dereferenceable(1) %call)
          to label %invoke.cont unwind label %terminate.lpad

invoke.cont:                                      ; preds = %if.then
  %5 = load ptr, ptr %__pos.addr, align 8, !tbaa !17
  %_M_impl4 = getelementptr inbounds nuw %"struct.std::_Vector_base", ptr %this1, i32 0, i32 0
  %_M_finish5 = getelementptr inbounds nuw %"struct.std::_Vector_base<openmc::TallyDerivative, std::allocator<openmc::TallyDerivative>>::_Vector_impl_data", ptr %_M_impl4, i32 0, i32 1
  store ptr %5, ptr %_M_finish5, align 8, !tbaa !43
  br label %if.end

if.end:                                           ; preds = %invoke.cont, %entry
  call void @llvm.lifetime.end.p0(i64 8, ptr %__n) #3
  ret void

terminate.lpad:                                   ; preds = %if.then
  %6 = landingpad { ptr, i32 }
          catch ptr null
  %7 = extractvalue { ptr, i32 } %6, 0
  call void @__clang_call_terminate(ptr %7) #26
  unreachable
}

; Function Attrs: inlinehint mustprogress uwtable
define linkonce_odr void @_ZSt8_DestroyIPN6openmc15TallyDerivativeES1_EvT_S3_RSaIT0_E(ptr noundef %__first, ptr noundef %__last, ptr noundef nonnull align 1 dereferenceable(1) %0) #13 comdat {
entry:
  %__first.addr = alloca ptr, align 8
  %__last.addr = alloca ptr, align 8
  %.addr = alloca ptr, align 8
  store ptr %__first, ptr %__first.addr, align 8, !tbaa !17
  store ptr %__last, ptr %__last.addr, align 8, !tbaa !17
  store ptr %0, ptr %.addr, align 8, !tbaa !22
  %1 = load ptr, ptr %__first.addr, align 8, !tbaa !17
  %2 = load ptr, ptr %__last.addr, align 8, !tbaa !17
  call void @_ZSt8_DestroyIPN6openmc15TallyDerivativeEEvT_S3_(ptr noundef %1, ptr noundef %2)
  ret void
}

; Function Attrs: mustprogress nounwind uwtable
define weak_odr void @_ZNSt6vectorIN6openmc15TallyDerivativeESaIS1_EEC2EOS3_RKS2_(ptr noundef nonnull align 8 dereferenceable(24) %this, ptr noundef nonnull align 8 dereferenceable(24) %__rv, ptr noundef nonnull align 1 dereferenceable(1) %__m) unnamed_addr #4 comdat($_ZNSt6vectorIN6openmc15TallyDerivativeESaIS1_EEC5EOS3_RKS2_) align 2 {
entry:
  %this.addr = alloca ptr, align 8
  %__rv.addr = alloca ptr, align 8
  %__m.addr = alloca ptr, align 8
  %agg.tmp = alloca %"struct.std::integral_constant", align 1
  store ptr %this, ptr %this.addr, align 8, !tbaa !33
  store ptr %__rv, ptr %__rv.addr, align 8, !tbaa !33
  store ptr %__m, ptr %__m.addr, align 8, !tbaa !22
  %this1 = load ptr, ptr %this.addr, align 8
  %0 = load ptr, ptr %__rv.addr, align 8, !tbaa !33
  %1 = load ptr, ptr %__m.addr, align 8, !tbaa !22
  call void @_ZNSt6vectorIN6openmc15TallyDerivativeESaIS1_EEC2EOS3_RKS2_St17integral_constantIbLb1EE(ptr noundef nonnull align 8 dereferenceable(24) %this1, ptr noundef nonnull align 8 dereferenceable(24) %0, ptr noundef nonnull align 1 dereferenceable(1) %1) #3
  ret void
}

; Function Attrs: mustprogress uwtable
define weak_odr void @_ZNSt6vectorIN6openmc15TallyDerivativeESaIS1_EEC2ESt16initializer_listIS1_ERKS2_(ptr noundef nonnull align 8 dereferenceable(24) %this, ptr %__l.coerce0, i64 %__l.coerce1, ptr noundef nonnull align 1 dereferenceable(1) %__a) unnamed_addr #8 comdat($_ZNSt6vectorIN6openmc15TallyDerivativeESaIS1_EEC5ESt16initializer_listIS1_ERKS2_) align 2 personality ptr @__gxx_personality_v0 {
entry:
  %__l = alloca %"class.std::initializer_list", align 8
  %this.addr = alloca ptr, align 8
  %__a.addr = alloca ptr, align 8
  %agg.tmp = alloca %"struct.std::forward_iterator_tag", align 1
  %ref.tmp = alloca %"struct.std::random_access_iterator_tag", align 1
  %exn.slot = alloca ptr, align 8
  %ehselector.slot = alloca i32, align 4
  %0 = getelementptr inbounds nuw { ptr, i64 }, ptr %__l, i32 0, i32 0
  store ptr %__l.coerce0, ptr %0, align 8
  %1 = getelementptr inbounds nuw { ptr, i64 }, ptr %__l, i32 0, i32 1
  store i64 %__l.coerce1, ptr %1, align 8
  store ptr %this, ptr %this.addr, align 8, !tbaa !33
  store ptr %__a, ptr %__a.addr, align 8, !tbaa !22
  %this1 = load ptr, ptr %this.addr, align 8
  %2 = load ptr, ptr %__a.addr, align 8, !tbaa !22
  call void @_ZNSt12_Vector_baseIN6openmc15TallyDerivativeESaIS1_EEC2ERKS2_(ptr noundef nonnull align 8 dereferenceable(24) %this1, ptr noundef nonnull align 1 dereferenceable(1) %2) #3
  %call = call noundef ptr @_ZNKSt16initializer_listIN6openmc15TallyDerivativeEE5beginEv(ptr noundef nonnull align 8 dereferenceable(16) %__l) #3
  %call2 = call noundef ptr @_ZNKSt16initializer_listIN6openmc15TallyDerivativeEE3endEv(ptr noundef nonnull align 8 dereferenceable(16) %__l) #3
  call void @llvm.lifetime.start.p0(i64 1, ptr %ref.tmp) #3
  invoke void @_ZNSt6vectorIN6openmc15TallyDerivativeESaIS1_EE19_M_range_initializeIPKS1_EEvT_S7_St20forward_iterator_tag(ptr noundef nonnull align 8 dereferenceable(24) %this1, ptr noundef %call, ptr noundef %call2)
          to label %invoke.cont unwind label %lpad

invoke.cont:                                      ; preds = %entry
  call void @llvm.lifetime.end.p0(i64 1, ptr %ref.tmp) #3
  ret void

lpad:                                             ; preds = %entry
  %3 = landingpad { ptr, i32 }
          cleanup
  %4 = extractvalue { ptr, i32 } %3, 0
  store ptr %4, ptr %exn.slot, align 8
  %5 = extractvalue { ptr, i32 } %3, 1
  store i32 %5, ptr %ehselector.slot, align 4
  call void @llvm.lifetime.end.p0(i64 1, ptr %ref.tmp) #3
  call void @_ZNSt12_Vector_baseIN6openmc15TallyDerivativeESaIS1_EED2Ev(ptr noundef nonnull align 8 dereferenceable(24) %this1) #3
  br label %eh.resume

eh.resume:                                        ; preds = %lpad
  %exn = load ptr, ptr %exn.slot, align 8
  %sel = load i32, ptr %ehselector.slot, align 4
  %lpad.val = insertvalue { ptr, i32 } poison, ptr %exn, 0
  %lpad.val3 = insertvalue { ptr, i32 } %lpad.val, i32 %sel, 1
  resume { ptr, i32 } %lpad.val3
}

; Function Attrs: mustprogress uwtable
define linkonce_odr void @_ZNSt6vectorIN6openmc15TallyDerivativeESaIS1_EE19_M_range_initializeIPKS1_EEvT_S7_St20forward_iterator_tag(ptr noundef nonnull align 8 dereferenceable(24) %this, ptr noundef %__first, ptr noundef %__last) #8 comdat align 2 {
entry:
  %0 = alloca %"struct.std::forward_iterator_tag", align 1
  %this.addr = alloca ptr, align 8
  %__first.addr = alloca ptr, align 8
  %__last.addr = alloca ptr, align 8
  %__n = alloca i64, align 8
  store ptr %this, ptr %this.addr, align 8, !tbaa !33
  store ptr %__first, ptr %__first.addr, align 8, !tbaa !17
  store ptr %__last, ptr %__last.addr, align 8, !tbaa !17
  %this1 = load ptr, ptr %this.addr, align 8
  call void @llvm.lifetime.start.p0(i64 8, ptr %__n) #3
  %1 = load ptr, ptr %__first.addr, align 8, !tbaa !17
  %2 = load ptr, ptr %__last.addr, align 8, !tbaa !17
  %call = call noundef i64 @_ZSt8distanceIPKN6openmc15TallyDerivativeEENSt15iterator_traitsIT_E15difference_typeES5_S5_(ptr noundef %1, ptr noundef %2)
  store i64 %call, ptr %__n, align 8, !tbaa !39
  %3 = load i64, ptr %__n, align 8, !tbaa !39
  %call2 = call noundef nonnull align 1 dereferenceable(1) ptr @_ZNSt12_Vector_baseIN6openmc15TallyDerivativeESaIS1_EE19_M_get_Tp_allocatorEv(ptr noundef nonnull align 8 dereferenceable(24) %this1) #3
  %call3 = call noundef i64 @_ZNSt6vectorIN6openmc15TallyDerivativeESaIS1_EE17_S_check_init_lenEmRKS2_(i64 noundef %3, ptr noundef nonnull align 1 dereferenceable(1) %call2)
  %call4 = call noundef ptr @_ZNSt12_Vector_baseIN6openmc15TallyDerivativeESaIS1_EE11_M_allocateEm(ptr noundef nonnull align 8 dereferenceable(24) %this1, i64 noundef %call3)
  %_M_impl = getelementptr inbounds nuw %"struct.std::_Vector_base", ptr %this1, i32 0, i32 0
  %_M_start = getelementptr inbounds nuw %"struct.std::_Vector_base<openmc::TallyDerivative, std::allocator<openmc::TallyDerivative>>::_Vector_impl_data", ptr %_M_impl, i32 0, i32 0
  store ptr %call4, ptr %_M_start, align 8, !tbaa !41
  %_M_impl5 = getelementptr inbounds nuw %"struct.std::_Vector_base", ptr %this1, i32 0, i32 0
  %_M_start6 = getelementptr inbounds nuw %"struct.std::_Vector_base<openmc::TallyDerivative, std::allocator<openmc::TallyDerivative>>::_Vector_impl_data", ptr %_M_impl5, i32 0, i32 0
  %4 = load ptr, ptr %_M_start6, align 8, !tbaa !41
  %5 = load i64, ptr %__n, align 8, !tbaa !39
  %add.ptr = getelementptr inbounds nuw %"struct.openmc::TallyDerivative", ptr %4, i64 %5
  %_M_impl7 = getelementptr inbounds nuw %"struct.std::_Vector_base", ptr %this1, i32 0, i32 0
  %_M_end_of_storage = getelementptr inbounds nuw %"struct.std::_Vector_base<openmc::TallyDerivative, std::allocator<openmc::TallyDerivative>>::_Vector_impl_data", ptr %_M_impl7, i32 0, i32 2
  store ptr %add.ptr, ptr %_M_end_of_storage, align 8, !tbaa !44
  %6 = load ptr, ptr %__first.addr, align 8, !tbaa !17
  %7 = load ptr, ptr %__last.addr, align 8, !tbaa !17
  %_M_impl8 = getelementptr inbounds nuw %"struct.std::_Vector_base", ptr %this1, i32 0, i32 0
  %_M_start9 = getelementptr inbounds nuw %"struct.std::_Vector_base<openmc::TallyDerivative, std::allocator<openmc::TallyDerivative>>::_Vector_impl_data", ptr %_M_impl8, i32 0, i32 0
  %8 = load ptr, ptr %_M_start9, align 8, !tbaa !41
  %call10 = call noundef nonnull align 1 dereferenceable(1) ptr @_ZNSt12_Vector_baseIN6openmc15TallyDerivativeESaIS1_EE19_M_get_Tp_allocatorEv(ptr noundef nonnull align 8 dereferenceable(24) %this1) #3
  %call11 = call noundef ptr @_ZSt22__uninitialized_copy_aIPKN6openmc15TallyDerivativeEPS1_S1_ET0_T_S6_S5_RSaIT1_E(ptr noundef %6, ptr noundef %7, ptr noundef %8, ptr noundef nonnull align 1 dereferenceable(1) %call10)
  %_M_impl12 = getelementptr inbounds nuw %"struct.std::_Vector_base", ptr %this1, i32 0, i32 0
  %_M_finish = getelementptr inbounds nuw %"struct.std::_Vector_base<openmc::TallyDerivative, std::allocator<openmc::TallyDerivative>>::_Vector_impl_data", ptr %_M_impl12, i32 0, i32 1
  store ptr %call11, ptr %_M_finish, align 8, !tbaa !43
  call void @llvm.lifetime.end.p0(i64 8, ptr %__n) #3
  ret void
}

; Function Attrs: mustprogress nounwind uwtable
define linkonce_odr noundef ptr @_ZNKSt16initializer_listIN6openmc15TallyDerivativeEE5beginEv(ptr noundef nonnull align 8 dereferenceable(16) %this) #4 comdat align 2 {
entry:
  %this.addr = alloca ptr, align 8
  store ptr %this, ptr %this.addr, align 8, !tbaa !70
  %this1 = load ptr, ptr %this.addr, align 8
  %_M_array = getelementptr inbounds nuw %"class.std::initializer_list", ptr %this1, i32 0, i32 0
  %0 = load ptr, ptr %_M_array, align 8, !tbaa !72
  ret ptr %0
}

; Function Attrs: mustprogress nounwind uwtable
define linkonce_odr noundef ptr @_ZNKSt16initializer_listIN6openmc15TallyDerivativeEE3endEv(ptr noundef nonnull align 8 dereferenceable(16) %this) #4 comdat align 2 {
entry:
  %this.addr = alloca ptr, align 8
  store ptr %this, ptr %this.addr, align 8, !tbaa !70
  %this1 = load ptr, ptr %this.addr, align 8
  %call = call noundef ptr @_ZNKSt16initializer_listIN6openmc15TallyDerivativeEE5beginEv(ptr noundef nonnull align 8 dereferenceable(16) %this1) #3
  %call2 = call noundef i64 @_ZNKSt16initializer_listIN6openmc15TallyDerivativeEE4sizeEv(ptr noundef nonnull align 8 dereferenceable(16) %this1) #3
  %add.ptr = getelementptr inbounds nuw %"struct.openmc::TallyDerivative", ptr %call, i64 %call2
  ret ptr %add.ptr
}

; Function Attrs: inlinehint mustprogress uwtable
define linkonce_odr noundef i64 @_ZSt8distanceIPKN6openmc15TallyDerivativeEENSt15iterator_traitsIT_E15difference_typeES5_S5_(ptr noundef %__first, ptr noundef %__last) #13 comdat {
entry:
  %__first.addr = alloca ptr, align 8
  %__last.addr = alloca ptr, align 8
  %agg.tmp = alloca %"struct.std::random_access_iterator_tag", align 1
  %undef.agg.tmp = alloca %"struct.std::random_access_iterator_tag", align 1
  store ptr %__first, ptr %__first.addr, align 8, !tbaa !17
  store ptr %__last, ptr %__last.addr, align 8, !tbaa !17
  %0 = load ptr, ptr %__first.addr, align 8, !tbaa !17
  %1 = load ptr, ptr %__last.addr, align 8, !tbaa !17
  call void @_ZSt19__iterator_categoryIPKN6openmc15TallyDerivativeEENSt15iterator_traitsIT_E17iterator_categoryERKS5_(ptr noundef nonnull align 8 dereferenceable(8) %__first.addr)
  %call = call noundef i64 @_ZSt10__distanceIPKN6openmc15TallyDerivativeEENSt15iterator_traitsIT_E15difference_typeES5_S5_St26random_access_iterator_tag(ptr noundef %0, ptr noundef %1)
  ret i64 %call
}

; Function Attrs: inlinehint mustprogress uwtable
define linkonce_odr noundef ptr @_ZSt22__uninitialized_copy_aIPKN6openmc15TallyDerivativeEPS1_S1_ET0_T_S6_S5_RSaIT1_E(ptr noundef %__first, ptr noundef %__last, ptr noundef %__result, ptr noundef nonnull align 1 dereferenceable(1) %0) #13 comdat {
entry:
  %__first.addr = alloca ptr, align 8
  %__last.addr = alloca ptr, align 8
  %__result.addr = alloca ptr, align 8
  %.addr = alloca ptr, align 8
  store ptr %__first, ptr %__first.addr, align 8, !tbaa !17
  store ptr %__last, ptr %__last.addr, align 8, !tbaa !17
  store ptr %__result, ptr %__result.addr, align 8, !tbaa !17
  store ptr %0, ptr %.addr, align 8, !tbaa !22
  %1 = load ptr, ptr %__first.addr, align 8, !tbaa !17
  %2 = load ptr, ptr %__last.addr, align 8, !tbaa !17
  %3 = load ptr, ptr %__result.addr, align 8, !tbaa !17
  %call = call noundef ptr @_ZSt18uninitialized_copyIPKN6openmc15TallyDerivativeEPS1_ET0_T_S6_S5_(ptr noundef %1, ptr noundef %2, ptr noundef %3)
  ret ptr %call
}

; Function Attrs: inlinehint mustprogress nounwind uwtable
define linkonce_odr noundef i64 @_ZSt10__distanceIPKN6openmc15TallyDerivativeEENSt15iterator_traitsIT_E15difference_typeES5_S5_St26random_access_iterator_tag(ptr noundef %__first, ptr noundef %__last) #6 comdat {
entry:
  %0 = alloca %"struct.std::random_access_iterator_tag", align 1
  %__first.addr = alloca ptr, align 8
  %__last.addr = alloca ptr, align 8
  store ptr %__first, ptr %__first.addr, align 8, !tbaa !17
  store ptr %__last, ptr %__last.addr, align 8, !tbaa !17
  %1 = load ptr, ptr %__last.addr, align 8, !tbaa !17
  %2 = load ptr, ptr %__first.addr, align 8, !tbaa !17
  %sub.ptr.lhs.cast = ptrtoint ptr %1 to i64
  %sub.ptr.rhs.cast = ptrtoint ptr %2 to i64
  %sub.ptr.sub = sub i64 %sub.ptr.lhs.cast, %sub.ptr.rhs.cast
  %sub.ptr.div = sdiv exact i64 %sub.ptr.sub, 16
  ret i64 %sub.ptr.div
}

; Function Attrs: inlinehint mustprogress nounwind uwtable
define linkonce_odr void @_ZSt19__iterator_categoryIPKN6openmc15TallyDerivativeEENSt15iterator_traitsIT_E17iterator_categoryERKS5_(ptr noundef nonnull align 8 dereferenceable(8) %0) #6 comdat {
entry:
  %.addr = alloca ptr, align 8
  store ptr %0, ptr %.addr, align 8, !tbaa !58
  ret void
}

; Function Attrs: inlinehint mustprogress uwtable
define linkonce_odr noundef ptr @_ZSt18uninitialized_copyIPKN6openmc15TallyDerivativeEPS1_ET0_T_S6_S5_(ptr noundef %__first, ptr noundef %__last, ptr noundef %__result) #13 comdat {
entry:
  %__first.addr = alloca ptr, align 8
  %__last.addr = alloca ptr, align 8
  %__result.addr = alloca ptr, align 8
  %__can_memmove = alloca i8, align 1
  %__assignable = alloca i8, align 1
  store ptr %__first, ptr %__first.addr, align 8, !tbaa !17
  store ptr %__last, ptr %__last.addr, align 8, !tbaa !17
  store ptr %__result, ptr %__result.addr, align 8, !tbaa !17
  call void @llvm.lifetime.start.p0(i64 1, ptr %__can_memmove) #3
  store i8 0, ptr %__can_memmove, align 1, !tbaa !48
  call void @llvm.lifetime.start.p0(i64 1, ptr %__assignable) #3
  store i8 0, ptr %__assignable, align 1, !tbaa !48
  %0 = load ptr, ptr %__first.addr, align 8, !tbaa !17
  %1 = load ptr, ptr %__last.addr, align 8, !tbaa !17
  %2 = load ptr, ptr %__result.addr, align 8, !tbaa !17
  %call = call noundef ptr @_ZNSt20__uninitialized_copyILb0EE13__uninit_copyIPKN6openmc15TallyDerivativeEPS3_EET0_T_S8_S7_(ptr noundef %0, ptr noundef %1, ptr noundef %2)
  call void @llvm.lifetime.end.p0(i64 1, ptr %__assignable) #3
  call void @llvm.lifetime.end.p0(i64 1, ptr %__can_memmove) #3
  ret ptr %call
}

; Function Attrs: mustprogress uwtable
define linkonce_odr noundef ptr @_ZNSt20__uninitialized_copyILb0EE13__uninit_copyIPKN6openmc15TallyDerivativeEPS3_EET0_T_S8_S7_(ptr noundef %__first, ptr noundef %__last, ptr noundef %__result) #8 comdat align 2 {
entry:
  %__first.addr = alloca ptr, align 8
  %__last.addr = alloca ptr, align 8
  %__result.addr = alloca ptr, align 8
  store ptr %__first, ptr %__first.addr, align 8, !tbaa !17
  store ptr %__last, ptr %__last.addr, align 8, !tbaa !17
  store ptr %__result, ptr %__result.addr, align 8, !tbaa !17
  %0 = load ptr, ptr %__first.addr, align 8, !tbaa !17
  %1 = load ptr, ptr %__last.addr, align 8, !tbaa !17
  %2 = load ptr, ptr %__result.addr, align 8, !tbaa !17
  %call = call noundef ptr @_ZSt16__do_uninit_copyIPKN6openmc15TallyDerivativeEPS1_ET0_T_S6_S5_(ptr noundef %0, ptr noundef %1, ptr noundef %2)
  ret ptr %call
}

; Function Attrs: mustprogress nounwind uwtable
define linkonce_odr noundef ptr @_ZSt16__do_uninit_copyIPKN6openmc15TallyDerivativeEPS1_ET0_T_S6_S5_(ptr noundef %__first, ptr noundef %__last, ptr noundef %__result) #4 comdat {
entry:
  %__first.addr = alloca ptr, align 8
  %__last.addr = alloca ptr, align 8
  %__result.addr = alloca ptr, align 8
  %__cur = alloca ptr, align 8
  store ptr %__first, ptr %__first.addr, align 8, !tbaa !17
  store ptr %__last, ptr %__last.addr, align 8, !tbaa !17
  store ptr %__result, ptr %__result.addr, align 8, !tbaa !17
  call void @llvm.lifetime.start.p0(i64 8, ptr %__cur) #3
  %0 = load ptr, ptr %__result.addr, align 8, !tbaa !17
  store ptr %0, ptr %__cur, align 8, !tbaa !17
  br label %for.cond

for.cond:                                         ; preds = %for.inc, %entry
  %1 = load ptr, ptr %__first.addr, align 8, !tbaa !17
  %2 = load ptr, ptr %__last.addr, align 8, !tbaa !17
  %cmp = icmp ne ptr %1, %2
  br i1 %cmp, label %for.body, label %for.end

for.body:                                         ; preds = %for.cond
  %3 = load ptr, ptr %__cur, align 8, !tbaa !17
  %4 = load ptr, ptr %__first.addr, align 8, !tbaa !17
  call void @_ZSt10_ConstructIN6openmc15TallyDerivativeEJRKS1_EEvPT_DpOT0_(ptr noundef %3, ptr noundef nonnull align 4 dereferenceable(16) %4)
  br label %for.inc

for.inc:                                          ; preds = %for.body
  %5 = load ptr, ptr %__first.addr, align 8, !tbaa !17
  %incdec.ptr = getelementptr inbounds nuw %"struct.openmc::TallyDerivative", ptr %5, i32 1
  store ptr %incdec.ptr, ptr %__first.addr, align 8, !tbaa !17
  %6 = load ptr, ptr %__cur, align 8, !tbaa !17
  %incdec.ptr1 = getelementptr inbounds nuw %"struct.openmc::TallyDerivative", ptr %6, i32 1
  store ptr %incdec.ptr1, ptr %__cur, align 8, !tbaa !17
  br label %for.cond, !llvm.loop !74

for.end:                                          ; preds = %for.cond
  %7 = load ptr, ptr %__cur, align 8, !tbaa !17
  call void @llvm.lifetime.end.p0(i64 8, ptr %__cur) #3
  ret ptr %7
}

; Function Attrs: mustprogress nounwind uwtable
define linkonce_odr noundef i64 @_ZNKSt16initializer_listIN6openmc15TallyDerivativeEE4sizeEv(ptr noundef nonnull align 8 dereferenceable(16) %this) #4 comdat align 2 {
entry:
  %this.addr = alloca ptr, align 8
  store ptr %this, ptr %this.addr, align 8, !tbaa !70
  %this1 = load ptr, ptr %this.addr, align 8
  %_M_len = getelementptr inbounds nuw %"class.std::initializer_list", ptr %this1, i32 0, i32 1
  %0 = load i64, ptr %_M_len, align 8, !tbaa !75
  ret i64 %0
}

; Function Attrs: mustprogress nounwind uwtable
define weak_odr void @_ZNSt6vectorIN6openmc15TallyDerivativeESaIS1_EED2Ev(ptr noundef nonnull align 8 dereferenceable(24) %this) unnamed_addr #4 comdat($_ZNSt6vectorIN6openmc15TallyDerivativeESaIS1_EED5Ev) align 2 personality ptr @__gxx_personality_v0 {
entry:
  %this.addr = alloca ptr, align 8
  store ptr %this, ptr %this.addr, align 8, !tbaa !33
  %this1 = load ptr, ptr %this.addr, align 8
  %_M_impl = getelementptr inbounds nuw %"struct.std::_Vector_base", ptr %this1, i32 0, i32 0
  %_M_start = getelementptr inbounds nuw %"struct.std::_Vector_base<openmc::TallyDerivative, std::allocator<openmc::TallyDerivative>>::_Vector_impl_data", ptr %_M_impl, i32 0, i32 0
  %0 = load ptr, ptr %_M_start, align 8, !tbaa !41
  %_M_impl2 = getelementptr inbounds nuw %"struct.std::_Vector_base", ptr %this1, i32 0, i32 0
  %_M_finish = getelementptr inbounds nuw %"struct.std::_Vector_base<openmc::TallyDerivative, std::allocator<openmc::TallyDerivative>>::_Vector_impl_data", ptr %_M_impl2, i32 0, i32 1
  %1 = load ptr, ptr %_M_finish, align 8, !tbaa !43
  %call = call noundef nonnull align 1 dereferenceable(1) ptr @_ZNSt12_Vector_baseIN6openmc15TallyDerivativeESaIS1_EE19_M_get_Tp_allocatorEv(ptr noundef nonnull align 8 dereferenceable(24) %this1) #3
  invoke void @_ZSt8_DestroyIPN6openmc15TallyDerivativeES1_EvT_S3_RSaIT0_E(ptr noundef %0, ptr noundef %1, ptr noundef nonnull align 1 dereferenceable(1) %call)
          to label %invoke.cont unwind label %terminate.lpad

invoke.cont:                                      ; preds = %entry
  call void @_ZNSt12_Vector_baseIN6openmc15TallyDerivativeESaIS1_EED2Ev(ptr noundef nonnull align 8 dereferenceable(24) %this1) #3
  ret void

terminate.lpad:                                   ; preds = %entry
  %2 = landingpad { ptr, i32 }
          catch ptr null
  %3 = extractvalue { ptr, i32 } %2, 0
  call void @__clang_call_terminate(ptr %3) #26
  unreachable
}

; Function Attrs: mustprogress uwtable
define weak_odr noundef nonnull align 8 dereferenceable(24) ptr @_ZNSt6vectorIN6openmc15TallyDerivativeESaIS1_EEaSERKS3_(ptr noundef nonnull align 8 dereferenceable(24) %this, ptr noundef nonnull align 8 dereferenceable(24) %__x) #8 comdat align 2 {
entry:
  %this.addr = alloca ptr, align 8
  %__x.addr = alloca ptr, align 8
  %__xlen = alloca i64, align 8
  %__tmp = alloca ptr, align 8
  %agg.tmp = alloca %"class.__gnu_cxx::__normal_iterator", align 8
  %agg.tmp6 = alloca %"class.__gnu_cxx::__normal_iterator", align 8
  %agg.tmp28 = alloca %"class.__gnu_cxx::__normal_iterator.1", align 8
  %agg.tmp29 = alloca %"class.__gnu_cxx::__normal_iterator", align 8
  %agg.tmp32 = alloca %"class.__gnu_cxx::__normal_iterator", align 8
  %agg.tmp35 = alloca %"class.__gnu_cxx::__normal_iterator.1", align 8
  %agg.tmp43 = alloca %"class.__gnu_cxx::__normal_iterator.1", align 8
  store ptr %this, ptr %this.addr, align 8, !tbaa !33
  store ptr %__x, ptr %__x.addr, align 8, !tbaa !33
  %this1 = load ptr, ptr %this.addr, align 8
  %0 = load ptr, ptr %__x.addr, align 8, !tbaa !33
  %cmp = icmp ne ptr %0, %this1
  br i1 %cmp, label %if.then, label %if.end75

if.then:                                          ; preds = %entry
  call void @llvm.lifetime.start.p0(i64 8, ptr %__xlen) #3
  %1 = load ptr, ptr %__x.addr, align 8, !tbaa !33
  %call = call noundef i64 @_ZNKSt6vectorIN6openmc15TallyDerivativeESaIS1_EE4sizeEv(ptr noundef nonnull align 8 dereferenceable(24) %1) #3
  store i64 %call, ptr %__xlen, align 8, !tbaa !39
  %2 = load i64, ptr %__xlen, align 8, !tbaa !39
  %call2 = call noundef i64 @_ZNKSt6vectorIN6openmc15TallyDerivativeESaIS1_EE8capacityEv(ptr noundef nonnull align 8 dereferenceable(24) %this1) #3
  %cmp3 = icmp ugt i64 %2, %call2
  br i1 %cmp3, label %if.then4, label %if.else

if.then4:                                         ; preds = %if.then
  call void @llvm.lifetime.start.p0(i64 8, ptr %__tmp) #3
  %3 = load i64, ptr %__xlen, align 8, !tbaa !39
  %4 = load ptr, ptr %__x.addr, align 8, !tbaa !33
  %call5 = call ptr @_ZNKSt6vectorIN6openmc15TallyDerivativeESaIS1_EE5beginEv(ptr noundef nonnull align 8 dereferenceable(24) %4) #3
  %coerce.dive = getelementptr inbounds nuw %"class.__gnu_cxx::__normal_iterator", ptr %agg.tmp, i32 0, i32 0
  store ptr %call5, ptr %coerce.dive, align 8
  %5 = load ptr, ptr %__x.addr, align 8, !tbaa !33
  %call7 = call ptr @_ZNKSt6vectorIN6openmc15TallyDerivativeESaIS1_EE3endEv(ptr noundef nonnull align 8 dereferenceable(24) %5) #3
  %coerce.dive8 = getelementptr inbounds nuw %"class.__gnu_cxx::__normal_iterator", ptr %agg.tmp6, i32 0, i32 0
  store ptr %call7, ptr %coerce.dive8, align 8
  %coerce.dive9 = getelementptr inbounds nuw %"class.__gnu_cxx::__normal_iterator", ptr %agg.tmp, i32 0, i32 0
  %6 = load ptr, ptr %coerce.dive9, align 8
  %coerce.dive10 = getelementptr inbounds nuw %"class.__gnu_cxx::__normal_iterator", ptr %agg.tmp6, i32 0, i32 0
  %7 = load ptr, ptr %coerce.dive10, align 8
  %call11 = call noundef ptr @_ZNSt6vectorIN6openmc15TallyDerivativeESaIS1_EE20_M_allocate_and_copyIN9__gnu_cxx17__normal_iteratorIPKS1_S3_EEEEPS1_mT_SB_(ptr noundef nonnull align 8 dereferenceable(24) %this1, i64 noundef %3, ptr %6, ptr %7)
  store ptr %call11, ptr %__tmp, align 8, !tbaa !17
  %_M_impl = getelementptr inbounds nuw %"struct.std::_Vector_base", ptr %this1, i32 0, i32 0
  %_M_start = getelementptr inbounds nuw %"struct.std::_Vector_base<openmc::TallyDerivative, std::allocator<openmc::TallyDerivative>>::_Vector_impl_data", ptr %_M_impl, i32 0, i32 0
  %8 = load ptr, ptr %_M_start, align 8, !tbaa !41
  %_M_impl12 = getelementptr inbounds nuw %"struct.std::_Vector_base", ptr %this1, i32 0, i32 0
  %_M_finish = getelementptr inbounds nuw %"struct.std::_Vector_base<openmc::TallyDerivative, std::allocator<openmc::TallyDerivative>>::_Vector_impl_data", ptr %_M_impl12, i32 0, i32 1
  %9 = load ptr, ptr %_M_finish, align 8, !tbaa !43
  %call13 = call noundef nonnull align 1 dereferenceable(1) ptr @_ZNSt12_Vector_baseIN6openmc15TallyDerivativeESaIS1_EE19_M_get_Tp_allocatorEv(ptr noundef nonnull align 8 dereferenceable(24) %this1) #3
  call void @_ZSt8_DestroyIPN6openmc15TallyDerivativeES1_EvT_S3_RSaIT0_E(ptr noundef %8, ptr noundef %9, ptr noundef nonnull align 1 dereferenceable(1) %call13)
  %_M_impl14 = getelementptr inbounds nuw %"struct.std::_Vector_base", ptr %this1, i32 0, i32 0
  %_M_start15 = getelementptr inbounds nuw %"struct.std::_Vector_base<openmc::TallyDerivative, std::allocator<openmc::TallyDerivative>>::_Vector_impl_data", ptr %_M_impl14, i32 0, i32 0
  %10 = load ptr, ptr %_M_start15, align 8, !tbaa !41
  %_M_impl16 = getelementptr inbounds nuw %"struct.std::_Vector_base", ptr %this1, i32 0, i32 0
  %_M_end_of_storage = getelementptr inbounds nuw %"struct.std::_Vector_base<openmc::TallyDerivative, std::allocator<openmc::TallyDerivative>>::_Vector_impl_data", ptr %_M_impl16, i32 0, i32 2
  %11 = load ptr, ptr %_M_end_of_storage, align 8, !tbaa !44
  %_M_impl17 = getelementptr inbounds nuw %"struct.std::_Vector_base", ptr %this1, i32 0, i32 0
  %_M_start18 = getelementptr inbounds nuw %"struct.std::_Vector_base<openmc::TallyDerivative, std::allocator<openmc::TallyDerivative>>::_Vector_impl_data", ptr %_M_impl17, i32 0, i32 0
  %12 = load ptr, ptr %_M_start18, align 8, !tbaa !41
  %sub.ptr.lhs.cast = ptrtoint ptr %11 to i64
  %sub.ptr.rhs.cast = ptrtoint ptr %12 to i64
  %sub.ptr.sub = sub i64 %sub.ptr.lhs.cast, %sub.ptr.rhs.cast
  %sub.ptr.div = sdiv exact i64 %sub.ptr.sub, 16
  call void @_ZNSt12_Vector_baseIN6openmc15TallyDerivativeESaIS1_EE13_M_deallocateEPS1_m(ptr noundef nonnull align 8 dereferenceable(24) %this1, ptr noundef %10, i64 noundef %sub.ptr.div)
  %13 = load ptr, ptr %__tmp, align 8, !tbaa !17
  %_M_impl19 = getelementptr inbounds nuw %"struct.std::_Vector_base", ptr %this1, i32 0, i32 0
  %_M_start20 = getelementptr inbounds nuw %"struct.std::_Vector_base<openmc::TallyDerivative, std::allocator<openmc::TallyDerivative>>::_Vector_impl_data", ptr %_M_impl19, i32 0, i32 0
  store ptr %13, ptr %_M_start20, align 8, !tbaa !41
  %_M_impl21 = getelementptr inbounds nuw %"struct.std::_Vector_base", ptr %this1, i32 0, i32 0
  %_M_start22 = getelementptr inbounds nuw %"struct.std::_Vector_base<openmc::TallyDerivative, std::allocator<openmc::TallyDerivative>>::_Vector_impl_data", ptr %_M_impl21, i32 0, i32 0
  %14 = load ptr, ptr %_M_start22, align 8, !tbaa !41
  %15 = load i64, ptr %__xlen, align 8, !tbaa !39
  %add.ptr = getelementptr inbounds nuw %"struct.openmc::TallyDerivative", ptr %14, i64 %15
  %_M_impl23 = getelementptr inbounds nuw %"struct.std::_Vector_base", ptr %this1, i32 0, i32 0
  %_M_end_of_storage24 = getelementptr inbounds nuw %"struct.std::_Vector_base<openmc::TallyDerivative, std::allocator<openmc::TallyDerivative>>::_Vector_impl_data", ptr %_M_impl23, i32 0, i32 2
  store ptr %add.ptr, ptr %_M_end_of_storage24, align 8, !tbaa !44
  call void @llvm.lifetime.end.p0(i64 8, ptr %__tmp) #3
  br label %if.end69

if.else:                                          ; preds = %if.then
  %call25 = call noundef i64 @_ZNKSt6vectorIN6openmc15TallyDerivativeESaIS1_EE4sizeEv(ptr noundef nonnull align 8 dereferenceable(24) %this1) #3
  %16 = load i64, ptr %__xlen, align 8, !tbaa !39
  %cmp26 = icmp uge i64 %call25, %16
  br i1 %cmp26, label %if.then27, label %if.else49

if.then27:                                        ; preds = %if.else
  %17 = load ptr, ptr %__x.addr, align 8, !tbaa !33
  %call30 = call ptr @_ZNKSt6vectorIN6openmc15TallyDerivativeESaIS1_EE5beginEv(ptr noundef nonnull align 8 dereferenceable(24) %17) #3
  %coerce.dive31 = getelementptr inbounds nuw %"class.__gnu_cxx::__normal_iterator", ptr %agg.tmp29, i32 0, i32 0
  store ptr %call30, ptr %coerce.dive31, align 8
  %18 = load ptr, ptr %__x.addr, align 8, !tbaa !33
  %call33 = call ptr @_ZNKSt6vectorIN6openmc15TallyDerivativeESaIS1_EE3endEv(ptr noundef nonnull align 8 dereferenceable(24) %18) #3
  %coerce.dive34 = getelementptr inbounds nuw %"class.__gnu_cxx::__normal_iterator", ptr %agg.tmp32, i32 0, i32 0
  store ptr %call33, ptr %coerce.dive34, align 8
  %call36 = call ptr @_ZNSt6vectorIN6openmc15TallyDerivativeESaIS1_EE5beginEv(ptr noundef nonnull align 8 dereferenceable(24) %this1) #3
  %coerce.dive37 = getelementptr inbounds nuw %"class.__gnu_cxx::__normal_iterator.1", ptr %agg.tmp35, i32 0, i32 0
  store ptr %call36, ptr %coerce.dive37, align 8
  %coerce.dive38 = getelementptr inbounds nuw %"class.__gnu_cxx::__normal_iterator", ptr %agg.tmp29, i32 0, i32 0
  %19 = load ptr, ptr %coerce.dive38, align 8
  %coerce.dive39 = getelementptr inbounds nuw %"class.__gnu_cxx::__normal_iterator", ptr %agg.tmp32, i32 0, i32 0
  %20 = load ptr, ptr %coerce.dive39, align 8
  %coerce.dive40 = getelementptr inbounds nuw %"class.__gnu_cxx::__normal_iterator.1", ptr %agg.tmp35, i32 0, i32 0
  %21 = load ptr, ptr %coerce.dive40, align 8
  %call41 = call ptr @_ZSt4copyIN9__gnu_cxx17__normal_iteratorIPKN6openmc15TallyDerivativeESt6vectorIS3_SaIS3_EEEENS1_IPS3_S8_EEET0_T_SD_SC_(ptr %19, ptr %20, ptr %21)
  %coerce.dive42 = getelementptr inbounds nuw %"class.__gnu_cxx::__normal_iterator.1", ptr %agg.tmp28, i32 0, i32 0
  store ptr %call41, ptr %coerce.dive42, align 8
  %call44 = call ptr @_ZNSt6vectorIN6openmc15TallyDerivativeESaIS1_EE3endEv(ptr noundef nonnull align 8 dereferenceable(24) %this1) #3
  %coerce.dive45 = getelementptr inbounds nuw %"class.__gnu_cxx::__normal_iterator.1", ptr %agg.tmp43, i32 0, i32 0
  store ptr %call44, ptr %coerce.dive45, align 8
  %call46 = call noundef nonnull align 1 dereferenceable(1) ptr @_ZNSt12_Vector_baseIN6openmc15TallyDerivativeESaIS1_EE19_M_get_Tp_allocatorEv(ptr noundef nonnull align 8 dereferenceable(24) %this1) #3
  %coerce.dive47 = getelementptr inbounds nuw %"class.__gnu_cxx::__normal_iterator.1", ptr %agg.tmp28, i32 0, i32 0
  %22 = load ptr, ptr %coerce.dive47, align 8
  %coerce.dive48 = getelementptr inbounds nuw %"class.__gnu_cxx::__normal_iterator.1", ptr %agg.tmp43, i32 0, i32 0
  %23 = load ptr, ptr %coerce.dive48, align 8
  call void @_ZSt8_DestroyIN9__gnu_cxx17__normal_iteratorIPN6openmc15TallyDerivativeESt6vectorIS3_SaIS3_EEEES3_EvT_S9_RSaIT0_E(ptr %22, ptr %23, ptr noundef nonnull align 1 dereferenceable(1) %call46)
  br label %if.end

if.else49:                                        ; preds = %if.else
  %24 = load ptr, ptr %__x.addr, align 8, !tbaa !33
  %_M_impl50 = getelementptr inbounds nuw %"struct.std::_Vector_base", ptr %24, i32 0, i32 0
  %_M_start51 = getelementptr inbounds nuw %"struct.std::_Vector_base<openmc::TallyDerivative, std::allocator<openmc::TallyDerivative>>::_Vector_impl_data", ptr %_M_impl50, i32 0, i32 0
  %25 = load ptr, ptr %_M_start51, align 8, !tbaa !41
  %26 = load ptr, ptr %__x.addr, align 8, !tbaa !33
  %_M_impl52 = getelementptr inbounds nuw %"struct.std::_Vector_base", ptr %26, i32 0, i32 0
  %_M_start53 = getelementptr inbounds nuw %"struct.std::_Vector_base<openmc::TallyDerivative, std::allocator<openmc::TallyDerivative>>::_Vector_impl_data", ptr %_M_impl52, i32 0, i32 0
  %27 = load ptr, ptr %_M_start53, align 8, !tbaa !41
  %call54 = call noundef i64 @_ZNKSt6vectorIN6openmc15TallyDerivativeESaIS1_EE4sizeEv(ptr noundef nonnull align 8 dereferenceable(24) %this1) #3
  %add.ptr55 = getelementptr inbounds nuw %"struct.openmc::TallyDerivative", ptr %27, i64 %call54
  %_M_impl56 = getelementptr inbounds nuw %"struct.std::_Vector_base", ptr %this1, i32 0, i32 0
  %_M_start57 = getelementptr inbounds nuw %"struct.std::_Vector_base<openmc::TallyDerivative, std::allocator<openmc::TallyDerivative>>::_Vector_impl_data", ptr %_M_impl56, i32 0, i32 0
  %28 = load ptr, ptr %_M_start57, align 8, !tbaa !41
  %call58 = call noundef ptr @_ZSt4copyIPN6openmc15TallyDerivativeES2_ET0_T_S4_S3_(ptr noundef %25, ptr noundef %add.ptr55, ptr noundef %28)
  %29 = load ptr, ptr %__x.addr, align 8, !tbaa !33
  %_M_impl59 = getelementptr inbounds nuw %"struct.std::_Vector_base", ptr %29, i32 0, i32 0
  %_M_start60 = getelementptr inbounds nuw %"struct.std::_Vector_base<openmc::TallyDerivative, std::allocator<openmc::TallyDerivative>>::_Vector_impl_data", ptr %_M_impl59, i32 0, i32 0
  %30 = load ptr, ptr %_M_start60, align 8, !tbaa !41
  %call61 = call noundef i64 @_ZNKSt6vectorIN6openmc15TallyDerivativeESaIS1_EE4sizeEv(ptr noundef nonnull align 8 dereferenceable(24) %this1) #3
  %add.ptr62 = getelementptr inbounds nuw %"struct.openmc::TallyDerivative", ptr %30, i64 %call61
  %31 = load ptr, ptr %__x.addr, align 8, !tbaa !33
  %_M_impl63 = getelementptr inbounds nuw %"struct.std::_Vector_base", ptr %31, i32 0, i32 0
  %_M_finish64 = getelementptr inbounds nuw %"struct.std::_Vector_base<openmc::TallyDerivative, std::allocator<openmc::TallyDerivative>>::_Vector_impl_data", ptr %_M_impl63, i32 0, i32 1
  %32 = load ptr, ptr %_M_finish64, align 8, !tbaa !43
  %_M_impl65 = getelementptr inbounds nuw %"struct.std::_Vector_base", ptr %this1, i32 0, i32 0
  %_M_finish66 = getelementptr inbounds nuw %"struct.std::_Vector_base<openmc::TallyDerivative, std::allocator<openmc::TallyDerivative>>::_Vector_impl_data", ptr %_M_impl65, i32 0, i32 1
  %33 = load ptr, ptr %_M_finish66, align 8, !tbaa !43
  %call67 = call noundef nonnull align 1 dereferenceable(1) ptr @_ZNSt12_Vector_baseIN6openmc15TallyDerivativeESaIS1_EE19_M_get_Tp_allocatorEv(ptr noundef nonnull align 8 dereferenceable(24) %this1) #3
  %call68 = call noundef ptr @_ZSt22__uninitialized_copy_aIPN6openmc15TallyDerivativeES2_S1_ET0_T_S4_S3_RSaIT1_E(ptr noundef %add.ptr62, ptr noundef %32, ptr noundef %33, ptr noundef nonnull align 1 dereferenceable(1) %call67)
  br label %if.end

if.end:                                           ; preds = %if.else49, %if.then27
  br label %if.end69

if.end69:                                         ; preds = %if.end, %if.then4
  %_M_impl70 = getelementptr inbounds nuw %"struct.std::_Vector_base", ptr %this1, i32 0, i32 0
  %_M_start71 = getelementptr inbounds nuw %"struct.std::_Vector_base<openmc::TallyDerivative, std::allocator<openmc::TallyDerivative>>::_Vector_impl_data", ptr %_M_impl70, i32 0, i32 0
  %34 = load ptr, ptr %_M_start71, align 8, !tbaa !41
  %35 = load i64, ptr %__xlen, align 8, !tbaa !39
  %add.ptr72 = getelementptr inbounds nuw %"struct.openmc::TallyDerivative", ptr %34, i64 %35
  %_M_impl73 = getelementptr inbounds nuw %"struct.std::_Vector_base", ptr %this1, i32 0, i32 0
  %_M_finish74 = getelementptr inbounds nuw %"struct.std::_Vector_base<openmc::TallyDerivative, std::allocator<openmc::TallyDerivative>>::_Vector_impl_data", ptr %_M_impl73, i32 0, i32 1
  store ptr %add.ptr72, ptr %_M_finish74, align 8, !tbaa !43
  call void @llvm.lifetime.end.p0(i64 8, ptr %__xlen) #3
  br label %if.end75

if.end75:                                         ; preds = %if.end69, %entry
  ret ptr %this1
}

; Function Attrs: mustprogress nounwind uwtable
define weak_odr noundef i64 @_ZNKSt6vectorIN6openmc15TallyDerivativeESaIS1_EE8capacityEv(ptr noundef nonnull align 8 dereferenceable(24) %this) #4 comdat align 2 {
entry:
  %this.addr = alloca ptr, align 8
  store ptr %this, ptr %this.addr, align 8, !tbaa !33
  %this1 = load ptr, ptr %this.addr, align 8
  %_M_impl = getelementptr inbounds nuw %"struct.std::_Vector_base", ptr %this1, i32 0, i32 0
  %_M_end_of_storage = getelementptr inbounds nuw %"struct.std::_Vector_base<openmc::TallyDerivative, std::allocator<openmc::TallyDerivative>>::_Vector_impl_data", ptr %_M_impl, i32 0, i32 2
  %0 = load ptr, ptr %_M_end_of_storage, align 8, !tbaa !44
  %_M_impl2 = getelementptr inbounds nuw %"struct.std::_Vector_base", ptr %this1, i32 0, i32 0
  %_M_start = getelementptr inbounds nuw %"struct.std::_Vector_base<openmc::TallyDerivative, std::allocator<openmc::TallyDerivative>>::_Vector_impl_data", ptr %_M_impl2, i32 0, i32 0
  %1 = load ptr, ptr %_M_start, align 8, !tbaa !41
  %sub.ptr.lhs.cast = ptrtoint ptr %0 to i64
  %sub.ptr.rhs.cast = ptrtoint ptr %1 to i64
  %sub.ptr.sub = sub i64 %sub.ptr.lhs.cast, %sub.ptr.rhs.cast
  %sub.ptr.div = sdiv exact i64 %sub.ptr.sub, 16
  ret i64 %sub.ptr.div
}

; Function Attrs: mustprogress uwtable
define linkonce_odr noundef ptr @_ZNSt6vectorIN6openmc15TallyDerivativeESaIS1_EE20_M_allocate_and_copyIN9__gnu_cxx17__normal_iteratorIPKS1_S3_EEEEPS1_mT_SB_(ptr noundef nonnull align 8 dereferenceable(24) %this, i64 noundef %__n, ptr %__first.coerce, ptr %__last.coerce) #8 comdat align 2 personality ptr @__gxx_personality_v0 {
entry:
  %__first = alloca %"class.__gnu_cxx::__normal_iterator", align 8
  %__last = alloca %"class.__gnu_cxx::__normal_iterator", align 8
  %this.addr = alloca ptr, align 8
  %__n.addr = alloca i64, align 8
  %__result = alloca ptr, align 8
  %agg.tmp = alloca %"class.__gnu_cxx::__normal_iterator", align 8
  %agg.tmp3 = alloca %"class.__gnu_cxx::__normal_iterator", align 8
  %exn.slot = alloca ptr, align 8
  %ehselector.slot = alloca i32, align 4
  %coerce.dive = getelementptr inbounds nuw %"class.__gnu_cxx::__normal_iterator", ptr %__first, i32 0, i32 0
  store ptr %__first.coerce, ptr %coerce.dive, align 8
  %coerce.dive1 = getelementptr inbounds nuw %"class.__gnu_cxx::__normal_iterator", ptr %__last, i32 0, i32 0
  store ptr %__last.coerce, ptr %coerce.dive1, align 8
  store ptr %this, ptr %this.addr, align 8, !tbaa !33
  store i64 %__n, ptr %__n.addr, align 8, !tbaa !39
  %this2 = load ptr, ptr %this.addr, align 8
  call void @llvm.lifetime.start.p0(i64 8, ptr %__result) #3
  %0 = load i64, ptr %__n.addr, align 8, !tbaa !39
  %call = call noundef ptr @_ZNSt12_Vector_baseIN6openmc15TallyDerivativeESaIS1_EE11_M_allocateEm(ptr noundef nonnull align 8 dereferenceable(24) %this2, i64 noundef %0)
  store ptr %call, ptr %__result, align 8, !tbaa !17
  call void @llvm.memcpy.p0.p0.i64(ptr align 8 %agg.tmp, ptr align 8 %__first, i64 8, i1 false), !tbaa.struct !52
  call void @llvm.memcpy.p0.p0.i64(ptr align 8 %agg.tmp3, ptr align 8 %__last, i64 8, i1 false), !tbaa.struct !52
  %1 = load ptr, ptr %__result, align 8, !tbaa !17
  %call4 = call noundef nonnull align 1 dereferenceable(1) ptr @_ZNSt12_Vector_baseIN6openmc15TallyDerivativeESaIS1_EE19_M_get_Tp_allocatorEv(ptr noundef nonnull align 8 dereferenceable(24) %this2) #3
  %coerce.dive5 = getelementptr inbounds nuw %"class.__gnu_cxx::__normal_iterator", ptr %agg.tmp, i32 0, i32 0
  %2 = load ptr, ptr %coerce.dive5, align 8
  %coerce.dive6 = getelementptr inbounds nuw %"class.__gnu_cxx::__normal_iterator", ptr %agg.tmp3, i32 0, i32 0
  %3 = load ptr, ptr %coerce.dive6, align 8
  %call7 = invoke noundef ptr @_ZSt22__uninitialized_copy_aIN9__gnu_cxx17__normal_iteratorIPKN6openmc15TallyDerivativeESt6vectorIS3_SaIS3_EEEEPS3_S3_ET0_T_SC_SB_RSaIT1_E(ptr %2, ptr %3, ptr noundef %1, ptr noundef nonnull align 1 dereferenceable(1) %call4)
          to label %invoke.cont unwind label %lpad

invoke.cont:                                      ; preds = %entry
  %4 = load ptr, ptr %__result, align 8, !tbaa !17
  call void @llvm.lifetime.end.p0(i64 8, ptr %__result) #3
  ret ptr %4

lpad:                                             ; preds = %entry
  %5 = landingpad { ptr, i32 }
          catch ptr null
  %6 = extractvalue { ptr, i32 } %5, 0
  store ptr %6, ptr %exn.slot, align 8
  %7 = extractvalue { ptr, i32 } %5, 1
  store i32 %7, ptr %ehselector.slot, align 4
  br label %catch

catch:                                            ; preds = %lpad
  %exn = load ptr, ptr %exn.slot, align 8
  %8 = call ptr @__cxa_begin_catch(ptr %exn) #3
  %9 = load ptr, ptr %__result, align 8, !tbaa !17
  %10 = load i64, ptr %__n.addr, align 8, !tbaa !39
  invoke void @_ZNSt12_Vector_baseIN6openmc15TallyDerivativeESaIS1_EE13_M_deallocateEPS1_m(ptr noundef nonnull align 8 dereferenceable(24) %this2, ptr noundef %9, i64 noundef %10)
          to label %invoke.cont9 unwind label %lpad8

invoke.cont9:                                     ; preds = %catch
  invoke void @__cxa_rethrow() #25
          to label %unreachable unwind label %lpad8

lpad8:                                            ; preds = %invoke.cont9, %catch
  %11 = landingpad { ptr, i32 }
          cleanup
  %12 = extractvalue { ptr, i32 } %11, 0
  store ptr %12, ptr %exn.slot, align 8
  %13 = extractvalue { ptr, i32 } %11, 1
  store i32 %13, ptr %ehselector.slot, align 4
  invoke void @__cxa_end_catch()
          to label %invoke.cont10 unwind label %terminate.lpad

invoke.cont10:                                    ; preds = %lpad8
  call void @llvm.lifetime.end.p0(i64 8, ptr %__result) #3
  br label %eh.resume

try.cont:                                         ; No predecessors!
  unreachable

eh.resume:                                        ; preds = %invoke.cont10
  %exn11 = load ptr, ptr %exn.slot, align 8
  %sel = load i32, ptr %ehselector.slot, align 4
  %lpad.val = insertvalue { ptr, i32 } poison, ptr %exn11, 0
  %lpad.val12 = insertvalue { ptr, i32 } %lpad.val, i32 %sel, 1
  resume { ptr, i32 } %lpad.val12

terminate.lpad:                                   ; preds = %lpad8
  %14 = landingpad { ptr, i32 }
          catch ptr null
  %15 = extractvalue { ptr, i32 } %14, 0
  call void @__clang_call_terminate(ptr %15) #26
  unreachable

unreachable:                                      ; preds = %invoke.cont9
  unreachable
}

; Function Attrs: inlinehint mustprogress uwtable
define linkonce_odr void @_ZSt8_DestroyIN9__gnu_cxx17__normal_iteratorIPN6openmc15TallyDerivativeESt6vectorIS3_SaIS3_EEEES3_EvT_S9_RSaIT0_E(ptr %__first.coerce, ptr %__last.coerce, ptr noundef nonnull align 1 dereferenceable(1) %0) #13 comdat {
entry:
  %__first = alloca %"class.__gnu_cxx::__normal_iterator.1", align 8
  %__last = alloca %"class.__gnu_cxx::__normal_iterator.1", align 8
  %.addr = alloca ptr, align 8
  %agg.tmp = alloca %"class.__gnu_cxx::__normal_iterator.1", align 8
  %agg.tmp2 = alloca %"class.__gnu_cxx::__normal_iterator.1", align 8
  %coerce.dive = getelementptr inbounds nuw %"class.__gnu_cxx::__normal_iterator.1", ptr %__first, i32 0, i32 0
  store ptr %__first.coerce, ptr %coerce.dive, align 8
  %coerce.dive1 = getelementptr inbounds nuw %"class.__gnu_cxx::__normal_iterator.1", ptr %__last, i32 0, i32 0
  store ptr %__last.coerce, ptr %coerce.dive1, align 8
  store ptr %0, ptr %.addr, align 8, !tbaa !22
  call void @llvm.memcpy.p0.p0.i64(ptr align 8 %agg.tmp, ptr align 8 %__first, i64 8, i1 false), !tbaa.struct !52
  call void @llvm.memcpy.p0.p0.i64(ptr align 8 %agg.tmp2, ptr align 8 %__last, i64 8, i1 false), !tbaa.struct !52
  %coerce.dive3 = getelementptr inbounds nuw %"class.__gnu_cxx::__normal_iterator.1", ptr %agg.tmp, i32 0, i32 0
  %1 = load ptr, ptr %coerce.dive3, align 8
  %coerce.dive4 = getelementptr inbounds nuw %"class.__gnu_cxx::__normal_iterator.1", ptr %agg.tmp2, i32 0, i32 0
  %2 = load ptr, ptr %coerce.dive4, align 8
  call void @_ZSt8_DestroyIN9__gnu_cxx17__normal_iteratorIPN6openmc15TallyDerivativeESt6vectorIS3_SaIS3_EEEEEvT_S9_(ptr %1, ptr %2)
  ret void
}

; Function Attrs: inlinehint mustprogress uwtable
define linkonce_odr ptr @_ZSt4copyIN9__gnu_cxx17__normal_iteratorIPKN6openmc15TallyDerivativeESt6vectorIS3_SaIS3_EEEENS1_IPS3_S8_EEET0_T_SD_SC_(ptr %__first.coerce, ptr %__last.coerce, ptr %__result.coerce) #13 comdat {
entry:
  %retval = alloca %"class.__gnu_cxx::__normal_iterator.1", align 8
  %__first = alloca %"class.__gnu_cxx::__normal_iterator", align 8
  %__last = alloca %"class.__gnu_cxx::__normal_iterator", align 8
  %__result = alloca %"class.__gnu_cxx::__normal_iterator.1", align 8
  %agg.tmp = alloca %"class.__gnu_cxx::__normal_iterator", align 8
  %agg.tmp3 = alloca %"class.__gnu_cxx::__normal_iterator", align 8
  %agg.tmp6 = alloca %"class.__gnu_cxx::__normal_iterator", align 8
  %agg.tmp7 = alloca %"class.__gnu_cxx::__normal_iterator", align 8
  %agg.tmp11 = alloca %"class.__gnu_cxx::__normal_iterator.1", align 8
  %coerce.dive = getelementptr inbounds nuw %"class.__gnu_cxx::__normal_iterator", ptr %__first, i32 0, i32 0
  store ptr %__first.coerce, ptr %coerce.dive, align 8
  %coerce.dive1 = getelementptr inbounds nuw %"class.__gnu_cxx::__normal_iterator", ptr %__last, i32 0, i32 0
  store ptr %__last.coerce, ptr %coerce.dive1, align 8
  %coerce.dive2 = getelementptr inbounds nuw %"class.__gnu_cxx::__normal_iterator.1", ptr %__result, i32 0, i32 0
  store ptr %__result.coerce, ptr %coerce.dive2, align 8
  call void @llvm.memcpy.p0.p0.i64(ptr align 8 %agg.tmp3, ptr align 8 %__first, i64 8, i1 false), !tbaa.struct !52
  %coerce.dive4 = getelementptr inbounds nuw %"class.__gnu_cxx::__normal_iterator", ptr %agg.tmp3, i32 0, i32 0
  %0 = load ptr, ptr %coerce.dive4, align 8
  %call = call ptr @_ZSt12__miter_baseIN9__gnu_cxx17__normal_iteratorIPKN6openmc15TallyDerivativeESt6vectorIS3_SaIS3_EEEEET_SA_(ptr %0)
  %coerce.dive5 = getelementptr inbounds nuw %"class.__gnu_cxx::__normal_iterator", ptr %agg.tmp, i32 0, i32 0
  store ptr %call, ptr %coerce.dive5, align 8
  call void @llvm.memcpy.p0.p0.i64(ptr align 8 %agg.tmp7, ptr align 8 %__last, i64 8, i1 false), !tbaa.struct !52
  %coerce.dive8 = getelementptr inbounds nuw %"class.__gnu_cxx::__normal_iterator", ptr %agg.tmp7, i32 0, i32 0
  %1 = load ptr, ptr %coerce.dive8, align 8
  %call9 = call ptr @_ZSt12__miter_baseIN9__gnu_cxx17__normal_iteratorIPKN6openmc15TallyDerivativeESt6vectorIS3_SaIS3_EEEEET_SA_(ptr %1)
  %coerce.dive10 = getelementptr inbounds nuw %"class.__gnu_cxx::__normal_iterator", ptr %agg.tmp6, i32 0, i32 0
  store ptr %call9, ptr %coerce.dive10, align 8
  call void @llvm.memcpy.p0.p0.i64(ptr align 8 %agg.tmp11, ptr align 8 %__result, i64 8, i1 false), !tbaa.struct !52
  %coerce.dive12 = getelementptr inbounds nuw %"class.__gnu_cxx::__normal_iterator", ptr %agg.tmp, i32 0, i32 0
  %2 = load ptr, ptr %coerce.dive12, align 8
  %coerce.dive13 = getelementptr inbounds nuw %"class.__gnu_cxx::__normal_iterator", ptr %agg.tmp6, i32 0, i32 0
  %3 = load ptr, ptr %coerce.dive13, align 8
  %coerce.dive14 = getelementptr inbounds nuw %"class.__gnu_cxx::__normal_iterator.1", ptr %agg.tmp11, i32 0, i32 0
  %4 = load ptr, ptr %coerce.dive14, align 8
  %call15 = call ptr @_ZSt13__copy_move_aILb0EN9__gnu_cxx17__normal_iteratorIPKN6openmc15TallyDerivativeESt6vectorIS3_SaIS3_EEEENS1_IPS3_S8_EEET1_T0_SD_SC_(ptr %2, ptr %3, ptr %4)
  %coerce.dive16 = getelementptr inbounds nuw %"class.__gnu_cxx::__normal_iterator.1", ptr %retval, i32 0, i32 0
  store ptr %call15, ptr %coerce.dive16, align 8
  %coerce.dive17 = getelementptr inbounds nuw %"class.__gnu_cxx::__normal_iterator.1", ptr %retval, i32 0, i32 0
  %5 = load ptr, ptr %coerce.dive17, align 8
  ret ptr %5
}

; Function Attrs: inlinehint mustprogress uwtable
define linkonce_odr noundef ptr @_ZSt4copyIPN6openmc15TallyDerivativeES2_ET0_T_S4_S3_(ptr noundef %__first, ptr noundef %__last, ptr noundef %__result) #13 comdat {
entry:
  %__first.addr = alloca ptr, align 8
  %__last.addr = alloca ptr, align 8
  %__result.addr = alloca ptr, align 8
  store ptr %__first, ptr %__first.addr, align 8, !tbaa !17
  store ptr %__last, ptr %__last.addr, align 8, !tbaa !17
  store ptr %__result, ptr %__result.addr, align 8, !tbaa !17
  %0 = load ptr, ptr %__first.addr, align 8, !tbaa !17
  %call = call noundef ptr @_ZSt12__miter_baseIPN6openmc15TallyDerivativeEET_S3_(ptr noundef %0)
  %1 = load ptr, ptr %__last.addr, align 8, !tbaa !17
  %call1 = call noundef ptr @_ZSt12__miter_baseIPN6openmc15TallyDerivativeEET_S3_(ptr noundef %1)
  %2 = load ptr, ptr %__result.addr, align 8, !tbaa !17
  %call2 = call noundef ptr @_ZSt13__copy_move_aILb0EPN6openmc15TallyDerivativeES2_ET1_T0_S4_S3_(ptr noundef %call, ptr noundef %call1, ptr noundef %2)
  ret ptr %call2
}

; Function Attrs: inlinehint mustprogress uwtable
define linkonce_odr noundef ptr @_ZSt22__uninitialized_copy_aIPN6openmc15TallyDerivativeES2_S1_ET0_T_S4_S3_RSaIT1_E(ptr noundef %__first, ptr noundef %__last, ptr noundef %__result, ptr noundef nonnull align 1 dereferenceable(1) %0) #13 comdat {
entry:
  %__first.addr = alloca ptr, align 8
  %__last.addr = alloca ptr, align 8
  %__result.addr = alloca ptr, align 8
  %.addr = alloca ptr, align 8
  store ptr %__first, ptr %__first.addr, align 8, !tbaa !17
  store ptr %__last, ptr %__last.addr, align 8, !tbaa !17
  store ptr %__result, ptr %__result.addr, align 8, !tbaa !17
  store ptr %0, ptr %.addr, align 8, !tbaa !22
  %1 = load ptr, ptr %__first.addr, align 8, !tbaa !17
  %2 = load ptr, ptr %__last.addr, align 8, !tbaa !17
  %3 = load ptr, ptr %__result.addr, align 8, !tbaa !17
  %call = call noundef ptr @_ZSt18uninitialized_copyIPN6openmc15TallyDerivativeES2_ET0_T_S4_S3_(ptr noundef %1, ptr noundef %2, ptr noundef %3)
  ret ptr %call
}

; Function Attrs: inlinehint mustprogress uwtable
define linkonce_odr void @_ZSt8_DestroyIN9__gnu_cxx17__normal_iteratorIPN6openmc15TallyDerivativeESt6vectorIS3_SaIS3_EEEEEvT_S9_(ptr %__first.coerce, ptr %__last.coerce) #13 comdat {
entry:
  %__first = alloca %"class.__gnu_cxx::__normal_iterator.1", align 8
  %__last = alloca %"class.__gnu_cxx::__normal_iterator.1", align 8
  %agg.tmp = alloca %"class.__gnu_cxx::__normal_iterator.1", align 8
  %agg.tmp2 = alloca %"class.__gnu_cxx::__normal_iterator.1", align 8
  %coerce.dive = getelementptr inbounds nuw %"class.__gnu_cxx::__normal_iterator.1", ptr %__first, i32 0, i32 0
  store ptr %__first.coerce, ptr %coerce.dive, align 8
  %coerce.dive1 = getelementptr inbounds nuw %"class.__gnu_cxx::__normal_iterator.1", ptr %__last, i32 0, i32 0
  store ptr %__last.coerce, ptr %coerce.dive1, align 8
  call void @llvm.memcpy.p0.p0.i64(ptr align 8 %agg.tmp, ptr align 8 %__first, i64 8, i1 false), !tbaa.struct !52
  call void @llvm.memcpy.p0.p0.i64(ptr align 8 %agg.tmp2, ptr align 8 %__last, i64 8, i1 false), !tbaa.struct !52
  %coerce.dive3 = getelementptr inbounds nuw %"class.__gnu_cxx::__normal_iterator.1", ptr %agg.tmp, i32 0, i32 0
  %0 = load ptr, ptr %coerce.dive3, align 8
  %coerce.dive4 = getelementptr inbounds nuw %"class.__gnu_cxx::__normal_iterator.1", ptr %agg.tmp2, i32 0, i32 0
  %1 = load ptr, ptr %coerce.dive4, align 8
  call void @_ZNSt12_Destroy_auxILb1EE9__destroyIN9__gnu_cxx17__normal_iteratorIPN6openmc15TallyDerivativeESt6vectorIS5_SaIS5_EEEEEEvT_SB_(ptr %0, ptr %1)
  ret void
}

; Function Attrs: mustprogress nounwind uwtable
define linkonce_odr void @_ZNSt12_Destroy_auxILb1EE9__destroyIN9__gnu_cxx17__normal_iteratorIPN6openmc15TallyDerivativeESt6vectorIS5_SaIS5_EEEEEEvT_SB_(ptr %.coerce, ptr %.coerce1) #4 comdat align 2 {
entry:
  %0 = alloca %"class.__gnu_cxx::__normal_iterator.1", align 8
  %1 = alloca %"class.__gnu_cxx::__normal_iterator.1", align 8
  %coerce.dive = getelementptr inbounds nuw %"class.__gnu_cxx::__normal_iterator.1", ptr %0, i32 0, i32 0
  store ptr %.coerce, ptr %coerce.dive, align 8
  %coerce.dive2 = getelementptr inbounds nuw %"class.__gnu_cxx::__normal_iterator.1", ptr %1, i32 0, i32 0
  store ptr %.coerce1, ptr %coerce.dive2, align 8
  ret void
}

; Function Attrs: inlinehint mustprogress uwtable
define linkonce_odr ptr @_ZSt13__copy_move_aILb0EN9__gnu_cxx17__normal_iteratorIPKN6openmc15TallyDerivativeESt6vectorIS3_SaIS3_EEEENS1_IPS3_S8_EEET1_T0_SD_SC_(ptr %__first.coerce, ptr %__last.coerce, ptr %__result.coerce) #13 comdat {
entry:
  %retval = alloca %"class.__gnu_cxx::__normal_iterator.1", align 8
  %__first = alloca %"class.__gnu_cxx::__normal_iterator", align 8
  %__last = alloca %"class.__gnu_cxx::__normal_iterator", align 8
  %__result = alloca %"class.__gnu_cxx::__normal_iterator.1", align 8
  %agg.tmp = alloca %"class.__gnu_cxx::__normal_iterator.1", align 8
  %agg.tmp3 = alloca %"class.__gnu_cxx::__normal_iterator", align 8
  %agg.tmp5 = alloca %"class.__gnu_cxx::__normal_iterator", align 8
  %agg.tmp8 = alloca %"class.__gnu_cxx::__normal_iterator.1", align 8
  %coerce.dive = getelementptr inbounds nuw %"class.__gnu_cxx::__normal_iterator", ptr %__first, i32 0, i32 0
  store ptr %__first.coerce, ptr %coerce.dive, align 8
  %coerce.dive1 = getelementptr inbounds nuw %"class.__gnu_cxx::__normal_iterator", ptr %__last, i32 0, i32 0
  store ptr %__last.coerce, ptr %coerce.dive1, align 8
  %coerce.dive2 = getelementptr inbounds nuw %"class.__gnu_cxx::__normal_iterator.1", ptr %__result, i32 0, i32 0
  store ptr %__result.coerce, ptr %coerce.dive2, align 8
  call void @llvm.memcpy.p0.p0.i64(ptr align 8 %agg.tmp, ptr align 8 %__result, i64 8, i1 false), !tbaa.struct !52
  call void @llvm.memcpy.p0.p0.i64(ptr align 8 %agg.tmp3, ptr align 8 %__first, i64 8, i1 false), !tbaa.struct !52
  %coerce.dive4 = getelementptr inbounds nuw %"class.__gnu_cxx::__normal_iterator", ptr %agg.tmp3, i32 0, i32 0
  %0 = load ptr, ptr %coerce.dive4, align 8
  %call = call noundef ptr @_ZSt12__niter_baseIPKN6openmc15TallyDerivativeESt6vectorIS1_SaIS1_EEET_N9__gnu_cxx17__normal_iteratorIS7_T0_EE(ptr %0) #3
  call void @llvm.memcpy.p0.p0.i64(ptr align 8 %agg.tmp5, ptr align 8 %__last, i64 8, i1 false), !tbaa.struct !52
  %coerce.dive6 = getelementptr inbounds nuw %"class.__gnu_cxx::__normal_iterator", ptr %agg.tmp5, i32 0, i32 0
  %1 = load ptr, ptr %coerce.dive6, align 8
  %call7 = call noundef ptr @_ZSt12__niter_baseIPKN6openmc15TallyDerivativeESt6vectorIS1_SaIS1_EEET_N9__gnu_cxx17__normal_iteratorIS7_T0_EE(ptr %1) #3
  call void @llvm.memcpy.p0.p0.i64(ptr align 8 %agg.tmp8, ptr align 8 %__result, i64 8, i1 false), !tbaa.struct !52
  %coerce.dive9 = getelementptr inbounds nuw %"class.__gnu_cxx::__normal_iterator.1", ptr %agg.tmp8, i32 0, i32 0
  %2 = load ptr, ptr %coerce.dive9, align 8
  %call10 = call noundef ptr @_ZSt12__niter_baseIPN6openmc15TallyDerivativeESt6vectorIS1_SaIS1_EEET_N9__gnu_cxx17__normal_iteratorIS6_T0_EE(ptr %2) #3
  %call11 = call noundef ptr @_ZSt14__copy_move_a1ILb0EPKN6openmc15TallyDerivativeEPS1_ET1_T0_S6_S5_(ptr noundef %call, ptr noundef %call7, ptr noundef %call10)
  %coerce.dive12 = getelementptr inbounds nuw %"class.__gnu_cxx::__normal_iterator.1", ptr %agg.tmp, i32 0, i32 0
  %3 = load ptr, ptr %coerce.dive12, align 8
  %call13 = call ptr @_ZSt12__niter_wrapIN9__gnu_cxx17__normal_iteratorIPN6openmc15TallyDerivativeESt6vectorIS3_SaIS3_EEEES4_ET_S9_T0_(ptr %3, ptr noundef %call11)
  %coerce.dive14 = getelementptr inbounds nuw %"class.__gnu_cxx::__normal_iterator.1", ptr %retval, i32 0, i32 0
  store ptr %call13, ptr %coerce.dive14, align 8
  %coerce.dive15 = getelementptr inbounds nuw %"class.__gnu_cxx::__normal_iterator.1", ptr %retval, i32 0, i32 0
  %4 = load ptr, ptr %coerce.dive15, align 8
  ret ptr %4
}

; Function Attrs: inlinehint mustprogress nounwind uwtable
define linkonce_odr ptr @_ZSt12__miter_baseIN9__gnu_cxx17__normal_iteratorIPKN6openmc15TallyDerivativeESt6vectorIS3_SaIS3_EEEEET_SA_(ptr %__it.coerce) #6 comdat {
entry:
  %retval = alloca %"class.__gnu_cxx::__normal_iterator", align 8
  %__it = alloca %"class.__gnu_cxx::__normal_iterator", align 8
  %coerce.dive = getelementptr inbounds nuw %"class.__gnu_cxx::__normal_iterator", ptr %__it, i32 0, i32 0
  store ptr %__it.coerce, ptr %coerce.dive, align 8
  call void @llvm.memcpy.p0.p0.i64(ptr align 8 %retval, ptr align 8 %__it, i64 8, i1 false), !tbaa.struct !52
  %coerce.dive1 = getelementptr inbounds nuw %"class.__gnu_cxx::__normal_iterator", ptr %retval, i32 0, i32 0
  %0 = load ptr, ptr %coerce.dive1, align 8
  ret ptr %0
}

; Function Attrs: inlinehint mustprogress nounwind uwtable
define linkonce_odr ptr @_ZSt12__niter_wrapIN9__gnu_cxx17__normal_iteratorIPN6openmc15TallyDerivativeESt6vectorIS3_SaIS3_EEEES4_ET_S9_T0_(ptr %__from.coerce, ptr noundef %__res) #6 comdat {
entry:
  %retval = alloca %"class.__gnu_cxx::__normal_iterator.1", align 8
  %__from = alloca %"class.__gnu_cxx::__normal_iterator.1", align 8
  %__res.addr = alloca ptr, align 8
  %agg.tmp = alloca %"class.__gnu_cxx::__normal_iterator.1", align 8
  %coerce.dive = getelementptr inbounds nuw %"class.__gnu_cxx::__normal_iterator.1", ptr %__from, i32 0, i32 0
  store ptr %__from.coerce, ptr %coerce.dive, align 8
  store ptr %__res, ptr %__res.addr, align 8, !tbaa !17
  %0 = load ptr, ptr %__res.addr, align 8, !tbaa !17
  call void @llvm.memcpy.p0.p0.i64(ptr align 8 %agg.tmp, ptr align 8 %__from, i64 8, i1 false), !tbaa.struct !52
  %coerce.dive1 = getelementptr inbounds nuw %"class.__gnu_cxx::__normal_iterator.1", ptr %agg.tmp, i32 0, i32 0
  %1 = load ptr, ptr %coerce.dive1, align 8
  %call = call noundef ptr @_ZSt12__niter_baseIPN6openmc15TallyDerivativeESt6vectorIS1_SaIS1_EEET_N9__gnu_cxx17__normal_iteratorIS6_T0_EE(ptr %1) #3
  %sub.ptr.lhs.cast = ptrtoint ptr %0 to i64
  %sub.ptr.rhs.cast = ptrtoint ptr %call to i64
  %sub.ptr.sub = sub i64 %sub.ptr.lhs.cast, %sub.ptr.rhs.cast
  %sub.ptr.div = sdiv exact i64 %sub.ptr.sub, 16
  %call2 = call ptr @_ZNK9__gnu_cxx17__normal_iteratorIPN6openmc15TallyDerivativeESt6vectorIS2_SaIS2_EEEplEl(ptr noundef nonnull align 8 dereferenceable(8) %__from, i64 noundef %sub.ptr.div) #3
  %coerce.dive3 = getelementptr inbounds nuw %"class.__gnu_cxx::__normal_iterator.1", ptr %retval, i32 0, i32 0
  store ptr %call2, ptr %coerce.dive3, align 8
  %coerce.dive4 = getelementptr inbounds nuw %"class.__gnu_cxx::__normal_iterator.1", ptr %retval, i32 0, i32 0
  %2 = load ptr, ptr %coerce.dive4, align 8
  ret ptr %2
}

; Function Attrs: inlinehint mustprogress uwtable
define linkonce_odr noundef ptr @_ZSt14__copy_move_a1ILb0EPKN6openmc15TallyDerivativeEPS1_ET1_T0_S6_S5_(ptr noundef %__first, ptr noundef %__last, ptr noundef %__result) #13 comdat {
entry:
  %__first.addr = alloca ptr, align 8
  %__last.addr = alloca ptr, align 8
  %__result.addr = alloca ptr, align 8
  store ptr %__first, ptr %__first.addr, align 8, !tbaa !17
  store ptr %__last, ptr %__last.addr, align 8, !tbaa !17
  store ptr %__result, ptr %__result.addr, align 8, !tbaa !17
  %0 = load ptr, ptr %__first.addr, align 8, !tbaa !17
  %1 = load ptr, ptr %__last.addr, align 8, !tbaa !17
  %2 = load ptr, ptr %__result.addr, align 8, !tbaa !17
  %call = call noundef ptr @_ZSt14__copy_move_a2ILb0EPKN6openmc15TallyDerivativeEPS1_ET1_T0_S6_S5_(ptr noundef %0, ptr noundef %1, ptr noundef %2)
  ret ptr %call
}

; Function Attrs: mustprogress nounwind uwtable
define linkonce_odr noundef ptr @_ZSt12__niter_baseIPKN6openmc15TallyDerivativeESt6vectorIS1_SaIS1_EEET_N9__gnu_cxx17__normal_iteratorIS7_T0_EE(ptr %__it.coerce) #4 comdat {
entry:
  %__it = alloca %"class.__gnu_cxx::__normal_iterator", align 8
  %coerce.dive = getelementptr inbounds nuw %"class.__gnu_cxx::__normal_iterator", ptr %__it, i32 0, i32 0
  store ptr %__it.coerce, ptr %coerce.dive, align 8
  %call = call noundef nonnull align 8 dereferenceable(8) ptr @_ZNK9__gnu_cxx17__normal_iteratorIPKN6openmc15TallyDerivativeESt6vectorIS2_SaIS2_EEE4baseEv(ptr noundef nonnull align 8 dereferenceable(8) %__it) #3
  %0 = load ptr, ptr %call, align 8, !tbaa !17
  ret ptr %0
}

; Function Attrs: mustprogress nounwind uwtable
define linkonce_odr noundef ptr @_ZSt12__niter_baseIPN6openmc15TallyDerivativeESt6vectorIS1_SaIS1_EEET_N9__gnu_cxx17__normal_iteratorIS6_T0_EE(ptr %__it.coerce) #4 comdat {
entry:
  %__it = alloca %"class.__gnu_cxx::__normal_iterator.1", align 8
  %coerce.dive = getelementptr inbounds nuw %"class.__gnu_cxx::__normal_iterator.1", ptr %__it, i32 0, i32 0
  store ptr %__it.coerce, ptr %coerce.dive, align 8
  %call = call noundef nonnull align 8 dereferenceable(8) ptr @_ZNK9__gnu_cxx17__normal_iteratorIPN6openmc15TallyDerivativeESt6vectorIS2_SaIS2_EEE4baseEv(ptr noundef nonnull align 8 dereferenceable(8) %__it) #3
  %0 = load ptr, ptr %call, align 8, !tbaa !17
  ret ptr %0
}

; Function Attrs: mustprogress nounwind uwtable
define linkonce_odr ptr @_ZNK9__gnu_cxx17__normal_iteratorIPN6openmc15TallyDerivativeESt6vectorIS2_SaIS2_EEEplEl(ptr noundef nonnull align 8 dereferenceable(8) %this, i64 noundef %__n) #4 comdat align 2 {
entry:
  %retval = alloca %"class.__gnu_cxx::__normal_iterator.1", align 8
  %this.addr = alloca ptr, align 8
  %__n.addr = alloca i64, align 8
  %ref.tmp = alloca ptr, align 8
  store ptr %this, ptr %this.addr, align 8, !tbaa !66
  store i64 %__n, ptr %__n.addr, align 8, !tbaa !39
  %this1 = load ptr, ptr %this.addr, align 8
  call void @llvm.lifetime.start.p0(i64 8, ptr %ref.tmp) #3
  %_M_current = getelementptr inbounds nuw %"class.__gnu_cxx::__normal_iterator.1", ptr %this1, i32 0, i32 0
  %0 = load ptr, ptr %_M_current, align 8, !tbaa !68
  %1 = load i64, ptr %__n.addr, align 8, !tbaa !39
  %add.ptr = getelementptr inbounds %"struct.openmc::TallyDerivative", ptr %0, i64 %1
  store ptr %add.ptr, ptr %ref.tmp, align 8, !tbaa !17
  call void @_ZN9__gnu_cxx17__normal_iteratorIPN6openmc15TallyDerivativeESt6vectorIS2_SaIS2_EEEC2ERKS3_(ptr noundef nonnull align 8 dereferenceable(8) %retval, ptr noundef nonnull align 8 dereferenceable(8) %ref.tmp) #3
  call void @llvm.lifetime.end.p0(i64 8, ptr %ref.tmp) #3
  %coerce.dive = getelementptr inbounds nuw %"class.__gnu_cxx::__normal_iterator.1", ptr %retval, i32 0, i32 0
  %2 = load ptr, ptr %coerce.dive, align 8
  ret ptr %2
}

; Function Attrs: inlinehint mustprogress uwtable
define linkonce_odr noundef ptr @_ZSt14__copy_move_a2ILb0EPKN6openmc15TallyDerivativeEPS1_ET1_T0_S6_S5_(ptr noundef %__first, ptr noundef %__last, ptr noundef %__result) #13 comdat {
entry:
  %__first.addr = alloca ptr, align 8
  %__last.addr = alloca ptr, align 8
  %__result.addr = alloca ptr, align 8
  store ptr %__first, ptr %__first.addr, align 8, !tbaa !17
  store ptr %__last, ptr %__last.addr, align 8, !tbaa !17
  store ptr %__result, ptr %__result.addr, align 8, !tbaa !17
  %0 = load ptr, ptr %__first.addr, align 8, !tbaa !17
  %1 = load ptr, ptr %__last.addr, align 8, !tbaa !17
  %2 = load ptr, ptr %__result.addr, align 8, !tbaa !17
  %call = call noundef ptr @_ZNSt11__copy_moveILb0ELb1ESt26random_access_iterator_tagE8__copy_mIN6openmc15TallyDerivativeEEEPT_PKS5_S8_S6_(ptr noundef %0, ptr noundef %1, ptr noundef %2)
  ret ptr %call
}

; Function Attrs: mustprogress nounwind uwtable
define linkonce_odr noundef ptr @_ZNSt11__copy_moveILb0ELb1ESt26random_access_iterator_tagE8__copy_mIN6openmc15TallyDerivativeEEEPT_PKS5_S8_S6_(ptr noundef %__first, ptr noundef %__last, ptr noundef %__result) #4 comdat align 2 {
entry:
  %__first.addr = alloca ptr, align 8
  %__last.addr = alloca ptr, align 8
  %__result.addr = alloca ptr, align 8
  %_Num = alloca i64, align 8
  store ptr %__first, ptr %__first.addr, align 8, !tbaa !17
  store ptr %__last, ptr %__last.addr, align 8, !tbaa !17
  store ptr %__result, ptr %__result.addr, align 8, !tbaa !17
  call void @llvm.lifetime.start.p0(i64 8, ptr %_Num) #3
  %0 = load ptr, ptr %__last.addr, align 8, !tbaa !17
  %1 = load ptr, ptr %__first.addr, align 8, !tbaa !17
  %sub.ptr.lhs.cast = ptrtoint ptr %0 to i64
  %sub.ptr.rhs.cast = ptrtoint ptr %1 to i64
  %sub.ptr.sub = sub i64 %sub.ptr.lhs.cast, %sub.ptr.rhs.cast
  %sub.ptr.div = sdiv exact i64 %sub.ptr.sub, 16
  store i64 %sub.ptr.div, ptr %_Num, align 8, !tbaa !39
  %2 = load i64, ptr %_Num, align 8, !tbaa !39
  %tobool = icmp ne i64 %2, 0
  br i1 %tobool, label %if.then, label %if.end

if.then:                                          ; preds = %entry
  %3 = load ptr, ptr %__result.addr, align 8, !tbaa !17
  %4 = load ptr, ptr %__first.addr, align 8, !tbaa !17
  %5 = load i64, ptr %_Num, align 8, !tbaa !39
  %mul = mul i64 16, %5
  call void @llvm.memmove.p0.p0.i64(ptr align 4 %3, ptr align 4 %4, i64 %mul, i1 false)
  br label %if.end

if.end:                                           ; preds = %if.then, %entry
  %6 = load ptr, ptr %__result.addr, align 8, !tbaa !17
  %7 = load i64, ptr %_Num, align 8, !tbaa !39
  %add.ptr = getelementptr inbounds %"struct.openmc::TallyDerivative", ptr %6, i64 %7
  call void @llvm.lifetime.end.p0(i64 8, ptr %_Num) #3
  ret ptr %add.ptr
}

; Function Attrs: nocallback nofree nounwind willreturn memory(argmem: readwrite)
declare void @llvm.memmove.p0.p0.i64(ptr writeonly captures(none), ptr readonly captures(none), i64, i1 immarg) #7

; Function Attrs: inlinehint mustprogress uwtable
define linkonce_odr noundef ptr @_ZSt13__copy_move_aILb0EPN6openmc15TallyDerivativeES2_ET1_T0_S4_S3_(ptr noundef %__first, ptr noundef %__last, ptr noundef %__result) #13 comdat {
entry:
  %__first.addr = alloca ptr, align 8
  %__last.addr = alloca ptr, align 8
  %__result.addr = alloca ptr, align 8
  store ptr %__first, ptr %__first.addr, align 8, !tbaa !17
  store ptr %__last, ptr %__last.addr, align 8, !tbaa !17
  store ptr %__result, ptr %__result.addr, align 8, !tbaa !17
  %0 = load ptr, ptr %__first.addr, align 8, !tbaa !17
  %call = call noundef ptr @_ZSt12__niter_baseIPN6openmc15TallyDerivativeEET_S3_(ptr noundef %0) #3
  %1 = load ptr, ptr %__last.addr, align 8, !tbaa !17
  %call1 = call noundef ptr @_ZSt12__niter_baseIPN6openmc15TallyDerivativeEET_S3_(ptr noundef %1) #3
  %2 = load ptr, ptr %__result.addr, align 8, !tbaa !17
  %call2 = call noundef ptr @_ZSt12__niter_baseIPN6openmc15TallyDerivativeEET_S3_(ptr noundef %2) #3
  %call3 = call noundef ptr @_ZSt14__copy_move_a1ILb0EPN6openmc15TallyDerivativeES2_ET1_T0_S4_S3_(ptr noundef %call, ptr noundef %call1, ptr noundef %call2)
  %call4 = call noundef ptr @_ZSt12__niter_wrapIPN6openmc15TallyDerivativeEET_RKS3_S3_(ptr noundef nonnull align 8 dereferenceable(8) %__result.addr, ptr noundef %call3)
  ret ptr %call4
}

; Function Attrs: inlinehint mustprogress nounwind uwtable
define linkonce_odr noundef ptr @_ZSt12__miter_baseIPN6openmc15TallyDerivativeEET_S3_(ptr noundef %__it) #6 comdat {
entry:
  %__it.addr = alloca ptr, align 8
  store ptr %__it, ptr %__it.addr, align 8, !tbaa !17
  %0 = load ptr, ptr %__it.addr, align 8, !tbaa !17
  ret ptr %0
}

; Function Attrs: inlinehint mustprogress nounwind uwtable
define linkonce_odr noundef ptr @_ZSt12__niter_wrapIPN6openmc15TallyDerivativeEET_RKS3_S3_(ptr noundef nonnull align 8 dereferenceable(8) %0, ptr noundef %__res) #6 comdat {
entry:
  %.addr = alloca ptr, align 8
  %__res.addr = alloca ptr, align 8
  store ptr %0, ptr %.addr, align 8, !tbaa !58
  store ptr %__res, ptr %__res.addr, align 8, !tbaa !17
  %1 = load ptr, ptr %__res.addr, align 8, !tbaa !17
  ret ptr %1
}

; Function Attrs: inlinehint mustprogress uwtable
define linkonce_odr noundef ptr @_ZSt14__copy_move_a1ILb0EPN6openmc15TallyDerivativeES2_ET1_T0_S4_S3_(ptr noundef %__first, ptr noundef %__last, ptr noundef %__result) #13 comdat {
entry:
  %__first.addr = alloca ptr, align 8
  %__last.addr = alloca ptr, align 8
  %__result.addr = alloca ptr, align 8
  store ptr %__first, ptr %__first.addr, align 8, !tbaa !17
  store ptr %__last, ptr %__last.addr, align 8, !tbaa !17
  store ptr %__result, ptr %__result.addr, align 8, !tbaa !17
  %0 = load ptr, ptr %__first.addr, align 8, !tbaa !17
  %1 = load ptr, ptr %__last.addr, align 8, !tbaa !17
  %2 = load ptr, ptr %__result.addr, align 8, !tbaa !17
  %call = call noundef ptr @_ZSt14__copy_move_a2ILb0EPN6openmc15TallyDerivativeES2_ET1_T0_S4_S3_(ptr noundef %0, ptr noundef %1, ptr noundef %2)
  ret ptr %call
}

; Function Attrs: inlinehint mustprogress nounwind uwtable
define linkonce_odr noundef ptr @_ZSt14__copy_move_a2ILb0EPN6openmc15TallyDerivativeES2_ET1_T0_S4_S3_(ptr noundef %__first, ptr noundef %__last, ptr noundef %__result) #6 comdat {
entry:
  %__first.addr = alloca ptr, align 8
  %__last.addr = alloca ptr, align 8
  %__result.addr = alloca ptr, align 8
  store ptr %__first, ptr %__first.addr, align 8, !tbaa !17
  store ptr %__last, ptr %__last.addr, align 8, !tbaa !17
  store ptr %__result, ptr %__result.addr, align 8, !tbaa !17
  %0 = load ptr, ptr %__first.addr, align 8, !tbaa !17
  %1 = load ptr, ptr %__last.addr, align 8, !tbaa !17
  %2 = load ptr, ptr %__result.addr, align 8, !tbaa !17
  %call = call noundef ptr @_ZNSt11__copy_moveILb0ELb1ESt26random_access_iterator_tagE8__copy_mIN6openmc15TallyDerivativeEEEPT_PKS5_S8_S6_(ptr noundef %0, ptr noundef %1, ptr noundef %2)
  ret ptr %call
}

; Function Attrs: inlinehint mustprogress uwtable
define linkonce_odr noundef ptr @_ZSt18uninitialized_copyIPN6openmc15TallyDerivativeES2_ET0_T_S4_S3_(ptr noundef %__first, ptr noundef %__last, ptr noundef %__result) #13 comdat {
entry:
  %__first.addr = alloca ptr, align 8
  %__last.addr = alloca ptr, align 8
  %__result.addr = alloca ptr, align 8
  %__can_memmove = alloca i8, align 1
  %__assignable = alloca i8, align 1
  store ptr %__first, ptr %__first.addr, align 8, !tbaa !17
  store ptr %__last, ptr %__last.addr, align 8, !tbaa !17
  store ptr %__result, ptr %__result.addr, align 8, !tbaa !17
  call void @llvm.lifetime.start.p0(i64 1, ptr %__can_memmove) #3
  store i8 0, ptr %__can_memmove, align 1, !tbaa !48
  call void @llvm.lifetime.start.p0(i64 1, ptr %__assignable) #3
  store i8 0, ptr %__assignable, align 1, !tbaa !48
  %0 = load ptr, ptr %__first.addr, align 8, !tbaa !17
  %1 = load ptr, ptr %__last.addr, align 8, !tbaa !17
  %2 = load ptr, ptr %__result.addr, align 8, !tbaa !17
  %call = call noundef ptr @_ZNSt20__uninitialized_copyILb0EE13__uninit_copyIPN6openmc15TallyDerivativeES4_EET0_T_S6_S5_(ptr noundef %0, ptr noundef %1, ptr noundef %2)
  call void @llvm.lifetime.end.p0(i64 1, ptr %__assignable) #3
  call void @llvm.lifetime.end.p0(i64 1, ptr %__can_memmove) #3
  ret ptr %call
}

; Function Attrs: mustprogress uwtable
define linkonce_odr noundef ptr @_ZNSt20__uninitialized_copyILb0EE13__uninit_copyIPN6openmc15TallyDerivativeES4_EET0_T_S6_S5_(ptr noundef %__first, ptr noundef %__last, ptr noundef %__result) #8 comdat align 2 {
entry:
  %__first.addr = alloca ptr, align 8
  %__last.addr = alloca ptr, align 8
  %__result.addr = alloca ptr, align 8
  store ptr %__first, ptr %__first.addr, align 8, !tbaa !17
  store ptr %__last, ptr %__last.addr, align 8, !tbaa !17
  store ptr %__result, ptr %__result.addr, align 8, !tbaa !17
  %0 = load ptr, ptr %__first.addr, align 8, !tbaa !17
  %1 = load ptr, ptr %__last.addr, align 8, !tbaa !17
  %2 = load ptr, ptr %__result.addr, align 8, !tbaa !17
  %call = call noundef ptr @_ZSt16__do_uninit_copyIPN6openmc15TallyDerivativeES2_ET0_T_S4_S3_(ptr noundef %0, ptr noundef %1, ptr noundef %2)
  ret ptr %call
}

; Function Attrs: mustprogress uwtable
define linkonce_odr noundef ptr @_ZSt16__do_uninit_copyIPN6openmc15TallyDerivativeES2_ET0_T_S4_S3_(ptr noundef %__first, ptr noundef %__last, ptr noundef %__result) #8 comdat personality ptr @__gxx_personality_v0 {
entry:
  %__first.addr = alloca ptr, align 8
  %__last.addr = alloca ptr, align 8
  %__result.addr = alloca ptr, align 8
  %__cur = alloca ptr, align 8
  %exn.slot = alloca ptr, align 8
  %ehselector.slot = alloca i32, align 4
  store ptr %__first, ptr %__first.addr, align 8, !tbaa !17
  store ptr %__last, ptr %__last.addr, align 8, !tbaa !17
  store ptr %__result, ptr %__result.addr, align 8, !tbaa !17
  call void @llvm.lifetime.start.p0(i64 8, ptr %__cur) #3
  %0 = load ptr, ptr %__result.addr, align 8, !tbaa !17
  store ptr %0, ptr %__cur, align 8, !tbaa !17
  br label %for.cond

for.cond:                                         ; preds = %for.inc, %entry
  %1 = load ptr, ptr %__first.addr, align 8, !tbaa !17
  %2 = load ptr, ptr %__last.addr, align 8, !tbaa !17
  %cmp = icmp ne ptr %1, %2
  br i1 %cmp, label %for.body, label %for.end

for.body:                                         ; preds = %for.cond
  %3 = load ptr, ptr %__cur, align 8, !tbaa !17
  %4 = load ptr, ptr %__first.addr, align 8, !tbaa !17
  invoke void @_ZSt10_ConstructIN6openmc15TallyDerivativeEJRS1_EEvPT_DpOT0_(ptr noundef %3, ptr noundef nonnull align 4 dereferenceable(16) %4)
          to label %invoke.cont unwind label %lpad

invoke.cont:                                      ; preds = %for.body
  br label %for.inc

for.inc:                                          ; preds = %invoke.cont
  %5 = load ptr, ptr %__first.addr, align 8, !tbaa !17
  %incdec.ptr = getelementptr inbounds nuw %"struct.openmc::TallyDerivative", ptr %5, i32 1
  store ptr %incdec.ptr, ptr %__first.addr, align 8, !tbaa !17
  %6 = load ptr, ptr %__cur, align 8, !tbaa !17
  %incdec.ptr1 = getelementptr inbounds nuw %"struct.openmc::TallyDerivative", ptr %6, i32 1
  store ptr %incdec.ptr1, ptr %__cur, align 8, !tbaa !17
  br label %for.cond, !llvm.loop !76

lpad:                                             ; preds = %for.body
  %7 = landingpad { ptr, i32 }
          catch ptr null
  %8 = extractvalue { ptr, i32 } %7, 0
  store ptr %8, ptr %exn.slot, align 8
  %9 = extractvalue { ptr, i32 } %7, 1
  store i32 %9, ptr %ehselector.slot, align 4
  br label %catch

catch:                                            ; preds = %lpad
  %exn = load ptr, ptr %exn.slot, align 8
  %10 = call ptr @__cxa_begin_catch(ptr %exn) #3
  %11 = load ptr, ptr %__result.addr, align 8, !tbaa !17
  %12 = load ptr, ptr %__cur, align 8, !tbaa !17
  invoke void @_ZSt8_DestroyIPN6openmc15TallyDerivativeEEvT_S3_(ptr noundef %11, ptr noundef %12)
          to label %invoke.cont3 unwind label %lpad2

invoke.cont3:                                     ; preds = %catch
  invoke void @__cxa_rethrow() #25
          to label %unreachable unwind label %lpad2

for.end:                                          ; preds = %for.cond
  %13 = load ptr, ptr %__cur, align 8, !tbaa !17
  call void @llvm.lifetime.end.p0(i64 8, ptr %__cur) #3
  ret ptr %13

lpad2:                                            ; preds = %invoke.cont3, %catch
  %14 = landingpad { ptr, i32 }
          cleanup
  %15 = extractvalue { ptr, i32 } %14, 0
  store ptr %15, ptr %exn.slot, align 8
  %16 = extractvalue { ptr, i32 } %14, 1
  store i32 %16, ptr %ehselector.slot, align 4
  invoke void @__cxa_end_catch()
          to label %invoke.cont4 unwind label %terminate.lpad

invoke.cont4:                                     ; preds = %lpad2
  call void @llvm.lifetime.end.p0(i64 8, ptr %__cur) #3
  br label %eh.resume

try.cont:                                         ; No predecessors!
  unreachable

eh.resume:                                        ; preds = %invoke.cont4
  %exn5 = load ptr, ptr %exn.slot, align 8
  %sel = load i32, ptr %ehselector.slot, align 4
  %lpad.val = insertvalue { ptr, i32 } poison, ptr %exn5, 0
  %lpad.val6 = insertvalue { ptr, i32 } %lpad.val, i32 %sel, 1
  resume { ptr, i32 } %lpad.val6

terminate.lpad:                                   ; preds = %lpad2
  %17 = landingpad { ptr, i32 }
          catch ptr null
  %18 = extractvalue { ptr, i32 } %17, 0
  call void @__clang_call_terminate(ptr %18) #26
  unreachable

unreachable:                                      ; preds = %invoke.cont3
  unreachable
}

; Function Attrs: inlinehint mustprogress nounwind uwtable
define linkonce_odr void @_ZSt10_ConstructIN6openmc15TallyDerivativeEJRS1_EEvPT_DpOT0_(ptr noundef %__p, ptr noundef nonnull align 4 dereferenceable(16) %__args) #6 comdat {
entry:
  %__p.addr = alloca ptr, align 8
  %__args.addr = alloca ptr, align 8
  store ptr %__p, ptr %__p.addr, align 8, !tbaa !17
  store ptr %__args, ptr %__args.addr, align 8, !tbaa !17
  %0 = load ptr, ptr %__p.addr, align 8, !tbaa !17
  %1 = load ptr, ptr %__args.addr, align 8, !tbaa !17
  call void @llvm.memcpy.p0.p0.i64(ptr align 4 %0, ptr align 4 %1, i64 16, i1 false), !tbaa.struct !28
  ret void
}

; Function Attrs: mustprogress nounwind uwtable
define weak_odr noundef nonnull align 8 dereferenceable(24) ptr @_ZNSt6vectorIN6openmc15TallyDerivativeESaIS1_EEaSEOS3_(ptr noundef nonnull align 8 dereferenceable(24) %this, ptr noundef nonnull align 8 dereferenceable(24) %__x) #4 comdat align 2 {
entry:
  %this.addr = alloca ptr, align 8
  %__x.addr = alloca ptr, align 8
  %__move_storage = alloca i8, align 1
  %agg.tmp = alloca %"struct.std::integral_constant", align 1
  store ptr %this, ptr %this.addr, align 8, !tbaa !33
  store ptr %__x, ptr %__x.addr, align 8, !tbaa !33
  %this1 = load ptr, ptr %this.addr, align 8
  call void @llvm.lifetime.start.p0(i64 1, ptr %__move_storage) #3
  store i8 1, ptr %__move_storage, align 1, !tbaa !48
  %0 = load ptr, ptr %__x.addr, align 8, !tbaa !33
  call void @_ZNSt6vectorIN6openmc15TallyDerivativeESaIS1_EE14_M_move_assignEOS3_St17integral_constantIbLb1EE(ptr noundef nonnull align 8 dereferenceable(24) %this1, ptr noundef nonnull align 8 dereferenceable(24) %0) #3
  call void @llvm.lifetime.end.p0(i64 1, ptr %__move_storage) #3
  ret ptr %this1
}

; Function Attrs: mustprogress nounwind uwtable
define weak_odr void @_ZNSt6vectorIN6openmc15TallyDerivativeESaIS1_EE14_M_move_assignEOS3_St17integral_constantIbLb1EE(ptr noundef nonnull align 8 dereferenceable(24) %this, ptr noundef nonnull align 8 dereferenceable(24) %__x) #4 comdat align 2 personality ptr @__gxx_personality_v0 {
entry:
  %0 = alloca %"struct.std::integral_constant", align 1
  %this.addr = alloca ptr, align 8
  %__x.addr = alloca ptr, align 8
  %__tmp = alloca %"class.std::vector", align 8
  %ref.tmp = alloca %"class.std::allocator", align 1
  store ptr %this, ptr %this.addr, align 8, !tbaa !33
  store ptr %__x, ptr %__x.addr, align 8, !tbaa !33
  %this1 = load ptr, ptr %this.addr, align 8
  call void @llvm.lifetime.start.p0(i64 24, ptr %__tmp) #3
  call void @llvm.lifetime.start.p0(i64 1, ptr %ref.tmp) #3
  call void @_ZNKSt12_Vector_baseIN6openmc15TallyDerivativeESaIS1_EE13get_allocatorEv(ptr dead_on_unwind writable sret(%"class.std::allocator") align 1 %ref.tmp, ptr noundef nonnull align 8 dereferenceable(24) %this1) #3
  call void @_ZNSt6vectorIN6openmc15TallyDerivativeESaIS1_EEC1ERKS2_(ptr noundef nonnull align 8 dereferenceable(24) %__tmp, ptr noundef nonnull align 1 dereferenceable(1) %ref.tmp) #3
  call void @_ZNSt15__new_allocatorIN6openmc15TallyDerivativeEED2Ev(ptr noundef nonnull align 1 dereferenceable(1) %ref.tmp) #3
  call void @llvm.lifetime.end.p0(i64 1, ptr %ref.tmp) #3
  %_M_impl = getelementptr inbounds nuw %"struct.std::_Vector_base", ptr %this1, i32 0, i32 0
  %1 = load ptr, ptr %__x.addr, align 8, !tbaa !33
  %_M_impl2 = getelementptr inbounds nuw %"struct.std::_Vector_base", ptr %1, i32 0, i32 0
  call void @_ZNSt12_Vector_baseIN6openmc15TallyDerivativeESaIS1_EE17_Vector_impl_data12_M_swap_dataERS4_(ptr noundef nonnull align 8 dereferenceable(24) %_M_impl, ptr noundef nonnull align 8 dereferenceable(24) %_M_impl2) #3
  %_M_impl3 = getelementptr inbounds nuw %"struct.std::_Vector_base", ptr %__tmp, i32 0, i32 0
  %2 = load ptr, ptr %__x.addr, align 8, !tbaa !33
  %_M_impl4 = getelementptr inbounds nuw %"struct.std::_Vector_base", ptr %2, i32 0, i32 0
  call void @_ZNSt12_Vector_baseIN6openmc15TallyDerivativeESaIS1_EE17_Vector_impl_data12_M_swap_dataERS4_(ptr noundef nonnull align 8 dereferenceable(24) %_M_impl3, ptr noundef nonnull align 8 dereferenceable(24) %_M_impl4) #3
  %call = call noundef nonnull align 1 dereferenceable(1) ptr @_ZNSt12_Vector_baseIN6openmc15TallyDerivativeESaIS1_EE19_M_get_Tp_allocatorEv(ptr noundef nonnull align 8 dereferenceable(24) %this1) #3
  %3 = load ptr, ptr %__x.addr, align 8, !tbaa !33
  %call5 = call noundef nonnull align 1 dereferenceable(1) ptr @_ZNSt12_Vector_baseIN6openmc15TallyDerivativeESaIS1_EE19_M_get_Tp_allocatorEv(ptr noundef nonnull align 8 dereferenceable(24) %3) #3
  invoke void @_ZSt15__alloc_on_moveISaIN6openmc15TallyDerivativeEEEvRT_S4_(ptr noundef nonnull align 1 dereferenceable(1) %call, ptr noundef nonnull align 1 dereferenceable(1) %call5)
          to label %invoke.cont unwind label %terminate.lpad

invoke.cont:                                      ; preds = %entry
  call void @_ZNSt6vectorIN6openmc15TallyDerivativeESaIS1_EED1Ev(ptr noundef nonnull align 8 dereferenceable(24) %__tmp) #3
  call void @llvm.lifetime.end.p0(i64 24, ptr %__tmp) #3
  ret void

terminate.lpad:                                   ; preds = %entry
  %4 = landingpad { ptr, i32 }
          catch ptr null
  %5 = extractvalue { ptr, i32 } %4, 0
  call void @__clang_call_terminate(ptr %5) #26
  unreachable
}

; Function Attrs: inlinehint mustprogress nounwind uwtable
define linkonce_odr void @_ZSt15__alloc_on_moveISaIN6openmc15TallyDerivativeEEEvRT_S4_(ptr noundef nonnull align 1 dereferenceable(1) %__one, ptr noundef nonnull align 1 dereferenceable(1) %__two) #6 comdat {
entry:
  %__one.addr = alloca ptr, align 8
  %__two.addr = alloca ptr, align 8
  store ptr %__one, ptr %__one.addr, align 8, !tbaa !22
  store ptr %__two, ptr %__two.addr, align 8, !tbaa !22
  %0 = load ptr, ptr %__two.addr, align 8, !tbaa !22
  %1 = load ptr, ptr %__one.addr, align 8, !tbaa !22
  ret void
}

; Function Attrs: mustprogress uwtable
define weak_odr noundef nonnull align 8 dereferenceable(24) ptr @_ZNSt6vectorIN6openmc15TallyDerivativeESaIS1_EEaSESt16initializer_listIS1_E(ptr noundef nonnull align 8 dereferenceable(24) %this, ptr %__l.coerce0, i64 %__l.coerce1) #8 comdat align 2 {
entry:
  %__l = alloca %"class.std::initializer_list", align 8
  %this.addr = alloca ptr, align 8
  %agg.tmp = alloca %"struct.std::forward_iterator_tag", align 1
  %ref.tmp = alloca %"struct.std::random_access_iterator_tag", align 1
  %0 = getelementptr inbounds nuw { ptr, i64 }, ptr %__l, i32 0, i32 0
  store ptr %__l.coerce0, ptr %0, align 8
  %1 = getelementptr inbounds nuw { ptr, i64 }, ptr %__l, i32 0, i32 1
  store i64 %__l.coerce1, ptr %1, align 8
  store ptr %this, ptr %this.addr, align 8, !tbaa !33
  %this1 = load ptr, ptr %this.addr, align 8
  %call = call noundef ptr @_ZNKSt16initializer_listIN6openmc15TallyDerivativeEE5beginEv(ptr noundef nonnull align 8 dereferenceable(16) %__l) #3
  %call2 = call noundef ptr @_ZNKSt16initializer_listIN6openmc15TallyDerivativeEE3endEv(ptr noundef nonnull align 8 dereferenceable(16) %__l) #3
  call void @llvm.lifetime.start.p0(i64 1, ptr %ref.tmp) #3
  call void @_ZNSt6vectorIN6openmc15TallyDerivativeESaIS1_EE13_M_assign_auxIPKS1_EEvT_S7_St20forward_iterator_tag(ptr noundef nonnull align 8 dereferenceable(24) %this1, ptr noundef %call, ptr noundef %call2)
  call void @llvm.lifetime.end.p0(i64 1, ptr %ref.tmp) #3
  ret ptr %this1
}

; Function Attrs: mustprogress uwtable
define linkonce_odr void @_ZNSt6vectorIN6openmc15TallyDerivativeESaIS1_EE13_M_assign_auxIPKS1_EEvT_S7_St20forward_iterator_tag(ptr noundef nonnull align 8 dereferenceable(24) %this, ptr noundef %__first, ptr noundef %__last) #8 comdat align 2 {
entry:
  %0 = alloca %"struct.std::forward_iterator_tag", align 1
  %this.addr = alloca ptr, align 8
  %__first.addr = alloca ptr, align 8
  %__last.addr = alloca ptr, align 8
  %__len = alloca i64, align 8
  %__tmp = alloca ptr, align 8
  %__mid = alloca ptr, align 8
  %__n = alloca i64, align 8
  store ptr %this, ptr %this.addr, align 8, !tbaa !33
  store ptr %__first, ptr %__first.addr, align 8, !tbaa !17
  store ptr %__last, ptr %__last.addr, align 8, !tbaa !17
  %this1 = load ptr, ptr %this.addr, align 8
  call void @llvm.lifetime.start.p0(i64 8, ptr %__len) #3
  %1 = load ptr, ptr %__first.addr, align 8, !tbaa !17
  %2 = load ptr, ptr %__last.addr, align 8, !tbaa !17
  %call = call noundef i64 @_ZSt8distanceIPKN6openmc15TallyDerivativeEENSt15iterator_traitsIT_E15difference_typeES5_S5_(ptr noundef %1, ptr noundef %2)
  store i64 %call, ptr %__len, align 8, !tbaa !39
  %3 = load i64, ptr %__len, align 8, !tbaa !39
  %call2 = call noundef i64 @_ZNKSt6vectorIN6openmc15TallyDerivativeESaIS1_EE8capacityEv(ptr noundef nonnull align 8 dereferenceable(24) %this1) #3
  %cmp = icmp ugt i64 %3, %call2
  br i1 %cmp, label %if.then, label %if.else

if.then:                                          ; preds = %entry
  %4 = load i64, ptr %__len, align 8, !tbaa !39
  %call3 = call noundef nonnull align 1 dereferenceable(1) ptr @_ZNSt12_Vector_baseIN6openmc15TallyDerivativeESaIS1_EE19_M_get_Tp_allocatorEv(ptr noundef nonnull align 8 dereferenceable(24) %this1) #3
  %call4 = call noundef i64 @_ZNSt6vectorIN6openmc15TallyDerivativeESaIS1_EE17_S_check_init_lenEmRKS2_(i64 noundef %4, ptr noundef nonnull align 1 dereferenceable(1) %call3)
  call void @llvm.lifetime.start.p0(i64 8, ptr %__tmp) #3
  %5 = load i64, ptr %__len, align 8, !tbaa !39
  %6 = load ptr, ptr %__first.addr, align 8, !tbaa !17
  %7 = load ptr, ptr %__last.addr, align 8, !tbaa !17
  %call5 = call noundef ptr @_ZNSt6vectorIN6openmc15TallyDerivativeESaIS1_EE20_M_allocate_and_copyIPKS1_EEPS1_mT_S8_(ptr noundef nonnull align 8 dereferenceable(24) %this1, i64 noundef %5, ptr noundef %6, ptr noundef %7)
  store ptr %call5, ptr %__tmp, align 8, !tbaa !17
  %_M_impl = getelementptr inbounds nuw %"struct.std::_Vector_base", ptr %this1, i32 0, i32 0
  %_M_start = getelementptr inbounds nuw %"struct.std::_Vector_base<openmc::TallyDerivative, std::allocator<openmc::TallyDerivative>>::_Vector_impl_data", ptr %_M_impl, i32 0, i32 0
  %8 = load ptr, ptr %_M_start, align 8, !tbaa !41
  %_M_impl6 = getelementptr inbounds nuw %"struct.std::_Vector_base", ptr %this1, i32 0, i32 0
  %_M_finish = getelementptr inbounds nuw %"struct.std::_Vector_base<openmc::TallyDerivative, std::allocator<openmc::TallyDerivative>>::_Vector_impl_data", ptr %_M_impl6, i32 0, i32 1
  %9 = load ptr, ptr %_M_finish, align 8, !tbaa !43
  %call7 = call noundef nonnull align 1 dereferenceable(1) ptr @_ZNSt12_Vector_baseIN6openmc15TallyDerivativeESaIS1_EE19_M_get_Tp_allocatorEv(ptr noundef nonnull align 8 dereferenceable(24) %this1) #3
  call void @_ZSt8_DestroyIPN6openmc15TallyDerivativeES1_EvT_S3_RSaIT0_E(ptr noundef %8, ptr noundef %9, ptr noundef nonnull align 1 dereferenceable(1) %call7)
  %_M_impl8 = getelementptr inbounds nuw %"struct.std::_Vector_base", ptr %this1, i32 0, i32 0
  %_M_start9 = getelementptr inbounds nuw %"struct.std::_Vector_base<openmc::TallyDerivative, std::allocator<openmc::TallyDerivative>>::_Vector_impl_data", ptr %_M_impl8, i32 0, i32 0
  %10 = load ptr, ptr %_M_start9, align 8, !tbaa !41
  %_M_impl10 = getelementptr inbounds nuw %"struct.std::_Vector_base", ptr %this1, i32 0, i32 0
  %_M_end_of_storage = getelementptr inbounds nuw %"struct.std::_Vector_base<openmc::TallyDerivative, std::allocator<openmc::TallyDerivative>>::_Vector_impl_data", ptr %_M_impl10, i32 0, i32 2
  %11 = load ptr, ptr %_M_end_of_storage, align 8, !tbaa !44
  %_M_impl11 = getelementptr inbounds nuw %"struct.std::_Vector_base", ptr %this1, i32 0, i32 0
  %_M_start12 = getelementptr inbounds nuw %"struct.std::_Vector_base<openmc::TallyDerivative, std::allocator<openmc::TallyDerivative>>::_Vector_impl_data", ptr %_M_impl11, i32 0, i32 0
  %12 = load ptr, ptr %_M_start12, align 8, !tbaa !41
  %sub.ptr.lhs.cast = ptrtoint ptr %11 to i64
  %sub.ptr.rhs.cast = ptrtoint ptr %12 to i64
  %sub.ptr.sub = sub i64 %sub.ptr.lhs.cast, %sub.ptr.rhs.cast
  %sub.ptr.div = sdiv exact i64 %sub.ptr.sub, 16
  call void @_ZNSt12_Vector_baseIN6openmc15TallyDerivativeESaIS1_EE13_M_deallocateEPS1_m(ptr noundef nonnull align 8 dereferenceable(24) %this1, ptr noundef %10, i64 noundef %sub.ptr.div)
  %13 = load ptr, ptr %__tmp, align 8, !tbaa !17
  %_M_impl13 = getelementptr inbounds nuw %"struct.std::_Vector_base", ptr %this1, i32 0, i32 0
  %_M_start14 = getelementptr inbounds nuw %"struct.std::_Vector_base<openmc::TallyDerivative, std::allocator<openmc::TallyDerivative>>::_Vector_impl_data", ptr %_M_impl13, i32 0, i32 0
  store ptr %13, ptr %_M_start14, align 8, !tbaa !41
  %_M_impl15 = getelementptr inbounds nuw %"struct.std::_Vector_base", ptr %this1, i32 0, i32 0
  %_M_start16 = getelementptr inbounds nuw %"struct.std::_Vector_base<openmc::TallyDerivative, std::allocator<openmc::TallyDerivative>>::_Vector_impl_data", ptr %_M_impl15, i32 0, i32 0
  %14 = load ptr, ptr %_M_start16, align 8, !tbaa !41
  %15 = load i64, ptr %__len, align 8, !tbaa !39
  %add.ptr = getelementptr inbounds nuw %"struct.openmc::TallyDerivative", ptr %14, i64 %15
  %_M_impl17 = getelementptr inbounds nuw %"struct.std::_Vector_base", ptr %this1, i32 0, i32 0
  %_M_finish18 = getelementptr inbounds nuw %"struct.std::_Vector_base<openmc::TallyDerivative, std::allocator<openmc::TallyDerivative>>::_Vector_impl_data", ptr %_M_impl17, i32 0, i32 1
  store ptr %add.ptr, ptr %_M_finish18, align 8, !tbaa !43
  %_M_impl19 = getelementptr inbounds nuw %"struct.std::_Vector_base", ptr %this1, i32 0, i32 0
  %_M_finish20 = getelementptr inbounds nuw %"struct.std::_Vector_base<openmc::TallyDerivative, std::allocator<openmc::TallyDerivative>>::_Vector_impl_data", ptr %_M_impl19, i32 0, i32 1
  %16 = load ptr, ptr %_M_finish20, align 8, !tbaa !43
  %_M_impl21 = getelementptr inbounds nuw %"struct.std::_Vector_base", ptr %this1, i32 0, i32 0
  %_M_end_of_storage22 = getelementptr inbounds nuw %"struct.std::_Vector_base<openmc::TallyDerivative, std::allocator<openmc::TallyDerivative>>::_Vector_impl_data", ptr %_M_impl21, i32 0, i32 2
  store ptr %16, ptr %_M_end_of_storage22, align 8, !tbaa !44
  call void @llvm.lifetime.end.p0(i64 8, ptr %__tmp) #3
  br label %if.end41

if.else:                                          ; preds = %entry
  %call23 = call noundef i64 @_ZNKSt6vectorIN6openmc15TallyDerivativeESaIS1_EE4sizeEv(ptr noundef nonnull align 8 dereferenceable(24) %this1) #3
  %17 = load i64, ptr %__len, align 8, !tbaa !39
  %cmp24 = icmp uge i64 %call23, %17
  br i1 %cmp24, label %if.then25, label %if.else29

if.then25:                                        ; preds = %if.else
  %18 = load ptr, ptr %__first.addr, align 8, !tbaa !17
  %19 = load ptr, ptr %__last.addr, align 8, !tbaa !17
  %_M_impl26 = getelementptr inbounds nuw %"struct.std::_Vector_base", ptr %this1, i32 0, i32 0
  %_M_start27 = getelementptr inbounds nuw %"struct.std::_Vector_base<openmc::TallyDerivative, std::allocator<openmc::TallyDerivative>>::_Vector_impl_data", ptr %_M_impl26, i32 0, i32 0
  %20 = load ptr, ptr %_M_start27, align 8, !tbaa !41
  %call28 = call noundef ptr @_ZSt4copyIPKN6openmc15TallyDerivativeEPS1_ET0_T_S6_S5_(ptr noundef %18, ptr noundef %19, ptr noundef %20)
  call void @_ZNSt6vectorIN6openmc15TallyDerivativeESaIS1_EE15_M_erase_at_endEPS1_(ptr noundef nonnull align 8 dereferenceable(24) %this1, ptr noundef %call28) #3
  br label %if.end

if.else29:                                        ; preds = %if.else
  call void @llvm.lifetime.start.p0(i64 8, ptr %__mid) #3
  %21 = load ptr, ptr %__first.addr, align 8, !tbaa !17
  store ptr %21, ptr %__mid, align 8, !tbaa !17
  %call30 = call noundef i64 @_ZNKSt6vectorIN6openmc15TallyDerivativeESaIS1_EE4sizeEv(ptr noundef nonnull align 8 dereferenceable(24) %this1) #3
  call void @_ZSt7advanceIPKN6openmc15TallyDerivativeEmEvRT_T0_(ptr noundef nonnull align 8 dereferenceable(8) %__mid, i64 noundef %call30)
  %22 = load ptr, ptr %__first.addr, align 8, !tbaa !17
  %23 = load ptr, ptr %__mid, align 8, !tbaa !17
  %_M_impl31 = getelementptr inbounds nuw %"struct.std::_Vector_base", ptr %this1, i32 0, i32 0
  %_M_start32 = getelementptr inbounds nuw %"struct.std::_Vector_base<openmc::TallyDerivative, std::allocator<openmc::TallyDerivative>>::_Vector_impl_data", ptr %_M_impl31, i32 0, i32 0
  %24 = load ptr, ptr %_M_start32, align 8, !tbaa !41
  %call33 = call noundef ptr @_ZSt4copyIPKN6openmc15TallyDerivativeEPS1_ET0_T_S6_S5_(ptr noundef %22, ptr noundef %23, ptr noundef %24)
  call void @llvm.lifetime.start.p0(i64 8, ptr %__n) #3
  %25 = load i64, ptr %__len, align 8, !tbaa !39
  %call34 = call noundef i64 @_ZNKSt6vectorIN6openmc15TallyDerivativeESaIS1_EE4sizeEv(ptr noundef nonnull align 8 dereferenceable(24) %this1) #3
  %sub = sub i64 %25, %call34
  store i64 %sub, ptr %__n, align 8, !tbaa !39
  %26 = load ptr, ptr %__mid, align 8, !tbaa !17
  %27 = load ptr, ptr %__last.addr, align 8, !tbaa !17
  %_M_impl35 = getelementptr inbounds nuw %"struct.std::_Vector_base", ptr %this1, i32 0, i32 0
  %_M_finish36 = getelementptr inbounds nuw %"struct.std::_Vector_base<openmc::TallyDerivative, std::allocator<openmc::TallyDerivative>>::_Vector_impl_data", ptr %_M_impl35, i32 0, i32 1
  %28 = load ptr, ptr %_M_finish36, align 8, !tbaa !43
  %call37 = call noundef nonnull align 1 dereferenceable(1) ptr @_ZNSt12_Vector_baseIN6openmc15TallyDerivativeESaIS1_EE19_M_get_Tp_allocatorEv(ptr noundef nonnull align 8 dereferenceable(24) %this1) #3
  %call38 = call noundef ptr @_ZSt22__uninitialized_copy_aIPKN6openmc15TallyDerivativeEPS1_S1_ET0_T_S6_S5_RSaIT1_E(ptr noundef %26, ptr noundef %27, ptr noundef %28, ptr noundef nonnull align 1 dereferenceable(1) %call37)
  %_M_impl39 = getelementptr inbounds nuw %"struct.std::_Vector_base", ptr %this1, i32 0, i32 0
  %_M_finish40 = getelementptr inbounds nuw %"struct.std::_Vector_base<openmc::TallyDerivative, std::allocator<openmc::TallyDerivative>>::_Vector_impl_data", ptr %_M_impl39, i32 0, i32 1
  store ptr %call38, ptr %_M_finish40, align 8, !tbaa !43
  call void @llvm.lifetime.end.p0(i64 8, ptr %__n) #3
  call void @llvm.lifetime.end.p0(i64 8, ptr %__mid) #3
  br label %if.end

if.end:                                           ; preds = %if.else29, %if.then25
  br label %if.end41

if.end41:                                         ; preds = %if.end, %if.then
  call void @llvm.lifetime.end.p0(i64 8, ptr %__len) #3
  ret void
}

; Function Attrs: mustprogress uwtable
define linkonce_odr noundef ptr @_ZNSt6vectorIN6openmc15TallyDerivativeESaIS1_EE20_M_allocate_and_copyIPKS1_EEPS1_mT_S8_(ptr noundef nonnull align 8 dereferenceable(24) %this, i64 noundef %__n, ptr noundef %__first, ptr noundef %__last) #8 comdat align 2 personality ptr @__gxx_personality_v0 {
entry:
  %this.addr = alloca ptr, align 8
  %__n.addr = alloca i64, align 8
  %__first.addr = alloca ptr, align 8
  %__last.addr = alloca ptr, align 8
  %__result = alloca ptr, align 8
  %exn.slot = alloca ptr, align 8
  %ehselector.slot = alloca i32, align 4
  store ptr %this, ptr %this.addr, align 8, !tbaa !33
  store i64 %__n, ptr %__n.addr, align 8, !tbaa !39
  store ptr %__first, ptr %__first.addr, align 8, !tbaa !17
  store ptr %__last, ptr %__last.addr, align 8, !tbaa !17
  %this1 = load ptr, ptr %this.addr, align 8
  call void @llvm.lifetime.start.p0(i64 8, ptr %__result) #3
  %0 = load i64, ptr %__n.addr, align 8, !tbaa !39
  %call = call noundef ptr @_ZNSt12_Vector_baseIN6openmc15TallyDerivativeESaIS1_EE11_M_allocateEm(ptr noundef nonnull align 8 dereferenceable(24) %this1, i64 noundef %0)
  store ptr %call, ptr %__result, align 8, !tbaa !17
  %1 = load ptr, ptr %__first.addr, align 8, !tbaa !17
  %2 = load ptr, ptr %__last.addr, align 8, !tbaa !17
  %3 = load ptr, ptr %__result, align 8, !tbaa !17
  %call2 = call noundef nonnull align 1 dereferenceable(1) ptr @_ZNSt12_Vector_baseIN6openmc15TallyDerivativeESaIS1_EE19_M_get_Tp_allocatorEv(ptr noundef nonnull align 8 dereferenceable(24) %this1) #3
  %call3 = invoke noundef ptr @_ZSt22__uninitialized_copy_aIPKN6openmc15TallyDerivativeEPS1_S1_ET0_T_S6_S5_RSaIT1_E(ptr noundef %1, ptr noundef %2, ptr noundef %3, ptr noundef nonnull align 1 dereferenceable(1) %call2)
          to label %invoke.cont unwind label %lpad

invoke.cont:                                      ; preds = %entry
  %4 = load ptr, ptr %__result, align 8, !tbaa !17
  call void @llvm.lifetime.end.p0(i64 8, ptr %__result) #3
  ret ptr %4

lpad:                                             ; preds = %entry
  %5 = landingpad { ptr, i32 }
          catch ptr null
  %6 = extractvalue { ptr, i32 } %5, 0
  store ptr %6, ptr %exn.slot, align 8
  %7 = extractvalue { ptr, i32 } %5, 1
  store i32 %7, ptr %ehselector.slot, align 4
  br label %catch

catch:                                            ; preds = %lpad
  %exn = load ptr, ptr %exn.slot, align 8
  %8 = call ptr @__cxa_begin_catch(ptr %exn) #3
  %9 = load ptr, ptr %__result, align 8, !tbaa !17
  %10 = load i64, ptr %__n.addr, align 8, !tbaa !39
  invoke void @_ZNSt12_Vector_baseIN6openmc15TallyDerivativeESaIS1_EE13_M_deallocateEPS1_m(ptr noundef nonnull align 8 dereferenceable(24) %this1, ptr noundef %9, i64 noundef %10)
          to label %invoke.cont5 unwind label %lpad4

invoke.cont5:                                     ; preds = %catch
  invoke void @__cxa_rethrow() #25
          to label %unreachable unwind label %lpad4

lpad4:                                            ; preds = %invoke.cont5, %catch
  %11 = landingpad { ptr, i32 }
          cleanup
  %12 = extractvalue { ptr, i32 } %11, 0
  store ptr %12, ptr %exn.slot, align 8
  %13 = extractvalue { ptr, i32 } %11, 1
  store i32 %13, ptr %ehselector.slot, align 4
  invoke void @__cxa_end_catch()
          to label %invoke.cont6 unwind label %terminate.lpad

invoke.cont6:                                     ; preds = %lpad4
  call void @llvm.lifetime.end.p0(i64 8, ptr %__result) #3
  br label %eh.resume

try.cont:                                         ; No predecessors!
  unreachable

eh.resume:                                        ; preds = %invoke.cont6
  %exn7 = load ptr, ptr %exn.slot, align 8
  %sel = load i32, ptr %ehselector.slot, align 4
  %lpad.val = insertvalue { ptr, i32 } poison, ptr %exn7, 0
  %lpad.val8 = insertvalue { ptr, i32 } %lpad.val, i32 %sel, 1
  resume { ptr, i32 } %lpad.val8

terminate.lpad:                                   ; preds = %lpad4
  %14 = landingpad { ptr, i32 }
          catch ptr null
  %15 = extractvalue { ptr, i32 } %14, 0
  call void @__clang_call_terminate(ptr %15) #26
  unreachable

unreachable:                                      ; preds = %invoke.cont5
  unreachable
}

; Function Attrs: inlinehint mustprogress uwtable
define linkonce_odr noundef ptr @_ZSt4copyIPKN6openmc15TallyDerivativeEPS1_ET0_T_S6_S5_(ptr noundef %__first, ptr noundef %__last, ptr noundef %__result) #13 comdat {
entry:
  %__first.addr = alloca ptr, align 8
  %__last.addr = alloca ptr, align 8
  %__result.addr = alloca ptr, align 8
  store ptr %__first, ptr %__first.addr, align 8, !tbaa !17
  store ptr %__last, ptr %__last.addr, align 8, !tbaa !17
  store ptr %__result, ptr %__result.addr, align 8, !tbaa !17
  %0 = load ptr, ptr %__first.addr, align 8, !tbaa !17
  %call = call noundef ptr @_ZSt12__miter_baseIPKN6openmc15TallyDerivativeEET_S4_(ptr noundef %0)
  %1 = load ptr, ptr %__last.addr, align 8, !tbaa !17
  %call1 = call noundef ptr @_ZSt12__miter_baseIPKN6openmc15TallyDerivativeEET_S4_(ptr noundef %1)
  %2 = load ptr, ptr %__result.addr, align 8, !tbaa !17
  %call2 = call noundef ptr @_ZSt13__copy_move_aILb0EPKN6openmc15TallyDerivativeEPS1_ET1_T0_S6_S5_(ptr noundef %call, ptr noundef %call1, ptr noundef %2)
  ret ptr %call2
}

; Function Attrs: inlinehint mustprogress uwtable
define linkonce_odr void @_ZSt7advanceIPKN6openmc15TallyDerivativeEmEvRT_T0_(ptr noundef nonnull align 8 dereferenceable(8) %__i, i64 noundef %__n) #13 comdat {
entry:
  %__i.addr = alloca ptr, align 8
  %__n.addr = alloca i64, align 8
  %__d = alloca i64, align 8
  %agg.tmp = alloca %"struct.std::random_access_iterator_tag", align 1
  %undef.agg.tmp = alloca %"struct.std::random_access_iterator_tag", align 1
  store ptr %__i, ptr %__i.addr, align 8, !tbaa !58
  store i64 %__n, ptr %__n.addr, align 8, !tbaa !39
  call void @llvm.lifetime.start.p0(i64 8, ptr %__d) #3
  %0 = load i64, ptr %__n.addr, align 8, !tbaa !39
  store i64 %0, ptr %__d, align 8, !tbaa !39
  %1 = load ptr, ptr %__i.addr, align 8, !tbaa !58
  %2 = load i64, ptr %__d, align 8, !tbaa !39
  %3 = load ptr, ptr %__i.addr, align 8, !tbaa !58
  call void @_ZSt19__iterator_categoryIPKN6openmc15TallyDerivativeEENSt15iterator_traitsIT_E17iterator_categoryERKS5_(ptr noundef nonnull align 8 dereferenceable(8) %3)
  call void @_ZSt9__advanceIPKN6openmc15TallyDerivativeElEvRT_T0_St26random_access_iterator_tag(ptr noundef nonnull align 8 dereferenceable(8) %1, i64 noundef %2)
  call void @llvm.lifetime.end.p0(i64 8, ptr %__d) #3
  ret void
}

; Function Attrs: inlinehint mustprogress uwtable
define linkonce_odr noundef ptr @_ZSt13__copy_move_aILb0EPKN6openmc15TallyDerivativeEPS1_ET1_T0_S6_S5_(ptr noundef %__first, ptr noundef %__last, ptr noundef %__result) #13 comdat {
entry:
  %__first.addr = alloca ptr, align 8
  %__last.addr = alloca ptr, align 8
  %__result.addr = alloca ptr, align 8
  store ptr %__first, ptr %__first.addr, align 8, !tbaa !17
  store ptr %__last, ptr %__last.addr, align 8, !tbaa !17
  store ptr %__result, ptr %__result.addr, align 8, !tbaa !17
  %0 = load ptr, ptr %__first.addr, align 8, !tbaa !17
  %call = call noundef ptr @_ZSt12__niter_baseIPKN6openmc15TallyDerivativeEET_S4_(ptr noundef %0) #3
  %1 = load ptr, ptr %__last.addr, align 8, !tbaa !17
  %call1 = call noundef ptr @_ZSt12__niter_baseIPKN6openmc15TallyDerivativeEET_S4_(ptr noundef %1) #3
  %2 = load ptr, ptr %__result.addr, align 8, !tbaa !17
  %call2 = call noundef ptr @_ZSt12__niter_baseIPN6openmc15TallyDerivativeEET_S3_(ptr noundef %2) #3
  %call3 = call noundef ptr @_ZSt14__copy_move_a1ILb0EPKN6openmc15TallyDerivativeEPS1_ET1_T0_S6_S5_(ptr noundef %call, ptr noundef %call1, ptr noundef %call2)
  %call4 = call noundef ptr @_ZSt12__niter_wrapIPN6openmc15TallyDerivativeEET_RKS3_S3_(ptr noundef nonnull align 8 dereferenceable(8) %__result.addr, ptr noundef %call3)
  ret ptr %call4
}

; Function Attrs: inlinehint mustprogress nounwind uwtable
define linkonce_odr noundef ptr @_ZSt12__miter_baseIPKN6openmc15TallyDerivativeEET_S4_(ptr noundef %__it) #6 comdat {
entry:
  %__it.addr = alloca ptr, align 8
  store ptr %__it, ptr %__it.addr, align 8, !tbaa !17
  %0 = load ptr, ptr %__it.addr, align 8, !tbaa !17
  ret ptr %0
}

; Function Attrs: inlinehint mustprogress nounwind uwtable
define linkonce_odr noundef ptr @_ZSt12__niter_baseIPKN6openmc15TallyDerivativeEET_S4_(ptr noundef %__it) #6 comdat {
entry:
  %__it.addr = alloca ptr, align 8
  store ptr %__it, ptr %__it.addr, align 8, !tbaa !17
  %0 = load ptr, ptr %__it.addr, align 8, !tbaa !17
  ret ptr %0
}

; Function Attrs: inlinehint mustprogress nounwind uwtable
define linkonce_odr void @_ZSt9__advanceIPKN6openmc15TallyDerivativeElEvRT_T0_St26random_access_iterator_tag(ptr noundef nonnull align 8 dereferenceable(8) %__i, i64 noundef %__n) #6 comdat {
entry:
  %0 = alloca %"struct.std::random_access_iterator_tag", align 1
  %__i.addr = alloca ptr, align 8
  %__n.addr = alloca i64, align 8
  store ptr %__i, ptr %__i.addr, align 8, !tbaa !58
  store i64 %__n, ptr %__n.addr, align 8, !tbaa !39
  %1 = load i64, ptr %__n.addr, align 8, !tbaa !39
  %2 = call i1 @llvm.is.constant.i64(i64 %1)
  br i1 %2, label %land.lhs.true, label %if.else

land.lhs.true:                                    ; preds = %entry
  %3 = load i64, ptr %__n.addr, align 8, !tbaa !39
  %cmp = icmp eq i64 %3, 1
  br i1 %cmp, label %if.then, label %if.else

if.then:                                          ; preds = %land.lhs.true
  %4 = load ptr, ptr %__i.addr, align 8, !tbaa !58
  %5 = load ptr, ptr %4, align 8, !tbaa !17
  %incdec.ptr = getelementptr inbounds nuw %"struct.openmc::TallyDerivative", ptr %5, i32 1
  store ptr %incdec.ptr, ptr %4, align 8, !tbaa !17
  br label %if.end6

if.else:                                          ; preds = %land.lhs.true, %entry
  %6 = load i64, ptr %__n.addr, align 8, !tbaa !39
  %7 = call i1 @llvm.is.constant.i64(i64 %6)
  br i1 %7, label %land.lhs.true1, label %if.else5

land.lhs.true1:                                   ; preds = %if.else
  %8 = load i64, ptr %__n.addr, align 8, !tbaa !39
  %cmp2 = icmp eq i64 %8, -1
  br i1 %cmp2, label %if.then3, label %if.else5

if.then3:                                         ; preds = %land.lhs.true1
  %9 = load ptr, ptr %__i.addr, align 8, !tbaa !58
  %10 = load ptr, ptr %9, align 8, !tbaa !17
  %incdec.ptr4 = getelementptr inbounds %"struct.openmc::TallyDerivative", ptr %10, i32 -1
  store ptr %incdec.ptr4, ptr %9, align 8, !tbaa !17
  br label %if.end

if.else5:                                         ; preds = %land.lhs.true1, %if.else
  %11 = load i64, ptr %__n.addr, align 8, !tbaa !39
  %12 = load ptr, ptr %__i.addr, align 8, !tbaa !58
  %13 = load ptr, ptr %12, align 8, !tbaa !17
  %add.ptr = getelementptr inbounds %"struct.openmc::TallyDerivative", ptr %13, i64 %11
  store ptr %add.ptr, ptr %12, align 8, !tbaa !17
  br label %if.end

if.end:                                           ; preds = %if.else5, %if.then3
  br label %if.end6

if.end6:                                          ; preds = %if.end, %if.then
  ret void
}

; Function Attrs: convergent nocallback nofree nosync nounwind willreturn memory(none)
declare i1 @llvm.is.constant.i64(i64) #15

; Function Attrs: mustprogress uwtable
define weak_odr void @_ZNSt6vectorIN6openmc15TallyDerivativeESaIS1_EE6assignEmRKS1_(ptr noundef nonnull align 8 dereferenceable(24) %this, i64 noundef %__n, ptr noundef nonnull align 4 dereferenceable(16) %__val) #8 comdat align 2 {
entry:
  %this.addr = alloca ptr, align 8
  %__n.addr = alloca i64, align 8
  %__val.addr = alloca ptr, align 8
  store ptr %this, ptr %this.addr, align 8, !tbaa !33
  store i64 %__n, ptr %__n.addr, align 8, !tbaa !39
  store ptr %__val, ptr %__val.addr, align 8, !tbaa !17
  %this1 = load ptr, ptr %this.addr, align 8
  %0 = load i64, ptr %__n.addr, align 8, !tbaa !39
  %1 = load ptr, ptr %__val.addr, align 8, !tbaa !17
  call void @_ZNSt6vectorIN6openmc15TallyDerivativeESaIS1_EE14_M_fill_assignEmRKS1_(ptr noundef nonnull align 8 dereferenceable(24) %this1, i64 noundef %0, ptr noundef nonnull align 4 dereferenceable(16) %1)
  ret void
}

; Function Attrs: mustprogress uwtable
define weak_odr void @_ZNSt6vectorIN6openmc15TallyDerivativeESaIS1_EE14_M_fill_assignEmRKS1_(ptr noundef nonnull align 8 dereferenceable(24) %this, i64 noundef %__n, ptr noundef nonnull align 4 dereferenceable(16) %__val) #8 comdat align 2 {
entry:
  %this.addr = alloca ptr, align 8
  %__n.addr = alloca i64, align 8
  %__val.addr = alloca ptr, align 8
  %__tmp = alloca %"class.std::vector", align 8
  %agg.tmp = alloca %"class.__gnu_cxx::__normal_iterator.1", align 8
  %agg.tmp8 = alloca %"class.__gnu_cxx::__normal_iterator.1", align 8
  %__add = alloca i64, align 8
  store ptr %this, ptr %this.addr, align 8, !tbaa !33
  store i64 %__n, ptr %__n.addr, align 8, !tbaa !39
  store ptr %__val, ptr %__val.addr, align 8, !tbaa !17
  %this1 = load ptr, ptr %this.addr, align 8
  %0 = load i64, ptr %__n.addr, align 8, !tbaa !39
  %call = call noundef i64 @_ZNKSt6vectorIN6openmc15TallyDerivativeESaIS1_EE8capacityEv(ptr noundef nonnull align 8 dereferenceable(24) %this1) #3
  %cmp = icmp ugt i64 %0, %call
  br i1 %cmp, label %if.then, label %if.else

if.then:                                          ; preds = %entry
  call void @llvm.lifetime.start.p0(i64 24, ptr %__tmp) #3
  %1 = load i64, ptr %__n.addr, align 8, !tbaa !39
  %2 = load ptr, ptr %__val.addr, align 8, !tbaa !17
  %call2 = call noundef nonnull align 1 dereferenceable(1) ptr @_ZNSt12_Vector_baseIN6openmc15TallyDerivativeESaIS1_EE19_M_get_Tp_allocatorEv(ptr noundef nonnull align 8 dereferenceable(24) %this1) #3
  call void @_ZNSt6vectorIN6openmc15TallyDerivativeESaIS1_EEC1EmRKS1_RKS2_(ptr noundef nonnull align 8 dereferenceable(24) %__tmp, i64 noundef %1, ptr noundef nonnull align 4 dereferenceable(16) %2, ptr noundef nonnull align 1 dereferenceable(1) %call2)
  %_M_impl = getelementptr inbounds nuw %"struct.std::_Vector_base", ptr %__tmp, i32 0, i32 0
  %_M_impl3 = getelementptr inbounds nuw %"struct.std::_Vector_base", ptr %this1, i32 0, i32 0
  call void @_ZNSt12_Vector_baseIN6openmc15TallyDerivativeESaIS1_EE17_Vector_impl_data12_M_swap_dataERS4_(ptr noundef nonnull align 8 dereferenceable(24) %_M_impl, ptr noundef nonnull align 8 dereferenceable(24) %_M_impl3) #3
  call void @_ZNSt6vectorIN6openmc15TallyDerivativeESaIS1_EED1Ev(ptr noundef nonnull align 8 dereferenceable(24) %__tmp) #3
  call void @llvm.lifetime.end.p0(i64 24, ptr %__tmp) #3
  br label %if.end22

if.else:                                          ; preds = %entry
  %3 = load i64, ptr %__n.addr, align 8, !tbaa !39
  %call4 = call noundef i64 @_ZNKSt6vectorIN6openmc15TallyDerivativeESaIS1_EE4sizeEv(ptr noundef nonnull align 8 dereferenceable(24) %this1) #3
  %cmp5 = icmp ugt i64 %3, %call4
  br i1 %cmp5, label %if.then6, label %if.else19

if.then6:                                         ; preds = %if.else
  %call7 = call ptr @_ZNSt6vectorIN6openmc15TallyDerivativeESaIS1_EE5beginEv(ptr noundef nonnull align 8 dereferenceable(24) %this1) #3
  %coerce.dive = getelementptr inbounds nuw %"class.__gnu_cxx::__normal_iterator.1", ptr %agg.tmp, i32 0, i32 0
  store ptr %call7, ptr %coerce.dive, align 8
  %call9 = call ptr @_ZNSt6vectorIN6openmc15TallyDerivativeESaIS1_EE3endEv(ptr noundef nonnull align 8 dereferenceable(24) %this1) #3
  %coerce.dive10 = getelementptr inbounds nuw %"class.__gnu_cxx::__normal_iterator.1", ptr %agg.tmp8, i32 0, i32 0
  store ptr %call9, ptr %coerce.dive10, align 8
  %4 = load ptr, ptr %__val.addr, align 8, !tbaa !17
  %coerce.dive11 = getelementptr inbounds nuw %"class.__gnu_cxx::__normal_iterator.1", ptr %agg.tmp, i32 0, i32 0
  %5 = load ptr, ptr %coerce.dive11, align 8
  %coerce.dive12 = getelementptr inbounds nuw %"class.__gnu_cxx::__normal_iterator.1", ptr %agg.tmp8, i32 0, i32 0
  %6 = load ptr, ptr %coerce.dive12, align 8
  call void @_ZSt4fillIN9__gnu_cxx17__normal_iteratorIPN6openmc15TallyDerivativeESt6vectorIS3_SaIS3_EEEES3_EvT_S9_RKT0_(ptr %5, ptr %6, ptr noundef nonnull align 4 dereferenceable(16) %4)
  call void @llvm.lifetime.start.p0(i64 8, ptr %__add) #3
  %7 = load i64, ptr %__n.addr, align 8, !tbaa !39
  %call13 = call noundef i64 @_ZNKSt6vectorIN6openmc15TallyDerivativeESaIS1_EE4sizeEv(ptr noundef nonnull align 8 dereferenceable(24) %this1) #3
  %sub = sub i64 %7, %call13
  store i64 %sub, ptr %__add, align 8, !tbaa !39
  %_M_impl14 = getelementptr inbounds nuw %"struct.std::_Vector_base", ptr %this1, i32 0, i32 0
  %_M_finish = getelementptr inbounds nuw %"struct.std::_Vector_base<openmc::TallyDerivative, std::allocator<openmc::TallyDerivative>>::_Vector_impl_data", ptr %_M_impl14, i32 0, i32 1
  %8 = load ptr, ptr %_M_finish, align 8, !tbaa !43
  %9 = load i64, ptr %__add, align 8, !tbaa !39
  %10 = load ptr, ptr %__val.addr, align 8, !tbaa !17
  %call15 = call noundef nonnull align 1 dereferenceable(1) ptr @_ZNSt12_Vector_baseIN6openmc15TallyDerivativeESaIS1_EE19_M_get_Tp_allocatorEv(ptr noundef nonnull align 8 dereferenceable(24) %this1) #3
  %call16 = call noundef ptr @_ZSt24__uninitialized_fill_n_aIPN6openmc15TallyDerivativeEmS1_S1_ET_S3_T0_RKT1_RSaIT2_E(ptr noundef %8, i64 noundef %9, ptr noundef nonnull align 4 dereferenceable(16) %10, ptr noundef nonnull align 1 dereferenceable(1) %call15)
  %_M_impl17 = getelementptr inbounds nuw %"struct.std::_Vector_base", ptr %this1, i32 0, i32 0
  %_M_finish18 = getelementptr inbounds nuw %"struct.std::_Vector_base<openmc::TallyDerivative, std::allocator<openmc::TallyDerivative>>::_Vector_impl_data", ptr %_M_impl17, i32 0, i32 1
  store ptr %call16, ptr %_M_finish18, align 8, !tbaa !43
  call void @llvm.lifetime.end.p0(i64 8, ptr %__add) #3
  br label %if.end

if.else19:                                        ; preds = %if.else
  %_M_impl20 = getelementptr inbounds nuw %"struct.std::_Vector_base", ptr %this1, i32 0, i32 0
  %_M_start = getelementptr inbounds nuw %"struct.std::_Vector_base<openmc::TallyDerivative, std::allocator<openmc::TallyDerivative>>::_Vector_impl_data", ptr %_M_impl20, i32 0, i32 0
  %11 = load ptr, ptr %_M_start, align 8, !tbaa !41
  %12 = load i64, ptr %__n.addr, align 8, !tbaa !39
  %13 = load ptr, ptr %__val.addr, align 8, !tbaa !17
  %call21 = call noundef ptr @_ZSt6fill_nIPN6openmc15TallyDerivativeEmS1_ET_S3_T0_RKT1_(ptr noundef %11, i64 noundef %12, ptr noundef nonnull align 4 dereferenceable(16) %13)
  call void @_ZNSt6vectorIN6openmc15TallyDerivativeESaIS1_EE15_M_erase_at_endEPS1_(ptr noundef nonnull align 8 dereferenceable(24) %this1, ptr noundef %call21) #3
  br label %if.end

if.end:                                           ; preds = %if.else19, %if.then6
  br label %if.end22

if.end22:                                         ; preds = %if.end, %if.then
  ret void
}

; Function Attrs: inlinehint mustprogress uwtable
define linkonce_odr void @_ZSt4fillIN9__gnu_cxx17__normal_iteratorIPN6openmc15TallyDerivativeESt6vectorIS3_SaIS3_EEEES3_EvT_S9_RKT0_(ptr %__first.coerce, ptr %__last.coerce, ptr noundef nonnull align 4 dereferenceable(16) %__value) #13 comdat {
entry:
  %__first = alloca %"class.__gnu_cxx::__normal_iterator.1", align 8
  %__last = alloca %"class.__gnu_cxx::__normal_iterator.1", align 8
  %__value.addr = alloca ptr, align 8
  %agg.tmp = alloca %"class.__gnu_cxx::__normal_iterator.1", align 8
  %agg.tmp2 = alloca %"class.__gnu_cxx::__normal_iterator.1", align 8
  %coerce.dive = getelementptr inbounds nuw %"class.__gnu_cxx::__normal_iterator.1", ptr %__first, i32 0, i32 0
  store ptr %__first.coerce, ptr %coerce.dive, align 8
  %coerce.dive1 = getelementptr inbounds nuw %"class.__gnu_cxx::__normal_iterator.1", ptr %__last, i32 0, i32 0
  store ptr %__last.coerce, ptr %coerce.dive1, align 8
  store ptr %__value, ptr %__value.addr, align 8, !tbaa !17
  call void @llvm.memcpy.p0.p0.i64(ptr align 8 %agg.tmp, ptr align 8 %__first, i64 8, i1 false), !tbaa.struct !52
  call void @llvm.memcpy.p0.p0.i64(ptr align 8 %agg.tmp2, ptr align 8 %__last, i64 8, i1 false), !tbaa.struct !52
  %0 = load ptr, ptr %__value.addr, align 8, !tbaa !17
  %coerce.dive3 = getelementptr inbounds nuw %"class.__gnu_cxx::__normal_iterator.1", ptr %agg.tmp, i32 0, i32 0
  %1 = load ptr, ptr %coerce.dive3, align 8
  %coerce.dive4 = getelementptr inbounds nuw %"class.__gnu_cxx::__normal_iterator.1", ptr %agg.tmp2, i32 0, i32 0
  %2 = load ptr, ptr %coerce.dive4, align 8
  call void @_ZSt8__fill_aIN9__gnu_cxx17__normal_iteratorIPN6openmc15TallyDerivativeESt6vectorIS3_SaIS3_EEEES3_EvT_S9_RKT0_(ptr %1, ptr %2, ptr noundef nonnull align 4 dereferenceable(16) %0)
  ret void
}

; Function Attrs: inlinehint mustprogress uwtable
define linkonce_odr noundef ptr @_ZSt6fill_nIPN6openmc15TallyDerivativeEmS1_ET_S3_T0_RKT1_(ptr noundef %__first, i64 noundef %__n, ptr noundef nonnull align 4 dereferenceable(16) %__value) #13 comdat {
entry:
  %__first.addr = alloca ptr, align 8
  %__n.addr = alloca i64, align 8
  %__value.addr = alloca ptr, align 8
  %agg.tmp = alloca %"struct.std::random_access_iterator_tag", align 1
  %undef.agg.tmp = alloca %"struct.std::random_access_iterator_tag", align 1
  store ptr %__first, ptr %__first.addr, align 8, !tbaa !17
  store i64 %__n, ptr %__n.addr, align 8, !tbaa !39
  store ptr %__value, ptr %__value.addr, align 8, !tbaa !17
  %0 = load ptr, ptr %__first.addr, align 8, !tbaa !17
  %1 = load i64, ptr %__n.addr, align 8, !tbaa !39
  %call = call noundef i64 @_ZSt17__size_to_integerm(i64 noundef %1)
  %2 = load ptr, ptr %__value.addr, align 8, !tbaa !17
  call void @_ZSt19__iterator_categoryIPN6openmc15TallyDerivativeEENSt15iterator_traitsIT_E17iterator_categoryERKS4_(ptr noundef nonnull align 8 dereferenceable(8) %__first.addr)
  %call1 = call noundef ptr @_ZSt10__fill_n_aIPN6openmc15TallyDerivativeEmS1_ET_S3_T0_RKT1_St26random_access_iterator_tag(ptr noundef %0, i64 noundef %call, ptr noundef nonnull align 4 dereferenceable(16) %2)
  ret ptr %call1
}

; Function Attrs: inlinehint mustprogress uwtable
define linkonce_odr void @_ZSt8__fill_aIN9__gnu_cxx17__normal_iteratorIPN6openmc15TallyDerivativeESt6vectorIS3_SaIS3_EEEES3_EvT_S9_RKT0_(ptr %__first.coerce, ptr %__last.coerce, ptr noundef nonnull align 4 dereferenceable(16) %__value) #13 comdat {
entry:
  %__first = alloca %"class.__gnu_cxx::__normal_iterator.1", align 8
  %__last = alloca %"class.__gnu_cxx::__normal_iterator.1", align 8
  %__value.addr = alloca ptr, align 8
  %agg.tmp = alloca %"class.__gnu_cxx::__normal_iterator.1", align 8
  %agg.tmp2 = alloca %"class.__gnu_cxx::__normal_iterator.1", align 8
  %coerce.dive = getelementptr inbounds nuw %"class.__gnu_cxx::__normal_iterator.1", ptr %__first, i32 0, i32 0
  store ptr %__first.coerce, ptr %coerce.dive, align 8
  %coerce.dive1 = getelementptr inbounds nuw %"class.__gnu_cxx::__normal_iterator.1", ptr %__last, i32 0, i32 0
  store ptr %__last.coerce, ptr %coerce.dive1, align 8
  store ptr %__value, ptr %__value.addr, align 8, !tbaa !17
  call void @llvm.memcpy.p0.p0.i64(ptr align 8 %agg.tmp, ptr align 8 %__first, i64 8, i1 false), !tbaa.struct !52
  call void @llvm.memcpy.p0.p0.i64(ptr align 8 %agg.tmp2, ptr align 8 %__last, i64 8, i1 false), !tbaa.struct !52
  %0 = load ptr, ptr %__value.addr, align 8, !tbaa !17
  %coerce.dive3 = getelementptr inbounds nuw %"class.__gnu_cxx::__normal_iterator.1", ptr %agg.tmp, i32 0, i32 0
  %1 = load ptr, ptr %coerce.dive3, align 8
  %coerce.dive4 = getelementptr inbounds nuw %"class.__gnu_cxx::__normal_iterator.1", ptr %agg.tmp2, i32 0, i32 0
  %2 = load ptr, ptr %coerce.dive4, align 8
  call void @_ZSt9__fill_a1IPN6openmc15TallyDerivativeESt6vectorIS1_SaIS1_EES1_EvN9__gnu_cxx17__normal_iteratorIT_T0_EESA_RKT1_(ptr %1, ptr %2, ptr noundef nonnull align 4 dereferenceable(16) %0)
  ret void
}

; Function Attrs: inlinehint mustprogress uwtable
define linkonce_odr void @_ZSt9__fill_a1IPN6openmc15TallyDerivativeESt6vectorIS1_SaIS1_EES1_EvN9__gnu_cxx17__normal_iteratorIT_T0_EESA_RKT1_(ptr %__first.coerce, ptr %__last.coerce, ptr noundef nonnull align 4 dereferenceable(16) %__value) #13 comdat {
entry:
  %__first = alloca %"class.__gnu_cxx::__normal_iterator.1", align 8
  %__last = alloca %"class.__gnu_cxx::__normal_iterator.1", align 8
  %__value.addr = alloca ptr, align 8
  %coerce.dive = getelementptr inbounds nuw %"class.__gnu_cxx::__normal_iterator.1", ptr %__first, i32 0, i32 0
  store ptr %__first.coerce, ptr %coerce.dive, align 8
  %coerce.dive1 = getelementptr inbounds nuw %"class.__gnu_cxx::__normal_iterator.1", ptr %__last, i32 0, i32 0
  store ptr %__last.coerce, ptr %coerce.dive1, align 8
  store ptr %__value, ptr %__value.addr, align 8, !tbaa !17
  %call = call noundef nonnull align 8 dereferenceable(8) ptr @_ZNK9__gnu_cxx17__normal_iteratorIPN6openmc15TallyDerivativeESt6vectorIS2_SaIS2_EEE4baseEv(ptr noundef nonnull align 8 dereferenceable(8) %__first) #3
  %0 = load ptr, ptr %call, align 8, !tbaa !17
  %call2 = call noundef nonnull align 8 dereferenceable(8) ptr @_ZNK9__gnu_cxx17__normal_iteratorIPN6openmc15TallyDerivativeESt6vectorIS2_SaIS2_EEE4baseEv(ptr noundef nonnull align 8 dereferenceable(8) %__last) #3
  %1 = load ptr, ptr %call2, align 8, !tbaa !17
  %2 = load ptr, ptr %__value.addr, align 8, !tbaa !17
  call void @_ZSt9__fill_a1IPN6openmc15TallyDerivativeES1_EN9__gnu_cxx11__enable_ifIXntsr11__is_scalarIT0_EE7__valueEvE6__typeET_S8_RKS5_(ptr noundef %0, ptr noundef %1, ptr noundef nonnull align 4 dereferenceable(16) %2)
  ret void
}

; Function Attrs: inlinehint mustprogress nounwind uwtable
define linkonce_odr void @_ZSt9__fill_a1IPN6openmc15TallyDerivativeES1_EN9__gnu_cxx11__enable_ifIXntsr11__is_scalarIT0_EE7__valueEvE6__typeET_S8_RKS5_(ptr noundef %__first, ptr noundef %__last, ptr noundef nonnull align 4 dereferenceable(16) %__value) #6 comdat {
entry:
  %__first.addr = alloca ptr, align 8
  %__last.addr = alloca ptr, align 8
  %__value.addr = alloca ptr, align 8
  store ptr %__first, ptr %__first.addr, align 8, !tbaa !17
  store ptr %__last, ptr %__last.addr, align 8, !tbaa !17
  store ptr %__value, ptr %__value.addr, align 8, !tbaa !17
  br label %for.cond

for.cond:                                         ; preds = %for.inc, %entry
  %0 = load ptr, ptr %__first.addr, align 8, !tbaa !17
  %1 = load ptr, ptr %__last.addr, align 8, !tbaa !17
  %cmp = icmp ne ptr %0, %1
  br i1 %cmp, label %for.body, label %for.end

for.body:                                         ; preds = %for.cond
  %2 = load ptr, ptr %__value.addr, align 8, !tbaa !17
  %3 = load ptr, ptr %__first.addr, align 8, !tbaa !17
  call void @llvm.memcpy.p0.p0.i64(ptr align 4 %3, ptr align 4 %2, i64 16, i1 false), !tbaa.struct !28
  br label %for.inc

for.inc:                                          ; preds = %for.body
  %4 = load ptr, ptr %__first.addr, align 8, !tbaa !17
  %incdec.ptr = getelementptr inbounds nuw %"struct.openmc::TallyDerivative", ptr %4, i32 1
  store ptr %incdec.ptr, ptr %__first.addr, align 8, !tbaa !17
  br label %for.cond, !llvm.loop !77

for.end:                                          ; preds = %for.cond
  ret void
}

; Function Attrs: inlinehint mustprogress uwtable
define linkonce_odr noundef ptr @_ZSt10__fill_n_aIPN6openmc15TallyDerivativeEmS1_ET_S3_T0_RKT1_St26random_access_iterator_tag(ptr noundef %__first, i64 noundef %__n, ptr noundef nonnull align 4 dereferenceable(16) %__value) #13 comdat {
entry:
  %retval = alloca ptr, align 8
  %0 = alloca %"struct.std::random_access_iterator_tag", align 1
  %__first.addr = alloca ptr, align 8
  %__n.addr = alloca i64, align 8
  %__value.addr = alloca ptr, align 8
  store ptr %__first, ptr %__first.addr, align 8, !tbaa !17
  store i64 %__n, ptr %__n.addr, align 8, !tbaa !39
  store ptr %__value, ptr %__value.addr, align 8, !tbaa !17
  %1 = load i64, ptr %__n.addr, align 8, !tbaa !39
  %cmp = icmp ule i64 %1, 0
  br i1 %cmp, label %if.then, label %if.end

if.then:                                          ; preds = %entry
  %2 = load ptr, ptr %__first.addr, align 8, !tbaa !17
  store ptr %2, ptr %retval, align 8
  br label %return

if.end:                                           ; preds = %entry
  %3 = load ptr, ptr %__first.addr, align 8, !tbaa !17
  %4 = load ptr, ptr %__first.addr, align 8, !tbaa !17
  %5 = load i64, ptr %__n.addr, align 8, !tbaa !39
  %add.ptr = getelementptr inbounds nuw %"struct.openmc::TallyDerivative", ptr %4, i64 %5
  %6 = load ptr, ptr %__value.addr, align 8, !tbaa !17
  call void @_ZSt8__fill_aIPN6openmc15TallyDerivativeES1_EvT_S3_RKT0_(ptr noundef %3, ptr noundef %add.ptr, ptr noundef nonnull align 4 dereferenceable(16) %6)
  %7 = load ptr, ptr %__first.addr, align 8, !tbaa !17
  %8 = load i64, ptr %__n.addr, align 8, !tbaa !39
  %add.ptr1 = getelementptr inbounds nuw %"struct.openmc::TallyDerivative", ptr %7, i64 %8
  store ptr %add.ptr1, ptr %retval, align 8
  br label %return

return:                                           ; preds = %if.end, %if.then
  %9 = load ptr, ptr %retval, align 8
  ret ptr %9
}

; Function Attrs: inlinehint mustprogress nounwind uwtable
define linkonce_odr noundef i64 @_ZSt17__size_to_integerm(i64 noundef %__n) #6 comdat {
entry:
  %__n.addr = alloca i64, align 8
  store i64 %__n, ptr %__n.addr, align 8, !tbaa !39
  %0 = load i64, ptr %__n.addr, align 8, !tbaa !39
  ret i64 %0
}

; Function Attrs: inlinehint mustprogress nounwind uwtable
define linkonce_odr void @_ZSt19__iterator_categoryIPN6openmc15TallyDerivativeEENSt15iterator_traitsIT_E17iterator_categoryERKS4_(ptr noundef nonnull align 8 dereferenceable(8) %0) #6 comdat {
entry:
  %.addr = alloca ptr, align 8
  store ptr %0, ptr %.addr, align 8, !tbaa !58
  ret void
}

; Function Attrs: inlinehint mustprogress nounwind uwtable
define linkonce_odr void @_ZSt8__fill_aIPN6openmc15TallyDerivativeES1_EvT_S3_RKT0_(ptr noundef %__first, ptr noundef %__last, ptr noundef nonnull align 4 dereferenceable(16) %__value) #6 comdat {
entry:
  %__first.addr = alloca ptr, align 8
  %__last.addr = alloca ptr, align 8
  %__value.addr = alloca ptr, align 8
  store ptr %__first, ptr %__first.addr, align 8, !tbaa !17
  store ptr %__last, ptr %__last.addr, align 8, !tbaa !17
  store ptr %__value, ptr %__value.addr, align 8, !tbaa !17
  %0 = load ptr, ptr %__first.addr, align 8, !tbaa !17
  %1 = load ptr, ptr %__last.addr, align 8, !tbaa !17
  %2 = load ptr, ptr %__value.addr, align 8, !tbaa !17
  call void @_ZSt9__fill_a1IPN6openmc15TallyDerivativeES1_EN9__gnu_cxx11__enable_ifIXntsr11__is_scalarIT0_EE7__valueEvE6__typeET_S8_RKS5_(ptr noundef %0, ptr noundef %1, ptr noundef nonnull align 4 dereferenceable(16) %2)
  ret void
}

; Function Attrs: mustprogress uwtable
define weak_odr void @_ZNSt6vectorIN6openmc15TallyDerivativeESaIS1_EE6assignESt16initializer_listIS1_E(ptr noundef nonnull align 8 dereferenceable(24) %this, ptr %__l.coerce0, i64 %__l.coerce1) #8 comdat align 2 {
entry:
  %__l = alloca %"class.std::initializer_list", align 8
  %this.addr = alloca ptr, align 8
  %agg.tmp = alloca %"struct.std::forward_iterator_tag", align 1
  %ref.tmp = alloca %"struct.std::random_access_iterator_tag", align 1
  %0 = getelementptr inbounds nuw { ptr, i64 }, ptr %__l, i32 0, i32 0
  store ptr %__l.coerce0, ptr %0, align 8
  %1 = getelementptr inbounds nuw { ptr, i64 }, ptr %__l, i32 0, i32 1
  store i64 %__l.coerce1, ptr %1, align 8
  store ptr %this, ptr %this.addr, align 8, !tbaa !33
  %this1 = load ptr, ptr %this.addr, align 8
  %call = call noundef ptr @_ZNKSt16initializer_listIN6openmc15TallyDerivativeEE5beginEv(ptr noundef nonnull align 8 dereferenceable(16) %__l) #3
  %call2 = call noundef ptr @_ZNKSt16initializer_listIN6openmc15TallyDerivativeEE3endEv(ptr noundef nonnull align 8 dereferenceable(16) %__l) #3
  call void @llvm.lifetime.start.p0(i64 1, ptr %ref.tmp) #3
  call void @_ZNSt6vectorIN6openmc15TallyDerivativeESaIS1_EE13_M_assign_auxIPKS1_EEvT_S7_St20forward_iterator_tag(ptr noundef nonnull align 8 dereferenceable(24) %this1, ptr noundef %call, ptr noundef %call2)
  call void @llvm.lifetime.end.p0(i64 1, ptr %ref.tmp) #3
  ret void
}

; Function Attrs: mustprogress nounwind uwtable
define weak_odr void @_ZNSt6vectorIN6openmc15TallyDerivativeESaIS1_EE6rbeginEv(ptr dead_on_unwind noalias writable sret(%"class.std::reverse_iterator") align 8 %agg.result, ptr noundef nonnull align 8 dereferenceable(24) %this) #4 comdat align 2 {
entry:
  %result.ptr = alloca ptr, align 8
  %this.addr = alloca ptr, align 8
  %agg.tmp = alloca %"class.__gnu_cxx::__normal_iterator.1", align 8
  store ptr %agg.result, ptr %result.ptr, align 8
  store ptr %this, ptr %this.addr, align 8, !tbaa !33
  %this1 = load ptr, ptr %this.addr, align 8
  %call = call ptr @_ZNSt6vectorIN6openmc15TallyDerivativeESaIS1_EE3endEv(ptr noundef nonnull align 8 dereferenceable(24) %this1) #3
  %coerce.dive = getelementptr inbounds nuw %"class.__gnu_cxx::__normal_iterator.1", ptr %agg.tmp, i32 0, i32 0
  store ptr %call, ptr %coerce.dive, align 8
  %coerce.dive2 = getelementptr inbounds nuw %"class.__gnu_cxx::__normal_iterator.1", ptr %agg.tmp, i32 0, i32 0
  %0 = load ptr, ptr %coerce.dive2, align 8
  call void @_ZNSt16reverse_iteratorIN9__gnu_cxx17__normal_iteratorIPN6openmc15TallyDerivativeESt6vectorIS3_SaIS3_EEEEEC2ES8_(ptr noundef nonnull align 8 dereferenceable(8) %agg.result, ptr %0) #3
  ret void
}

; Function Attrs: mustprogress nounwind uwtable
define linkonce_odr void @_ZNSt16reverse_iteratorIN9__gnu_cxx17__normal_iteratorIPN6openmc15TallyDerivativeESt6vectorIS3_SaIS3_EEEEEC2ES8_(ptr noundef nonnull align 8 dereferenceable(8) %this, ptr %__x.coerce) unnamed_addr #4 comdat align 2 {
entry:
  %__x = alloca %"class.__gnu_cxx::__normal_iterator.1", align 8
  %this.addr = alloca ptr, align 8
  %coerce.dive = getelementptr inbounds nuw %"class.__gnu_cxx::__normal_iterator.1", ptr %__x, i32 0, i32 0
  store ptr %__x.coerce, ptr %coerce.dive, align 8
  store ptr %this, ptr %this.addr, align 8, !tbaa !78
  %this1 = load ptr, ptr %this.addr, align 8
  %current = getelementptr inbounds nuw %"class.std::reverse_iterator", ptr %this1, i32 0, i32 0
  call void @llvm.memcpy.p0.p0.i64(ptr align 8 %current, ptr align 8 %__x, i64 8, i1 false), !tbaa.struct !52
  ret void
}

; Function Attrs: mustprogress nounwind uwtable
define weak_odr void @_ZNKSt6vectorIN6openmc15TallyDerivativeESaIS1_EE6rbeginEv(ptr dead_on_unwind noalias writable sret(%"class.std::reverse_iterator.2") align 8 %agg.result, ptr noundef nonnull align 8 dereferenceable(24) %this) #4 comdat align 2 {
entry:
  %result.ptr = alloca ptr, align 8
  %this.addr = alloca ptr, align 8
  %agg.tmp = alloca %"class.__gnu_cxx::__normal_iterator", align 8
  store ptr %agg.result, ptr %result.ptr, align 8
  store ptr %this, ptr %this.addr, align 8, !tbaa !33
  %this1 = load ptr, ptr %this.addr, align 8
  %call = call ptr @_ZNKSt6vectorIN6openmc15TallyDerivativeESaIS1_EE3endEv(ptr noundef nonnull align 8 dereferenceable(24) %this1) #3
  %coerce.dive = getelementptr inbounds nuw %"class.__gnu_cxx::__normal_iterator", ptr %agg.tmp, i32 0, i32 0
  store ptr %call, ptr %coerce.dive, align 8
  %coerce.dive2 = getelementptr inbounds nuw %"class.__gnu_cxx::__normal_iterator", ptr %agg.tmp, i32 0, i32 0
  %0 = load ptr, ptr %coerce.dive2, align 8
  call void @_ZNSt16reverse_iteratorIN9__gnu_cxx17__normal_iteratorIPKN6openmc15TallyDerivativeESt6vectorIS3_SaIS3_EEEEEC2ES9_(ptr noundef nonnull align 8 dereferenceable(8) %agg.result, ptr %0) #3
  ret void
}

; Function Attrs: mustprogress nounwind uwtable
define linkonce_odr void @_ZNSt16reverse_iteratorIN9__gnu_cxx17__normal_iteratorIPKN6openmc15TallyDerivativeESt6vectorIS3_SaIS3_EEEEEC2ES9_(ptr noundef nonnull align 8 dereferenceable(8) %this, ptr %__x.coerce) unnamed_addr #4 comdat align 2 {
entry:
  %__x = alloca %"class.__gnu_cxx::__normal_iterator", align 8
  %this.addr = alloca ptr, align 8
  %coerce.dive = getelementptr inbounds nuw %"class.__gnu_cxx::__normal_iterator", ptr %__x, i32 0, i32 0
  store ptr %__x.coerce, ptr %coerce.dive, align 8
  store ptr %this, ptr %this.addr, align 8, !tbaa !80
  %this1 = load ptr, ptr %this.addr, align 8
  %current = getelementptr inbounds nuw %"class.std::reverse_iterator.2", ptr %this1, i32 0, i32 0
  call void @llvm.memcpy.p0.p0.i64(ptr align 8 %current, ptr align 8 %__x, i64 8, i1 false), !tbaa.struct !52
  ret void
}

; Function Attrs: mustprogress nounwind uwtable
define weak_odr void @_ZNSt6vectorIN6openmc15TallyDerivativeESaIS1_EE4rendEv(ptr dead_on_unwind noalias writable sret(%"class.std::reverse_iterator") align 8 %agg.result, ptr noundef nonnull align 8 dereferenceable(24) %this) #4 comdat align 2 {
entry:
  %result.ptr = alloca ptr, align 8
  %this.addr = alloca ptr, align 8
  %agg.tmp = alloca %"class.__gnu_cxx::__normal_iterator.1", align 8
  store ptr %agg.result, ptr %result.ptr, align 8
  store ptr %this, ptr %this.addr, align 8, !tbaa !33
  %this1 = load ptr, ptr %this.addr, align 8
  %call = call ptr @_ZNSt6vectorIN6openmc15TallyDerivativeESaIS1_EE5beginEv(ptr noundef nonnull align 8 dereferenceable(24) %this1) #3
  %coerce.dive = getelementptr inbounds nuw %"class.__gnu_cxx::__normal_iterator.1", ptr %agg.tmp, i32 0, i32 0
  store ptr %call, ptr %coerce.dive, align 8
  %coerce.dive2 = getelementptr inbounds nuw %"class.__gnu_cxx::__normal_iterator.1", ptr %agg.tmp, i32 0, i32 0
  %0 = load ptr, ptr %coerce.dive2, align 8
  call void @_ZNSt16reverse_iteratorIN9__gnu_cxx17__normal_iteratorIPN6openmc15TallyDerivativeESt6vectorIS3_SaIS3_EEEEEC2ES8_(ptr noundef nonnull align 8 dereferenceable(8) %agg.result, ptr %0) #3
  ret void
}

; Function Attrs: mustprogress nounwind uwtable
define weak_odr void @_ZNKSt6vectorIN6openmc15TallyDerivativeESaIS1_EE4rendEv(ptr dead_on_unwind noalias writable sret(%"class.std::reverse_iterator.2") align 8 %agg.result, ptr noundef nonnull align 8 dereferenceable(24) %this) #4 comdat align 2 {
entry:
  %result.ptr = alloca ptr, align 8
  %this.addr = alloca ptr, align 8
  %agg.tmp = alloca %"class.__gnu_cxx::__normal_iterator", align 8
  store ptr %agg.result, ptr %result.ptr, align 8
  store ptr %this, ptr %this.addr, align 8, !tbaa !33
  %this1 = load ptr, ptr %this.addr, align 8
  %call = call ptr @_ZNKSt6vectorIN6openmc15TallyDerivativeESaIS1_EE5beginEv(ptr noundef nonnull align 8 dereferenceable(24) %this1) #3
  %coerce.dive = getelementptr inbounds nuw %"class.__gnu_cxx::__normal_iterator", ptr %agg.tmp, i32 0, i32 0
  store ptr %call, ptr %coerce.dive, align 8
  %coerce.dive2 = getelementptr inbounds nuw %"class.__gnu_cxx::__normal_iterator", ptr %agg.tmp, i32 0, i32 0
  %0 = load ptr, ptr %coerce.dive2, align 8
  call void @_ZNSt16reverse_iteratorIN9__gnu_cxx17__normal_iteratorIPKN6openmc15TallyDerivativeESt6vectorIS3_SaIS3_EEEEEC2ES9_(ptr noundef nonnull align 8 dereferenceable(8) %agg.result, ptr %0) #3
  ret void
}

; Function Attrs: mustprogress nounwind uwtable
define weak_odr ptr @_ZNKSt6vectorIN6openmc15TallyDerivativeESaIS1_EE6cbeginEv(ptr noundef nonnull align 8 dereferenceable(24) %this) #4 comdat align 2 {
entry:
  %retval = alloca %"class.__gnu_cxx::__normal_iterator", align 8
  %this.addr = alloca ptr, align 8
  store ptr %this, ptr %this.addr, align 8, !tbaa !33
  %this1 = load ptr, ptr %this.addr, align 8
  %_M_impl = getelementptr inbounds nuw %"struct.std::_Vector_base", ptr %this1, i32 0, i32 0
  %_M_start = getelementptr inbounds nuw %"struct.std::_Vector_base<openmc::TallyDerivative, std::allocator<openmc::TallyDerivative>>::_Vector_impl_data", ptr %_M_impl, i32 0, i32 0
  call void @_ZN9__gnu_cxx17__normal_iteratorIPKN6openmc15TallyDerivativeESt6vectorIS2_SaIS2_EEEC2ERKS4_(ptr noundef nonnull align 8 dereferenceable(8) %retval, ptr noundef nonnull align 8 dereferenceable(8) %_M_start) #3
  %coerce.dive = getelementptr inbounds nuw %"class.__gnu_cxx::__normal_iterator", ptr %retval, i32 0, i32 0
  %0 = load ptr, ptr %coerce.dive, align 8
  ret ptr %0
}

; Function Attrs: mustprogress nounwind uwtable
define weak_odr ptr @_ZNKSt6vectorIN6openmc15TallyDerivativeESaIS1_EE4cendEv(ptr noundef nonnull align 8 dereferenceable(24) %this) #4 comdat align 2 {
entry:
  %retval = alloca %"class.__gnu_cxx::__normal_iterator", align 8
  %this.addr = alloca ptr, align 8
  store ptr %this, ptr %this.addr, align 8, !tbaa !33
  %this1 = load ptr, ptr %this.addr, align 8
  %_M_impl = getelementptr inbounds nuw %"struct.std::_Vector_base", ptr %this1, i32 0, i32 0
  %_M_finish = getelementptr inbounds nuw %"struct.std::_Vector_base<openmc::TallyDerivative, std::allocator<openmc::TallyDerivative>>::_Vector_impl_data", ptr %_M_impl, i32 0, i32 1
  call void @_ZN9__gnu_cxx17__normal_iteratorIPKN6openmc15TallyDerivativeESt6vectorIS2_SaIS2_EEEC2ERKS4_(ptr noundef nonnull align 8 dereferenceable(8) %retval, ptr noundef nonnull align 8 dereferenceable(8) %_M_finish) #3
  %coerce.dive = getelementptr inbounds nuw %"class.__gnu_cxx::__normal_iterator", ptr %retval, i32 0, i32 0
  %0 = load ptr, ptr %coerce.dive, align 8
  ret ptr %0
}

; Function Attrs: mustprogress nounwind uwtable
define weak_odr void @_ZNKSt6vectorIN6openmc15TallyDerivativeESaIS1_EE7crbeginEv(ptr dead_on_unwind noalias writable sret(%"class.std::reverse_iterator.2") align 8 %agg.result, ptr noundef nonnull align 8 dereferenceable(24) %this) #4 comdat align 2 {
entry:
  %result.ptr = alloca ptr, align 8
  %this.addr = alloca ptr, align 8
  %agg.tmp = alloca %"class.__gnu_cxx::__normal_iterator", align 8
  store ptr %agg.result, ptr %result.ptr, align 8
  store ptr %this, ptr %this.addr, align 8, !tbaa !33
  %this1 = load ptr, ptr %this.addr, align 8
  %call = call ptr @_ZNKSt6vectorIN6openmc15TallyDerivativeESaIS1_EE3endEv(ptr noundef nonnull align 8 dereferenceable(24) %this1) #3
  %coerce.dive = getelementptr inbounds nuw %"class.__gnu_cxx::__normal_iterator", ptr %agg.tmp, i32 0, i32 0
  store ptr %call, ptr %coerce.dive, align 8
  %coerce.dive2 = getelementptr inbounds nuw %"class.__gnu_cxx::__normal_iterator", ptr %agg.tmp, i32 0, i32 0
  %0 = load ptr, ptr %coerce.dive2, align 8
  call void @_ZNSt16reverse_iteratorIN9__gnu_cxx17__normal_iteratorIPKN6openmc15TallyDerivativeESt6vectorIS3_SaIS3_EEEEEC2ES9_(ptr noundef nonnull align 8 dereferenceable(8) %agg.result, ptr %0) #3
  ret void
}

; Function Attrs: mustprogress nounwind uwtable
define weak_odr void @_ZNKSt6vectorIN6openmc15TallyDerivativeESaIS1_EE5crendEv(ptr dead_on_unwind noalias writable sret(%"class.std::reverse_iterator.2") align 8 %agg.result, ptr noundef nonnull align 8 dereferenceable(24) %this) #4 comdat align 2 {
entry:
  %result.ptr = alloca ptr, align 8
  %this.addr = alloca ptr, align 8
  %agg.tmp = alloca %"class.__gnu_cxx::__normal_iterator", align 8
  store ptr %agg.result, ptr %result.ptr, align 8
  store ptr %this, ptr %this.addr, align 8, !tbaa !33
  %this1 = load ptr, ptr %this.addr, align 8
  %call = call ptr @_ZNKSt6vectorIN6openmc15TallyDerivativeESaIS1_EE5beginEv(ptr noundef nonnull align 8 dereferenceable(24) %this1) #3
  %coerce.dive = getelementptr inbounds nuw %"class.__gnu_cxx::__normal_iterator", ptr %agg.tmp, i32 0, i32 0
  store ptr %call, ptr %coerce.dive, align 8
  %coerce.dive2 = getelementptr inbounds nuw %"class.__gnu_cxx::__normal_iterator", ptr %agg.tmp, i32 0, i32 0
  %0 = load ptr, ptr %coerce.dive2, align 8
  call void @_ZNSt16reverse_iteratorIN9__gnu_cxx17__normal_iteratorIPKN6openmc15TallyDerivativeESt6vectorIS3_SaIS3_EEEEEC2ES9_(ptr noundef nonnull align 8 dereferenceable(8) %agg.result, ptr %0) #3
  ret void
}

; Function Attrs: mustprogress nounwind uwtable
define weak_odr noundef i64 @_ZNKSt6vectorIN6openmc15TallyDerivativeESaIS1_EE8max_sizeEv(ptr noundef nonnull align 8 dereferenceable(24) %this) #4 comdat align 2 {
entry:
  %this.addr = alloca ptr, align 8
  store ptr %this, ptr %this.addr, align 8, !tbaa !33
  %this1 = load ptr, ptr %this.addr, align 8
