; ModuleID = 'progress_bar-host-x86_64-unknown-linux-gnu.bc'
source_filename = "/g/g0/wright117/workspace/openmc/openmc-omp/openmc/src/progress_bar.cpp"
target datalayout = "e-m:e-p270:32:32-p271:32:32-p272:64:64-i64:64-i128:128-f80:128-n8:16:32:64-S128"
target triple = "x86_64-unknown-linux-gnu"

%"class.std::ios_base::Init" = type { i8 }
%"class.std::basic_ostream" = type { ptr, %"class.std::basic_ios" }
%"class.std::basic_ios" = type { %"class.std::ios_base", ptr, i8, i8, ptr, ptr, ptr, ptr }
%"class.std::ios_base" = type { ptr, i64, i64, i32, i32, i32, ptr, %"struct.std::ios_base::_Words", [8 x %"struct.std::ios_base::_Words"], i32, ptr, %"class.std::locale" }
%"struct.std::ios_base::_Words" = type { ptr, i64 }
%"class.std::locale" = type { ptr }
%class.ProgressBar = type { %"class.std::__cxx11::basic_string", [72 x i8] }
%"class.std::__cxx11::basic_string" = type { %"struct.std::__cxx11::basic_string<char>::_Alloc_hider", i64, %union.anon }
%"struct.std::__cxx11::basic_string<char>::_Alloc_hider" = type { ptr }
%union.anon = type { i64, [8 x i8] }
%"class.std::allocator" = type { i8 }
%"class.std::__cxx11::basic_stringstream" = type { %"class.std::basic_iostream.base", %"class.std::__cxx11::basic_stringbuf", %"class.std::basic_ios" }
%"class.std::basic_iostream.base" = type { %"class.std::basic_istream.base", %"class.std::basic_ostream.base" }
%"class.std::basic_istream.base" = type { ptr, i64 }
%"class.std::basic_ostream.base" = type { ptr }
%"class.std::__cxx11::basic_stringbuf" = type { %"class.std::basic_streambuf", i32, %"class.std::__cxx11::basic_string" }
%"class.std::basic_streambuf" = type { ptr, ptr, ptr, ptr, ptr, ptr, ptr, %"class.std::locale" }
%"struct.std::_Setfill" = type { i8 }
%"struct.std::_Setw" = type { i32 }
%"class.std::basic_istream" = type { ptr, i64, %"class.std::basic_ios" }
%"class.std::ctype" = type <{ %"class.std::locale::facet.base", [4 x i8], ptr, i8, [7 x i8], ptr, ptr, ptr, i8, [256 x i8], [256 x i8], i8, [6 x i8] }>
%"class.std::locale::facet.base" = type <{ ptr, i32 }>
%"class.__gnu_cxx::__normal_iterator" = type { ptr }
%"class.__gnu_cxx::__normal_iterator.0" = type { ptr }

$__clang_call_terminate = comdat any

$_ZNSt19__ptr_traits_ptr_toIPccLb0EE10pointer_toERc = comdat any

$_ZNSt15__new_allocatorIcEC2Ev = comdat any

$_ZNSt15__new_allocatorIcEC2ERKS0_ = comdat any

$_ZNSt11char_traitsIcE6assignERcRKc = comdat any

$_ZNSt15__new_allocatorIcED2Ev = comdat any

$_ZNSt19__ptr_traits_ptr_toIPKcS0_Lb0EE10pointer_toERS0_ = comdat any

$_ZNSt16allocator_traitsISaIcEE10deallocateERS0_Pcm = comdat any

$_ZNSt15__new_allocatorIcE10deallocateEPcm = comdat any

$_ZSt7setfillIcESt8_SetfillIT_ES1_ = comdat any

$_ZSt4setwi = comdat any

$_ZNSt11char_traitsIcE6lengthEPKc = comdat any

$_ZNSt16allocator_traitsISaIcEE8max_sizeERKS0_ = comdat any

$_ZNKSt15__new_allocatorIcE8max_sizeEv = comdat any

$_ZNKSt15__new_allocatorIcE11_M_max_sizeEv = comdat any

$_ZStorSt13_Ios_OpenmodeS_ = comdat any

$_ZNSt7__cxx1115basic_stringbufIcSt11char_traitsIcESaIcEED2Ev = comdat any

$_ZNSt8ios_base5widthEl = comdat any

$_ZSt13__check_facetISt5ctypeIcEERKT_PS3_ = comdat any

$_ZNKSt5ctypeIcE5widenEc = comdat any

$_ZNSt7__cxx1112basic_stringIcSt11char_traitsIcESaIcEE6assignIPcvEERS4_T_S8_ = comdat any

$_ZN9__gnu_cxx17__normal_iteratorIPKcNSt7__cxx1112basic_stringIcSt11char_traitsIcESaIcEEEEC2IPcvEERKNS0_IT_S8_EE = comdat any

$_ZN9__gnu_cxxmiIPKcPcNSt7__cxx1112basic_stringIcSt11char_traitsIcESaIcEEEEEDTmicldtfp_4baseEcldtfp0_4baseEERKNS_17__normal_iteratorIT_T1_EERKNSB_IT0_SD_EE = comdat any

$_ZN9__gnu_cxxmiIPKcNSt7__cxx1112basic_stringIcSt11char_traitsIcESaIcEEEEENS_17__normal_iteratorIT_T0_E15difference_typeERKSC_SF_ = comdat any

$_ZNK9__gnu_cxx17__normal_iteratorIPKcNSt7__cxx1112basic_stringIcSt11char_traitsIcESaIcEEEE4baseEv = comdat any

$_ZNK9__gnu_cxx17__normal_iteratorIPcNSt7__cxx1112basic_stringIcSt11char_traitsIcESaIcEEEE4baseEv = comdat any

$_ZN9__gnu_cxx17__normal_iteratorIPcNSt7__cxx1112basic_stringIcSt11char_traitsIcESaIcEEEEC2ERKS1_ = comdat any

$_ZNKSt8ios_base5widthEv = comdat any

$_ZStorSt12_Ios_IostateS_ = comdat any

@_ZStL8__ioinit = internal global %"class.std::ios_base::Init" zeroinitializer, align 1
@__dso_handle = external hidden global i8
@.str = private unnamed_addr constant [72 x i8] c"???% |                                                                |\00", align 1
@.str.1 = private unnamed_addr constant [4 x i8] c"100\00", align 1
@.str.2 = private unnamed_addr constant [4 x i8] c"  0\00", align 1
@.str.3 = private unnamed_addr constant [4 x i8] c"% |\00", align 1
@.str.4 = private unnamed_addr constant [3 x i8] c"|+\00", align 1
@_ZSt4cout = external global %"class.std::basic_ostream", align 8
@.str.5 = private unnamed_addr constant [2 x i8] c"\0A\00", align 1
@.str.6 = private unnamed_addr constant [1 x i8] zeroinitializer, align 1
@.str.7 = private unnamed_addr constant [21 x i8] c"basic_string::append\00", align 1
@_ZTVNSt7__cxx1118basic_stringstreamIcSt11char_traitsIcESaIcEEE = external unnamed_addr constant { [5 x ptr], [5 x ptr], [5 x ptr] }, align 8
@_ZTTNSt7__cxx1118basic_stringstreamIcSt11char_traitsIcESaIcEEE = external unnamed_addr constant [10 x ptr], align 8
@_ZTVSt9basic_iosIcSt11char_traitsIcEE = external unnamed_addr constant { [4 x ptr] }, align 8
@_ZTVNSt7__cxx1115basic_stringbufIcSt11char_traitsIcESaIcEEE = external unnamed_addr constant { [16 x ptr] }, align 8
@_ZTVSt15basic_streambufIcSt11char_traitsIcEE = external unnamed_addr constant { [16 x ptr] }, align 8
@.str.8 = private unnamed_addr constant [22 x i8] c"basic_string::replace\00", align 1
@.str.9 = private unnamed_addr constant [55 x i8] c"%s: __pos (which is %zu) > this->size() (which is %zu)\00", align 1
@llvm.global_ctors = appending global [1 x { i32, ptr, ptr }] [{ i32, ptr, ptr } { i32 65535, ptr @_GLOBAL__sub_I_progress_bar.cpp, ptr null }]

@_ZN11ProgressBarC1Ev = unnamed_addr alias void (ptr), ptr @_ZN11ProgressBarC2Ev

; Function Attrs: uwtable
define internal void @__cxx_global_var_init() #0 section ".text.startup" {
entry:
  call void @_ZNSt8ios_base4InitC1Ev(ptr noundef nonnull align 1 dereferenceable(1) @_ZStL8__ioinit)
  %0 = call i32 @__cxa_atexit(ptr @_ZNSt8ios_base4InitD1Ev, ptr @_ZStL8__ioinit, ptr @__dso_handle) #3
  ret void
}

declare void @_ZNSt8ios_base4InitC1Ev(ptr noundef nonnull align 1 dereferenceable(1)) unnamed_addr #1

; Function Attrs: nounwind
declare void @_ZNSt8ios_base4InitD1Ev(ptr noundef nonnull align 1 dereferenceable(1)) unnamed_addr #2

; Function Attrs: nounwind
declare i32 @__cxa_atexit(ptr, ptr, ptr) #3

; Function Attrs: mustprogress nounwind uwtable
define noundef zeroext i1 @_Z11is_terminalv() #4 {
entry:
  %call = call i32 @isatty(i32 noundef 1) #3
  %cmp = icmp ne i32 %call, 0
  ret i1 %cmp
}

; Function Attrs: nounwind
declare i32 @isatty(i32 noundef) #2

; Function Attrs: mustprogress uwtable
define void @_ZN11ProgressBarC2Ev(ptr noundef nonnull align 8 dereferenceable(104) %this) unnamed_addr #5 align 2 personality ptr @__gxx_personality_v0 {
entry:
  %this.addr = alloca ptr, align 8
  %exn.slot = alloca ptr, align 8
  %ehselector.slot = alloca i32, align 4
  store ptr %this, ptr %this.addr, align 8, !tbaa !5
  %this1 = load ptr, ptr %this.addr, align 8
  %bar = getelementptr inbounds nuw %class.ProgressBar, ptr %this1, i32 0, i32 0
  call void @_ZNSt7__cxx1112basic_stringIcSt11char_traitsIcESaIcEEC2Ev(ptr noundef nonnull align 8 dereferenceable(32) %bar) #3
  %bar_old = getelementptr inbounds nuw %class.ProgressBar, ptr %this1, i32 0, i32 1
  call void @llvm.memcpy.p0.p0.i64(ptr align 8 %bar_old, ptr align 1 @.str, i64 72, i1 false), !tbaa.struct !10
  invoke void @_ZN11ProgressBar9set_valueEd(ptr noundef nonnull align 8 dereferenceable(104) %this1, double noundef 0.000000e+00)
          to label %invoke.cont unwind label %lpad

invoke.cont:                                      ; preds = %entry
  ret void

lpad:                                             ; preds = %entry
  %0 = landingpad { ptr, i32 }
          cleanup
  %1 = extractvalue { ptr, i32 } %0, 0
  store ptr %1, ptr %exn.slot, align 8
  %2 = extractvalue { ptr, i32 } %0, 1
  store i32 %2, ptr %ehselector.slot, align 4
  call void @_ZNSt7__cxx1112basic_stringIcSt11char_traitsIcESaIcEED2Ev(ptr noundef nonnull align 8 dereferenceable(32) %bar) #3
  br label %eh.resume

eh.resume:                                        ; preds = %lpad
  %exn = load ptr, ptr %exn.slot, align 8
  %sel = load i32, ptr %ehselector.slot, align 4
  %lpad.val = insertvalue { ptr, i32 } poison, ptr %exn, 0
  %lpad.val2 = insertvalue { ptr, i32 } %lpad.val, i32 %sel, 1
  resume { ptr, i32 } %lpad.val2
}

; Function Attrs: mustprogress nounwind uwtable
define available_externally void @_ZNSt7__cxx1112basic_stringIcSt11char_traitsIcESaIcEEC2Ev(ptr noundef nonnull align 8 dereferenceable(32) %this) unnamed_addr #4 align 2 personality ptr @__gxx_personality_v0 {
entry:
  %this.addr = alloca ptr, align 8
  %ref.tmp = alloca %"class.std::allocator", align 1
  store ptr %this, ptr %this.addr, align 8, !tbaa !12
  %this1 = load ptr, ptr %this.addr, align 8
  %_M_dataplus = getelementptr inbounds nuw %"class.std::__cxx11::basic_string", ptr %this1, i32 0, i32 0
  %call = invoke noundef ptr @_ZNSt7__cxx1112basic_stringIcSt11char_traitsIcESaIcEE13_M_local_dataEv(ptr noundef nonnull align 8 dereferenceable(32) %this1)
          to label %invoke.cont unwind label %terminate.lpad

invoke.cont:                                      ; preds = %entry
  call void @llvm.lifetime.start.p0(i64 1, ptr %ref.tmp) #3
  call void @_ZNSaIcEC2Ev(ptr noundef nonnull align 1 dereferenceable(1) %ref.tmp) #3
  invoke void @_ZNSt7__cxx1112basic_stringIcSt11char_traitsIcESaIcEE12_Alloc_hiderC2EPcOS3_(ptr noundef nonnull align 8 dereferenceable(8) %_M_dataplus, ptr noundef %call, ptr noundef nonnull align 1 dereferenceable(1) %ref.tmp)
          to label %invoke.cont2 unwind label %terminate.lpad

invoke.cont2:                                     ; preds = %invoke.cont
  call void @_ZNSt15__new_allocatorIcED2Ev(ptr noundef nonnull align 1 dereferenceable(1) %ref.tmp) #3
  call void @llvm.lifetime.end.p0(i64 1, ptr %ref.tmp) #3
  %call3 = call noundef ptr @_ZNSt7__cxx1112basic_stringIcSt11char_traitsIcESaIcEE17_M_use_local_dataEv(ptr noundef nonnull align 8 dereferenceable(32) %this1) #3
  invoke void @_ZNSt7__cxx1112basic_stringIcSt11char_traitsIcESaIcEE13_M_set_lengthEm(ptr noundef nonnull align 8 dereferenceable(32) %this1, i64 noundef 0)
          to label %invoke.cont4 unwind label %terminate.lpad

invoke.cont4:                                     ; preds = %invoke.cont2
  ret void

terminate.lpad:                                   ; preds = %invoke.cont2, %invoke.cont, %entry
  %0 = landingpad { ptr, i32 }
          catch ptr null
  %1 = extractvalue { ptr, i32 } %0, 0
  call void @__clang_call_terminate(ptr %1) #15
  unreachable
}

; Function Attrs: nocallback nofree nounwind willreturn memory(argmem: readwrite)
declare void @llvm.memcpy.p0.p0.i64(ptr noalias writeonly captures(none), ptr noalias readonly captures(none), i64, i1 immarg) #6

; Function Attrs: mustprogress uwtable
define void @_ZN11ProgressBar9set_valueEd(ptr noundef nonnull align 8 dereferenceable(104) %this, double noundef %val) #5 align 2 personality ptr @__gxx_personality_v0 {
entry:
  %this.addr = alloca ptr, align 8
  %val.addr = alloca double, align 8
  %ss = alloca %"class.std::__cxx11::basic_stringstream", align 8
  %agg.tmp = alloca %"struct.std::_Setfill", align 1
  %exn.slot = alloca ptr, align 8
  %ehselector.slot = alloca i32, align 4
  %agg.tmp13 = alloca %"struct.std::_Setw", align 4
  %ref.tmp = alloca %"class.std::__cxx11::basic_string", align 8
  %remaining_width = alloca i32, align 4
  %width = alloca i32, align 4
  store ptr %this, ptr %this.addr, align 8, !tbaa !5
  store double %val, ptr %val.addr, align 8, !tbaa !14
  %this1 = load ptr, ptr %this.addr, align 8
  %call = call noundef zeroext i1 @_Z11is_terminalv()
  br i1 %call, label %if.end, label %if.then

if.then:                                          ; preds = %entry
  br label %return

if.end:                                           ; preds = %entry
  %0 = load double, ptr %val.addr, align 8, !tbaa !14
  %cmp = fcmp oge double %0, 1.000000e+02
  br i1 %cmp, label %if.then2, label %if.else

if.then2:                                         ; preds = %if.end
  %bar = getelementptr inbounds nuw %class.ProgressBar, ptr %this1, i32 0, i32 0
  %call3 = call noundef nonnull align 8 dereferenceable(32) ptr @_ZNSt7__cxx1112basic_stringIcSt11char_traitsIcESaIcEE6appendEPKc(ptr noundef nonnull align 8 dereferenceable(32) %bar, ptr noundef @.str.1)
  br label %if.end31

if.else:                                          ; preds = %if.end
  %1 = load double, ptr %val.addr, align 8, !tbaa !14
  %cmp4 = fcmp ole double %1, 0.000000e+00
  br i1 %cmp4, label %if.then5, label %if.else8

if.then5:                                         ; preds = %if.else
  %bar6 = getelementptr inbounds nuw %class.ProgressBar, ptr %this1, i32 0, i32 0
  %call7 = call noundef nonnull align 8 dereferenceable(32) ptr @_ZNSt7__cxx1112basic_stringIcSt11char_traitsIcESaIcEE6appendEPKc(ptr noundef nonnull align 8 dereferenceable(32) %bar6, ptr noundef @.str.2)
  br label %if.end30

if.else8:                                         ; preds = %if.else
  call void @llvm.lifetime.start.p0(i64 392, ptr %ss) #3
  call void @_ZNSt7__cxx1118basic_stringstreamIcSt11char_traitsIcESaIcEEC1Ev(ptr noundef nonnull align 8 dereferenceable(128) %ss)
  %add.ptr = getelementptr inbounds i8, ptr %ss, i64 16
  %call9 = invoke i8 @_ZSt7setfillIcESt8_SetfillIT_ES1_(i8 noundef signext 32)
          to label %invoke.cont unwind label %lpad

invoke.cont:                                      ; preds = %if.else8
  %coerce.dive = getelementptr inbounds nuw %"struct.std::_Setfill", ptr %agg.tmp, i32 0, i32 0
  store i8 %call9, ptr %coerce.dive, align 1
  %coerce.dive10 = getelementptr inbounds nuw %"struct.std::_Setfill", ptr %agg.tmp, i32 0, i32 0
  %2 = load i8, ptr %coerce.dive10, align 1
  %call12 = invoke noundef nonnull align 8 dereferenceable(8) ptr @_ZStlsIcSt11char_traitsIcEERSt13basic_ostreamIT_T0_ES6_St8_SetfillIS3_E(ptr noundef nonnull align 8 dereferenceable(8) %add.ptr, i8 %2)
          to label %invoke.cont11 unwind label %lpad

invoke.cont11:                                    ; preds = %invoke.cont
  %call15 = invoke i32 @_ZSt4setwi(i32 noundef 3)
          to label %invoke.cont14 unwind label %lpad

invoke.cont14:                                    ; preds = %invoke.cont11
  %coerce.dive16 = getelementptr inbounds nuw %"struct.std::_Setw", ptr %agg.tmp13, i32 0, i32 0
  store i32 %call15, ptr %coerce.dive16, align 4
  %coerce.dive17 = getelementptr inbounds nuw %"struct.std::_Setw", ptr %agg.tmp13, i32 0, i32 0
  %3 = load i32, ptr %coerce.dive17, align 4
  %call19 = invoke noundef nonnull align 8 dereferenceable(8) ptr @_ZStlsIcSt11char_traitsIcEERSt13basic_ostreamIT_T0_ES6_St5_Setw(ptr noundef nonnull align 8 dereferenceable(8) %call12, i32 %3)
          to label %invoke.cont18 unwind label %lpad

invoke.cont18:                                    ; preds = %invoke.cont14
  %4 = load double, ptr %val.addr, align 8, !tbaa !14
  %conv = fptosi double %4 to i32
  %call21 = invoke noundef nonnull align 8 dereferenceable(8) ptr @_ZNSolsEi(ptr noundef nonnull align 8 dereferenceable(8) %call19, i32 noundef %conv)
          to label %invoke.cont20 unwind label %lpad

invoke.cont20:                                    ; preds = %invoke.cont18
  %bar22 = getelementptr inbounds nuw %class.ProgressBar, ptr %this1, i32 0, i32 0
  call void @llvm.lifetime.start.p0(i64 32, ptr %ref.tmp) #3
  invoke void @_ZNKSt7__cxx1118basic_stringstreamIcSt11char_traitsIcESaIcEE3strEv(ptr dead_on_unwind writable sret(%"class.std::__cxx11::basic_string") align 8 %ref.tmp, ptr noundef nonnull align 8 dereferenceable(128) %ss)
          to label %invoke.cont24 unwind label %lpad23

invoke.cont24:                                    ; preds = %invoke.cont20
  %call27 = invoke noundef nonnull align 8 dereferenceable(32) ptr @_ZNSt7__cxx1112basic_stringIcSt11char_traitsIcESaIcEE6appendERKS4_(ptr noundef nonnull align 8 dereferenceable(32) %bar22, ptr noundef nonnull align 8 dereferenceable(32) %ref.tmp)
          to label %invoke.cont26 unwind label %lpad25

invoke.cont26:                                    ; preds = %invoke.cont24
  call void @_ZNSt7__cxx1112basic_stringIcSt11char_traitsIcESaIcEED2Ev(ptr noundef nonnull align 8 dereferenceable(32) %ref.tmp) #3
  call void @llvm.lifetime.end.p0(i64 32, ptr %ref.tmp) #3
  call void @_ZNSt7__cxx1118basic_stringstreamIcSt11char_traitsIcESaIcEED1Ev(ptr noundef nonnull align 8 dereferenceable(128) %ss) #3
  call void @llvm.lifetime.end.p0(i64 392, ptr %ss) #3
  br label %if.end30

lpad:                                             ; preds = %invoke.cont18, %invoke.cont14, %invoke.cont11, %invoke.cont, %if.else8
  %5 = landingpad { ptr, i32 }
          cleanup
  %6 = extractvalue { ptr, i32 } %5, 0
  store ptr %6, ptr %exn.slot, align 8
  %7 = extractvalue { ptr, i32 } %5, 1
  store i32 %7, ptr %ehselector.slot, align 4
  br label %ehcleanup28

lpad23:                                           ; preds = %invoke.cont20
  %8 = landingpad { ptr, i32 }
          cleanup
  %9 = extractvalue { ptr, i32 } %8, 0
  store ptr %9, ptr %exn.slot, align 8
  %10 = extractvalue { ptr, i32 } %8, 1
  store i32 %10, ptr %ehselector.slot, align 4
  br label %ehcleanup

lpad25:                                           ; preds = %invoke.cont24
  %11 = landingpad { ptr, i32 }
          cleanup
  %12 = extractvalue { ptr, i32 } %11, 0
  store ptr %12, ptr %exn.slot, align 8
  %13 = extractvalue { ptr, i32 } %11, 1
  store i32 %13, ptr %ehselector.slot, align 4
  call void @_ZNSt7__cxx1112basic_stringIcSt11char_traitsIcESaIcEED2Ev(ptr noundef nonnull align 8 dereferenceable(32) %ref.tmp) #3
  br label %ehcleanup

ehcleanup:                                        ; preds = %lpad25, %lpad23
  call void @llvm.lifetime.end.p0(i64 32, ptr %ref.tmp) #3
  br label %ehcleanup28

ehcleanup28:                                      ; preds = %ehcleanup, %lpad
  call void @_ZNSt7__cxx1118basic_stringstreamIcSt11char_traitsIcESaIcEED1Ev(ptr noundef nonnull align 8 dereferenceable(128) %ss) #3
  call void @llvm.lifetime.end.p0(i64 392, ptr %ss) #3
  br label %eh.resume

if.end30:                                         ; preds = %invoke.cont26, %if.then5
  br label %if.end31

if.end31:                                         ; preds = %if.end30, %if.then2
  %bar32 = getelementptr inbounds nuw %class.ProgressBar, ptr %this1, i32 0, i32 0
  %call33 = call noundef nonnull align 8 dereferenceable(32) ptr @_ZNSt7__cxx1112basic_stringIcSt11char_traitsIcESaIcEE6appendEPKc(ptr noundef nonnull align 8 dereferenceable(32) %bar32, ptr noundef @.str.3)
  call void @llvm.lifetime.start.p0(i64 4, ptr %remaining_width) #3
  %bar34 = getelementptr inbounds nuw %class.ProgressBar, ptr %this1, i32 0, i32 0
  %call35 = call noundef i64 @_ZNKSt7__cxx1112basic_stringIcSt11char_traitsIcESaIcEE4sizeEv(ptr noundef nonnull align 8 dereferenceable(32) %bar34) #3
  %sub = sub i64 72, %call35
  %sub36 = sub i64 %sub, 2
  %conv37 = trunc i64 %sub36 to i32
  store i32 %conv37, ptr %remaining_width, align 4, !tbaa !16
  %14 = load double, ptr %val.addr, align 8, !tbaa !14
  %cmp38 = fcmp oge double %14, 1.000000e+02
  br i1 %cmp38, label %if.then39, label %if.else43

if.then39:                                        ; preds = %if.end31
  %bar40 = getelementptr inbounds nuw %class.ProgressBar, ptr %this1, i32 0, i32 0
  %15 = load i32, ptr %remaining_width, align 4, !tbaa !16
  %conv41 = sext i32 %15 to i64
  %call42 = call noundef nonnull align 8 dereferenceable(32) ptr @_ZNSt7__cxx1112basic_stringIcSt11char_traitsIcESaIcEE6appendEmc(ptr noundef nonnull align 8 dereferenceable(32) %bar40, i64 noundef %conv41, i8 noundef signext 61)
  br label %if.end63

if.else43:                                        ; preds = %if.end31
  %16 = load double, ptr %val.addr, align 8, !tbaa !14
  %cmp44 = fcmp olt double %16, 0.000000e+00
  br i1 %cmp44, label %if.then45, label %if.else49

if.then45:                                        ; preds = %if.else43
  %bar46 = getelementptr inbounds nuw %class.ProgressBar, ptr %this1, i32 0, i32 0
  %17 = load i32, ptr %remaining_width, align 4, !tbaa !16
  %conv47 = sext i32 %17 to i64
  %call48 = call noundef nonnull align 8 dereferenceable(32) ptr @_ZNSt7__cxx1112basic_stringIcSt11char_traitsIcESaIcEE6appendEmc(ptr noundef nonnull align 8 dereferenceable(32) %bar46, i64 noundef %conv47, i8 noundef signext 32)
  br label %if.end62

if.else49:                                        ; preds = %if.else43
  call void @llvm.lifetime.start.p0(i64 4, ptr %width) #3
  %18 = load i32, ptr %remaining_width, align 4, !tbaa !16
  %conv50 = sitofp i32 %18 to double
  %19 = load double, ptr %val.addr, align 8, !tbaa !14
  %mul = fmul double %conv50, %19
  %div = fdiv double %mul, 1.000000e+02
  %conv51 = fptosi double %div to i32
  store i32 %conv51, ptr %width, align 4, !tbaa !16
  %bar52 = getelementptr inbounds nuw %class.ProgressBar, ptr %this1, i32 0, i32 0
  %20 = load i32, ptr %width, align 4, !tbaa !16
  %conv53 = sext i32 %20 to i64
  %call54 = call noundef nonnull align 8 dereferenceable(32) ptr @_ZNSt7__cxx1112basic_stringIcSt11char_traitsIcESaIcEE6appendEmc(ptr noundef nonnull align 8 dereferenceable(32) %bar52, i64 noundef %conv53, i8 noundef signext 61)
  %bar55 = getelementptr inbounds nuw %class.ProgressBar, ptr %this1, i32 0, i32 0
  %call56 = call noundef nonnull align 8 dereferenceable(32) ptr @_ZNSt7__cxx1112basic_stringIcSt11char_traitsIcESaIcEE6appendEmc(ptr noundef nonnull align 8 dereferenceable(32) %bar55, i64 noundef 1, i8 noundef signext 62)
  %bar57 = getelementptr inbounds nuw %class.ProgressBar, ptr %this1, i32 0, i32 0
  %21 = load i32, ptr %remaining_width, align 4, !tbaa !16
  %22 = load i32, ptr %width, align 4, !tbaa !16
  %sub58 = sub nsw i32 %21, %22
  %sub59 = sub nsw i32 %sub58, 1
  %conv60 = sext i32 %sub59 to i64
  %call61 = call noundef nonnull align 8 dereferenceable(32) ptr @_ZNSt7__cxx1112basic_stringIcSt11char_traitsIcESaIcEE6appendEmc(ptr noundef nonnull align 8 dereferenceable(32) %bar57, i64 noundef %conv60, i8 noundef signext 32)
  call void @llvm.lifetime.end.p0(i64 4, ptr %width) #3
  br label %if.end62

if.end62:                                         ; preds = %if.else49, %if.then45
  br label %if.end63

if.end63:                                         ; preds = %if.end62, %if.then39
  %bar64 = getelementptr inbounds nuw %class.ProgressBar, ptr %this1, i32 0, i32 0
  %call65 = call noundef nonnull align 8 dereferenceable(32) ptr @_ZNSt7__cxx1112basic_stringIcSt11char_traitsIcESaIcEE6appendEPKc(ptr noundef nonnull align 8 dereferenceable(32) %bar64, ptr noundef @.str.4)
  %call66 = call noundef nonnull align 8 dereferenceable(8) ptr @_ZStlsISt11char_traitsIcEERSt13basic_ostreamIcT_ES5_c(ptr noundef nonnull align 8 dereferenceable(8) @_ZSt4cout, i8 noundef signext 13)
  %bar67 = getelementptr inbounds nuw %class.ProgressBar, ptr %this1, i32 0, i32 0
  %call68 = call noundef nonnull align 8 dereferenceable(8) ptr @_ZStlsIcSt11char_traitsIcESaIcEERSt13basic_ostreamIT_T0_ES7_RKNSt7__cxx1112basic_stringIS4_S5_T1_EE(ptr noundef nonnull align 8 dereferenceable(8) %call66, ptr noundef nonnull align 8 dereferenceable(32) %bar67)
  %call69 = call noundef nonnull align 8 dereferenceable(8) ptr @_ZNSolsEPFRSoS_E(ptr noundef nonnull align 8 dereferenceable(8) %call68, ptr noundef @_ZSt5flushIcSt11char_traitsIcEERSt13basic_ostreamIT_T0_ES6_)
  %23 = load double, ptr %val.addr, align 8, !tbaa !14
  %cmp70 = fcmp oge double %23, 1.000000e+02
  br i1 %cmp70, label %if.then71, label %if.end73

if.then71:                                        ; preds = %if.end63
  %call72 = call noundef nonnull align 8 dereferenceable(8) ptr @_ZStlsISt11char_traitsIcEERSt13basic_ostreamIcT_ES5_PKc(ptr noundef nonnull align 8 dereferenceable(8) @_ZSt4cout, ptr noundef @.str.5)
  br label %if.end73

if.end73:                                         ; preds = %if.then71, %if.end63
  %bar74 = getelementptr inbounds nuw %class.ProgressBar, ptr %this1, i32 0, i32 0
  %call75 = call noundef nonnull align 8 dereferenceable(32) ptr @_ZNSt7__cxx1112basic_stringIcSt11char_traitsIcESaIcEEaSEPKc(ptr noundef nonnull align 8 dereferenceable(32) %bar74, ptr noundef @.str.6)
  call void @llvm.lifetime.end.p0(i64 4, ptr %remaining_width) #3
  br label %return

return:                                           ; preds = %if.end73, %if.then
  ret void

eh.resume:                                        ; preds = %ehcleanup28
  %exn = load ptr, ptr %exn.slot, align 8
  %sel = load i32, ptr %ehselector.slot, align 4
  %lpad.val = insertvalue { ptr, i32 } poison, ptr %exn, 0
  %lpad.val76 = insertvalue { ptr, i32 } %lpad.val, i32 %sel, 1
  resume { ptr, i32 } %lpad.val76
}

declare i32 @__gxx_personality_v0(...)

; Function Attrs: mustprogress nounwind uwtable
define available_externally void @_ZNSt7__cxx1112basic_stringIcSt11char_traitsIcESaIcEED2Ev(ptr noundef nonnull align 8 dereferenceable(32) %this) unnamed_addr #4 align 2 personality ptr @__gxx_personality_v0 {
entry:
  %this.addr = alloca ptr, align 8
  store ptr %this, ptr %this.addr, align 8, !tbaa !12
  %this1 = load ptr, ptr %this.addr, align 8
  invoke void @_ZNSt7__cxx1112basic_stringIcSt11char_traitsIcESaIcEE10_M_disposeEv(ptr noundef nonnull align 8 dereferenceable(32) %this1)
          to label %invoke.cont unwind label %terminate.lpad

invoke.cont:                                      ; preds = %entry
  %_M_dataplus = getelementptr inbounds nuw %"class.std::__cxx11::basic_string", ptr %this1, i32 0, i32 0
  call void @_ZNSt15__new_allocatorIcED2Ev(ptr noundef nonnull align 8 dereferenceable(8) %_M_dataplus) #3
  ret void

terminate.lpad:                                   ; preds = %entry
  %0 = landingpad { ptr, i32 }
          catch ptr null
  %1 = extractvalue { ptr, i32 } %0, 0
  call void @__clang_call_terminate(ptr %1) #15
  unreachable
}

; Function Attrs: mustprogress nounwind uwtable
define available_externally noundef ptr @_ZNSt7__cxx1112basic_stringIcSt11char_traitsIcESaIcEE13_M_local_dataEv(ptr noundef nonnull align 8 dereferenceable(32) %this) #4 align 2 {
entry:
  %this.addr = alloca ptr, align 8
  store ptr %this, ptr %this.addr, align 8, !tbaa !12
  %this1 = load ptr, ptr %this.addr, align 8
  %0 = getelementptr inbounds nuw %"class.std::__cxx11::basic_string", ptr %this1, i32 0, i32 2
  %arraydecay = getelementptr inbounds [16 x i8], ptr %0, i64 0, i64 0
  %call = call noundef ptr @_ZNSt19__ptr_traits_ptr_toIPccLb0EE10pointer_toERc(ptr noundef nonnull align 1 dereferenceable(1) %arraydecay) #3
  ret ptr %call
}

; Function Attrs: noinline noreturn nounwind uwtable
define linkonce_odr hidden void @__clang_call_terminate(ptr noundef %0) #7 comdat {
  %2 = call ptr @__cxa_begin_catch(ptr %0) #3
  call void @_ZSt9terminatev() #15
  unreachable
}

declare ptr @__cxa_begin_catch(ptr)

declare void @_ZSt9terminatev()

; Function Attrs: nocallback nofree nosync nounwind willreturn memory(argmem: readwrite)
declare void @llvm.lifetime.start.p0(i64 immarg, ptr captures(none)) #8

; Function Attrs: mustprogress nounwind uwtable
define available_externally void @_ZNSaIcEC2Ev(ptr noundef nonnull align 1 dereferenceable(1) %this) unnamed_addr #4 align 2 {
entry:
  %this.addr = alloca ptr, align 8
  store ptr %this, ptr %this.addr, align 8, !tbaa !18
  %this1 = load ptr, ptr %this.addr, align 8
  call void @_ZNSt15__new_allocatorIcEC2Ev(ptr noundef nonnull align 1 dereferenceable(1) %this1) #3
  ret void
}

; Function Attrs: mustprogress nounwind uwtable
define available_externally void @_ZNSt7__cxx1112basic_stringIcSt11char_traitsIcESaIcEE12_Alloc_hiderC2EPcOS3_(ptr noundef nonnull align 8 dereferenceable(8) %this, ptr noundef %__dat, ptr noundef nonnull align 1 dereferenceable(1) %__a) unnamed_addr #4 align 2 {
entry:
  %this.addr = alloca ptr, align 8
  %__dat.addr = alloca ptr, align 8
  %__a.addr = alloca ptr, align 8
  store ptr %this, ptr %this.addr, align 8, !tbaa !20
  store ptr %__dat, ptr %__dat.addr, align 8, !tbaa !22
  store ptr %__a, ptr %__a.addr, align 8, !tbaa !18
  %this1 = load ptr, ptr %this.addr, align 8
  %0 = load ptr, ptr %__a.addr, align 8, !tbaa !18
  call void @_ZNSaIcEC2ERKS_(ptr noundef nonnull align 1 dereferenceable(1) %this1, ptr noundef nonnull align 1 dereferenceable(1) %0) #3
  %_M_p = getelementptr inbounds nuw %"struct.std::__cxx11::basic_string<char>::_Alloc_hider", ptr %this1, i32 0, i32 0
  %1 = load ptr, ptr %__dat.addr, align 8, !tbaa !22
  store ptr %1, ptr %_M_p, align 8, !tbaa !24
  ret void
}

; Function Attrs: nocallback nofree nosync nounwind willreturn memory(argmem: readwrite)
declare void @llvm.lifetime.end.p0(i64 immarg, ptr captures(none)) #8

; Function Attrs: alwaysinline mustprogress nounwind uwtable
define available_externally noundef ptr @_ZNSt7__cxx1112basic_stringIcSt11char_traitsIcESaIcEE17_M_use_local_dataEv(ptr noundef nonnull align 8 dereferenceable(32) %this) #9 align 2 {
entry:
  %this.addr = alloca ptr, align 8
  store ptr %this, ptr %this.addr, align 8, !tbaa !12
  %this1 = load ptr, ptr %this.addr, align 8
  %call = call noundef ptr @_ZNSt7__cxx1112basic_stringIcSt11char_traitsIcESaIcEE13_M_local_dataEv(ptr noundef nonnull align 8 dereferenceable(32) %this1)
  ret ptr %call
}

; Function Attrs: mustprogress uwtable
define available_externally void @_ZNSt7__cxx1112basic_stringIcSt11char_traitsIcESaIcEE13_M_set_lengthEm(ptr noundef nonnull align 8 dereferenceable(32) %this, i64 noundef %__n) #5 align 2 {
entry:
  %this.addr = alloca ptr, align 8
  %__n.addr = alloca i64, align 8
  %ref.tmp = alloca i8, align 1
  store ptr %this, ptr %this.addr, align 8, !tbaa !12
  store i64 %__n, ptr %__n.addr, align 8, !tbaa !26
  %this1 = load ptr, ptr %this.addr, align 8
  %0 = load i64, ptr %__n.addr, align 8, !tbaa !26
  call void @_ZNSt7__cxx1112basic_stringIcSt11char_traitsIcESaIcEE9_M_lengthEm(ptr noundef nonnull align 8 dereferenceable(32) %this1, i64 noundef %0)
  %call = call noundef ptr @_ZNKSt7__cxx1112basic_stringIcSt11char_traitsIcESaIcEE7_M_dataEv(ptr noundef nonnull align 8 dereferenceable(32) %this1)
  %1 = load i64, ptr %__n.addr, align 8, !tbaa !26
  %arrayidx = getelementptr inbounds nuw i8, ptr %call, i64 %1
  call void @llvm.lifetime.start.p0(i64 1, ptr %ref.tmp) #3
  store i8 0, ptr %ref.tmp, align 1, !tbaa !11
  call void @_ZNSt11char_traitsIcE6assignERcRKc(ptr noundef nonnull align 1 dereferenceable(1) %arrayidx, ptr noundef nonnull align 1 dereferenceable(1) %ref.tmp) #3
  call void @llvm.lifetime.end.p0(i64 1, ptr %ref.tmp) #3
  ret void
}

; Function Attrs: mustprogress nounwind uwtable
define linkonce_odr noundef ptr @_ZNSt19__ptr_traits_ptr_toIPccLb0EE10pointer_toERc(ptr noundef nonnull align 1 dereferenceable(1) %__r) #4 comdat align 2 {
entry:
  %__r.addr = alloca ptr, align 8
  store ptr %__r, ptr %__r.addr, align 8, !tbaa !22
  %0 = load ptr, ptr %__r.addr, align 8, !tbaa !22
  ret ptr %0
}

; Function Attrs: mustprogress nounwind uwtable
define linkonce_odr void @_ZNSt15__new_allocatorIcEC2Ev(ptr noundef nonnull align 1 dereferenceable(1) %this) unnamed_addr #4 comdat align 2 {
entry:
  %this.addr = alloca ptr, align 8
  store ptr %this, ptr %this.addr, align 8, !tbaa !28
  %this1 = load ptr, ptr %this.addr, align 8
  ret void
}

; Function Attrs: mustprogress nounwind uwtable
define linkonce_odr void @_ZNSt15__new_allocatorIcEC2ERKS0_(ptr noundef nonnull align 1 dereferenceable(1) %this, ptr noundef nonnull align 1 dereferenceable(1) %0) unnamed_addr #4 comdat align 2 {
entry:
  %this.addr = alloca ptr, align 8
  %.addr = alloca ptr, align 8
  store ptr %this, ptr %this.addr, align 8, !tbaa !28
  store ptr %0, ptr %.addr, align 8, !tbaa !28
  %this1 = load ptr, ptr %this.addr, align 8
  ret void
}

; Function Attrs: mustprogress nounwind uwtable
define available_externally void @_ZNSt7__cxx1112basic_stringIcSt11char_traitsIcESaIcEE9_M_lengthEm(ptr noundef nonnull align 8 dereferenceable(32) %this, i64 noundef %__length) #4 align 2 {
entry:
  %this.addr = alloca ptr, align 8
  %__length.addr = alloca i64, align 8
  store ptr %this, ptr %this.addr, align 8, !tbaa !12
  store i64 %__length, ptr %__length.addr, align 8, !tbaa !26
  %this1 = load ptr, ptr %this.addr, align 8
  %0 = load i64, ptr %__length.addr, align 8, !tbaa !26
  %_M_string_length = getelementptr inbounds nuw %"class.std::__cxx11::basic_string", ptr %this1, i32 0, i32 1
  store i64 %0, ptr %_M_string_length, align 8, !tbaa !30
  ret void
}

; Function Attrs: mustprogress nounwind uwtable
define linkonce_odr void @_ZNSt11char_traitsIcE6assignERcRKc(ptr noundef nonnull align 1 dereferenceable(1) %__c1, ptr noundef nonnull align 1 dereferenceable(1) %__c2) #4 comdat align 2 {
entry:
  %__c1.addr = alloca ptr, align 8
  %__c2.addr = alloca ptr, align 8
  store ptr %__c1, ptr %__c1.addr, align 8, !tbaa !22
  store ptr %__c2, ptr %__c2.addr, align 8, !tbaa !22
  %0 = load ptr, ptr %__c2.addr, align 8, !tbaa !22
  %1 = load i8, ptr %0, align 1, !tbaa !11
  %2 = load ptr, ptr %__c1.addr, align 8, !tbaa !22
  store i8 %1, ptr %2, align 1, !tbaa !11
  ret void
}

; Function Attrs: mustprogress nounwind uwtable
define available_externally noundef ptr @_ZNKSt7__cxx1112basic_stringIcSt11char_traitsIcESaIcEE7_M_dataEv(ptr noundef nonnull align 8 dereferenceable(32) %this) #4 align 2 {
entry:
  %this.addr = alloca ptr, align 8
  store ptr %this, ptr %this.addr, align 8, !tbaa !12
  %this1 = load ptr, ptr %this.addr, align 8
  %_M_dataplus = getelementptr inbounds nuw %"class.std::__cxx11::basic_string", ptr %this1, i32 0, i32 0
  %_M_p = getelementptr inbounds nuw %"struct.std::__cxx11::basic_string<char>::_Alloc_hider", ptr %_M_dataplus, i32 0, i32 0
  %0 = load ptr, ptr %_M_p, align 8, !tbaa !32
  ret ptr %0
}

; Function Attrs: mustprogress uwtable
define available_externally void @_ZNSt7__cxx1112basic_stringIcSt11char_traitsIcESaIcEE10_M_disposeEv(ptr noundef nonnull align 8 dereferenceable(32) %this) #5 align 2 {
entry:
  %this.addr = alloca ptr, align 8
  store ptr %this, ptr %this.addr, align 8, !tbaa !12
  %this1 = load ptr, ptr %this.addr, align 8
  %call = call noundef zeroext i1 @_ZNKSt7__cxx1112basic_stringIcSt11char_traitsIcESaIcEE11_M_is_localEv(ptr noundef nonnull align 8 dereferenceable(32) %this1)
  br i1 %call, label %if.end, label %if.then

if.then:                                          ; preds = %entry
  %0 = getelementptr inbounds nuw %"class.std::__cxx11::basic_string", ptr %this1, i32 0, i32 2
  %1 = load i64, ptr %0, align 8, !tbaa !11
  call void @_ZNSt7__cxx1112basic_stringIcSt11char_traitsIcESaIcEE10_M_destroyEm(ptr noundef nonnull align 8 dereferenceable(32) %this1, i64 noundef %1) #3
  br label %if.end

if.end:                                           ; preds = %if.then, %entry
  ret void
}

; Function Attrs: mustprogress nounwind uwtable
define linkonce_odr void @_ZNSt15__new_allocatorIcED2Ev(ptr noundef nonnull align 1 dereferenceable(1) %this) unnamed_addr #4 comdat align 2 {
entry:
  %this.addr = alloca ptr, align 8
  store ptr %this, ptr %this.addr, align 8, !tbaa !28
  %this1 = load ptr, ptr %this.addr, align 8
  ret void
}

; Function Attrs: mustprogress uwtable
define available_externally noundef zeroext i1 @_ZNKSt7__cxx1112basic_stringIcSt11char_traitsIcESaIcEE11_M_is_localEv(ptr noundef nonnull align 8 dereferenceable(32) %this) #5 align 2 {
entry:
  %this.addr = alloca ptr, align 8
  store ptr %this, ptr %this.addr, align 8, !tbaa !12
  %this1 = load ptr, ptr %this.addr, align 8
  %call = call noundef ptr @_ZNKSt7__cxx1112basic_stringIcSt11char_traitsIcESaIcEE7_M_dataEv(ptr noundef nonnull align 8 dereferenceable(32) %this1)
  %call2 = call noundef ptr @_ZNKSt7__cxx1112basic_stringIcSt11char_traitsIcESaIcEE13_M_local_dataEv(ptr noundef nonnull align 8 dereferenceable(32) %this1)
  %cmp = icmp eq ptr %call, %call2
  ret i1 %cmp
}

; Function Attrs: mustprogress nounwind uwtable
define available_externally void @_ZNSt7__cxx1112basic_stringIcSt11char_traitsIcESaIcEE10_M_destroyEm(ptr noundef nonnull align 8 dereferenceable(32) %this, i64 noundef %__size) #4 align 2 personality ptr @__gxx_personality_v0 {
entry:
  %this.addr = alloca ptr, align 8
  %__size.addr = alloca i64, align 8
  store ptr %this, ptr %this.addr, align 8, !tbaa !12
  store i64 %__size, ptr %__size.addr, align 8, !tbaa !26
  %this1 = load ptr, ptr %this.addr, align 8
  %call = invoke noundef nonnull align 1 dereferenceable(1) ptr @_ZNSt7__cxx1112basic_stringIcSt11char_traitsIcESaIcEE16_M_get_allocatorEv(ptr noundef nonnull align 8 dereferenceable(32) %this1)
          to label %invoke.cont unwind label %terminate.lpad

invoke.cont:                                      ; preds = %entry
  %call2 = call noundef ptr @_ZNKSt7__cxx1112basic_stringIcSt11char_traitsIcESaIcEE7_M_dataEv(ptr noundef nonnull align 8 dereferenceable(32) %this1)
  %0 = load i64, ptr %__size.addr, align 8, !tbaa !26
  %add = add i64 %0, 1
  invoke void @_ZNSt16allocator_traitsISaIcEE10deallocateERS0_Pcm(ptr noundef nonnull align 1 dereferenceable(1) %call, ptr noundef %call2, i64 noundef %add)
          to label %invoke.cont3 unwind label %terminate.lpad

invoke.cont3:                                     ; preds = %invoke.cont
  ret void

terminate.lpad:                                   ; preds = %invoke.cont, %entry
  %1 = landingpad { ptr, i32 }
          catch ptr null
  %2 = extractvalue { ptr, i32 } %1, 0
  call void @__clang_call_terminate(ptr %2) #15
  unreachable
}

; Function Attrs: mustprogress nounwind uwtable
define available_externally noundef ptr @_ZNKSt7__cxx1112basic_stringIcSt11char_traitsIcESaIcEE13_M_local_dataEv(ptr noundef nonnull align 8 dereferenceable(32) %this) #4 align 2 {
entry:
  %this.addr = alloca ptr, align 8
  store ptr %this, ptr %this.addr, align 8, !tbaa !12
  %this1 = load ptr, ptr %this.addr, align 8
  %0 = getelementptr inbounds nuw %"class.std::__cxx11::basic_string", ptr %this1, i32 0, i32 2
  %arraydecay = getelementptr inbounds [16 x i8], ptr %0, i64 0, i64 0
  %call = call noundef ptr @_ZNSt19__ptr_traits_ptr_toIPKcS0_Lb0EE10pointer_toERS0_(ptr noundef nonnull align 1 dereferenceable(1) %arraydecay) #3
  ret ptr %call
}

; Function Attrs: mustprogress nounwind uwtable
define linkonce_odr noundef ptr @_ZNSt19__ptr_traits_ptr_toIPKcS0_Lb0EE10pointer_toERS0_(ptr noundef nonnull align 1 dereferenceable(1) %__r) #4 comdat align 2 {
entry:
  %__r.addr = alloca ptr, align 8
  store ptr %__r, ptr %__r.addr, align 8, !tbaa !22
  %0 = load ptr, ptr %__r.addr, align 8, !tbaa !22
  ret ptr %0
}

; Function Attrs: mustprogress uwtable
define linkonce_odr void @_ZNSt16allocator_traitsISaIcEE10deallocateERS0_Pcm(ptr noundef nonnull align 1 dereferenceable(1) %__a, ptr noundef %__p, i64 noundef %__n) #5 comdat align 2 {
entry:
  %__a.addr = alloca ptr, align 8
  %__p.addr = alloca ptr, align 8
  %__n.addr = alloca i64, align 8
  store ptr %__a, ptr %__a.addr, align 8, !tbaa !18
  store ptr %__p, ptr %__p.addr, align 8, !tbaa !22
  store i64 %__n, ptr %__n.addr, align 8, !tbaa !26
  %0 = load ptr, ptr %__a.addr, align 8, !tbaa !18
  %1 = load ptr, ptr %__p.addr, align 8, !tbaa !22
  %2 = load i64, ptr %__n.addr, align 8, !tbaa !26
  call void @_ZNSt15__new_allocatorIcE10deallocateEPcm(ptr noundef nonnull align 1 dereferenceable(1) %0, ptr noundef %1, i64 noundef %2)
  ret void
}

; Function Attrs: mustprogress nounwind uwtable
define available_externally noundef nonnull align 1 dereferenceable(1) ptr @_ZNSt7__cxx1112basic_stringIcSt11char_traitsIcESaIcEE16_M_get_allocatorEv(ptr noundef nonnull align 8 dereferenceable(32) %this) #4 align 2 {
entry:
  %this.addr = alloca ptr, align 8
  store ptr %this, ptr %this.addr, align 8, !tbaa !12
  %this1 = load ptr, ptr %this.addr, align 8
  %_M_dataplus = getelementptr inbounds nuw %"class.std::__cxx11::basic_string", ptr %this1, i32 0, i32 0
  ret ptr %_M_dataplus
}

; Function Attrs: mustprogress nounwind uwtable
define linkonce_odr void @_ZNSt15__new_allocatorIcE10deallocateEPcm(ptr noundef nonnull align 1 dereferenceable(1) %this, ptr noundef %__p, i64 noundef %__n) #4 comdat align 2 {
entry:
  %this.addr = alloca ptr, align 8
  %__p.addr = alloca ptr, align 8
  %__n.addr = alloca i64, align 8
  store ptr %this, ptr %this.addr, align 8, !tbaa !28
  store ptr %__p, ptr %__p.addr, align 8, !tbaa !22
  store i64 %__n, ptr %__n.addr, align 8, !tbaa !26
  %this1 = load ptr, ptr %this.addr, align 8
  %0 = load ptr, ptr %__p.addr, align 8, !tbaa !22
  %1 = load i64, ptr %__n.addr, align 8, !tbaa !26
  %mul = mul i64 %1, 1
  call void @_ZdlPvm(ptr noundef %0, i64 noundef %mul) #16
  ret void
}

; Function Attrs: nobuiltin nounwind
declare void @_ZdlPvm(ptr noundef, i64 noundef) #10

; Function Attrs: mustprogress uwtable
define available_externally noundef nonnull align 8 dereferenceable(32) ptr @_ZNSt7__cxx1112basic_stringIcSt11char_traitsIcESaIcEE6appendEPKc(ptr noundef nonnull align 8 dereferenceable(32) %this, ptr noundef %__s) #5 align 2 {
entry:
  %this.addr = alloca ptr, align 8
  %__s.addr = alloca ptr, align 8
  %__n = alloca i64, align 8
  store ptr %this, ptr %this.addr, align 8, !tbaa !12
  store ptr %__s, ptr %__s.addr, align 8, !tbaa !22
  %this1 = load ptr, ptr %this.addr, align 8
  call void @llvm.lifetime.start.p0(i64 8, ptr %__n) #3
  %0 = load ptr, ptr %__s.addr, align 8, !tbaa !22
  %call = call noundef i64 @_ZNSt11char_traitsIcE6lengthEPKc(ptr noundef %0)
  store i64 %call, ptr %__n, align 8, !tbaa !26
  %1 = load i64, ptr %__n, align 8, !tbaa !26
  call void @_ZNKSt7__cxx1112basic_stringIcSt11char_traitsIcESaIcEE15_M_check_lengthEmmPKc(ptr noundef nonnull align 8 dereferenceable(32) %this1, i64 noundef 0, i64 noundef %1, ptr noundef @.str.7)
  %2 = load ptr, ptr %__s.addr, align 8, !tbaa !22
  %3 = load i64, ptr %__n, align 8, !tbaa !26
  %call2 = call noundef nonnull align 8 dereferenceable(32) ptr @_ZNSt7__cxx1112basic_stringIcSt11char_traitsIcESaIcEE9_M_appendEPKcm(ptr noundef nonnull align 8 dereferenceable(32) %this1, ptr noundef %2, i64 noundef %3)
  call void @llvm.lifetime.end.p0(i64 8, ptr %__n) #3
  ret ptr %call2
}

; Function Attrs: mustprogress uwtable
define available_externally void @_ZNSt7__cxx1118basic_stringstreamIcSt11char_traitsIcESaIcEEC1Ev(ptr noundef nonnull align 8 dereferenceable(128) %this) unnamed_addr #5 align 2 personality ptr @__gxx_personality_v0 {
entry:
  %this.addr = alloca ptr, align 8
  %exn.slot = alloca ptr, align 8
  %ehselector.slot = alloca i32, align 4
  store ptr %this, ptr %this.addr, align 8, !tbaa !33
  %this1 = load ptr, ptr %this.addr, align 8
  %0 = getelementptr inbounds i8, ptr %this1, i64 128
  call void @_ZNSt9basic_iosIcSt11char_traitsIcEEC2Ev(ptr noundef nonnull align 8 dereferenceable(264) %0)
  invoke void @_ZNSdC2Ev(ptr noundef nonnull align 8 dereferenceable(24) %this1, ptr noundef getelementptr inbounds ([10 x ptr], ptr @_ZTTNSt7__cxx1118basic_stringstreamIcSt11char_traitsIcESaIcEEE, i64 0, i64 1))
          to label %invoke.cont unwind label %lpad

invoke.cont:                                      ; preds = %entry
  store ptr getelementptr inbounds inrange(-24, 16) ({ [5 x ptr], [5 x ptr], [5 x ptr] }, ptr @_ZTVNSt7__cxx1118basic_stringstreamIcSt11char_traitsIcESaIcEEE, i32 0, i32 0, i32 3), ptr %this1, align 8, !tbaa !35
  %add.ptr = getelementptr inbounds i8, ptr %this1, i64 128
  store ptr getelementptr inbounds inrange(-24, 16) ({ [5 x ptr], [5 x ptr], [5 x ptr] }, ptr @_ZTVNSt7__cxx1118basic_stringstreamIcSt11char_traitsIcESaIcEEE, i32 0, i32 2, i32 3), ptr %add.ptr, align 8, !tbaa !35
  %add.ptr2 = getelementptr inbounds i8, ptr %this1, i64 16
  store ptr getelementptr inbounds inrange(-24, 16) ({ [5 x ptr], [5 x ptr], [5 x ptr] }, ptr @_ZTVNSt7__cxx1118basic_stringstreamIcSt11char_traitsIcESaIcEEE, i32 0, i32 1, i32 3), ptr %add.ptr2, align 8, !tbaa !35
  %_M_stringbuf = getelementptr inbounds nuw %"class.std::__cxx11::basic_stringstream", ptr %this1, i32 0, i32 1
  %call = invoke noundef i32 @_ZStorSt13_Ios_OpenmodeS_(i32 noundef 16, i32 noundef 8)
          to label %invoke.cont4 unwind label %lpad3

invoke.cont4:                                     ; preds = %invoke.cont
  invoke void @_ZNSt7__cxx1115basic_stringbufIcSt11char_traitsIcESaIcEEC2ESt13_Ios_Openmode(ptr noundef nonnull align 8 dereferenceable(104) %_M_stringbuf, i32 noundef %call)
          to label %invoke.cont5 unwind label %lpad3

invoke.cont5:                                     ; preds = %invoke.cont4
  %vtable = load ptr, ptr %this1, align 8, !tbaa !35
  %vbase.offset.ptr = getelementptr i8, ptr %vtable, i64 -24
  %vbase.offset = load i64, ptr %vbase.offset.ptr, align 8
  %add.ptr6 = getelementptr inbounds i8, ptr %this1, i64 %vbase.offset
  %_M_stringbuf7 = getelementptr inbounds nuw %"class.std::__cxx11::basic_stringstream", ptr %this1, i32 0, i32 1
  invoke void @_ZNSt9basic_iosIcSt11char_traitsIcEE4initEPSt15basic_streambufIcS1_E(ptr noundef nonnull align 8 dereferenceable(264) %add.ptr6, ptr noundef %_M_stringbuf7)
          to label %invoke.cont9 unwind label %lpad8

invoke.cont9:                                     ; preds = %invoke.cont5
  ret void

lpad:                                             ; preds = %entry
  %1 = landingpad { ptr, i32 }
          cleanup
  %2 = extractvalue { ptr, i32 } %1, 0
  store ptr %2, ptr %exn.slot, align 8
  %3 = extractvalue { ptr, i32 } %1, 1
  store i32 %3, ptr %ehselector.slot, align 4
  br label %ehcleanup10

lpad3:                                            ; preds = %invoke.cont4, %invoke.cont
  %4 = landingpad { ptr, i32 }
          cleanup
  %5 = extractvalue { ptr, i32 } %4, 0
  store ptr %5, ptr %exn.slot, align 8
  %6 = extractvalue { ptr, i32 } %4, 1
  store i32 %6, ptr %ehselector.slot, align 4
  br label %ehcleanup

lpad8:                                            ; preds = %invoke.cont5
  %7 = landingpad { ptr, i32 }
          cleanup
  %8 = extractvalue { ptr, i32 } %7, 0
  store ptr %8, ptr %exn.slot, align 8
  %9 = extractvalue { ptr, i32 } %7, 1
  store i32 %9, ptr %ehselector.slot, align 4
  call void @_ZNSt7__cxx1115basic_stringbufIcSt11char_traitsIcESaIcEED2Ev(ptr noundef nonnull align 8 dereferenceable(104) %_M_stringbuf) #3
  br label %ehcleanup

ehcleanup:                                        ; preds = %lpad8, %lpad3
  call void @_ZNSdD2Ev(ptr noundef nonnull align 8 dereferenceable(24) %this1, ptr noundef getelementptr inbounds ([10 x ptr], ptr @_ZTTNSt7__cxx1118basic_stringstreamIcSt11char_traitsIcESaIcEEE, i64 0, i64 1)) #3
  br label %ehcleanup10

ehcleanup10:                                      ; preds = %ehcleanup, %lpad
  %10 = getelementptr inbounds i8, ptr %this1, i64 128
  call void @_ZNSt8ios_baseD2Ev(ptr noundef nonnull align 8 dereferenceable(264) %10) #3
  br label %eh.resume

eh.resume:                                        ; preds = %ehcleanup10
  %exn = load ptr, ptr %exn.slot, align 8
  %sel = load i32, ptr %ehselector.slot, align 4
  %lpad.val = insertvalue { ptr, i32 } poison, ptr %exn, 0
  %lpad.val11 = insertvalue { ptr, i32 } %lpad.val, i32 %sel, 1
  resume { ptr, i32 } %lpad.val11
}

; Function Attrs: inlinehint mustprogress uwtable
define available_externally noundef nonnull align 8 dereferenceable(8) ptr @_ZStlsIcSt11char_traitsIcEERSt13basic_ostreamIT_T0_ES6_St5_Setw(ptr noundef nonnull align 8 dereferenceable(8) %__os, i32 %__f.coerce) #11 {
entry:
  %__f = alloca %"struct.std::_Setw", align 4
  %__os.addr = alloca ptr, align 8
  %coerce.dive = getelementptr inbounds nuw %"struct.std::_Setw", ptr %__f, i32 0, i32 0
  store i32 %__f.coerce, ptr %coerce.dive, align 4
  store ptr %__os, ptr %__os.addr, align 8, !tbaa !37
  %0 = load ptr, ptr %__os.addr, align 8, !tbaa !37
  %vtable = load ptr, ptr %0, align 8, !tbaa !35
  %vbase.offset.ptr = getelementptr i8, ptr %vtable, i64 -24
  %vbase.offset = load i64, ptr %vbase.offset.ptr, align 8
  %add.ptr = getelementptr inbounds i8, ptr %0, i64 %vbase.offset
  %_M_n = getelementptr inbounds nuw %"struct.std::_Setw", ptr %__f, i32 0, i32 0
  %1 = load i32, ptr %_M_n, align 4, !tbaa !39
  %conv = sext i32 %1 to i64
  %call = call noundef i64 @_ZNSt8ios_base5widthEl(ptr noundef nonnull align 8 dereferenceable(216) %add.ptr, i64 noundef %conv)
  %2 = load ptr, ptr %__os.addr, align 8, !tbaa !37
  ret ptr %2
}

; Function Attrs: inlinehint mustprogress uwtable
define available_externally noundef nonnull align 8 dereferenceable(8) ptr @_ZStlsIcSt11char_traitsIcEERSt13basic_ostreamIT_T0_ES6_St8_SetfillIS3_E(ptr noundef nonnull align 8 dereferenceable(8) %__os, i8 %__f.coerce) #11 {
entry:
  %__f = alloca %"struct.std::_Setfill", align 1
  %__os.addr = alloca ptr, align 8
  %coerce.dive = getelementptr inbounds nuw %"struct.std::_Setfill", ptr %__f, i32 0, i32 0
  store i8 %__f.coerce, ptr %coerce.dive, align 1
  store ptr %__os, ptr %__os.addr, align 8, !tbaa !37
  %0 = load ptr, ptr %__os.addr, align 8, !tbaa !37
  %vtable = load ptr, ptr %0, align 8, !tbaa !35
  %vbase.offset.ptr = getelementptr i8, ptr %vtable, i64 -24
  %vbase.offset = load i64, ptr %vbase.offset.ptr, align 8
  %add.ptr = getelementptr inbounds i8, ptr %0, i64 %vbase.offset
  %_M_c = getelementptr inbounds nuw %"struct.std::_Setfill", ptr %__f, i32 0, i32 0
  %1 = load i8, ptr %_M_c, align 1, !tbaa !41
  %call = call noundef signext i8 @_ZNSt9basic_iosIcSt11char_traitsIcEE4fillEc(ptr noundef nonnull align 8 dereferenceable(264) %add.ptr, i8 noundef signext %1)
  %2 = load ptr, ptr %__os.addr, align 8, !tbaa !37
  ret ptr %2
}

; Function Attrs: inlinehint mustprogress nounwind uwtable
define linkonce_odr i8 @_ZSt7setfillIcESt8_SetfillIT_ES1_(i8 noundef signext %__c) #12 comdat {
entry:
  %retval = alloca %"struct.std::_Setfill", align 1
  %__c.addr = alloca i8, align 1
  store i8 %__c, ptr %__c.addr, align 1, !tbaa !11
  %_M_c = getelementptr inbounds nuw %"struct.std::_Setfill", ptr %retval, i32 0, i32 0
  %0 = load i8, ptr %__c.addr, align 1, !tbaa !11
  store i8 %0, ptr %_M_c, align 1, !tbaa !41
  %coerce.dive = getelementptr inbounds nuw %"struct.std::_Setfill", ptr %retval, i32 0, i32 0
  %1 = load i8, ptr %coerce.dive, align 1
  ret i8 %1
}

; Function Attrs: inlinehint mustprogress nounwind uwtable
define linkonce_odr i32 @_ZSt4setwi(i32 noundef %__n) #12 comdat {
entry:
  %retval = alloca %"struct.std::_Setw", align 4
  %__n.addr = alloca i32, align 4
  store i32 %__n, ptr %__n.addr, align 4, !tbaa !16
  %_M_n = getelementptr inbounds nuw %"struct.std::_Setw", ptr %retval, i32 0, i32 0
  %0 = load i32, ptr %__n.addr, align 4, !tbaa !16
  store i32 %0, ptr %_M_n, align 4, !tbaa !39
  %coerce.dive = getelementptr inbounds nuw %"struct.std::_Setw", ptr %retval, i32 0, i32 0
  %1 = load i32, ptr %coerce.dive, align 4
  ret i32 %1
}

declare noundef nonnull align 8 dereferenceable(8) ptr @_ZNSolsEi(ptr noundef nonnull align 8 dereferenceable(8), i32 noundef) #1

; Function Attrs: mustprogress uwtable
define available_externally noundef nonnull align 8 dereferenceable(32) ptr @_ZNSt7__cxx1112basic_stringIcSt11char_traitsIcESaIcEE6appendERKS4_(ptr noundef nonnull align 8 dereferenceable(32) %this, ptr noundef nonnull align 8 dereferenceable(32) %__str) #5 align 2 {
entry:
  %this.addr = alloca ptr, align 8
  %__str.addr = alloca ptr, align 8
  store ptr %this, ptr %this.addr, align 8, !tbaa !12
  store ptr %__str, ptr %__str.addr, align 8, !tbaa !12
  %this1 = load ptr, ptr %this.addr, align 8
  %0 = load ptr, ptr %__str.addr, align 8, !tbaa !12
  %call = call noundef ptr @_ZNKSt7__cxx1112basic_stringIcSt11char_traitsIcESaIcEE7_M_dataEv(ptr noundef nonnull align 8 dereferenceable(32) %0)
  %1 = load ptr, ptr %__str.addr, align 8, !tbaa !12
  %call2 = call noundef i64 @_ZNKSt7__cxx1112basic_stringIcSt11char_traitsIcESaIcEE4sizeEv(ptr noundef nonnull align 8 dereferenceable(32) %1) #3
  %call3 = call noundef nonnull align 8 dereferenceable(32) ptr @_ZNSt7__cxx1112basic_stringIcSt11char_traitsIcESaIcEE6appendEPKcm(ptr noundef nonnull align 8 dereferenceable(32) %this1, ptr noundef %call, i64 noundef %call2)
  ret ptr %call3
}

; Function Attrs: mustprogress uwtable
define available_externally void @_ZNKSt7__cxx1118basic_stringstreamIcSt11char_traitsIcESaIcEE3strEv(ptr dead_on_unwind noalias writable sret(%"class.std::__cxx11::basic_string") align 8 %agg.result, ptr noundef nonnull align 8 dereferenceable(128) %this) #5 align 2 {
entry:
  %result.ptr = alloca ptr, align 8
  %this.addr = alloca ptr, align 8
  store ptr %agg.result, ptr %result.ptr, align 8
  store ptr %this, ptr %this.addr, align 8, !tbaa !33
  %this1 = load ptr, ptr %this.addr, align 8
  %_M_stringbuf = getelementptr inbounds nuw %"class.std::__cxx11::basic_stringstream", ptr %this1, i32 0, i32 1
  call void @_ZNKSt7__cxx1115basic_stringbufIcSt11char_traitsIcESaIcEE3strEv(ptr dead_on_unwind writable sret(%"class.std::__cxx11::basic_string") align 8 %agg.result, ptr noundef nonnull align 8 dereferenceable(104) %_M_stringbuf)
  ret void
}

; Function Attrs: mustprogress nounwind uwtable
define available_externally void @_ZNSt7__cxx1118basic_stringstreamIcSt11char_traitsIcESaIcEED1Ev(ptr noundef nonnull align 8 dereferenceable(128) %this) unnamed_addr #4 align 2 {
entry:
  %this.addr = alloca ptr, align 8
  store ptr %this, ptr %this.addr, align 8, !tbaa !33
  %this1 = load ptr, ptr %this.addr, align 8
  call void @_ZNSt7__cxx1118basic_stringstreamIcSt11char_traitsIcESaIcEED2Ev(ptr noundef nonnull align 8 dereferenceable(128) %this1, ptr noundef @_ZTTNSt7__cxx1118basic_stringstreamIcSt11char_traitsIcESaIcEEE) #3
  %0 = getelementptr inbounds i8, ptr %this1, i64 128
  call void @_ZNSt8ios_baseD2Ev(ptr noundef nonnull align 8 dereferenceable(264) %0) #3
  ret void
}

; Function Attrs: mustprogress nounwind uwtable
define available_externally noundef i64 @_ZNKSt7__cxx1112basic_stringIcSt11char_traitsIcESaIcEE4sizeEv(ptr noundef nonnull align 8 dereferenceable(32) %this) #4 align 2 {
entry:
  %this.addr = alloca ptr, align 8
  store ptr %this, ptr %this.addr, align 8, !tbaa !12
  %this1 = load ptr, ptr %this.addr, align 8
  %_M_string_length = getelementptr inbounds nuw %"class.std::__cxx11::basic_string", ptr %this1, i32 0, i32 1
  %0 = load i64, ptr %_M_string_length, align 8, !tbaa !30
  ret i64 %0
}

; Function Attrs: mustprogress uwtable
define available_externally noundef nonnull align 8 dereferenceable(32) ptr @_ZNSt7__cxx1112basic_stringIcSt11char_traitsIcESaIcEE6appendEmc(ptr noundef nonnull align 8 dereferenceable(32) %this, i64 noundef %__n, i8 noundef signext %__c) #5 align 2 {
entry:
  %this.addr = alloca ptr, align 8
  %__n.addr = alloca i64, align 8
  %__c.addr = alloca i8, align 1
  store ptr %this, ptr %this.addr, align 8, !tbaa !12
  store i64 %__n, ptr %__n.addr, align 8, !tbaa !26
  store i8 %__c, ptr %__c.addr, align 1, !tbaa !11
  %this1 = load ptr, ptr %this.addr, align 8
  %call = call noundef i64 @_ZNKSt7__cxx1112basic_stringIcSt11char_traitsIcESaIcEE4sizeEv(ptr noundef nonnull align 8 dereferenceable(32) %this1) #3
  %0 = load i64, ptr %__n.addr, align 8, !tbaa !26
  %1 = load i8, ptr %__c.addr, align 1, !tbaa !11
  %call2 = call noundef nonnull align 8 dereferenceable(32) ptr @_ZNSt7__cxx1112basic_stringIcSt11char_traitsIcESaIcEE14_M_replace_auxEmmmc(ptr noundef nonnull align 8 dereferenceable(32) %this1, i64 noundef %call, i64 noundef 0, i64 noundef %0, i8 noundef signext %1)
  ret ptr %call2
}

; Function Attrs: inlinehint mustprogress uwtable
define available_externally noundef nonnull align 8 dereferenceable(8) ptr @_ZStlsIcSt11char_traitsIcESaIcEERSt13basic_ostreamIT_T0_ES7_RKNSt7__cxx1112basic_stringIS4_S5_T1_EE(ptr noundef nonnull align 8 dereferenceable(8) %__os, ptr noundef nonnull align 8 dereferenceable(32) %__str) #11 {
entry:
  %__os.addr = alloca ptr, align 8
  %__str.addr = alloca ptr, align 8
  store ptr %__os, ptr %__os.addr, align 8, !tbaa !37
  store ptr %__str, ptr %__str.addr, align 8, !tbaa !12
  %0 = load ptr, ptr %__os.addr, align 8, !tbaa !37
  %1 = load ptr, ptr %__str.addr, align 8, !tbaa !12
  %call = call noundef ptr @_ZNKSt7__cxx1112basic_stringIcSt11char_traitsIcESaIcEE4dataEv(ptr noundef nonnull align 8 dereferenceable(32) %1) #3
  %2 = load ptr, ptr %__str.addr, align 8, !tbaa !12
  %call1 = call noundef i64 @_ZNKSt7__cxx1112basic_stringIcSt11char_traitsIcESaIcEE4sizeEv(ptr noundef nonnull align 8 dereferenceable(32) %2) #3
  %call2 = call noundef nonnull align 8 dereferenceable(8) ptr @_ZSt16__ostream_insertIcSt11char_traitsIcEERSt13basic_ostreamIT_T0_ES6_PKS3_l(ptr noundef nonnull align 8 dereferenceable(8) %0, ptr noundef %call, i64 noundef %call1)
  ret ptr %call2
}

; Function Attrs: inlinehint mustprogress uwtable
define available_externally noundef nonnull align 8 dereferenceable(8) ptr @_ZStlsISt11char_traitsIcEERSt13basic_ostreamIcT_ES5_c(ptr noundef nonnull align 8 dereferenceable(8) %__out, i8 noundef signext %__c) #11 {
entry:
  %retval = alloca ptr, align 8
  %__out.addr = alloca ptr, align 8
  %__c.addr = alloca i8, align 1
  store ptr %__out, ptr %__out.addr, align 8, !tbaa !37
  store i8 %__c, ptr %__c.addr, align 1, !tbaa !11
  %0 = load ptr, ptr %__out.addr, align 8, !tbaa !37
  %vtable = load ptr, ptr %0, align 8, !tbaa !35
  %vbase.offset.ptr = getelementptr i8, ptr %vtable, i64 -24
  %vbase.offset = load i64, ptr %vbase.offset.ptr, align 8
  %add.ptr = getelementptr inbounds i8, ptr %0, i64 %vbase.offset
  %call = call noundef i64 @_ZNKSt8ios_base5widthEv(ptr noundef nonnull align 8 dereferenceable(216) %add.ptr)
  %cmp = icmp ne i64 %call, 0
  br i1 %cmp, label %if.then, label %if.end

if.then:                                          ; preds = %entry
  %1 = load ptr, ptr %__out.addr, align 8, !tbaa !37
  %call1 = call noundef nonnull align 8 dereferenceable(8) ptr @_ZSt16__ostream_insertIcSt11char_traitsIcEERSt13basic_ostreamIT_T0_ES6_PKS3_l(ptr noundef nonnull align 8 dereferenceable(8) %1, ptr noundef %__c.addr, i64 noundef 1)
  store ptr %call1, ptr %retval, align 8
  br label %return

if.end:                                           ; preds = %entry
  %2 = load ptr, ptr %__out.addr, align 8, !tbaa !37
  %3 = load i8, ptr %__c.addr, align 1, !tbaa !11
  %call2 = call noundef nonnull align 8 dereferenceable(8) ptr @_ZNSo3putEc(ptr noundef nonnull align 8 dereferenceable(8) %2, i8 noundef signext %3)
  %4 = load ptr, ptr %__out.addr, align 8, !tbaa !37
  store ptr %4, ptr %retval, align 8
  br label %return

return:                                           ; preds = %if.end, %if.then
  %5 = load ptr, ptr %retval, align 8
  ret ptr %5
}

; Function Attrs: mustprogress uwtable
define available_externally noundef nonnull align 8 dereferenceable(8) ptr @_ZNSolsEPFRSoS_E(ptr noundef nonnull align 8 dereferenceable(8) %this, ptr noundef %__pf) #5 align 2 {
entry:
  %this.addr = alloca ptr, align 8
  %__pf.addr = alloca ptr, align 8
  store ptr %this, ptr %this.addr, align 8, !tbaa !37
  store ptr %__pf, ptr %__pf.addr, align 8, !tbaa !43
  %this1 = load ptr, ptr %this.addr, align 8
  %0 = load ptr, ptr %__pf.addr, align 8, !tbaa !43
  %call = call noundef nonnull align 8 dereferenceable(8) ptr %0(ptr noundef nonnull align 8 dereferenceable(8) %this1)
  ret ptr %call
}

; Function Attrs: inlinehint mustprogress uwtable
define available_externally noundef nonnull align 8 dereferenceable(8) ptr @_ZSt5flushIcSt11char_traitsIcEERSt13basic_ostreamIT_T0_ES6_(ptr noundef nonnull align 8 dereferenceable(8) %__os) #11 {
entry:
  %__os.addr = alloca ptr, align 8
  store ptr %__os, ptr %__os.addr, align 8, !tbaa !37
  %0 = load ptr, ptr %__os.addr, align 8, !tbaa !37
  %call = call noundef nonnull align 8 dereferenceable(8) ptr @_ZNSo5flushEv(ptr noundef nonnull align 8 dereferenceable(8) %0)
  ret ptr %call
}

; Function Attrs: inlinehint mustprogress uwtable
define available_externally noundef nonnull align 8 dereferenceable(8) ptr @_ZStlsISt11char_traitsIcEERSt13basic_ostreamIcT_ES5_PKc(ptr noundef nonnull align 8 dereferenceable(8) %__out, ptr noundef %__s) #11 {
entry:
  %__out.addr = alloca ptr, align 8
  %__s.addr = alloca ptr, align 8
  store ptr %__out, ptr %__out.addr, align 8, !tbaa !37
  store ptr %__s, ptr %__s.addr, align 8, !tbaa !22
  %0 = load ptr, ptr %__s.addr, align 8, !tbaa !22
  %tobool = icmp ne ptr %0, null
  br i1 %tobool, label %if.else, label %if.then

if.then:                                          ; preds = %entry
  %1 = load ptr, ptr %__out.addr, align 8, !tbaa !37
  %vtable = load ptr, ptr %1, align 8, !tbaa !35
  %vbase.offset.ptr = getelementptr i8, ptr %vtable, i64 -24
  %vbase.offset = load i64, ptr %vbase.offset.ptr, align 8
  %add.ptr = getelementptr inbounds i8, ptr %1, i64 %vbase.offset
  call void @_ZNSt9basic_iosIcSt11char_traitsIcEE8setstateESt12_Ios_Iostate(ptr noundef nonnull align 8 dereferenceable(264) %add.ptr, i32 noundef 1)
  br label %if.end

if.else:                                          ; preds = %entry
  %2 = load ptr, ptr %__out.addr, align 8, !tbaa !37
  %3 = load ptr, ptr %__s.addr, align 8, !tbaa !22
  %4 = load ptr, ptr %__s.addr, align 8, !tbaa !22
  %call = call noundef i64 @_ZNSt11char_traitsIcE6lengthEPKc(ptr noundef %4)
  %call1 = call noundef nonnull align 8 dereferenceable(8) ptr @_ZSt16__ostream_insertIcSt11char_traitsIcEERSt13basic_ostreamIT_T0_ES6_PKS3_l(ptr noundef nonnull align 8 dereferenceable(8) %2, ptr noundef %3, i64 noundef %call)
  br label %if.end

if.end:                                           ; preds = %if.else, %if.then
  %5 = load ptr, ptr %__out.addr, align 8, !tbaa !37
  ret ptr %5
}

; Function Attrs: mustprogress uwtable
define available_externally noundef nonnull align 8 dereferenceable(32) ptr @_ZNSt7__cxx1112basic_stringIcSt11char_traitsIcESaIcEEaSEPKc(ptr noundef nonnull align 8 dereferenceable(32) %this, ptr noundef %__s) #5 align 2 {
entry:
  %this.addr = alloca ptr, align 8
  %__s.addr = alloca ptr, align 8
  store ptr %this, ptr %this.addr, align 8, !tbaa !12
  store ptr %__s, ptr %__s.addr, align 8, !tbaa !22
  %this1 = load ptr, ptr %this.addr, align 8
  %0 = load ptr, ptr %__s.addr, align 8, !tbaa !22
  %call = call noundef nonnull align 8 dereferenceable(32) ptr @_ZNSt7__cxx1112basic_stringIcSt11char_traitsIcESaIcEE6assignEPKc(ptr noundef nonnull align 8 dereferenceable(32) %this1, ptr noundef %0)
  ret ptr %call
}

; Function Attrs: mustprogress nounwind uwtable
define linkonce_odr noundef i64 @_ZNSt11char_traitsIcE6lengthEPKc(ptr noundef %__s) #4 comdat align 2 {
entry:
  %__s.addr = alloca ptr, align 8
  store ptr %__s, ptr %__s.addr, align 8, !tbaa !22
  %0 = load ptr, ptr %__s.addr, align 8, !tbaa !22
  %call = call i64 @strlen(ptr noundef %0) #3
  ret i64 %call
}

; Function Attrs: mustprogress uwtable
define available_externally void @_ZNKSt7__cxx1112basic_stringIcSt11char_traitsIcESaIcEE15_M_check_lengthEmmPKc(ptr noundef nonnull align 8 dereferenceable(32) %this, i64 noundef %__n1, i64 noundef %__n2, ptr noundef %__s) #5 align 2 {
entry:
  %this.addr = alloca ptr, align 8
  %__n1.addr = alloca i64, align 8
  %__n2.addr = alloca i64, align 8
  %__s.addr = alloca ptr, align 8
  store ptr %this, ptr %this.addr, align 8, !tbaa !12
  store i64 %__n1, ptr %__n1.addr, align 8, !tbaa !26
  store i64 %__n2, ptr %__n2.addr, align 8, !tbaa !26
  store ptr %__s, ptr %__s.addr, align 8, !tbaa !22
  %this1 = load ptr, ptr %this.addr, align 8
  %call = call noundef i64 @_ZNKSt7__cxx1112basic_stringIcSt11char_traitsIcESaIcEE8max_sizeEv(ptr noundef nonnull align 8 dereferenceable(32) %this1) #3
  %call2 = call noundef i64 @_ZNKSt7__cxx1112basic_stringIcSt11char_traitsIcESaIcEE4sizeEv(ptr noundef nonnull align 8 dereferenceable(32) %this1) #3
  %0 = load i64, ptr %__n1.addr, align 8, !tbaa !26
  %sub = sub i64 %call2, %0
  %sub3 = sub i64 %call, %sub
  %1 = load i64, ptr %__n2.addr, align 8, !tbaa !26
  %cmp = icmp ult i64 %sub3, %1
  br i1 %cmp, label %if.then, label %if.end

if.then:                                          ; preds = %entry
  %2 = load ptr, ptr %__s.addr, align 8, !tbaa !22
  call void @_ZSt20__throw_length_errorPKc(ptr noundef %2) #17
  unreachable

if.end:                                           ; preds = %entry
  ret void
}

declare noundef nonnull align 8 dereferenceable(32) ptr @_ZNSt7__cxx1112basic_stringIcSt11char_traitsIcESaIcEE9_M_appendEPKcm(ptr noundef nonnull align 8 dereferenceable(32), ptr noundef, i64 noundef) #1

; Function Attrs: nounwind
declare i64 @strlen(ptr noundef) #2

; Function Attrs: mustprogress nounwind uwtable
define available_externally noundef i64 @_ZNKSt7__cxx1112basic_stringIcSt11char_traitsIcESaIcEE8max_sizeEv(ptr noundef nonnull align 8 dereferenceable(32) %this) #4 align 2 personality ptr @__gxx_personality_v0 {
entry:
  %this.addr = alloca ptr, align 8
  store ptr %this, ptr %this.addr, align 8, !tbaa !12
  %this1 = load ptr, ptr %this.addr, align 8
  %call = invoke noundef nonnull align 1 dereferenceable(1) ptr @_ZNKSt7__cxx1112basic_stringIcSt11char_traitsIcESaIcEE16_M_get_allocatorEv(ptr noundef nonnull align 8 dereferenceable(32) %this1)
          to label %invoke.cont unwind label %terminate.lpad

invoke.cont:                                      ; preds = %entry
  %call2 = call noundef i64 @_ZNSt16allocator_traitsISaIcEE8max_sizeERKS0_(ptr noundef nonnull align 1 dereferenceable(1) %call) #3
  %sub = sub i64 %call2, 1
  %div = udiv i64 %sub, 2
  ret i64 %div

terminate.lpad:                                   ; preds = %entry
  %0 = landingpad { ptr, i32 }
          catch ptr null
  %1 = extractvalue { ptr, i32 } %0, 0
  call void @__clang_call_terminate(ptr %1) #15
  unreachable
}

; Function Attrs: noreturn
declare void @_ZSt20__throw_length_errorPKc(ptr noundef) #13

; Function Attrs: mustprogress nounwind uwtable
define linkonce_odr noundef i64 @_ZNSt16allocator_traitsISaIcEE8max_sizeERKS0_(ptr noundef nonnull align 1 dereferenceable(1) %__a) #4 comdat align 2 {
entry:
  %__a.addr = alloca ptr, align 8
  store ptr %__a, ptr %__a.addr, align 8, !tbaa !18
  %0 = load ptr, ptr %__a.addr, align 8, !tbaa !18
  %call = call noundef i64 @_ZNKSt15__new_allocatorIcE8max_sizeEv(ptr noundef nonnull align 1 dereferenceable(1) %0) #3
  ret i64 %call
}

; Function Attrs: mustprogress nounwind uwtable
define available_externally noundef nonnull align 1 dereferenceable(1) ptr @_ZNKSt7__cxx1112basic_stringIcSt11char_traitsIcESaIcEE16_M_get_allocatorEv(ptr noundef nonnull align 8 dereferenceable(32) %this) #4 align 2 {
entry:
  %this.addr = alloca ptr, align 8
  store ptr %this, ptr %this.addr, align 8, !tbaa !12
  %this1 = load ptr, ptr %this.addr, align 8
  %_M_dataplus = getelementptr inbounds nuw %"class.std::__cxx11::basic_string", ptr %this1, i32 0, i32 0
  ret ptr %_M_dataplus
}

; Function Attrs: mustprogress nounwind uwtable
define linkonce_odr noundef i64 @_ZNKSt15__new_allocatorIcE8max_sizeEv(ptr noundef nonnull align 1 dereferenceable(1) %this) #4 comdat align 2 {
entry:
  %this.addr = alloca ptr, align 8
  store ptr %this, ptr %this.addr, align 8, !tbaa !28
  %this1 = load ptr, ptr %this.addr, align 8
  %call = call noundef i64 @_ZNKSt15__new_allocatorIcE11_M_max_sizeEv(ptr noundef nonnull align 1 dereferenceable(1) %this1) #3
  ret i64 %call
}

; Function Attrs: mustprogress nounwind uwtable
define linkonce_odr noundef i64 @_ZNKSt15__new_allocatorIcE11_M_max_sizeEv(ptr noundef nonnull align 1 dereferenceable(1) %this) #4 comdat align 2 {
entry:
  %this.addr = alloca ptr, align 8
  store ptr %this, ptr %this.addr, align 8, !tbaa !28
  %this1 = load ptr, ptr %this.addr, align 8
  ret i64 9223372036854775807
}

; Function Attrs: mustprogress nounwind uwtable
define available_externally void @_ZNSt9basic_iosIcSt11char_traitsIcEEC2Ev(ptr noundef nonnull align 8 dereferenceable(264) %this) unnamed_addr #4 align 2 {
entry:
  %this.addr = alloca ptr, align 8
  store ptr %this, ptr %this.addr, align 8, !tbaa !44
  %this1 = load ptr, ptr %this.addr, align 8
  call void @_ZNSt8ios_baseC2Ev(ptr noundef nonnull align 8 dereferenceable(216) %this1) #3
  store ptr getelementptr inbounds inrange(-16, 16) ({ [4 x ptr] }, ptr @_ZTVSt9basic_iosIcSt11char_traitsIcEE, i32 0, i32 0, i32 2), ptr %this1, align 8, !tbaa !35
  %_M_tie = getelementptr inbounds nuw %"class.std::basic_ios", ptr %this1, i32 0, i32 1
  store ptr null, ptr %_M_tie, align 8, !tbaa !46
  %_M_fill = getelementptr inbounds nuw %"class.std::basic_ios", ptr %this1, i32 0, i32 2
  store i8 0, ptr %_M_fill, align 8, !tbaa !61
  %_M_fill_init = getelementptr inbounds nuw %"class.std::basic_ios", ptr %this1, i32 0, i32 3
  store i8 0, ptr %_M_fill_init, align 1, !tbaa !62
  %_M_streambuf = getelementptr inbounds nuw %"class.std::basic_ios", ptr %this1, i32 0, i32 4
  store ptr null, ptr %_M_streambuf, align 8, !tbaa !63
  %_M_ctype = getelementptr inbounds nuw %"class.std::basic_ios", ptr %this1, i32 0, i32 5
  store ptr null, ptr %_M_ctype, align 8, !tbaa !64
  %_M_num_put = getelementptr inbounds nuw %"class.std::basic_ios", ptr %this1, i32 0, i32 6
  store ptr null, ptr %_M_num_put, align 8, !tbaa !65
  %_M_num_get = getelementptr inbounds nuw %"class.std::basic_ios", ptr %this1, i32 0, i32 7
  store ptr null, ptr %_M_num_get, align 8, !tbaa !66
  ret void
}

; Function Attrs: mustprogress uwtable
define available_externally void @_ZNSdC2Ev(ptr noundef nonnull align 8 dereferenceable(24) %this, ptr noundef %vtt) unnamed_addr #5 align 2 personality ptr @__gxx_personality_v0 {
entry:
  %this.addr = alloca ptr, align 8
  %vtt.addr = alloca ptr, align 8
  %exn.slot = alloca ptr, align 8
  %ehselector.slot = alloca i32, align 4
  store ptr %this, ptr %this.addr, align 8, !tbaa !67
  store ptr %vtt, ptr %vtt.addr, align 8, !tbaa !69
  %this1 = load ptr, ptr %this.addr, align 8
  %vtt2 = load ptr, ptr %vtt.addr, align 8
  %0 = getelementptr inbounds ptr, ptr %vtt2, i64 1
  call void @_ZNSiC2Ev(ptr noundef nonnull align 8 dereferenceable(16) %this1, ptr noundef %0)
  %1 = getelementptr inbounds i8, ptr %this1, i64 16
  %2 = getelementptr inbounds ptr, ptr %vtt2, i64 3
  invoke void @_ZNSoC2Ev(ptr noundef nonnull align 8 dereferenceable(8) %1, ptr noundef %2)
          to label %invoke.cont unwind label %lpad

invoke.cont:                                      ; preds = %entry
  %3 = load ptr, ptr %vtt2, align 8
  store ptr %3, ptr %this1, align 8, !tbaa !35
  %4 = getelementptr inbounds ptr, ptr %vtt2, i64 5
  %5 = load ptr, ptr %4, align 8
  %vtable = load ptr, ptr %this1, align 8, !tbaa !35
  %vbase.offset.ptr = getelementptr i8, ptr %vtable, i64 -24
  %vbase.offset = load i64, ptr %vbase.offset.ptr, align 8
  %add.ptr = getelementptr inbounds i8, ptr %this1, i64 %vbase.offset
  store ptr %5, ptr %add.ptr, align 8, !tbaa !35
  %6 = getelementptr inbounds ptr, ptr %vtt2, i64 6
  %7 = load ptr, ptr %6, align 8
  %add.ptr3 = getelementptr inbounds i8, ptr %this1, i64 16
  store ptr %7, ptr %add.ptr3, align 8, !tbaa !35
  ret void

lpad:                                             ; preds = %entry
  %8 = landingpad { ptr, i32 }
          cleanup
  %9 = extractvalue { ptr, i32 } %8, 0
  store ptr %9, ptr %exn.slot, align 8
  %10 = extractvalue { ptr, i32 } %8, 1
  store i32 %10, ptr %ehselector.slot, align 4
  %11 = getelementptr inbounds ptr, ptr %vtt2, i64 1
  call void @_ZNSiD2Ev(ptr noundef nonnull align 8 dereferenceable(16) %this1, ptr noundef %11) #3
  br label %eh.resume

eh.resume:                                        ; preds = %lpad
  %exn = load ptr, ptr %exn.slot, align 8
  %sel = load i32, ptr %ehselector.slot, align 4
  %lpad.val = insertvalue { ptr, i32 } poison, ptr %exn, 0
  %lpad.val4 = insertvalue { ptr, i32 } %lpad.val, i32 %sel, 1
  resume { ptr, i32 } %lpad.val4
}

; Function Attrs: inlinehint mustprogress nounwind uwtable
define linkonce_odr noundef i32 @_ZStorSt13_Ios_OpenmodeS_(i32 noundef %__a, i32 noundef %__b) #12 comdat {
entry:
  %__a.addr = alloca i32, align 4
  %__b.addr = alloca i32, align 4
  store i32 %__a, ptr %__a.addr, align 4, !tbaa !71
  store i32 %__b, ptr %__b.addr, align 4, !tbaa !71
  %0 = load i32, ptr %__a.addr, align 4, !tbaa !71
  %1 = load i32, ptr %__b.addr, align 4, !tbaa !71
  %or = or i32 %0, %1
  ret i32 %or
}

; Function Attrs: mustprogress uwtable
define available_externally void @_ZNSt7__cxx1115basic_stringbufIcSt11char_traitsIcESaIcEEC2ESt13_Ios_Openmode(ptr noundef nonnull align 8 dereferenceable(104) %this, i32 noundef %__mode) unnamed_addr #5 align 2 {
entry:
  %this.addr = alloca ptr, align 8
  %__mode.addr = alloca i32, align 4
  store ptr %this, ptr %this.addr, align 8, !tbaa !73
  store i32 %__mode, ptr %__mode.addr, align 4, !tbaa !71
  %this1 = load ptr, ptr %this.addr, align 8
  call void @_ZNSt15basic_streambufIcSt11char_traitsIcEEC2Ev(ptr noundef nonnull align 8 dereferenceable(64) %this1)
  store ptr getelementptr inbounds inrange(-16, 112) ({ [16 x ptr] }, ptr @_ZTVNSt7__cxx1115basic_stringbufIcSt11char_traitsIcESaIcEEE, i32 0, i32 0, i32 2), ptr %this1, align 8, !tbaa !35
  %_M_mode = getelementptr inbounds nuw %"class.std::__cxx11::basic_stringbuf", ptr %this1, i32 0, i32 1
  %0 = load i32, ptr %__mode.addr, align 4, !tbaa !71
  store i32 %0, ptr %_M_mode, align 8, !tbaa !75
  %_M_string = getelementptr inbounds nuw %"class.std::__cxx11::basic_stringbuf", ptr %this1, i32 0, i32 2
  call void @_ZNSt7__cxx1112basic_stringIcSt11char_traitsIcESaIcEEC2Ev(ptr noundef nonnull align 8 dereferenceable(32) %_M_string) #3
  ret void
}

declare void @_ZNSt9basic_iosIcSt11char_traitsIcEE4initEPSt15basic_streambufIcS1_E(ptr noundef nonnull align 8 dereferenceable(264), ptr noundef) #1

; Function Attrs: inlinehint mustprogress nounwind uwtable
define linkonce_odr void @_ZNSt7__cxx1115basic_stringbufIcSt11char_traitsIcESaIcEED2Ev(ptr noundef nonnull align 8 dereferenceable(104) %this) unnamed_addr #12 comdat align 2 {
entry:
  %this.addr = alloca ptr, align 8
  store ptr %this, ptr %this.addr, align 8, !tbaa !73
  %this1 = load ptr, ptr %this.addr, align 8
  store ptr getelementptr inbounds inrange(-16, 112) ({ [16 x ptr] }, ptr @_ZTVNSt7__cxx1115basic_stringbufIcSt11char_traitsIcESaIcEEE, i32 0, i32 0, i32 2), ptr %this1, align 8, !tbaa !35
  %_M_string = getelementptr inbounds nuw %"class.std::__cxx11::basic_stringbuf", ptr %this1, i32 0, i32 2
  call void @_ZNSt7__cxx1112basic_stringIcSt11char_traitsIcESaIcEED2Ev(ptr noundef nonnull align 8 dereferenceable(32) %_M_string) #3
  call void @_ZNSt15basic_streambufIcSt11char_traitsIcEED2Ev(ptr noundef nonnull align 8 dereferenceable(64) %this1) #3
  ret void
}

; Function Attrs: mustprogress nounwind uwtable
define available_externally void @_ZNSdD2Ev(ptr noundef nonnull align 8 dereferenceable(24) %this, ptr noundef %vtt) unnamed_addr #4 align 2 {
entry:
  %this.addr = alloca ptr, align 8
  %vtt.addr = alloca ptr, align 8
  store ptr %this, ptr %this.addr, align 8, !tbaa !67
  store ptr %vtt, ptr %vtt.addr, align 8, !tbaa !69
  %this1 = load ptr, ptr %this.addr, align 8
  %vtt2 = load ptr, ptr %vtt.addr, align 8
  %0 = getelementptr inbounds i8, ptr %this1, i64 16
  %1 = getelementptr inbounds ptr, ptr %vtt2, i64 3
  call void @_ZNSoD2Ev(ptr noundef nonnull align 8 dereferenceable(8) %0, ptr noundef %1) #3
  %2 = getelementptr inbounds ptr, ptr %vtt2, i64 1
  call void @_ZNSiD2Ev(ptr noundef nonnull align 8 dereferenceable(16) %this1, ptr noundef %2) #3
  ret void
}

; Function Attrs: nounwind
declare void @_ZNSt8ios_baseD2Ev(ptr noundef nonnull align 8 dereferenceable(216)) unnamed_addr #2

; Function Attrs: nounwind
declare void @_ZNSt8ios_baseC2Ev(ptr noundef nonnull align 8 dereferenceable(216)) unnamed_addr #2

; Function Attrs: mustprogress uwtable
define available_externally void @_ZNSiC2Ev(ptr noundef nonnull align 8 dereferenceable(16) %this, ptr noundef %vtt) unnamed_addr #5 align 2 {
entry:
  %this.addr = alloca ptr, align 8
  %vtt.addr = alloca ptr, align 8
  store ptr %this, ptr %this.addr, align 8, !tbaa !78
  store ptr %vtt, ptr %vtt.addr, align 8, !tbaa !69
  %this1 = load ptr, ptr %this.addr, align 8
  %vtt2 = load ptr, ptr %vtt.addr, align 8
  %0 = load ptr, ptr %vtt2, align 8
  store ptr %0, ptr %this1, align 8, !tbaa !35
  %1 = getelementptr inbounds ptr, ptr %vtt2, i64 1
  %2 = load ptr, ptr %1, align 8
  %vtable = load ptr, ptr %this1, align 8, !tbaa !35
  %vbase.offset.ptr = getelementptr i8, ptr %vtable, i64 -24
  %vbase.offset = load i64, ptr %vbase.offset.ptr, align 8
  %add.ptr = getelementptr inbounds i8, ptr %this1, i64 %vbase.offset
  store ptr %2, ptr %add.ptr, align 8, !tbaa !35
  %_M_gcount = getelementptr inbounds nuw %"class.std::basic_istream", ptr %this1, i32 0, i32 1
  store i64 0, ptr %_M_gcount, align 8, !tbaa !80
  %vtable3 = load ptr, ptr %this1, align 8, !tbaa !35
  %vbase.offset.ptr4 = getelementptr i8, ptr %vtable3, i64 -24
  %vbase.offset5 = load i64, ptr %vbase.offset.ptr4, align 8
  %add.ptr6 = getelementptr inbounds i8, ptr %this1, i64 %vbase.offset5
  call void @_ZNSt9basic_iosIcSt11char_traitsIcEE4initEPSt15basic_streambufIcS1_E(ptr noundef nonnull align 8 dereferenceable(264) %add.ptr6, ptr noundef null)
  ret void
}

; Function Attrs: mustprogress uwtable
define available_externally void @_ZNSoC2Ev(ptr noundef nonnull align 8 dereferenceable(8) %this, ptr noundef %vtt) unnamed_addr #5 align 2 {
entry:
  %this.addr = alloca ptr, align 8
  %vtt.addr = alloca ptr, align 8
  store ptr %this, ptr %this.addr, align 8, !tbaa !37
  store ptr %vtt, ptr %vtt.addr, align 8, !tbaa !69
  %this1 = load ptr, ptr %this.addr, align 8
  %vtt2 = load ptr, ptr %vtt.addr, align 8
  %0 = load ptr, ptr %vtt2, align 8
  store ptr %0, ptr %this1, align 8, !tbaa !35
  %1 = getelementptr inbounds ptr, ptr %vtt2, i64 1
  %2 = load ptr, ptr %1, align 8
  %vtable = load ptr, ptr %this1, align 8, !tbaa !35
  %vbase.offset.ptr = getelementptr i8, ptr %vtable, i64 -24
  %vbase.offset = load i64, ptr %vbase.offset.ptr, align 8
  %add.ptr = getelementptr inbounds i8, ptr %this1, i64 %vbase.offset
  store ptr %2, ptr %add.ptr, align 8, !tbaa !35
  %vtable3 = load ptr, ptr %this1, align 8, !tbaa !35
  %vbase.offset.ptr4 = getelementptr i8, ptr %vtable3, i64 -24
  %vbase.offset5 = load i64, ptr %vbase.offset.ptr4, align 8
  %add.ptr6 = getelementptr inbounds i8, ptr %this1, i64 %vbase.offset5
  call void @_ZNSt9basic_iosIcSt11char_traitsIcEE4initEPSt15basic_streambufIcS1_E(ptr noundef nonnull align 8 dereferenceable(264) %add.ptr6, ptr noundef null)
  ret void
}

; Function Attrs: mustprogress nounwind uwtable
define available_externally void @_ZNSiD2Ev(ptr noundef nonnull align 8 dereferenceable(16) %this, ptr noundef %vtt) unnamed_addr #4 align 2 {
entry:
  %this.addr = alloca ptr, align 8
  %vtt.addr = alloca ptr, align 8
  store ptr %this, ptr %this.addr, align 8, !tbaa !78
  store ptr %vtt, ptr %vtt.addr, align 8, !tbaa !69
  %this1 = load ptr, ptr %this.addr, align 8
  %vtt2 = load ptr, ptr %vtt.addr, align 8
  %0 = load ptr, ptr %vtt2, align 8
  store ptr %0, ptr %this1, align 8, !tbaa !35
  %1 = getelementptr inbounds ptr, ptr %vtt2, i64 1
  %2 = load ptr, ptr %1, align 8
  %vtable = load ptr, ptr %this1, align 8, !tbaa !35
  %vbase.offset.ptr = getelementptr i8, ptr %vtable, i64 -24
  %vbase.offset = load i64, ptr %vbase.offset.ptr, align 8
  %add.ptr = getelementptr inbounds i8, ptr %this1, i64 %vbase.offset
  store ptr %2, ptr %add.ptr, align 8, !tbaa !35
  %_M_gcount = getelementptr inbounds nuw %"class.std::basic_istream", ptr %this1, i32 0, i32 1
  store i64 0, ptr %_M_gcount, align 8, !tbaa !80
  ret void
}

; Function Attrs: mustprogress nounwind uwtable
define available_externally void @_ZNSt15basic_streambufIcSt11char_traitsIcEEC2Ev(ptr noundef nonnull align 8 dereferenceable(64) %this) unnamed_addr #4 align 2 {
entry:
  %this.addr = alloca ptr, align 8
  store ptr %this, ptr %this.addr, align 8, !tbaa !82
  %this1 = load ptr, ptr %this.addr, align 8
  store ptr getelementptr inbounds inrange(-16, 112) ({ [16 x ptr] }, ptr @_ZTVSt15basic_streambufIcSt11char_traitsIcEE, i32 0, i32 0, i32 2), ptr %this1, align 8, !tbaa !35
  %_M_in_beg = getelementptr inbounds nuw %"class.std::basic_streambuf", ptr %this1, i32 0, i32 1
  store ptr null, ptr %_M_in_beg, align 8, !tbaa !83
  %_M_in_cur = getelementptr inbounds nuw %"class.std::basic_streambuf", ptr %this1, i32 0, i32 2
  store ptr null, ptr %_M_in_cur, align 8, !tbaa !84
  %_M_in_end = getelementptr inbounds nuw %"class.std::basic_streambuf", ptr %this1, i32 0, i32 3
  store ptr null, ptr %_M_in_end, align 8, !tbaa !85
  %_M_out_beg = getelementptr inbounds nuw %"class.std::basic_streambuf", ptr %this1, i32 0, i32 4
  store ptr null, ptr %_M_out_beg, align 8, !tbaa !86
  %_M_out_cur = getelementptr inbounds nuw %"class.std::basic_streambuf", ptr %this1, i32 0, i32 5
  store ptr null, ptr %_M_out_cur, align 8, !tbaa !87
  %_M_out_end = getelementptr inbounds nuw %"class.std::basic_streambuf", ptr %this1, i32 0, i32 6
  store ptr null, ptr %_M_out_end, align 8, !tbaa !88
  %_M_buf_locale = getelementptr inbounds nuw %"class.std::basic_streambuf", ptr %this1, i32 0, i32 7
  call void @_ZNSt6localeC1Ev(ptr noundef nonnull align 8 dereferenceable(8) %_M_buf_locale) #3
  ret void
}

; Function Attrs: nounwind
declare void @_ZNSt6localeC1Ev(ptr noundef nonnull align 8 dereferenceable(8)) unnamed_addr #2

; Function Attrs: mustprogress nounwind uwtable
define available_externally void @_ZNSt15basic_streambufIcSt11char_traitsIcEED2Ev(ptr noundef nonnull align 8 dereferenceable(64) %this) unnamed_addr #4 align 2 {
entry:
  %this.addr = alloca ptr, align 8
  store ptr %this, ptr %this.addr, align 8, !tbaa !82
  %this1 = load ptr, ptr %this.addr, align 8
  store ptr getelementptr inbounds inrange(-16, 112) ({ [16 x ptr] }, ptr @_ZTVSt15basic_streambufIcSt11char_traitsIcEE, i32 0, i32 0, i32 2), ptr %this1, align 8, !tbaa !35
  %_M_buf_locale = getelementptr inbounds nuw %"class.std::basic_streambuf", ptr %this1, i32 0, i32 7
  call void @_ZNSt6localeD1Ev(ptr noundef nonnull align 8 dereferenceable(8) %_M_buf_locale) #3
  ret void
}

; Function Attrs: nounwind
declare void @_ZNSt6localeD1Ev(ptr noundef nonnull align 8 dereferenceable(8)) unnamed_addr #2

; Function Attrs: mustprogress nounwind uwtable
define available_externally void @_ZNSoD2Ev(ptr noundef nonnull align 8 dereferenceable(8) %this, ptr noundef %vtt) unnamed_addr #4 align 2 {
entry:
  %this.addr = alloca ptr, align 8
  %vtt.addr = alloca ptr, align 8
  store ptr %this, ptr %this.addr, align 8, !tbaa !37
  store ptr %vtt, ptr %vtt.addr, align 8, !tbaa !69
  %this1 = load ptr, ptr %this.addr, align 8
  %vtt2 = load ptr, ptr %vtt.addr, align 8
  ret void
}

; Function Attrs: mustprogress nounwind uwtable
define linkonce_odr noundef i64 @_ZNSt8ios_base5widthEl(ptr noundef nonnull align 8 dereferenceable(216) %this, i64 noundef %__wide) #4 comdat align 2 {
entry:
  %this.addr = alloca ptr, align 8
  %__wide.addr = alloca i64, align 8
  %__old = alloca i64, align 8
  store ptr %this, ptr %this.addr, align 8, !tbaa !89
  store i64 %__wide, ptr %__wide.addr, align 8, !tbaa !26
  %this1 = load ptr, ptr %this.addr, align 8
  call void @llvm.lifetime.start.p0(i64 8, ptr %__old) #3
  %_M_width = getelementptr inbounds nuw %"class.std::ios_base", ptr %this1, i32 0, i32 2
  %0 = load i64, ptr %_M_width, align 8, !tbaa !91
  store i64 %0, ptr %__old, align 8, !tbaa !26
  %1 = load i64, ptr %__wide.addr, align 8, !tbaa !26
  %_M_width2 = getelementptr inbounds nuw %"class.std::ios_base", ptr %this1, i32 0, i32 2
  store i64 %1, ptr %_M_width2, align 8, !tbaa !91
  %2 = load i64, ptr %__old, align 8, !tbaa !26
  call void @llvm.lifetime.end.p0(i64 8, ptr %__old) #3
  ret i64 %2
}

; Function Attrs: mustprogress uwtable
define available_externally noundef signext i8 @_ZNSt9basic_iosIcSt11char_traitsIcEE4fillEc(ptr noundef nonnull align 8 dereferenceable(264) %this, i8 noundef signext %__ch) #5 align 2 {
entry:
  %this.addr = alloca ptr, align 8
  %__ch.addr = alloca i8, align 1
  %__old = alloca i8, align 1
  store ptr %this, ptr %this.addr, align 8, !tbaa !44
  store i8 %__ch, ptr %__ch.addr, align 1, !tbaa !11
  %this1 = load ptr, ptr %this.addr, align 8
  call void @llvm.lifetime.start.p0(i64 1, ptr %__old) #3
  %call = call noundef signext i8 @_ZNKSt9basic_iosIcSt11char_traitsIcEE4fillEv(ptr noundef nonnull align 8 dereferenceable(264) %this1)
  store i8 %call, ptr %__old, align 1, !tbaa !11
  %0 = load i8, ptr %__ch.addr, align 1, !tbaa !11
  %_M_fill = getelementptr inbounds nuw %"class.std::basic_ios", ptr %this1, i32 0, i32 2
  store i8 %0, ptr %_M_fill, align 8, !tbaa !61
  %1 = load i8, ptr %__old, align 1, !tbaa !11
  call void @llvm.lifetime.end.p0(i64 1, ptr %__old) #3
  ret i8 %1
}

; Function Attrs: mustprogress uwtable
define available_externally noundef signext i8 @_ZNKSt9basic_iosIcSt11char_traitsIcEE4fillEv(ptr noundef nonnull align 8 dereferenceable(264) %this) #5 align 2 {
entry:
  %this.addr = alloca ptr, align 8
  store ptr %this, ptr %this.addr, align 8, !tbaa !44
  %this1 = load ptr, ptr %this.addr, align 8
  %_M_fill_init = getelementptr inbounds nuw %"class.std::basic_ios", ptr %this1, i32 0, i32 3
  %0 = load i8, ptr %_M_fill_init, align 1, !tbaa !62, !range !92, !noundef !93
  %loadedv = trunc i8 %0 to i1
  br i1 %loadedv, label %if.end, label %if.then

if.then:                                          ; preds = %entry
  %call = call noundef signext i8 @_ZNKSt9basic_iosIcSt11char_traitsIcEE5widenEc(ptr noundef nonnull align 8 dereferenceable(264) %this1, i8 noundef signext 32)
  %_M_fill = getelementptr inbounds nuw %"class.std::basic_ios", ptr %this1, i32 0, i32 2
  store i8 %call, ptr %_M_fill, align 8, !tbaa !61
  %_M_fill_init2 = getelementptr inbounds nuw %"class.std::basic_ios", ptr %this1, i32 0, i32 3
  store i8 1, ptr %_M_fill_init2, align 1, !tbaa !62
  br label %if.end

if.end:                                           ; preds = %if.then, %entry
  %_M_fill3 = getelementptr inbounds nuw %"class.std::basic_ios", ptr %this1, i32 0, i32 2
  %1 = load i8, ptr %_M_fill3, align 8, !tbaa !61
  ret i8 %1
}

; Function Attrs: mustprogress uwtable
define available_externally noundef signext i8 @_ZNKSt9basic_iosIcSt11char_traitsIcEE5widenEc(ptr noundef nonnull align 8 dereferenceable(264) %this, i8 noundef signext %__c) #5 align 2 {
entry:
  %this.addr = alloca ptr, align 8
  %__c.addr = alloca i8, align 1
  store ptr %this, ptr %this.addr, align 8, !tbaa !44
  store i8 %__c, ptr %__c.addr, align 1, !tbaa !11
  %this1 = load ptr, ptr %this.addr, align 8
  %_M_ctype = getelementptr inbounds nuw %"class.std::basic_ios", ptr %this1, i32 0, i32 5
  %0 = load ptr, ptr %_M_ctype, align 8, !tbaa !64
  %call = call noundef nonnull align 8 dereferenceable(570) ptr @_ZSt13__check_facetISt5ctypeIcEERKT_PS3_(ptr noundef %0)
  %1 = load i8, ptr %__c.addr, align 1, !tbaa !11
  %call2 = call noundef signext i8 @_ZNKSt5ctypeIcE5widenEc(ptr noundef nonnull align 8 dereferenceable(570) %call, i8 noundef signext %1)
  ret i8 %call2
}

; Function Attrs: inlinehint mustprogress uwtable
define linkonce_odr noundef nonnull align 8 dereferenceable(570) ptr @_ZSt13__check_facetISt5ctypeIcEERKT_PS3_(ptr noundef %__f) #11 comdat {
entry:
  %__f.addr = alloca ptr, align 8
  store ptr %__f, ptr %__f.addr, align 8, !tbaa !94
  %0 = load ptr, ptr %__f.addr, align 8, !tbaa !94
  %tobool = icmp ne ptr %0, null
  br i1 %tobool, label %if.end, label %if.then

if.then:                                          ; preds = %entry
  call void @_ZSt16__throw_bad_castv() #17
  unreachable

if.end:                                           ; preds = %entry
  %1 = load ptr, ptr %__f.addr, align 8, !tbaa !94
  ret ptr %1
}

; Function Attrs: mustprogress uwtable
define linkonce_odr noundef signext i8 @_ZNKSt5ctypeIcE5widenEc(ptr noundef nonnull align 8 dereferenceable(570) %this, i8 noundef signext %__c) #5 comdat align 2 {
entry:
  %retval = alloca i8, align 1
  %this.addr = alloca ptr, align 8
  %__c.addr = alloca i8, align 1
  store ptr %this, ptr %this.addr, align 8, !tbaa !94
  store i8 %__c, ptr %__c.addr, align 1, !tbaa !11
  %this1 = load ptr, ptr %this.addr, align 8
  %_M_widen_ok = getelementptr inbounds nuw %"class.std::ctype", ptr %this1, i32 0, i32 8
  %0 = load i8, ptr %_M_widen_ok, align 8, !tbaa !95
  %tobool = icmp ne i8 %0, 0
  br i1 %tobool, label %if.then, label %if.end

if.then:                                          ; preds = %entry
  %_M_widen = getelementptr inbounds nuw %"class.std::ctype", ptr %this1, i32 0, i32 9
  %1 = load i8, ptr %__c.addr, align 1, !tbaa !11
  %idxprom = zext i8 %1 to i64
  %arrayidx = getelementptr inbounds nuw [256 x i8], ptr %_M_widen, i64 0, i64 %idxprom
  %2 = load i8, ptr %arrayidx, align 1, !tbaa !11
  store i8 %2, ptr %retval, align 1
  br label %return

if.end:                                           ; preds = %entry
  call void @_ZNKSt5ctypeIcE13_M_widen_initEv(ptr noundef nonnull align 8 dereferenceable(570) %this1)
  %3 = load i8, ptr %__c.addr, align 1, !tbaa !11
  %vtable = load ptr, ptr %this1, align 8, !tbaa !35
  %vfn = getelementptr inbounds ptr, ptr %vtable, i64 6
  %4 = load ptr, ptr %vfn, align 8
  %call = call noundef signext i8 %4(ptr noundef nonnull align 8 dereferenceable(570) %this1, i8 noundef signext %3)
  store i8 %call, ptr %retval, align 1
  br label %return

return:                                           ; preds = %if.end, %if.then
  %5 = load i8, ptr %retval, align 1
  ret i8 %5
}

; Function Attrs: noreturn
declare void @_ZSt16__throw_bad_castv() #13

declare void @_ZNKSt5ctypeIcE13_M_widen_initEv(ptr noundef nonnull align 8 dereferenceable(570)) #1

; Function Attrs: mustprogress uwtable
define available_externally noundef nonnull align 8 dereferenceable(32) ptr @_ZNSt7__cxx1112basic_stringIcSt11char_traitsIcESaIcEE6appendEPKcm(ptr noundef nonnull align 8 dereferenceable(32) %this, ptr noundef %__s, i64 noundef %__n) #5 align 2 {
entry:
  %this.addr = alloca ptr, align 8
  %__s.addr = alloca ptr, align 8
  %__n.addr = alloca i64, align 8
  store ptr %this, ptr %this.addr, align 8, !tbaa !12
  store ptr %__s, ptr %__s.addr, align 8, !tbaa !22
  store i64 %__n, ptr %__n.addr, align 8, !tbaa !26
  %this1 = load ptr, ptr %this.addr, align 8
  %0 = load i64, ptr %__n.addr, align 8, !tbaa !26
  call void @_ZNKSt7__cxx1112basic_stringIcSt11char_traitsIcESaIcEE15_M_check_lengthEmmPKc(ptr noundef nonnull align 8 dereferenceable(32) %this1, i64 noundef 0, i64 noundef %0, ptr noundef @.str.7)
  %1 = load ptr, ptr %__s.addr, align 8, !tbaa !22
  %2 = load i64, ptr %__n.addr, align 8, !tbaa !26
  %call = call noundef nonnull align 8 dereferenceable(32) ptr @_ZNSt7__cxx1112basic_stringIcSt11char_traitsIcESaIcEE9_M_appendEPKcm(ptr noundef nonnull align 8 dereferenceable(32) %this1, ptr noundef %1, i64 noundef %2)
  ret ptr %call
}

; Function Attrs: mustprogress uwtable
define available_externally void @_ZNKSt7__cxx1115basic_stringbufIcSt11char_traitsIcESaIcEE3strEv(ptr dead_on_unwind noalias writable sret(%"class.std::__cxx11::basic_string") align 8 %agg.result, ptr noundef nonnull align 8 dereferenceable(104) %this) #5 align 2 personality ptr @__gxx_personality_v0 {
entry:
  %result.ptr = alloca ptr, align 8
  %this.addr = alloca ptr, align 8
  %nrvo = alloca i1, align 1
  %ref.tmp = alloca %"class.std::allocator", align 1
  %__hi = alloca ptr, align 8
  %exn.slot = alloca ptr, align 8
  %ehselector.slot = alloca i32, align 4
  store ptr %agg.result, ptr %result.ptr, align 8
  store ptr %this, ptr %this.addr, align 8, !tbaa !73
  %this1 = load ptr, ptr %this.addr, align 8
  store i1 false, ptr %nrvo, align 1
  call void @llvm.lifetime.start.p0(i64 1, ptr %ref.tmp) #3
  %_M_string = getelementptr inbounds nuw %"class.std::__cxx11::basic_stringbuf", ptr %this1, i32 0, i32 2
  call void @_ZNKSt7__cxx1112basic_stringIcSt11char_traitsIcESaIcEE13get_allocatorEv(ptr dead_on_unwind writable sret(%"class.std::allocator") align 1 %ref.tmp, ptr noundef nonnull align 8 dereferenceable(32) %_M_string) #3
  call void @_ZNSt7__cxx1112basic_stringIcSt11char_traitsIcESaIcEEC2ERKS3_(ptr noundef nonnull align 8 dereferenceable(32) %agg.result, ptr noundef nonnull align 1 dereferenceable(1) %ref.tmp) #3
  call void @_ZNSt15__new_allocatorIcED2Ev(ptr noundef nonnull align 1 dereferenceable(1) %ref.tmp) #3
  call void @llvm.lifetime.end.p0(i64 1, ptr %ref.tmp) #3
  call void @llvm.lifetime.start.p0(i64 8, ptr %__hi) #3
  %call = call noundef ptr @_ZNKSt7__cxx1115basic_stringbufIcSt11char_traitsIcESaIcEE12_M_high_markEv(ptr noundef nonnull align 8 dereferenceable(104) %this1) #3
  store ptr %call, ptr %__hi, align 8, !tbaa !22
  %0 = load ptr, ptr %__hi, align 8, !tbaa !22
  %tobool = icmp ne ptr %0, null
  br i1 %tobool, label %if.then, label %if.else

if.then:                                          ; preds = %entry
  %call2 = invoke noundef ptr @_ZNKSt15basic_streambufIcSt11char_traitsIcEE5pbaseEv(ptr noundef nonnull align 8 dereferenceable(64) %this1)
          to label %invoke.cont unwind label %lpad

invoke.cont:                                      ; preds = %if.then
  %1 = load ptr, ptr %__hi, align 8, !tbaa !22
  %call4 = invoke noundef nonnull align 8 dereferenceable(32) ptr @_ZNSt7__cxx1112basic_stringIcSt11char_traitsIcESaIcEE6assignIPcvEERS4_T_S8_(ptr noundef nonnull align 8 dereferenceable(32) %agg.result, ptr noundef %call2, ptr noundef %1)
          to label %invoke.cont3 unwind label %lpad

invoke.cont3:                                     ; preds = %invoke.cont
  br label %if.end

lpad:                                             ; preds = %if.else, %invoke.cont, %if.then
  %2 = landingpad { ptr, i32 }
          cleanup
  %3 = extractvalue { ptr, i32 } %2, 0
  store ptr %3, ptr %exn.slot, align 8
  %4 = extractvalue { ptr, i32 } %2, 1
  store i32 %4, ptr %ehselector.slot, align 4
  call void @llvm.lifetime.end.p0(i64 8, ptr %__hi) #3
  call void @_ZNSt7__cxx1112basic_stringIcSt11char_traitsIcESaIcEED2Ev(ptr noundef nonnull align 8 dereferenceable(32) %agg.result) #3
  br label %eh.resume

if.else:                                          ; preds = %entry
  %_M_string5 = getelementptr inbounds nuw %"class.std::__cxx11::basic_stringbuf", ptr %this1, i32 0, i32 2
  %call7 = invoke noundef nonnull align 8 dereferenceable(32) ptr @_ZNSt7__cxx1112basic_stringIcSt11char_traitsIcESaIcEEaSERKS4_(ptr noundef nonnull align 8 dereferenceable(32) %agg.result, ptr noundef nonnull align 8 dereferenceable(32) %_M_string5)
          to label %invoke.cont6 unwind label %lpad

invoke.cont6:                                     ; preds = %if.else
  br label %if.end

if.end:                                           ; preds = %invoke.cont6, %invoke.cont3
  call void @llvm.lifetime.end.p0(i64 8, ptr %__hi) #3
  store i1 true, ptr %nrvo, align 1
  %nrvo.val = load i1, ptr %nrvo, align 1
  br i1 %nrvo.val, label %nrvo.skipdtor, label %nrvo.unused

nrvo.unused:                                      ; preds = %if.end
  call void @_ZNSt7__cxx1112basic_stringIcSt11char_traitsIcESaIcEED2Ev(ptr noundef nonnull align 8 dereferenceable(32) %agg.result) #3
  br label %nrvo.skipdtor

nrvo.skipdtor:                                    ; preds = %nrvo.unused, %if.end
  ret void

eh.resume:                                        ; preds = %lpad
  %exn = load ptr, ptr %exn.slot, align 8
  %sel = load i32, ptr %ehselector.slot, align 4
  %lpad.val = insertvalue { ptr, i32 } poison, ptr %exn, 0
  %lpad.val8 = insertvalue { ptr, i32 } %lpad.val, i32 %sel, 1
  resume { ptr, i32 } %lpad.val8
}

; Function Attrs: mustprogress nounwind uwtable
define available_externally void @_ZNKSt7__cxx1112basic_stringIcSt11char_traitsIcESaIcEE13get_allocatorEv(ptr dead_on_unwind noalias writable sret(%"class.std::allocator") align 1 %agg.result, ptr noundef nonnull align 8 dereferenceable(32) %this) #4 align 2 {
entry:
  %result.ptr = alloca ptr, align 8
  %this.addr = alloca ptr, align 8
  store ptr %agg.result, ptr %result.ptr, align 8
  store ptr %this, ptr %this.addr, align 8, !tbaa !12
  %this1 = load ptr, ptr %this.addr, align 8
  %call = call noundef nonnull align 1 dereferenceable(1) ptr @_ZNKSt7__cxx1112basic_stringIcSt11char_traitsIcESaIcEE16_M_get_allocatorEv(ptr noundef nonnull align 8 dereferenceable(32) %this1)
  call void @_ZNSaIcEC2ERKS_(ptr noundef nonnull align 1 dereferenceable(1) %agg.result, ptr noundef nonnull align 1 dereferenceable(1) %call) #3
  ret void
}

; Function Attrs: mustprogress nounwind uwtable
define available_externally void @_ZNSt7__cxx1112basic_stringIcSt11char_traitsIcESaIcEEC2ERKS3_(ptr noundef nonnull align 8 dereferenceable(32) %this, ptr noundef nonnull align 1 dereferenceable(1) %__a) unnamed_addr #4 align 2 personality ptr @__gxx_personality_v0 {
entry:
  %this.addr = alloca ptr, align 8
  %__a.addr = alloca ptr, align 8
  store ptr %this, ptr %this.addr, align 8, !tbaa !12
  store ptr %__a, ptr %__a.addr, align 8, !tbaa !18
  %this1 = load ptr, ptr %this.addr, align 8
  %_M_dataplus = getelementptr inbounds nuw %"class.std::__cxx11::basic_string", ptr %this1, i32 0, i32 0
  %call = call noundef ptr @_ZNSt7__cxx1112basic_stringIcSt11char_traitsIcESaIcEE13_M_local_dataEv(ptr noundef nonnull align 8 dereferenceable(32) %this1)
  %0 = load ptr, ptr %__a.addr, align 8, !tbaa !18
  invoke void @_ZNSt7__cxx1112basic_stringIcSt11char_traitsIcESaIcEE12_Alloc_hiderC2EPcRKS3_(ptr noundef nonnull align 8 dereferenceable(8) %_M_dataplus, ptr noundef %call, ptr noundef nonnull align 1 dereferenceable(1) %0)
          to label %invoke.cont unwind label %terminate.lpad

invoke.cont:                                      ; preds = %entry
  %call2 = call noundef ptr @_ZNSt7__cxx1112basic_stringIcSt11char_traitsIcESaIcEE17_M_use_local_dataEv(ptr noundef nonnull align 8 dereferenceable(32) %this1) #3
  invoke void @_ZNSt7__cxx1112basic_stringIcSt11char_traitsIcESaIcEE13_M_set_lengthEm(ptr noundef nonnull align 8 dereferenceable(32) %this1, i64 noundef 0)
          to label %invoke.cont3 unwind label %terminate.lpad

invoke.cont3:                                     ; preds = %invoke.cont
  ret void

terminate.lpad:                                   ; preds = %invoke.cont, %entry
  %1 = landingpad { ptr, i32 }
          catch ptr null
  %2 = extractvalue { ptr, i32 } %1, 0
  call void @__clang_call_terminate(ptr %2) #15
  unreachable
}

; Function Attrs: alwaysinline mustprogress nounwind uwtable
define available_externally noundef ptr @_ZNKSt7__cxx1115basic_stringbufIcSt11char_traitsIcESaIcEE12_M_high_markEv(ptr noundef nonnull align 8 dereferenceable(104) %this) #9 align 2 personality ptr @__gxx_personality_v0 {
entry:
  %retval = alloca ptr, align 8
  %this.addr = alloca ptr, align 8
  %__pptr = alloca ptr, align 8
  %__egptr = alloca ptr, align 8
  %cleanup.dest.slot = alloca i32, align 4
  store ptr %this, ptr %this.addr, align 8, !tbaa !73
  %this1 = load ptr, ptr %this.addr, align 8
  call void @llvm.lifetime.start.p0(i64 8, ptr %__pptr) #3
  %call = invoke noundef ptr @_ZNKSt15basic_streambufIcSt11char_traitsIcEE4pptrEv(ptr noundef nonnull align 8 dereferenceable(64) %this1)
          to label %invoke.cont unwind label %terminate.lpad

invoke.cont:                                      ; preds = %entry
  store ptr %call, ptr %__pptr, align 8, !tbaa !22
  %0 = load ptr, ptr %__pptr, align 8, !tbaa !22
  %tobool = icmp ne ptr %0, null
  br i1 %tobool, label %if.then, label %if.end

if.then:                                          ; preds = %invoke.cont
  call void @llvm.lifetime.start.p0(i64 8, ptr %__egptr) #3
  %call3 = invoke noundef ptr @_ZNKSt15basic_streambufIcSt11char_traitsIcEE5egptrEv(ptr noundef nonnull align 8 dereferenceable(64) %this1)
          to label %invoke.cont2 unwind label %terminate.lpad

invoke.cont2:                                     ; preds = %if.then
  store ptr %call3, ptr %__egptr, align 8, !tbaa !22
  %1 = load ptr, ptr %__egptr, align 8, !tbaa !22
  %tobool4 = icmp ne ptr %1, null
  br i1 %tobool4, label %lor.lhs.false, label %if.then5

lor.lhs.false:                                    ; preds = %invoke.cont2
  %2 = load ptr, ptr %__pptr, align 8, !tbaa !22
  %3 = load ptr, ptr %__egptr, align 8, !tbaa !22
  %cmp = icmp ugt ptr %2, %3
  br i1 %cmp, label %if.then5, label %if.else

if.then5:                                         ; preds = %lor.lhs.false, %invoke.cont2
  %4 = load ptr, ptr %__pptr, align 8, !tbaa !22
  store ptr %4, ptr %retval, align 8
  store i32 1, ptr %cleanup.dest.slot, align 4
  br label %cleanup

if.else:                                          ; preds = %lor.lhs.false
  %5 = load ptr, ptr %__egptr, align 8, !tbaa !22
  store ptr %5, ptr %retval, align 8
  store i32 1, ptr %cleanup.dest.slot, align 4
  br label %cleanup

cleanup:                                          ; preds = %if.else, %if.then5
  call void @llvm.lifetime.end.p0(i64 8, ptr %__egptr) #3
  br label %cleanup6

if.end:                                           ; preds = %invoke.cont
  store i32 0, ptr %cleanup.dest.slot, align 4
  br label %cleanup6

cleanup6:                                         ; preds = %if.end, %cleanup
  call void @llvm.lifetime.end.p0(i64 8, ptr %__pptr) #3
  %cleanup.dest = load i32, ptr %cleanup.dest.slot, align 4
  switch i32 %cleanup.dest, label %unreachable [
    i32 0, label %cleanup.cont
    i32 1, label %return
  ]

cleanup.cont:                                     ; preds = %cleanup6
  store ptr null, ptr %retval, align 8
  br label %return

return:                                           ; preds = %cleanup.cont, %cleanup6
  %6 = load ptr, ptr %retval, align 8
  ret ptr %6

terminate.lpad:                                   ; preds = %if.then, %entry
  %7 = landingpad { ptr, i32 }
          catch ptr null
  %8 = extractvalue { ptr, i32 } %7, 0
  call void @__clang_call_terminate(ptr %8) #15
  unreachable

unreachable:                                      ; preds = %cleanup6
  unreachable
}

; Function Attrs: mustprogress uwtable
define linkonce_odr noundef nonnull align 8 dereferenceable(32) ptr @_ZNSt7__cxx1112basic_stringIcSt11char_traitsIcESaIcEE6assignIPcvEERS4_T_S8_(ptr noundef nonnull align 8 dereferenceable(32) %this, ptr noundef %__first, ptr noundef %__last) #5 comdat align 2 {
entry:
  %this.addr = alloca ptr, align 8
  %__first.addr = alloca ptr, align 8
  %__last.addr = alloca ptr, align 8
  %agg.tmp = alloca %"class.__gnu_cxx::__normal_iterator", align 8
  %ref.tmp = alloca %"class.__gnu_cxx::__normal_iterator.0", align 8
  %agg.tmp2 = alloca %"class.__gnu_cxx::__normal_iterator", align 8
  %ref.tmp3 = alloca %"class.__gnu_cxx::__normal_iterator.0", align 8
  store ptr %this, ptr %this.addr, align 8, !tbaa !12
  store ptr %__first, ptr %__first.addr, align 8, !tbaa !22
  store ptr %__last, ptr %__last.addr, align 8, !tbaa !22
  %this1 = load ptr, ptr %this.addr, align 8
  call void @llvm.lifetime.start.p0(i64 8, ptr %ref.tmp) #3
  %call = call ptr @_ZNSt7__cxx1112basic_stringIcSt11char_traitsIcESaIcEE5beginEv(ptr noundef nonnull align 8 dereferenceable(32) %this1) #3
  %coerce.dive = getelementptr inbounds nuw %"class.__gnu_cxx::__normal_iterator.0", ptr %ref.tmp, i32 0, i32 0
  store ptr %call, ptr %coerce.dive, align 8
  call void @_ZN9__gnu_cxx17__normal_iteratorIPKcNSt7__cxx1112basic_stringIcSt11char_traitsIcESaIcEEEEC2IPcvEERKNS0_IT_S8_EE(ptr noundef nonnull align 8 dereferenceable(8) %agg.tmp, ptr noundef nonnull align 8 dereferenceable(8) %ref.tmp) #3
  call void @llvm.lifetime.start.p0(i64 8, ptr %ref.tmp3) #3
  %call4 = call ptr @_ZNSt7__cxx1112basic_stringIcSt11char_traitsIcESaIcEE3endEv(ptr noundef nonnull align 8 dereferenceable(32) %this1) #3
  %coerce.dive5 = getelementptr inbounds nuw %"class.__gnu_cxx::__normal_iterator.0", ptr %ref.tmp3, i32 0, i32 0
  store ptr %call4, ptr %coerce.dive5, align 8
  call void @_ZN9__gnu_cxx17__normal_iteratorIPKcNSt7__cxx1112basic_stringIcSt11char_traitsIcESaIcEEEEC2IPcvEERKNS0_IT_S8_EE(ptr noundef nonnull align 8 dereferenceable(8) %agg.tmp2, ptr noundef nonnull align 8 dereferenceable(8) %ref.tmp3) #3
  %0 = load ptr, ptr %__first.addr, align 8, !tbaa !22
  %1 = load ptr, ptr %__last.addr, align 8, !tbaa !22
  %coerce.dive6 = getelementptr inbounds nuw %"class.__gnu_cxx::__normal_iterator", ptr %agg.tmp, i32 0, i32 0
  %2 = load ptr, ptr %coerce.dive6, align 8
  %coerce.dive7 = getelementptr inbounds nuw %"class.__gnu_cxx::__normal_iterator", ptr %agg.tmp2, i32 0, i32 0
  %3 = load ptr, ptr %coerce.dive7, align 8
  %call8 = call noundef nonnull align 8 dereferenceable(32) ptr @_ZNSt7__cxx1112basic_stringIcSt11char_traitsIcESaIcEE7replaceEN9__gnu_cxx17__normal_iteratorIPKcS4_EES9_PcSA_(ptr noundef nonnull align 8 dereferenceable(32) %this1, ptr %2, ptr %3, ptr noundef %0, ptr noundef %1)
  call void @llvm.lifetime.end.p0(i64 8, ptr %ref.tmp3) #3
  call void @llvm.lifetime.end.p0(i64 8, ptr %ref.tmp) #3
  ret ptr %call8
}

; Function Attrs: mustprogress nounwind uwtable
define available_externally noundef ptr @_ZNKSt15basic_streambufIcSt11char_traitsIcEE5pbaseEv(ptr noundef nonnull align 8 dereferenceable(64) %this) #4 align 2 {
entry:
  %this.addr = alloca ptr, align 8
  store ptr %this, ptr %this.addr, align 8, !tbaa !82
  %this1 = load ptr, ptr %this.addr, align 8
  %_M_out_beg = getelementptr inbounds nuw %"class.std::basic_streambuf", ptr %this1, i32 0, i32 4
  %0 = load ptr, ptr %_M_out_beg, align 8, !tbaa !86
  ret ptr %0
}

; Function Attrs: mustprogress uwtable
define available_externally noundef nonnull align 8 dereferenceable(32) ptr @_ZNSt7__cxx1112basic_stringIcSt11char_traitsIcESaIcEEaSERKS4_(ptr noundef nonnull align 8 dereferenceable(32) %this, ptr noundef nonnull align 8 dereferenceable(32) %__str) #5 align 2 {
entry:
  %this.addr = alloca ptr, align 8
  %__str.addr = alloca ptr, align 8
  store ptr %this, ptr %this.addr, align 8, !tbaa !12
  store ptr %__str, ptr %__str.addr, align 8, !tbaa !12
  %this1 = load ptr, ptr %this.addr, align 8
  %0 = load ptr, ptr %__str.addr, align 8, !tbaa !12
  %call = call noundef nonnull align 8 dereferenceable(32) ptr @_ZNSt7__cxx1112basic_stringIcSt11char_traitsIcESaIcEE6assignERKS4_(ptr noundef nonnull align 8 dereferenceable(32) %this1, ptr noundef nonnull align 8 dereferenceable(32) %0)
  ret ptr %call
}

; Function Attrs: mustprogress nounwind uwtable
define available_externally void @_ZNSaIcEC2ERKS_(ptr noundef nonnull align 1 dereferenceable(1) %this, ptr noundef nonnull align 1 dereferenceable(1) %__a) unnamed_addr #4 align 2 {
entry:
  %this.addr = alloca ptr, align 8
  %__a.addr = alloca ptr, align 8
  store ptr %this, ptr %this.addr, align 8, !tbaa !18
  store ptr %__a, ptr %__a.addr, align 8, !tbaa !18
  %this1 = load ptr, ptr %this.addr, align 8
  %0 = load ptr, ptr %__a.addr, align 8, !tbaa !18
  call void @_ZNSt15__new_allocatorIcEC2ERKS0_(ptr noundef nonnull align 1 dereferenceable(1) %this1, ptr noundef nonnull align 1 dereferenceable(1) %0) #3
  ret void
}

; Function Attrs: mustprogress nounwind uwtable
define available_externally void @_ZNSt7__cxx1112basic_stringIcSt11char_traitsIcESaIcEE12_Alloc_hiderC2EPcRKS3_(ptr noundef nonnull align 8 dereferenceable(8) %this, ptr noundef %__dat, ptr noundef nonnull align 1 dereferenceable(1) %__a) unnamed_addr #4 align 2 {
entry:
  %this.addr = alloca ptr, align 8
  %__dat.addr = alloca ptr, align 8
  %__a.addr = alloca ptr, align 8
  store ptr %this, ptr %this.addr, align 8, !tbaa !20
  store ptr %__dat, ptr %__dat.addr, align 8, !tbaa !22
  store ptr %__a, ptr %__a.addr, align 8, !tbaa !18
  %this1 = load ptr, ptr %this.addr, align 8
  %0 = load ptr, ptr %__a.addr, align 8, !tbaa !18
  call void @_ZNSaIcEC2ERKS_(ptr noundef nonnull align 1 dereferenceable(1) %this1, ptr noundef nonnull align 1 dereferenceable(1) %0) #3
  %_M_p = getelementptr inbounds nuw %"struct.std::__cxx11::basic_string<char>::_Alloc_hider", ptr %this1, i32 0, i32 0
  %1 = load ptr, ptr %__dat.addr, align 8, !tbaa !22
  store ptr %1, ptr %_M_p, align 8, !tbaa !24
  ret void
}

; Function Attrs: mustprogress nounwind uwtable
define available_externally noundef ptr @_ZNKSt15basic_streambufIcSt11char_traitsIcEE4pptrEv(ptr noundef nonnull align 8 dereferenceable(64) %this) #4 align 2 {
entry:
  %this.addr = alloca ptr, align 8
  store ptr %this, ptr %this.addr, align 8, !tbaa !82
  %this1 = load ptr, ptr %this.addr, align 8
  %_M_out_cur = getelementptr inbounds nuw %"class.std::basic_streambuf", ptr %this1, i32 0, i32 5
  %0 = load ptr, ptr %_M_out_cur, align 8, !tbaa !87
  ret ptr %0
}

; Function Attrs: mustprogress nounwind uwtable
define available_externally noundef ptr @_ZNKSt15basic_streambufIcSt11char_traitsIcEE5egptrEv(ptr noundef nonnull align 8 dereferenceable(64) %this) #4 align 2 {
entry:
  %this.addr = alloca ptr, align 8
  store ptr %this, ptr %this.addr, align 8, !tbaa !82
  %this1 = load ptr, ptr %this.addr, align 8
  %_M_in_end = getelementptr inbounds nuw %"class.std::basic_streambuf", ptr %this1, i32 0, i32 3
  %0 = load ptr, ptr %_M_in_end, align 8, !tbaa !85
  ret ptr %0
}

; Function Attrs: mustprogress uwtable
define available_externally noundef nonnull align 8 dereferenceable(32) ptr @_ZNSt7__cxx1112basic_stringIcSt11char_traitsIcESaIcEE7replaceEN9__gnu_cxx17__normal_iteratorIPKcS4_EES9_PcSA_(ptr noundef nonnull align 8 dereferenceable(32) %this, ptr %__i1.coerce, ptr %__i2.coerce, ptr noundef %__k1, ptr noundef %__k2) #5 align 2 {
entry:
  %__i1 = alloca %"class.__gnu_cxx::__normal_iterator", align 8
  %__i2 = alloca %"class.__gnu_cxx::__normal_iterator", align 8
  %this.addr = alloca ptr, align 8
  %__k1.addr = alloca ptr, align 8
  %__k2.addr = alloca ptr, align 8
  %ref.tmp = alloca %"class.__gnu_cxx::__normal_iterator.0", align 8
  %coerce.dive = getelementptr inbounds nuw %"class.__gnu_cxx::__normal_iterator", ptr %__i1, i32 0, i32 0
  store ptr %__i1.coerce, ptr %coerce.dive, align 8
  %coerce.dive1 = getelementptr inbounds nuw %"class.__gnu_cxx::__normal_iterator", ptr %__i2, i32 0, i32 0
  store ptr %__i2.coerce, ptr %coerce.dive1, align 8
  store ptr %this, ptr %this.addr, align 8, !tbaa !12
  store ptr %__k1, ptr %__k1.addr, align 8, !tbaa !22
  store ptr %__k2, ptr %__k2.addr, align 8, !tbaa !22
  %this2 = load ptr, ptr %this.addr, align 8
  call void @llvm.lifetime.start.p0(i64 8, ptr %ref.tmp) #3
  %call = call ptr @_ZNSt7__cxx1112basic_stringIcSt11char_traitsIcESaIcEE5beginEv(ptr noundef nonnull align 8 dereferenceable(32) %this2) #3
  %coerce.dive3 = getelementptr inbounds nuw %"class.__gnu_cxx::__normal_iterator.0", ptr %ref.tmp, i32 0, i32 0
  store ptr %call, ptr %coerce.dive3, align 8
  %call4 = call noundef i64 @_ZN9__gnu_cxxmiIPKcPcNSt7__cxx1112basic_stringIcSt11char_traitsIcESaIcEEEEEDTmicldtfp_4baseEcldtfp0_4baseEERKNS_17__normal_iteratorIT_T1_EERKNSB_IT0_SD_EE(ptr noundef nonnull align 8 dereferenceable(8) %__i1, ptr noundef nonnull align 8 dereferenceable(8) %ref.tmp) #3
  %call5 = call noundef i64 @_ZN9__gnu_cxxmiIPKcNSt7__cxx1112basic_stringIcSt11char_traitsIcESaIcEEEEENS_17__normal_iteratorIT_T0_E15difference_typeERKSC_SF_(ptr noundef nonnull align 8 dereferenceable(8) %__i2, ptr noundef nonnull align 8 dereferenceable(8) %__i1) #3
  %0 = load ptr, ptr %__k1.addr, align 8, !tbaa !22
  %1 = load ptr, ptr %__k2.addr, align 8, !tbaa !22
  %2 = load ptr, ptr %__k1.addr, align 8, !tbaa !22
  %sub.ptr.lhs.cast = ptrtoint ptr %1 to i64
  %sub.ptr.rhs.cast = ptrtoint ptr %2 to i64
  %sub.ptr.sub = sub i64 %sub.ptr.lhs.cast, %sub.ptr.rhs.cast
  %call6 = call noundef nonnull align 8 dereferenceable(32) ptr @_ZNSt7__cxx1112basic_stringIcSt11char_traitsIcESaIcEE7replaceEmmPKcm(ptr noundef nonnull align 8 dereferenceable(32) %this2, i64 noundef %call4, i64 noundef %call5, ptr noundef %0, i64 noundef %sub.ptr.sub)
  call void @llvm.lifetime.end.p0(i64 8, ptr %ref.tmp) #3
  ret ptr %call6
}

; Function Attrs: mustprogress nounwind uwtable
define available_externally ptr @_ZNSt7__cxx1112basic_stringIcSt11char_traitsIcESaIcEE5beginEv(ptr noundef nonnull align 8 dereferenceable(32) %this) #4 align 2 {
entry:
  %retval = alloca %"class.__gnu_cxx::__normal_iterator.0", align 8
  %this.addr = alloca ptr, align 8
  %ref.tmp = alloca ptr, align 8
  store ptr %this, ptr %this.addr, align 8, !tbaa !12
  %this1 = load ptr, ptr %this.addr, align 8
  call void @llvm.lifetime.start.p0(i64 8, ptr %ref.tmp) #3
  %call = call noundef ptr @_ZNKSt7__cxx1112basic_stringIcSt11char_traitsIcESaIcEE7_M_dataEv(ptr noundef nonnull align 8 dereferenceable(32) %this1)
  store ptr %call, ptr %ref.tmp, align 8, !tbaa !22
  call void @_ZN9__gnu_cxx17__normal_iteratorIPcNSt7__cxx1112basic_stringIcSt11char_traitsIcESaIcEEEEC2ERKS1_(ptr noundef nonnull align 8 dereferenceable(8) %retval, ptr noundef nonnull align 8 dereferenceable(8) %ref.tmp) #3
  call void @llvm.lifetime.end.p0(i64 8, ptr %ref.tmp) #3
  %coerce.dive = getelementptr inbounds nuw %"class.__gnu_cxx::__normal_iterator.0", ptr %retval, i32 0, i32 0
  %0 = load ptr, ptr %coerce.dive, align 8
  ret ptr %0
}

; Function Attrs: mustprogress nounwind uwtable
define linkonce_odr void @_ZN9__gnu_cxx17__normal_iteratorIPKcNSt7__cxx1112basic_stringIcSt11char_traitsIcESaIcEEEEC2IPcvEERKNS0_IT_S8_EE(ptr noundef nonnull align 8 dereferenceable(8) %this, ptr noundef nonnull align 8 dereferenceable(8) %__i) unnamed_addr #4 comdat align 2 {
entry:
  %this.addr = alloca ptr, align 8
  %__i.addr = alloca ptr, align 8
  store ptr %this, ptr %this.addr, align 8, !tbaa !101
  store ptr %__i, ptr %__i.addr, align 8, !tbaa !103
  %this1 = load ptr, ptr %this.addr, align 8
  %_M_current = getelementptr inbounds nuw %"class.__gnu_cxx::__normal_iterator", ptr %this1, i32 0, i32 0
  %0 = load ptr, ptr %__i.addr, align 8, !tbaa !103
  %call = call noundef nonnull align 8 dereferenceable(8) ptr @_ZNK9__gnu_cxx17__normal_iteratorIPcNSt7__cxx1112basic_stringIcSt11char_traitsIcESaIcEEEE4baseEv(ptr noundef nonnull align 8 dereferenceable(8) %0) #3
  %1 = load ptr, ptr %call, align 8, !tbaa !22
  store ptr %1, ptr %_M_current, align 8, !tbaa !105
  ret void
}

; Function Attrs: mustprogress nounwind uwtable
define available_externally ptr @_ZNSt7__cxx1112basic_stringIcSt11char_traitsIcESaIcEE3endEv(ptr noundef nonnull align 8 dereferenceable(32) %this) #4 align 2 {
entry:
  %retval = alloca %"class.__gnu_cxx::__normal_iterator.0", align 8
  %this.addr = alloca ptr, align 8
  %ref.tmp = alloca ptr, align 8
  store ptr %this, ptr %this.addr, align 8, !tbaa !12
  %this1 = load ptr, ptr %this.addr, align 8
  call void @llvm.lifetime.start.p0(i64 8, ptr %ref.tmp) #3
  %call = call noundef ptr @_ZNKSt7__cxx1112basic_stringIcSt11char_traitsIcESaIcEE7_M_dataEv(ptr noundef nonnull align 8 dereferenceable(32) %this1)
  %call2 = call noundef i64 @_ZNKSt7__cxx1112basic_stringIcSt11char_traitsIcESaIcEE4sizeEv(ptr noundef nonnull align 8 dereferenceable(32) %this1) #3
  %add.ptr = getelementptr inbounds nuw i8, ptr %call, i64 %call2
  store ptr %add.ptr, ptr %ref.tmp, align 8, !tbaa !22
  call void @_ZN9__gnu_cxx17__normal_iteratorIPcNSt7__cxx1112basic_stringIcSt11char_traitsIcESaIcEEEEC2ERKS1_(ptr noundef nonnull align 8 dereferenceable(8) %retval, ptr noundef nonnull align 8 dereferenceable(8) %ref.tmp) #3
  call void @llvm.lifetime.end.p0(i64 8, ptr %ref.tmp) #3
  %coerce.dive = getelementptr inbounds nuw %"class.__gnu_cxx::__normal_iterator.0", ptr %retval, i32 0, i32 0
  %0 = load ptr, ptr %coerce.dive, align 8
  ret ptr %0
}

; Function Attrs: mustprogress uwtable
define available_externally noundef nonnull align 8 dereferenceable(32) ptr @_ZNSt7__cxx1112basic_stringIcSt11char_traitsIcESaIcEE7replaceEmmPKcm(ptr noundef nonnull align 8 dereferenceable(32) %this, i64 noundef %__pos, i64 noundef %__n1, ptr noundef %__s, i64 noundef %__n2) #5 align 2 {
entry:
  %this.addr = alloca ptr, align 8
  %__pos.addr = alloca i64, align 8
  %__n1.addr = alloca i64, align 8
  %__s.addr = alloca ptr, align 8
  %__n2.addr = alloca i64, align 8
  store ptr %this, ptr %this.addr, align 8, !tbaa !12
  store i64 %__pos, ptr %__pos.addr, align 8, !tbaa !26
  store i64 %__n1, ptr %__n1.addr, align 8, !tbaa !26
  store ptr %__s, ptr %__s.addr, align 8, !tbaa !22
  store i64 %__n2, ptr %__n2.addr, align 8, !tbaa !26
  %this1 = load ptr, ptr %this.addr, align 8
  %0 = load i64, ptr %__pos.addr, align 8, !tbaa !26
  %call = call noundef i64 @_ZNKSt7__cxx1112basic_stringIcSt11char_traitsIcESaIcEE8_M_checkEmPKc(ptr noundef nonnull align 8 dereferenceable(32) %this1, i64 noundef %0, ptr noundef @.str.8)
  %1 = load i64, ptr %__pos.addr, align 8, !tbaa !26
  %2 = load i64, ptr %__n1.addr, align 8, !tbaa !26
  %call2 = call noundef i64 @_ZNKSt7__cxx1112basic_stringIcSt11char_traitsIcESaIcEE8_M_limitEmm(ptr noundef nonnull align 8 dereferenceable(32) %this1, i64 noundef %1, i64 noundef %2) #3
  %3 = load ptr, ptr %__s.addr, align 8, !tbaa !22
  %4 = load i64, ptr %__n2.addr, align 8, !tbaa !26
  %call3 = call noundef nonnull align 8 dereferenceable(32) ptr @_ZNSt7__cxx1112basic_stringIcSt11char_traitsIcESaIcEE10_M_replaceEmmPKcm(ptr noundef nonnull align 8 dereferenceable(32) %this1, i64 noundef %call, i64 noundef %call2, ptr noundef %3, i64 noundef %4)
  ret ptr %call3
}

; Function Attrs: inlinehint mustprogress nounwind uwtable
define linkonce_odr noundef i64 @_ZN9__gnu_cxxmiIPKcPcNSt7__cxx1112basic_stringIcSt11char_traitsIcESaIcEEEEEDTmicldtfp_4baseEcldtfp0_4baseEERKNS_17__normal_iteratorIT_T1_EERKNSB_IT0_SD_EE(ptr noundef nonnull align 8 dereferenceable(8) %__lhs, ptr noundef nonnull align 8 dereferenceable(8) %__rhs) #12 comdat {
entry:
  %__lhs.addr = alloca ptr, align 8
  %__rhs.addr = alloca ptr, align 8
  store ptr %__lhs, ptr %__lhs.addr, align 8, !tbaa !101
  store ptr %__rhs, ptr %__rhs.addr, align 8, !tbaa !103
  %0 = load ptr, ptr %__lhs.addr, align 8, !tbaa !101
  %call = call noundef nonnull align 8 dereferenceable(8) ptr @_ZNK9__gnu_cxx17__normal_iteratorIPKcNSt7__cxx1112basic_stringIcSt11char_traitsIcESaIcEEEE4baseEv(ptr noundef nonnull align 8 dereferenceable(8) %0) #3
  %1 = load ptr, ptr %call, align 8, !tbaa !22
  %2 = load ptr, ptr %__rhs.addr, align 8, !tbaa !103
  %call1 = call noundef nonnull align 8 dereferenceable(8) ptr @_ZNK9__gnu_cxx17__normal_iteratorIPcNSt7__cxx1112basic_stringIcSt11char_traitsIcESaIcEEEE4baseEv(ptr noundef nonnull align 8 dereferenceable(8) %2) #3
  %3 = load ptr, ptr %call1, align 8, !tbaa !22
  %sub.ptr.lhs.cast = ptrtoint ptr %1 to i64
  %sub.ptr.rhs.cast = ptrtoint ptr %3 to i64
  %sub.ptr.sub = sub i64 %sub.ptr.lhs.cast, %sub.ptr.rhs.cast
  ret i64 %sub.ptr.sub
}

; Function Attrs: inlinehint mustprogress nounwind uwtable
define linkonce_odr noundef i64 @_ZN9__gnu_cxxmiIPKcNSt7__cxx1112basic_stringIcSt11char_traitsIcESaIcEEEEENS_17__normal_iteratorIT_T0_E15difference_typeERKSC_SF_(ptr noundef nonnull align 8 dereferenceable(8) %__lhs, ptr noundef nonnull align 8 dereferenceable(8) %__rhs) #12 comdat {
entry:
  %__lhs.addr = alloca ptr, align 8
  %__rhs.addr = alloca ptr, align 8
  store ptr %__lhs, ptr %__lhs.addr, align 8, !tbaa !101
  store ptr %__rhs, ptr %__rhs.addr, align 8, !tbaa !101
  %0 = load ptr, ptr %__lhs.addr, align 8, !tbaa !101
  %call = call noundef nonnull align 8 dereferenceable(8) ptr @_ZNK9__gnu_cxx17__normal_iteratorIPKcNSt7__cxx1112basic_stringIcSt11char_traitsIcESaIcEEEE4baseEv(ptr noundef nonnull align 8 dereferenceable(8) %0) #3
  %1 = load ptr, ptr %call, align 8, !tbaa !22
  %2 = load ptr, ptr %__rhs.addr, align 8, !tbaa !101
  %call1 = call noundef nonnull align 8 dereferenceable(8) ptr @_ZNK9__gnu_cxx17__normal_iteratorIPKcNSt7__cxx1112basic_stringIcSt11char_traitsIcESaIcEEEE4baseEv(ptr noundef nonnull align 8 dereferenceable(8) %2) #3
  %3 = load ptr, ptr %call1, align 8, !tbaa !22
  %sub.ptr.lhs.cast = ptrtoint ptr %1 to i64
  %sub.ptr.rhs.cast = ptrtoint ptr %3 to i64
  %sub.ptr.sub = sub i64 %sub.ptr.lhs.cast, %sub.ptr.rhs.cast
  ret i64 %sub.ptr.sub
}

declare noundef nonnull align 8 dereferenceable(32) ptr @_ZNSt7__cxx1112basic_stringIcSt11char_traitsIcESaIcEE10_M_replaceEmmPKcm(ptr noundef nonnull align 8 dereferenceable(32), i64 noundef, i64 noundef, ptr noundef, i64 noundef) #1

; Function Attrs: mustprogress uwtable
define available_externally noundef i64 @_ZNKSt7__cxx1112basic_stringIcSt11char_traitsIcESaIcEE8_M_checkEmPKc(ptr noundef nonnull align 8 dereferenceable(32) %this, i64 noundef %__pos, ptr noundef %__s) #5 align 2 {
entry:
  %this.addr = alloca ptr, align 8
  %__pos.addr = alloca i64, align 8
  %__s.addr = alloca ptr, align 8
  store ptr %this, ptr %this.addr, align 8, !tbaa !12
  store i64 %__pos, ptr %__pos.addr, align 8, !tbaa !26
  store ptr %__s, ptr %__s.addr, align 8, !tbaa !22
  %this1 = load ptr, ptr %this.addr, align 8
  %0 = load i64, ptr %__pos.addr, align 8, !tbaa !26
  %call = call noundef i64 @_ZNKSt7__cxx1112basic_stringIcSt11char_traitsIcESaIcEE4sizeEv(ptr noundef nonnull align 8 dereferenceable(32) %this1) #3
  %cmp = icmp ugt i64 %0, %call
  br i1 %cmp, label %if.then, label %if.end

if.then:                                          ; preds = %entry
  %1 = load ptr, ptr %__s.addr, align 8, !tbaa !22
  %2 = load i64, ptr %__pos.addr, align 8, !tbaa !26
  %call2 = call noundef i64 @_ZNKSt7__cxx1112basic_stringIcSt11char_traitsIcESaIcEE4sizeEv(ptr noundef nonnull align 8 dereferenceable(32) %this1) #3
  call void (ptr, ...) @_ZSt24__throw_out_of_range_fmtPKcz(ptr noundef @.str.9, ptr noundef %1, i64 noundef %2, i64 noundef %call2) #17
  unreachable

if.end:                                           ; preds = %entry
  %3 = load i64, ptr %__pos.addr, align 8, !tbaa !26
  ret i64 %3
}

; Function Attrs: mustprogress nounwind uwtable
define available_externally noundef i64 @_ZNKSt7__cxx1112basic_stringIcSt11char_traitsIcESaIcEE8_M_limitEmm(ptr noundef nonnull align 8 dereferenceable(32) %this, i64 noundef %__pos, i64 noundef %__off) #4 align 2 {
entry:
  %this.addr = alloca ptr, align 8
  %__pos.addr = alloca i64, align 8
  %__off.addr = alloca i64, align 8
  %__testoff = alloca i8, align 1
  store ptr %this, ptr %this.addr, align 8, !tbaa !12
  store i64 %__pos, ptr %__pos.addr, align 8, !tbaa !26
  store i64 %__off, ptr %__off.addr, align 8, !tbaa !26
  %this1 = load ptr, ptr %this.addr, align 8
  call void @llvm.lifetime.start.p0(i64 1, ptr %__testoff) #3
  %0 = load i64, ptr %__off.addr, align 8, !tbaa !26
  %call = call noundef i64 @_ZNKSt7__cxx1112basic_stringIcSt11char_traitsIcESaIcEE4sizeEv(ptr noundef nonnull align 8 dereferenceable(32) %this1) #3
  %1 = load i64, ptr %__pos.addr, align 8, !tbaa !26
  %sub = sub i64 %call, %1
  %cmp = icmp ult i64 %0, %sub
  %storedv = zext i1 %cmp to i8
  store i8 %storedv, ptr %__testoff, align 1, !tbaa !107
  %2 = load i8, ptr %__testoff, align 1, !tbaa !107, !range !92, !noundef !93
  %loadedv = trunc i8 %2 to i1
  br i1 %loadedv, label %cond.true, label %cond.false

cond.true:                                        ; preds = %entry
  %3 = load i64, ptr %__off.addr, align 8, !tbaa !26
  br label %cond.end

cond.false:                                       ; preds = %entry
  %call2 = call noundef i64 @_ZNKSt7__cxx1112basic_stringIcSt11char_traitsIcESaIcEE4sizeEv(ptr noundef nonnull align 8 dereferenceable(32) %this1) #3
  %4 = load i64, ptr %__pos.addr, align 8, !tbaa !26
  %sub3 = sub i64 %call2, %4
  br label %cond.end

cond.end:                                         ; preds = %cond.false, %cond.true
  %cond = phi i64 [ %3, %cond.true ], [ %sub3, %cond.false ]
  call void @llvm.lifetime.end.p0(i64 1, ptr %__testoff) #3
  ret i64 %cond
}

; Function Attrs: noreturn
declare void @_ZSt24__throw_out_of_range_fmtPKcz(ptr noundef, ...) #13

; Function Attrs: mustprogress nounwind uwtable
define linkonce_odr noundef nonnull align 8 dereferenceable(8) ptr @_ZNK9__gnu_cxx17__normal_iteratorIPKcNSt7__cxx1112basic_stringIcSt11char_traitsIcESaIcEEEE4baseEv(ptr noundef nonnull align 8 dereferenceable(8) %this) #4 comdat align 2 {
entry:
  %this.addr = alloca ptr, align 8
  store ptr %this, ptr %this.addr, align 8, !tbaa !101
  %this1 = load ptr, ptr %this.addr, align 8
  %_M_current = getelementptr inbounds nuw %"class.__gnu_cxx::__normal_iterator", ptr %this1, i32 0, i32 0
  ret ptr %_M_current
}

; Function Attrs: mustprogress nounwind uwtable
define linkonce_odr noundef nonnull align 8 dereferenceable(8) ptr @_ZNK9__gnu_cxx17__normal_iteratorIPcNSt7__cxx1112basic_stringIcSt11char_traitsIcESaIcEEEE4baseEv(ptr noundef nonnull align 8 dereferenceable(8) %this) #4 comdat align 2 {
entry:
  %this.addr = alloca ptr, align 8
  store ptr %this, ptr %this.addr, align 8, !tbaa !103
  %this1 = load ptr, ptr %this.addr, align 8
  %_M_current = getelementptr inbounds nuw %"class.__gnu_cxx::__normal_iterator.0", ptr %this1, i32 0, i32 0
  ret ptr %_M_current
}

; Function Attrs: mustprogress nounwind uwtable
define linkonce_odr void @_ZN9__gnu_cxx17__normal_iteratorIPcNSt7__cxx1112basic_stringIcSt11char_traitsIcESaIcEEEEC2ERKS1_(ptr noundef nonnull align 8 dereferenceable(8) %this, ptr noundef nonnull align 8 dereferenceable(8) %__i) unnamed_addr #4 comdat align 2 {
entry:
  %this.addr = alloca ptr, align 8
  %__i.addr = alloca ptr, align 8
  store ptr %this, ptr %this.addr, align 8, !tbaa !103
  store ptr %__i, ptr %__i.addr, align 8, !tbaa !108
  %this1 = load ptr, ptr %this.addr, align 8
  %_M_current = getelementptr inbounds nuw %"class.__gnu_cxx::__normal_iterator.0", ptr %this1, i32 0, i32 0
  %0 = load ptr, ptr %__i.addr, align 8, !tbaa !108
  %1 = load ptr, ptr %0, align 8, !tbaa !22
  store ptr %1, ptr %_M_current, align 8, !tbaa !110
  ret void
}

; Function Attrs: mustprogress uwtable
define available_externally noundef nonnull align 8 dereferenceable(32) ptr @_ZNSt7__cxx1112basic_stringIcSt11char_traitsIcESaIcEE6assignERKS4_(ptr noundef nonnull align 8 dereferenceable(32) %this, ptr noundef nonnull align 8 dereferenceable(32) %__str) #5 align 2 {
entry:
  %this.addr = alloca ptr, align 8
  %__str.addr = alloca ptr, align 8
  store ptr %this, ptr %this.addr, align 8, !tbaa !12
  store ptr %__str, ptr %__str.addr, align 8, !tbaa !12
  %this1 = load ptr, ptr %this.addr, align 8
  %0 = load ptr, ptr %__str.addr, align 8, !tbaa !12
  call void @_ZNSt7__cxx1112basic_stringIcSt11char_traitsIcESaIcEE9_M_assignERKS4_(ptr noundef nonnull align 8 dereferenceable(32) %this1, ptr noundef nonnull align 8 dereferenceable(32) %0)
  ret ptr %this1
}

declare void @_ZNSt7__cxx1112basic_stringIcSt11char_traitsIcESaIcEE9_M_assignERKS4_(ptr noundef nonnull align 8 dereferenceable(32), ptr noundef nonnull align 8 dereferenceable(32)) #1

; Function Attrs: mustprogress nounwind uwtable
define available_externally void @_ZNSt7__cxx1118basic_stringstreamIcSt11char_traitsIcESaIcEED2Ev(ptr noundef nonnull align 8 dereferenceable(128) %this, ptr noundef %vtt) unnamed_addr #4 align 2 {
entry:
  %this.addr = alloca ptr, align 8
  %vtt.addr = alloca ptr, align 8
  store ptr %this, ptr %this.addr, align 8, !tbaa !33
  store ptr %vtt, ptr %vtt.addr, align 8, !tbaa !69
  %this1 = load ptr, ptr %this.addr, align 8
  %vtt2 = load ptr, ptr %vtt.addr, align 8
  %0 = load ptr, ptr %vtt2, align 8
  store ptr %0, ptr %this1, align 8, !tbaa !35
  %1 = getelementptr inbounds ptr, ptr %vtt2, i64 8
  %2 = load ptr, ptr %1, align 8
  %vtable = load ptr, ptr %this1, align 8, !tbaa !35
  %vbase.offset.ptr = getelementptr i8, ptr %vtable, i64 -24
  %vbase.offset = load i64, ptr %vbase.offset.ptr, align 8
  %add.ptr = getelementptr inbounds i8, ptr %this1, i64 %vbase.offset
  store ptr %2, ptr %add.ptr, align 8, !tbaa !35
  %3 = getelementptr inbounds ptr, ptr %vtt2, i64 9
  %4 = load ptr, ptr %3, align 8
  %add.ptr3 = getelementptr inbounds i8, ptr %this1, i64 16
  store ptr %4, ptr %add.ptr3, align 8, !tbaa !35
  %_M_stringbuf = getelementptr inbounds nuw %"class.std::__cxx11::basic_stringstream", ptr %this1, i32 0, i32 1
  call void @_ZNSt7__cxx1115basic_stringbufIcSt11char_traitsIcESaIcEED2Ev(ptr noundef nonnull align 8 dereferenceable(104) %_M_stringbuf) #3
  %5 = getelementptr inbounds ptr, ptr %vtt2, i64 1
  call void @_ZNSdD2Ev(ptr noundef nonnull align 8 dereferenceable(24) %this1, ptr noundef %5) #3
  ret void
}

; Function Attrs: nounwind uwtable
define available_externally void @_ZThn16_NSt7__cxx1118basic_stringstreamIcSt11char_traitsIcESaIcEED1Ev(ptr noundef %this) unnamed_addr #14 align 2 {
entry:
  %this.addr = alloca ptr, align 8
  store ptr %this, ptr %this.addr, align 8, !tbaa !33
  %this1 = load ptr, ptr %this.addr, align 8
  %0 = getelementptr inbounds i8, ptr %this1, i64 -16
  tail call void @_ZNSt7__cxx1118basic_stringstreamIcSt11char_traitsIcESaIcEED1Ev(ptr noundef nonnull align 8 dereferenceable(128) %0) #3
  ret void
}

; Function Attrs: nounwind uwtable
define available_externally void @_ZTv0_n24_NSt7__cxx1118basic_stringstreamIcSt11char_traitsIcESaIcEED1Ev(ptr noundef %this) unnamed_addr #14 align 2 {
entry:
  %this.addr = alloca ptr, align 8
  store ptr %this, ptr %this.addr, align 8, !tbaa !33
  %this1 = load ptr, ptr %this.addr, align 8
  %vtable = load ptr, ptr %this1, align 8, !tbaa !35
  %0 = getelementptr inbounds i8, ptr %vtable, i64 -24
  %1 = load i64, ptr %0, align 8
  %2 = getelementptr inbounds i8, ptr %this1, i64 %1
  tail call void @_ZNSt7__cxx1118basic_stringstreamIcSt11char_traitsIcESaIcEED1Ev(ptr noundef nonnull align 8 dereferenceable(128) %2) #3
  ret void
}

declare noundef nonnull align 8 dereferenceable(32) ptr @_ZNSt7__cxx1112basic_stringIcSt11char_traitsIcESaIcEE14_M_replace_auxEmmmc(ptr noundef nonnull align 8 dereferenceable(32), i64 noundef, i64 noundef, i64 noundef, i8 noundef signext) #1

declare noundef nonnull align 8 dereferenceable(8) ptr @_ZSt16__ostream_insertIcSt11char_traitsIcEERSt13basic_ostreamIT_T0_ES6_PKS3_l(ptr noundef nonnull align 8 dereferenceable(8), ptr noundef, i64 noundef) #1

; Function Attrs: mustprogress nounwind uwtable
define available_externally noundef ptr @_ZNKSt7__cxx1112basic_stringIcSt11char_traitsIcESaIcEE4dataEv(ptr noundef nonnull align 8 dereferenceable(32) %this) #4 align 2 {
entry:
  %this.addr = alloca ptr, align 8
  store ptr %this, ptr %this.addr, align 8, !tbaa !12
  %this1 = load ptr, ptr %this.addr, align 8
  %call = call noundef ptr @_ZNKSt7__cxx1112basic_stringIcSt11char_traitsIcESaIcEE7_M_dataEv(ptr noundef nonnull align 8 dereferenceable(32) %this1)
  ret ptr %call
}

; Function Attrs: mustprogress nounwind uwtable
define linkonce_odr noundef i64 @_ZNKSt8ios_base5widthEv(ptr noundef nonnull align 8 dereferenceable(216) %this) #4 comdat align 2 {
entry:
  %this.addr = alloca ptr, align 8
  store ptr %this, ptr %this.addr, align 8, !tbaa !89
  %this1 = load ptr, ptr %this.addr, align 8
  %_M_width = getelementptr inbounds nuw %"class.std::ios_base", ptr %this1, i32 0, i32 2
  %0 = load i64, ptr %_M_width, align 8, !tbaa !91
  ret i64 %0
}

declare noundef nonnull align 8 dereferenceable(8) ptr @_ZNSo3putEc(ptr noundef nonnull align 8 dereferenceable(8), i8 noundef signext) #1

declare noundef nonnull align 8 dereferenceable(8) ptr @_ZNSo5flushEv(ptr noundef nonnull align 8 dereferenceable(8)) #1

; Function Attrs: mustprogress uwtable
define available_externally void @_ZNSt9basic_iosIcSt11char_traitsIcEE8setstateESt12_Ios_Iostate(ptr noundef nonnull align 8 dereferenceable(264) %this, i32 noundef %__state) #5 align 2 {
entry:
  %this.addr = alloca ptr, align 8
  %__state.addr = alloca i32, align 4
  store ptr %this, ptr %this.addr, align 8, !tbaa !44
  store i32 %__state, ptr %__state.addr, align 4, !tbaa !112
  %this1 = load ptr, ptr %this.addr, align 8
  %call = call noundef i32 @_ZNKSt9basic_iosIcSt11char_traitsIcEE7rdstateEv(ptr noundef nonnull align 8 dereferenceable(264) %this1)
  %0 = load i32, ptr %__state.addr, align 4, !tbaa !112
  %call2 = call noundef i32 @_ZStorSt12_Ios_IostateS_(i32 noundef %call, i32 noundef %0)
  call void @_ZNSt9basic_iosIcSt11char_traitsIcEE5clearESt12_Ios_Iostate(ptr noundef nonnull align 8 dereferenceable(264) %this1, i32 noundef %call2)
  ret void
}

declare void @_ZNSt9basic_iosIcSt11char_traitsIcEE5clearESt12_Ios_Iostate(ptr noundef nonnull align 8 dereferenceable(264), i32 noundef) #1

; Function Attrs: inlinehint mustprogress nounwind uwtable
define linkonce_odr noundef i32 @_ZStorSt12_Ios_IostateS_(i32 noundef %__a, i32 noundef %__b) #12 comdat {
entry:
  %__a.addr = alloca i32, align 4
  %__b.addr = alloca i32, align 4
  store i32 %__a, ptr %__a.addr, align 4, !tbaa !112
  store i32 %__b, ptr %__b.addr, align 4, !tbaa !112
  %0 = load i32, ptr %__a.addr, align 4, !tbaa !112
  %1 = load i32, ptr %__b.addr, align 4, !tbaa !112
  %or = or i32 %0, %1
  ret i32 %or
}

; Function Attrs: mustprogress nounwind uwtable
define available_externally noundef i32 @_ZNKSt9basic_iosIcSt11char_traitsIcEE7rdstateEv(ptr noundef nonnull align 8 dereferenceable(264) %this) #4 align 2 {
entry:
  %this.addr = alloca ptr, align 8
  store ptr %this, ptr %this.addr, align 8, !tbaa !44
  %this1 = load ptr, ptr %this.addr, align 8
  %_M_streambuf_state = getelementptr inbounds nuw %"class.std::ios_base", ptr %this1, i32 0, i32 5
  %0 = load i32, ptr %_M_streambuf_state, align 8, !tbaa !113
  ret i32 %0
}

; Function Attrs: mustprogress uwtable
define available_externally noundef nonnull align 8 dereferenceable(32) ptr @_ZNSt7__cxx1112basic_stringIcSt11char_traitsIcESaIcEE6assignEPKc(ptr noundef nonnull align 8 dereferenceable(32) %this, ptr noundef %__s) #5 align 2 {
entry:
  %this.addr = alloca ptr, align 8
  %__s.addr = alloca ptr, align 8
  store ptr %this, ptr %this.addr, align 8, !tbaa !12
  store ptr %__s, ptr %__s.addr, align 8, !tbaa !22
  %this1 = load ptr, ptr %this.addr, align 8
  %call = call noundef i64 @_ZNKSt7__cxx1112basic_stringIcSt11char_traitsIcESaIcEE4sizeEv(ptr noundef nonnull align 8 dereferenceable(32) %this1) #3
  %0 = load ptr, ptr %__s.addr, align 8, !tbaa !22
  %1 = load ptr, ptr %__s.addr, align 8, !tbaa !22
  %call2 = call noundef i64 @_ZNSt11char_traitsIcE6lengthEPKc(ptr noundef %1)
  %call3 = call noundef nonnull align 8 dereferenceable(32) ptr @_ZNSt7__cxx1112basic_stringIcSt11char_traitsIcESaIcEE10_M_replaceEmmPKcm(ptr noundef nonnull align 8 dereferenceable(32) %this1, i64 noundef 0, i64 noundef %call, ptr noundef %0, i64 noundef %call2)
  ret ptr %call3
}

; Function Attrs: uwtable
define internal void @_GLOBAL__sub_I_progress_bar.cpp() #0 section ".text.startup" {
entry:
  call void @__cxx_global_var_init()
  ret void
}

attributes #0 = { uwtable "min-legal-vector-width"="0" "no-trapping-math"="true" "stack-protector-buffer-size"="8" "target-cpu"="x86-64" "target-features"="+cmov,+cx8,+fxsr,+mmx,+sse,+sse2,+x87" "tune-cpu"="generic" }
attributes #1 = { "no-trapping-math"="true" "stack-protector-buffer-size"="8" "target-cpu"="x86-64" "target-features"="+cmov,+cx8,+fxsr,+mmx,+sse,+sse2,+x87" "tune-cpu"="generic" }
attributes #2 = { nounwind "no-trapping-math"="true" "stack-protector-buffer-size"="8" "target-cpu"="x86-64" "target-features"="+cmov,+cx8,+fxsr,+mmx,+sse,+sse2,+x87" "tune-cpu"="generic" }
attributes #3 = { nounwind }
attributes #4 = { mustprogress nounwind uwtable "min-legal-vector-width"="0" "no-trapping-math"="true" "stack-protector-buffer-size"="8" "target-cpu"="x86-64" "target-features"="+cmov,+cx8,+fxsr,+mmx,+sse,+sse2,+x87" "tune-cpu"="generic" }
attributes #5 = { mustprogress uwtable "min-legal-vector-width"="0" "no-trapping-math"="true" "stack-protector-buffer-size"="8" "target-cpu"="x86-64" "target-features"="+cmov,+cx8,+fxsr,+mmx,+sse,+sse2,+x87" "tune-cpu"="generic" }
attributes #6 = { nocallback nofree nounwind willreturn memory(argmem: readwrite) }
attributes #7 = { noinline noreturn nounwind uwtable "no-trapping-math"="true" "stack-protector-buffer-size"="8" "target-cpu"="x86-64" "target-features"="+cmov,+cx8,+fxsr,+mmx,+sse,+sse2,+x87" "tune-cpu"="generic" }
attributes #8 = { nocallback nofree nosync nounwind willreturn memory(argmem: readwrite) }
attributes #9 = { alwaysinline mustprogress nounwind uwtable "min-legal-vector-width"="0" "no-trapping-math"="true" "stack-protector-buffer-size"="8" "target-cpu"="x86-64" "target-features"="+cmov,+cx8,+fxsr,+mmx,+sse,+sse2,+x87" "tune-cpu"="generic" }
attributes #10 = { nobuiltin nounwind "no-trapping-math"="true" "stack-protector-buffer-size"="8" "target-cpu"="x86-64" "target-features"="+cmov,+cx8,+fxsr,+mmx,+sse,+sse2,+x87" "tune-cpu"="generic" }
attributes #11 = { inlinehint mustprogress uwtable "min-legal-vector-width"="0" "no-trapping-math"="true" "stack-protector-buffer-size"="8" "target-cpu"="x86-64" "target-features"="+cmov,+cx8,+fxsr,+mmx,+sse,+sse2,+x87" "tune-cpu"="generic" }
attributes #12 = { inlinehint mustprogress nounwind uwtable "min-legal-vector-width"="0" "no-trapping-math"="true" "stack-protector-buffer-size"="8" "target-cpu"="x86-64" "target-features"="+cmov,+cx8,+fxsr,+mmx,+sse,+sse2,+x87" "tune-cpu"="generic" }
attributes #13 = { noreturn "no-trapping-math"="true" "stack-protector-buffer-size"="8" "target-cpu"="x86-64" "target-features"="+cmov,+cx8,+fxsr,+mmx,+sse,+sse2,+x87" "tune-cpu"="generic" }
attributes #14 = { nounwind uwtable "min-legal-vector-width"="0" "no-trapping-math"="true" "stack-protector-buffer-size"="8" "target-cpu"="x86-64" "target-features"="+cmov,+cx8,+fxsr,+mmx,+sse,+sse2,+x87" "tune-cpu"="generic" }
attributes #15 = { noreturn nounwind }
attributes #16 = { builtin nounwind }
attributes #17 = { noreturn }

!llvm.module.flags = !{!0, !1, !2, !3}
!llvm.ident = !{!4}

!0 = !{i32 1, !"wchar_size", i32 4}
!1 = !{i32 7, !"openmp", i32 51}
!2 = !{i32 8, !"PIC Level", i32 2}
!3 = !{i32 7, !"uwtable", i32 2}
!4 = !{!"clang version 21.0.0git (https://github.com/llvm/llvm-project.git da17ced11b1cf44b433cb2b850978df4b6bff279)"}
!5 = !{!6, !6, i64 0}
!6 = !{!"p1 _ZTS11ProgressBar", !7, i64 0}
!7 = !{!"any pointer", !8, i64 0}
!8 = !{!"omnipotent char", !9, i64 0}
!9 = !{!"Simple C++ TBAA"}
!10 = !{i64 0, i64 72, !11}
!11 = !{!8, !8, i64 0}
!12 = !{!13, !13, i64 0}
!13 = !{!"p1 _ZTSNSt7__cxx1112basic_stringIcSt11char_traitsIcESaIcEEE", !7, i64 0}
!14 = !{!15, !15, i64 0}
!15 = !{!"double", !8, i64 0}
!16 = !{!17, !17, i64 0}
!17 = !{!"int", !8, i64 0}
!18 = !{!19, !19, i64 0}
!19 = !{!"p1 _ZTSSaIcE", !7, i64 0}
!20 = !{!21, !21, i64 0}
!21 = !{!"p1 _ZTSNSt7__cxx1112basic_stringIcSt11char_traitsIcESaIcEE12_Alloc_hiderE", !7, i64 0}
!22 = !{!23, !23, i64 0}
!23 = !{!"p1 omnipotent char", !7, i64 0}
!24 = !{!25, !23, i64 0}
!25 = !{!"_ZTSNSt7__cxx1112basic_stringIcSt11char_traitsIcESaIcEE12_Alloc_hiderE", !23, i64 0}
!26 = !{!27, !27, i64 0}
!27 = !{!"long", !8, i64 0}
!28 = !{!29, !29, i64 0}
!29 = !{!"p1 _ZTSSt15__new_allocatorIcE", !7, i64 0}
!30 = !{!31, !27, i64 8}
!31 = !{!"_ZTSNSt7__cxx1112basic_stringIcSt11char_traitsIcESaIcEEE", !25, i64 0, !27, i64 8, !8, i64 16}
!32 = !{!31, !23, i64 0}
!33 = !{!34, !34, i64 0}
!34 = !{!"p1 _ZTSNSt7__cxx1118basic_stringstreamIcSt11char_traitsIcESaIcEEE", !7, i64 0}
!35 = !{!36, !36, i64 0}
!36 = !{!"vtable pointer", !9, i64 0}
!37 = !{!38, !38, i64 0}
!38 = !{!"p1 _ZTSSo", !7, i64 0}
!39 = !{!40, !17, i64 0}
!40 = !{!"_ZTSSt5_Setw", !17, i64 0}
!41 = !{!42, !8, i64 0}
!42 = !{!"_ZTSSt8_SetfillIcE", !8, i64 0}
!43 = !{!7, !7, i64 0}
!44 = !{!45, !45, i64 0}
!45 = !{!"p1 _ZTSSt9basic_iosIcSt11char_traitsIcEE", !7, i64 0}
!46 = !{!47, !38, i64 216}
!47 = !{!"_ZTSSt9basic_iosIcSt11char_traitsIcEE", !48, i64 0, !38, i64 216, !8, i64 224, !56, i64 225, !57, i64 232, !58, i64 240, !59, i64 248, !60, i64 256}
!48 = !{!"_ZTSSt8ios_base", !27, i64 8, !27, i64 16, !49, i64 24, !50, i64 28, !50, i64 32, !51, i64 40, !52, i64 48, !8, i64 64, !17, i64 192, !53, i64 200, !54, i64 208}
!49 = !{!"_ZTSSt13_Ios_Fmtflags", !8, i64 0}
!50 = !{!"_ZTSSt12_Ios_Iostate", !8, i64 0}
!51 = !{!"p1 _ZTSNSt8ios_base14_Callback_listE", !7, i64 0}
!52 = !{!"_ZTSNSt8ios_base6_WordsE", !7, i64 0, !27, i64 8}
!53 = !{!"p1 _ZTSNSt8ios_base6_WordsE", !7, i64 0}
!54 = !{!"_ZTSSt6locale", !55, i64 0}
!55 = !{!"p1 _ZTSNSt6locale5_ImplE", !7, i64 0}
!56 = !{!"bool", !8, i64 0}
!57 = !{!"p1 _ZTSSt15basic_streambufIcSt11char_traitsIcEE", !7, i64 0}
!58 = !{!"p1 _ZTSSt5ctypeIcE", !7, i64 0}
!59 = !{!"p1 _ZTSSt7num_putIcSt19ostreambuf_iteratorIcSt11char_traitsIcEEE", !7, i64 0}
!60 = !{!"p1 _ZTSSt7num_getIcSt19istreambuf_iteratorIcSt11char_traitsIcEEE", !7, i64 0}
!61 = !{!47, !8, i64 224}
!62 = !{!47, !56, i64 225}
!63 = !{!47, !57, i64 232}
!64 = !{!47, !58, i64 240}
!65 = !{!47, !59, i64 248}
!66 = !{!47, !60, i64 256}
!67 = !{!68, !68, i64 0}
!68 = !{!"p1 _ZTSSd", !7, i64 0}
!69 = !{!70, !70, i64 0}
!70 = !{!"any p2 pointer", !7, i64 0}
!71 = !{!72, !72, i64 0}
!72 = !{!"_ZTSSt13_Ios_Openmode", !8, i64 0}
!73 = !{!74, !74, i64 0}
!74 = !{!"p1 _ZTSNSt7__cxx1115basic_stringbufIcSt11char_traitsIcESaIcEEE", !7, i64 0}
!75 = !{!76, !72, i64 64}
!76 = !{!"_ZTSNSt7__cxx1115basic_stringbufIcSt11char_traitsIcESaIcEEE", !77, i64 0, !72, i64 64, !31, i64 72}
!77 = !{!"_ZTSSt15basic_streambufIcSt11char_traitsIcEE", !23, i64 8, !23, i64 16, !23, i64 24, !23, i64 32, !23, i64 40, !23, i64 48, !54, i64 56}
!78 = !{!79, !79, i64 0}
!79 = !{!"p1 _ZTSSi", !7, i64 0}
!80 = !{!81, !27, i64 8}
!81 = !{!"_ZTSSi", !27, i64 8}
!82 = !{!57, !57, i64 0}
!83 = !{!77, !23, i64 8}
!84 = !{!77, !23, i64 16}
!85 = !{!77, !23, i64 24}
!86 = !{!77, !23, i64 32}
!87 = !{!77, !23, i64 40}
!88 = !{!77, !23, i64 48}
!89 = !{!90, !90, i64 0}
!90 = !{!"p1 _ZTSSt8ios_base", !7, i64 0}
!91 = !{!48, !27, i64 16}
!92 = !{i8 0, i8 2}
!93 = !{}
!94 = !{!58, !58, i64 0}
!95 = !{!96, !8, i64 56}
!96 = !{!"_ZTSSt5ctypeIcE", !97, i64 0, !98, i64 16, !56, i64 24, !99, i64 32, !99, i64 40, !100, i64 48, !8, i64 56, !8, i64 57, !8, i64 313, !8, i64 569}
!97 = !{!"_ZTSNSt6locale5facetE", !17, i64 8}
!98 = !{!"p1 _ZTS15__locale_struct", !7, i64 0}
!99 = !{!"p1 int", !7, i64 0}
!100 = !{!"p1 short", !7, i64 0}
!101 = !{!102, !102, i64 0}
!102 = !{!"p1 _ZTSN9__gnu_cxx17__normal_iteratorIPKcNSt7__cxx1112basic_stringIcSt11char_traitsIcESaIcEEEEE", !7, i64 0}
!103 = !{!104, !104, i64 0}
!104 = !{!"p1 _ZTSN9__gnu_cxx17__normal_iteratorIPcNSt7__cxx1112basic_stringIcSt11char_traitsIcESaIcEEEEE", !7, i64 0}
!105 = !{!106, !23, i64 0}
!106 = !{!"_ZTSN9__gnu_cxx17__normal_iteratorIPKcNSt7__cxx1112basic_stringIcSt11char_traitsIcESaIcEEEEE", !23, i64 0}
!107 = !{!56, !56, i64 0}
!108 = !{!109, !109, i64 0}
!109 = !{!"p2 omnipotent char", !70, i64 0}
!110 = !{!111, !23, i64 0}
!111 = !{!"_ZTSN9__gnu_cxx17__normal_iteratorIPcNSt7__cxx1112basic_stringIcSt11char_traitsIcESaIcEEEEE", !23, i64 0}
!112 = !{!50, !50, i64 0}
!113 = !{!48, !50, i64 32}
