; ModuleID = 'secondary_uncorrelated-host-x86_64-unknown-linux-gnu.bc'
source_filename = "/g/g0/wright117/workspace/openmc/openmc-omp/openmc/src/secondary_uncorrelated.cpp"
target datalayout = "e-m:e-p270:32:32-p271:32:32-p272:64:64-i64:64-i128:128-f80:128-n8:16:32:64-S128"
target triple = "x86_64-unknown-linux-gnu"

%"class.std::ios_base::Init" = type { i8 }
%"struct.std::array" = type { [6 x i32] }
%"class.openmc::UncorrelatedAngleEnergy" = type <{ %"class.openmc::AngleEnergy", %"class.openmc::AngleDistribution", %"class.std::unique_ptr", i8, [7 x i8] }>
%"class.openmc::AngleEnergy" = type { ptr }
%"class.openmc::AngleDistribution" = type { %"class.std::vector", %"class.std::vector.0" }
%"class.std::vector" = type { %"struct.std::_Vector_base" }
%"struct.std::_Vector_base" = type { %"struct.std::_Vector_base<double, std::allocator<double>>::_Vector_impl" }
%"struct.std::_Vector_base<double, std::allocator<double>>::_Vector_impl" = type { %"struct.std::_Vector_base<double, std::allocator<double>>::_Vector_impl_data" }
%"struct.std::_Vector_base<double, std::allocator<double>>::_Vector_impl_data" = type { ptr, ptr, ptr }
%"class.std::vector.0" = type { %"struct.std::_Vector_base.1" }
%"struct.std::_Vector_base.1" = type { %"struct.std::_Vector_base<std::unique_ptr<openmc::Tabular>, std::allocator<std::unique_ptr<openmc::Tabular>>>::_Vector_impl" }
%"struct.std::_Vector_base<std::unique_ptr<openmc::Tabular>, std::allocator<std::unique_ptr<openmc::Tabular>>>::_Vector_impl" = type { %"struct.std::_Vector_base<std::unique_ptr<openmc::Tabular>, std::allocator<std::unique_ptr<openmc::Tabular>>>::_Vector_impl_data" }
%"struct.std::_Vector_base<std::unique_ptr<openmc::Tabular>, std::allocator<std::unique_ptr<openmc::Tabular>>>::_Vector_impl_data" = type { ptr, ptr, ptr }
%"class.std::unique_ptr" = type { %"struct.std::__uniq_ptr_data" }
%"struct.std::__uniq_ptr_data" = type { %"class.std::__uniq_ptr_impl" }
%"class.std::__uniq_ptr_impl" = type { %"class.std::tuple" }
%"class.std::tuple" = type { %"struct.std::_Tuple_impl" }
%"struct.std::_Tuple_impl" = type { %"struct.std::_Head_base.6" }
%"struct.std::_Head_base.6" = type { ptr }
%"class.std::__cxx11::basic_string" = type { %"struct.std::__cxx11::basic_string<char>::_Alloc_hider", i64, %union.anon }
%"struct.std::__cxx11::basic_string<char>::_Alloc_hider" = type { ptr }
%union.anon = type { i64, [8 x i8] }
%"class.std::allocator.7" = type { i8 }
%"class.fmt::v6::basic_string_view" = type { ptr, i64 }
%"class.fmt::v6::basic_format_args" = type { i64, %union.anon.35 }
%union.anon.35 = type { ptr }
%"class.fmt::v6::format_arg_store" = type { [1 x %"class.fmt::v6::internal::value"] }
%"class.fmt::v6::internal::value" = type { %union.anon.36 }
%union.anon.36 = type { i128 }
%"struct.std::integral_constant" = type { i8 }
%"class.std::allocator" = type { i8 }
%"class.std::allocator.2" = type { i8 }
%"class.std::unique_ptr.25" = type { %"struct.std::__uniq_ptr_data.26" }
%"struct.std::__uniq_ptr_data.26" = type { %"class.std::__uniq_ptr_impl.27" }
%"class.std::__uniq_ptr_impl.27" = type { %"class.std::tuple.28" }
%"class.std::tuple.28" = type { %"struct.std::_Tuple_impl.29" }
%"struct.std::_Tuple_impl.29" = type { %"struct.std::_Head_base.32" }
%"struct.std::_Head_base.32" = type { ptr }
%"struct.std::forward_iterator_tag" = type { i8 }
%struct._Guard = type { ptr }
%"struct.std::random_access_iterator_tag" = type { i8 }
%"class.fmt::v6::basic_memory_buffer" = type <{ %"class.fmt::v6::internal::buffer", [500 x i8], [4 x i8] }>
%"class.fmt::v6::internal::buffer" = type { ptr, ptr, i64, i64 }
%"class.std::back_insert_iterator" = type { ptr }
%"class.fmt::v6::buffer_range" = type { %"class.fmt::v6::internal::output_range" }
%"class.fmt::v6::internal::output_range" = type { %"class.std::back_insert_iterator" }
%"class.fmt::v6::internal::locale_ref" = type { ptr }
%"struct.fmt::v6::format_handler" = type { [8 x i8], %"class.fmt::v6::basic_format_parse_context", %"class.fmt::v6::basic_format_context", %"class.fmt::v6::basic_format_arg" }
%"class.fmt::v6::basic_format_parse_context" = type <{ %"class.fmt::v6::basic_string_view", i32, [4 x i8] }>
%"class.fmt::v6::basic_format_context" = type { %"class.std::back_insert_iterator", %"class.fmt::v6::basic_format_args", %"class.fmt::v6::internal::arg_map", %"class.fmt::v6::internal::locale_ref" }
%"class.fmt::v6::internal::arg_map" = type <{ ptr, i32, [4 x i8] }>
%"class.fmt::v6::basic_format_arg" = type <{ %"class.fmt::v6::internal::value", i32, [12 x i8] }>
%"struct.fmt::v6::internal::error_handler" = type { i8 }
%struct.pfs_writer = type { ptr }
%"struct.fmt::v6::internal::id_adapter" = type { ptr }
%"class.fmt::v6::arg_formatter" = type { %"class.fmt::v6::internal::arg_formatter_base", ptr, ptr }
%"class.fmt::v6::internal::arg_formatter_base" = type { %"class.fmt::v6::internal::basic_writer", ptr }
%"class.fmt::v6::internal::basic_writer" = type { %"class.std::back_insert_iterator", %"class.fmt::v6::internal::locale_ref" }
%"class.fmt::v6::internal::custom_formatter" = type { ptr, ptr }
%"struct.fmt::v6::basic_format_specs" = type { i32, i32, i8, i8, %"struct.fmt::v6::internal::fill_t" }
%"struct.fmt::v6::internal::fill_t" = type { [6 x i8] }
%"class.fmt::v6::internal::specs_checker" = type { %"class.fmt::v6::internal::specs_handler", %"class.fmt::v6::internal::numeric_specs_checker" }
%"class.fmt::v6::internal::specs_handler" = type { %"class.fmt::v6::internal::specs_setter", ptr, ptr }
%"class.fmt::v6::internal::specs_setter" = type { ptr }
%"class.fmt::v6::internal::numeric_specs_checker" = type <{ ptr, i32, [4 x i8] }>
%"struct.fmt::v6::internal::named_arg_base" = type { %"class.fmt::v6::basic_string_view", [32 x i8] }
%"class.fmt::v6::basic_format_arg<fmt::v6::basic_format_context<std::back_insert_iterator<fmt::v6::internal::buffer<char>>, char>>::handle" = type { %"struct.fmt::v6::internal::custom_value" }
%"struct.fmt::v6::internal::custom_value" = type { ptr, ptr }
%"struct.fmt::v6::monostate" = type { i8 }
%"struct.fmt::v6::internal::string_value" = type { ptr, i64 }
%"struct.fmt::v6::internal::arg_formatter_base<fmt::v6::buffer_range<char>>::char_spec_handler" = type <{ ptr, i8, [7 x i8] }>
%"struct.fmt::v6::internal::arg_formatter_base<fmt::v6::buffer_range<char>>::cstring_spec_handler" = type { ptr, ptr }
%"struct.fmt::v6::internal::basic_writer<fmt::v6::buffer_range<char>>::int_writer" = type <{ ptr, ptr, i32, [4 x i8], i32, [4 x i8] }>
%"struct.fmt::v6::internal::basic_writer<fmt::v6::buffer_range<char>>::int_writer<int, fmt::v6::basic_format_specs<char>>::dec_writer" = type { i32, i32 }
%"struct.fmt::v6::internal::basic_writer<fmt::v6::buffer_range<char>>::int_writer<int, fmt::v6::basic_format_specs<char>>::hex_writer" = type <{ ptr, i32, [4 x i8] }>
%"struct.fmt::v6::internal::basic_writer<fmt::v6::buffer_range<char>>::int_writer<int, fmt::v6::basic_format_specs<char>>::bin_writer" = type { i32, i32 }
%"struct.fmt::v6::internal::basic_writer<fmt::v6::buffer_range<char>>::int_writer<int, fmt::v6::basic_format_specs<char>>::bin_writer.39" = type { i32, i32 }
%"class.__gnu_cxx::__normal_iterator" = type { ptr }
%"struct.fmt::v6::internal::basic_writer<fmt::v6::buffer_range<char>>::int_writer<int, fmt::v6::basic_format_specs<char>>::num_writer" = type <{ i32, i32, ptr, i8, [7 x i8] }>
%"struct.fmt::v6::internal::basic_writer<fmt::v6::buffer_range<char>>::padded_int_writer" = type { i64, %"class.fmt::v6::basic_string_view", i8, i64, %"struct.fmt::v6::internal::basic_writer<fmt::v6::buffer_range<char>>::int_writer<int, fmt::v6::basic_format_specs<char>>::dec_writer" }
%class.anon = type { i8 }
%struct.accessor = type { %"class.std::back_insert_iterator" }
%"struct.fmt::v6::internal::basic_writer<fmt::v6::buffer_range<char>>::padded_int_writer.37" = type { i64, %"class.fmt::v6::basic_string_view", i8, i64, %"struct.fmt::v6::internal::basic_writer<fmt::v6::buffer_range<char>>::int_writer<int, fmt::v6::basic_format_specs<char>>::hex_writer" }
%"struct.fmt::v6::internal::basic_writer<fmt::v6::buffer_range<char>>::padded_int_writer.38" = type { i64, %"class.fmt::v6::basic_string_view", i8, i64, %"struct.fmt::v6::internal::basic_writer<fmt::v6::buffer_range<char>>::int_writer<int, fmt::v6::basic_format_specs<char>>::bin_writer" }
%"struct.fmt::v6::internal::basic_writer<fmt::v6::buffer_range<char>>::padded_int_writer.40" = type { i64, %"class.fmt::v6::basic_string_view", i8, i64, %"struct.fmt::v6::internal::basic_writer<fmt::v6::buffer_range<char>>::int_writer<int, fmt::v6::basic_format_specs<char>>::bin_writer.39" }
%"struct.fmt::v6::internal::basic_writer<fmt::v6::buffer_range<char>>::padded_int_writer.41" = type { i64, %"class.fmt::v6::basic_string_view", i8, i64, %"struct.fmt::v6::internal::basic_writer<fmt::v6::buffer_range<char>>::int_writer<int, fmt::v6::basic_format_specs<char>>::num_writer" }
%class.anon.42 = type { ptr, %"class.fmt::v6::basic_string_view", ptr, ptr }
%"struct.fmt::v6::internal::basic_writer<fmt::v6::buffer_range<char>>::int_writer.44" = type <{ ptr, ptr, i32, [4 x i8], i32, [4 x i8] }>
%"struct.fmt::v6::internal::basic_writer<fmt::v6::buffer_range<char>>::int_writer<unsigned int, fmt::v6::basic_format_specs<char>>::dec_writer" = type { i32, i32 }
%"struct.fmt::v6::internal::basic_writer<fmt::v6::buffer_range<char>>::int_writer<unsigned int, fmt::v6::basic_format_specs<char>>::hex_writer" = type <{ ptr, i32, [4 x i8] }>
%"struct.fmt::v6::internal::basic_writer<fmt::v6::buffer_range<char>>::int_writer<unsigned int, fmt::v6::basic_format_specs<char>>::bin_writer" = type { i32, i32 }
%"struct.fmt::v6::internal::basic_writer<fmt::v6::buffer_range<char>>::int_writer<unsigned int, fmt::v6::basic_format_specs<char>>::bin_writer.49" = type { i32, i32 }
%"struct.fmt::v6::internal::basic_writer<fmt::v6::buffer_range<char>>::int_writer<unsigned int, fmt::v6::basic_format_specs<char>>::num_writer" = type <{ i32, i32, ptr, i8, [7 x i8] }>
%"struct.fmt::v6::internal::basic_writer<fmt::v6::buffer_range<char>>::padded_int_writer.46" = type { i64, %"class.fmt::v6::basic_string_view", i8, i64, %"struct.fmt::v6::internal::basic_writer<fmt::v6::buffer_range<char>>::int_writer<unsigned int, fmt::v6::basic_format_specs<char>>::dec_writer" }
%"struct.fmt::v6::internal::basic_writer<fmt::v6::buffer_range<char>>::padded_int_writer.47" = type { i64, %"class.fmt::v6::basic_string_view", i8, i64, %"struct.fmt::v6::internal::basic_writer<fmt::v6::buffer_range<char>>::int_writer<unsigned int, fmt::v6::basic_format_specs<char>>::hex_writer" }
%"struct.fmt::v6::internal::basic_writer<fmt::v6::buffer_range<char>>::padded_int_writer.48" = type { i64, %"class.fmt::v6::basic_string_view", i8, i64, %"struct.fmt::v6::internal::basic_writer<fmt::v6::buffer_range<char>>::int_writer<unsigned int, fmt::v6::basic_format_specs<char>>::bin_writer" }
%"struct.fmt::v6::internal::basic_writer<fmt::v6::buffer_range<char>>::padded_int_writer.50" = type { i64, %"class.fmt::v6::basic_string_view", i8, i64, %"struct.fmt::v6::internal::basic_writer<fmt::v6::buffer_range<char>>::int_writer<unsigned int, fmt::v6::basic_format_specs<char>>::bin_writer.49" }
%"struct.fmt::v6::internal::basic_writer<fmt::v6::buffer_range<char>>::padded_int_writer.51" = type { i64, %"class.fmt::v6::basic_string_view", i8, i64, %"struct.fmt::v6::internal::basic_writer<fmt::v6::buffer_range<char>>::int_writer<unsigned int, fmt::v6::basic_format_specs<char>>::num_writer" }
%class.anon.52 = type { ptr, %"class.fmt::v6::basic_string_view", ptr, ptr }
%"struct.fmt::v6::internal::basic_writer<fmt::v6::buffer_range<char>>::int_writer.53" = type { ptr, ptr, i64, [4 x i8], i32 }
%"struct.fmt::v6::internal::basic_writer<fmt::v6::buffer_range<char>>::int_writer<long long, fmt::v6::basic_format_specs<char>>::dec_writer" = type { i64, i32 }
%"struct.fmt::v6::internal::basic_writer<fmt::v6::buffer_range<char>>::int_writer<long long, fmt::v6::basic_format_specs<char>>::hex_writer" = type <{ ptr, i32, [4 x i8] }>
%"struct.fmt::v6::internal::basic_writer<fmt::v6::buffer_range<char>>::int_writer<long long, fmt::v6::basic_format_specs<char>>::bin_writer" = type { i64, i32 }
%"struct.fmt::v6::internal::basic_writer<fmt::v6::buffer_range<char>>::int_writer<long long, fmt::v6::basic_format_specs<char>>::bin_writer.59" = type { i64, i32 }
%"struct.fmt::v6::internal::basic_writer<fmt::v6::buffer_range<char>>::int_writer<long long, fmt::v6::basic_format_specs<char>>::num_writer" = type <{ i64, i32, [4 x i8], ptr, i8, [7 x i8] }>
%"struct.fmt::v6::internal::basic_writer<fmt::v6::buffer_range<char>>::padded_int_writer.54" = type { i64, %"class.fmt::v6::basic_string_view", i8, i64, %"struct.fmt::v6::internal::basic_writer<fmt::v6::buffer_range<char>>::int_writer<long long, fmt::v6::basic_format_specs<char>>::dec_writer" }
%class.anon.55 = type { i8 }
%"struct.fmt::v6::internal::basic_writer<fmt::v6::buffer_range<char>>::padded_int_writer.57" = type { i64, %"class.fmt::v6::basic_string_view", i8, i64, %"struct.fmt::v6::internal::basic_writer<fmt::v6::buffer_range<char>>::int_writer<long long, fmt::v6::basic_format_specs<char>>::hex_writer" }
%"struct.fmt::v6::internal::basic_writer<fmt::v6::buffer_range<char>>::padded_int_writer.58" = type { i64, %"class.fmt::v6::basic_string_view", i8, i64, %"struct.fmt::v6::internal::basic_writer<fmt::v6::buffer_range<char>>::int_writer<long long, fmt::v6::basic_format_specs<char>>::bin_writer" }
%"struct.fmt::v6::internal::basic_writer<fmt::v6::buffer_range<char>>::padded_int_writer.60" = type { i64, %"class.fmt::v6::basic_string_view", i8, i64, %"struct.fmt::v6::internal::basic_writer<fmt::v6::buffer_range<char>>::int_writer<long long, fmt::v6::basic_format_specs<char>>::bin_writer.59" }
%"struct.fmt::v6::internal::basic_writer<fmt::v6::buffer_range<char>>::padded_int_writer.61" = type { i64, %"class.fmt::v6::basic_string_view", i8, i64, %"struct.fmt::v6::internal::basic_writer<fmt::v6::buffer_range<char>>::int_writer<long long, fmt::v6::basic_format_specs<char>>::num_writer" }
%class.anon.62 = type { ptr, %"class.fmt::v6::basic_string_view", ptr, ptr }
%"struct.fmt::v6::internal::basic_writer<fmt::v6::buffer_range<char>>::int_writer.63" = type { ptr, ptr, i64, [4 x i8], i32 }
%"struct.fmt::v6::internal::basic_writer<fmt::v6::buffer_range<char>>::int_writer<unsigned long long, fmt::v6::basic_format_specs<char>>::dec_writer" = type { i64, i32 }
%"struct.fmt::v6::internal::basic_writer<fmt::v6::buffer_range<char>>::int_writer<unsigned long long, fmt::v6::basic_format_specs<char>>::hex_writer" = type <{ ptr, i32, [4 x i8] }>
%"struct.fmt::v6::internal::basic_writer<fmt::v6::buffer_range<char>>::int_writer<unsigned long long, fmt::v6::basic_format_specs<char>>::bin_writer" = type { i64, i32 }
%"struct.fmt::v6::internal::basic_writer<fmt::v6::buffer_range<char>>::int_writer<unsigned long long, fmt::v6::basic_format_specs<char>>::bin_writer.67" = type { i64, i32 }
%"struct.fmt::v6::internal::basic_writer<fmt::v6::buffer_range<char>>::int_writer<unsigned long long, fmt::v6::basic_format_specs<char>>::num_writer" = type <{ i64, i32, [4 x i8], ptr, i8, [7 x i8] }>
%"struct.fmt::v6::internal::basic_writer<fmt::v6::buffer_range<char>>::padded_int_writer.64" = type { i64, %"class.fmt::v6::basic_string_view", i8, i64, %"struct.fmt::v6::internal::basic_writer<fmt::v6::buffer_range<char>>::int_writer<unsigned long long, fmt::v6::basic_format_specs<char>>::dec_writer" }
%"struct.fmt::v6::internal::basic_writer<fmt::v6::buffer_range<char>>::padded_int_writer.65" = type { i64, %"class.fmt::v6::basic_string_view", i8, i64, %"struct.fmt::v6::internal::basic_writer<fmt::v6::buffer_range<char>>::int_writer<unsigned long long, fmt::v6::basic_format_specs<char>>::hex_writer" }
%"struct.fmt::v6::internal::basic_writer<fmt::v6::buffer_range<char>>::padded_int_writer.66" = type { i64, %"class.fmt::v6::basic_string_view", i8, i64, %"struct.fmt::v6::internal::basic_writer<fmt::v6::buffer_range<char>>::int_writer<unsigned long long, fmt::v6::basic_format_specs<char>>::bin_writer" }
%"struct.fmt::v6::internal::basic_writer<fmt::v6::buffer_range<char>>::padded_int_writer.68" = type { i64, %"class.fmt::v6::basic_string_view", i8, i64, %"struct.fmt::v6::internal::basic_writer<fmt::v6::buffer_range<char>>::int_writer<unsigned long long, fmt::v6::basic_format_specs<char>>::bin_writer.67" }
%"struct.fmt::v6::internal::basic_writer<fmt::v6::buffer_range<char>>::padded_int_writer.69" = type { i64, %"class.fmt::v6::basic_string_view", i8, i64, %"struct.fmt::v6::internal::basic_writer<fmt::v6::buffer_range<char>>::int_writer<unsigned long long, fmt::v6::basic_format_specs<char>>::num_writer" }
%class.anon.70 = type { ptr, %"class.fmt::v6::basic_string_view", ptr, ptr }
%"struct.fmt::v6::internal::basic_writer<fmt::v6::buffer_range<char>>::int_writer.71" = type <{ ptr, ptr, i128, [4 x i8], i32, [8 x i8] }>
%"struct.fmt::v6::internal::basic_writer<fmt::v6::buffer_range<char>>::int_writer<__int128, fmt::v6::basic_format_specs<char>>::dec_writer" = type { i128, i32 }
%"struct.fmt::v6::internal::basic_writer<fmt::v6::buffer_range<char>>::int_writer<__int128, fmt::v6::basic_format_specs<char>>::hex_writer" = type <{ ptr, i32, [4 x i8] }>
%"struct.fmt::v6::internal::basic_writer<fmt::v6::buffer_range<char>>::int_writer<__int128, fmt::v6::basic_format_specs<char>>::bin_writer" = type { i128, i32 }
%"struct.fmt::v6::internal::basic_writer<fmt::v6::buffer_range<char>>::int_writer<__int128, fmt::v6::basic_format_specs<char>>::bin_writer.78" = type { i128, i32 }
%"struct.fmt::v6::internal::basic_writer<fmt::v6::buffer_range<char>>::int_writer<__int128, fmt::v6::basic_format_specs<char>>::num_writer" = type <{ i128, i32, [4 x i8], ptr, i8, [15 x i8] }>
%"struct.fmt::v6::internal::basic_writer<fmt::v6::buffer_range<char>>::padded_int_writer.73" = type { i64, %"class.fmt::v6::basic_string_view", i8, i64, %"struct.fmt::v6::internal::basic_writer<fmt::v6::buffer_range<char>>::int_writer<__int128, fmt::v6::basic_format_specs<char>>::dec_writer" }
%class.anon.74 = type { i8 }
%"struct.fmt::v6::internal::basic_writer<fmt::v6::buffer_range<char>>::padded_int_writer.76" = type { i64, %"class.fmt::v6::basic_string_view", i8, i64, %"struct.fmt::v6::internal::basic_writer<fmt::v6::buffer_range<char>>::int_writer<__int128, fmt::v6::basic_format_specs<char>>::hex_writer" }
%"struct.fmt::v6::internal::basic_writer<fmt::v6::buffer_range<char>>::padded_int_writer.77" = type { i64, %"class.fmt::v6::basic_string_view", i8, i64, %"struct.fmt::v6::internal::basic_writer<fmt::v6::buffer_range<char>>::int_writer<__int128, fmt::v6::basic_format_specs<char>>::bin_writer" }
%"struct.fmt::v6::internal::basic_writer<fmt::v6::buffer_range<char>>::padded_int_writer.79" = type { i64, %"class.fmt::v6::basic_string_view", i8, i64, %"struct.fmt::v6::internal::basic_writer<fmt::v6::buffer_range<char>>::int_writer<__int128, fmt::v6::basic_format_specs<char>>::bin_writer.78" }
%"struct.fmt::v6::internal::basic_writer<fmt::v6::buffer_range<char>>::padded_int_writer.80" = type { i64, %"class.fmt::v6::basic_string_view", i8, i64, [8 x i8], %"struct.fmt::v6::internal::basic_writer<fmt::v6::buffer_range<char>>::int_writer<__int128, fmt::v6::basic_format_specs<char>>::num_writer" }
%class.anon.81 = type { ptr, %"class.fmt::v6::basic_string_view", ptr, ptr }
%"struct.fmt::v6::internal::basic_writer<fmt::v6::buffer_range<char>>::int_writer.82" = type <{ ptr, ptr, i128, [4 x i8], i32, [8 x i8] }>
%"struct.fmt::v6::internal::basic_writer<fmt::v6::buffer_range<char>>::int_writer<unsigned __int128, fmt::v6::basic_format_specs<char>>::dec_writer" = type { i128, i32 }
%"struct.fmt::v6::internal::basic_writer<fmt::v6::buffer_range<char>>::int_writer<unsigned __int128, fmt::v6::basic_format_specs<char>>::hex_writer" = type <{ ptr, i32, [4 x i8] }>
%"struct.fmt::v6::internal::basic_writer<fmt::v6::buffer_range<char>>::int_writer<unsigned __int128, fmt::v6::basic_format_specs<char>>::bin_writer" = type { i128, i32 }
%"struct.fmt::v6::internal::basic_writer<fmt::v6::buffer_range<char>>::int_writer<unsigned __int128, fmt::v6::basic_format_specs<char>>::bin_writer.87" = type { i128, i32 }
%"struct.fmt::v6::internal::basic_writer<fmt::v6::buffer_range<char>>::int_writer<unsigned __int128, fmt::v6::basic_format_specs<char>>::num_writer" = type <{ i128, i32, [4 x i8], ptr, i8, [15 x i8] }>
%"struct.fmt::v6::internal::basic_writer<fmt::v6::buffer_range<char>>::padded_int_writer.84" = type { i64, %"class.fmt::v6::basic_string_view", i8, i64, %"struct.fmt::v6::internal::basic_writer<fmt::v6::buffer_range<char>>::int_writer<unsigned __int128, fmt::v6::basic_format_specs<char>>::dec_writer" }
%"struct.fmt::v6::internal::basic_writer<fmt::v6::buffer_range<char>>::padded_int_writer.85" = type { i64, %"class.fmt::v6::basic_string_view", i8, i64, %"struct.fmt::v6::internal::basic_writer<fmt::v6::buffer_range<char>>::int_writer<unsigned __int128, fmt::v6::basic_format_specs<char>>::hex_writer" }
%"struct.fmt::v6::internal::basic_writer<fmt::v6::buffer_range<char>>::padded_int_writer.86" = type { i64, %"class.fmt::v6::basic_string_view", i8, i64, %"struct.fmt::v6::internal::basic_writer<fmt::v6::buffer_range<char>>::int_writer<unsigned __int128, fmt::v6::basic_format_specs<char>>::bin_writer" }
%"struct.fmt::v6::internal::basic_writer<fmt::v6::buffer_range<char>>::padded_int_writer.88" = type { i64, %"class.fmt::v6::basic_string_view", i8, i64, %"struct.fmt::v6::internal::basic_writer<fmt::v6::buffer_range<char>>::int_writer<unsigned __int128, fmt::v6::basic_format_specs<char>>::bin_writer.87" }
%"struct.fmt::v6::internal::basic_writer<fmt::v6::buffer_range<char>>::padded_int_writer.89" = type { i64, %"class.fmt::v6::basic_string_view", i8, i64, [8 x i8], %"struct.fmt::v6::internal::basic_writer<fmt::v6::buffer_range<char>>::int_writer<unsigned __int128, fmt::v6::basic_format_specs<char>>::num_writer" }
%class.anon.90 = type { ptr, %"class.fmt::v6::basic_string_view", ptr, ptr }
%"struct.fmt::v6::internal::basic_writer<fmt::v6::buffer_range<char>>::str_writer" = type { ptr, i64 }
%"struct.fmt::v6::internal::arg_formatter_base<fmt::v6::buffer_range<char>>::char_writer" = type { i8 }
%"struct.fmt::v6::internal::basic_writer<fmt::v6::buffer_range<char>>::int_writer.91" = type <{ ptr, ptr, i32, [4 x i8], i32, [4 x i8] }>
%"struct.fmt::v6::internal::basic_writer<fmt::v6::buffer_range<char>>::int_writer<char, fmt::v6::basic_format_specs<char>>::dec_writer" = type { i32, i32 }
%"struct.fmt::v6::internal::basic_writer<fmt::v6::buffer_range<char>>::int_writer<char, fmt::v6::basic_format_specs<char>>::hex_writer" = type <{ ptr, i32, [4 x i8] }>
%"struct.fmt::v6::internal::basic_writer<fmt::v6::buffer_range<char>>::int_writer<char, fmt::v6::basic_format_specs<char>>::bin_writer" = type { i32, i32 }
%"struct.fmt::v6::internal::basic_writer<fmt::v6::buffer_range<char>>::int_writer<char, fmt::v6::basic_format_specs<char>>::bin_writer.96" = type { i32, i32 }
%"struct.fmt::v6::internal::basic_writer<fmt::v6::buffer_range<char>>::int_writer<char, fmt::v6::basic_format_specs<char>>::num_writer" = type <{ i32, i32, ptr, i8, [7 x i8] }>
%"struct.fmt::v6::internal::basic_writer<fmt::v6::buffer_range<char>>::padded_int_writer.93" = type { i64, %"class.fmt::v6::basic_string_view", i8, i64, %"struct.fmt::v6::internal::basic_writer<fmt::v6::buffer_range<char>>::int_writer<char, fmt::v6::basic_format_specs<char>>::dec_writer" }
%"struct.fmt::v6::internal::basic_writer<fmt::v6::buffer_range<char>>::padded_int_writer.94" = type { i64, %"class.fmt::v6::basic_string_view", i8, i64, %"struct.fmt::v6::internal::basic_writer<fmt::v6::buffer_range<char>>::int_writer<char, fmt::v6::basic_format_specs<char>>::hex_writer" }
%"struct.fmt::v6::internal::basic_writer<fmt::v6::buffer_range<char>>::padded_int_writer.95" = type { i64, %"class.fmt::v6::basic_string_view", i8, i64, %"struct.fmt::v6::internal::basic_writer<fmt::v6::buffer_range<char>>::int_writer<char, fmt::v6::basic_format_specs<char>>::bin_writer" }
%"struct.fmt::v6::internal::basic_writer<fmt::v6::buffer_range<char>>::padded_int_writer.97" = type { i64, %"class.fmt::v6::basic_string_view", i8, i64, %"struct.fmt::v6::internal::basic_writer<fmt::v6::buffer_range<char>>::int_writer<char, fmt::v6::basic_format_specs<char>>::bin_writer.96" }
%"struct.fmt::v6::internal::basic_writer<fmt::v6::buffer_range<char>>::padded_int_writer.98" = type { i64, %"class.fmt::v6::basic_string_view", i8, i64, %"struct.fmt::v6::internal::basic_writer<fmt::v6::buffer_range<char>>::int_writer<char, fmt::v6::basic_format_specs<char>>::num_writer" }
%class.anon.99 = type { ptr, %"class.fmt::v6::basic_string_view", ptr, ptr }
%"struct.fmt::v6::internal::float_specs" = type { i32, i32 }
%"struct.fmt::v6::internal::nonfinite_writer" = type { i32, ptr }
%"struct.std::is_same" = type { i8 }
%"class.fmt::v6::internal::float_writer" = type <{ ptr, i32, i32, i64, %"struct.fmt::v6::internal::float_specs", i8, [7 x i8] }>
%"class.fmt::v6::internal::counting_iterator" = type { i64 }
%"struct.fmt::v6::internal::counting_iterator::value_type" = type { i8 }
%"struct.std::output_iterator_tag" = type { i8 }
%"struct.std::is_same.100" = type { i8 }
%"struct.std::is_same.102" = type { i8 }
%"struct.fmt::v6::internal::basic_writer<fmt::v6::buffer_range<char>>::pointer_writer" = type { i64, i32 }
%"struct.fmt::v6::internal::arg_map<fmt::v6::basic_format_context<std::back_insert_iterator<fmt::v6::internal::buffer<char>>, char>>::entry" = type { %"class.fmt::v6::basic_string_view", %"class.fmt::v6::basic_format_arg" }
%"struct.fmt::v6::internal::width_adapter" = type { ptr }
%"struct.fmt::v6::internal::precision_adapter" = type { ptr }
%"struct.fmt::v6::internal::auto_id" = type { i8 }
%"class.fmt::v6::internal::width_checker" = type { ptr }
%"class.fmt::v6::internal::precision_checker" = type { ptr }
%"struct.fmt::v6::internal::arg_mapper" = type { i8 }
%"class.__gnu_cxx::__normal_iterator.103" = type { ptr }
%"class.openmc::DataBuffer" = type <{ ptr, i64, i64, i32, [4 x i8] }>
%"class.openmc::AngleDistributionFlat" = type { ptr, i64 }
%"class.openmc::UncorrelatedAngleEnergyFlat" = type { ptr }
%"class.openmc::EnergyDistributionFlat" = type { i32, ptr }

$_ZN6openmc23UncorrelatedAngleEnergyD2Ev = comdat any

$_ZN6openmc23UncorrelatedAngleEnergyD0Ev = comdat any

$_ZN6openmc11AngleEnergyC2Ev = comdat any

$_ZN6openmc17AngleDistributionC2Ev = comdat any

$_ZNSt10unique_ptrIN6openmc18EnergyDistributionESt14default_deleteIS1_EEC2IS3_vEEv = comdat any

$_ZN6openmc17AngleDistributionaSEOS0_ = comdat any

$_ZN6openmc17AngleDistributionD2Ev = comdat any

$_ZN6openmc14read_attributeElPKcRNSt7__cxx1112basic_stringIcSt11char_traitsIcESaIcEEE = comdat any

$_ZSteqIcSt11char_traitsIcESaIcEEbRKNSt7__cxx1112basic_stringIT_T0_T1_EEPKS5_ = comdat any

$_ZNSt10unique_ptrIN6openmc18EnergyDistributionESt14default_deleteIS1_EEC2IS3_vEEPS1_ = comdat any

$_ZNSt10unique_ptrIN6openmc18EnergyDistributionESt14default_deleteIS1_EEaSEOS4_ = comdat any

$_ZNSt10unique_ptrIN6openmc18EnergyDistributionESt14default_deleteIS1_EED2Ev = comdat any

$_ZN3fmt2v66formatIA47_cJRNSt7__cxx1112basic_stringIcSt11char_traitsIcESaIcEEEEcEENS4_IT1_S5_ISA_ESaISA_EEERKT_DpOT0_ = comdat any

$_ZN6openmc11AngleEnergyD2Ev = comdat any

$_ZN6openmc11AngleEnergyD0Ev = comdat any

$_ZNSt6vectorIdSaIdEEC2Ev = comdat any

$_ZNSt6vectorISt10unique_ptrIN6openmc7TabularESt14default_deleteIS2_EESaIS5_EEC2Ev = comdat any

$_ZNSt12_Vector_baseIdSaIdEEC2Ev = comdat any

$_ZNSt12_Vector_baseIdSaIdEE12_Vector_implC2Ev = comdat any

$_ZNSaIdEC2Ev = comdat any

$_ZNSt15__new_allocatorIdEC2Ev = comdat any

$_ZNSt12_Vector_baseISt10unique_ptrIN6openmc7TabularESt14default_deleteIS2_EESaIS5_EEC2Ev = comdat any

$_ZNSt12_Vector_baseISt10unique_ptrIN6openmc7TabularESt14default_deleteIS2_EESaIS5_EE12_Vector_implC2Ev = comdat any

$_ZNSaISt10unique_ptrIN6openmc7TabularESt14default_deleteIS1_EEEC2Ev = comdat any

$_ZNSt15__new_allocatorISt10unique_ptrIN6openmc7TabularESt14default_deleteIS2_EEEC2Ev = comdat any

$_ZNSt15__uniq_ptr_dataIN6openmc18EnergyDistributionESt14default_deleteIS1_ELb1ELb1EEC2Ev = comdat any

$_ZNSt15__uniq_ptr_implIN6openmc18EnergyDistributionESt14default_deleteIS1_EEC2Ev = comdat any

$_ZNSt5tupleIJPN6openmc18EnergyDistributionESt14default_deleteIS1_EEEC2ILb1ETnNSt9enable_ifIXclsr17_TupleConstraintsIXT_ES2_S4_EE37__is_implicitly_default_constructibleEEbE4typeELb1EEEv = comdat any

$_ZNSt11_Tuple_implILm0EJPN6openmc18EnergyDistributionESt14default_deleteIS1_EEEC2Ev = comdat any

$__clang_call_terminate = comdat any

$_ZNSt11_Tuple_implILm1EJSt14default_deleteIN6openmc18EnergyDistributionEEEEC2Ev = comdat any

$_ZNSt10_Head_baseILm0EPN6openmc18EnergyDistributionELb0EEC2Ev = comdat any

$_ZNSt10_Head_baseILm1ESt14default_deleteIN6openmc18EnergyDistributionEELb1EEC2Ev = comdat any

$_ZNSt6vectorIdSaIdEEaSEOS1_ = comdat any

$_ZNSt6vectorISt10unique_ptrIN6openmc7TabularESt14default_deleteIS2_EESaIS5_EEaSEOS7_ = comdat any

$_ZNSt6vectorIdSaIdEE14_M_move_assignEOS1_St17integral_constantIbLb1EE = comdat any

$_ZNKSt12_Vector_baseIdSaIdEE13get_allocatorEv = comdat any

$_ZNSt6vectorIdSaIdEEC2ERKS0_ = comdat any

$_ZNSt12_Vector_baseIdSaIdEE17_Vector_impl_data12_M_swap_dataERS2_ = comdat any

$_ZSt15__alloc_on_moveISaIdEEvRT_S2_ = comdat any

$_ZNSt12_Vector_baseIdSaIdEE19_M_get_Tp_allocatorEv = comdat any

$_ZNSt6vectorIdSaIdEED2Ev = comdat any

$_ZNKSt12_Vector_baseIdSaIdEE19_M_get_Tp_allocatorEv = comdat any

$_ZNSaIdEC2ERKS_ = comdat any

$_ZNSt15__new_allocatorIdEC2ERKS0_ = comdat any

$_ZNSt12_Vector_baseIdSaIdEEC2ERKS0_ = comdat any

$_ZNSt12_Vector_baseIdSaIdEE12_Vector_implC2ERKS0_ = comdat any

$_ZNSt12_Vector_baseIdSaIdEE17_Vector_impl_dataC2Ev = comdat any

$_ZNSt12_Vector_baseIdSaIdEE17_Vector_impl_data12_M_copy_dataERKS2_ = comdat any

$_ZSt8_DestroyIPddEvT_S1_RSaIT0_E = comdat any

$_ZNSt12_Vector_baseIdSaIdEED2Ev = comdat any

$_ZSt8_DestroyIPdEvT_S1_ = comdat any

$_ZNSt12_Destroy_auxILb1EE9__destroyIPdEEvT_S3_ = comdat any

$_ZNSt12_Vector_baseIdSaIdEE13_M_deallocateEPdm = comdat any

$_ZNSt15__new_allocatorIdED2Ev = comdat any

$_ZNSt16allocator_traitsISaIdEE10deallocateERS0_Pdm = comdat any

$_ZNSt15__new_allocatorIdE10deallocateEPdm = comdat any

$_ZNSt6vectorISt10unique_ptrIN6openmc7TabularESt14default_deleteIS2_EESaIS5_EE14_M_move_assignEOS7_St17integral_constantIbLb1EE = comdat any

$_ZNKSt12_Vector_baseISt10unique_ptrIN6openmc7TabularESt14default_deleteIS2_EESaIS5_EE13get_allocatorEv = comdat any

$_ZNSt6vectorISt10unique_ptrIN6openmc7TabularESt14default_deleteIS2_EESaIS5_EEC2ERKS6_ = comdat any

$_ZNSt12_Vector_baseISt10unique_ptrIN6openmc7TabularESt14default_deleteIS2_EESaIS5_EE17_Vector_impl_data12_M_swap_dataERS8_ = comdat any

$_ZSt15__alloc_on_moveISaISt10unique_ptrIN6openmc7TabularESt14default_deleteIS2_EEEEvRT_S8_ = comdat any

$_ZNSt12_Vector_baseISt10unique_ptrIN6openmc7TabularESt14default_deleteIS2_EESaIS5_EE19_M_get_Tp_allocatorEv = comdat any

$_ZNSt6vectorISt10unique_ptrIN6openmc7TabularESt14default_deleteIS2_EESaIS5_EED2Ev = comdat any

$_ZNKSt12_Vector_baseISt10unique_ptrIN6openmc7TabularESt14default_deleteIS2_EESaIS5_EE19_M_get_Tp_allocatorEv = comdat any

$_ZNSaISt10unique_ptrIN6openmc7TabularESt14default_deleteIS1_EEEC2ERKS5_ = comdat any

$_ZNSt15__new_allocatorISt10unique_ptrIN6openmc7TabularESt14default_deleteIS2_EEEC2ERKS6_ = comdat any

$_ZNSt12_Vector_baseISt10unique_ptrIN6openmc7TabularESt14default_deleteIS2_EESaIS5_EEC2ERKS6_ = comdat any

$_ZNSt12_Vector_baseISt10unique_ptrIN6openmc7TabularESt14default_deleteIS2_EESaIS5_EE12_Vector_implC2ERKS6_ = comdat any

$_ZNSt12_Vector_baseISt10unique_ptrIN6openmc7TabularESt14default_deleteIS2_EESaIS5_EE17_Vector_impl_dataC2Ev = comdat any

$_ZNSt12_Vector_baseISt10unique_ptrIN6openmc7TabularESt14default_deleteIS2_EESaIS5_EE17_Vector_impl_data12_M_copy_dataERKS8_ = comdat any

$_ZSt8_DestroyIPSt10unique_ptrIN6openmc7TabularESt14default_deleteIS2_EES5_EvT_S7_RSaIT0_E = comdat any

$_ZNSt12_Vector_baseISt10unique_ptrIN6openmc7TabularESt14default_deleteIS2_EESaIS5_EED2Ev = comdat any

$_ZSt8_DestroyIPSt10unique_ptrIN6openmc7TabularESt14default_deleteIS2_EEEvT_S7_ = comdat any

$_ZNSt12_Destroy_auxILb0EE9__destroyIPSt10unique_ptrIN6openmc7TabularESt14default_deleteIS4_EEEEvT_S9_ = comdat any

$_ZSt8_DestroyISt10unique_ptrIN6openmc7TabularESt14default_deleteIS2_EEEvPT_ = comdat any

$_ZNSt10unique_ptrIN6openmc7TabularESt14default_deleteIS1_EED2Ev = comdat any

$_ZNSt15__uniq_ptr_implIN6openmc7TabularESt14default_deleteIS1_EE6_M_ptrEv = comdat any

$_ZNSt10unique_ptrIN6openmc7TabularESt14default_deleteIS1_EE11get_deleterEv = comdat any

$_ZNKSt14default_deleteIN6openmc7TabularEEclEPS1_ = comdat any

$_ZSt3getILm0EJPN6openmc7TabularESt14default_deleteIS1_EEERNSt13tuple_elementIXT_ESt5tupleIJDpT0_EEE4typeERS9_ = comdat any

$_ZSt12__get_helperILm0EPN6openmc7TabularEJSt14default_deleteIS1_EEERT0_RSt11_Tuple_implIXT_EJS5_DpT1_EE = comdat any

$_ZNSt11_Tuple_implILm0EJPN6openmc7TabularESt14default_deleteIS1_EEE7_M_headERS5_ = comdat any

$_ZNSt10_Head_baseILm0EPN6openmc7TabularELb0EE7_M_headERS3_ = comdat any

$_ZNSt15__uniq_ptr_implIN6openmc7TabularESt14default_deleteIS1_EE10_M_deleterEv = comdat any

$_ZSt3getILm1EJPN6openmc7TabularESt14default_deleteIS1_EEERNSt13tuple_elementIXT_ESt5tupleIJDpT0_EEE4typeERS9_ = comdat any

$_ZSt12__get_helperILm1ESt14default_deleteIN6openmc7TabularEEJEERT0_RSt11_Tuple_implIXT_EJS4_DpT1_EE = comdat any

$_ZNSt11_Tuple_implILm1EJSt14default_deleteIN6openmc7TabularEEEE7_M_headERS4_ = comdat any

$_ZNSt10_Head_baseILm1ESt14default_deleteIN6openmc7TabularEELb1EE7_M_headERS4_ = comdat any

$_ZNSt12_Vector_baseISt10unique_ptrIN6openmc7TabularESt14default_deleteIS2_EESaIS5_EE13_M_deallocateEPS5_m = comdat any

$_ZNSt15__new_allocatorISt10unique_ptrIN6openmc7TabularESt14default_deleteIS2_EEED2Ev = comdat any

$_ZNSt16allocator_traitsISaISt10unique_ptrIN6openmc7TabularESt14default_deleteIS2_EEEE10deallocateERS6_PS5_m = comdat any

$_ZNSt15__new_allocatorISt10unique_ptrIN6openmc7TabularESt14default_deleteIS2_EEE10deallocateEPS5_m = comdat any

$_ZNSt19__ptr_traits_ptr_toIPccLb0EE10pointer_toERc = comdat any

$_ZNSt15__new_allocatorIcEC2Ev = comdat any

$_ZNSt15__new_allocatorIcEC2ERKS0_ = comdat any

$_ZNSt11char_traitsIcE6assignERcRKc = comdat any

$_ZNSt7__cxx1112basic_stringIcSt11char_traitsIcESaIcEE12_M_constructIPKcEEvT_S8_St20forward_iterator_tag = comdat any

$_ZNSt15__new_allocatorIcED2Ev = comdat any

$_ZSt8distanceIPKcENSt15iterator_traitsIT_E15difference_typeES3_S3_ = comdat any

$_ZZNSt7__cxx1112basic_stringIcSt11char_traitsIcESaIcEE12_M_constructIPKcEEvT_S8_St20forward_iterator_tagEN6_GuardC2EPS4_ = comdat any

$_ZZNSt7__cxx1112basic_stringIcSt11char_traitsIcESaIcEE12_M_constructIPKcEEvT_S8_St20forward_iterator_tagEN6_GuardD2Ev = comdat any

$_ZSt10__distanceIPKcENSt15iterator_traitsIT_E15difference_typeES3_S3_St26random_access_iterator_tag = comdat any

$_ZSt19__iterator_categoryIPKcENSt15iterator_traitsIT_E17iterator_categoryERKS3_ = comdat any

$_ZNSt11char_traitsIcE4copyEPcPKcm = comdat any

$_ZNSt19__ptr_traits_ptr_toIPKcS0_Lb0EE10pointer_toERS0_ = comdat any

$_ZNSt16allocator_traitsISaIcEE10deallocateERS0_Pcm = comdat any

$_ZNSt15__new_allocatorIcE10deallocateEPcm = comdat any

$_ZN9__gnu_cxx14__alloc_traitsISaIcEcE15_S_always_equalEv = comdat any

$_ZStneRKSaIcES1_ = comdat any

$_ZSt15__alloc_on_moveISaIcEEvRT_S2_ = comdat any

$_ZNSt15__uniq_ptr_dataIN6openmc18EnergyDistributionESt14default_deleteIS1_ELb1ELb1EECI2St15__uniq_ptr_implIS1_S3_EEPS1_ = comdat any

$_ZNSt15__uniq_ptr_implIN6openmc18EnergyDistributionESt14default_deleteIS1_EEC2EPS1_ = comdat any

$_ZNSt15__uniq_ptr_implIN6openmc18EnergyDistributionESt14default_deleteIS1_EE6_M_ptrEv = comdat any

$_ZSt3getILm0EJPN6openmc18EnergyDistributionESt14default_deleteIS1_EEERNSt13tuple_elementIXT_ESt5tupleIJDpT0_EEE4typeERS9_ = comdat any

$_ZSt12__get_helperILm0EPN6openmc18EnergyDistributionEJSt14default_deleteIS1_EEERT0_RSt11_Tuple_implIXT_EJS5_DpT1_EE = comdat any

$_ZNSt11_Tuple_implILm0EJPN6openmc18EnergyDistributionESt14default_deleteIS1_EEE7_M_headERS5_ = comdat any

$_ZNSt10_Head_baseILm0EPN6openmc18EnergyDistributionELb0EE7_M_headERS3_ = comdat any

$_ZNSt15__uniq_ptr_dataIN6openmc18EnergyDistributionESt14default_deleteIS1_ELb1ELb1EEaSEOS4_ = comdat any

$_ZNSt15__uniq_ptr_implIN6openmc18EnergyDistributionESt14default_deleteIS1_EEaSEOS4_ = comdat any

$_ZNSt15__uniq_ptr_implIN6openmc18EnergyDistributionESt14default_deleteIS1_EE5resetEPS1_ = comdat any

$_ZNSt15__uniq_ptr_implIN6openmc18EnergyDistributionESt14default_deleteIS1_EE7releaseEv = comdat any

$_ZNSt15__uniq_ptr_implIN6openmc18EnergyDistributionESt14default_deleteIS1_EE10_M_deleterEv = comdat any

$_ZNKSt14default_deleteIN6openmc18EnergyDistributionEEclEPS1_ = comdat any

$_ZSt3getILm1EJPN6openmc18EnergyDistributionESt14default_deleteIS1_EEERNSt13tuple_elementIXT_ESt5tupleIJDpT0_EEE4typeERS9_ = comdat any

$_ZSt12__get_helperILm1ESt14default_deleteIN6openmc18EnergyDistributionEEJEERT0_RSt11_Tuple_implIXT_EJS4_DpT1_EE = comdat any

$_ZNSt11_Tuple_implILm1EJSt14default_deleteIN6openmc18EnergyDistributionEEEE7_M_headERS4_ = comdat any

$_ZNSt10_Head_baseILm1ESt14default_deleteIN6openmc18EnergyDistributionEELb1EE7_M_headERS4_ = comdat any

$_ZNSt10unique_ptrIN6openmc18EnergyDistributionESt14default_deleteIS1_EE11get_deleterEv = comdat any

$_ZN3fmt2v68internal7vformatIcEENSt7__cxx1112basic_stringIT_St11char_traitsIS5_ESaIS5_EEENS0_17basic_string_viewIS5_EENS0_17basic_format_argsINS0_20basic_format_contextISt20back_insert_iteratorINS1_6bufferIS5_EEES5_EEEE = comdat any

$_ZN3fmt2v614to_string_viewIcTnNSt9enable_ifIXsr7is_charIT_EE5valueEiE4typeELi0EEENS0_17basic_string_viewIS3_EEPKS3_ = comdat any

$_ZN3fmt2v68internal17make_args_checkedIJRNSt7__cxx1112basic_stringIcSt11char_traitsIcESaIcEEEEA47_ccEENS0_16format_arg_storeINS0_20basic_format_contextISt20back_insert_iteratorINS1_6bufferIT1_EEESF_EEJDpNSt16remove_referenceIT_E4typeEEEERKT0_DpRKSM_ = comdat any

$_ZN3fmt2v617basic_format_argsINS0_20basic_format_contextISt20back_insert_iteratorINS0_8internal6bufferIcEEEcEEEC2IJNSt7__cxx1112basic_stringIcSt11char_traitsIcESaIcEEEEEERKNS0_16format_arg_storeIS8_JDpT_EEE = comdat any

$_ZN3fmt2v619basic_memory_bufferIcLm500ESaIcEEC2ERKS2_ = comdat any

$_ZN3fmt2v68internal10vformat_toIcEENS0_20basic_format_contextISt20back_insert_iteratorINS1_6bufferIT_EEES6_E8iteratorERS7_NS0_17basic_string_viewIS6_EENS0_17basic_format_argsIS9_EE = comdat any

$_ZN3fmt2v69to_stringIcLm500EEENSt7__cxx1112basic_stringIT_St11char_traitsIS4_ESaIS4_EEERKNS0_19basic_memory_bufferIS4_XT0_ES7_EE = comdat any

$_ZN3fmt2v619basic_memory_bufferIcLm500ESaIcEED2Ev = comdat any

$_ZN3fmt2v68internal6bufferIcEC2EPcmm = comdat any

$_ZN3fmt2v68internal6bufferIcE3setEPcm = comdat any

$_ZN3fmt2v619basic_memory_bufferIcLm500ESaIcEE4growEm = comdat any

$_ZN3fmt2v619basic_memory_bufferIcLm500ESaIcEED0Ev = comdat any

$_ZN3fmt2v68internal6bufferIcED2Ev = comdat any

$_ZN3fmt2v68internal6bufferIcED0Ev = comdat any

$_ZNK3fmt2v68internal6bufferIcE8capacityEv = comdat any

$_ZN3fmt2v68internal6bufferIcE4dataEv = comdat any

$_ZNSt16allocator_traitsISaIcEE8allocateERS0_m = comdat any

$_ZSt18uninitialized_copyIPcS0_ET0_T_S2_S1_ = comdat any

$_ZNK3fmt2v68internal6bufferIcE4sizeEv = comdat any

$_ZN3fmt2v68internal12make_checkedIcEEPT_S4_m = comdat any

$_ZNSt15__new_allocatorIcE8allocateEmPKv = comdat any

$_ZNKSt15__new_allocatorIcE11_M_max_sizeEv = comdat any

$_ZNSt20__uninitialized_copyILb1EE13__uninit_copyIPcS2_EET0_T_S4_S3_ = comdat any

$_ZSt4copyIPcS0_ET0_T_S2_S1_ = comdat any

$_ZSt13__copy_move_aILb0EPcS0_ET1_T0_S2_S1_ = comdat any

$_ZSt12__miter_baseIPcET_S1_ = comdat any

$_ZSt12__niter_wrapIPcET_RKS1_S1_ = comdat any

$_ZSt14__copy_move_a1ILb0EPcS0_ET1_T0_S2_S1_ = comdat any

$_ZSt12__niter_baseIPcET_S1_ = comdat any

$_ZSt14__copy_move_a2ILb0EPcS0_ET1_T0_S2_S1_ = comdat any

$_ZNSt11__copy_moveILb0ELb1ESt26random_access_iterator_tagE8__copy_mIcEEPT_PKS3_S6_S4_ = comdat any

$_ZN3fmt2v610vformat_toINS0_13arg_formatterINS0_12buffer_rangeIcEEEEcNS0_20basic_format_contextISt20back_insert_iteratorINS0_8internal6bufferIcEEEcEEEENT1_8iteratorENT_5rangeENS0_17basic_string_viewIT0_EENS0_17basic_format_argsISD_EENS8_10locale_refE = comdat any

$_ZN3fmt2v612buffer_rangeIcEC2ERNS0_8internal6bufferIcEE = comdat any

$_ZN3fmt2v614to_string_viewIcEENS0_17basic_string_viewIT_EES4_ = comdat any

$_ZN3fmt2v68internal10locale_refC2Ev = comdat any

$_ZN3fmt2v614format_handlerINS0_13arg_formatterINS0_12buffer_rangeIcEEEEcNS0_20basic_format_contextISt20back_insert_iteratorINS0_8internal6bufferIcEEEcEEEC2ES4_NS0_17basic_string_viewIcEENS0_17basic_format_argsISC_EENS8_10locale_refE = comdat any

$_ZN3fmt2v68internal19parse_format_stringILb0EcRNS0_14format_handlerINS0_13arg_formatterINS0_12buffer_rangeIcEEEEcNS0_20basic_format_contextISt20back_insert_iteratorINS1_6bufferIcEEEcEEEEEEvNS0_17basic_string_viewIT0_EEOT1_ = comdat any

$_ZN3fmt2v620basic_format_contextISt20back_insert_iteratorINS0_8internal6bufferIcEEEcE3outEv = comdat any

$_ZN3fmt2v614format_handlerINS0_13arg_formatterINS0_12buffer_rangeIcEEEEcNS0_20basic_format_contextISt20back_insert_iteratorINS0_8internal6bufferIcEEEcEEED2Ev = comdat any

$_ZN3fmt2v626basic_format_parse_contextIcNS0_8internal13error_handlerEEC2ENS0_17basic_string_viewIcEES3_ = comdat any

$_ZNK3fmt2v68internal12output_rangeISt20back_insert_iteratorINS1_6bufferIcEEEcE5beginEv = comdat any

$_ZN3fmt2v620basic_format_contextISt20back_insert_iteratorINS0_8internal6bufferIcEEEcEC2ES6_NS0_17basic_format_argsIS7_EENS3_10locale_refE = comdat any

$_ZN3fmt2v616basic_format_argINS0_20basic_format_contextISt20back_insert_iteratorINS0_8internal6bufferIcEEEcEEEC2Ev = comdat any

$_ZN3fmt2v620basic_format_contextISt20back_insert_iteratorINS0_8internal6bufferIcEEEcED2Ev = comdat any

$_ZN3fmt2v68internal7arg_mapINS0_20basic_format_contextISt20back_insert_iteratorINS1_6bufferIcEEEcEEEC2Ev = comdat any

$_ZN3fmt2v68internal5valueINS0_20basic_format_contextISt20back_insert_iteratorINS1_6bufferIcEEEcEEEC2Ei = comdat any

$_ZN3fmt2v68internal7arg_mapINS0_20basic_format_contextISt20back_insert_iteratorINS1_6bufferIcEEEcEEED2Ev = comdat any

$_ZNK3fmt2v617basic_string_viewIcE4dataEv = comdat any

$_ZNK3fmt2v617basic_string_viewIcE4sizeEv = comdat any

$_ZN3fmt2v68internal4findILb0EcPKcEEbT1_S5_T0_RS5_ = comdat any

$_ZZN3fmt2v68internal19parse_format_stringILb0EcRNS0_14format_handlerINS0_13arg_formatterINS0_12buffer_rangeIcEEEEcNS0_20basic_format_contextISt20back_insert_iteratorINS1_6bufferIcEEEcEEEEEEvNS0_17basic_string_viewIT0_EEOT1_EN10pfs_writerclEPKcSN_ = comdat any

$_ZN3fmt2v614format_handlerINS0_13arg_formatterINS0_12buffer_rangeIcEEEEcNS0_20basic_format_contextISt20back_insert_iteratorINS0_8internal6bufferIcEEEcEEE9on_arg_idEv = comdat any

$_ZN3fmt2v614format_handlerINS0_13arg_formatterINS0_12buffer_rangeIcEEEEcNS0_20basic_format_contextISt20back_insert_iteratorINS0_8internal6bufferIcEEEcEEE20on_replacement_fieldEPKc = comdat any

$_ZN3fmt2v614format_handlerINS0_13arg_formatterINS0_12buffer_rangeIcEEEEcNS0_20basic_format_contextISt20back_insert_iteratorINS0_8internal6bufferIcEEEcEEE7on_textEPKcSF_ = comdat any

$_ZN3fmt2v68internal12parse_arg_idIcNS1_10id_adapterIRNS0_14format_handlerINS0_13arg_formatterINS0_12buffer_rangeIcEEEEcNS0_20basic_format_contextISt20back_insert_iteratorINS1_6bufferIcEEEcEEEEcEEEEPKT_SK_SK_OT0_ = comdat any

$_ZN3fmt2v614format_handlerINS0_13arg_formatterINS0_12buffer_rangeIcEEEEcNS0_20basic_format_contextISt20back_insert_iteratorINS0_8internal6bufferIcEEEcEEE15on_format_specsEPKcSF_ = comdat any

$_ZN3fmt2v68internal11to_unsignedIlEENSt13make_unsignedIT_E4typeES4_ = comdat any

$_ZN3fmt2v614format_handlerINS0_13arg_formatterINS0_12buffer_rangeIcEEEEcNS0_20basic_format_contextISt20back_insert_iteratorINS0_8internal6bufferIcEEEcEEE7get_argEi = comdat any

$_ZN3fmt2v626basic_format_parse_contextIcNS0_8internal13error_handlerEE11next_arg_idEv = comdat any

$_ZN3fmt2v68internal7get_argINS0_20basic_format_contextISt20back_insert_iteratorINS1_6bufferIcEEEcEEEENT_10format_argERS9_i = comdat any

$_ZNK3fmt2v620basic_format_contextISt20back_insert_iteratorINS0_8internal6bufferIcEEEcE3argEi = comdat any

$_ZNK3fmt2v616basic_format_argINS0_20basic_format_contextISt20back_insert_iteratorINS0_8internal6bufferIcEEEcEEEcvbEv = comdat any

$_ZN3fmt2v620basic_format_contextISt20back_insert_iteratorINS0_8internal6bufferIcEEEcE8on_errorEPKc = comdat any

$_ZNK3fmt2v617basic_format_argsINS0_20basic_format_contextISt20back_insert_iteratorINS0_8internal6bufferIcEEEcEEE3getEi = comdat any

$_ZNK3fmt2v617basic_format_argsINS0_20basic_format_contextISt20back_insert_iteratorINS0_8internal6bufferIcEEEcEEE6do_getEi = comdat any

$_ZNK3fmt2v68internal14named_arg_baseIcE11deserializeINS0_20basic_format_contextISt20back_insert_iteratorINS1_6bufferIcEEEcEEEENS0_16basic_format_argIT_EEv = comdat any

$_ZNK3fmt2v617basic_format_argsINS0_20basic_format_contextISt20back_insert_iteratorINS0_8internal6bufferIcEEEcEEE9is_packedEv = comdat any

$_ZNK3fmt2v617basic_format_argsINS0_20basic_format_contextISt20back_insert_iteratorINS0_8internal6bufferIcEEEcEEE8max_sizeEv = comdat any

$_ZNK3fmt2v617basic_format_argsINS0_20basic_format_contextISt20back_insert_iteratorINS0_8internal6bufferIcEEEcEEE4typeEi = comdat any

$_ZN3fmt2v620basic_format_contextISt20back_insert_iteratorINS0_8internal6bufferIcEEEcE13error_handlerEv = comdat any

$_ZN3fmt2v626basic_format_parse_contextIcNS0_8internal13error_handlerEE8on_errorEPKc = comdat any

$_ZN3fmt2v610advance_toIcNS0_8internal13error_handlerEEEvRNS0_26basic_format_parse_contextIT_T0_EEPKS5_ = comdat any

$_ZN3fmt2v620basic_format_contextISt20back_insert_iteratorINS0_8internal6bufferIcEEEcE10advance_toES6_ = comdat any

$_ZN3fmt2v616visit_format_argINS0_13arg_formatterINS0_12buffer_rangeIcEEEENS0_20basic_format_contextISt20back_insert_iteratorINS0_8internal6bufferIcEEEcEEEEDTclfp_Li0EEEOT_RKNS0_16basic_format_argIT0_EE = comdat any

$_ZN3fmt2v613arg_formatterINS0_12buffer_rangeIcEEEC2ERNS0_20basic_format_contextISt20back_insert_iteratorINS0_8internal6bufferIcEEEcEEPNS0_26basic_format_parse_contextIcNS7_13error_handlerEEEPNS0_18basic_format_specsIcEE = comdat any

$_ZN3fmt2v626basic_format_parse_contextIcNS0_8internal13error_handlerEE10advance_toEPKc = comdat any

$_ZNK3fmt2v626basic_format_parse_contextIcNS0_8internal13error_handlerEE5beginEv = comdat any

$_ZN3fmt2v617basic_string_viewIcE13remove_prefixEm = comdat any

$_ZNK3fmt2v617basic_string_viewIcE5beginEv = comdat any

$_ZN3fmt2v68internal18arg_formatter_baseINS0_12buffer_rangeIcEENS1_13error_handlerEEclIiTnNSt9enable_ifIXsr11is_integralIT_EE5valueEiE4typeELi0EEESt20back_insert_iteratorINS1_6bufferIcEEES9_ = comdat any

$_ZN3fmt2v68internal18arg_formatter_baseINS0_12buffer_rangeIcEENS1_13error_handlerEEclIjTnNSt9enable_ifIXsr11is_integralIT_EE5valueEiE4typeELi0EEESt20back_insert_iteratorINS1_6bufferIcEEES9_ = comdat any

$_ZN3fmt2v68internal18arg_formatter_baseINS0_12buffer_rangeIcEENS1_13error_handlerEEclIxTnNSt9enable_ifIXsr11is_integralIT_EE5valueEiE4typeELi0EEESt20back_insert_iteratorINS1_6bufferIcEEES9_ = comdat any

$_ZN3fmt2v68internal18arg_formatter_baseINS0_12buffer_rangeIcEENS1_13error_handlerEEclIyTnNSt9enable_ifIXsr11is_integralIT_EE5valueEiE4typeELi0EEESt20back_insert_iteratorINS1_6bufferIcEEES9_ = comdat any

$_ZN3fmt2v68internal18arg_formatter_baseINS0_12buffer_rangeIcEENS1_13error_handlerEEclInTnNSt9enable_ifIXsr11is_integralIT_EE5valueEiE4typeELi0EEESt20back_insert_iteratorINS1_6bufferIcEEES9_ = comdat any

$_ZN3fmt2v68internal18arg_formatter_baseINS0_12buffer_rangeIcEENS1_13error_handlerEEclIoTnNSt9enable_ifIXsr11is_integralIT_EE5valueEiE4typeELi0EEESt20back_insert_iteratorINS1_6bufferIcEEES9_ = comdat any

$_ZN3fmt2v68internal18arg_formatter_baseINS0_12buffer_rangeIcEENS1_13error_handlerEEclEb = comdat any

$_ZN3fmt2v68internal18arg_formatter_baseINS0_12buffer_rangeIcEENS1_13error_handlerEEclEc = comdat any

$_ZN3fmt2v68internal18arg_formatter_baseINS0_12buffer_rangeIcEENS1_13error_handlerEEclIfTnNSt9enable_ifIXsr3std17is_floating_pointIT_EE5valueEiE4typeELi0EEESt20back_insert_iteratorINS1_6bufferIcEEES9_ = comdat any

$_ZN3fmt2v68internal18arg_formatter_baseINS0_12buffer_rangeIcEENS1_13error_handlerEEclIdTnNSt9enable_ifIXsr3std17is_floating_pointIT_EE5valueEiE4typeELi0EEESt20back_insert_iteratorINS1_6bufferIcEEES9_ = comdat any

$_ZN3fmt2v68internal18arg_formatter_baseINS0_12buffer_rangeIcEENS1_13error_handlerEEclIeTnNSt9enable_ifIXsr3std17is_floating_pointIT_EE5valueEiE4typeELi0EEESt20back_insert_iteratorINS1_6bufferIcEEES9_ = comdat any

$_ZN3fmt2v68internal18arg_formatter_baseINS0_12buffer_rangeIcEENS1_13error_handlerEEclEPKc = comdat any

$_ZN3fmt2v68internal18arg_formatter_baseINS0_12buffer_rangeIcEENS1_13error_handlerEEclENS0_17basic_string_viewIcEE = comdat any

$_ZN3fmt2v617basic_string_viewIcEC2EPKcm = comdat any

$_ZN3fmt2v68internal18arg_formatter_baseINS0_12buffer_rangeIcEENS1_13error_handlerEEclEPKv = comdat any

$_ZN3fmt2v613arg_formatterINS0_12buffer_rangeIcEEEclENS0_16basic_format_argINS0_20basic_format_contextISt20back_insert_iteratorINS0_8internal6bufferIcEEEcEEE6handleE = comdat any

$_ZN3fmt2v616basic_format_argINS0_20basic_format_contextISt20back_insert_iteratorINS0_8internal6bufferIcEEEcEEE6handleC2ENS4_12custom_valueIS8_EE = comdat any

$_ZN3fmt2v68internal18arg_formatter_baseINS0_12buffer_rangeIcEENS1_13error_handlerEEclENS0_9monostateE = comdat any

$_ZN3fmt2v68internal12basic_writerINS0_12buffer_rangeIcEEE9write_intIiNS0_18basic_format_specsIcEEEEvT_RKT0_ = comdat any

$_ZN3fmt2v68internal12basic_writerINS0_12buffer_rangeIcEEE5writeEi = comdat any

$_ZN3fmt2v68internal18arg_formatter_baseINS0_12buffer_rangeIcEENS1_13error_handlerEE3outEv = comdat any

$_ZN3fmt2v68internal20handle_int_type_specINS1_12basic_writerINS0_12buffer_rangeIcEEE10int_writerIiNS0_18basic_format_specsIcEEEEEEvcOT_ = comdat any

$_ZN3fmt2v68internal12basic_writerINS0_12buffer_rangeIcEEE10int_writerIiNS0_18basic_format_specsIcEEEC2ERS5_iRKS8_ = comdat any

$_ZN3fmt2v68internal12basic_writerINS0_12buffer_rangeIcEEE10int_writerIiNS0_18basic_format_specsIcEEE6on_decEv = comdat any

$_ZN3fmt2v68internal12basic_writerINS0_12buffer_rangeIcEEE10int_writerIiNS0_18basic_format_specsIcEEE6on_hexEv = comdat any

$_ZN3fmt2v68internal12basic_writerINS0_12buffer_rangeIcEEE10int_writerIiNS0_18basic_format_specsIcEEE6on_binEv = comdat any

$_ZN3fmt2v68internal12basic_writerINS0_12buffer_rangeIcEEE10int_writerIiNS0_18basic_format_specsIcEEE6on_octEv = comdat any

$_ZN3fmt2v68internal12basic_writerINS0_12buffer_rangeIcEEE10int_writerIiNS0_18basic_format_specsIcEEE6on_numEv = comdat any

$_ZN3fmt2v68internal12basic_writerINS0_12buffer_rangeIcEEE10int_writerIiNS0_18basic_format_specsIcEEE8on_errorEv = comdat any

$_ZN3fmt2v68internal12count_digitsEj = comdat any

$_ZN3fmt2v68internal12basic_writerINS0_12buffer_rangeIcEEE9write_intINS5_10int_writerIiNS0_18basic_format_specsIcEEE10dec_writerEEEviNS0_17basic_string_viewIcEES9_T_ = comdat any

$_ZNK3fmt2v68internal12basic_writerINS0_12buffer_rangeIcEEE10int_writerIiNS0_18basic_format_specsIcEEE10get_prefixEv = comdat any

$_ZN3fmt2v68internal11to_unsignedIiEENSt13make_unsignedIT_E4typeES4_ = comdat any

$_ZN3fmt2v68internal6fill_tIcEixEm = comdat any

$_ZN3fmt2v68internal12basic_writerINS0_12buffer_rangeIcEEE12write_paddedINS5_17padded_int_writerINS5_10int_writerIiNS0_18basic_format_specsIcEEE10dec_writerEEEEEvRKSA_OT_ = comdat any

$_ZNK3fmt2v68internal12basic_writerINS0_12buffer_rangeIcEEE17padded_int_writerINS5_10int_writerIiNS0_18basic_format_specsIcEEE10dec_writerEE4sizeEv = comdat any

$_ZNK3fmt2v68internal12basic_writerINS0_12buffer_rangeIcEEE17padded_int_writerINS5_10int_writerIiNS0_18basic_format_specsIcEEE10dec_writerEE5widthEv = comdat any

$_ZNK3fmt2v68internal12basic_writerINS0_12buffer_rangeIcEEE17padded_int_writerINS5_10int_writerIiNS0_18basic_format_specsIcEEE10dec_writerEEclIPcEEvOT_ = comdat any

$_ZN3fmt2v68internal12basic_writerINS0_12buffer_rangeIcEEE7reserveEm = comdat any

$_ZNK3fmt2v68internal6fill_tIcEixEm = comdat any

$_ZSt6fill_nIPcmcET_S1_T0_RKT1_ = comdat any

$_ZNK3fmt2v68internal12basic_writerINS0_12buffer_rangeIcEEE17padded_int_writerINS5_10int_writerIiNS0_18basic_format_specsIcEEE10dec_writerEEclIRPcEEvOT_ = comdat any

$_ZN3fmt2v68internal8copy_strIcPKcPcTnNSt9enable_ifIXntsr16needs_conversionIT0_T_EE5valueEiE4typeELi0EEET1_S7_S7_SB_ = comdat any

$_ZNK3fmt2v617basic_string_viewIcE3endEv = comdat any

$_ZNK3fmt2v68internal12basic_writerINS0_12buffer_rangeIcEEE10int_writerIiNS0_18basic_format_specsIcEEE10dec_writerclIRPcEEvOT_ = comdat any

$_ZSt4copyIPKcPcET0_T_S4_S3_ = comdat any

$_ZSt13__copy_move_aILb0EPKcPcET1_T0_S4_S3_ = comdat any

$_ZSt12__miter_baseIPKcET_S2_ = comdat any

$_ZSt14__copy_move_a1ILb0EPKcPcET1_T0_S4_S3_ = comdat any

$_ZSt12__niter_baseIPKcET_S2_ = comdat any

$_ZSt14__copy_move_a2ILb0EPKcPcET1_T0_S4_S3_ = comdat any

$_ZN3fmt2v68internal14format_decimalIcPcjEET0_S4_T1_i = comdat any

$_ZN3fmt2v68internal14format_decimalIcjPcZNS1_14format_decimalIcS3_jEET0_S5_T1_iEUlS3_E_EES6_S6_S5_iT2_ = comdat any

$_ZN3fmt2v68internal14format_decimalIjcZNS1_14format_decimalIcPcjEET0_S5_T1_iEUlS4_E_EEPS5_S8_T_iS6_ = comdat any

$_ZN3fmt2v68internal8copy_strIcPcS3_TnNSt9enable_ifIXntsr16needs_conversionIT0_T_EE5valueEiE4typeELi0EEET1_S5_S5_S9_ = comdat any

$_ZZN3fmt2v68internal14format_decimalIcPcjEET0_S4_T1_iENKUlS3_E_clES3_ = comdat any

$_ZN3fmt2v68internal7reserveINS1_6bufferIcEETnNSt9enable_ifIXsr13is_contiguousIT_EE5valueEiE4typeELi0EEEPNS6_10value_typeERSt20back_insert_iteratorIS6_Em = comdat any

$_ZN3fmt2v68internal13get_containerINS1_6bufferIcEEEERT_St20back_insert_iteratorIS5_E = comdat any

$_ZN3fmt2v68internal6bufferIcE6resizeEm = comdat any

$_ZN3fmt2v68internal8get_dataINS1_6bufferIcEEEEPNT_10value_typeERS5_ = comdat any

$_ZZN3fmt2v68internal13get_containerINS1_6bufferIcEEEERT_St20back_insert_iteratorIS5_EEN8accessorC2ES7_IS4_E = comdat any

$_ZN3fmt2v68internal6bufferIcE7reserveEm = comdat any

$_ZSt10__fill_n_aIPcmcET_S1_T0_RKT1_St26random_access_iterator_tag = comdat any

$_ZSt17__size_to_integerm = comdat any

$_ZSt19__iterator_categoryIPcENSt15iterator_traitsIT_E17iterator_categoryERKS2_ = comdat any

$_ZSt8__fill_aIPccEvT_S1_RKT0_ = comdat any

$_ZSt9__fill_a1IcEN9__gnu_cxx11__enable_ifIXsr9__is_byteIT_EE7__valueEvE6__typeEPS2_S5_RKS2_ = comdat any

$_ZN3fmt2v68internal12count_digitsILj4EjEEiT0_ = comdat any

$_ZN3fmt2v68internal12basic_writerINS0_12buffer_rangeIcEEE9write_intINS5_10int_writerIiNS0_18basic_format_specsIcEEE10hex_writerEEEviNS0_17basic_string_viewIcEES9_T_ = comdat any

$_ZN3fmt2v68internal12basic_writerINS0_12buffer_rangeIcEEE12write_paddedINS5_17padded_int_writerINS5_10int_writerIiNS0_18basic_format_specsIcEEE10hex_writerEEEEEvRKSA_OT_ = comdat any

$_ZNK3fmt2v68internal12basic_writerINS0_12buffer_rangeIcEEE17padded_int_writerINS5_10int_writerIiNS0_18basic_format_specsIcEEE10hex_writerEE4sizeEv = comdat any

$_ZNK3fmt2v68internal12basic_writerINS0_12buffer_rangeIcEEE17padded_int_writerINS5_10int_writerIiNS0_18basic_format_specsIcEEE10hex_writerEE5widthEv = comdat any

$_ZNK3fmt2v68internal12basic_writerINS0_12buffer_rangeIcEEE17padded_int_writerINS5_10int_writerIiNS0_18basic_format_specsIcEEE10hex_writerEEclIPcEEvOT_ = comdat any

$_ZNK3fmt2v68internal12basic_writerINS0_12buffer_rangeIcEEE17padded_int_writerINS5_10int_writerIiNS0_18basic_format_specsIcEEE10hex_writerEEclIRPcEEvOT_ = comdat any

$_ZNK3fmt2v68internal12basic_writerINS0_12buffer_rangeIcEEE10int_writerIiNS0_18basic_format_specsIcEEE10hex_writerclIRPcEEvOT_ = comdat any

$_ZN3fmt2v68internal11format_uintILj4EcjEEPT0_S4_T1_ib = comdat any

$_ZN3fmt2v68internal12count_digitsILj1EjEEiT0_ = comdat any

$_ZN3fmt2v68internal12basic_writerINS0_12buffer_rangeIcEEE9write_intINS5_10int_writerIiNS0_18basic_format_specsIcEEE10bin_writerILi1EEEEEviNS0_17basic_string_viewIcEES9_T_ = comdat any

$_ZN3fmt2v68internal12basic_writerINS0_12buffer_rangeIcEEE12write_paddedINS5_17padded_int_writerINS5_10int_writerIiNS0_18basic_format_specsIcEEE10bin_writerILi1EEEEEEEvRKSA_OT_ = comdat any

$_ZNK3fmt2v68internal12basic_writerINS0_12buffer_rangeIcEEE17padded_int_writerINS5_10int_writerIiNS0_18basic_format_specsIcEEE10bin_writerILi1EEEE4sizeEv = comdat any

$_ZNK3fmt2v68internal12basic_writerINS0_12buffer_rangeIcEEE17padded_int_writerINS5_10int_writerIiNS0_18basic_format_specsIcEEE10bin_writerILi1EEEE5widthEv = comdat any

$_ZNK3fmt2v68internal12basic_writerINS0_12buffer_rangeIcEEE17padded_int_writerINS5_10int_writerIiNS0_18basic_format_specsIcEEE10bin_writerILi1EEEEclIPcEEvOT_ = comdat any

$_ZNK3fmt2v68internal12basic_writerINS0_12buffer_rangeIcEEE17padded_int_writerINS5_10int_writerIiNS0_18basic_format_specsIcEEE10bin_writerILi1EEEEclIRPcEEvOT_ = comdat any

$_ZNK3fmt2v68internal12basic_writerINS0_12buffer_rangeIcEEE10int_writerIiNS0_18basic_format_specsIcEEE10bin_writerILi1EEclIRPcEEvOT_ = comdat any

$_ZN3fmt2v68internal11format_uintILj1EcjEEPT0_S4_T1_ib = comdat any

$_ZN3fmt2v68internal12count_digitsILj3EjEEiT0_ = comdat any

$_ZN3fmt2v68internal12basic_writerINS0_12buffer_rangeIcEEE9write_intINS5_10int_writerIiNS0_18basic_format_specsIcEEE10bin_writerILi3EEEEEviNS0_17basic_string_viewIcEES9_T_ = comdat any

$_ZN3fmt2v68internal12basic_writerINS0_12buffer_rangeIcEEE12write_paddedINS5_17padded_int_writerINS5_10int_writerIiNS0_18basic_format_specsIcEEE10bin_writerILi3EEEEEEEvRKSA_OT_ = comdat any

$_ZNK3fmt2v68internal12basic_writerINS0_12buffer_rangeIcEEE17padded_int_writerINS5_10int_writerIiNS0_18basic_format_specsIcEEE10bin_writerILi3EEEE4sizeEv = comdat any

$_ZNK3fmt2v68internal12basic_writerINS0_12buffer_rangeIcEEE17padded_int_writerINS5_10int_writerIiNS0_18basic_format_specsIcEEE10bin_writerILi3EEEE5widthEv = comdat any

$_ZNK3fmt2v68internal12basic_writerINS0_12buffer_rangeIcEEE17padded_int_writerINS5_10int_writerIiNS0_18basic_format_specsIcEEE10bin_writerILi3EEEEclIPcEEvOT_ = comdat any

$_ZNK3fmt2v68internal12basic_writerINS0_12buffer_rangeIcEEE17padded_int_writerINS5_10int_writerIiNS0_18basic_format_specsIcEEE10bin_writerILi3EEEEclIRPcEEvOT_ = comdat any

$_ZNK3fmt2v68internal12basic_writerINS0_12buffer_rangeIcEEE10int_writerIiNS0_18basic_format_specsIcEEE10bin_writerILi3EEclIRPcEEvOT_ = comdat any

$_ZN3fmt2v68internal11format_uintILj3EcjEEPT0_S4_T1_ib = comdat any

$_ZN3fmt2v68internal8groupingIcEENSt7__cxx1112basic_stringIcSt11char_traitsIcESaIcEEENS1_10locale_refE = comdat any

$_ZN3fmt2v68internal13thousands_sepIcEET_NS1_10locale_refE = comdat any

$_ZN9__gnu_cxxneIPKcNSt7__cxx1112basic_stringIcSt11char_traitsIcESaIcEEEEEbRKNS_17__normal_iteratorIT_T0_EESE_ = comdat any

$_ZNK9__gnu_cxx17__normal_iteratorIPKcNSt7__cxx1112basic_stringIcSt11char_traitsIcESaIcEEEEdeEv = comdat any

$_ZN3fmt2v68internal9max_valueIcEET_v = comdat any

$_ZN9__gnu_cxx17__normal_iteratorIPKcNSt7__cxx1112basic_stringIcSt11char_traitsIcESaIcEEEEppEv = comdat any

$_ZN9__gnu_cxxeqIPKcNSt7__cxx1112basic_stringIcSt11char_traitsIcESaIcEEEEEbRKNS_17__normal_iteratorIT_T0_EESE_ = comdat any

$_ZN3fmt2v68internal12basic_writerINS0_12buffer_rangeIcEEE9write_intINS5_10int_writerIiNS0_18basic_format_specsIcEEE10num_writerEEEviNS0_17basic_string_viewIcEES9_T_ = comdat any

$_ZN9__gnu_cxx17__normal_iteratorIPKcNSt7__cxx1112basic_stringIcSt11char_traitsIcESaIcEEEEC2ERKS2_ = comdat any

$_ZNK9__gnu_cxx17__normal_iteratorIPKcNSt7__cxx1112basic_stringIcSt11char_traitsIcESaIcEEEE4baseEv = comdat any

$_ZNSt14numeric_limitsIcE3maxEv = comdat any

$_ZN3fmt2v68internal12basic_writerINS0_12buffer_rangeIcEEE12write_paddedINS5_17padded_int_writerINS5_10int_writerIiNS0_18basic_format_specsIcEEE10num_writerEEEEEvRKSA_OT_ = comdat any

$_ZNK3fmt2v68internal12basic_writerINS0_12buffer_rangeIcEEE17padded_int_writerINS5_10int_writerIiNS0_18basic_format_specsIcEEE10num_writerEE4sizeEv = comdat any

$_ZNK3fmt2v68internal12basic_writerINS0_12buffer_rangeIcEEE17padded_int_writerINS5_10int_writerIiNS0_18basic_format_specsIcEEE10num_writerEE5widthEv = comdat any

$_ZNK3fmt2v68internal12basic_writerINS0_12buffer_rangeIcEEE17padded_int_writerINS5_10int_writerIiNS0_18basic_format_specsIcEEE10num_writerEEclIPcEEvOT_ = comdat any

$_ZNK3fmt2v68internal12basic_writerINS0_12buffer_rangeIcEEE17padded_int_writerINS5_10int_writerIiNS0_18basic_format_specsIcEEE10num_writerEEclIRPcEEvOT_ = comdat any

$_ZNK3fmt2v68internal12basic_writerINS0_12buffer_rangeIcEEE10int_writerIiNS0_18basic_format_specsIcEEE10num_writerclIRPcEEvOT_ = comdat any

$_ZN3fmt2v68internal14format_decimalIcjPcZNKS1_12basic_writerINS0_12buffer_rangeIcEEE10int_writerIiNS0_18basic_format_specsIcEEE10num_writerclIRS3_EEvOT_EUlSE_E_EET1_SI_T0_iT2_ = comdat any

$_ZN3fmt2v68internal14format_decimalIjcZNKS1_12basic_writerINS0_12buffer_rangeIcEEE10int_writerIiNS0_18basic_format_specsIcEEE10num_writerclIRPcEEvOT_EUlSE_E_EEPT0_SJ_SF_iT1_ = comdat any

$_ZZNK3fmt2v68internal12basic_writerINS0_12buffer_rangeIcEEE10int_writerIiNS0_18basic_format_specsIcEEE10num_writerclIRPcEEvOT_ENKUlSD_E_clESD_ = comdat any

$_ZNK9__gnu_cxx17__normal_iteratorIPKcNSt7__cxx1112basic_stringIcSt11char_traitsIcESaIcEEEEplEl = comdat any

$_ZSt18uninitialized_copyIPKcPcET0_T_S4_S3_ = comdat any

$_ZNSt20__uninitialized_copyILb1EE13__uninit_copyIPKcPcEET0_T_S6_S5_ = comdat any

$_ZN3fmt2v612format_errorC2EPKc = comdat any

$_ZN3fmt2v68internal11is_negativeIiTnNSt9enable_ifIXsr3std14numeric_limitsIT_EE9is_signedEiE4typeELi0EEEbS4_ = comdat any

$_ZN3fmt2v68internal12basic_writerINS0_12buffer_rangeIcEEE13write_decimalIiEEvT_ = comdat any

$_ZNK3fmt2v68internal12basic_writerINS0_12buffer_rangeIcEEE3outEv = comdat any

$_ZN3fmt2v68internal12basic_writerINS0_12buffer_rangeIcEEE9write_intIjNS0_18basic_format_specsIcEEEEvT_RKT0_ = comdat any

$_ZN3fmt2v68internal12basic_writerINS0_12buffer_rangeIcEEE5writeEj = comdat any

$_ZN3fmt2v68internal20handle_int_type_specINS1_12basic_writerINS0_12buffer_rangeIcEEE10int_writerIjNS0_18basic_format_specsIcEEEEEEvcOT_ = comdat any

$_ZN3fmt2v68internal12basic_writerINS0_12buffer_rangeIcEEE10int_writerIjNS0_18basic_format_specsIcEEEC2ERS5_jRKS8_ = comdat any

$_ZN3fmt2v68internal12basic_writerINS0_12buffer_rangeIcEEE10int_writerIjNS0_18basic_format_specsIcEEE6on_decEv = comdat any

$_ZN3fmt2v68internal12basic_writerINS0_12buffer_rangeIcEEE10int_writerIjNS0_18basic_format_specsIcEEE6on_hexEv = comdat any

$_ZN3fmt2v68internal12basic_writerINS0_12buffer_rangeIcEEE10int_writerIjNS0_18basic_format_specsIcEEE6on_binEv = comdat any

$_ZN3fmt2v68internal12basic_writerINS0_12buffer_rangeIcEEE10int_writerIjNS0_18basic_format_specsIcEEE6on_octEv = comdat any

$_ZN3fmt2v68internal12basic_writerINS0_12buffer_rangeIcEEE10int_writerIjNS0_18basic_format_specsIcEEE6on_numEv = comdat any

$_ZN3fmt2v68internal12basic_writerINS0_12buffer_rangeIcEEE10int_writerIjNS0_18basic_format_specsIcEEE8on_errorEv = comdat any

$_ZN3fmt2v68internal12basic_writerINS0_12buffer_rangeIcEEE9write_intINS5_10int_writerIjNS0_18basic_format_specsIcEEE10dec_writerEEEviNS0_17basic_string_viewIcEES9_T_ = comdat any

$_ZNK3fmt2v68internal12basic_writerINS0_12buffer_rangeIcEEE10int_writerIjNS0_18basic_format_specsIcEEE10get_prefixEv = comdat any

$_ZN3fmt2v68internal12basic_writerINS0_12buffer_rangeIcEEE12write_paddedINS5_17padded_int_writerINS5_10int_writerIjNS0_18basic_format_specsIcEEE10dec_writerEEEEEvRKSA_OT_ = comdat any

$_ZNK3fmt2v68internal12basic_writerINS0_12buffer_rangeIcEEE17padded_int_writerINS5_10int_writerIjNS0_18basic_format_specsIcEEE10dec_writerEE4sizeEv = comdat any

$_ZNK3fmt2v68internal12basic_writerINS0_12buffer_rangeIcEEE17padded_int_writerINS5_10int_writerIjNS0_18basic_format_specsIcEEE10dec_writerEE5widthEv = comdat any

$_ZNK3fmt2v68internal12basic_writerINS0_12buffer_rangeIcEEE17padded_int_writerINS5_10int_writerIjNS0_18basic_format_specsIcEEE10dec_writerEEclIPcEEvOT_ = comdat any

$_ZNK3fmt2v68internal12basic_writerINS0_12buffer_rangeIcEEE17padded_int_writerINS5_10int_writerIjNS0_18basic_format_specsIcEEE10dec_writerEEclIRPcEEvOT_ = comdat any

$_ZNK3fmt2v68internal12basic_writerINS0_12buffer_rangeIcEEE10int_writerIjNS0_18basic_format_specsIcEEE10dec_writerclIRPcEEvOT_ = comdat any

$_ZN3fmt2v68internal12basic_writerINS0_12buffer_rangeIcEEE9write_intINS5_10int_writerIjNS0_18basic_format_specsIcEEE10hex_writerEEEviNS0_17basic_string_viewIcEES9_T_ = comdat any

$_ZN3fmt2v68internal12basic_writerINS0_12buffer_rangeIcEEE12write_paddedINS5_17padded_int_writerINS5_10int_writerIjNS0_18basic_format_specsIcEEE10hex_writerEEEEEvRKSA_OT_ = comdat any

$_ZNK3fmt2v68internal12basic_writerINS0_12buffer_rangeIcEEE17padded_int_writerINS5_10int_writerIjNS0_18basic_format_specsIcEEE10hex_writerEE4sizeEv = comdat any

$_ZNK3fmt2v68internal12basic_writerINS0_12buffer_rangeIcEEE17padded_int_writerINS5_10int_writerIjNS0_18basic_format_specsIcEEE10hex_writerEE5widthEv = comdat any

$_ZNK3fmt2v68internal12basic_writerINS0_12buffer_rangeIcEEE17padded_int_writerINS5_10int_writerIjNS0_18basic_format_specsIcEEE10hex_writerEEclIPcEEvOT_ = comdat any

$_ZNK3fmt2v68internal12basic_writerINS0_12buffer_rangeIcEEE17padded_int_writerINS5_10int_writerIjNS0_18basic_format_specsIcEEE10hex_writerEEclIRPcEEvOT_ = comdat any

$_ZNK3fmt2v68internal12basic_writerINS0_12buffer_rangeIcEEE10int_writerIjNS0_18basic_format_specsIcEEE10hex_writerclIRPcEEvOT_ = comdat any

$_ZN3fmt2v68internal12basic_writerINS0_12buffer_rangeIcEEE9write_intINS5_10int_writerIjNS0_18basic_format_specsIcEEE10bin_writerILi1EEEEEviNS0_17basic_string_viewIcEES9_T_ = comdat any

$_ZN3fmt2v68internal12basic_writerINS0_12buffer_rangeIcEEE12write_paddedINS5_17padded_int_writerINS5_10int_writerIjNS0_18basic_format_specsIcEEE10bin_writerILi1EEEEEEEvRKSA_OT_ = comdat any

$_ZNK3fmt2v68internal12basic_writerINS0_12buffer_rangeIcEEE17padded_int_writerINS5_10int_writerIjNS0_18basic_format_specsIcEEE10bin_writerILi1EEEE4sizeEv = comdat any

$_ZNK3fmt2v68internal12basic_writerINS0_12buffer_rangeIcEEE17padded_int_writerINS5_10int_writerIjNS0_18basic_format_specsIcEEE10bin_writerILi1EEEE5widthEv = comdat any

$_ZNK3fmt2v68internal12basic_writerINS0_12buffer_rangeIcEEE17padded_int_writerINS5_10int_writerIjNS0_18basic_format_specsIcEEE10bin_writerILi1EEEEclIPcEEvOT_ = comdat any

$_ZNK3fmt2v68internal12basic_writerINS0_12buffer_rangeIcEEE17padded_int_writerINS5_10int_writerIjNS0_18basic_format_specsIcEEE10bin_writerILi1EEEEclIRPcEEvOT_ = comdat any

$_ZNK3fmt2v68internal12basic_writerINS0_12buffer_rangeIcEEE10int_writerIjNS0_18basic_format_specsIcEEE10bin_writerILi1EEclIRPcEEvOT_ = comdat any

$_ZN3fmt2v68internal12basic_writerINS0_12buffer_rangeIcEEE9write_intINS5_10int_writerIjNS0_18basic_format_specsIcEEE10bin_writerILi3EEEEEviNS0_17basic_string_viewIcEES9_T_ = comdat any

$_ZN3fmt2v68internal12basic_writerINS0_12buffer_rangeIcEEE12write_paddedINS5_17padded_int_writerINS5_10int_writerIjNS0_18basic_format_specsIcEEE10bin_writerILi3EEEEEEEvRKSA_OT_ = comdat any

$_ZNK3fmt2v68internal12basic_writerINS0_12buffer_rangeIcEEE17padded_int_writerINS5_10int_writerIjNS0_18basic_format_specsIcEEE10bin_writerILi3EEEE4sizeEv = comdat any

$_ZNK3fmt2v68internal12basic_writerINS0_12buffer_rangeIcEEE17padded_int_writerINS5_10int_writerIjNS0_18basic_format_specsIcEEE10bin_writerILi3EEEE5widthEv = comdat any

$_ZNK3fmt2v68internal12basic_writerINS0_12buffer_rangeIcEEE17padded_int_writerINS5_10int_writerIjNS0_18basic_format_specsIcEEE10bin_writerILi3EEEEclIPcEEvOT_ = comdat any

$_ZNK3fmt2v68internal12basic_writerINS0_12buffer_rangeIcEEE17padded_int_writerINS5_10int_writerIjNS0_18basic_format_specsIcEEE10bin_writerILi3EEEEclIRPcEEvOT_ = comdat any

$_ZNK3fmt2v68internal12basic_writerINS0_12buffer_rangeIcEEE10int_writerIjNS0_18basic_format_specsIcEEE10bin_writerILi3EEclIRPcEEvOT_ = comdat any

$_ZN3fmt2v68internal12basic_writerINS0_12buffer_rangeIcEEE9write_intINS5_10int_writerIjNS0_18basic_format_specsIcEEE10num_writerEEEviNS0_17basic_string_viewIcEES9_T_ = comdat any

$_ZN3fmt2v68internal12basic_writerINS0_12buffer_rangeIcEEE12write_paddedINS5_17padded_int_writerINS5_10int_writerIjNS0_18basic_format_specsIcEEE10num_writerEEEEEvRKSA_OT_ = comdat any

$_ZNK3fmt2v68internal12basic_writerINS0_12buffer_rangeIcEEE17padded_int_writerINS5_10int_writerIjNS0_18basic_format_specsIcEEE10num_writerEE4sizeEv = comdat any

$_ZNK3fmt2v68internal12basic_writerINS0_12buffer_rangeIcEEE17padded_int_writerINS5_10int_writerIjNS0_18basic_format_specsIcEEE10num_writerEE5widthEv = comdat any

$_ZNK3fmt2v68internal12basic_writerINS0_12buffer_rangeIcEEE17padded_int_writerINS5_10int_writerIjNS0_18basic_format_specsIcEEE10num_writerEEclIPcEEvOT_ = comdat any

$_ZNK3fmt2v68internal12basic_writerINS0_12buffer_rangeIcEEE17padded_int_writerINS5_10int_writerIjNS0_18basic_format_specsIcEEE10num_writerEEclIRPcEEvOT_ = comdat any

$_ZNK3fmt2v68internal12basic_writerINS0_12buffer_rangeIcEEE10int_writerIjNS0_18basic_format_specsIcEEE10num_writerclIRPcEEvOT_ = comdat any

$_ZN3fmt2v68internal14format_decimalIcjPcZNKS1_12basic_writerINS0_12buffer_rangeIcEEE10int_writerIjNS0_18basic_format_specsIcEEE10num_writerclIRS3_EEvOT_EUlSE_E_EET1_SI_T0_iT2_ = comdat any

$_ZN3fmt2v68internal14format_decimalIjcZNKS1_12basic_writerINS0_12buffer_rangeIcEEE10int_writerIjNS0_18basic_format_specsIcEEE10num_writerclIRPcEEvOT_EUlSE_E_EEPT0_SJ_SF_iT1_ = comdat any

$_ZZNK3fmt2v68internal12basic_writerINS0_12buffer_rangeIcEEE10int_writerIjNS0_18basic_format_specsIcEEE10num_writerclIRPcEEvOT_ENKUlSD_E_clESD_ = comdat any

$_ZN3fmt2v68internal11is_negativeIjTnNSt9enable_ifIXntsr3std14numeric_limitsIT_EE9is_signedEiE4typeELi0EEEbS4_ = comdat any

$_ZN3fmt2v68internal12basic_writerINS0_12buffer_rangeIcEEE13write_decimalIjEEvT_ = comdat any

$_ZN3fmt2v68internal12basic_writerINS0_12buffer_rangeIcEEE9write_intIxNS0_18basic_format_specsIcEEEEvT_RKT0_ = comdat any

$_ZN3fmt2v68internal12basic_writerINS0_12buffer_rangeIcEEE5writeEx = comdat any

$_ZN3fmt2v68internal20handle_int_type_specINS1_12basic_writerINS0_12buffer_rangeIcEEE10int_writerIxNS0_18basic_format_specsIcEEEEEEvcOT_ = comdat any

$_ZN3fmt2v68internal12basic_writerINS0_12buffer_rangeIcEEE10int_writerIxNS0_18basic_format_specsIcEEEC2ERS5_xRKS8_ = comdat any

$_ZN3fmt2v68internal12basic_writerINS0_12buffer_rangeIcEEE10int_writerIxNS0_18basic_format_specsIcEEE6on_decEv = comdat any

$_ZN3fmt2v68internal12basic_writerINS0_12buffer_rangeIcEEE10int_writerIxNS0_18basic_format_specsIcEEE6on_hexEv = comdat any

$_ZN3fmt2v68internal12basic_writerINS0_12buffer_rangeIcEEE10int_writerIxNS0_18basic_format_specsIcEEE6on_binEv = comdat any

$_ZN3fmt2v68internal12basic_writerINS0_12buffer_rangeIcEEE10int_writerIxNS0_18basic_format_specsIcEEE6on_octEv = comdat any

$_ZN3fmt2v68internal12basic_writerINS0_12buffer_rangeIcEEE10int_writerIxNS0_18basic_format_specsIcEEE6on_numEv = comdat any

$_ZN3fmt2v68internal12basic_writerINS0_12buffer_rangeIcEEE10int_writerIxNS0_18basic_format_specsIcEEE8on_errorEv = comdat any

$_ZN3fmt2v68internal12count_digitsEm = comdat any

$_ZN3fmt2v68internal12basic_writerINS0_12buffer_rangeIcEEE9write_intINS5_10int_writerIxNS0_18basic_format_specsIcEEE10dec_writerEEEviNS0_17basic_string_viewIcEES9_T_ = comdat any

$_ZNK3fmt2v68internal12basic_writerINS0_12buffer_rangeIcEEE10int_writerIxNS0_18basic_format_specsIcEEE10get_prefixEv = comdat any

$_ZN3fmt2v68internal12basic_writerINS0_12buffer_rangeIcEEE12write_paddedINS5_17padded_int_writerINS5_10int_writerIxNS0_18basic_format_specsIcEEE10dec_writerEEEEEvRKSA_OT_ = comdat any

$_ZNK3fmt2v68internal12basic_writerINS0_12buffer_rangeIcEEE17padded_int_writerINS5_10int_writerIxNS0_18basic_format_specsIcEEE10dec_writerEE4sizeEv = comdat any

$_ZNK3fmt2v68internal12basic_writerINS0_12buffer_rangeIcEEE17padded_int_writerINS5_10int_writerIxNS0_18basic_format_specsIcEEE10dec_writerEE5widthEv = comdat any

$_ZNK3fmt2v68internal12basic_writerINS0_12buffer_rangeIcEEE17padded_int_writerINS5_10int_writerIxNS0_18basic_format_specsIcEEE10dec_writerEEclIPcEEvOT_ = comdat any

$_ZNK3fmt2v68internal12basic_writerINS0_12buffer_rangeIcEEE17padded_int_writerINS5_10int_writerIxNS0_18basic_format_specsIcEEE10dec_writerEEclIRPcEEvOT_ = comdat any

$_ZNK3fmt2v68internal12basic_writerINS0_12buffer_rangeIcEEE10int_writerIxNS0_18basic_format_specsIcEEE10dec_writerclIRPcEEvOT_ = comdat any

$_ZN3fmt2v68internal14format_decimalIcPcmEET0_S4_T1_i = comdat any

$_ZN3fmt2v68internal14format_decimalIcmPcZNS1_14format_decimalIcS3_mEET0_S5_T1_iEUlS3_E_EES6_S6_S5_iT2_ = comdat any

$_ZN3fmt2v68internal14format_decimalImcZNS1_14format_decimalIcPcmEET0_S5_T1_iEUlS4_E_EEPS5_S8_T_iS6_ = comdat any

$_ZZN3fmt2v68internal14format_decimalIcPcmEET0_S4_T1_iENKUlS3_E_clES3_ = comdat any

$_ZN3fmt2v68internal12count_digitsILj4EmEEiT0_ = comdat any

$_ZN3fmt2v68internal12basic_writerINS0_12buffer_rangeIcEEE9write_intINS5_10int_writerIxNS0_18basic_format_specsIcEEE10hex_writerEEEviNS0_17basic_string_viewIcEES9_T_ = comdat any

$_ZN3fmt2v68internal12basic_writerINS0_12buffer_rangeIcEEE12write_paddedINS5_17padded_int_writerINS5_10int_writerIxNS0_18basic_format_specsIcEEE10hex_writerEEEEEvRKSA_OT_ = comdat any

$_ZNK3fmt2v68internal12basic_writerINS0_12buffer_rangeIcEEE17padded_int_writerINS5_10int_writerIxNS0_18basic_format_specsIcEEE10hex_writerEE4sizeEv = comdat any

$_ZNK3fmt2v68internal12basic_writerINS0_12buffer_rangeIcEEE17padded_int_writerINS5_10int_writerIxNS0_18basic_format_specsIcEEE10hex_writerEE5widthEv = comdat any

$_ZNK3fmt2v68internal12basic_writerINS0_12buffer_rangeIcEEE17padded_int_writerINS5_10int_writerIxNS0_18basic_format_specsIcEEE10hex_writerEEclIPcEEvOT_ = comdat any

$_ZNK3fmt2v68internal12basic_writerINS0_12buffer_rangeIcEEE17padded_int_writerINS5_10int_writerIxNS0_18basic_format_specsIcEEE10hex_writerEEclIRPcEEvOT_ = comdat any

$_ZNK3fmt2v68internal12basic_writerINS0_12buffer_rangeIcEEE10int_writerIxNS0_18basic_format_specsIcEEE10hex_writerclIRPcEEvOT_ = comdat any

$_ZN3fmt2v68internal11format_uintILj4EcmEEPT0_S4_T1_ib = comdat any

$_ZN3fmt2v68internal12count_digitsILj1EmEEiT0_ = comdat any

$_ZN3fmt2v68internal12basic_writerINS0_12buffer_rangeIcEEE9write_intINS5_10int_writerIxNS0_18basic_format_specsIcEEE10bin_writerILi1EEEEEviNS0_17basic_string_viewIcEES9_T_ = comdat any

$_ZN3fmt2v68internal12basic_writerINS0_12buffer_rangeIcEEE12write_paddedINS5_17padded_int_writerINS5_10int_writerIxNS0_18basic_format_specsIcEEE10bin_writerILi1EEEEEEEvRKSA_OT_ = comdat any

$_ZNK3fmt2v68internal12basic_writerINS0_12buffer_rangeIcEEE17padded_int_writerINS5_10int_writerIxNS0_18basic_format_specsIcEEE10bin_writerILi1EEEE4sizeEv = comdat any

$_ZNK3fmt2v68internal12basic_writerINS0_12buffer_rangeIcEEE17padded_int_writerINS5_10int_writerIxNS0_18basic_format_specsIcEEE10bin_writerILi1EEEE5widthEv = comdat any

$_ZNK3fmt2v68internal12basic_writerINS0_12buffer_rangeIcEEE17padded_int_writerINS5_10int_writerIxNS0_18basic_format_specsIcEEE10bin_writerILi1EEEEclIPcEEvOT_ = comdat any

$_ZNK3fmt2v68internal12basic_writerINS0_12buffer_rangeIcEEE17padded_int_writerINS5_10int_writerIxNS0_18basic_format_specsIcEEE10bin_writerILi1EEEEclIRPcEEvOT_ = comdat any

$_ZNK3fmt2v68internal12basic_writerINS0_12buffer_rangeIcEEE10int_writerIxNS0_18basic_format_specsIcEEE10bin_writerILi1EEclIRPcEEvOT_ = comdat any

$_ZN3fmt2v68internal11format_uintILj1EcmEEPT0_S4_T1_ib = comdat any

$_ZN3fmt2v68internal12count_digitsILj3EmEEiT0_ = comdat any

$_ZN3fmt2v68internal12basic_writerINS0_12buffer_rangeIcEEE9write_intINS5_10int_writerIxNS0_18basic_format_specsIcEEE10bin_writerILi3EEEEEviNS0_17basic_string_viewIcEES9_T_ = comdat any

$_ZN3fmt2v68internal12basic_writerINS0_12buffer_rangeIcEEE12write_paddedINS5_17padded_int_writerINS5_10int_writerIxNS0_18basic_format_specsIcEEE10bin_writerILi3EEEEEEEvRKSA_OT_ = comdat any

$_ZNK3fmt2v68internal12basic_writerINS0_12buffer_rangeIcEEE17padded_int_writerINS5_10int_writerIxNS0_18basic_format_specsIcEEE10bin_writerILi3EEEE4sizeEv = comdat any

$_ZNK3fmt2v68internal12basic_writerINS0_12buffer_rangeIcEEE17padded_int_writerINS5_10int_writerIxNS0_18basic_format_specsIcEEE10bin_writerILi3EEEE5widthEv = comdat any

$_ZNK3fmt2v68internal12basic_writerINS0_12buffer_rangeIcEEE17padded_int_writerINS5_10int_writerIxNS0_18basic_format_specsIcEEE10bin_writerILi3EEEEclIPcEEvOT_ = comdat any

$_ZNK3fmt2v68internal12basic_writerINS0_12buffer_rangeIcEEE17padded_int_writerINS5_10int_writerIxNS0_18basic_format_specsIcEEE10bin_writerILi3EEEEclIRPcEEvOT_ = comdat any

$_ZNK3fmt2v68internal12basic_writerINS0_12buffer_rangeIcEEE10int_writerIxNS0_18basic_format_specsIcEEE10bin_writerILi3EEclIRPcEEvOT_ = comdat any

$_ZN3fmt2v68internal11format_uintILj3EcmEEPT0_S4_T1_ib = comdat any

$_ZN3fmt2v68internal12basic_writerINS0_12buffer_rangeIcEEE9write_intINS5_10int_writerIxNS0_18basic_format_specsIcEEE10num_writerEEEviNS0_17basic_string_viewIcEES9_T_ = comdat any

$_ZN3fmt2v68internal12basic_writerINS0_12buffer_rangeIcEEE12write_paddedINS5_17padded_int_writerINS5_10int_writerIxNS0_18basic_format_specsIcEEE10num_writerEEEEEvRKSA_OT_ = comdat any

$_ZNK3fmt2v68internal12basic_writerINS0_12buffer_rangeIcEEE17padded_int_writerINS5_10int_writerIxNS0_18basic_format_specsIcEEE10num_writerEE4sizeEv = comdat any

$_ZNK3fmt2v68internal12basic_writerINS0_12buffer_rangeIcEEE17padded_int_writerINS5_10int_writerIxNS0_18basic_format_specsIcEEE10num_writerEE5widthEv = comdat any

$_ZNK3fmt2v68internal12basic_writerINS0_12buffer_rangeIcEEE17padded_int_writerINS5_10int_writerIxNS0_18basic_format_specsIcEEE10num_writerEEclIPcEEvOT_ = comdat any

$_ZNK3fmt2v68internal12basic_writerINS0_12buffer_rangeIcEEE17padded_int_writerINS5_10int_writerIxNS0_18basic_format_specsIcEEE10num_writerEEclIRPcEEvOT_ = comdat any

$_ZNK3fmt2v68internal12basic_writerINS0_12buffer_rangeIcEEE10int_writerIxNS0_18basic_format_specsIcEEE10num_writerclIRPcEEvOT_ = comdat any

$_ZN3fmt2v68internal14format_decimalIcmPcZNKS1_12basic_writerINS0_12buffer_rangeIcEEE10int_writerIxNS0_18basic_format_specsIcEEE10num_writerclIRS3_EEvOT_EUlSE_E_EET1_SI_T0_iT2_ = comdat any

$_ZN3fmt2v68internal14format_decimalImcZNKS1_12basic_writerINS0_12buffer_rangeIcEEE10int_writerIxNS0_18basic_format_specsIcEEE10num_writerclIRPcEEvOT_EUlSE_E_EEPT0_SJ_SF_iT1_ = comdat any

$_ZZNK3fmt2v68internal12basic_writerINS0_12buffer_rangeIcEEE10int_writerIxNS0_18basic_format_specsIcEEE10num_writerclIRPcEEvOT_ENKUlSD_E_clESD_ = comdat any

$_ZN3fmt2v68internal11is_negativeIxTnNSt9enable_ifIXsr3std14numeric_limitsIT_EE9is_signedEiE4typeELi0EEEbS4_ = comdat any

$_ZN3fmt2v68internal12basic_writerINS0_12buffer_rangeIcEEE13write_decimalIxEEvT_ = comdat any

$_ZN3fmt2v68internal12basic_writerINS0_12buffer_rangeIcEEE9write_intIyNS0_18basic_format_specsIcEEEEvT_RKT0_ = comdat any

$_ZN3fmt2v68internal12basic_writerINS0_12buffer_rangeIcEEE5writeEy = comdat any

$_ZN3fmt2v68internal20handle_int_type_specINS1_12basic_writerINS0_12buffer_rangeIcEEE10int_writerIyNS0_18basic_format_specsIcEEEEEEvcOT_ = comdat any

$_ZN3fmt2v68internal12basic_writerINS0_12buffer_rangeIcEEE10int_writerIyNS0_18basic_format_specsIcEEEC2ERS5_yRKS8_ = comdat any

$_ZN3fmt2v68internal12basic_writerINS0_12buffer_rangeIcEEE10int_writerIyNS0_18basic_format_specsIcEEE6on_decEv = comdat any

$_ZN3fmt2v68internal12basic_writerINS0_12buffer_rangeIcEEE10int_writerIyNS0_18basic_format_specsIcEEE6on_hexEv = comdat any

$_ZN3fmt2v68internal12basic_writerINS0_12buffer_rangeIcEEE10int_writerIyNS0_18basic_format_specsIcEEE6on_binEv = comdat any

$_ZN3fmt2v68internal12basic_writerINS0_12buffer_rangeIcEEE10int_writerIyNS0_18basic_format_specsIcEEE6on_octEv = comdat any

$_ZN3fmt2v68internal12basic_writerINS0_12buffer_rangeIcEEE10int_writerIyNS0_18basic_format_specsIcEEE6on_numEv = comdat any

$_ZN3fmt2v68internal12basic_writerINS0_12buffer_rangeIcEEE10int_writerIyNS0_18basic_format_specsIcEEE8on_errorEv = comdat any

$_ZN3fmt2v68internal12basic_writerINS0_12buffer_rangeIcEEE9write_intINS5_10int_writerIyNS0_18basic_format_specsIcEEE10dec_writerEEEviNS0_17basic_string_viewIcEES9_T_ = comdat any

$_ZNK3fmt2v68internal12basic_writerINS0_12buffer_rangeIcEEE10int_writerIyNS0_18basic_format_specsIcEEE10get_prefixEv = comdat any

$_ZN3fmt2v68internal12basic_writerINS0_12buffer_rangeIcEEE12write_paddedINS5_17padded_int_writerINS5_10int_writerIyNS0_18basic_format_specsIcEEE10dec_writerEEEEEvRKSA_OT_ = comdat any

$_ZNK3fmt2v68internal12basic_writerINS0_12buffer_rangeIcEEE17padded_int_writerINS5_10int_writerIyNS0_18basic_format_specsIcEEE10dec_writerEE4sizeEv = comdat any

$_ZNK3fmt2v68internal12basic_writerINS0_12buffer_rangeIcEEE17padded_int_writerINS5_10int_writerIyNS0_18basic_format_specsIcEEE10dec_writerEE5widthEv = comdat any

$_ZNK3fmt2v68internal12basic_writerINS0_12buffer_rangeIcEEE17padded_int_writerINS5_10int_writerIyNS0_18basic_format_specsIcEEE10dec_writerEEclIPcEEvOT_ = comdat any

$_ZNK3fmt2v68internal12basic_writerINS0_12buffer_rangeIcEEE17padded_int_writerINS5_10int_writerIyNS0_18basic_format_specsIcEEE10dec_writerEEclIRPcEEvOT_ = comdat any

$_ZNK3fmt2v68internal12basic_writerINS0_12buffer_rangeIcEEE10int_writerIyNS0_18basic_format_specsIcEEE10dec_writerclIRPcEEvOT_ = comdat any

$_ZN3fmt2v68internal12basic_writerINS0_12buffer_rangeIcEEE9write_intINS5_10int_writerIyNS0_18basic_format_specsIcEEE10hex_writerEEEviNS0_17basic_string_viewIcEES9_T_ = comdat any

$_ZN3fmt2v68internal12basic_writerINS0_12buffer_rangeIcEEE12write_paddedINS5_17padded_int_writerINS5_10int_writerIyNS0_18basic_format_specsIcEEE10hex_writerEEEEEvRKSA_OT_ = comdat any

$_ZNK3fmt2v68internal12basic_writerINS0_12buffer_rangeIcEEE17padded_int_writerINS5_10int_writerIyNS0_18basic_format_specsIcEEE10hex_writerEE4sizeEv = comdat any

$_ZNK3fmt2v68internal12basic_writerINS0_12buffer_rangeIcEEE17padded_int_writerINS5_10int_writerIyNS0_18basic_format_specsIcEEE10hex_writerEE5widthEv = comdat any

$_ZNK3fmt2v68internal12basic_writerINS0_12buffer_rangeIcEEE17padded_int_writerINS5_10int_writerIyNS0_18basic_format_specsIcEEE10hex_writerEEclIPcEEvOT_ = comdat any

$_ZNK3fmt2v68internal12basic_writerINS0_12buffer_rangeIcEEE17padded_int_writerINS5_10int_writerIyNS0_18basic_format_specsIcEEE10hex_writerEEclIRPcEEvOT_ = comdat any

$_ZNK3fmt2v68internal12basic_writerINS0_12buffer_rangeIcEEE10int_writerIyNS0_18basic_format_specsIcEEE10hex_writerclIRPcEEvOT_ = comdat any

$_ZN3fmt2v68internal12basic_writerINS0_12buffer_rangeIcEEE9write_intINS5_10int_writerIyNS0_18basic_format_specsIcEEE10bin_writerILi1EEEEEviNS0_17basic_string_viewIcEES9_T_ = comdat any

$_ZN3fmt2v68internal12basic_writerINS0_12buffer_rangeIcEEE12write_paddedINS5_17padded_int_writerINS5_10int_writerIyNS0_18basic_format_specsIcEEE10bin_writerILi1EEEEEEEvRKSA_OT_ = comdat any

$_ZNK3fmt2v68internal12basic_writerINS0_12buffer_rangeIcEEE17padded_int_writerINS5_10int_writerIyNS0_18basic_format_specsIcEEE10bin_writerILi1EEEE4sizeEv = comdat any

$_ZNK3fmt2v68internal12basic_writerINS0_12buffer_rangeIcEEE17padded_int_writerINS5_10int_writerIyNS0_18basic_format_specsIcEEE10bin_writerILi1EEEE5widthEv = comdat any

$_ZNK3fmt2v68internal12basic_writerINS0_12buffer_rangeIcEEE17padded_int_writerINS5_10int_writerIyNS0_18basic_format_specsIcEEE10bin_writerILi1EEEEclIPcEEvOT_ = comdat any

$_ZNK3fmt2v68internal12basic_writerINS0_12buffer_rangeIcEEE17padded_int_writerINS5_10int_writerIyNS0_18basic_format_specsIcEEE10bin_writerILi1EEEEclIRPcEEvOT_ = comdat any

$_ZNK3fmt2v68internal12basic_writerINS0_12buffer_rangeIcEEE10int_writerIyNS0_18basic_format_specsIcEEE10bin_writerILi1EEclIRPcEEvOT_ = comdat any

$_ZN3fmt2v68internal12basic_writerINS0_12buffer_rangeIcEEE9write_intINS5_10int_writerIyNS0_18basic_format_specsIcEEE10bin_writerILi3EEEEEviNS0_17basic_string_viewIcEES9_T_ = comdat any

$_ZN3fmt2v68internal12basic_writerINS0_12buffer_rangeIcEEE12write_paddedINS5_17padded_int_writerINS5_10int_writerIyNS0_18basic_format_specsIcEEE10bin_writerILi3EEEEEEEvRKSA_OT_ = comdat any

$_ZNK3fmt2v68internal12basic_writerINS0_12buffer_rangeIcEEE17padded_int_writerINS5_10int_writerIyNS0_18basic_format_specsIcEEE10bin_writerILi3EEEE4sizeEv = comdat any

$_ZNK3fmt2v68internal12basic_writerINS0_12buffer_rangeIcEEE17padded_int_writerINS5_10int_writerIyNS0_18basic_format_specsIcEEE10bin_writerILi3EEEE5widthEv = comdat any

$_ZNK3fmt2v68internal12basic_writerINS0_12buffer_rangeIcEEE17padded_int_writerINS5_10int_writerIyNS0_18basic_format_specsIcEEE10bin_writerILi3EEEEclIPcEEvOT_ = comdat any

$_ZNK3fmt2v68internal12basic_writerINS0_12buffer_rangeIcEEE17padded_int_writerINS5_10int_writerIyNS0_18basic_format_specsIcEEE10bin_writerILi3EEEEclIRPcEEvOT_ = comdat any

$_ZNK3fmt2v68internal12basic_writerINS0_12buffer_rangeIcEEE10int_writerIyNS0_18basic_format_specsIcEEE10bin_writerILi3EEclIRPcEEvOT_ = comdat any

$_ZN3fmt2v68internal12basic_writerINS0_12buffer_rangeIcEEE9write_intINS5_10int_writerIyNS0_18basic_format_specsIcEEE10num_writerEEEviNS0_17basic_string_viewIcEES9_T_ = comdat any

$_ZN3fmt2v68internal12basic_writerINS0_12buffer_rangeIcEEE12write_paddedINS5_17padded_int_writerINS5_10int_writerIyNS0_18basic_format_specsIcEEE10num_writerEEEEEvRKSA_OT_ = comdat any

$_ZNK3fmt2v68internal12basic_writerINS0_12buffer_rangeIcEEE17padded_int_writerINS5_10int_writerIyNS0_18basic_format_specsIcEEE10num_writerEE4sizeEv = comdat any

$_ZNK3fmt2v68internal12basic_writerINS0_12buffer_rangeIcEEE17padded_int_writerINS5_10int_writerIyNS0_18basic_format_specsIcEEE10num_writerEE5widthEv = comdat any

$_ZNK3fmt2v68internal12basic_writerINS0_12buffer_rangeIcEEE17padded_int_writerINS5_10int_writerIyNS0_18basic_format_specsIcEEE10num_writerEEclIPcEEvOT_ = comdat any

$_ZNK3fmt2v68internal12basic_writerINS0_12buffer_rangeIcEEE17padded_int_writerINS5_10int_writerIyNS0_18basic_format_specsIcEEE10num_writerEEclIRPcEEvOT_ = comdat any

$_ZNK3fmt2v68internal12basic_writerINS0_12buffer_rangeIcEEE10int_writerIyNS0_18basic_format_specsIcEEE10num_writerclIRPcEEvOT_ = comdat any

$_ZN3fmt2v68internal14format_decimalIcmPcZNKS1_12basic_writerINS0_12buffer_rangeIcEEE10int_writerIyNS0_18basic_format_specsIcEEE10num_writerclIRS3_EEvOT_EUlSE_E_EET1_SI_T0_iT2_ = comdat any

$_ZN3fmt2v68internal14format_decimalImcZNKS1_12basic_writerINS0_12buffer_rangeIcEEE10int_writerIyNS0_18basic_format_specsIcEEE10num_writerclIRPcEEvOT_EUlSE_E_EEPT0_SJ_SF_iT1_ = comdat any

$_ZZNK3fmt2v68internal12basic_writerINS0_12buffer_rangeIcEEE10int_writerIyNS0_18basic_format_specsIcEEE10num_writerclIRPcEEvOT_ENKUlSD_E_clESD_ = comdat any

$_ZN3fmt2v68internal11is_negativeIyTnNSt9enable_ifIXntsr3std14numeric_limitsIT_EE9is_signedEiE4typeELi0EEEbS4_ = comdat any

$_ZN3fmt2v68internal12basic_writerINS0_12buffer_rangeIcEEE13write_decimalIyEEvT_ = comdat any

$_ZN3fmt2v68internal12basic_writerINS0_12buffer_rangeIcEEE9write_intInNS0_18basic_format_specsIcEEEEvT_RKT0_ = comdat any

$_ZN3fmt2v68internal12basic_writerINS0_12buffer_rangeIcEEE5writeEn = comdat any

$_ZN3fmt2v68internal20handle_int_type_specINS1_12basic_writerINS0_12buffer_rangeIcEEE10int_writerInNS0_18basic_format_specsIcEEEEEEvcOT_ = comdat any

$_ZN3fmt2v68internal12basic_writerINS0_12buffer_rangeIcEEE10int_writerInNS0_18basic_format_specsIcEEEC2ERS5_nRKS8_ = comdat any

$_ZN3fmt2v68internal12basic_writerINS0_12buffer_rangeIcEEE10int_writerInNS0_18basic_format_specsIcEEE6on_decEv = comdat any

$_ZN3fmt2v68internal12basic_writerINS0_12buffer_rangeIcEEE10int_writerInNS0_18basic_format_specsIcEEE6on_hexEv = comdat any

$_ZN3fmt2v68internal12basic_writerINS0_12buffer_rangeIcEEE10int_writerInNS0_18basic_format_specsIcEEE6on_binEv = comdat any

$_ZN3fmt2v68internal12basic_writerINS0_12buffer_rangeIcEEE10int_writerInNS0_18basic_format_specsIcEEE6on_octEv = comdat any

$_ZN3fmt2v68internal12basic_writerINS0_12buffer_rangeIcEEE10int_writerInNS0_18basic_format_specsIcEEE6on_numEv = comdat any

$_ZN3fmt2v68internal12basic_writerINS0_12buffer_rangeIcEEE10int_writerInNS0_18basic_format_specsIcEEE8on_errorEv = comdat any

$_ZN3fmt2v68internal12count_digitsEo = comdat any

$_ZN3fmt2v68internal12basic_writerINS0_12buffer_rangeIcEEE9write_intINS5_10int_writerInNS0_18basic_format_specsIcEEE10dec_writerEEEviNS0_17basic_string_viewIcEES9_T_ = comdat any

$_ZNK3fmt2v68internal12basic_writerINS0_12buffer_rangeIcEEE10int_writerInNS0_18basic_format_specsIcEEE10get_prefixEv = comdat any

$_ZN3fmt2v68internal12basic_writerINS0_12buffer_rangeIcEEE12write_paddedINS5_17padded_int_writerINS5_10int_writerInNS0_18basic_format_specsIcEEE10dec_writerEEEEEvRKSA_OT_ = comdat any

$_ZNK3fmt2v68internal12basic_writerINS0_12buffer_rangeIcEEE17padded_int_writerINS5_10int_writerInNS0_18basic_format_specsIcEEE10dec_writerEE4sizeEv = comdat any

$_ZNK3fmt2v68internal12basic_writerINS0_12buffer_rangeIcEEE17padded_int_writerINS5_10int_writerInNS0_18basic_format_specsIcEEE10dec_writerEE5widthEv = comdat any

$_ZNK3fmt2v68internal12basic_writerINS0_12buffer_rangeIcEEE17padded_int_writerINS5_10int_writerInNS0_18basic_format_specsIcEEE10dec_writerEEclIPcEEvOT_ = comdat any

$_ZNK3fmt2v68internal12basic_writerINS0_12buffer_rangeIcEEE17padded_int_writerINS5_10int_writerInNS0_18basic_format_specsIcEEE10dec_writerEEclIRPcEEvOT_ = comdat any

$_ZNK3fmt2v68internal12basic_writerINS0_12buffer_rangeIcEEE10int_writerInNS0_18basic_format_specsIcEEE10dec_writerclIRPcEEvOT_ = comdat any

$_ZN3fmt2v68internal14format_decimalIcPcoEET0_S4_T1_i = comdat any

$_ZN3fmt2v68internal14format_decimalIcoPcZNS1_14format_decimalIcS3_oEET0_S5_T1_iEUlS3_E_EES6_S6_S5_iT2_ = comdat any

$_ZN3fmt2v68internal14format_decimalIocZNS1_14format_decimalIcPcoEET0_S5_T1_iEUlS4_E_EEPS5_S8_T_iS6_ = comdat any

$_ZZN3fmt2v68internal14format_decimalIcPcoEET0_S4_T1_iENKUlS3_E_clES3_ = comdat any

$_ZN3fmt2v68internal12count_digitsILj4EoEEiT0_ = comdat any

$_ZN3fmt2v68internal12basic_writerINS0_12buffer_rangeIcEEE9write_intINS5_10int_writerInNS0_18basic_format_specsIcEEE10hex_writerEEEviNS0_17basic_string_viewIcEES9_T_ = comdat any

$_ZN3fmt2v68internal12basic_writerINS0_12buffer_rangeIcEEE12write_paddedINS5_17padded_int_writerINS5_10int_writerInNS0_18basic_format_specsIcEEE10hex_writerEEEEEvRKSA_OT_ = comdat any

$_ZNK3fmt2v68internal12basic_writerINS0_12buffer_rangeIcEEE17padded_int_writerINS5_10int_writerInNS0_18basic_format_specsIcEEE10hex_writerEE4sizeEv = comdat any

$_ZNK3fmt2v68internal12basic_writerINS0_12buffer_rangeIcEEE17padded_int_writerINS5_10int_writerInNS0_18basic_format_specsIcEEE10hex_writerEE5widthEv = comdat any

$_ZNK3fmt2v68internal12basic_writerINS0_12buffer_rangeIcEEE17padded_int_writerINS5_10int_writerInNS0_18basic_format_specsIcEEE10hex_writerEEclIPcEEvOT_ = comdat any

$_ZNK3fmt2v68internal12basic_writerINS0_12buffer_rangeIcEEE17padded_int_writerINS5_10int_writerInNS0_18basic_format_specsIcEEE10hex_writerEEclIRPcEEvOT_ = comdat any

$_ZNK3fmt2v68internal12basic_writerINS0_12buffer_rangeIcEEE10int_writerInNS0_18basic_format_specsIcEEE10hex_writerclIRPcEEvOT_ = comdat any

$_ZN3fmt2v68internal11format_uintILj4EcoEEPT0_S4_T1_ib = comdat any

$_ZN3fmt2v68internal12count_digitsILj1EoEEiT0_ = comdat any

$_ZN3fmt2v68internal12basic_writerINS0_12buffer_rangeIcEEE9write_intINS5_10int_writerInNS0_18basic_format_specsIcEEE10bin_writerILi1EEEEEviNS0_17basic_string_viewIcEES9_T_ = comdat any

$_ZN3fmt2v68internal12basic_writerINS0_12buffer_rangeIcEEE12write_paddedINS5_17padded_int_writerINS5_10int_writerInNS0_18basic_format_specsIcEEE10bin_writerILi1EEEEEEEvRKSA_OT_ = comdat any

$_ZNK3fmt2v68internal12basic_writerINS0_12buffer_rangeIcEEE17padded_int_writerINS5_10int_writerInNS0_18basic_format_specsIcEEE10bin_writerILi1EEEE4sizeEv = comdat any

$_ZNK3fmt2v68internal12basic_writerINS0_12buffer_rangeIcEEE17padded_int_writerINS5_10int_writerInNS0_18basic_format_specsIcEEE10bin_writerILi1EEEE5widthEv = comdat any

$_ZNK3fmt2v68internal12basic_writerINS0_12buffer_rangeIcEEE17padded_int_writerINS5_10int_writerInNS0_18basic_format_specsIcEEE10bin_writerILi1EEEEclIPcEEvOT_ = comdat any

$_ZNK3fmt2v68internal12basic_writerINS0_12buffer_rangeIcEEE17padded_int_writerINS5_10int_writerInNS0_18basic_format_specsIcEEE10bin_writerILi1EEEEclIRPcEEvOT_ = comdat any

$_ZNK3fmt2v68internal12basic_writerINS0_12buffer_rangeIcEEE10int_writerInNS0_18basic_format_specsIcEEE10bin_writerILi1EEclIRPcEEvOT_ = comdat any

$_ZN3fmt2v68internal11format_uintILj1EcoEEPT0_S4_T1_ib = comdat any

$_ZN3fmt2v68internal12count_digitsILj3EoEEiT0_ = comdat any

$_ZN3fmt2v68internal12basic_writerINS0_12buffer_rangeIcEEE9write_intINS5_10int_writerInNS0_18basic_format_specsIcEEE10bin_writerILi3EEEEEviNS0_17basic_string_viewIcEES9_T_ = comdat any

$_ZN3fmt2v68internal12basic_writerINS0_12buffer_rangeIcEEE12write_paddedINS5_17padded_int_writerINS5_10int_writerInNS0_18basic_format_specsIcEEE10bin_writerILi3EEEEEEEvRKSA_OT_ = comdat any

$_ZNK3fmt2v68internal12basic_writerINS0_12buffer_rangeIcEEE17padded_int_writerINS5_10int_writerInNS0_18basic_format_specsIcEEE10bin_writerILi3EEEE4sizeEv = comdat any

$_ZNK3fmt2v68internal12basic_writerINS0_12buffer_rangeIcEEE17padded_int_writerINS5_10int_writerInNS0_18basic_format_specsIcEEE10bin_writerILi3EEEE5widthEv = comdat any

$_ZNK3fmt2v68internal12basic_writerINS0_12buffer_rangeIcEEE17padded_int_writerINS5_10int_writerInNS0_18basic_format_specsIcEEE10bin_writerILi3EEEEclIPcEEvOT_ = comdat any

$_ZNK3fmt2v68internal12basic_writerINS0_12buffer_rangeIcEEE17padded_int_writerINS5_10int_writerInNS0_18basic_format_specsIcEEE10bin_writerILi3EEEEclIRPcEEvOT_ = comdat any

$_ZNK3fmt2v68internal12basic_writerINS0_12buffer_rangeIcEEE10int_writerInNS0_18basic_format_specsIcEEE10bin_writerILi3EEclIRPcEEvOT_ = comdat any

$_ZN3fmt2v68internal11format_uintILj3EcoEEPT0_S4_T1_ib = comdat any

$_ZN3fmt2v68internal12basic_writerINS0_12buffer_rangeIcEEE9write_intINS5_10int_writerInNS0_18basic_format_specsIcEEE10num_writerEEEviNS0_17basic_string_viewIcEES9_T_ = comdat any

$_ZN3fmt2v68internal12basic_writerINS0_12buffer_rangeIcEEE12write_paddedINS5_17padded_int_writerINS5_10int_writerInNS0_18basic_format_specsIcEEE10num_writerEEEEEvRKSA_OT_ = comdat any

$_ZNK3fmt2v68internal12basic_writerINS0_12buffer_rangeIcEEE17padded_int_writerINS5_10int_writerInNS0_18basic_format_specsIcEEE10num_writerEE4sizeEv = comdat any

$_ZNK3fmt2v68internal12basic_writerINS0_12buffer_rangeIcEEE17padded_int_writerINS5_10int_writerInNS0_18basic_format_specsIcEEE10num_writerEE5widthEv = comdat any

$_ZNK3fmt2v68internal12basic_writerINS0_12buffer_rangeIcEEE17padded_int_writerINS5_10int_writerInNS0_18basic_format_specsIcEEE10num_writerEEclIPcEEvOT_ = comdat any

$_ZNK3fmt2v68internal12basic_writerINS0_12buffer_rangeIcEEE17padded_int_writerINS5_10int_writerInNS0_18basic_format_specsIcEEE10num_writerEEclIRPcEEvOT_ = comdat any

$_ZNK3fmt2v68internal12basic_writerINS0_12buffer_rangeIcEEE10int_writerInNS0_18basic_format_specsIcEEE10num_writerclIRPcEEvOT_ = comdat any

$_ZN3fmt2v68internal14format_decimalIcoPcZNKS1_12basic_writerINS0_12buffer_rangeIcEEE10int_writerInNS0_18basic_format_specsIcEEE10num_writerclIRS3_EEvOT_EUlSE_E_EET1_SI_T0_iT2_ = comdat any

$_ZN3fmt2v68internal14format_decimalIocZNKS1_12basic_writerINS0_12buffer_rangeIcEEE10int_writerInNS0_18basic_format_specsIcEEE10num_writerclIRPcEEvOT_EUlSE_E_EEPT0_SJ_SF_iT1_ = comdat any

$_ZZNK3fmt2v68internal12basic_writerINS0_12buffer_rangeIcEEE10int_writerInNS0_18basic_format_specsIcEEE10num_writerclIRPcEEvOT_ENKUlSD_E_clESD_ = comdat any

$_ZN3fmt2v68internal11is_negativeInTnNSt9enable_ifIXsr3std14numeric_limitsIT_EE9is_signedEiE4typeELi0EEEbS4_ = comdat any

$_ZN3fmt2v68internal12basic_writerINS0_12buffer_rangeIcEEE13write_decimalInEEvT_ = comdat any

$_ZN3fmt2v68internal12basic_writerINS0_12buffer_rangeIcEEE9write_intIoNS0_18basic_format_specsIcEEEEvT_RKT0_ = comdat any

$_ZN3fmt2v68internal12basic_writerINS0_12buffer_rangeIcEEE5writeEo = comdat any

$_ZN3fmt2v68internal20handle_int_type_specINS1_12basic_writerINS0_12buffer_rangeIcEEE10int_writerIoNS0_18basic_format_specsIcEEEEEEvcOT_ = comdat any

$_ZN3fmt2v68internal12basic_writerINS0_12buffer_rangeIcEEE10int_writerIoNS0_18basic_format_specsIcEEEC2ERS5_oRKS8_ = comdat any

$_ZN3fmt2v68internal12basic_writerINS0_12buffer_rangeIcEEE10int_writerIoNS0_18basic_format_specsIcEEE6on_decEv = comdat any

$_ZN3fmt2v68internal12basic_writerINS0_12buffer_rangeIcEEE10int_writerIoNS0_18basic_format_specsIcEEE6on_hexEv = comdat any

$_ZN3fmt2v68internal12basic_writerINS0_12buffer_rangeIcEEE10int_writerIoNS0_18basic_format_specsIcEEE6on_binEv = comdat any

$_ZN3fmt2v68internal12basic_writerINS0_12buffer_rangeIcEEE10int_writerIoNS0_18basic_format_specsIcEEE6on_octEv = comdat any

$_ZN3fmt2v68internal12basic_writerINS0_12buffer_rangeIcEEE10int_writerIoNS0_18basic_format_specsIcEEE6on_numEv = comdat any

$_ZN3fmt2v68internal12basic_writerINS0_12buffer_rangeIcEEE10int_writerIoNS0_18basic_format_specsIcEEE8on_errorEv = comdat any

$_ZN3fmt2v68internal12basic_writerINS0_12buffer_rangeIcEEE9write_intINS5_10int_writerIoNS0_18basic_format_specsIcEEE10dec_writerEEEviNS0_17basic_string_viewIcEES9_T_ = comdat any

$_ZNK3fmt2v68internal12basic_writerINS0_12buffer_rangeIcEEE10int_writerIoNS0_18basic_format_specsIcEEE10get_prefixEv = comdat any

$_ZN3fmt2v68internal12basic_writerINS0_12buffer_rangeIcEEE12write_paddedINS5_17padded_int_writerINS5_10int_writerIoNS0_18basic_format_specsIcEEE10dec_writerEEEEEvRKSA_OT_ = comdat any

$_ZNK3fmt2v68internal12basic_writerINS0_12buffer_rangeIcEEE17padded_int_writerINS5_10int_writerIoNS0_18basic_format_specsIcEEE10dec_writerEE4sizeEv = comdat any

$_ZNK3fmt2v68internal12basic_writerINS0_12buffer_rangeIcEEE17padded_int_writerINS5_10int_writerIoNS0_18basic_format_specsIcEEE10dec_writerEE5widthEv = comdat any

$_ZNK3fmt2v68internal12basic_writerINS0_12buffer_rangeIcEEE17padded_int_writerINS5_10int_writerIoNS0_18basic_format_specsIcEEE10dec_writerEEclIPcEEvOT_ = comdat any

$_ZNK3fmt2v68internal12basic_writerINS0_12buffer_rangeIcEEE17padded_int_writerINS5_10int_writerIoNS0_18basic_format_specsIcEEE10dec_writerEEclIRPcEEvOT_ = comdat any

$_ZNK3fmt2v68internal12basic_writerINS0_12buffer_rangeIcEEE10int_writerIoNS0_18basic_format_specsIcEEE10dec_writerclIRPcEEvOT_ = comdat any

$_ZN3fmt2v68internal12basic_writerINS0_12buffer_rangeIcEEE9write_intINS5_10int_writerIoNS0_18basic_format_specsIcEEE10hex_writerEEEviNS0_17basic_string_viewIcEES9_T_ = comdat any

$_ZN3fmt2v68internal12basic_writerINS0_12buffer_rangeIcEEE12write_paddedINS5_17padded_int_writerINS5_10int_writerIoNS0_18basic_format_specsIcEEE10hex_writerEEEEEvRKSA_OT_ = comdat any

$_ZNK3fmt2v68internal12basic_writerINS0_12buffer_rangeIcEEE17padded_int_writerINS5_10int_writerIoNS0_18basic_format_specsIcEEE10hex_writerEE4sizeEv = comdat any

$_ZNK3fmt2v68internal12basic_writerINS0_12buffer_rangeIcEEE17padded_int_writerINS5_10int_writerIoNS0_18basic_format_specsIcEEE10hex_writerEE5widthEv = comdat any

$_ZNK3fmt2v68internal12basic_writerINS0_12buffer_rangeIcEEE17padded_int_writerINS5_10int_writerIoNS0_18basic_format_specsIcEEE10hex_writerEEclIPcEEvOT_ = comdat any

$_ZNK3fmt2v68internal12basic_writerINS0_12buffer_rangeIcEEE17padded_int_writerINS5_10int_writerIoNS0_18basic_format_specsIcEEE10hex_writerEEclIRPcEEvOT_ = comdat any

$_ZNK3fmt2v68internal12basic_writerINS0_12buffer_rangeIcEEE10int_writerIoNS0_18basic_format_specsIcEEE10hex_writerclIRPcEEvOT_ = comdat any

$_ZN3fmt2v68internal12basic_writerINS0_12buffer_rangeIcEEE9write_intINS5_10int_writerIoNS0_18basic_format_specsIcEEE10bin_writerILi1EEEEEviNS0_17basic_string_viewIcEES9_T_ = comdat any

$_ZN3fmt2v68internal12basic_writerINS0_12buffer_rangeIcEEE12write_paddedINS5_17padded_int_writerINS5_10int_writerIoNS0_18basic_format_specsIcEEE10bin_writerILi1EEEEEEEvRKSA_OT_ = comdat any

$_ZNK3fmt2v68internal12basic_writerINS0_12buffer_rangeIcEEE17padded_int_writerINS5_10int_writerIoNS0_18basic_format_specsIcEEE10bin_writerILi1EEEE4sizeEv = comdat any

$_ZNK3fmt2v68internal12basic_writerINS0_12buffer_rangeIcEEE17padded_int_writerINS5_10int_writerIoNS0_18basic_format_specsIcEEE10bin_writerILi1EEEE5widthEv = comdat any

$_ZNK3fmt2v68internal12basic_writerINS0_12buffer_rangeIcEEE17padded_int_writerINS5_10int_writerIoNS0_18basic_format_specsIcEEE10bin_writerILi1EEEEclIPcEEvOT_ = comdat any

$_ZNK3fmt2v68internal12basic_writerINS0_12buffer_rangeIcEEE17padded_int_writerINS5_10int_writerIoNS0_18basic_format_specsIcEEE10bin_writerILi1EEEEclIRPcEEvOT_ = comdat any

$_ZNK3fmt2v68internal12basic_writerINS0_12buffer_rangeIcEEE10int_writerIoNS0_18basic_format_specsIcEEE10bin_writerILi1EEclIRPcEEvOT_ = comdat any

$_ZN3fmt2v68internal12basic_writerINS0_12buffer_rangeIcEEE9write_intINS5_10int_writerIoNS0_18basic_format_specsIcEEE10bin_writerILi3EEEEEviNS0_17basic_string_viewIcEES9_T_ = comdat any

$_ZN3fmt2v68internal12basic_writerINS0_12buffer_rangeIcEEE12write_paddedINS5_17padded_int_writerINS5_10int_writerIoNS0_18basic_format_specsIcEEE10bin_writerILi3EEEEEEEvRKSA_OT_ = comdat any

$_ZNK3fmt2v68internal12basic_writerINS0_12buffer_rangeIcEEE17padded_int_writerINS5_10int_writerIoNS0_18basic_format_specsIcEEE10bin_writerILi3EEEE4sizeEv = comdat any

$_ZNK3fmt2v68internal12basic_writerINS0_12buffer_rangeIcEEE17padded_int_writerINS5_10int_writerIoNS0_18basic_format_specsIcEEE10bin_writerILi3EEEE5widthEv = comdat any

$_ZNK3fmt2v68internal12basic_writerINS0_12buffer_rangeIcEEE17padded_int_writerINS5_10int_writerIoNS0_18basic_format_specsIcEEE10bin_writerILi3EEEEclIPcEEvOT_ = comdat any

$_ZNK3fmt2v68internal12basic_writerINS0_12buffer_rangeIcEEE17padded_int_writerINS5_10int_writerIoNS0_18basic_format_specsIcEEE10bin_writerILi3EEEEclIRPcEEvOT_ = comdat any

$_ZNK3fmt2v68internal12basic_writerINS0_12buffer_rangeIcEEE10int_writerIoNS0_18basic_format_specsIcEEE10bin_writerILi3EEclIRPcEEvOT_ = comdat any

$_ZN3fmt2v68internal12basic_writerINS0_12buffer_rangeIcEEE9write_intINS5_10int_writerIoNS0_18basic_format_specsIcEEE10num_writerEEEviNS0_17basic_string_viewIcEES9_T_ = comdat any

$_ZN3fmt2v68internal12basic_writerINS0_12buffer_rangeIcEEE12write_paddedINS5_17padded_int_writerINS5_10int_writerIoNS0_18basic_format_specsIcEEE10num_writerEEEEEvRKSA_OT_ = comdat any

$_ZNK3fmt2v68internal12basic_writerINS0_12buffer_rangeIcEEE17padded_int_writerINS5_10int_writerIoNS0_18basic_format_specsIcEEE10num_writerEE4sizeEv = comdat any

$_ZNK3fmt2v68internal12basic_writerINS0_12buffer_rangeIcEEE17padded_int_writerINS5_10int_writerIoNS0_18basic_format_specsIcEEE10num_writerEE5widthEv = comdat any

$_ZNK3fmt2v68internal12basic_writerINS0_12buffer_rangeIcEEE17padded_int_writerINS5_10int_writerIoNS0_18basic_format_specsIcEEE10num_writerEEclIPcEEvOT_ = comdat any

$_ZNK3fmt2v68internal12basic_writerINS0_12buffer_rangeIcEEE17padded_int_writerINS5_10int_writerIoNS0_18basic_format_specsIcEEE10num_writerEEclIRPcEEvOT_ = comdat any

$_ZNK3fmt2v68internal12basic_writerINS0_12buffer_rangeIcEEE10int_writerIoNS0_18basic_format_specsIcEEE10num_writerclIRPcEEvOT_ = comdat any

$_ZN3fmt2v68internal14format_decimalIcoPcZNKS1_12basic_writerINS0_12buffer_rangeIcEEE10int_writerIoNS0_18basic_format_specsIcEEE10num_writerclIRS3_EEvOT_EUlSE_E_EET1_SI_T0_iT2_ = comdat any

$_ZN3fmt2v68internal14format_decimalIocZNKS1_12basic_writerINS0_12buffer_rangeIcEEE10int_writerIoNS0_18basic_format_specsIcEEE10num_writerclIRPcEEvOT_EUlSE_E_EEPT0_SJ_SF_iT1_ = comdat any

$_ZZNK3fmt2v68internal12basic_writerINS0_12buffer_rangeIcEEE10int_writerIoNS0_18basic_format_specsIcEEE10num_writerclIRPcEEvOT_ENKUlSD_E_clESD_ = comdat any

$_ZN3fmt2v68internal11is_negativeIoTnNSt9enable_ifIXntsr3std14numeric_limitsIT_EE9is_signedEiE4typeELi0EEEbS4_ = comdat any

$_ZN3fmt2v68internal12basic_writerINS0_12buffer_rangeIcEEE13write_decimalIoEEvT_ = comdat any

$_ZN3fmt2v68internal18arg_formatter_baseINS0_12buffer_rangeIcEENS1_13error_handlerEE5writeEb = comdat any

$_ZN3fmt2v617basic_string_viewIcEC2EPKc = comdat any

$_ZN3fmt2v68internal12basic_writerINS0_12buffer_rangeIcEEE5writeIcEEvNS0_17basic_string_viewIT_EERKNS0_18basic_format_specsIcEE = comdat any

$_ZN3fmt2v68internal12basic_writerINS0_12buffer_rangeIcEEE5writeENS0_17basic_string_viewIcEE = comdat any

$_ZNSt11char_traitsIcE6lengthEPKc = comdat any

$_ZN3fmt2v68internal16code_point_indexIcEEmNS0_17basic_string_viewIT_EEm = comdat any

$_ZN3fmt2v68internal12basic_writerINS0_12buffer_rangeIcEEE5writeIcEEvPKT_mRKNS0_18basic_format_specsIcEE = comdat any

$_ZN3fmt2v68internal12basic_writerINS0_12buffer_rangeIcEEE12write_paddedINS5_10str_writerIcEEEEvRKNS0_18basic_format_specsIcEEOT_ = comdat any

$_ZNK3fmt2v68internal12basic_writerINS0_12buffer_rangeIcEEE10str_writerIcE4sizeEv = comdat any

$_ZNK3fmt2v68internal12basic_writerINS0_12buffer_rangeIcEEE10str_writerIcE5widthEv = comdat any

$_ZNK3fmt2v68internal12basic_writerINS0_12buffer_rangeIcEEE10str_writerIcEclIPcEEvOT_ = comdat any

$_ZNK3fmt2v68internal12basic_writerINS0_12buffer_rangeIcEEE10str_writerIcEclIRPcEEvOT_ = comdat any

$_ZN3fmt2v68internal17count_code_pointsIcEEmNS0_17basic_string_viewIT_EE = comdat any

$_ZN3fmt2v68internal17handle_char_specsIcNS1_18arg_formatter_baseINS0_12buffer_rangeIcEENS1_13error_handlerEE17char_spec_handlerEEEvPKNS0_18basic_format_specsIT_EEOT0_ = comdat any

$_ZN3fmt2v68internal18arg_formatter_baseINS0_12buffer_rangeIcEENS1_13error_handlerEE17char_spec_handlerC2ERS6_c = comdat any

$_ZN3fmt2v68internal18arg_formatter_baseINS0_12buffer_rangeIcEENS1_13error_handlerEE17char_spec_handler7on_charEv = comdat any

$_ZN3fmt2v68internal18arg_formatter_baseINS0_12buffer_rangeIcEENS1_13error_handlerEE17char_spec_handler6on_intEv = comdat any

$_ZN3fmt2v68internal18arg_formatter_baseINS0_12buffer_rangeIcEENS1_13error_handlerEE10write_charEc = comdat any

$_ZN3fmt2v68internal12basic_writerINS0_12buffer_rangeIcEEE12write_paddedINS1_18arg_formatter_baseIS4_NS1_13error_handlerEE11char_writerEEEvRKNS0_18basic_format_specsIcEEOT_ = comdat any

$_ZN3fmt2v68internal12basic_writerINS0_12buffer_rangeIcEEE5writeEc = comdat any

$_ZNK3fmt2v68internal18arg_formatter_baseINS0_12buffer_rangeIcEENS1_13error_handlerEE11char_writer4sizeEv = comdat any

$_ZNK3fmt2v68internal18arg_formatter_baseINS0_12buffer_rangeIcEENS1_13error_handlerEE11char_writer5widthEv = comdat any

$_ZNK3fmt2v68internal18arg_formatter_baseINS0_12buffer_rangeIcEENS1_13error_handlerEE11char_writerclIPcEEvOT_ = comdat any

$_ZNK3fmt2v68internal18arg_formatter_baseINS0_12buffer_rangeIcEENS1_13error_handlerEE11char_writerclIRPcEEvOT_ = comdat any

$_ZN3fmt2v68internal12basic_writerINS0_12buffer_rangeIcEEE9write_intIcNS0_18basic_format_specsIcEEEEvT_RKT0_ = comdat any

$_ZN3fmt2v68internal20handle_int_type_specINS1_12basic_writerINS0_12buffer_rangeIcEEE10int_writerIcNS0_18basic_format_specsIcEEEEEEvcOT_ = comdat any

$_ZN3fmt2v68internal12basic_writerINS0_12buffer_rangeIcEEE10int_writerIcNS0_18basic_format_specsIcEEEC2ERS5_cRKS8_ = comdat any

$_ZN3fmt2v68internal12basic_writerINS0_12buffer_rangeIcEEE10int_writerIcNS0_18basic_format_specsIcEEE6on_decEv = comdat any

$_ZN3fmt2v68internal12basic_writerINS0_12buffer_rangeIcEEE10int_writerIcNS0_18basic_format_specsIcEEE6on_hexEv = comdat any

$_ZN3fmt2v68internal12basic_writerINS0_12buffer_rangeIcEEE10int_writerIcNS0_18basic_format_specsIcEEE6on_binEv = comdat any

$_ZN3fmt2v68internal12basic_writerINS0_12buffer_rangeIcEEE10int_writerIcNS0_18basic_format_specsIcEEE6on_octEv = comdat any

$_ZN3fmt2v68internal12basic_writerINS0_12buffer_rangeIcEEE10int_writerIcNS0_18basic_format_specsIcEEE6on_numEv = comdat any

$_ZN3fmt2v68internal12basic_writerINS0_12buffer_rangeIcEEE10int_writerIcNS0_18basic_format_specsIcEEE8on_errorEv = comdat any

$_ZN3fmt2v68internal12basic_writerINS0_12buffer_rangeIcEEE9write_intINS5_10int_writerIcNS0_18basic_format_specsIcEEE10dec_writerEEEviNS0_17basic_string_viewIcEES9_T_ = comdat any

$_ZNK3fmt2v68internal12basic_writerINS0_12buffer_rangeIcEEE10int_writerIcNS0_18basic_format_specsIcEEE10get_prefixEv = comdat any

$_ZN3fmt2v68internal12basic_writerINS0_12buffer_rangeIcEEE12write_paddedINS5_17padded_int_writerINS5_10int_writerIcNS0_18basic_format_specsIcEEE10dec_writerEEEEEvRKSA_OT_ = comdat any

$_ZNK3fmt2v68internal12basic_writerINS0_12buffer_rangeIcEEE17padded_int_writerINS5_10int_writerIcNS0_18basic_format_specsIcEEE10dec_writerEE4sizeEv = comdat any

$_ZNK3fmt2v68internal12basic_writerINS0_12buffer_rangeIcEEE17padded_int_writerINS5_10int_writerIcNS0_18basic_format_specsIcEEE10dec_writerEE5widthEv = comdat any

$_ZNK3fmt2v68internal12basic_writerINS0_12buffer_rangeIcEEE17padded_int_writerINS5_10int_writerIcNS0_18basic_format_specsIcEEE10dec_writerEEclIPcEEvOT_ = comdat any

$_ZNK3fmt2v68internal12basic_writerINS0_12buffer_rangeIcEEE17padded_int_writerINS5_10int_writerIcNS0_18basic_format_specsIcEEE10dec_writerEEclIRPcEEvOT_ = comdat any

$_ZNK3fmt2v68internal12basic_writerINS0_12buffer_rangeIcEEE10int_writerIcNS0_18basic_format_specsIcEEE10dec_writerclIRPcEEvOT_ = comdat any

$_ZN3fmt2v68internal12basic_writerINS0_12buffer_rangeIcEEE9write_intINS5_10int_writerIcNS0_18basic_format_specsIcEEE10hex_writerEEEviNS0_17basic_string_viewIcEES9_T_ = comdat any

$_ZN3fmt2v68internal12basic_writerINS0_12buffer_rangeIcEEE12write_paddedINS5_17padded_int_writerINS5_10int_writerIcNS0_18basic_format_specsIcEEE10hex_writerEEEEEvRKSA_OT_ = comdat any

$_ZNK3fmt2v68internal12basic_writerINS0_12buffer_rangeIcEEE17padded_int_writerINS5_10int_writerIcNS0_18basic_format_specsIcEEE10hex_writerEE4sizeEv = comdat any

$_ZNK3fmt2v68internal12basic_writerINS0_12buffer_rangeIcEEE17padded_int_writerINS5_10int_writerIcNS0_18basic_format_specsIcEEE10hex_writerEE5widthEv = comdat any

$_ZNK3fmt2v68internal12basic_writerINS0_12buffer_rangeIcEEE17padded_int_writerINS5_10int_writerIcNS0_18basic_format_specsIcEEE10hex_writerEEclIPcEEvOT_ = comdat any

$_ZNK3fmt2v68internal12basic_writerINS0_12buffer_rangeIcEEE17padded_int_writerINS5_10int_writerIcNS0_18basic_format_specsIcEEE10hex_writerEEclIRPcEEvOT_ = comdat any

$_ZNK3fmt2v68internal12basic_writerINS0_12buffer_rangeIcEEE10int_writerIcNS0_18basic_format_specsIcEEE10hex_writerclIRPcEEvOT_ = comdat any

$_ZN3fmt2v68internal12basic_writerINS0_12buffer_rangeIcEEE9write_intINS5_10int_writerIcNS0_18basic_format_specsIcEEE10bin_writerILi1EEEEEviNS0_17basic_string_viewIcEES9_T_ = comdat any

$_ZN3fmt2v68internal12basic_writerINS0_12buffer_rangeIcEEE12write_paddedINS5_17padded_int_writerINS5_10int_writerIcNS0_18basic_format_specsIcEEE10bin_writerILi1EEEEEEEvRKSA_OT_ = comdat any

$_ZNK3fmt2v68internal12basic_writerINS0_12buffer_rangeIcEEE17padded_int_writerINS5_10int_writerIcNS0_18basic_format_specsIcEEE10bin_writerILi1EEEE4sizeEv = comdat any

$_ZNK3fmt2v68internal12basic_writerINS0_12buffer_rangeIcEEE17padded_int_writerINS5_10int_writerIcNS0_18basic_format_specsIcEEE10bin_writerILi1EEEE5widthEv = comdat any

$_ZNK3fmt2v68internal12basic_writerINS0_12buffer_rangeIcEEE17padded_int_writerINS5_10int_writerIcNS0_18basic_format_specsIcEEE10bin_writerILi1EEEEclIPcEEvOT_ = comdat any

$_ZNK3fmt2v68internal12basic_writerINS0_12buffer_rangeIcEEE17padded_int_writerINS5_10int_writerIcNS0_18basic_format_specsIcEEE10bin_writerILi1EEEEclIRPcEEvOT_ = comdat any

$_ZNK3fmt2v68internal12basic_writerINS0_12buffer_rangeIcEEE10int_writerIcNS0_18basic_format_specsIcEEE10bin_writerILi1EEclIRPcEEvOT_ = comdat any

$_ZN3fmt2v68internal12basic_writerINS0_12buffer_rangeIcEEE9write_intINS5_10int_writerIcNS0_18basic_format_specsIcEEE10bin_writerILi3EEEEEviNS0_17basic_string_viewIcEES9_T_ = comdat any

$_ZN3fmt2v68internal12basic_writerINS0_12buffer_rangeIcEEE12write_paddedINS5_17padded_int_writerINS5_10int_writerIcNS0_18basic_format_specsIcEEE10bin_writerILi3EEEEEEEvRKSA_OT_ = comdat any

$_ZNK3fmt2v68internal12basic_writerINS0_12buffer_rangeIcEEE17padded_int_writerINS5_10int_writerIcNS0_18basic_format_specsIcEEE10bin_writerILi3EEEE4sizeEv = comdat any

$_ZNK3fmt2v68internal12basic_writerINS0_12buffer_rangeIcEEE17padded_int_writerINS5_10int_writerIcNS0_18basic_format_specsIcEEE10bin_writerILi3EEEE5widthEv = comdat any

$_ZNK3fmt2v68internal12basic_writerINS0_12buffer_rangeIcEEE17padded_int_writerINS5_10int_writerIcNS0_18basic_format_specsIcEEE10bin_writerILi3EEEEclIPcEEvOT_ = comdat any

$_ZNK3fmt2v68internal12basic_writerINS0_12buffer_rangeIcEEE17padded_int_writerINS5_10int_writerIcNS0_18basic_format_specsIcEEE10bin_writerILi3EEEEclIRPcEEvOT_ = comdat any

$_ZNK3fmt2v68internal12basic_writerINS0_12buffer_rangeIcEEE10int_writerIcNS0_18basic_format_specsIcEEE10bin_writerILi3EEclIRPcEEvOT_ = comdat any

$_ZN3fmt2v68internal12basic_writerINS0_12buffer_rangeIcEEE9write_intINS5_10int_writerIcNS0_18basic_format_specsIcEEE10num_writerEEEviNS0_17basic_string_viewIcEES9_T_ = comdat any

$_ZN3fmt2v68internal12basic_writerINS0_12buffer_rangeIcEEE12write_paddedINS5_17padded_int_writerINS5_10int_writerIcNS0_18basic_format_specsIcEEE10num_writerEEEEEvRKSA_OT_ = comdat any

$_ZNK3fmt2v68internal12basic_writerINS0_12buffer_rangeIcEEE17padded_int_writerINS5_10int_writerIcNS0_18basic_format_specsIcEEE10num_writerEE4sizeEv = comdat any

$_ZNK3fmt2v68internal12basic_writerINS0_12buffer_rangeIcEEE17padded_int_writerINS5_10int_writerIcNS0_18basic_format_specsIcEEE10num_writerEE5widthEv = comdat any

$_ZNK3fmt2v68internal12basic_writerINS0_12buffer_rangeIcEEE17padded_int_writerINS5_10int_writerIcNS0_18basic_format_specsIcEEE10num_writerEEclIPcEEvOT_ = comdat any

$_ZNK3fmt2v68internal12basic_writerINS0_12buffer_rangeIcEEE17padded_int_writerINS5_10int_writerIcNS0_18basic_format_specsIcEEE10num_writerEEclIRPcEEvOT_ = comdat any

$_ZNK3fmt2v68internal12basic_writerINS0_12buffer_rangeIcEEE10int_writerIcNS0_18basic_format_specsIcEEE10num_writerclIRPcEEvOT_ = comdat any

$_ZN3fmt2v68internal14format_decimalIcjPcZNKS1_12basic_writerINS0_12buffer_rangeIcEEE10int_writerIcNS0_18basic_format_specsIcEEE10num_writerclIRS3_EEvOT_EUlSE_E_EET1_SI_T0_iT2_ = comdat any

$_ZN3fmt2v68internal14format_decimalIjcZNKS1_12basic_writerINS0_12buffer_rangeIcEEE10int_writerIcNS0_18basic_format_specsIcEEE10num_writerclIRPcEEvOT_EUlSE_E_EEPT0_SJ_SF_iT1_ = comdat any

$_ZZNK3fmt2v68internal12basic_writerINS0_12buffer_rangeIcEEE10int_writerIcNS0_18basic_format_specsIcEEE10num_writerclIRPcEEvOT_ENKUlSD_E_clESD_ = comdat any

$_ZN3fmt2v68internal11is_negativeIcTnNSt9enable_ifIXsr3std14numeric_limitsIT_EE9is_signedEiE4typeELi0EEEbS4_ = comdat any

$_ZN3fmt2v68internal12basic_writerINS0_12buffer_rangeIcEEE5writeIfTnNSt9enable_ifIXsr3std17is_floating_pointIT_EE5valueEiE4typeELi0EEEvS8_NS0_18basic_format_specsIcEE = comdat any

$_ZN3fmt2v618basic_format_specsIcEC2Ev = comdat any

$_ZN3fmt2v68internal21parse_float_type_specINS1_13error_handlerEcEENS1_11float_specsERKNS0_18basic_format_specsIT0_EEOT_ = comdat any

$_ZSt7signbitf = comdat any

$_ZSt8isfinitef = comdat any

$_ZSt5isinff = comdat any

$_ZN3fmt2v68internal12basic_writerINS0_12buffer_rangeIcEEE12write_paddedINS1_16nonfinite_writerIcEEEEvRKNS0_18basic_format_specsIcEEOT_ = comdat any

$_ZN3fmt2v68internal6bufferIcE9push_backERKc = comdat any

$_ZN3fmt2v68internal13promote_floatEf = comdat any

$_ZN3fmt2v68internal9max_valueIiEET_v = comdat any

$_ZN3fmt2v68internal11const_checkISt7is_sameIffEEET_S5_ = comdat any

$_ZNKSt17integral_constantIbLb1EEcvbEv = comdat any

$_ZN3fmt2v68internal9use_grisuIfEEbv = comdat any

$_ZN3fmt2v68internal11const_checkIiEET_S3_ = comdat any

$_ZN3fmt2v68internal13decimal_pointIcEET_NS1_10locale_refE = comdat any

$_ZN3fmt2v68internal12basic_writerINS0_12buffer_rangeIcEEE12write_paddedINS1_12float_writerIcEEEEvRKNS0_18basic_format_specsIcEEOT_ = comdat any

$_ZN3fmt2v68internal12float_writerIcEC2EPKciiNS1_11float_specsEc = comdat any

$_ZNK3fmt2v68internal16nonfinite_writerIcE4sizeEv = comdat any

$_ZNK3fmt2v68internal16nonfinite_writerIcE5widthEv = comdat any

$_ZNK3fmt2v68internal16nonfinite_writerIcEclIPcEEvOT_ = comdat any

$_ZNK3fmt2v68internal16nonfinite_writerIcEclIRPcEEvOT_ = comdat any

$_ZNSt14numeric_limitsIiE3maxEv = comdat any

$_ZNK3fmt2v68internal12float_writerIcE4sizeEv = comdat any

$_ZNK3fmt2v68internal12float_writerIcE5widthEv = comdat any

$_ZN3fmt2v68internal12float_writerIcEclIPcEEvOT_ = comdat any

$_ZN3fmt2v68internal12float_writerIcEclIRPcEEvOT_ = comdat any

$_ZNK3fmt2v68internal12float_writerIcE8prettifyIPcEET_S6_ = comdat any

$_ZSt6fill_nIPcicET_S1_T0_RKT1_ = comdat any

$_ZN3fmt2v68internal14write_exponentIcPcEET0_iS4_ = comdat any

$_ZSt10__fill_n_aIPcicET_S1_T0_RKT1_St26random_access_iterator_tag = comdat any

$_ZSt17__size_to_integeri = comdat any

$_ZNK3fmt2v68internal12float_writerIcE8prettifyINS1_17counting_iteratorEEET_S6_ = comdat any

$_ZN3fmt2v68internal17counting_iteratorC2Ev = comdat any

$_ZNK3fmt2v68internal17counting_iterator5countEv = comdat any

$_ZN3fmt2v68internal17counting_iteratorppEi = comdat any

$_ZNK3fmt2v68internal17counting_iteratordeEv = comdat any

$_ZN3fmt2v68internal17counting_iterator10value_typeaSIcEEvRKT_ = comdat any

$_ZN3fmt2v68internal8copy_strIcPKcNS1_17counting_iteratorETnNSt9enable_ifIXntsr16needs_conversionIT0_T_EE5valueEiE4typeELi0EEET1_S7_S7_SB_ = comdat any

$_ZSt6fill_nIN3fmt2v68internal17counting_iteratorEicET_S4_T0_RKT1_ = comdat any

$_ZN3fmt2v68internal14write_exponentIcNS1_17counting_iteratorEEET0_iS4_ = comdat any

$_ZN3fmt2v68internal17counting_iteratorppEv = comdat any

$_ZSt4copyIPKcN3fmt2v68internal17counting_iteratorEET0_T_S7_S6_ = comdat any

$_ZSt13__copy_move_aILb0EPKcN3fmt2v68internal17counting_iteratorEET1_T0_S7_S6_ = comdat any

$_ZSt12__niter_wrapIN3fmt2v68internal17counting_iteratorEET_RKS4_S4_ = comdat any

$_ZSt14__copy_move_a1ILb0EPKcN3fmt2v68internal17counting_iteratorEET1_T0_S7_S6_ = comdat any

$_ZSt12__niter_baseIN3fmt2v68internal17counting_iteratorEET_S4_ = comdat any

$_ZSt14__copy_move_a2ILb0EPKcN3fmt2v68internal17counting_iteratorEET1_T0_S7_S6_ = comdat any

$_ZNSt11__copy_moveILb0ELb0ESt26random_access_iterator_tagE8__copy_mIPKcN3fmt2v68internal17counting_iteratorEEET0_T_SA_S9_ = comdat any

$_ZSt10__fill_n_aIN3fmt2v68internal17counting_iteratorEicET_S4_T0_RKT1_St19output_iterator_tag = comdat any

$_ZSt19__iterator_categoryIN3fmt2v68internal17counting_iteratorEENSt15iterator_traitsIT_E17iterator_categoryERKS5_ = comdat any

$_ZSt11__fill_n_a1IN3fmt2v68internal17counting_iteratorEicEN9__gnu_cxx11__enable_ifIXsr11__is_scalarIT1_EE7__valueET_E6__typeES7_T0_RKS6_ = comdat any

$_ZN3fmt2v68internal6fill_tIcE4makeEv = comdat any

$_ZN3fmt2v68internal12basic_writerINS0_12buffer_rangeIcEEE5writeIdTnNSt9enable_ifIXsr3std17is_floating_pointIT_EE5valueEiE4typeELi0EEEvS8_NS0_18basic_format_specsIcEE = comdat any

$_ZSt7signbitd = comdat any

$_ZSt8isfinited = comdat any

$_ZSt5isinfd = comdat any

$_ZN3fmt2v68internal13promote_floatIdEET_S3_ = comdat any

$_ZN3fmt2v68internal11const_checkISt7is_sameIdfEEET_S5_ = comdat any

$_ZNKSt17integral_constantIbLb0EEcvbEv = comdat any

$_ZN3fmt2v68internal9use_grisuIdEEbv = comdat any

$_ZN3fmt2v68internal12basic_writerINS0_12buffer_rangeIcEEE5writeIeTnNSt9enable_ifIXsr3std17is_floating_pointIT_EE5valueEiE4typeELi0EEEvS8_NS0_18basic_format_specsIcEE = comdat any

$_ZSt7signbite = comdat any

$_ZSt8isfinitee = comdat any

$_ZSt5isinfe = comdat any

$_ZN3fmt2v68internal13promote_floatIeEET_S3_ = comdat any

$_ZN3fmt2v68internal11const_checkISt7is_sameIefEEET_S5_ = comdat any

$_ZN3fmt2v68internal9use_grisuIeEEbv = comdat any

$_ZN3fmt2v68internal18arg_formatter_baseINS0_12buffer_rangeIcEENS1_13error_handlerEE5writeEPKc = comdat any

$_ZN3fmt2v68internal24handle_cstring_type_specIcNS1_18arg_formatter_baseINS0_12buffer_rangeIcEENS1_13error_handlerEE20cstring_spec_handlerEEEvT_OT0_ = comdat any

$_ZN3fmt2v68internal18arg_formatter_baseINS0_12buffer_rangeIcEENS1_13error_handlerEE20cstring_spec_handlerC2ERS6_PKc = comdat any

$_ZN3fmt2v68internal18arg_formatter_baseINS0_12buffer_rangeIcEENS1_13error_handlerEE20cstring_spec_handler9on_stringEv = comdat any

$_ZN3fmt2v68internal18arg_formatter_baseINS0_12buffer_rangeIcEENS1_13error_handlerEE20cstring_spec_handler10on_pointerEv = comdat any

$_ZN3fmt2v68internal18arg_formatter_baseINS0_12buffer_rangeIcEENS1_13error_handlerEE13write_pointerEPKv = comdat any

$_ZN3fmt2v68internal12basic_writerINS0_12buffer_rangeIcEEE13write_pointerImEEvT_PKNS0_18basic_format_specsIcEE = comdat any

$_ZN3fmt2v68internal10to_uintptrEPKv = comdat any

$_ZNK3fmt2v68internal12basic_writerINS0_12buffer_rangeIcEEE14pointer_writerImEclIPcEEvOT_ = comdat any

$_ZN3fmt2v68internal12basic_writerINS0_12buffer_rangeIcEEE12write_paddedIRNS5_14pointer_writerImEEEEvRKNS0_18basic_format_specsIcEEOT_ = comdat any

$_ZNK3fmt2v68internal12basic_writerINS0_12buffer_rangeIcEEE14pointer_writerImE4sizeEv = comdat any

$_ZNK3fmt2v68internal12basic_writerINS0_12buffer_rangeIcEEE14pointer_writerImE5widthEv = comdat any

$_ZNK3fmt2v68internal12basic_writerINS0_12buffer_rangeIcEEE14pointer_writerImEclIRPcEEvOT_ = comdat any

$_ZN3fmt2v68internal8bit_castImPKvEET_RKT0_ = comdat any

$_ZN3fmt2v68internal22check_string_type_specIcNS1_13error_handlerEEEvT_OT0_ = comdat any

$_ZN3fmt2v68internal23check_pointer_type_specIcNS1_13error_handlerEEEvT_OT0_ = comdat any

$_ZNK3fmt2v616basic_format_argINS0_20basic_format_contextISt20back_insert_iteratorINS0_8internal6bufferIcEEEcEEE6handle6formatERNS0_26basic_format_parse_contextIcNS4_13error_handlerEEERS8_ = comdat any

$_ZN3fmt2v612buffer_rangeIcECI2NS0_8internal12output_rangeISt20back_insert_iteratorINS3_6bufferIcEEEcEEES8_ = comdat any

$_ZN3fmt2v620basic_format_contextISt20back_insert_iteratorINS0_8internal6bufferIcEEEcE6localeEv = comdat any

$_ZN3fmt2v68internal18arg_formatter_baseINS0_12buffer_rangeIcEENS1_13error_handlerEEC2ES4_PNS0_18basic_format_specsIcEENS1_10locale_refE = comdat any

$_ZN3fmt2v68internal12output_rangeISt20back_insert_iteratorINS1_6bufferIcEEEcEC2ES6_ = comdat any

$_ZN3fmt2v68internal12basic_writerINS0_12buffer_rangeIcEEEC2ES4_NS1_10locale_refE = comdat any

$_ZSt6copy_nIPKcmPcET1_T_T0_S3_ = comdat any

$_ZSt8__copy_nIPKcmPcET1_T_T0_S3_St26random_access_iterator_tag = comdat any

$_ZN3fmt2v68internal10id_adapterIRNS0_14format_handlerINS0_13arg_formatterINS0_12buffer_rangeIcEEEEcNS0_20basic_format_contextISt20back_insert_iteratorINS1_6bufferIcEEEcEEEEcEclEv = comdat any

$_ZN3fmt2v68internal21parse_nonnegative_intIcRNS1_10id_adapterIRNS0_14format_handlerINS0_13arg_formatterINS0_12buffer_rangeIcEEEEcNS0_20basic_format_contextISt20back_insert_iteratorINS1_6bufferIcEEEcEEEEcEEEEiRPKT_SL_OT0_ = comdat any

$_ZN3fmt2v68internal10id_adapterIRNS0_14format_handlerINS0_13arg_formatterINS0_12buffer_rangeIcEEEEcNS0_20basic_format_contextISt20back_insert_iteratorINS1_6bufferIcEEEcEEEEcE8on_errorEPKc = comdat any

$_ZN3fmt2v68internal10id_adapterIRNS0_14format_handlerINS0_13arg_formatterINS0_12buffer_rangeIcEEEEcNS0_20basic_format_contextISt20back_insert_iteratorINS1_6bufferIcEEEcEEEEcEclEi = comdat any

$_ZN3fmt2v68internal13is_name_startIcEEbT_ = comdat any

$_ZN3fmt2v68internal10id_adapterIRNS0_14format_handlerINS0_13arg_formatterINS0_12buffer_rangeIcEEEEcNS0_20basic_format_contextISt20back_insert_iteratorINS1_6bufferIcEEEcEEEEcEclENS0_17basic_string_viewIcEE = comdat any

$_ZN3fmt2v614format_handlerINS0_13arg_formatterINS0_12buffer_rangeIcEEEEcNS0_20basic_format_contextISt20back_insert_iteratorINS0_8internal6bufferIcEEEcEEE9on_arg_idEi = comdat any

$_ZN3fmt2v626basic_format_parse_contextIcNS0_8internal13error_handlerEE12check_arg_idEi = comdat any

$_ZN3fmt2v614format_handlerINS0_13arg_formatterINS0_12buffer_rangeIcEEEEcNS0_20basic_format_contextISt20back_insert_iteratorINS0_8internal6bufferIcEEEcEEE9on_arg_idENS0_17basic_string_viewIcEE = comdat any

$_ZN3fmt2v620basic_format_contextISt20back_insert_iteratorINS0_8internal6bufferIcEEEcE3argENS0_17basic_string_viewIcEE = comdat any

$_ZN3fmt2v68internal7arg_mapINS0_20basic_format_contextISt20back_insert_iteratorINS1_6bufferIcEEEcEEE4initERKNS0_17basic_format_argsIS8_EE = comdat any

$_ZNK3fmt2v68internal7arg_mapINS0_20basic_format_contextISt20back_insert_iteratorINS1_6bufferIcEEEcEEE4findENS0_17basic_string_viewIcEE = comdat any

$_ZNK3fmt2v616basic_format_argINS0_20basic_format_contextISt20back_insert_iteratorINS0_8internal6bufferIcEEEcEEE4typeEv = comdat any

$_ZN3fmt2v68internal7arg_mapINS0_20basic_format_contextISt20back_insert_iteratorINS1_6bufferIcEEEcEEE5entryC2Ev = comdat any

$_ZN3fmt2v68internal7arg_mapINS0_20basic_format_contextISt20back_insert_iteratorINS1_6bufferIcEEEcEEE9push_backENS1_5valueIS8_EE = comdat any

$_ZN3fmt2v617basic_string_viewIcEC2Ev = comdat any

$_ZN3fmt2v6eqENS0_17basic_string_viewIcEES2_ = comdat any

$_ZNK3fmt2v617basic_string_viewIcE7compareES2_ = comdat any

$_ZNSt11char_traitsIcE7compareEPKcS2_m = comdat any

$_ZN3fmt2v68internal16custom_formatterINS0_20basic_format_contextISt20back_insert_iteratorINS1_6bufferIcEEEcEEEC2ERNS0_26basic_format_parse_contextIcNS1_13error_handlerEEERS8_ = comdat any

$_ZN3fmt2v616visit_format_argIRNS0_8internal16custom_formatterINS0_20basic_format_contextISt20back_insert_iteratorINS2_6bufferIcEEEcEEEES9_EEDTclfp_Li0EEEOT_RKNS0_16basic_format_argIT0_EE = comdat any

$_ZN3fmt2v68internal13specs_handlerINS0_26basic_format_parse_contextIcNS1_13error_handlerEEENS0_20basic_format_contextISt20back_insert_iteratorINS1_6bufferIcEEEcEEEC2ERNS0_18basic_format_specsIcEERS5_RSB_ = comdat any

$_ZN3fmt2v68internal13specs_checkerINS1_13specs_handlerINS0_26basic_format_parse_contextIcNS1_13error_handlerEEENS0_20basic_format_contextISt20back_insert_iteratorINS1_6bufferIcEEEcEEEEEC2ERKSD_NS1_4typeE = comdat any

$_ZN3fmt2v68internal18parse_format_specsIcRNS1_13specs_checkerINS1_13specs_handlerINS0_26basic_format_parse_contextIcNS1_13error_handlerEEENS0_20basic_format_contextISt20back_insert_iteratorINS1_6bufferIcEEEcEEEEEEEEPKT_SJ_SJ_OT0_ = comdat any

$_ZNK3fmt2v68internal16custom_formatterINS0_20basic_format_contextISt20back_insert_iteratorINS1_6bufferIcEEEcEEEclIiEEbT_ = comdat any

$_ZNK3fmt2v68internal16custom_formatterINS0_20basic_format_contextISt20back_insert_iteratorINS1_6bufferIcEEEcEEEclIjEEbT_ = comdat any

$_ZNK3fmt2v68internal16custom_formatterINS0_20basic_format_contextISt20back_insert_iteratorINS1_6bufferIcEEEcEEEclIxEEbT_ = comdat any

$_ZNK3fmt2v68internal16custom_formatterINS0_20basic_format_contextISt20back_insert_iteratorINS1_6bufferIcEEEcEEEclIyEEbT_ = comdat any

$_ZNK3fmt2v68internal16custom_formatterINS0_20basic_format_contextISt20back_insert_iteratorINS1_6bufferIcEEEcEEEclInEEbT_ = comdat any

$_ZNK3fmt2v68internal16custom_formatterINS0_20basic_format_contextISt20back_insert_iteratorINS1_6bufferIcEEEcEEEclIoEEbT_ = comdat any

$_ZNK3fmt2v68internal16custom_formatterINS0_20basic_format_contextISt20back_insert_iteratorINS1_6bufferIcEEEcEEEclIbEEbT_ = comdat any

$_ZNK3fmt2v68internal16custom_formatterINS0_20basic_format_contextISt20back_insert_iteratorINS1_6bufferIcEEEcEEEclIcEEbT_ = comdat any

$_ZNK3fmt2v68internal16custom_formatterINS0_20basic_format_contextISt20back_insert_iteratorINS1_6bufferIcEEEcEEEclIfEEbT_ = comdat any

$_ZNK3fmt2v68internal16custom_formatterINS0_20basic_format_contextISt20back_insert_iteratorINS1_6bufferIcEEEcEEEclIdEEbT_ = comdat any

$_ZNK3fmt2v68internal16custom_formatterINS0_20basic_format_contextISt20back_insert_iteratorINS1_6bufferIcEEEcEEEclIeEEbT_ = comdat any

$_ZNK3fmt2v68internal16custom_formatterINS0_20basic_format_contextISt20back_insert_iteratorINS1_6bufferIcEEEcEEEclIPKcEEbT_ = comdat any

$_ZNK3fmt2v68internal16custom_formatterINS0_20basic_format_contextISt20back_insert_iteratorINS1_6bufferIcEEEcEEEclINS0_17basic_string_viewIcEEEEbT_ = comdat any

$_ZNK3fmt2v68internal16custom_formatterINS0_20basic_format_contextISt20back_insert_iteratorINS1_6bufferIcEEEcEEEclIPKvEEbT_ = comdat any

$_ZNK3fmt2v68internal16custom_formatterINS0_20basic_format_contextISt20back_insert_iteratorINS1_6bufferIcEEEcEEEclENS0_16basic_format_argIS8_E6handleE = comdat any

$_ZNK3fmt2v68internal16custom_formatterINS0_20basic_format_contextISt20back_insert_iteratorINS1_6bufferIcEEEcEEEclINS0_9monostateEEEbT_ = comdat any

$_ZN3fmt2v68internal12specs_setterIcEC2ERNS0_18basic_format_specsIcEE = comdat any

$_ZN3fmt2v68internal13specs_handlerINS0_26basic_format_parse_contextIcNS1_13error_handlerEEENS0_20basic_format_contextISt20back_insert_iteratorINS1_6bufferIcEEEcEEEC2ERKSC_ = comdat any

$_ZN3fmt2v68internal21numeric_specs_checkerINS1_13specs_handlerINS0_26basic_format_parse_contextIcNS1_13error_handlerEEENS0_20basic_format_contextISt20back_insert_iteratorINS1_6bufferIcEEEcEEEEEC2ERSD_NS1_4typeE = comdat any

$_ZN3fmt2v68internal12specs_setterIcEC2ERKS3_ = comdat any

$_ZN3fmt2v68internal11parse_alignIcRNS1_13specs_checkerINS1_13specs_handlerINS0_26basic_format_parse_contextIcNS1_13error_handlerEEENS0_20basic_format_contextISt20back_insert_iteratorINS1_6bufferIcEEEcEEEEEEEEPKT_SJ_SJ_OT0_ = comdat any

$_ZN3fmt2v68internal13specs_checkerINS1_13specs_handlerINS0_26basic_format_parse_contextIcNS1_13error_handlerEEENS0_20basic_format_contextISt20back_insert_iteratorINS1_6bufferIcEEEcEEEEE7on_plusEv = comdat any

$_ZN3fmt2v68internal13specs_checkerINS1_13specs_handlerINS0_26basic_format_parse_contextIcNS1_13error_handlerEEENS0_20basic_format_contextISt20back_insert_iteratorINS1_6bufferIcEEEcEEEEE8on_minusEv = comdat any

$_ZN3fmt2v68internal13specs_checkerINS1_13specs_handlerINS0_26basic_format_parse_contextIcNS1_13error_handlerEEENS0_20basic_format_contextISt20back_insert_iteratorINS1_6bufferIcEEEcEEEEE8on_spaceEv = comdat any

$_ZN3fmt2v68internal13specs_checkerINS1_13specs_handlerINS0_26basic_format_parse_contextIcNS1_13error_handlerEEENS0_20basic_format_contextISt20back_insert_iteratorINS1_6bufferIcEEEcEEEEE7on_hashEv = comdat any

$_ZN3fmt2v68internal13specs_checkerINS1_13specs_handlerINS0_26basic_format_parse_contextIcNS1_13error_handlerEEENS0_20basic_format_contextISt20back_insert_iteratorINS1_6bufferIcEEEcEEEEE7on_zeroEv = comdat any

$_ZN3fmt2v68internal11parse_widthIcRNS1_13specs_checkerINS1_13specs_handlerINS0_26basic_format_parse_contextIcNS1_13error_handlerEEENS0_20basic_format_contextISt20back_insert_iteratorINS1_6bufferIcEEEcEEEEEEEEPKT_SJ_SJ_OT0_ = comdat any

$_ZN3fmt2v68internal15parse_precisionIcRNS1_13specs_checkerINS1_13specs_handlerINS0_26basic_format_parse_contextIcNS1_13error_handlerEEENS0_20basic_format_contextISt20back_insert_iteratorINS1_6bufferIcEEEcEEEEEEEEPKT_SJ_SJ_OT0_ = comdat any

$_ZN3fmt2v68internal12specs_setterIcE7on_typeEc = comdat any

$_ZN3fmt2v68internal13specs_handlerINS0_26basic_format_parse_contextIcNS1_13error_handlerEEENS0_20basic_format_contextISt20back_insert_iteratorINS1_6bufferIcEEEcEEE8on_errorEPKc = comdat any

$_ZN3fmt2v68internal12specs_setterIcE7on_fillEc = comdat any

$_ZN3fmt2v68internal13specs_checkerINS1_13specs_handlerINS0_26basic_format_parse_contextIcNS1_13error_handlerEEENS0_20basic_format_contextISt20back_insert_iteratorINS1_6bufferIcEEEcEEEEE8on_alignENS0_5align4typeE = comdat any

$_ZN3fmt2v68internal21numeric_specs_checkerINS1_13specs_handlerINS0_26basic_format_parse_contextIcNS1_13error_handlerEEENS0_20basic_format_contextISt20back_insert_iteratorINS1_6bufferIcEEEcEEEEE24require_numeric_argumentEv = comdat any

$_ZN3fmt2v68internal12specs_setterIcE8on_alignENS0_5align4typeE = comdat any

$_ZN3fmt2v68internal18is_arithmetic_typeENS1_4typeE = comdat any

$_ZN3fmt2v68internal21numeric_specs_checkerINS1_13specs_handlerINS0_26basic_format_parse_contextIcNS1_13error_handlerEEENS0_20basic_format_contextISt20back_insert_iteratorINS1_6bufferIcEEEcEEEEE10check_signEv = comdat any

$_ZN3fmt2v68internal12specs_setterIcE7on_plusEv = comdat any

$_ZN3fmt2v68internal16is_integral_typeENS1_4typeE = comdat any

$_ZN3fmt2v68internal12specs_setterIcE8on_minusEv = comdat any

$_ZN3fmt2v68internal12specs_setterIcE8on_spaceEv = comdat any

$_ZN3fmt2v68internal12specs_setterIcE7on_hashEv = comdat any

$_ZN3fmt2v68internal12specs_setterIcE7on_zeroEv = comdat any

$_ZN3fmt2v68internal12specs_setterIcE8on_widthEi = comdat any

$_ZN3fmt2v68internal21parse_nonnegative_intIcRNS1_13specs_checkerINS1_13specs_handlerINS0_26basic_format_parse_contextIcNS1_13error_handlerEEENS0_20basic_format_contextISt20back_insert_iteratorINS1_6bufferIcEEEcEEEEEEEEiRPKT_SJ_OT0_ = comdat any

$_ZN3fmt2v68internal12parse_arg_idIcNS1_13width_adapterIRNS1_13specs_checkerINS1_13specs_handlerINS0_26basic_format_parse_contextIcNS1_13error_handlerEEENS0_20basic_format_contextISt20back_insert_iteratorINS1_6bufferIcEEEcEEEEEEcEEEEPKT_SL_SL_OT0_ = comdat any

$_ZN3fmt2v68internal13width_adapterIRNS1_13specs_checkerINS1_13specs_handlerINS0_26basic_format_parse_contextIcNS1_13error_handlerEEENS0_20basic_format_contextISt20back_insert_iteratorINS1_6bufferIcEEEcEEEEEEcEC2ESG_ = comdat any

$_ZN3fmt2v68internal13width_adapterIRNS1_13specs_checkerINS1_13specs_handlerINS0_26basic_format_parse_contextIcNS1_13error_handlerEEENS0_20basic_format_contextISt20back_insert_iteratorINS1_6bufferIcEEEcEEEEEEcEclEv = comdat any

$_ZN3fmt2v68internal21parse_nonnegative_intIcRNS1_13width_adapterIRNS1_13specs_checkerINS1_13specs_handlerINS0_26basic_format_parse_contextIcNS1_13error_handlerEEENS0_20basic_format_contextISt20back_insert_iteratorINS1_6bufferIcEEEcEEEEEEcEEEEiRPKT_SM_OT0_ = comdat any

$_ZN3fmt2v68internal13width_adapterIRNS1_13specs_checkerINS1_13specs_handlerINS0_26basic_format_parse_contextIcNS1_13error_handlerEEENS0_20basic_format_contextISt20back_insert_iteratorINS1_6bufferIcEEEcEEEEEEcE8on_errorEPKc = comdat any

$_ZN3fmt2v68internal13width_adapterIRNS1_13specs_checkerINS1_13specs_handlerINS0_26basic_format_parse_contextIcNS1_13error_handlerEEENS0_20basic_format_contextISt20back_insert_iteratorINS1_6bufferIcEEEcEEEEEEcEclEi = comdat any

$_ZN3fmt2v68internal13width_adapterIRNS1_13specs_checkerINS1_13specs_handlerINS0_26basic_format_parse_contextIcNS1_13error_handlerEEENS0_20basic_format_contextISt20back_insert_iteratorINS1_6bufferIcEEEcEEEEEEcEclENS0_17basic_string_viewIcEE = comdat any

$_ZN3fmt2v68internal13specs_handlerINS0_26basic_format_parse_contextIcNS1_13error_handlerEEENS0_20basic_format_contextISt20back_insert_iteratorINS1_6bufferIcEEEcEEE16on_dynamic_widthINS1_7auto_idEEEvT_ = comdat any

$_ZN3fmt2v68internal16get_dynamic_specINS1_13width_checkerENS0_16basic_format_argINS0_20basic_format_contextISt20back_insert_iteratorINS1_6bufferIcEEEcEEEENS1_13error_handlerEEEiT0_T1_ = comdat any

$_ZN3fmt2v68internal13specs_handlerINS0_26basic_format_parse_contextIcNS1_13error_handlerEEENS0_20basic_format_contextISt20back_insert_iteratorINS1_6bufferIcEEEcEEE7get_argENS1_7auto_idE = comdat any

$_ZN3fmt2v616visit_format_argINS0_8internal13width_checkerINS2_13error_handlerEEENS0_20basic_format_contextISt20back_insert_iteratorINS2_6bufferIcEEEcEEEEDTclfp_Li0EEEOT_RKNS0_16basic_format_argIT0_EE = comdat any

$_ZN3fmt2v68internal13width_checkerINS1_13error_handlerEEC2ERS3_ = comdat any

$_ZN3fmt2v68internal13width_checkerINS1_13error_handlerEEclIiTnNSt9enable_ifIXsr10is_integerIT_EE5valueEiE4typeELi0EEEyS7_ = comdat any

$_ZN3fmt2v68internal13width_checkerINS1_13error_handlerEEclIjTnNSt9enable_ifIXsr10is_integerIT_EE5valueEiE4typeELi0EEEyS7_ = comdat any

$_ZN3fmt2v68internal13width_checkerINS1_13error_handlerEEclIxTnNSt9enable_ifIXsr10is_integerIT_EE5valueEiE4typeELi0EEEyS7_ = comdat any

$_ZN3fmt2v68internal13width_checkerINS1_13error_handlerEEclIyTnNSt9enable_ifIXsr10is_integerIT_EE5valueEiE4typeELi0EEEyS7_ = comdat any

$_ZN3fmt2v68internal13width_checkerINS1_13error_handlerEEclInTnNSt9enable_ifIXsr10is_integerIT_EE5valueEiE4typeELi0EEEyS7_ = comdat any

$_ZN3fmt2v68internal13width_checkerINS1_13error_handlerEEclIoTnNSt9enable_ifIXsr10is_integerIT_EE5valueEiE4typeELi0EEEyS7_ = comdat any

$_ZN3fmt2v68internal13width_checkerINS1_13error_handlerEEclIbTnNSt9enable_ifIXntsr10is_integerIT_EE5valueEiE4typeELi0EEEyS7_ = comdat any

$_ZN3fmt2v68internal13width_checkerINS1_13error_handlerEEclIcTnNSt9enable_ifIXntsr10is_integerIT_EE5valueEiE4typeELi0EEEyS7_ = comdat any

$_ZN3fmt2v68internal13width_checkerINS1_13error_handlerEEclIfTnNSt9enable_ifIXntsr10is_integerIT_EE5valueEiE4typeELi0EEEyS7_ = comdat any

$_ZN3fmt2v68internal13width_checkerINS1_13error_handlerEEclIdTnNSt9enable_ifIXntsr10is_integerIT_EE5valueEiE4typeELi0EEEyS7_ = comdat any

$_ZN3fmt2v68internal13width_checkerINS1_13error_handlerEEclIeTnNSt9enable_ifIXntsr10is_integerIT_EE5valueEiE4typeELi0EEEyS7_ = comdat any

$_ZN3fmt2v68internal13width_checkerINS1_13error_handlerEEclIPKcTnNSt9enable_ifIXntsr10is_integerIT_EE5valueEiE4typeELi0EEEyS9_ = comdat any

$_ZN3fmt2v68internal13width_checkerINS1_13error_handlerEEclINS0_17basic_string_viewIcEETnNSt9enable_ifIXntsr10is_integerIT_EE5valueEiE4typeELi0EEEyS9_ = comdat any

$_ZN3fmt2v68internal13width_checkerINS1_13error_handlerEEclIPKvTnNSt9enable_ifIXntsr10is_integerIT_EE5valueEiE4typeELi0EEEyS9_ = comdat any

$_ZN3fmt2v68internal13width_checkerINS1_13error_handlerEEclINS0_16basic_format_argINS0_20basic_format_contextISt20back_insert_iteratorINS1_6bufferIcEEEcEEE6handleETnNSt9enable_ifIXntsr10is_integerIT_EE5valueEiE4typeELi0EEEySG_ = comdat any

$_ZN3fmt2v68internal13width_checkerINS1_13error_handlerEEclINS0_9monostateETnNSt9enable_ifIXntsr10is_integerIT_EE5valueEiE4typeELi0EEEyS8_ = comdat any

$_ZN3fmt2v68internal13specs_handlerINS0_26basic_format_parse_contextIcNS1_13error_handlerEEENS0_20basic_format_contextISt20back_insert_iteratorINS1_6bufferIcEEEcEEE16on_dynamic_widthIiEEvT_ = comdat any

$_ZN3fmt2v68internal13specs_handlerINS0_26basic_format_parse_contextIcNS1_13error_handlerEEENS0_20basic_format_contextISt20back_insert_iteratorINS1_6bufferIcEEEcEEE7get_argEi = comdat any

$_ZN3fmt2v68internal13specs_handlerINS0_26basic_format_parse_contextIcNS1_13error_handlerEEENS0_20basic_format_contextISt20back_insert_iteratorINS1_6bufferIcEEEcEEE16on_dynamic_widthINS0_17basic_string_viewIcEEEEvT_ = comdat any

$_ZN3fmt2v68internal13specs_handlerINS0_26basic_format_parse_contextIcNS1_13error_handlerEEENS0_20basic_format_contextISt20back_insert_iteratorINS1_6bufferIcEEEcEEE7get_argENS0_17basic_string_viewIcEE = comdat any

$_ZN3fmt2v626basic_format_parse_contextIcNS0_8internal13error_handlerEE12check_arg_idENS0_17basic_string_viewIcEE = comdat any

$_ZN3fmt2v68internal12specs_setterIcE12on_precisionEi = comdat any

$_ZN3fmt2v68internal12parse_arg_idIcNS1_17precision_adapterIRNS1_13specs_checkerINS1_13specs_handlerINS0_26basic_format_parse_contextIcNS1_13error_handlerEEENS0_20basic_format_contextISt20back_insert_iteratorINS1_6bufferIcEEEcEEEEEEcEEEEPKT_SL_SL_OT0_ = comdat any

$_ZN3fmt2v68internal17precision_adapterIRNS1_13specs_checkerINS1_13specs_handlerINS0_26basic_format_parse_contextIcNS1_13error_handlerEEENS0_20basic_format_contextISt20back_insert_iteratorINS1_6bufferIcEEEcEEEEEEcEC2ESG_ = comdat any

$_ZN3fmt2v68internal13specs_checkerINS1_13specs_handlerINS0_26basic_format_parse_contextIcNS1_13error_handlerEEENS0_20basic_format_contextISt20back_insert_iteratorINS1_6bufferIcEEEcEEEEE13end_precisionEv = comdat any

$_ZN3fmt2v68internal17precision_adapterIRNS1_13specs_checkerINS1_13specs_handlerINS0_26basic_format_parse_contextIcNS1_13error_handlerEEENS0_20basic_format_contextISt20back_insert_iteratorINS1_6bufferIcEEEcEEEEEEcEclEv = comdat any

$_ZN3fmt2v68internal21parse_nonnegative_intIcRNS1_17precision_adapterIRNS1_13specs_checkerINS1_13specs_handlerINS0_26basic_format_parse_contextIcNS1_13error_handlerEEENS0_20basic_format_contextISt20back_insert_iteratorINS1_6bufferIcEEEcEEEEEEcEEEEiRPKT_SM_OT0_ = comdat any

$_ZN3fmt2v68internal17precision_adapterIRNS1_13specs_checkerINS1_13specs_handlerINS0_26basic_format_parse_contextIcNS1_13error_handlerEEENS0_20basic_format_contextISt20back_insert_iteratorINS1_6bufferIcEEEcEEEEEEcE8on_errorEPKc = comdat any

$_ZN3fmt2v68internal17precision_adapterIRNS1_13specs_checkerINS1_13specs_handlerINS0_26basic_format_parse_contextIcNS1_13error_handlerEEENS0_20basic_format_contextISt20back_insert_iteratorINS1_6bufferIcEEEcEEEEEEcEclEi = comdat any

$_ZN3fmt2v68internal17precision_adapterIRNS1_13specs_checkerINS1_13specs_handlerINS0_26basic_format_parse_contextIcNS1_13error_handlerEEENS0_20basic_format_contextISt20back_insert_iteratorINS1_6bufferIcEEEcEEEEEEcEclENS0_17basic_string_viewIcEE = comdat any

$_ZN3fmt2v68internal13specs_handlerINS0_26basic_format_parse_contextIcNS1_13error_handlerEEENS0_20basic_format_contextISt20back_insert_iteratorINS1_6bufferIcEEEcEEE20on_dynamic_precisionINS1_7auto_idEEEvT_ = comdat any

$_ZN3fmt2v68internal16get_dynamic_specINS1_17precision_checkerENS0_16basic_format_argINS0_20basic_format_contextISt20back_insert_iteratorINS1_6bufferIcEEEcEEEENS1_13error_handlerEEEiT0_T1_ = comdat any

$_ZN3fmt2v616visit_format_argINS0_8internal17precision_checkerINS2_13error_handlerEEENS0_20basic_format_contextISt20back_insert_iteratorINS2_6bufferIcEEEcEEEEDTclfp_Li0EEEOT_RKNS0_16basic_format_argIT0_EE = comdat any

$_ZN3fmt2v68internal17precision_checkerINS1_13error_handlerEEC2ERS3_ = comdat any

$_ZN3fmt2v68internal17precision_checkerINS1_13error_handlerEEclIiTnNSt9enable_ifIXsr10is_integerIT_EE5valueEiE4typeELi0EEEyS7_ = comdat any

$_ZN3fmt2v68internal17precision_checkerINS1_13error_handlerEEclIjTnNSt9enable_ifIXsr10is_integerIT_EE5valueEiE4typeELi0EEEyS7_ = comdat any

$_ZN3fmt2v68internal17precision_checkerINS1_13error_handlerEEclIxTnNSt9enable_ifIXsr10is_integerIT_EE5valueEiE4typeELi0EEEyS7_ = comdat any

$_ZN3fmt2v68internal17precision_checkerINS1_13error_handlerEEclIyTnNSt9enable_ifIXsr10is_integerIT_EE5valueEiE4typeELi0EEEyS7_ = comdat any

$_ZN3fmt2v68internal17precision_checkerINS1_13error_handlerEEclInTnNSt9enable_ifIXsr10is_integerIT_EE5valueEiE4typeELi0EEEyS7_ = comdat any

$_ZN3fmt2v68internal17precision_checkerINS1_13error_handlerEEclIoTnNSt9enable_ifIXsr10is_integerIT_EE5valueEiE4typeELi0EEEyS7_ = comdat any

$_ZN3fmt2v68internal17precision_checkerINS1_13error_handlerEEclIbTnNSt9enable_ifIXntsr10is_integerIT_EE5valueEiE4typeELi0EEEyS7_ = comdat any

$_ZN3fmt2v68internal17precision_checkerINS1_13error_handlerEEclIcTnNSt9enable_ifIXntsr10is_integerIT_EE5valueEiE4typeELi0EEEyS7_ = comdat any

$_ZN3fmt2v68internal17precision_checkerINS1_13error_handlerEEclIfTnNSt9enable_ifIXntsr10is_integerIT_EE5valueEiE4typeELi0EEEyS7_ = comdat any

$_ZN3fmt2v68internal17precision_checkerINS1_13error_handlerEEclIdTnNSt9enable_ifIXntsr10is_integerIT_EE5valueEiE4typeELi0EEEyS7_ = comdat any

$_ZN3fmt2v68internal17precision_checkerINS1_13error_handlerEEclIeTnNSt9enable_ifIXntsr10is_integerIT_EE5valueEiE4typeELi0EEEyS7_ = comdat any

$_ZN3fmt2v68internal17precision_checkerINS1_13error_handlerEEclIPKcTnNSt9enable_ifIXntsr10is_integerIT_EE5valueEiE4typeELi0EEEyS9_ = comdat any

$_ZN3fmt2v68internal17precision_checkerINS1_13error_handlerEEclINS0_17basic_string_viewIcEETnNSt9enable_ifIXntsr10is_integerIT_EE5valueEiE4typeELi0EEEyS9_ = comdat any

$_ZN3fmt2v68internal17precision_checkerINS1_13error_handlerEEclIPKvTnNSt9enable_ifIXntsr10is_integerIT_EE5valueEiE4typeELi0EEEyS9_ = comdat any

$_ZN3fmt2v68internal17precision_checkerINS1_13error_handlerEEclINS0_16basic_format_argINS0_20basic_format_contextISt20back_insert_iteratorINS1_6bufferIcEEEcEEE6handleETnNSt9enable_ifIXntsr10is_integerIT_EE5valueEiE4typeELi0EEEySG_ = comdat any

$_ZN3fmt2v68internal17precision_checkerINS1_13error_handlerEEclINS0_9monostateETnNSt9enable_ifIXntsr10is_integerIT_EE5valueEiE4typeELi0EEEyS8_ = comdat any

$_ZN3fmt2v68internal13specs_handlerINS0_26basic_format_parse_contextIcNS1_13error_handlerEEENS0_20basic_format_contextISt20back_insert_iteratorINS1_6bufferIcEEEcEEE20on_dynamic_precisionIiEEvT_ = comdat any

$_ZN3fmt2v68internal13specs_handlerINS0_26basic_format_parse_contextIcNS1_13error_handlerEEENS0_20basic_format_contextISt20back_insert_iteratorINS1_6bufferIcEEEcEEE20on_dynamic_precisionINS0_17basic_string_viewIcEEEEvT_ = comdat any

$_ZN3fmt2v68internal21numeric_specs_checkerINS1_13specs_handlerINS0_26basic_format_parse_contextIcNS1_13error_handlerEEENS0_20basic_format_contextISt20back_insert_iteratorINS1_6bufferIcEEEcEEEEE15check_precisionEv = comdat any

$_ZSt13back_inserterIN3fmt2v68internal6bufferIcEEESt20back_insert_iteratorIT_ERS6_ = comdat any

$_ZNSt20back_insert_iteratorIN3fmt2v68internal6bufferIcEEEC2ERS4_ = comdat any

$_ZNK3fmt2v68internal6bufferIcE4dataEv = comdat any

$_ZN3fmt2v619basic_memory_bufferIcLm500ESaIcEE10deallocateEv = comdat any

$_ZN3fmt2v68internal19check_format_stringIJNSt7__cxx1112basic_stringIcSt11char_traitsIcESaIcEEEEA47_cTnNSt9enable_ifIXntsr17is_compile_stringIT0_EE5valueEiE4typeELi0EEEvRKSB_ = comdat any

$_ZN3fmt2v616format_arg_storeINS0_20basic_format_contextISt20back_insert_iteratorINS0_8internal6bufferIcEEEcEEJNSt7__cxx1112basic_stringIcSt11char_traitsIcESaIcEEEEEC2ERKSE_ = comdat any

$_ZN3fmt2v68internal8make_argILb1ENS0_20basic_format_contextISt20back_insert_iteratorINS1_6bufferIcEEEcEENSt7__cxx1112basic_stringIcSt11char_traitsIcESaIcEEETnNSt9enable_ifIXT_EiE4typeELi0EEENS1_5valueIT0_EERKT1_ = comdat any

$_ZN3fmt2v68internal10arg_mapperINS0_20basic_format_contextISt20back_insert_iteratorINS1_6bufferIcEEEcEEE3mapINSt7__cxx1112basic_stringIcSt11char_traitsIcESaIcEEETnNSt9enable_ifIXsr8internal9is_stringIT_EE5valueEiE4typeELi0EEENS0_17basic_string_viewIcEERKSI_ = comdat any

$_ZN3fmt2v68internal5valueINS0_20basic_format_contextISt20back_insert_iteratorINS1_6bufferIcEEEcEEEC2ENS0_17basic_string_viewIcEE = comdat any

$_ZN3fmt2v614to_string_viewIcSt11char_traitsIcESaIcEEENS0_17basic_string_viewIT_EERKNSt7__cxx1112basic_stringIS6_T0_T1_EE = comdat any

$_ZN3fmt2v617basic_string_viewIcEC2ISt11char_traitsIcESaIcEEERKNSt7__cxx1112basic_stringIcT_T0_EE = comdat any

$_ZN3fmt2v617basic_format_argsINS0_20basic_format_contextISt20back_insert_iteratorINS0_8internal6bufferIcEEEcEEE8set_dataEPKNS4_5valueIS8_EE = comdat any

$_ZNK6openmc17AngleDistribution5emptyEv = comdat any

$_ZNKSt10unique_ptrIN6openmc18EnergyDistributionESt14default_deleteIS1_EEptEv = comdat any

$_ZNKSt6vectorIdSaIdEE5emptyEv = comdat any

$_ZN9__gnu_cxxeqIPKdSt6vectorIdSaIdEEEEbRKNS_17__normal_iteratorIT_T0_EESB_ = comdat any

$_ZNKSt6vectorIdSaIdEE5beginEv = comdat any

$_ZNKSt6vectorIdSaIdEE3endEv = comdat any

$_ZNK9__gnu_cxx17__normal_iteratorIPKdSt6vectorIdSaIdEEE4baseEv = comdat any

$_ZN9__gnu_cxx17__normal_iteratorIPKdSt6vectorIdSaIdEEEC2ERKS2_ = comdat any

$_ZNKSt10unique_ptrIN6openmc18EnergyDistributionESt14default_deleteIS1_EE3getEv = comdat any

$_ZNKSt15__uniq_ptr_implIN6openmc18EnergyDistributionESt14default_deleteIS1_EE6_M_ptrEv = comdat any

$_ZSt3getILm0EJPN6openmc18EnergyDistributionESt14default_deleteIS1_EEERKNSt13tuple_elementIXT_ESt5tupleIJDpT0_EEE4typeERKS9_ = comdat any

$_ZSt12__get_helperILm0EPN6openmc18EnergyDistributionEJSt14default_deleteIS1_EEERKT0_RKSt11_Tuple_implIXT_EJS5_DpT1_EE = comdat any

$_ZNSt11_Tuple_implILm0EJPN6openmc18EnergyDistributionESt14default_deleteIS1_EEE7_M_headERKS5_ = comdat any

$_ZNSt10_Head_baseILm0EPN6openmc18EnergyDistributionELb0EE7_M_headERKS3_ = comdat any

$_ZN6openmc10DataBuffer3addIiEENSt9enable_ifIXsr3std9is_scalarINSt5decayIT_E4typeEEE5valueEvE4typeES4_ = comdat any

$_ZN6openmc13buffer_nbytesINS_17AngleDistributionEEEmRKT_ = comdat any

$_ZNKSt10unique_ptrIN6openmc18EnergyDistributionESt14default_deleteIS1_EEcvbEv = comdat any

$_ZN6openmc10DataBufferC2Ev = comdat any

$_ZNK6openmc10DataBuffer4sizeEv = comdat any

$_ZTIN6openmc11AngleEnergyE = comdat any

$_ZTSN6openmc11AngleEnergyE = comdat any

$_ZTVN6openmc11AngleEnergyE = comdat any

$_ZTVN3fmt2v619basic_memory_bufferIcLm500ESaIcEEE = comdat any

$_ZTIN3fmt2v619basic_memory_bufferIcLm500ESaIcEEE = comdat any

$_ZTSN3fmt2v619basic_memory_bufferIcLm500ESaIcEEE = comdat any

$_ZTISaIcE = comdat any

$_ZTSSaIcE = comdat any

$_ZTISt15__new_allocatorIcE = comdat any

$_ZTSSt15__new_allocatorIcE = comdat any

$_ZTIN3fmt2v68internal6bufferIcEE = comdat any

$_ZTSN3fmt2v68internal6bufferIcEE = comdat any

$_ZTVN3fmt2v68internal6bufferIcEE = comdat any

@dagmc = external global i8, align 1
@run_CE = external global i8, align 1
@max_lost_particles = external global i32, align 4
@gen_per_batch = external global i32, align 4
@n_particles = external global i64, align 8
@_ZTVN6openmc23UncorrelatedAngleEnergyE = unnamed_addr constant { [6 x ptr] } { [6 x ptr] [ptr null, ptr @_ZTIN6openmc23UncorrelatedAngleEnergyE, ptr @_ZNK6openmc23UncorrelatedAngleEnergy6sampleEdRdS1_Pm, ptr @_ZN6openmc23UncorrelatedAngleEnergyD2Ev, ptr @_ZN6openmc23UncorrelatedAngleEnergyD0Ev, ptr @_ZNK6openmc23UncorrelatedAngleEnergy9serializeERNS_10DataBufferE] }, align 8
@_ZTIN6openmc23UncorrelatedAngleEnergyE = constant { ptr, ptr, ptr } { ptr getelementptr inbounds (ptr, ptr @_ZTVN10__cxxabiv120__si_class_type_infoE, i64 2), ptr @_ZTSN6openmc23UncorrelatedAngleEnergyE, ptr @_ZTIN6openmc11AngleEnergyE }, align 8
@_ZTVN10__cxxabiv120__si_class_type_infoE = external global [0 x ptr]
@_ZTSN6openmc23UncorrelatedAngleEnergyE = constant [35 x i8] c"N6openmc23UncorrelatedAngleEnergyE\00", align 1
@_ZTIN6openmc11AngleEnergyE = linkonce_odr constant { ptr, ptr } { ptr getelementptr inbounds (ptr, ptr @_ZTVN10__cxxabiv117__class_type_infoE, i64 2), ptr @_ZTSN6openmc11AngleEnergyE }, comdat, align 8
@_ZTVN10__cxxabiv117__class_type_infoE = external global [0 x ptr]
@_ZTSN6openmc11AngleEnergyE = linkonce_odr constant [23 x i8] c"N6openmc11AngleEnergyE\00", comdat, align 1
@_ZStL8__ioinit = internal global %"class.std::ios_base::Init" zeroinitializer, align 1
@__dso_handle = external hidden global i8
@_ZN6openmcL12DEPLETION_RXE = internal constant %"struct.std::array" { [6 x i32] [i32 102, i32 103, i32 107, i32 16, i32 17, i32 37] }, align 4
@.str = private unnamed_addr constant [6 x i8] c"angle\00", align 1
@.str.1 = private unnamed_addr constant [7 x i8] c"energy\00", align 1
@.str.2 = private unnamed_addr constant [5 x i8] c"type\00", align 1
@.str.3 = private unnamed_addr constant [16 x i8] c"discrete_photon\00", align 1
@.str.4 = private unnamed_addr constant [6 x i8] c"level\00", align 1
@.str.5 = private unnamed_addr constant [11 x i8] c"continuous\00", align 1
@.str.6 = private unnamed_addr constant [8 x i8] c"maxwell\00", align 1
@.str.7 = private unnamed_addr constant [12 x i8] c"evaporation\00", align 1
@.str.8 = private unnamed_addr constant [5 x i8] c"watt\00", align 1
@.str.9 = private unnamed_addr constant [47 x i8] c"Energy distribution type '{}' not implemented.\00", align 1
@_ZTVN6openmc11AngleEnergyE = linkonce_odr unnamed_addr constant { [6 x ptr] } { [6 x ptr] [ptr null, ptr @_ZTIN6openmc11AngleEnergyE, ptr @__cxa_pure_virtual, ptr @_ZN6openmc11AngleEnergyD2Ev, ptr @_ZN6openmc11AngleEnergyD0Ev, ptr @__cxa_pure_virtual] }, comdat, align 8
@.str.10 = private unnamed_addr constant [50 x i8] c"basic_string: construction from null is not valid\00", align 1
@_ZTVN3fmt2v619basic_memory_bufferIcLm500ESaIcEEE = linkonce_odr unnamed_addr constant { [5 x ptr] } { [5 x ptr] [ptr null, ptr @_ZTIN3fmt2v619basic_memory_bufferIcLm500ESaIcEEE, ptr @_ZN3fmt2v619basic_memory_bufferIcLm500ESaIcEE4growEm, ptr @_ZN3fmt2v619basic_memory_bufferIcLm500ESaIcEED2Ev, ptr @_ZN3fmt2v619basic_memory_bufferIcLm500ESaIcEED0Ev] }, comdat, align 8
@_ZTIN3fmt2v619basic_memory_bufferIcLm500ESaIcEEE = linkonce_odr constant { ptr, ptr, i32, i32, ptr, i64, ptr, i64 } { ptr getelementptr inbounds (ptr, ptr @_ZTVN10__cxxabiv121__vmi_class_type_infoE, i64 2), ptr @_ZTSN3fmt2v619basic_memory_bufferIcLm500ESaIcEEE, i32 0, i32 2, ptr @_ZTISaIcE, i64 0, ptr @_ZTIN3fmt2v68internal6bufferIcEE, i64 2 }, comdat, align 8
@_ZTVN10__cxxabiv121__vmi_class_type_infoE = external global [0 x ptr]
@_ZTSN3fmt2v619basic_memory_bufferIcLm500ESaIcEEE = linkonce_odr constant [45 x i8] c"N3fmt2v619basic_memory_bufferIcLm500ESaIcEEE\00", comdat, align 1
@_ZTISaIcE = linkonce_odr constant { ptr, ptr, ptr } { ptr getelementptr inbounds (ptr, ptr @_ZTVN10__cxxabiv120__si_class_type_infoE, i64 2), ptr @_ZTSSaIcE, ptr @_ZTISt15__new_allocatorIcE }, comdat, align 8
@_ZTSSaIcE = linkonce_odr constant [6 x i8] c"SaIcE\00", comdat, align 1
@_ZTISt15__new_allocatorIcE = linkonce_odr constant { ptr, ptr } { ptr getelementptr inbounds (ptr, ptr @_ZTVN10__cxxabiv117__class_type_infoE, i64 2), ptr @_ZTSSt15__new_allocatorIcE }, comdat, align 8
@_ZTSSt15__new_allocatorIcE = linkonce_odr constant [23 x i8] c"St15__new_allocatorIcE\00", comdat, align 1
@_ZTIN3fmt2v68internal6bufferIcEE = linkonce_odr constant { ptr, ptr } { ptr getelementptr inbounds (ptr, ptr @_ZTVN10__cxxabiv117__class_type_infoE, i64 2), ptr @_ZTSN3fmt2v68internal6bufferIcEE }, comdat, align 8
@_ZTSN3fmt2v68internal6bufferIcEE = linkonce_odr constant [29 x i8] c"N3fmt2v68internal6bufferIcEE\00", comdat, align 1
@_ZTVN3fmt2v68internal6bufferIcEE = linkonce_odr unnamed_addr constant { [5 x ptr] } { [5 x ptr] [ptr null, ptr @_ZTIN3fmt2v68internal6bufferIcEE, ptr @__cxa_pure_virtual, ptr @_ZN3fmt2v68internal6bufferIcED2Ev, ptr @_ZN3fmt2v68internal6bufferIcED0Ev] }, comdat, align 8
@.str.11 = private unnamed_addr constant [22 x i8] c"invalid format string\00", align 1
@.str.12 = private unnamed_addr constant [25 x i8] c"unknown format specifier\00", align 1
@.str.13 = private unnamed_addr constant [29 x i8] c"missing '}' in format string\00", align 1
@.str.14 = private unnamed_addr constant [81 x i8] c"/g/g0/wright117/workspace/openmc/openmc-omp/openmc/vendor/fmt/include/fmt/core.h\00", align 1
@.str.15 = private unnamed_addr constant [15 x i8] c"negative value\00", align 1
@.str.16 = private unnamed_addr constant [31 x i8] c"unmatched '}' in format string\00", align 1
@.str.17 = private unnamed_addr constant [28 x i8] c"argument index out of range\00", align 1
@.str.18 = private unnamed_addr constant [57 x i8] c"cannot switch from manual to automatic argument indexing\00", align 1
@.str.19 = private unnamed_addr constant [22 x i8] c"invalid argument type\00", align 1
@_ZN3fmt2v68internal10basic_dataIvE23zero_or_powers_of_10_32E = external constant [0 x i32], align 4
@.str.20 = private unnamed_addr constant [83 x i8] c"/g/g0/wright117/workspace/openmc/openmc-omp/openmc/vendor/fmt/include/fmt/format.h\00", align 1
@.str.21 = private unnamed_addr constant [20 x i8] c"invalid digit count\00", align 1
@_ZN3fmt2v68internal10basic_dataIvE6digitsE = external constant [0 x i8], align 1
@.str.22 = private unnamed_addr constant [17 x i8] c"0123456789ABCDEF\00", align 1
@_ZN3fmt2v68internal10basic_dataIvE10hex_digitsE = external constant [0 x i8], align 1
@.str.23 = private unnamed_addr constant [23 x i8] c"invalid type specifier\00", align 1
@_ZTIN3fmt2v612format_errorE = external constant ptr
@_ZTVN3fmt2v612format_errorE = available_externally unnamed_addr constant { [5 x ptr] } { [5 x ptr] [ptr null, ptr @_ZTIN3fmt2v612format_errorE, ptr @_ZN3fmt2v612format_errorD1Ev, ptr @_ZN3fmt2v612format_errorD0Ev, ptr @_ZNKSt13runtime_error4whatEv] }, align 8
@_ZN3fmt2v68internal10basic_dataIvE23zero_or_powers_of_10_64E = external constant [0 x i64], align 8
@.str.24 = private unnamed_addr constant [5 x i8] c"true\00", align 1
@.str.25 = private unnamed_addr constant [6 x i8] c"false\00", align 1
@.str.26 = private unnamed_addr constant [34 x i8] c"invalid format specifier for char\00", align 1
@.str.27 = private unnamed_addr constant [4 x i8] c"INF\00", align 1
@.str.28 = private unnamed_addr constant [4 x i8] c"inf\00", align 1
@.str.29 = private unnamed_addr constant [4 x i8] c"NAN\00", align 1
@.str.30 = private unnamed_addr constant [4 x i8] c"nan\00", align 1
@_ZN3fmt2v68internal10basic_dataIvE5signsE = external constant [0 x i8], align 1
@.str.31 = private unnamed_addr constant [18 x i8] c"number is too big\00", align 1
@.str.32 = private unnamed_addr constant [22 x i8] c"exponent out of range\00", align 1
@.str.33 = private unnamed_addr constant [23 x i8] c"string pointer is null\00", align 1
@.str.34 = private unnamed_addr constant [1 x i8] zeroinitializer, align 1
@.str.35 = private unnamed_addr constant [57 x i8] c"cannot switch from automatic to manual argument indexing\00", align 1
@.str.36 = private unnamed_addr constant [19 x i8] c"argument not found\00", align 1
@.str.37 = private unnamed_addr constant [27 x i8] c"invalid fill character '{'\00", align 1
@.str.38 = private unnamed_addr constant [43 x i8] c"format specifier requires numeric argument\00", align 1
@.str.39 = private unnamed_addr constant [42 x i8] c"format specifier requires signed argument\00", align 1
@.str.40 = private unnamed_addr constant [15 x i8] c"negative width\00", align 1
@.str.41 = private unnamed_addr constant [21 x i8] c"width is not integer\00", align 1
@.str.42 = private unnamed_addr constant [28 x i8] c"missing precision specifier\00", align 1
@.str.43 = private unnamed_addr constant [19 x i8] c"negative precision\00", align 1
@.str.44 = private unnamed_addr constant [25 x i8] c"precision is not integer\00", align 1
@.str.45 = private unnamed_addr constant [45 x i8] c"precision not allowed for this argument type\00", align 1
@llvm.global_ctors = appending global [1 x { i32, ptr, ptr }] [{ i32, ptr, ptr } { i32 65535, ptr @_GLOBAL__sub_I_secondary_uncorrelated.cpp, ptr null }]

@_ZN6openmc23UncorrelatedAngleEnergyC1El = unnamed_addr alias void (ptr, i64), ptr @_ZN6openmc23UncorrelatedAngleEnergyC2El

; Function Attrs: mustprogress uwtable
define void @_ZNK6openmc23UncorrelatedAngleEnergy6sampleEdRdS1_Pm(ptr noundef nonnull align 8 dereferenceable(65) %this, double noundef %E_in, ptr noundef nonnull align 8 dereferenceable(8) %E_out, ptr noundef nonnull align 8 dereferenceable(8) %mu, ptr noundef %seed) unnamed_addr #0 align 2 {
entry:
  %this.addr = alloca ptr, align 8
  %E_in.addr = alloca double, align 8
  %E_out.addr = alloca ptr, align 8
  %mu.addr = alloca ptr, align 8
  %seed.addr = alloca ptr, align 8
  store ptr %this, ptr %this.addr, align 8, !tbaa !11
  store double %E_in, ptr %E_in.addr, align 8, !tbaa !16
  store ptr %E_out, ptr %E_out.addr, align 8, !tbaa !18
  store ptr %mu, ptr %mu.addr, align 8, !tbaa !18
  store ptr %seed, ptr %seed.addr, align 8, !tbaa !20
  %this1 = load ptr, ptr %this.addr, align 8
  %fission_ = getelementptr inbounds nuw %"class.openmc::UncorrelatedAngleEnergy", ptr %this1, i32 0, i32 3
  %0 = load i8, ptr %fission_, align 8, !tbaa !22, !range !43, !noundef !44
  %loadedv = trunc i8 %0 to i1
  br i1 %loadedv, label %if.then, label %if.else

if.then:                                          ; preds = %entry
  %1 = load ptr, ptr %mu.addr, align 8, !tbaa !18
  store double 1.000000e+00, ptr %1, align 8, !tbaa !16
  br label %if.end7

if.else:                                          ; preds = %entry
  %angle_ = getelementptr inbounds nuw %"class.openmc::UncorrelatedAngleEnergy", ptr %this1, i32 0, i32 1
  %call = call noundef zeroext i1 @_ZNK6openmc17AngleDistribution5emptyEv(ptr noundef nonnull align 8 dereferenceable(48) %angle_)
  br i1 %call, label %if.else5, label %if.then2

if.then2:                                         ; preds = %if.else
  %angle_3 = getelementptr inbounds nuw %"class.openmc::UncorrelatedAngleEnergy", ptr %this1, i32 0, i32 1
  %2 = load double, ptr %E_in.addr, align 8, !tbaa !16
  %3 = load ptr, ptr %seed.addr, align 8, !tbaa !20
  %call4 = call noundef double @_ZNK6openmc17AngleDistribution6sampleEdPm(ptr noundef nonnull align 8 dereferenceable(48) %angle_3, double noundef %2, ptr noundef %3)
  %4 = load ptr, ptr %mu.addr, align 8, !tbaa !18
  store double %call4, ptr %4, align 8, !tbaa !16
  br label %if.end

if.else5:                                         ; preds = %if.else
  %5 = load ptr, ptr %seed.addr, align 8, !tbaa !20
  %call6 = call noundef double @_ZN6openmc3prnEPm(ptr noundef %5)
  %6 = call double @llvm.fmuladd.f64(double 2.000000e+00, double %call6, double -1.000000e+00)
  %7 = load ptr, ptr %mu.addr, align 8, !tbaa !18
  store double %6, ptr %7, align 8, !tbaa !16
  br label %if.end

if.end:                                           ; preds = %if.else5, %if.then2
  br label %if.end7

if.end7:                                          ; preds = %if.end, %if.then
  %energy_ = getelementptr inbounds nuw %"class.openmc::UncorrelatedAngleEnergy", ptr %this1, i32 0, i32 2
  %call8 = call noundef ptr @_ZNKSt10unique_ptrIN6openmc18EnergyDistributionESt14default_deleteIS1_EEptEv(ptr noundef nonnull align 8 dereferenceable(8) %energy_) #5
  %8 = load double, ptr %E_in.addr, align 8, !tbaa !16
  %9 = load ptr, ptr %seed.addr, align 8, !tbaa !20
  %vtable = load ptr, ptr %call8, align 8, !tbaa !45
  %vfn = getelementptr inbounds ptr, ptr %vtable, i64 0
  %10 = load ptr, ptr %vfn, align 8
  %call9 = call noundef double %10(ptr noundef nonnull align 8 dereferenceable(8) %call8, double noundef %8, ptr noundef %9)
  %11 = load ptr, ptr %E_out.addr, align 8, !tbaa !18
  store double %call9, ptr %11, align 8, !tbaa !16
  ret void
}

; Function Attrs: inlinehint mustprogress nounwind uwtable
define linkonce_odr void @_ZN6openmc23UncorrelatedAngleEnergyD2Ev(ptr noundef nonnull align 8 dereferenceable(65) %this) unnamed_addr #1 comdat align 2 {
entry:
  %this.addr = alloca ptr, align 8
  store ptr %this, ptr %this.addr, align 8, !tbaa !11
  %this1 = load ptr, ptr %this.addr, align 8
  store ptr getelementptr inbounds inrange(-16, 32) ({ [6 x ptr] }, ptr @_ZTVN6openmc23UncorrelatedAngleEnergyE, i32 0, i32 0, i32 2), ptr %this1, align 8, !tbaa !45
  %energy_ = getelementptr inbounds nuw %"class.openmc::UncorrelatedAngleEnergy", ptr %this1, i32 0, i32 2
  call void @_ZNSt10unique_ptrIN6openmc18EnergyDistributionESt14default_deleteIS1_EED2Ev(ptr noundef nonnull align 8 dereferenceable(8) %energy_) #5
  %angle_ = getelementptr inbounds nuw %"class.openmc::UncorrelatedAngleEnergy", ptr %this1, i32 0, i32 1
  call void @_ZN6openmc17AngleDistributionD2Ev(ptr noundef nonnull align 8 dereferenceable(48) %angle_) #5
  call void @_ZN6openmc11AngleEnergyD2Ev(ptr noundef nonnull align 8 dereferenceable(8) %this1) #5
  ret void
}

; Function Attrs: inlinehint mustprogress nounwind uwtable
define linkonce_odr void @_ZN6openmc23UncorrelatedAngleEnergyD0Ev(ptr noundef nonnull align 8 dereferenceable(65) %this) unnamed_addr #1 comdat align 2 {
entry:
  %this.addr = alloca ptr, align 8
  store ptr %this, ptr %this.addr, align 8, !tbaa !11
  %this1 = load ptr, ptr %this.addr, align 8
  call void @_ZN6openmc23UncorrelatedAngleEnergyD2Ev(ptr noundef nonnull align 8 dereferenceable(65) %this1) #5
  call void @_ZdlPvm(ptr noundef %this1, i64 noundef 72) #21
  ret void
}

; Function Attrs: mustprogress uwtable
define void @_ZNK6openmc23UncorrelatedAngleEnergy9serializeERNS_10DataBufferE(ptr noundef nonnull align 8 dereferenceable(65) %this, ptr noundef nonnull align 8 dereferenceable(28) %buffer) unnamed_addr #0 align 2 {
entry:
  %this.addr = alloca ptr, align 8
  %buffer.addr = alloca ptr, align 8
  %bytes_angle = alloca i32, align 4
  %energy_offset = alloca i32, align 4
  store ptr %this, ptr %this.addr, align 8, !tbaa !11
  store ptr %buffer, ptr %buffer.addr, align 8, !tbaa !47
  %this1 = load ptr, ptr %this.addr, align 8
  %0 = load ptr, ptr %buffer.addr, align 8, !tbaa !47
  call void @_ZN6openmc10DataBuffer3addIiEENSt9enable_ifIXsr3std9is_scalarINSt5decayIT_E4typeEEE5valueEvE4typeES4_(ptr noundef nonnull align 8 dereferenceable(28) %0, i32 noundef 0)
  call void @llvm.lifetime.start.p0(i64 4, ptr %bytes_angle) #5
  %angle_ = getelementptr inbounds nuw %"class.openmc::UncorrelatedAngleEnergy", ptr %this1, i32 0, i32 1
  %call = call noundef i64 @_ZN6openmc13buffer_nbytesINS_17AngleDistributionEEEmRKT_(ptr noundef nonnull align 8 dereferenceable(48) %angle_)
  %conv = trunc i64 %call to i32
  store i32 %conv, ptr %bytes_angle, align 4, !tbaa !49
  call void @llvm.lifetime.start.p0(i64 4, ptr %energy_offset) #5
  %energy_ = getelementptr inbounds nuw %"class.openmc::UncorrelatedAngleEnergy", ptr %this1, i32 0, i32 2
  %call2 = call noundef zeroext i1 @_ZNKSt10unique_ptrIN6openmc18EnergyDistributionESt14default_deleteIS1_EEcvbEv(ptr noundef nonnull align 8 dereferenceable(8) %energy_) #5
  br i1 %call2, label %cond.true, label %cond.false

cond.true:                                        ; preds = %entry
  %1 = load i32, ptr %bytes_angle, align 4, !tbaa !49
  %add = add nsw i32 16, %1
  br label %cond.end

cond.false:                                       ; preds = %entry
  br label %cond.end

cond.end:                                         ; preds = %cond.false, %cond.true
  %cond = phi i32 [ %add, %cond.true ], [ 0, %cond.false ]
  store i32 %cond, ptr %energy_offset, align 4, !tbaa !49
  %2 = load ptr, ptr %buffer.addr, align 8, !tbaa !47
  %3 = load i32, ptr %energy_offset, align 4, !tbaa !49
  call void @_ZN6openmc10DataBuffer3addIiEENSt9enable_ifIXsr3std9is_scalarINSt5decayIT_E4typeEEE5valueEvE4typeES4_(ptr noundef nonnull align 8 dereferenceable(28) %2, i32 noundef %3)
  %4 = load ptr, ptr %buffer.addr, align 8, !tbaa !47
  %fission_ = getelementptr inbounds nuw %"class.openmc::UncorrelatedAngleEnergy", ptr %this1, i32 0, i32 3
  %5 = load i8, ptr %fission_, align 8, !tbaa !22, !range !43, !noundef !44
  %loadedv = trunc i8 %5 to i1
  %conv3 = zext i1 %loadedv to i32
  call void @_ZN6openmc10DataBuffer3addIiEENSt9enable_ifIXsr3std9is_scalarINSt5decayIT_E4typeEEE5valueEvE4typeES4_(ptr noundef nonnull align 8 dereferenceable(28) %4, i32 noundef %conv3)
  %6 = load ptr, ptr %buffer.addr, align 8, !tbaa !47
  call void @_ZN6openmc10DataBuffer5alignEi(ptr noundef nonnull align 8 dereferenceable(28) %6, i32 noundef 8)
  %angle_4 = getelementptr inbounds nuw %"class.openmc::UncorrelatedAngleEnergy", ptr %this1, i32 0, i32 1
  %7 = load ptr, ptr %buffer.addr, align 8, !tbaa !47
  call void @_ZNK6openmc17AngleDistribution9serializeERNS_10DataBufferE(ptr noundef nonnull align 8 dereferenceable(48) %angle_4, ptr noundef nonnull align 8 dereferenceable(28) %7)
  %energy_5 = getelementptr inbounds nuw %"class.openmc::UncorrelatedAngleEnergy", ptr %this1, i32 0, i32 2
  %call6 = call noundef zeroext i1 @_ZNKSt10unique_ptrIN6openmc18EnergyDistributionESt14default_deleteIS1_EEcvbEv(ptr noundef nonnull align 8 dereferenceable(8) %energy_5) #5
  br i1 %call6, label %if.then, label %if.end

if.then:                                          ; preds = %cond.end
  %energy_7 = getelementptr inbounds nuw %"class.openmc::UncorrelatedAngleEnergy", ptr %this1, i32 0, i32 2
  %call8 = call noundef ptr @_ZNKSt10unique_ptrIN6openmc18EnergyDistributionESt14default_deleteIS1_EEptEv(ptr noundef nonnull align 8 dereferenceable(8) %energy_7) #5
  %8 = load ptr, ptr %buffer.addr, align 8, !tbaa !47
  %vtable = load ptr, ptr %call8, align 8, !tbaa !45
  %vfn = getelementptr inbounds ptr, ptr %vtable, i64 1
  %9 = load ptr, ptr %vfn, align 8
  call void %9(ptr noundef nonnull align 8 dereferenceable(8) %call8, ptr noundef nonnull align 8 dereferenceable(28) %8)
  br label %if.end

if.end:                                           ; preds = %if.then, %cond.end
  call void @llvm.lifetime.end.p0(i64 4, ptr %energy_offset) #5
  call void @llvm.lifetime.end.p0(i64 4, ptr %bytes_angle) #5
  ret void
}

; Function Attrs: uwtable
define internal void @__cxx_global_var_init() #2 section ".text.startup" {
entry:
  call void @_ZNSt8ios_base4InitC1Ev(ptr noundef nonnull align 1 dereferenceable(1) @_ZStL8__ioinit)
  %0 = call i32 @__cxa_atexit(ptr @_ZNSt8ios_base4InitD1Ev, ptr @_ZStL8__ioinit, ptr @__dso_handle) #5
  ret void
}

declare void @_ZNSt8ios_base4InitC1Ev(ptr noundef nonnull align 1 dereferenceable(1)) unnamed_addr #3

; Function Attrs: nounwind
declare void @_ZNSt8ios_base4InitD1Ev(ptr noundef nonnull align 1 dereferenceable(1)) unnamed_addr #4

; Function Attrs: nounwind
declare i32 @__cxa_atexit(ptr, ptr, ptr) #5

; Function Attrs: mustprogress uwtable
define void @_ZN6openmc23UncorrelatedAngleEnergyC2El(ptr noundef nonnull align 8 dereferenceable(65) %this, i64 noundef %group) unnamed_addr #0 align 2 personality ptr @__gxx_personality_v0 {
entry:
  %this.addr = alloca ptr, align 8
  %group.addr = alloca i64, align 8
  %exn.slot = alloca ptr, align 8
  %ehselector.slot = alloca i32, align 4
  %angle_group = alloca i64, align 8
  %ref.tmp = alloca %"class.openmc::AngleDistribution", align 8
  %energy_group = alloca i64, align 8
  %type = alloca %"class.std::__cxx11::basic_string", align 8
  %ref.tmp21 = alloca %"class.std::unique_ptr", align 8
  %ref.tmp34 = alloca %"class.std::unique_ptr", align 8
  %ref.tmp48 = alloca %"class.std::unique_ptr", align 8
  %ref.tmp62 = alloca %"class.std::unique_ptr", align 8
  %ref.tmp76 = alloca %"class.std::unique_ptr", align 8
  %ref.tmp90 = alloca %"class.std::unique_ptr", align 8
  %ref.tmp101 = alloca %"class.std::__cxx11::basic_string", align 8
  store ptr %this, ptr %this.addr, align 8, !tbaa !11
  store i64 %group, ptr %group.addr, align 8, !tbaa !51
  %this1 = load ptr, ptr %this.addr, align 8
  call void @_ZN6openmc11AngleEnergyC2Ev(ptr noundef nonnull align 8 dereferenceable(8) %this1) #5
  store ptr getelementptr inbounds inrange(-16, 32) ({ [6 x ptr] }, ptr @_ZTVN6openmc23UncorrelatedAngleEnergyE, i32 0, i32 0, i32 2), ptr %this1, align 8, !tbaa !45
  %angle_ = getelementptr inbounds nuw %"class.openmc::UncorrelatedAngleEnergy", ptr %this1, i32 0, i32 1
  call void @_ZN6openmc17AngleDistributionC2Ev(ptr noundef nonnull align 8 dereferenceable(48) %angle_) #5
  %energy_ = getelementptr inbounds nuw %"class.openmc::UncorrelatedAngleEnergy", ptr %this1, i32 0, i32 2
  call void @_ZNSt10unique_ptrIN6openmc18EnergyDistributionESt14default_deleteIS1_EEC2IS3_vEEv(ptr noundef nonnull align 8 dereferenceable(8) %energy_) #5
  %fission_ = getelementptr inbounds nuw %"class.openmc::UncorrelatedAngleEnergy", ptr %this1, i32 0, i32 3
  store i8 0, ptr %fission_, align 8, !tbaa !22
  %0 = load i64, ptr %group.addr, align 8, !tbaa !51
  %call = invoke zeroext i1 @object_exists(i64 noundef %0, ptr noundef @.str)
          to label %invoke.cont unwind label %lpad

invoke.cont:                                      ; preds = %entry
  br i1 %call, label %if.then, label %if.end

if.then:                                          ; preds = %invoke.cont
  call void @llvm.lifetime.start.p0(i64 8, ptr %angle_group) #5
  %1 = load i64, ptr %group.addr, align 8, !tbaa !51
  %call4 = invoke i64 @open_group(i64 noundef %1, ptr noundef @.str)
          to label %invoke.cont3 unwind label %lpad2

invoke.cont3:                                     ; preds = %if.then
  store i64 %call4, ptr %angle_group, align 8, !tbaa !51
  call void @llvm.lifetime.start.p0(i64 48, ptr %ref.tmp) #5
  %2 = load i64, ptr %angle_group, align 8, !tbaa !51
  invoke void @_ZN6openmc17AngleDistributionC1El(ptr noundef nonnull align 8 dereferenceable(48) %ref.tmp, i64 noundef %2)
          to label %invoke.cont6 unwind label %lpad5

invoke.cont6:                                     ; preds = %invoke.cont3
  %angle_7 = getelementptr inbounds nuw %"class.openmc::UncorrelatedAngleEnergy", ptr %this1, i32 0, i32 1
  %call8 = call noundef nonnull align 8 dereferenceable(48) ptr @_ZN6openmc17AngleDistributionaSEOS0_(ptr noundef nonnull align 8 dereferenceable(48) %angle_7, ptr noundef nonnull align 8 dereferenceable(48) %ref.tmp) #5
  call void @_ZN6openmc17AngleDistributionD2Ev(ptr noundef nonnull align 8 dereferenceable(48) %ref.tmp) #5
  call void @llvm.lifetime.end.p0(i64 48, ptr %ref.tmp) #5
  %3 = load i64, ptr %angle_group, align 8, !tbaa !51
  invoke void @close_group(i64 noundef %3)
          to label %invoke.cont9 unwind label %lpad2

invoke.cont9:                                     ; preds = %invoke.cont6
  call void @llvm.lifetime.end.p0(i64 8, ptr %angle_group) #5
  br label %if.end

lpad:                                             ; preds = %if.end, %entry
  %4 = landingpad { ptr, i32 }
          cleanup
  %5 = extractvalue { ptr, i32 } %4, 0
  store ptr %5, ptr %exn.slot, align 8
  %6 = extractvalue { ptr, i32 } %4, 1
  store i32 %6, ptr %ehselector.slot, align 4
  br label %ehcleanup119

lpad2:                                            ; preds = %invoke.cont6, %if.then
  %7 = landingpad { ptr, i32 }
          cleanup
  %8 = extractvalue { ptr, i32 } %7, 0
  store ptr %8, ptr %exn.slot, align 8
  %9 = extractvalue { ptr, i32 } %7, 1
  store i32 %9, ptr %ehselector.slot, align 4
  br label %ehcleanup

lpad5:                                            ; preds = %invoke.cont3
  %10 = landingpad { ptr, i32 }
          cleanup
  %11 = extractvalue { ptr, i32 } %10, 0
  store ptr %11, ptr %exn.slot, align 8
  %12 = extractvalue { ptr, i32 } %10, 1
  store i32 %12, ptr %ehselector.slot, align 4
  call void @llvm.lifetime.end.p0(i64 48, ptr %ref.tmp) #5
  br label %ehcleanup

ehcleanup:                                        ; preds = %lpad5, %lpad2
  call void @llvm.lifetime.end.p0(i64 8, ptr %angle_group) #5
  br label %ehcleanup119

if.end:                                           ; preds = %invoke.cont9, %invoke.cont
  %13 = load i64, ptr %group.addr, align 8, !tbaa !51
  %call11 = invoke zeroext i1 @object_exists(i64 noundef %13, ptr noundef @.str.1)
          to label %invoke.cont10 unwind label %lpad

invoke.cont10:                                    ; preds = %if.end
  br i1 %call11, label %if.then12, label %if.end118

if.then12:                                        ; preds = %invoke.cont10
  call void @llvm.lifetime.start.p0(i64 8, ptr %energy_group) #5
  %14 = load i64, ptr %group.addr, align 8, !tbaa !51
  %call15 = invoke i64 @open_group(i64 noundef %14, ptr noundef @.str.1)
          to label %invoke.cont14 unwind label %lpad13

invoke.cont14:                                    ; preds = %if.then12
  store i64 %call15, ptr %energy_group, align 8, !tbaa !51
  call void @llvm.lifetime.start.p0(i64 32, ptr %type) #5
  call void @_ZNSt7__cxx1112basic_stringIcSt11char_traitsIcESaIcEEC2Ev(ptr noundef nonnull align 8 dereferenceable(32) %type) #5
  %15 = load i64, ptr %energy_group, align 8, !tbaa !51
  invoke void @_ZN6openmc14read_attributeElPKcRNSt7__cxx1112basic_stringIcSt11char_traitsIcESaIcEEE(i64 noundef %15, ptr noundef @.str.2, ptr noundef nonnull align 8 dereferenceable(32) %type)
          to label %invoke.cont17 unwind label %lpad16

invoke.cont17:                                    ; preds = %invoke.cont14
  %call19 = invoke noundef zeroext i1 @_ZSteqIcSt11char_traitsIcESaIcEEbRKNSt7__cxx1112basic_stringIT_T0_T1_EEPKS5_(ptr noundef nonnull align 8 dereferenceable(32) %type, ptr noundef @.str.3)
          to label %invoke.cont18 unwind label %lpad16

invoke.cont18:                                    ; preds = %invoke.cont17
  br i1 %call19, label %if.then20, label %if.else

if.then20:                                        ; preds = %invoke.cont18
  call void @llvm.lifetime.start.p0(i64 8, ptr %ref.tmp21) #5
  %call24 = invoke noalias noundef nonnull ptr @_Znwm(i64 noundef 32) #22
          to label %invoke.cont23 unwind label %lpad22

invoke.cont23:                                    ; preds = %if.then20
  %16 = load i64, ptr %energy_group, align 8, !tbaa !51
  invoke void @_ZN6openmc14DiscretePhotonC1El(ptr noundef nonnull align 8 dereferenceable(32) %call24, i64 noundef %16)
          to label %invoke.cont26 unwind label %lpad25

invoke.cont26:                                    ; preds = %invoke.cont23
  call void @_ZNSt10unique_ptrIN6openmc18EnergyDistributionESt14default_deleteIS1_EEC2IS3_vEEPS1_(ptr noundef nonnull align 8 dereferenceable(8) %ref.tmp21, ptr noundef %call24) #5
  %energy_28 = getelementptr inbounds nuw %"class.openmc::UncorrelatedAngleEnergy", ptr %this1, i32 0, i32 2
  %call29 = call noundef nonnull align 8 dereferenceable(8) ptr @_ZNSt10unique_ptrIN6openmc18EnergyDistributionESt14default_deleteIS1_EEaSEOS4_(ptr noundef nonnull align 8 dereferenceable(8) %energy_28, ptr noundef nonnull align 8 dereferenceable(8) %ref.tmp21) #5
  call void @_ZNSt10unique_ptrIN6openmc18EnergyDistributionESt14default_deleteIS1_EED2Ev(ptr noundef nonnull align 8 dereferenceable(8) %ref.tmp21) #5
  call void @llvm.lifetime.end.p0(i64 8, ptr %ref.tmp21) #5
  br label %if.end113

lpad13:                                           ; preds = %if.then12
  %17 = landingpad { ptr, i32 }
          cleanup
  %18 = extractvalue { ptr, i32 } %17, 0
  store ptr %18, ptr %exn.slot, align 8
  %19 = extractvalue { ptr, i32 } %17, 1
  store i32 %19, ptr %ehselector.slot, align 4
  br label %ehcleanup117

lpad16:                                           ; preds = %if.end113, %if.else86, %if.else72, %if.else58, %if.else44, %if.else, %invoke.cont17, %invoke.cont14
  %20 = landingpad { ptr, i32 }
          cleanup
  %21 = extractvalue { ptr, i32 } %20, 0
  store ptr %21, ptr %exn.slot, align 8
  %22 = extractvalue { ptr, i32 } %20, 1
  store i32 %22, ptr %ehselector.slot, align 4
  br label %ehcleanup115

lpad22:                                           ; preds = %if.then20
  %23 = landingpad { ptr, i32 }
          cleanup
  %24 = extractvalue { ptr, i32 } %23, 0
  store ptr %24, ptr %exn.slot, align 8
  %25 = extractvalue { ptr, i32 } %23, 1
  store i32 %25, ptr %ehselector.slot, align 4
  br label %ehcleanup30

lpad25:                                           ; preds = %invoke.cont23
  %26 = landingpad { ptr, i32 }
          cleanup
  %27 = extractvalue { ptr, i32 } %26, 0
  store ptr %27, ptr %exn.slot, align 8
  %28 = extractvalue { ptr, i32 } %26, 1
  store i32 %28, ptr %ehselector.slot, align 4
  call void @_ZdlPvm(ptr noundef %call24, i64 noundef 32) #21
  br label %ehcleanup30

ehcleanup30:                                      ; preds = %lpad25, %lpad22
  call void @llvm.lifetime.end.p0(i64 8, ptr %ref.tmp21) #5
  br label %ehcleanup115

if.else:                                          ; preds = %invoke.cont18
  %call32 = invoke noundef zeroext i1 @_ZSteqIcSt11char_traitsIcESaIcEEbRKNSt7__cxx1112basic_stringIT_T0_T1_EEPKS5_(ptr noundef nonnull align 8 dereferenceable(32) %type, ptr noundef @.str.4)
          to label %invoke.cont31 unwind label %lpad16

invoke.cont31:                                    ; preds = %if.else
  br i1 %call32, label %if.then33, label %if.else44

if.then33:                                        ; preds = %invoke.cont31
  call void @llvm.lifetime.start.p0(i64 8, ptr %ref.tmp34) #5
  %call37 = invoke noalias noundef nonnull ptr @_Znwm(i64 noundef 24) #22
          to label %invoke.cont36 unwind label %lpad35

invoke.cont36:                                    ; preds = %if.then33
  %29 = load i64, ptr %energy_group, align 8, !tbaa !51
  invoke void @_ZN6openmc14LevelInelasticC1El(ptr noundef nonnull align 8 dereferenceable(24) %call37, i64 noundef %29)
          to label %invoke.cont39 unwind label %lpad38

invoke.cont39:                                    ; preds = %invoke.cont36
  call void @_ZNSt10unique_ptrIN6openmc18EnergyDistributionESt14default_deleteIS1_EEC2IS3_vEEPS1_(ptr noundef nonnull align 8 dereferenceable(8) %ref.tmp34, ptr noundef %call37) #5
  %energy_41 = getelementptr inbounds nuw %"class.openmc::UncorrelatedAngleEnergy", ptr %this1, i32 0, i32 2
  %call42 = call noundef nonnull align 8 dereferenceable(8) ptr @_ZNSt10unique_ptrIN6openmc18EnergyDistributionESt14default_deleteIS1_EEaSEOS4_(ptr noundef nonnull align 8 dereferenceable(8) %energy_41, ptr noundef nonnull align 8 dereferenceable(8) %ref.tmp34) #5
  call void @_ZNSt10unique_ptrIN6openmc18EnergyDistributionESt14default_deleteIS1_EED2Ev(ptr noundef nonnull align 8 dereferenceable(8) %ref.tmp34) #5
  call void @llvm.lifetime.end.p0(i64 8, ptr %ref.tmp34) #5
  br label %if.end112

lpad35:                                           ; preds = %if.then33
  %30 = landingpad { ptr, i32 }
          cleanup
  %31 = extractvalue { ptr, i32 } %30, 0
  store ptr %31, ptr %exn.slot, align 8
  %32 = extractvalue { ptr, i32 } %30, 1
  store i32 %32, ptr %ehselector.slot, align 4
  br label %ehcleanup43

lpad38:                                           ; preds = %invoke.cont36
  %33 = landingpad { ptr, i32 }
          cleanup
  %34 = extractvalue { ptr, i32 } %33, 0
  store ptr %34, ptr %exn.slot, align 8
  %35 = extractvalue { ptr, i32 } %33, 1
  store i32 %35, ptr %ehselector.slot, align 4
  call void @_ZdlPvm(ptr noundef %call37, i64 noundef 24) #21
  br label %ehcleanup43

ehcleanup43:                                      ; preds = %lpad38, %lpad35
  call void @llvm.lifetime.end.p0(i64 8, ptr %ref.tmp34) #5
  br label %ehcleanup115

if.else44:                                        ; preds = %invoke.cont31
  %call46 = invoke noundef zeroext i1 @_ZSteqIcSt11char_traitsIcESaIcEEbRKNSt7__cxx1112basic_stringIT_T0_T1_EEPKS5_(ptr noundef nonnull align 8 dereferenceable(32) %type, ptr noundef @.str.5)
          to label %invoke.cont45 unwind label %lpad16

invoke.cont45:                                    ; preds = %if.else44
  br i1 %call46, label %if.then47, label %if.else58

if.then47:                                        ; preds = %invoke.cont45
  call void @llvm.lifetime.start.p0(i64 8, ptr %ref.tmp48) #5
  %call51 = invoke noalias noundef nonnull ptr @_Znwm(i64 noundef 112) #22
          to label %invoke.cont50 unwind label %lpad49

invoke.cont50:                                    ; preds = %if.then47
  %36 = load i64, ptr %energy_group, align 8, !tbaa !51
  invoke void @_ZN6openmc17ContinuousTabularC1El(ptr noundef nonnull align 8 dereferenceable(112) %call51, i64 noundef %36)
          to label %invoke.cont53 unwind label %lpad52

invoke.cont53:                                    ; preds = %invoke.cont50
  call void @_ZNSt10unique_ptrIN6openmc18EnergyDistributionESt14default_deleteIS1_EEC2IS3_vEEPS1_(ptr noundef nonnull align 8 dereferenceable(8) %ref.tmp48, ptr noundef %call51) #5
  %energy_55 = getelementptr inbounds nuw %"class.openmc::UncorrelatedAngleEnergy", ptr %this1, i32 0, i32 2
  %call56 = call noundef nonnull align 8 dereferenceable(8) ptr @_ZNSt10unique_ptrIN6openmc18EnergyDistributionESt14default_deleteIS1_EEaSEOS4_(ptr noundef nonnull align 8 dereferenceable(8) %energy_55, ptr noundef nonnull align 8 dereferenceable(8) %ref.tmp48) #5
  call void @_ZNSt10unique_ptrIN6openmc18EnergyDistributionESt14default_deleteIS1_EED2Ev(ptr noundef nonnull align 8 dereferenceable(8) %ref.tmp48) #5
  call void @llvm.lifetime.end.p0(i64 8, ptr %ref.tmp48) #5
  br label %if.end111

lpad49:                                           ; preds = %if.then47
  %37 = landingpad { ptr, i32 }
          cleanup
  %38 = extractvalue { ptr, i32 } %37, 0
  store ptr %38, ptr %exn.slot, align 8
  %39 = extractvalue { ptr, i32 } %37, 1
  store i32 %39, ptr %ehselector.slot, align 4
  br label %ehcleanup57

lpad52:                                           ; preds = %invoke.cont50
  %40 = landingpad { ptr, i32 }
          cleanup
  %41 = extractvalue { ptr, i32 } %40, 0
  store ptr %41, ptr %exn.slot, align 8
  %42 = extractvalue { ptr, i32 } %40, 1
  store i32 %42, ptr %ehselector.slot, align 4
  call void @_ZdlPvm(ptr noundef %call51, i64 noundef 112) #21
  br label %ehcleanup57

ehcleanup57:                                      ; preds = %lpad52, %lpad49
  call void @llvm.lifetime.end.p0(i64 8, ptr %ref.tmp48) #5
  br label %ehcleanup115

if.else58:                                        ; preds = %invoke.cont45
  %call60 = invoke noundef zeroext i1 @_ZSteqIcSt11char_traitsIcESaIcEEbRKNSt7__cxx1112basic_stringIT_T0_T1_EEPKS5_(ptr noundef nonnull align 8 dereferenceable(32) %type, ptr noundef @.str.6)
          to label %invoke.cont59 unwind label %lpad16

invoke.cont59:                                    ; preds = %if.else58
  br i1 %call60, label %if.then61, label %if.else72

if.then61:                                        ; preds = %invoke.cont59
  call void @llvm.lifetime.start.p0(i64 8, ptr %ref.tmp62) #5
  %call65 = invoke noalias noundef nonnull ptr @_Znwm(i64 noundef 136) #22
          to label %invoke.cont64 unwind label %lpad63

invoke.cont64:                                    ; preds = %if.then61
  %43 = load i64, ptr %energy_group, align 8, !tbaa !51
  invoke void @_ZN6openmc13MaxwellEnergyC1El(ptr noundef nonnull align 8 dereferenceable(136) %call65, i64 noundef %43)
          to label %invoke.cont67 unwind label %lpad66

invoke.cont67:                                    ; preds = %invoke.cont64
  call void @_ZNSt10unique_ptrIN6openmc18EnergyDistributionESt14default_deleteIS1_EEC2IS3_vEEPS1_(ptr noundef nonnull align 8 dereferenceable(8) %ref.tmp62, ptr noundef %call65) #5
  %energy_69 = getelementptr inbounds nuw %"class.openmc::UncorrelatedAngleEnergy", ptr %this1, i32 0, i32 2
  %call70 = call noundef nonnull align 8 dereferenceable(8) ptr @_ZNSt10unique_ptrIN6openmc18EnergyDistributionESt14default_deleteIS1_EEaSEOS4_(ptr noundef nonnull align 8 dereferenceable(8) %energy_69, ptr noundef nonnull align 8 dereferenceable(8) %ref.tmp62) #5
  call void @_ZNSt10unique_ptrIN6openmc18EnergyDistributionESt14default_deleteIS1_EED2Ev(ptr noundef nonnull align 8 dereferenceable(8) %ref.tmp62) #5
  call void @llvm.lifetime.end.p0(i64 8, ptr %ref.tmp62) #5
  br label %if.end110

lpad63:                                           ; preds = %if.then61
  %44 = landingpad { ptr, i32 }
          cleanup
  %45 = extractvalue { ptr, i32 } %44, 0
  store ptr %45, ptr %exn.slot, align 8
  %46 = extractvalue { ptr, i32 } %44, 1
  store i32 %46, ptr %ehselector.slot, align 4
  br label %ehcleanup71

lpad66:                                           ; preds = %invoke.cont64
  %47 = landingpad { ptr, i32 }
          cleanup
  %48 = extractvalue { ptr, i32 } %47, 0
  store ptr %48, ptr %exn.slot, align 8
  %49 = extractvalue { ptr, i32 } %47, 1
  store i32 %49, ptr %ehselector.slot, align 4
  call void @_ZdlPvm(ptr noundef %call65, i64 noundef 136) #21
  br label %ehcleanup71

ehcleanup71:                                      ; preds = %lpad66, %lpad63
  call void @llvm.lifetime.end.p0(i64 8, ptr %ref.tmp62) #5
  br label %ehcleanup115

if.else72:                                        ; preds = %invoke.cont59
  %call74 = invoke noundef zeroext i1 @_ZSteqIcSt11char_traitsIcESaIcEEbRKNSt7__cxx1112basic_stringIT_T0_T1_EEPKS5_(ptr noundef nonnull align 8 dereferenceable(32) %type, ptr noundef @.str.7)
          to label %invoke.cont73 unwind label %lpad16

invoke.cont73:                                    ; preds = %if.else72
  br i1 %call74, label %if.then75, label %if.else86

if.then75:                                        ; preds = %invoke.cont73
  call void @llvm.lifetime.start.p0(i64 8, ptr %ref.tmp76) #5
  %call79 = invoke noalias noundef nonnull ptr @_Znwm(i64 noundef 136) #22
          to label %invoke.cont78 unwind label %lpad77

invoke.cont78:                                    ; preds = %if.then75
  %50 = load i64, ptr %energy_group, align 8, !tbaa !51
  invoke void @_ZN6openmc11EvaporationC1El(ptr noundef nonnull align 8 dereferenceable(136) %call79, i64 noundef %50)
          to label %invoke.cont81 unwind label %lpad80

invoke.cont81:                                    ; preds = %invoke.cont78
  call void @_ZNSt10unique_ptrIN6openmc18EnergyDistributionESt14default_deleteIS1_EEC2IS3_vEEPS1_(ptr noundef nonnull align 8 dereferenceable(8) %ref.tmp76, ptr noundef %call79) #5
  %energy_83 = getelementptr inbounds nuw %"class.openmc::UncorrelatedAngleEnergy", ptr %this1, i32 0, i32 2
  %call84 = call noundef nonnull align 8 dereferenceable(8) ptr @_ZNSt10unique_ptrIN6openmc18EnergyDistributionESt14default_deleteIS1_EEaSEOS4_(ptr noundef nonnull align 8 dereferenceable(8) %energy_83, ptr noundef nonnull align 8 dereferenceable(8) %ref.tmp76) #5
  call void @_ZNSt10unique_ptrIN6openmc18EnergyDistributionESt14default_deleteIS1_EED2Ev(ptr noundef nonnull align 8 dereferenceable(8) %ref.tmp76) #5
  call void @llvm.lifetime.end.p0(i64 8, ptr %ref.tmp76) #5
  br label %if.end109

lpad77:                                           ; preds = %if.then75
  %51 = landingpad { ptr, i32 }
          cleanup
  %52 = extractvalue { ptr, i32 } %51, 0
  store ptr %52, ptr %exn.slot, align 8
  %53 = extractvalue { ptr, i32 } %51, 1
  store i32 %53, ptr %ehselector.slot, align 4
  br label %ehcleanup85

lpad80:                                           ; preds = %invoke.cont78
  %54 = landingpad { ptr, i32 }
          cleanup
  %55 = extractvalue { ptr, i32 } %54, 0
  store ptr %55, ptr %exn.slot, align 8
  %56 = extractvalue { ptr, i32 } %54, 1
  store i32 %56, ptr %ehselector.slot, align 4
  call void @_ZdlPvm(ptr noundef %call79, i64 noundef 136) #21
  br label %ehcleanup85

ehcleanup85:                                      ; preds = %lpad80, %lpad77
  call void @llvm.lifetime.end.p0(i64 8, ptr %ref.tmp76) #5
  br label %ehcleanup115

if.else86:                                        ; preds = %invoke.cont73
  %call88 = invoke noundef zeroext i1 @_ZSteqIcSt11char_traitsIcESaIcEEbRKNSt7__cxx1112basic_stringIT_T0_T1_EEPKS5_(ptr noundef nonnull align 8 dereferenceable(32) %type, ptr noundef @.str.8)
          to label %invoke.cont87 unwind label %lpad16

invoke.cont87:                                    ; preds = %if.else86
  br i1 %call88, label %if.then89, label %if.else100

if.then89:                                        ; preds = %invoke.cont87
  call void @llvm.lifetime.start.p0(i64 8, ptr %ref.tmp90) #5
  %call93 = invoke noalias noundef nonnull ptr @_Znwm(i64 noundef 256) #22
          to label %invoke.cont92 unwind label %lpad91

invoke.cont92:                                    ; preds = %if.then89
  %57 = load i64, ptr %energy_group, align 8, !tbaa !51
  invoke void @_ZN6openmc10WattEnergyC1El(ptr noundef nonnull align 8 dereferenceable(256) %call93, i64 noundef %57)
          to label %invoke.cont95 unwind label %lpad94

invoke.cont95:                                    ; preds = %invoke.cont92
  call void @_ZNSt10unique_ptrIN6openmc18EnergyDistributionESt14default_deleteIS1_EEC2IS3_vEEPS1_(ptr noundef nonnull align 8 dereferenceable(8) %ref.tmp90, ptr noundef %call93) #5
  %energy_97 = getelementptr inbounds nuw %"class.openmc::UncorrelatedAngleEnergy", ptr %this1, i32 0, i32 2
  %call98 = call noundef nonnull align 8 dereferenceable(8) ptr @_ZNSt10unique_ptrIN6openmc18EnergyDistributionESt14default_deleteIS1_EEaSEOS4_(ptr noundef nonnull align 8 dereferenceable(8) %energy_97, ptr noundef nonnull align 8 dereferenceable(8) %ref.tmp90) #5
  call void @_ZNSt10unique_ptrIN6openmc18EnergyDistributionESt14default_deleteIS1_EED2Ev(ptr noundef nonnull align 8 dereferenceable(8) %ref.tmp90) #5
  call void @llvm.lifetime.end.p0(i64 8, ptr %ref.tmp90) #5
  br label %if.end108

lpad91:                                           ; preds = %if.then89
  %58 = landingpad { ptr, i32 }
          cleanup
  %59 = extractvalue { ptr, i32 } %58, 0
  store ptr %59, ptr %exn.slot, align 8
  %60 = extractvalue { ptr, i32 } %58, 1
  store i32 %60, ptr %ehselector.slot, align 4
  br label %ehcleanup99

lpad94:                                           ; preds = %invoke.cont92
  %61 = landingpad { ptr, i32 }
          cleanup
  %62 = extractvalue { ptr, i32 } %61, 0
  store ptr %62, ptr %exn.slot, align 8
  %63 = extractvalue { ptr, i32 } %61, 1
  store i32 %63, ptr %ehselector.slot, align 4
  call void @_ZdlPvm(ptr noundef %call93, i64 noundef 256) #21
  br label %ehcleanup99

ehcleanup99:                                      ; preds = %lpad94, %lpad91
  call void @llvm.lifetime.end.p0(i64 8, ptr %ref.tmp90) #5
  br label %ehcleanup115

if.else100:                                       ; preds = %invoke.cont87
  call void @llvm.lifetime.start.p0(i64 32, ptr %ref.tmp101) #5
  invoke void @_ZN3fmt2v66formatIA47_cJRNSt7__cxx1112basic_stringIcSt11char_traitsIcESaIcEEEEcEENS4_IT1_S5_ISA_ESaISA_EEERKT_DpOT0_(ptr dead_on_unwind writable sret(%"class.std::__cxx11::basic_string") align 8 %ref.tmp101, ptr noundef nonnull align 1 dereferenceable(47) @.str.9, ptr noundef nonnull align 8 dereferenceable(32) %type)
          to label %invoke.cont103 unwind label %lpad102

invoke.cont103:                                   ; preds = %if.else100
  invoke void @_ZN6openmc7warningERKNSt7__cxx1112basic_stringIcSt11char_traitsIcESaIcEEE(ptr noundef nonnull align 8 dereferenceable(32) %ref.tmp101)
          to label %invoke.cont105 unwind label %lpad104

invoke.cont105:                                   ; preds = %invoke.cont103
  call void @_ZNSt7__cxx1112basic_stringIcSt11char_traitsIcESaIcEED2Ev(ptr noundef nonnull align 8 dereferenceable(32) %ref.tmp101) #5
  call void @llvm.lifetime.end.p0(i64 32, ptr %ref.tmp101) #5
  br label %if.end108

lpad102:                                          ; preds = %if.else100
  %64 = landingpad { ptr, i32 }
          cleanup
  %65 = extractvalue { ptr, i32 } %64, 0
  store ptr %65, ptr %exn.slot, align 8
  %66 = extractvalue { ptr, i32 } %64, 1
  store i32 %66, ptr %ehselector.slot, align 4
  br label %ehcleanup107

lpad104:                                          ; preds = %invoke.cont103
  %67 = landingpad { ptr, i32 }
          cleanup
  %68 = extractvalue { ptr, i32 } %67, 0
  store ptr %68, ptr %exn.slot, align 8
  %69 = extractvalue { ptr, i32 } %67, 1
  store i32 %69, ptr %ehselector.slot, align 4
  call void @_ZNSt7__cxx1112basic_stringIcSt11char_traitsIcESaIcEED2Ev(ptr noundef nonnull align 8 dereferenceable(32) %ref.tmp101) #5
  br label %ehcleanup107

ehcleanup107:                                     ; preds = %lpad104, %lpad102
  call void @llvm.lifetime.end.p0(i64 32, ptr %ref.tmp101) #5
  br label %ehcleanup115

if.end108:                                        ; preds = %invoke.cont105, %invoke.cont95
  br label %if.end109

if.end109:                                        ; preds = %if.end108, %invoke.cont81
  br label %if.end110

if.end110:                                        ; preds = %if.end109, %invoke.cont67
  br label %if.end111

if.end111:                                        ; preds = %if.end110, %invoke.cont53
  br label %if.end112

if.end112:                                        ; preds = %if.end111, %invoke.cont39
  br label %if.end113

if.end113:                                        ; preds = %if.end112, %invoke.cont26
  %70 = load i64, ptr %energy_group, align 8, !tbaa !51
  invoke void @close_group(i64 noundef %70)
          to label %invoke.cont114 unwind label %lpad16

invoke.cont114:                                   ; preds = %if.end113
  call void @_ZNSt7__cxx1112basic_stringIcSt11char_traitsIcESaIcEED2Ev(ptr noundef nonnull align 8 dereferenceable(32) %type) #5
  call void @llvm.lifetime.end.p0(i64 32, ptr %type) #5
  call void @llvm.lifetime.end.p0(i64 8, ptr %energy_group) #5
  br label %if.end118

ehcleanup115:                                     ; preds = %ehcleanup107, %ehcleanup99, %ehcleanup85, %ehcleanup71, %ehcleanup57, %ehcleanup43, %ehcleanup30, %lpad16
  call void @_ZNSt7__cxx1112basic_stringIcSt11char_traitsIcESaIcEED2Ev(ptr noundef nonnull align 8 dereferenceable(32) %type) #5
  call void @llvm.lifetime.end.p0(i64 32, ptr %type) #5
  br label %ehcleanup117

ehcleanup117:                                     ; preds = %ehcleanup115, %lpad13
  call void @llvm.lifetime.end.p0(i64 8, ptr %energy_group) #5
  br label %ehcleanup119

if.end118:                                        ; preds = %invoke.cont114, %invoke.cont10
  ret void

ehcleanup119:                                     ; preds = %ehcleanup117, %ehcleanup, %lpad
  call void @_ZNSt10unique_ptrIN6openmc18EnergyDistributionESt14default_deleteIS1_EED2Ev(ptr noundef nonnull align 8 dereferenceable(8) %energy_) #5
  call void @_ZN6openmc17AngleDistributionD2Ev(ptr noundef nonnull align 8 dereferenceable(48) %angle_) #5
  call void @_ZN6openmc11AngleEnergyD2Ev(ptr noundef nonnull align 8 dereferenceable(8) %this1) #5
  br label %eh.resume

eh.resume:                                        ; preds = %ehcleanup119
  %exn = load ptr, ptr %exn.slot, align 8
  %sel = load i32, ptr %ehselector.slot, align 4
  %lpad.val = insertvalue { ptr, i32 } poison, ptr %exn, 0
  %lpad.val122 = insertvalue { ptr, i32 } %lpad.val, i32 %sel, 1
  resume { ptr, i32 } %lpad.val122
}

; Function Attrs: inlinehint mustprogress nounwind uwtable
define linkonce_odr void @_ZN6openmc11AngleEnergyC2Ev(ptr noundef nonnull align 8 dereferenceable(8) %this) unnamed_addr #1 comdat align 2 {
entry:
  %this.addr = alloca ptr, align 8
  store ptr %this, ptr %this.addr, align 8, !tbaa !53
  %this1 = load ptr, ptr %this.addr, align 8
  store ptr getelementptr inbounds inrange(-16, 32) ({ [6 x ptr] }, ptr @_ZTVN6openmc11AngleEnergyE, i32 0, i32 0, i32 2), ptr %this1, align 8, !tbaa !45
  ret void
}

; Function Attrs: mustprogress nounwind uwtable
define linkonce_odr void @_ZN6openmc17AngleDistributionC2Ev(ptr noundef nonnull align 8 dereferenceable(48) %this) unnamed_addr #6 comdat align 2 {
entry:
  %this.addr = alloca ptr, align 8
  store ptr %this, ptr %this.addr, align 8, !tbaa !55
  %this1 = load ptr, ptr %this.addr, align 8
  %energy_ = getelementptr inbounds nuw %"class.openmc::AngleDistribution", ptr %this1, i32 0, i32 0
  call void @_ZNSt6vectorIdSaIdEEC2Ev(ptr noundef nonnull align 8 dereferenceable(24) %energy_) #5
  %distribution_ = getelementptr inbounds nuw %"class.openmc::AngleDistribution", ptr %this1, i32 0, i32 1
  call void @_ZNSt6vectorISt10unique_ptrIN6openmc7TabularESt14default_deleteIS2_EESaIS5_EEC2Ev(ptr noundef nonnull align 8 dereferenceable(24) %distribution_) #5
  ret void
}

; Function Attrs: mustprogress nounwind uwtable
define linkonce_odr void @_ZNSt10unique_ptrIN6openmc18EnergyDistributionESt14default_deleteIS1_EEC2IS3_vEEv(ptr noundef nonnull align 8 dereferenceable(8) %this) unnamed_addr #6 comdat align 2 {
entry:
  %this.addr = alloca ptr, align 8
  store ptr %this, ptr %this.addr, align 8, !tbaa !57
  %this1 = load ptr, ptr %this.addr, align 8
  %_M_t = getelementptr inbounds nuw %"class.std::unique_ptr", ptr %this1, i32 0, i32 0
  call void @llvm.memset.p0.i64(ptr align 8 %_M_t, i8 0, i64 8, i1 false)
  call void @_ZNSt15__uniq_ptr_dataIN6openmc18EnergyDistributionESt14default_deleteIS1_ELb1ELb1EEC2Ev(ptr noundef nonnull align 8 dereferenceable(8) %_M_t) #5
  ret void
}

declare zeroext i1 @object_exists(i64 noundef, ptr noundef) #3

declare i32 @__gxx_personality_v0(...)

; Function Attrs: nocallback nofree nosync nounwind willreturn memory(argmem: readwrite)
declare void @llvm.lifetime.start.p0(i64 immarg, ptr captures(none)) #7

declare i64 @open_group(i64 noundef, ptr noundef) #3

declare void @_ZN6openmc17AngleDistributionC1El(ptr noundef nonnull align 8 dereferenceable(48), i64 noundef) unnamed_addr #3

; Function Attrs: inlinehint mustprogress nounwind uwtable
define linkonce_odr noundef nonnull align 8 dereferenceable(48) ptr @_ZN6openmc17AngleDistributionaSEOS0_(ptr noundef nonnull align 8 dereferenceable(48) %this, ptr noundef nonnull align 8 dereferenceable(48) %0) #1 comdat align 2 {
entry:
  %this.addr = alloca ptr, align 8
  %.addr = alloca ptr, align 8
  store ptr %this, ptr %this.addr, align 8, !tbaa !55
  store ptr %0, ptr %.addr, align 8, !tbaa !55
  %this1 = load ptr, ptr %this.addr, align 8
  %energy_ = getelementptr inbounds nuw %"class.openmc::AngleDistribution", ptr %this1, i32 0, i32 0
  %1 = load ptr, ptr %.addr, align 8, !tbaa !55
  %energy_2 = getelementptr inbounds nuw %"class.openmc::AngleDistribution", ptr %1, i32 0, i32 0
  %call = call noundef nonnull align 8 dereferenceable(24) ptr @_ZNSt6vectorIdSaIdEEaSEOS1_(ptr noundef nonnull align 8 dereferenceable(24) %energy_, ptr noundef nonnull align 8 dereferenceable(24) %energy_2) #5
  %distribution_ = getelementptr inbounds nuw %"class.openmc::AngleDistribution", ptr %this1, i32 0, i32 1
  %2 = load ptr, ptr %.addr, align 8, !tbaa !55
  %distribution_3 = getelementptr inbounds nuw %"class.openmc::AngleDistribution", ptr %2, i32 0, i32 1
  %call4 = call noundef nonnull align 8 dereferenceable(24) ptr @_ZNSt6vectorISt10unique_ptrIN6openmc7TabularESt14default_deleteIS2_EESaIS5_EEaSEOS7_(ptr noundef nonnull align 8 dereferenceable(24) %distribution_, ptr noundef nonnull align 8 dereferenceable(24) %distribution_3) #5
  ret ptr %this1
}

; Function Attrs: inlinehint mustprogress nounwind uwtable
define linkonce_odr void @_ZN6openmc17AngleDistributionD2Ev(ptr noundef nonnull align 8 dereferenceable(48) %this) unnamed_addr #1 comdat align 2 {
entry:
  %this.addr = alloca ptr, align 8
  store ptr %this, ptr %this.addr, align 8, !tbaa !55
  %this1 = load ptr, ptr %this.addr, align 8
  %distribution_ = getelementptr inbounds nuw %"class.openmc::AngleDistribution", ptr %this1, i32 0, i32 1
  call void @_ZNSt6vectorISt10unique_ptrIN6openmc7TabularESt14default_deleteIS2_EESaIS5_EED2Ev(ptr noundef nonnull align 8 dereferenceable(24) %distribution_) #5
  %energy_ = getelementptr inbounds nuw %"class.openmc::AngleDistribution", ptr %this1, i32 0, i32 0
  call void @_ZNSt6vectorIdSaIdEED2Ev(ptr noundef nonnull align 8 dereferenceable(24) %energy_) #5
  ret void
}

; Function Attrs: nocallback nofree nosync nounwind willreturn memory(argmem: readwrite)
declare void @llvm.lifetime.end.p0(i64 immarg, ptr captures(none)) #7

declare void @close_group(i64 noundef) #3

; Function Attrs: mustprogress nounwind uwtable
define available_externally void @_ZNSt7__cxx1112basic_stringIcSt11char_traitsIcESaIcEEC2Ev(ptr noundef nonnull align 8 dereferenceable(32) %this) unnamed_addr #6 align 2 personality ptr @__gxx_personality_v0 {
entry:
  %this.addr = alloca ptr, align 8
  %ref.tmp = alloca %"class.std::allocator.7", align 1
  store ptr %this, ptr %this.addr, align 8, !tbaa !59
  %this1 = load ptr, ptr %this.addr, align 8
  %_M_dataplus = getelementptr inbounds nuw %"class.std::__cxx11::basic_string", ptr %this1, i32 0, i32 0
  %call = invoke noundef ptr @_ZNSt7__cxx1112basic_stringIcSt11char_traitsIcESaIcEE13_M_local_dataEv(ptr noundef nonnull align 8 dereferenceable(32) %this1)
          to label %invoke.cont unwind label %terminate.lpad

invoke.cont:                                      ; preds = %entry
  call void @llvm.lifetime.start.p0(i64 1, ptr %ref.tmp) #5
  call void @_ZNSaIcEC2Ev(ptr noundef nonnull align 1 dereferenceable(1) %ref.tmp) #5
  invoke void @_ZNSt7__cxx1112basic_stringIcSt11char_traitsIcESaIcEE12_Alloc_hiderC2EPcOS3_(ptr noundef nonnull align 8 dereferenceable(8) %_M_dataplus, ptr noundef %call, ptr noundef nonnull align 1 dereferenceable(1) %ref.tmp)
          to label %invoke.cont2 unwind label %terminate.lpad

invoke.cont2:                                     ; preds = %invoke.cont
  call void @_ZNSt15__new_allocatorIcED2Ev(ptr noundef nonnull align 1 dereferenceable(1) %ref.tmp) #5
  call void @llvm.lifetime.end.p0(i64 1, ptr %ref.tmp) #5
  %call3 = call noundef ptr @_ZNSt7__cxx1112basic_stringIcSt11char_traitsIcESaIcEE17_M_use_local_dataEv(ptr noundef nonnull align 8 dereferenceable(32) %this1) #5
  invoke void @_ZNSt7__cxx1112basic_stringIcSt11char_traitsIcESaIcEE13_M_set_lengthEm(ptr noundef nonnull align 8 dereferenceable(32) %this1, i64 noundef 0)
          to label %invoke.cont4 unwind label %terminate.lpad

invoke.cont4:                                     ; preds = %invoke.cont2
  ret void

terminate.lpad:                                   ; preds = %invoke.cont2, %invoke.cont, %entry
  %0 = landingpad { ptr, i32 }
          catch ptr null
  %1 = extractvalue { ptr, i32 } %0, 0
  call void @__clang_call_terminate(ptr %1) #23
  unreachable
}

; Function Attrs: inlinehint mustprogress uwtable
define linkonce_odr void @_ZN6openmc14read_attributeElPKcRNSt7__cxx1112basic_stringIcSt11char_traitsIcESaIcEEE(i64 noundef %obj_id, ptr noundef %name, ptr noundef nonnull align 8 dereferenceable(32) %str) #8 comdat personality ptr @__gxx_personality_v0 {
entry:
  %obj_id.addr = alloca i64, align 8
  %name.addr = alloca ptr, align 8
  %str.addr = alloca ptr, align 8
  %n = alloca i64, align 8
  %buffer = alloca ptr, align 8
  %ref.tmp = alloca %"class.std::__cxx11::basic_string", align 8
  %ref.tmp2 = alloca %"class.std::allocator.7", align 1
  %exn.slot = alloca ptr, align 8
  %ehselector.slot = alloca i32, align 4
  store i64 %obj_id, ptr %obj_id.addr, align 8, !tbaa !51
  store ptr %name, ptr %name.addr, align 8, !tbaa !61
  store ptr %str, ptr %str.addr, align 8, !tbaa !59
  call void @llvm.lifetime.start.p0(i64 8, ptr %n) #5
  %0 = load i64, ptr %obj_id.addr, align 8, !tbaa !51
  %1 = load ptr, ptr %name.addr, align 8, !tbaa !61
  %call = call i64 @attribute_typesize(i64 noundef %0, ptr noundef %1)
  store i64 %call, ptr %n, align 8, !tbaa !51
  call void @llvm.lifetime.start.p0(i64 8, ptr %buffer) #5
  %2 = load i64, ptr %n, align 8, !tbaa !51
  %call1 = call noalias noundef nonnull ptr @_Znam(i64 noundef %2) #22
  store ptr %call1, ptr %buffer, align 8, !tbaa !61
  %3 = load i64, ptr %obj_id.addr, align 8, !tbaa !51
  %4 = load ptr, ptr %name.addr, align 8, !tbaa !61
  %5 = load i64, ptr %n, align 8, !tbaa !51
  %6 = load ptr, ptr %buffer, align 8, !tbaa !61
  call void @read_attr_string(i64 noundef %3, ptr noundef %4, i64 noundef %5, ptr noundef %6)
  call void @llvm.lifetime.start.p0(i64 32, ptr %ref.tmp) #5
  %7 = load ptr, ptr %buffer, align 8, !tbaa !61
  %8 = load i64, ptr %n, align 8, !tbaa !51
  call void @llvm.lifetime.start.p0(i64 1, ptr %ref.tmp2) #5
  call void @_ZNSaIcEC2Ev(ptr noundef nonnull align 1 dereferenceable(1) %ref.tmp2) #5
  invoke void @_ZNSt7__cxx1112basic_stringIcSt11char_traitsIcESaIcEEC2EPKcmRKS3_(ptr noundef nonnull align 8 dereferenceable(32) %ref.tmp, ptr noundef %7, i64 noundef %8, ptr noundef nonnull align 1 dereferenceable(1) %ref.tmp2)
          to label %invoke.cont unwind label %lpad

invoke.cont:                                      ; preds = %entry
  %9 = load ptr, ptr %str.addr, align 8, !tbaa !59
  %call3 = call noundef nonnull align 8 dereferenceable(32) ptr @_ZNSt7__cxx1112basic_stringIcSt11char_traitsIcESaIcEEaSEOS4_(ptr noundef nonnull align 8 dereferenceable(32) %9, ptr noundef nonnull align 8 dereferenceable(32) %ref.tmp) #5
  call void @_ZNSt7__cxx1112basic_stringIcSt11char_traitsIcESaIcEED2Ev(ptr noundef nonnull align 8 dereferenceable(32) %ref.tmp) #5
  call void @_ZNSt15__new_allocatorIcED2Ev(ptr noundef nonnull align 1 dereferenceable(1) %ref.tmp2) #5
  call void @llvm.lifetime.end.p0(i64 1, ptr %ref.tmp2) #5
  call void @llvm.lifetime.end.p0(i64 32, ptr %ref.tmp) #5
  %10 = load ptr, ptr %buffer, align 8, !tbaa !61
  %isnull = icmp eq ptr %10, null
  br i1 %isnull, label %delete.end, label %delete.notnull

delete.notnull:                                   ; preds = %invoke.cont
  call void @_ZdaPv(ptr noundef %10) #21
  br label %delete.end

delete.end:                                       ; preds = %delete.notnull, %invoke.cont
  call void @llvm.lifetime.end.p0(i64 8, ptr %buffer) #5
  call void @llvm.lifetime.end.p0(i64 8, ptr %n) #5
  ret void

lpad:                                             ; preds = %entry
  %11 = landingpad { ptr, i32 }
          cleanup
  %12 = extractvalue { ptr, i32 } %11, 0
  store ptr %12, ptr %exn.slot, align 8
  %13 = extractvalue { ptr, i32 } %11, 1
  store i32 %13, ptr %ehselector.slot, align 4
  call void @_ZNSt15__new_allocatorIcED2Ev(ptr noundef nonnull align 1 dereferenceable(1) %ref.tmp2) #5
  call void @llvm.lifetime.end.p0(i64 1, ptr %ref.tmp2) #5
  call void @llvm.lifetime.end.p0(i64 32, ptr %ref.tmp) #5
  call void @llvm.lifetime.end.p0(i64 8, ptr %buffer) #5
  call void @llvm.lifetime.end.p0(i64 8, ptr %n) #5
  br label %eh.resume

eh.resume:                                        ; preds = %lpad
  %exn = load ptr, ptr %exn.slot, align 8
  %sel = load i32, ptr %ehselector.slot, align 4
  %lpad.val = insertvalue { ptr, i32 } poison, ptr %exn, 0
  %lpad.val4 = insertvalue { ptr, i32 } %lpad.val, i32 %sel, 1
  resume { ptr, i32 } %lpad.val4
}

; Function Attrs: inlinehint mustprogress nounwind uwtable
define linkonce_odr noundef zeroext i1 @_ZSteqIcSt11char_traitsIcESaIcEEbRKNSt7__cxx1112basic_stringIT_T0_T1_EEPKS5_(ptr noundef nonnull align 8 dereferenceable(32) %__lhs, ptr noundef %__rhs) #1 comdat {
entry:
  %__lhs.addr = alloca ptr, align 8
  %__rhs.addr = alloca ptr, align 8
  store ptr %__lhs, ptr %__lhs.addr, align 8, !tbaa !59
  store ptr %__rhs, ptr %__rhs.addr, align 8, !tbaa !61
  %0 = load ptr, ptr %__lhs.addr, align 8, !tbaa !59
  %1 = load ptr, ptr %__rhs.addr, align 8, !tbaa !61
  %call = call noundef i32 @_ZNKSt7__cxx1112basic_stringIcSt11char_traitsIcESaIcEE7compareEPKc(ptr noundef nonnull align 8 dereferenceable(32) %0, ptr noundef %1) #5
  %cmp = icmp eq i32 %call, 0
  ret i1 %cmp
}

; Function Attrs: nobuiltin allocsize(0)
declare noundef nonnull ptr @_Znwm(i64 noundef) #9

declare void @_ZN6openmc14DiscretePhotonC1El(ptr noundef nonnull align 8 dereferenceable(32), i64 noundef) unnamed_addr #3

; Function Attrs: nobuiltin nounwind
declare void @_ZdlPvm(ptr noundef, i64 noundef) #10

; Function Attrs: mustprogress nounwind uwtable
define linkonce_odr void @_ZNSt10unique_ptrIN6openmc18EnergyDistributionESt14default_deleteIS1_EEC2IS3_vEEPS1_(ptr noundef nonnull align 8 dereferenceable(8) %this, ptr noundef %__p) unnamed_addr #6 comdat align 2 personality ptr @__gxx_personality_v0 {
entry:
  %this.addr = alloca ptr, align 8
  %__p.addr = alloca ptr, align 8
  store ptr %this, ptr %this.addr, align 8, !tbaa !57
  store ptr %__p, ptr %__p.addr, align 8, !tbaa !63
  %this1 = load ptr, ptr %this.addr, align 8
  %_M_t = getelementptr inbounds nuw %"class.std::unique_ptr", ptr %this1, i32 0, i32 0
  %0 = load ptr, ptr %__p.addr, align 8, !tbaa !63
  invoke void @_ZNSt15__uniq_ptr_dataIN6openmc18EnergyDistributionESt14default_deleteIS1_ELb1ELb1EECI2St15__uniq_ptr_implIS1_S3_EEPS1_(ptr noundef nonnull align 8 dereferenceable(8) %_M_t, ptr noundef %0)
          to label %invoke.cont unwind label %terminate.lpad

invoke.cont:                                      ; preds = %entry
  ret void

terminate.lpad:                                   ; preds = %entry
  %1 = landingpad { ptr, i32 }
          catch ptr null
  %2 = extractvalue { ptr, i32 } %1, 0
  call void @__clang_call_terminate(ptr %2) #23
  unreachable
}

; Function Attrs: mustprogress nounwind uwtable
define linkonce_odr noundef nonnull align 8 dereferenceable(8) ptr @_ZNSt10unique_ptrIN6openmc18EnergyDistributionESt14default_deleteIS1_EEaSEOS4_(ptr noundef nonnull align 8 dereferenceable(8) %this, ptr noundef nonnull align 8 dereferenceable(8) %0) #6 comdat align 2 {
entry:
  %this.addr = alloca ptr, align 8
  %.addr = alloca ptr, align 8
  store ptr %this, ptr %this.addr, align 8, !tbaa !57
  store ptr %0, ptr %.addr, align 8, !tbaa !57
  %this1 = load ptr, ptr %this.addr, align 8
  %_M_t = getelementptr inbounds nuw %"class.std::unique_ptr", ptr %this1, i32 0, i32 0
  %1 = load ptr, ptr %.addr, align 8, !tbaa !57
  %_M_t2 = getelementptr inbounds nuw %"class.std::unique_ptr", ptr %1, i32 0, i32 0
  %call = call noundef nonnull align 8 dereferenceable(8) ptr @_ZNSt15__uniq_ptr_dataIN6openmc18EnergyDistributionESt14default_deleteIS1_ELb1ELb1EEaSEOS4_(ptr noundef nonnull align 8 dereferenceable(8) %_M_t, ptr noundef nonnull align 8 dereferenceable(8) %_M_t2) #5
  ret ptr %this1
}

; Function Attrs: mustprogress nounwind uwtable
define linkonce_odr void @_ZNSt10unique_ptrIN6openmc18EnergyDistributionESt14default_deleteIS1_EED2Ev(ptr noundef nonnull align 8 dereferenceable(8) %this) unnamed_addr #6 comdat align 2 {
entry:
  %this.addr = alloca ptr, align 8
  %__ptr = alloca ptr, align 8
  store ptr %this, ptr %this.addr, align 8, !tbaa !57
  %this1 = load ptr, ptr %this.addr, align 8
  call void @llvm.lifetime.start.p0(i64 8, ptr %__ptr) #5
  %_M_t = getelementptr inbounds nuw %"class.std::unique_ptr", ptr %this1, i32 0, i32 0
  %call = call noundef nonnull align 8 dereferenceable(8) ptr @_ZNSt15__uniq_ptr_implIN6openmc18EnergyDistributionESt14default_deleteIS1_EE6_M_ptrEv(ptr noundef nonnull align 8 dereferenceable(8) %_M_t) #5
  store ptr %call, ptr %__ptr, align 8, !tbaa !64
  %0 = load ptr, ptr %__ptr, align 8, !tbaa !64
  %1 = load ptr, ptr %0, align 8, !tbaa !63
  %cmp = icmp ne ptr %1, null
  br i1 %cmp, label %if.then, label %if.end

if.then:                                          ; preds = %entry
  %call2 = call noundef nonnull align 1 dereferenceable(1) ptr @_ZNSt10unique_ptrIN6openmc18EnergyDistributionESt14default_deleteIS1_EE11get_deleterEv(ptr noundef nonnull align 8 dereferenceable(8) %this1) #5
  %2 = load ptr, ptr %__ptr, align 8, !tbaa !64
  %3 = load ptr, ptr %2, align 8, !tbaa !63
  call void @_ZNKSt14default_deleteIN6openmc18EnergyDistributionEEclEPS1_(ptr noundef nonnull align 1 dereferenceable(1) %call2, ptr noundef %3)
  br label %if.end

if.end:                                           ; preds = %if.then, %entry
  %4 = load ptr, ptr %__ptr, align 8, !tbaa !64
  store ptr null, ptr %4, align 8, !tbaa !63
  call void @llvm.lifetime.end.p0(i64 8, ptr %__ptr) #5
  ret void
}

declare void @_ZN6openmc14LevelInelasticC1El(ptr noundef nonnull align 8 dereferenceable(24), i64 noundef) unnamed_addr #3

declare void @_ZN6openmc17ContinuousTabularC1El(ptr noundef nonnull align 8 dereferenceable(112), i64 noundef) unnamed_addr #3

declare void @_ZN6openmc13MaxwellEnergyC1El(ptr noundef nonnull align 8 dereferenceable(136), i64 noundef) unnamed_addr #3

declare void @_ZN6openmc11EvaporationC1El(ptr noundef nonnull align 8 dereferenceable(136), i64 noundef) unnamed_addr #3

declare void @_ZN6openmc10WattEnergyC1El(ptr noundef nonnull align 8 dereferenceable(256), i64 noundef) unnamed_addr #3

declare void @_ZN6openmc7warningERKNSt7__cxx1112basic_stringIcSt11char_traitsIcESaIcEEE(ptr noundef nonnull align 8 dereferenceable(32)) #3

; Function Attrs: inlinehint mustprogress uwtable
define linkonce_odr void @_ZN3fmt2v66formatIA47_cJRNSt7__cxx1112basic_stringIcSt11char_traitsIcESaIcEEEEcEENS4_IT1_S5_ISA_ESaISA_EEERKT_DpOT0_(ptr dead_on_unwind noalias writable sret(%"class.std::__cxx11::basic_string") align 8 %agg.result, ptr noundef nonnull align 1 dereferenceable(47) %format_str, ptr noundef nonnull align 8 dereferenceable(32) %args) #8 comdat {
entry:
  %result.ptr = alloca ptr, align 8
  %format_str.addr = alloca ptr, align 8
  %args.addr = alloca ptr, align 8
  %agg.tmp = alloca %"class.fmt::v6::basic_string_view", align 8
  %agg.tmp1 = alloca %"class.fmt::v6::basic_format_args", align 8
  %ref.tmp = alloca %"class.fmt::v6::format_arg_store", align 16
  store ptr %agg.result, ptr %result.ptr, align 8
  store ptr %format_str, ptr %format_str.addr, align 8, !tbaa !61
  store ptr %args, ptr %args.addr, align 8, !tbaa !59
  %0 = load ptr, ptr %format_str.addr, align 8, !tbaa !61
  %arraydecay = getelementptr inbounds [47 x i8], ptr %0, i64 0, i64 0
  %call = call { ptr, i64 } @_ZN3fmt2v614to_string_viewIcTnNSt9enable_ifIXsr7is_charIT_EE5valueEiE4typeELi0EEENS0_17basic_string_viewIS3_EEPKS3_(ptr noundef %arraydecay)
  %1 = getelementptr inbounds nuw { ptr, i64 }, ptr %agg.tmp, i32 0, i32 0
  %2 = extractvalue { ptr, i64 } %call, 0
  store ptr %2, ptr %1, align 8
  %3 = getelementptr inbounds nuw { ptr, i64 }, ptr %agg.tmp, i32 0, i32 1
  %4 = extractvalue { ptr, i64 } %call, 1
  store i64 %4, ptr %3, align 8
  call void @llvm.lifetime.start.p0(i64 16, ptr %ref.tmp) #5
  %5 = load ptr, ptr %format_str.addr, align 8, !tbaa !61
  %6 = load ptr, ptr %args.addr, align 8, !tbaa !59
  %call2 = call { i64, i64 } @_ZN3fmt2v68internal17make_args_checkedIJRNSt7__cxx1112basic_stringIcSt11char_traitsIcESaIcEEEEA47_ccEENS0_16format_arg_storeINS0_20basic_format_contextISt20back_insert_iteratorINS1_6bufferIT1_EEESF_EEJDpNSt16remove_referenceIT_E4typeEEEERKT0_DpRKSM_(ptr noundef nonnull align 1 dereferenceable(47) %5, ptr noundef nonnull align 8 dereferenceable(32) %6)
  %coerce.dive = getelementptr inbounds nuw %"class.fmt::v6::format_arg_store", ptr %ref.tmp, i32 0, i32 0
  %7 = getelementptr inbounds nuw { i64, i64 }, ptr %coerce.dive, i32 0, i32 0
  %8 = extractvalue { i64, i64 } %call2, 0
  store i64 %8, ptr %7, align 16
  %9 = getelementptr inbounds nuw { i64, i64 }, ptr %coerce.dive, i32 0, i32 1
  %10 = extractvalue { i64, i64 } %call2, 1
  store i64 %10, ptr %9, align 8
  call void @_ZN3fmt2v617basic_format_argsINS0_20basic_format_contextISt20back_insert_iteratorINS0_8internal6bufferIcEEEcEEEC2IJNSt7__cxx1112basic_stringIcSt11char_traitsIcESaIcEEEEEERKNS0_16format_arg_storeIS8_JDpT_EEE(ptr noundef nonnull align 8 dereferenceable(16) %agg.tmp1, ptr noundef nonnull align 16 dereferenceable(16) %ref.tmp)
  %11 = getelementptr inbounds nuw { ptr, i64 }, ptr %agg.tmp, i32 0, i32 0
  %12 = load ptr, ptr %11, align 8
  %13 = getelementptr inbounds nuw { ptr, i64 }, ptr %agg.tmp, i32 0, i32 1
  %14 = load i64, ptr %13, align 8
  %15 = getelementptr inbounds nuw { i64, ptr }, ptr %agg.tmp1, i32 0, i32 0
  %16 = load i64, ptr %15, align 8
  %17 = getelementptr inbounds nuw { i64, ptr }, ptr %agg.tmp1, i32 0, i32 1
  %18 = load ptr, ptr %17, align 8
  call void @_ZN3fmt2v68internal7vformatIcEENSt7__cxx1112basic_stringIT_St11char_traitsIS5_ESaIS5_EEENS0_17basic_string_viewIS5_EENS0_17basic_format_argsINS0_20basic_format_contextISt20back_insert_iteratorINS1_6bufferIS5_EEES5_EEEE(ptr dead_on_unwind writable sret(%"class.std::__cxx11::basic_string") align 8 %agg.result, ptr %12, i64 %14, i64 %16, ptr %18)
  call void @llvm.lifetime.end.p0(i64 16, ptr %ref.tmp) #5
  ret void
}

; Function Attrs: mustprogress nounwind uwtable
define available_externally void @_ZNSt7__cxx1112basic_stringIcSt11char_traitsIcESaIcEED2Ev(ptr noundef nonnull align 8 dereferenceable(32) %this) unnamed_addr #6 align 2 personality ptr @__gxx_personality_v0 {
entry:
  %this.addr = alloca ptr, align 8
  store ptr %this, ptr %this.addr, align 8, !tbaa !59
  %this1 = load ptr, ptr %this.addr, align 8
  invoke void @_ZNSt7__cxx1112basic_stringIcSt11char_traitsIcESaIcEE10_M_disposeEv(ptr noundef nonnull align 8 dereferenceable(32) %this1)
          to label %invoke.cont unwind label %terminate.lpad

invoke.cont:                                      ; preds = %entry
  %_M_dataplus = getelementptr inbounds nuw %"class.std::__cxx11::basic_string", ptr %this1, i32 0, i32 0
  call void @_ZNSt15__new_allocatorIcED2Ev(ptr noundef nonnull align 8 dereferenceable(8) %_M_dataplus) #5
  ret void

terminate.lpad:                                   ; preds = %entry
  %0 = landingpad { ptr, i32 }
          catch ptr null
  %1 = extractvalue { ptr, i32 } %0, 0
  call void @__clang_call_terminate(ptr %1) #23
  unreachable
}

declare void @__cxa_pure_virtual() unnamed_addr

; Function Attrs: mustprogress nounwind uwtable
define linkonce_odr void @_ZN6openmc11AngleEnergyD2Ev(ptr noundef nonnull align 8 dereferenceable(8) %this) unnamed_addr #6 comdat align 2 {
entry:
  %this.addr = alloca ptr, align 8
  store ptr %this, ptr %this.addr, align 8, !tbaa !53
  %this1 = load ptr, ptr %this.addr, align 8
  ret void
}

; Function Attrs: mustprogress nounwind uwtable
define linkonce_odr void @_ZN6openmc11AngleEnergyD0Ev(ptr noundef nonnull align 8 dereferenceable(8) %this) unnamed_addr #6 comdat align 2 {
entry:
  %this.addr = alloca ptr, align 8
  store ptr %this, ptr %this.addr, align 8, !tbaa !53
  %this1 = load ptr, ptr %this.addr, align 8
  call void @llvm.trap() #23
  unreachable
}

; Function Attrs: cold noreturn nounwind memory(inaccessiblemem: write)
declare void @llvm.trap() #11

; Function Attrs: mustprogress nounwind uwtable
define linkonce_odr void @_ZNSt6vectorIdSaIdEEC2Ev(ptr noundef nonnull align 8 dereferenceable(24) %this) unnamed_addr #6 comdat align 2 {
entry:
  %this.addr = alloca ptr, align 8
  store ptr %this, ptr %this.addr, align 8, !tbaa !67
  %this1 = load ptr, ptr %this.addr, align 8
  call void @_ZNSt12_Vector_baseIdSaIdEEC2Ev(ptr noundef nonnull align 8 dereferenceable(24) %this1) #5
  ret void
}

; Function Attrs: mustprogress nounwind uwtable
define linkonce_odr void @_ZNSt6vectorISt10unique_ptrIN6openmc7TabularESt14default_deleteIS2_EESaIS5_EEC2Ev(ptr noundef nonnull align 8 dereferenceable(24) %this) unnamed_addr #6 comdat align 2 {
entry:
  %this.addr = alloca ptr, align 8
  store ptr %this, ptr %this.addr, align 8, !tbaa !69
  %this1 = load ptr, ptr %this.addr, align 8
  call void @_ZNSt12_Vector_baseISt10unique_ptrIN6openmc7TabularESt14default_deleteIS2_EESaIS5_EEC2Ev(ptr noundef nonnull align 8 dereferenceable(24) %this1) #5
  ret void
}

; Function Attrs: mustprogress nounwind uwtable
define linkonce_odr void @_ZNSt12_Vector_baseIdSaIdEEC2Ev(ptr noundef nonnull align 8 dereferenceable(24) %this) unnamed_addr #6 comdat align 2 {
entry:
  %this.addr = alloca ptr, align 8
  store ptr %this, ptr %this.addr, align 8, !tbaa !71
  %this1 = load ptr, ptr %this.addr, align 8
  %_M_impl = getelementptr inbounds nuw %"struct.std::_Vector_base", ptr %this1, i32 0, i32 0
  call void @_ZNSt12_Vector_baseIdSaIdEE12_Vector_implC2Ev(ptr noundef nonnull align 8 dereferenceable(24) %_M_impl) #5
  ret void
}

; Function Attrs: mustprogress nounwind uwtable
define linkonce_odr void @_ZNSt12_Vector_baseIdSaIdEE12_Vector_implC2Ev(ptr noundef nonnull align 8 dereferenceable(24) %this) unnamed_addr #6 comdat align 2 {
entry:
  %this.addr = alloca ptr, align 8
  store ptr %this, ptr %this.addr, align 8, !tbaa !73
  %this1 = load ptr, ptr %this.addr, align 8
  call void @_ZNSaIdEC2Ev(ptr noundef nonnull align 1 dereferenceable(1) %this1) #5
  call void @_ZNSt12_Vector_baseIdSaIdEE17_Vector_impl_dataC2Ev(ptr noundef nonnull align 8 dereferenceable(24) %this1) #5
  ret void
}

; Function Attrs: mustprogress nounwind uwtable
define linkonce_odr void @_ZNSaIdEC2Ev(ptr noundef nonnull align 1 dereferenceable(1) %this) unnamed_addr #6 comdat align 2 {
entry:
  %this.addr = alloca ptr, align 8
  store ptr %this, ptr %this.addr, align 8, !tbaa !75
  %this1 = load ptr, ptr %this.addr, align 8
  call void @_ZNSt15__new_allocatorIdEC2Ev(ptr noundef nonnull align 1 dereferenceable(1) %this1) #5
  ret void
}

; Function Attrs: mustprogress nounwind uwtable
define linkonce_odr void @_ZNSt15__new_allocatorIdEC2Ev(ptr noundef nonnull align 1 dereferenceable(1) %this) unnamed_addr #6 comdat align 2 {
entry:
  %this.addr = alloca ptr, align 8
  store ptr %this, ptr %this.addr, align 8, !tbaa !77
  %this1 = load ptr, ptr %this.addr, align 8
  ret void
}

; Function Attrs: mustprogress nounwind uwtable
define linkonce_odr void @_ZNSt12_Vector_baseISt10unique_ptrIN6openmc7TabularESt14default_deleteIS2_EESaIS5_EEC2Ev(ptr noundef nonnull align 8 dereferenceable(24) %this) unnamed_addr #6 comdat align 2 {
entry:
  %this.addr = alloca ptr, align 8
  store ptr %this, ptr %this.addr, align 8, !tbaa !79
  %this1 = load ptr, ptr %this.addr, align 8
  %_M_impl = getelementptr inbounds nuw %"struct.std::_Vector_base.1", ptr %this1, i32 0, i32 0
  call void @_ZNSt12_Vector_baseISt10unique_ptrIN6openmc7TabularESt14default_deleteIS2_EESaIS5_EE12_Vector_implC2Ev(ptr noundef nonnull align 8 dereferenceable(24) %_M_impl) #5
  ret void
}

; Function Attrs: mustprogress nounwind uwtable
define linkonce_odr void @_ZNSt12_Vector_baseISt10unique_ptrIN6openmc7TabularESt14default_deleteIS2_EESaIS5_EE12_Vector_implC2Ev(ptr noundef nonnull align 8 dereferenceable(24) %this) unnamed_addr #6 comdat align 2 {
entry:
  %this.addr = alloca ptr, align 8
  store ptr %this, ptr %this.addr, align 8, !tbaa !81
  %this1 = load ptr, ptr %this.addr, align 8
  call void @_ZNSaISt10unique_ptrIN6openmc7TabularESt14default_deleteIS1_EEEC2Ev(ptr noundef nonnull align 1 dereferenceable(1) %this1) #5
  call void @_ZNSt12_Vector_baseISt10unique_ptrIN6openmc7TabularESt14default_deleteIS2_EESaIS5_EE17_Vector_impl_dataC2Ev(ptr noundef nonnull align 8 dereferenceable(24) %this1) #5
  ret void
}

; Function Attrs: mustprogress nounwind uwtable
define linkonce_odr void @_ZNSaISt10unique_ptrIN6openmc7TabularESt14default_deleteIS1_EEEC2Ev(ptr noundef nonnull align 1 dereferenceable(1) %this) unnamed_addr #6 comdat align 2 {
entry:
  %this.addr = alloca ptr, align 8
  store ptr %this, ptr %this.addr, align 8, !tbaa !83
  %this1 = load ptr, ptr %this.addr, align 8
  call void @_ZNSt15__new_allocatorISt10unique_ptrIN6openmc7TabularESt14default_deleteIS2_EEEC2Ev(ptr noundef nonnull align 1 dereferenceable(1) %this1) #5
  ret void
}

; Function Attrs: mustprogress nounwind uwtable
define linkonce_odr void @_ZNSt15__new_allocatorISt10unique_ptrIN6openmc7TabularESt14default_deleteIS2_EEEC2Ev(ptr noundef nonnull align 1 dereferenceable(1) %this) unnamed_addr #6 comdat align 2 {
entry:
  %this.addr = alloca ptr, align 8
  store ptr %this, ptr %this.addr, align 8, !tbaa !85
  %this1 = load ptr, ptr %this.addr, align 8
  ret void
}

; Function Attrs: nocallback nofree nounwind willreturn memory(argmem: write)
declare void @llvm.memset.p0.i64(ptr writeonly captures(none), i8, i64, i1 immarg) #12

; Function Attrs: inlinehint mustprogress nounwind uwtable
define linkonce_odr void @_ZNSt15__uniq_ptr_dataIN6openmc18EnergyDistributionESt14default_deleteIS1_ELb1ELb1EEC2Ev(ptr noundef nonnull align 8 dereferenceable(8) %this) unnamed_addr #1 comdat align 2 {
entry:
  %this.addr = alloca ptr, align 8
  store ptr %this, ptr %this.addr, align 8, !tbaa !87
  %this1 = load ptr, ptr %this.addr, align 8
  call void @_ZNSt15__uniq_ptr_implIN6openmc18EnergyDistributionESt14default_deleteIS1_EEC2Ev(ptr noundef nonnull align 8 dereferenceable(8) %this1) #5
  ret void
}

; Function Attrs: mustprogress nounwind uwtable
define linkonce_odr void @_ZNSt15__uniq_ptr_implIN6openmc18EnergyDistributionESt14default_deleteIS1_EEC2Ev(ptr noundef nonnull align 8 dereferenceable(8) %this) unnamed_addr #6 comdat align 2 {
entry:
  %this.addr = alloca ptr, align 8
  store ptr %this, ptr %this.addr, align 8, !tbaa !89
  %this1 = load ptr, ptr %this.addr, align 8
  %_M_t = getelementptr inbounds nuw %"class.std::__uniq_ptr_impl", ptr %this1, i32 0, i32 0
  call void @_ZNSt5tupleIJPN6openmc18EnergyDistributionESt14default_deleteIS1_EEEC2ILb1ETnNSt9enable_ifIXclsr17_TupleConstraintsIXT_ES2_S4_EE37__is_implicitly_default_constructibleEEbE4typeELb1EEEv(ptr noundef nonnull align 8 dereferenceable(8) %_M_t) #5
  ret void
}

; Function Attrs: mustprogress nounwind uwtable
define linkonce_odr void @_ZNSt5tupleIJPN6openmc18EnergyDistributionESt14default_deleteIS1_EEEC2ILb1ETnNSt9enable_ifIXclsr17_TupleConstraintsIXT_ES2_S4_EE37__is_implicitly_default_constructibleEEbE4typeELb1EEEv(ptr noundef nonnull align 8 dereferenceable(8) %this) unnamed_addr #6 comdat align 2 personality ptr @__gxx_personality_v0 {
entry:
  %this.addr = alloca ptr, align 8
  store ptr %this, ptr %this.addr, align 8, !tbaa !91
  %this1 = load ptr, ptr %this.addr, align 8
  invoke void @_ZNSt11_Tuple_implILm0EJPN6openmc18EnergyDistributionESt14default_deleteIS1_EEEC2Ev(ptr noundef nonnull align 8 dereferenceable(8) %this1)
          to label %invoke.cont unwind label %terminate.lpad

invoke.cont:                                      ; preds = %entry
  ret void

terminate.lpad:                                   ; preds = %entry
  %0 = landingpad { ptr, i32 }
          catch ptr null
  %1 = extractvalue { ptr, i32 } %0, 0
  call void @__clang_call_terminate(ptr %1) #23
  unreachable
}

; Function Attrs: mustprogress uwtable
define linkonce_odr void @_ZNSt11_Tuple_implILm0EJPN6openmc18EnergyDistributionESt14default_deleteIS1_EEEC2Ev(ptr noundef nonnull align 8 dereferenceable(8) %this) unnamed_addr #0 comdat align 2 {
entry:
  %this.addr = alloca ptr, align 8
  store ptr %this, ptr %this.addr, align 8, !tbaa !93
  %this1 = load ptr, ptr %this.addr, align 8
  call void @_ZNSt11_Tuple_implILm1EJSt14default_deleteIN6openmc18EnergyDistributionEEEEC2Ev(ptr noundef nonnull align 1 dereferenceable(1) %this1)
  call void @_ZNSt10_Head_baseILm0EPN6openmc18EnergyDistributionELb0EEC2Ev(ptr noundef nonnull align 8 dereferenceable(8) %this1)
  ret void
}

; Function Attrs: noinline noreturn nounwind uwtable
define linkonce_odr hidden void @__clang_call_terminate(ptr noundef %0) #13 comdat {
  %2 = call ptr @__cxa_begin_catch(ptr %0) #5
  call void @_ZSt9terminatev() #23
  unreachable
}

declare ptr @__cxa_begin_catch(ptr)

declare void @_ZSt9terminatev()

; Function Attrs: mustprogress uwtable
define linkonce_odr void @_ZNSt11_Tuple_implILm1EJSt14default_deleteIN6openmc18EnergyDistributionEEEEC2Ev(ptr noundef nonnull align 1 dereferenceable(1) %this) unnamed_addr #0 comdat align 2 {
entry:
  %this.addr = alloca ptr, align 8
  store ptr %this, ptr %this.addr, align 8, !tbaa !95
  %this1 = load ptr, ptr %this.addr, align 8
  call void @_ZNSt10_Head_baseILm1ESt14default_deleteIN6openmc18EnergyDistributionEELb1EEC2Ev(ptr noundef nonnull align 1 dereferenceable(1) %this1)
  ret void
}

; Function Attrs: mustprogress nounwind uwtable
define linkonce_odr void @_ZNSt10_Head_baseILm0EPN6openmc18EnergyDistributionELb0EEC2Ev(ptr noundef nonnull align 8 dereferenceable(8) %this) unnamed_addr #6 comdat align 2 {
entry:
  %this.addr = alloca ptr, align 8
  store ptr %this, ptr %this.addr, align 8, !tbaa !97
  %this1 = load ptr, ptr %this.addr, align 8
  %_M_head_impl = getelementptr inbounds nuw %"struct.std::_Head_base.6", ptr %this1, i32 0, i32 0
  store ptr null, ptr %_M_head_impl, align 8, !tbaa !99
  ret void
}

; Function Attrs: mustprogress nounwind uwtable
define linkonce_odr void @_ZNSt10_Head_baseILm1ESt14default_deleteIN6openmc18EnergyDistributionEELb1EEC2Ev(ptr noundef nonnull align 1 dereferenceable(1) %this) unnamed_addr #6 comdat align 2 {
entry:
  %this.addr = alloca ptr, align 8
  store ptr %this, ptr %this.addr, align 8, !tbaa !100
  %this1 = load ptr, ptr %this.addr, align 8
  ret void
}

; Function Attrs: mustprogress nounwind uwtable
define linkonce_odr noundef nonnull align 8 dereferenceable(24) ptr @_ZNSt6vectorIdSaIdEEaSEOS1_(ptr noundef nonnull align 8 dereferenceable(24) %this, ptr noundef nonnull align 8 dereferenceable(24) %__x) #6 comdat align 2 {
entry:
  %this.addr = alloca ptr, align 8
  %__x.addr = alloca ptr, align 8
  %__move_storage = alloca i8, align 1
  %agg.tmp = alloca %"struct.std::integral_constant", align 1
  store ptr %this, ptr %this.addr, align 8, !tbaa !67
  store ptr %__x, ptr %__x.addr, align 8, !tbaa !67
  %this1 = load ptr, ptr %this.addr, align 8
  call void @llvm.lifetime.start.p0(i64 1, ptr %__move_storage) #5
  store i8 1, ptr %__move_storage, align 1, !tbaa !102
  %0 = load ptr, ptr %__x.addr, align 8, !tbaa !67
  call void @_ZNSt6vectorIdSaIdEE14_M_move_assignEOS1_St17integral_constantIbLb1EE(ptr noundef nonnull align 8 dereferenceable(24) %this1, ptr noundef nonnull align 8 dereferenceable(24) %0) #5
  call void @llvm.lifetime.end.p0(i64 1, ptr %__move_storage) #5
  ret ptr %this1
}

; Function Attrs: mustprogress nounwind uwtable
define linkonce_odr noundef nonnull align 8 dereferenceable(24) ptr @_ZNSt6vectorISt10unique_ptrIN6openmc7TabularESt14default_deleteIS2_EESaIS5_EEaSEOS7_(ptr noundef nonnull align 8 dereferenceable(24) %this, ptr noundef nonnull align 8 dereferenceable(24) %__x) #6 comdat align 2 {
entry:
  %this.addr = alloca ptr, align 8
  %__x.addr = alloca ptr, align 8
  %__move_storage = alloca i8, align 1
  %agg.tmp = alloca %"struct.std::integral_constant", align 1
  store ptr %this, ptr %this.addr, align 8, !tbaa !69
  store ptr %__x, ptr %__x.addr, align 8, !tbaa !69
  %this1 = load ptr, ptr %this.addr, align 8
  call void @llvm.lifetime.start.p0(i64 1, ptr %__move_storage) #5
  store i8 1, ptr %__move_storage, align 1, !tbaa !102
  %0 = load ptr, ptr %__x.addr, align 8, !tbaa !69
  call void @_ZNSt6vectorISt10unique_ptrIN6openmc7TabularESt14default_deleteIS2_EESaIS5_EE14_M_move_assignEOS7_St17integral_constantIbLb1EE(ptr noundef nonnull align 8 dereferenceable(24) %this1, ptr noundef nonnull align 8 dereferenceable(24) %0) #5
  call void @llvm.lifetime.end.p0(i64 1, ptr %__move_storage) #5
  ret ptr %this1
}

; Function Attrs: mustprogress nounwind uwtable
define linkonce_odr void @_ZNSt6vectorIdSaIdEE14_M_move_assignEOS1_St17integral_constantIbLb1EE(ptr noundef nonnull align 8 dereferenceable(24) %this, ptr noundef nonnull align 8 dereferenceable(24) %__x) #6 comdat align 2 personality ptr @__gxx_personality_v0 {
entry:
  %0 = alloca %"struct.std::integral_constant", align 1
  %this.addr = alloca ptr, align 8
  %__x.addr = alloca ptr, align 8
  %__tmp = alloca %"class.std::vector", align 8
  %ref.tmp = alloca %"class.std::allocator", align 1
  store ptr %this, ptr %this.addr, align 8, !tbaa !67
  store ptr %__x, ptr %__x.addr, align 8, !tbaa !67
  %this1 = load ptr, ptr %this.addr, align 8
  call void @llvm.lifetime.start.p0(i64 24, ptr %__tmp) #5
  call void @llvm.lifetime.start.p0(i64 1, ptr %ref.tmp) #5
  call void @_ZNKSt12_Vector_baseIdSaIdEE13get_allocatorEv(ptr dead_on_unwind writable sret(%"class.std::allocator") align 1 %ref.tmp, ptr noundef nonnull align 8 dereferenceable(24) %this1) #5
  call void @_ZNSt6vectorIdSaIdEEC2ERKS0_(ptr noundef nonnull align 8 dereferenceable(24) %__tmp, ptr noundef nonnull align 1 dereferenceable(1) %ref.tmp) #5
  call void @_ZNSt15__new_allocatorIdED2Ev(ptr noundef nonnull align 1 dereferenceable(1) %ref.tmp) #5
  call void @llvm.lifetime.end.p0(i64 1, ptr %ref.tmp) #5
  %_M_impl = getelementptr inbounds nuw %"struct.std::_Vector_base", ptr %this1, i32 0, i32 0
  %1 = load ptr, ptr %__x.addr, align 8, !tbaa !67
  %_M_impl2 = getelementptr inbounds nuw %"struct.std::_Vector_base", ptr %1, i32 0, i32 0
  call void @_ZNSt12_Vector_baseIdSaIdEE17_Vector_impl_data12_M_swap_dataERS2_(ptr noundef nonnull align 8 dereferenceable(24) %_M_impl, ptr noundef nonnull align 8 dereferenceable(24) %_M_impl2) #5
  %_M_impl3 = getelementptr inbounds nuw %"struct.std::_Vector_base", ptr %__tmp, i32 0, i32 0
  %2 = load ptr, ptr %__x.addr, align 8, !tbaa !67
  %_M_impl4 = getelementptr inbounds nuw %"struct.std::_Vector_base", ptr %2, i32 0, i32 0
  call void @_ZNSt12_Vector_baseIdSaIdEE17_Vector_impl_data12_M_swap_dataERS2_(ptr noundef nonnull align 8 dereferenceable(24) %_M_impl3, ptr noundef nonnull align 8 dereferenceable(24) %_M_impl4) #5
  %call = call noundef nonnull align 1 dereferenceable(1) ptr @_ZNSt12_Vector_baseIdSaIdEE19_M_get_Tp_allocatorEv(ptr noundef nonnull align 8 dereferenceable(24) %this1) #5
  %3 = load ptr, ptr %__x.addr, align 8, !tbaa !67
  %call5 = call noundef nonnull align 1 dereferenceable(1) ptr @_ZNSt12_Vector_baseIdSaIdEE19_M_get_Tp_allocatorEv(ptr noundef nonnull align 8 dereferenceable(24) %3) #5
  invoke void @_ZSt15__alloc_on_moveISaIdEEvRT_S2_(ptr noundef nonnull align 1 dereferenceable(1) %call, ptr noundef nonnull align 1 dereferenceable(1) %call5)
          to label %invoke.cont unwind label %terminate.lpad

invoke.cont:                                      ; preds = %entry
  call void @_ZNSt6vectorIdSaIdEED2Ev(ptr noundef nonnull align 8 dereferenceable(24) %__tmp) #5
  call void @llvm.lifetime.end.p0(i64 24, ptr %__tmp) #5
  ret void

terminate.lpad:                                   ; preds = %entry
  %4 = landingpad { ptr, i32 }
          catch ptr null
  %5 = extractvalue { ptr, i32 } %4, 0
  call void @__clang_call_terminate(ptr %5) #23
  unreachable
}

; Function Attrs: mustprogress nounwind uwtable
define linkonce_odr void @_ZNKSt12_Vector_baseIdSaIdEE13get_allocatorEv(ptr dead_on_unwind noalias writable sret(%"class.std::allocator") align 1 %agg.result, ptr noundef nonnull align 8 dereferenceable(24) %this) #6 comdat align 2 {
entry:
  %result.ptr = alloca ptr, align 8
  %this.addr = alloca ptr, align 8
  store ptr %agg.result, ptr %result.ptr, align 8
  store ptr %this, ptr %this.addr, align 8, !tbaa !71
  %this1 = load ptr, ptr %this.addr, align 8
  %call = call noundef nonnull align 1 dereferenceable(1) ptr @_ZNKSt12_Vector_baseIdSaIdEE19_M_get_Tp_allocatorEv(ptr noundef nonnull align 8 dereferenceable(24) %this1) #5
  call void @_ZNSaIdEC2ERKS_(ptr noundef nonnull align 1 dereferenceable(1) %agg.result, ptr noundef nonnull align 1 dereferenceable(1) %call) #5
  ret void
}

; Function Attrs: mustprogress nounwind uwtable
define linkonce_odr void @_ZNSt6vectorIdSaIdEEC2ERKS0_(ptr noundef nonnull align 8 dereferenceable(24) %this, ptr noundef nonnull align 1 dereferenceable(1) %__a) unnamed_addr #6 comdat align 2 {
entry:
  %this.addr = alloca ptr, align 8
  %__a.addr = alloca ptr, align 8
  store ptr %this, ptr %this.addr, align 8, !tbaa !67
  store ptr %__a, ptr %__a.addr, align 8, !tbaa !75
  %this1 = load ptr, ptr %this.addr, align 8
  %0 = load ptr, ptr %__a.addr, align 8, !tbaa !75
  call void @_ZNSt12_Vector_baseIdSaIdEEC2ERKS0_(ptr noundef nonnull align 8 dereferenceable(24) %this1, ptr noundef nonnull align 1 dereferenceable(1) %0) #5
  ret void
}

; Function Attrs: mustprogress nounwind uwtable
define linkonce_odr void @_ZNSt12_Vector_baseIdSaIdEE17_Vector_impl_data12_M_swap_dataERS2_(ptr noundef nonnull align 8 dereferenceable(24) %this, ptr noundef nonnull align 8 dereferenceable(24) %__x) #6 comdat align 2 {
entry:
  %this.addr = alloca ptr, align 8
  %__x.addr = alloca ptr, align 8
  %__tmp = alloca %"struct.std::_Vector_base<double, std::allocator<double>>::_Vector_impl_data", align 8
  store ptr %this, ptr %this.addr, align 8, !tbaa !103
  store ptr %__x, ptr %__x.addr, align 8, !tbaa !103
  %this1 = load ptr, ptr %this.addr, align 8
  call void @llvm.lifetime.start.p0(i64 24, ptr %__tmp) #5
  call void @_ZNSt12_Vector_baseIdSaIdEE17_Vector_impl_dataC2Ev(ptr noundef nonnull align 8 dereferenceable(24) %__tmp) #5
  call void @_ZNSt12_Vector_baseIdSaIdEE17_Vector_impl_data12_M_copy_dataERKS2_(ptr noundef nonnull align 8 dereferenceable(24) %__tmp, ptr noundef nonnull align 8 dereferenceable(24) %this1) #5
  %0 = load ptr, ptr %__x.addr, align 8, !tbaa !103
  call void @_ZNSt12_Vector_baseIdSaIdEE17_Vector_impl_data12_M_copy_dataERKS2_(ptr noundef nonnull align 8 dereferenceable(24) %this1, ptr noundef nonnull align 8 dereferenceable(24) %0) #5
  %1 = load ptr, ptr %__x.addr, align 8, !tbaa !103
  call void @_ZNSt12_Vector_baseIdSaIdEE17_Vector_impl_data12_M_copy_dataERKS2_(ptr noundef nonnull align 8 dereferenceable(24) %1, ptr noundef nonnull align 8 dereferenceable(24) %__tmp) #5
  call void @llvm.lifetime.end.p0(i64 24, ptr %__tmp) #5
  ret void
}

; Function Attrs: inlinehint mustprogress nounwind uwtable
define linkonce_odr void @_ZSt15__alloc_on_moveISaIdEEvRT_S2_(ptr noundef nonnull align 1 dereferenceable(1) %__one, ptr noundef nonnull align 1 dereferenceable(1) %__two) #1 comdat {
entry:
  %__one.addr = alloca ptr, align 8
  %__two.addr = alloca ptr, align 8
  store ptr %__one, ptr %__one.addr, align 8, !tbaa !75
  store ptr %__two, ptr %__two.addr, align 8, !tbaa !75
  %0 = load ptr, ptr %__two.addr, align 8, !tbaa !75
  %1 = load ptr, ptr %__one.addr, align 8, !tbaa !75
  ret void
}

; Function Attrs: mustprogress nounwind uwtable
define linkonce_odr noundef nonnull align 1 dereferenceable(1) ptr @_ZNSt12_Vector_baseIdSaIdEE19_M_get_Tp_allocatorEv(ptr noundef nonnull align 8 dereferenceable(24) %this) #6 comdat align 2 {
entry:
  %this.addr = alloca ptr, align 8
  store ptr %this, ptr %this.addr, align 8, !tbaa !71
  %this1 = load ptr, ptr %this.addr, align 8
  %_M_impl = getelementptr inbounds nuw %"struct.std::_Vector_base", ptr %this1, i32 0, i32 0
  ret ptr %_M_impl
}

; Function Attrs: mustprogress nounwind uwtable
define linkonce_odr void @_ZNSt6vectorIdSaIdEED2Ev(ptr noundef nonnull align 8 dereferenceable(24) %this) unnamed_addr #6 comdat align 2 personality ptr @__gxx_personality_v0 {
entry:
  %this.addr = alloca ptr, align 8
  store ptr %this, ptr %this.addr, align 8, !tbaa !67
  %this1 = load ptr, ptr %this.addr, align 8
  %_M_impl = getelementptr inbounds nuw %"struct.std::_Vector_base", ptr %this1, i32 0, i32 0
  %_M_start = getelementptr inbounds nuw %"struct.std::_Vector_base<double, std::allocator<double>>::_Vector_impl_data", ptr %_M_impl, i32 0, i32 0
  %0 = load ptr, ptr %_M_start, align 8, !tbaa !105
  %_M_impl2 = getelementptr inbounds nuw %"struct.std::_Vector_base", ptr %this1, i32 0, i32 0
  %_M_finish = getelementptr inbounds nuw %"struct.std::_Vector_base<double, std::allocator<double>>::_Vector_impl_data", ptr %_M_impl2, i32 0, i32 1
  %1 = load ptr, ptr %_M_finish, align 8, !tbaa !106
  %call = call noundef nonnull align 1 dereferenceable(1) ptr @_ZNSt12_Vector_baseIdSaIdEE19_M_get_Tp_allocatorEv(ptr noundef nonnull align 8 dereferenceable(24) %this1) #5
  invoke void @_ZSt8_DestroyIPddEvT_S1_RSaIT0_E(ptr noundef %0, ptr noundef %1, ptr noundef nonnull align 1 dereferenceable(1) %call)
          to label %invoke.cont unwind label %terminate.lpad

invoke.cont:                                      ; preds = %entry
  call void @_ZNSt12_Vector_baseIdSaIdEED2Ev(ptr noundef nonnull align 8 dereferenceable(24) %this1) #5
  ret void

terminate.lpad:                                   ; preds = %entry
  %2 = landingpad { ptr, i32 }
          catch ptr null
  %3 = extractvalue { ptr, i32 } %2, 0
  call void @__clang_call_terminate(ptr %3) #23
  unreachable
}

; Function Attrs: mustprogress nounwind uwtable
define linkonce_odr noundef nonnull align 1 dereferenceable(1) ptr @_ZNKSt12_Vector_baseIdSaIdEE19_M_get_Tp_allocatorEv(ptr noundef nonnull align 8 dereferenceable(24) %this) #6 comdat align 2 {
entry:
  %this.addr = alloca ptr, align 8
  store ptr %this, ptr %this.addr, align 8, !tbaa !71
  %this1 = load ptr, ptr %this.addr, align 8
  %_M_impl = getelementptr inbounds nuw %"struct.std::_Vector_base", ptr %this1, i32 0, i32 0
  ret ptr %_M_impl
}

; Function Attrs: mustprogress nounwind uwtable
define linkonce_odr void @_ZNSaIdEC2ERKS_(ptr noundef nonnull align 1 dereferenceable(1) %this, ptr noundef nonnull align 1 dereferenceable(1) %__a) unnamed_addr #6 comdat align 2 {
entry:
  %this.addr = alloca ptr, align 8
  %__a.addr = alloca ptr, align 8
  store ptr %this, ptr %this.addr, align 8, !tbaa !75
  store ptr %__a, ptr %__a.addr, align 8, !tbaa !75
  %this1 = load ptr, ptr %this.addr, align 8
  %0 = load ptr, ptr %__a.addr, align 8, !tbaa !75
  call void @_ZNSt15__new_allocatorIdEC2ERKS0_(ptr noundef nonnull align 1 dereferenceable(1) %this1, ptr noundef nonnull align 1 dereferenceable(1) %0) #5
  ret void
}

; Function Attrs: mustprogress nounwind uwtable
define linkonce_odr void @_ZNSt15__new_allocatorIdEC2ERKS0_(ptr noundef nonnull align 1 dereferenceable(1) %this, ptr noundef nonnull align 1 dereferenceable(1) %0) unnamed_addr #6 comdat align 2 {
entry:
  %this.addr = alloca ptr, align 8
  %.addr = alloca ptr, align 8
  store ptr %this, ptr %this.addr, align 8, !tbaa !77
  store ptr %0, ptr %.addr, align 8, !tbaa !77
  %this1 = load ptr, ptr %this.addr, align 8
  ret void
}

; Function Attrs: mustprogress nounwind uwtable
define linkonce_odr void @_ZNSt12_Vector_baseIdSaIdEEC2ERKS0_(ptr noundef nonnull align 8 dereferenceable(24) %this, ptr noundef nonnull align 1 dereferenceable(1) %__a) unnamed_addr #6 comdat align 2 {
entry:
  %this.addr = alloca ptr, align 8
  %__a.addr = alloca ptr, align 8
  store ptr %this, ptr %this.addr, align 8, !tbaa !71
  store ptr %__a, ptr %__a.addr, align 8, !tbaa !75
  %this1 = load ptr, ptr %this.addr, align 8
  %_M_impl = getelementptr inbounds nuw %"struct.std::_Vector_base", ptr %this1, i32 0, i32 0
  %0 = load ptr, ptr %__a.addr, align 8, !tbaa !75
  call void @_ZNSt12_Vector_baseIdSaIdEE12_Vector_implC2ERKS0_(ptr noundef nonnull align 8 dereferenceable(24) %_M_impl, ptr noundef nonnull align 1 dereferenceable(1) %0) #5
  ret void
}

; Function Attrs: mustprogress nounwind uwtable
define linkonce_odr void @_ZNSt12_Vector_baseIdSaIdEE12_Vector_implC2ERKS0_(ptr noundef nonnull align 8 dereferenceable(24) %this, ptr noundef nonnull align 1 dereferenceable(1) %__a) unnamed_addr #6 comdat align 2 {
entry:
  %this.addr = alloca ptr, align 8
  %__a.addr = alloca ptr, align 8
  store ptr %this, ptr %this.addr, align 8, !tbaa !73
  store ptr %__a, ptr %__a.addr, align 8, !tbaa !75
  %this1 = load ptr, ptr %this.addr, align 8
  %0 = load ptr, ptr %__a.addr, align 8, !tbaa !75
  call void @_ZNSaIdEC2ERKS_(ptr noundef nonnull align 1 dereferenceable(1) %this1, ptr noundef nonnull align 1 dereferenceable(1) %0) #5
  call void @_ZNSt12_Vector_baseIdSaIdEE17_Vector_impl_dataC2Ev(ptr noundef nonnull align 8 dereferenceable(24) %this1) #5
  ret void
}

; Function Attrs: mustprogress nounwind uwtable
define linkonce_odr void @_ZNSt12_Vector_baseIdSaIdEE17_Vector_impl_dataC2Ev(ptr noundef nonnull align 8 dereferenceable(24) %this) unnamed_addr #6 comdat align 2 {
entry:
  %this.addr = alloca ptr, align 8
  store ptr %this, ptr %this.addr, align 8, !tbaa !103
  %this1 = load ptr, ptr %this.addr, align 8
  %_M_start = getelementptr inbounds nuw %"struct.std::_Vector_base<double, std::allocator<double>>::_Vector_impl_data", ptr %this1, i32 0, i32 0
  store ptr null, ptr %_M_start, align 8, !tbaa !105
  %_M_finish = getelementptr inbounds nuw %"struct.std::_Vector_base<double, std::allocator<double>>::_Vector_impl_data", ptr %this1, i32 0, i32 1
  store ptr null, ptr %_M_finish, align 8, !tbaa !106
  %_M_end_of_storage = getelementptr inbounds nuw %"struct.std::_Vector_base<double, std::allocator<double>>::_Vector_impl_data", ptr %this1, i32 0, i32 2
  store ptr null, ptr %_M_end_of_storage, align 8, !tbaa !107
  ret void
}

; Function Attrs: mustprogress nounwind uwtable
define linkonce_odr void @_ZNSt12_Vector_baseIdSaIdEE17_Vector_impl_data12_M_copy_dataERKS2_(ptr noundef nonnull align 8 dereferenceable(24) %this, ptr noundef nonnull align 8 dereferenceable(24) %__x) #6 comdat align 2 {
entry:
  %this.addr = alloca ptr, align 8
  %__x.addr = alloca ptr, align 8
  store ptr %this, ptr %this.addr, align 8, !tbaa !103
  store ptr %__x, ptr %__x.addr, align 8, !tbaa !103
  %this1 = load ptr, ptr %this.addr, align 8
  %0 = load ptr, ptr %__x.addr, align 8, !tbaa !103
  %_M_start = getelementptr inbounds nuw %"struct.std::_Vector_base<double, std::allocator<double>>::_Vector_impl_data", ptr %0, i32 0, i32 0
  %1 = load ptr, ptr %_M_start, align 8, !tbaa !105
  %_M_start2 = getelementptr inbounds nuw %"struct.std::_Vector_base<double, std::allocator<double>>::_Vector_impl_data", ptr %this1, i32 0, i32 0
  store ptr %1, ptr %_M_start2, align 8, !tbaa !105
  %2 = load ptr, ptr %__x.addr, align 8, !tbaa !103
  %_M_finish = getelementptr inbounds nuw %"struct.std::_Vector_base<double, std::allocator<double>>::_Vector_impl_data", ptr %2, i32 0, i32 1
  %3 = load ptr, ptr %_M_finish, align 8, !tbaa !106
  %_M_finish3 = getelementptr inbounds nuw %"struct.std::_Vector_base<double, std::allocator<double>>::_Vector_impl_data", ptr %this1, i32 0, i32 1
  store ptr %3, ptr %_M_finish3, align 8, !tbaa !106
  %4 = load ptr, ptr %__x.addr, align 8, !tbaa !103
  %_M_end_of_storage = getelementptr inbounds nuw %"struct.std::_Vector_base<double, std::allocator<double>>::_Vector_impl_data", ptr %4, i32 0, i32 2
  %5 = load ptr, ptr %_M_end_of_storage, align 8, !tbaa !107
  %_M_end_of_storage4 = getelementptr inbounds nuw %"struct.std::_Vector_base<double, std::allocator<double>>::_Vector_impl_data", ptr %this1, i32 0, i32 2
  store ptr %5, ptr %_M_end_of_storage4, align 8, !tbaa !107
  ret void
}

; Function Attrs: inlinehint mustprogress uwtable
define linkonce_odr void @_ZSt8_DestroyIPddEvT_S1_RSaIT0_E(ptr noundef %__first, ptr noundef %__last, ptr noundef nonnull align 1 dereferenceable(1) %0) #8 comdat {
entry:
  %__first.addr = alloca ptr, align 8
  %__last.addr = alloca ptr, align 8
  %.addr = alloca ptr, align 8
  store ptr %__first, ptr %__first.addr, align 8, !tbaa !18
  store ptr %__last, ptr %__last.addr, align 8, !tbaa !18
  store ptr %0, ptr %.addr, align 8, !tbaa !75
  %1 = load ptr, ptr %__first.addr, align 8, !tbaa !18
  %2 = load ptr, ptr %__last.addr, align 8, !tbaa !18
  call void @_ZSt8_DestroyIPdEvT_S1_(ptr noundef %1, ptr noundef %2)
  ret void
}

; Function Attrs: mustprogress nounwind uwtable
define linkonce_odr void @_ZNSt12_Vector_baseIdSaIdEED2Ev(ptr noundef nonnull align 8 dereferenceable(24) %this) unnamed_addr #6 comdat align 2 personality ptr @__gxx_personality_v0 {
entry:
  %this.addr = alloca ptr, align 8
  store ptr %this, ptr %this.addr, align 8, !tbaa !71
  %this1 = load ptr, ptr %this.addr, align 8
  %_M_impl = getelementptr inbounds nuw %"struct.std::_Vector_base", ptr %this1, i32 0, i32 0
  %_M_start = getelementptr inbounds nuw %"struct.std::_Vector_base<double, std::allocator<double>>::_Vector_impl_data", ptr %_M_impl, i32 0, i32 0
  %0 = load ptr, ptr %_M_start, align 8, !tbaa !105
  %_M_impl2 = getelementptr inbounds nuw %"struct.std::_Vector_base", ptr %this1, i32 0, i32 0
  %_M_end_of_storage = getelementptr inbounds nuw %"struct.std::_Vector_base<double, std::allocator<double>>::_Vector_impl_data", ptr %_M_impl2, i32 0, i32 2
  %1 = load ptr, ptr %_M_end_of_storage, align 8, !tbaa !107
  %_M_impl3 = getelementptr inbounds nuw %"struct.std::_Vector_base", ptr %this1, i32 0, i32 0
  %_M_start4 = getelementptr inbounds nuw %"struct.std::_Vector_base<double, std::allocator<double>>::_Vector_impl_data", ptr %_M_impl3, i32 0, i32 0
  %2 = load ptr, ptr %_M_start4, align 8, !tbaa !105
  %sub.ptr.lhs.cast = ptrtoint ptr %1 to i64
  %sub.ptr.rhs.cast = ptrtoint ptr %2 to i64
  %sub.ptr.sub = sub i64 %sub.ptr.lhs.cast, %sub.ptr.rhs.cast
  %sub.ptr.div = sdiv exact i64 %sub.ptr.sub, 8
  invoke void @_ZNSt12_Vector_baseIdSaIdEE13_M_deallocateEPdm(ptr noundef nonnull align 8 dereferenceable(24) %this1, ptr noundef %0, i64 noundef %sub.ptr.div)
          to label %invoke.cont unwind label %terminate.lpad

invoke.cont:                                      ; preds = %entry
  %_M_impl5 = getelementptr inbounds nuw %"struct.std::_Vector_base", ptr %this1, i32 0, i32 0
  call void @_ZNSt15__new_allocatorIdED2Ev(ptr noundef nonnull align 8 dereferenceable(24) %_M_impl5) #5
  ret void

terminate.lpad:                                   ; preds = %entry
  %3 = landingpad { ptr, i32 }
          catch ptr null
  %4 = extractvalue { ptr, i32 } %3, 0
  call void @__clang_call_terminate(ptr %4) #23
  unreachable
}

; Function Attrs: inlinehint mustprogress uwtable
define linkonce_odr void @_ZSt8_DestroyIPdEvT_S1_(ptr noundef %__first, ptr noundef %__last) #8 comdat {
entry:
  %__first.addr = alloca ptr, align 8
  %__last.addr = alloca ptr, align 8
  store ptr %__first, ptr %__first.addr, align 8, !tbaa !18
  store ptr %__last, ptr %__last.addr, align 8, !tbaa !18
  %0 = load ptr, ptr %__first.addr, align 8, !tbaa !18
  %1 = load ptr, ptr %__last.addr, align 8, !tbaa !18
  call void @_ZNSt12_Destroy_auxILb1EE9__destroyIPdEEvT_S3_(ptr noundef %0, ptr noundef %1)
  ret void
}

; Function Attrs: mustprogress nounwind uwtable
define linkonce_odr void @_ZNSt12_Destroy_auxILb1EE9__destroyIPdEEvT_S3_(ptr noundef %0, ptr noundef %1) #6 comdat align 2 {
entry:
  %.addr = alloca ptr, align 8
  %.addr1 = alloca ptr, align 8
  store ptr %0, ptr %.addr, align 8, !tbaa !18
  store ptr %1, ptr %.addr1, align 8, !tbaa !18
  ret void
}

; Function Attrs: mustprogress uwtable
define linkonce_odr void @_ZNSt12_Vector_baseIdSaIdEE13_M_deallocateEPdm(ptr noundef nonnull align 8 dereferenceable(24) %this, ptr noundef %__p, i64 noundef %__n) #0 comdat align 2 {
entry:
  %this.addr = alloca ptr, align 8
  %__p.addr = alloca ptr, align 8
  %__n.addr = alloca i64, align 8
  store ptr %this, ptr %this.addr, align 8, !tbaa !71
  store ptr %__p, ptr %__p.addr, align 8, !tbaa !18
  store i64 %__n, ptr %__n.addr, align 8, !tbaa !51
  %this1 = load ptr, ptr %this.addr, align 8
  %0 = load ptr, ptr %__p.addr, align 8, !tbaa !18
  %tobool = icmp ne ptr %0, null
  br i1 %tobool, label %if.then, label %if.end

if.then:                                          ; preds = %entry
  %_M_impl = getelementptr inbounds nuw %"struct.std::_Vector_base", ptr %this1, i32 0, i32 0
  %1 = load ptr, ptr %__p.addr, align 8, !tbaa !18
  %2 = load i64, ptr %__n.addr, align 8, !tbaa !51
  call void @_ZNSt16allocator_traitsISaIdEE10deallocateERS0_Pdm(ptr noundef nonnull align 1 dereferenceable(1) %_M_impl, ptr noundef %1, i64 noundef %2)
  br label %if.end

if.end:                                           ; preds = %if.then, %entry
  ret void
}

; Function Attrs: mustprogress nounwind uwtable
define linkonce_odr void @_ZNSt15__new_allocatorIdED2Ev(ptr noundef nonnull align 1 dereferenceable(1) %this) unnamed_addr #6 comdat align 2 {
entry:
  %this.addr = alloca ptr, align 8
  store ptr %this, ptr %this.addr, align 8, !tbaa !77
  %this1 = load ptr, ptr %this.addr, align 8
  ret void
}

; Function Attrs: mustprogress uwtable
define linkonce_odr void @_ZNSt16allocator_traitsISaIdEE10deallocateERS0_Pdm(ptr noundef nonnull align 1 dereferenceable(1) %__a, ptr noundef %__p, i64 noundef %__n) #0 comdat align 2 {
entry:
  %__a.addr = alloca ptr, align 8
  %__p.addr = alloca ptr, align 8
  %__n.addr = alloca i64, align 8
  store ptr %__a, ptr %__a.addr, align 8, !tbaa !75
  store ptr %__p, ptr %__p.addr, align 8, !tbaa !18
  store i64 %__n, ptr %__n.addr, align 8, !tbaa !51
  %0 = load ptr, ptr %__a.addr, align 8, !tbaa !75
  %1 = load ptr, ptr %__p.addr, align 8, !tbaa !18
  %2 = load i64, ptr %__n.addr, align 8, !tbaa !51
  call void @_ZNSt15__new_allocatorIdE10deallocateEPdm(ptr noundef nonnull align 1 dereferenceable(1) %0, ptr noundef %1, i64 noundef %2)
  ret void
}

; Function Attrs: mustprogress nounwind uwtable
define linkonce_odr void @_ZNSt15__new_allocatorIdE10deallocateEPdm(ptr noundef nonnull align 1 dereferenceable(1) %this, ptr noundef %__p, i64 noundef %__n) #6 comdat align 2 {
entry:
  %this.addr = alloca ptr, align 8
  %__p.addr = alloca ptr, align 8
  %__n.addr = alloca i64, align 8
  store ptr %this, ptr %this.addr, align 8, !tbaa !77
  store ptr %__p, ptr %__p.addr, align 8, !tbaa !18
  store i64 %__n, ptr %__n.addr, align 8, !tbaa !51
  %this1 = load ptr, ptr %this.addr, align 8
  %0 = load ptr, ptr %__p.addr, align 8, !tbaa !18
  %1 = load i64, ptr %__n.addr, align 8, !tbaa !51
  %mul = mul i64 %1, 8
  call void @_ZdlPvm(ptr noundef %0, i64 noundef %mul) #21
  ret void
}

; Function Attrs: mustprogress nounwind uwtable
define linkonce_odr void @_ZNSt6vectorISt10unique_ptrIN6openmc7TabularESt14default_deleteIS2_EESaIS5_EE14_M_move_assignEOS7_St17integral_constantIbLb1EE(ptr noundef nonnull align 8 dereferenceable(24) %this, ptr noundef nonnull align 8 dereferenceable(24) %__x) #6 comdat align 2 personality ptr @__gxx_personality_v0 {
entry:
  %0 = alloca %"struct.std::integral_constant", align 1
  %this.addr = alloca ptr, align 8
  %__x.addr = alloca ptr, align 8
  %__tmp = alloca %"class.std::vector.0", align 8
  %ref.tmp = alloca %"class.std::allocator.2", align 1
  store ptr %this, ptr %this.addr, align 8, !tbaa !69
  store ptr %__x, ptr %__x.addr, align 8, !tbaa !69
  %this1 = load ptr, ptr %this.addr, align 8
  call void @llvm.lifetime.start.p0(i64 24, ptr %__tmp) #5
  call void @llvm.lifetime.start.p0(i64 1, ptr %ref.tmp) #5
  call void @_ZNKSt12_Vector_baseISt10unique_ptrIN6openmc7TabularESt14default_deleteIS2_EESaIS5_EE13get_allocatorEv(ptr dead_on_unwind writable sret(%"class.std::allocator.2") align 1 %ref.tmp, ptr noundef nonnull align 8 dereferenceable(24) %this1) #5
  call void @_ZNSt6vectorISt10unique_ptrIN6openmc7TabularESt14default_deleteIS2_EESaIS5_EEC2ERKS6_(ptr noundef nonnull align 8 dereferenceable(24) %__tmp, ptr noundef nonnull align 1 dereferenceable(1) %ref.tmp) #5
  call void @_ZNSt15__new_allocatorISt10unique_ptrIN6openmc7TabularESt14default_deleteIS2_EEED2Ev(ptr noundef nonnull align 1 dereferenceable(1) %ref.tmp) #5
  call void @llvm.lifetime.end.p0(i64 1, ptr %ref.tmp) #5
  %_M_impl = getelementptr inbounds nuw %"struct.std::_Vector_base.1", ptr %this1, i32 0, i32 0
  %1 = load ptr, ptr %__x.addr, align 8, !tbaa !69
  %_M_impl2 = getelementptr inbounds nuw %"struct.std::_Vector_base.1", ptr %1, i32 0, i32 0
  call void @_ZNSt12_Vector_baseISt10unique_ptrIN6openmc7TabularESt14default_deleteIS2_EESaIS5_EE17_Vector_impl_data12_M_swap_dataERS8_(ptr noundef nonnull align 8 dereferenceable(24) %_M_impl, ptr noundef nonnull align 8 dereferenceable(24) %_M_impl2) #5
  %_M_impl3 = getelementptr inbounds nuw %"struct.std::_Vector_base.1", ptr %__tmp, i32 0, i32 0
  %2 = load ptr, ptr %__x.addr, align 8, !tbaa !69
  %_M_impl4 = getelementptr inbounds nuw %"struct.std::_Vector_base.1", ptr %2, i32 0, i32 0
  call void @_ZNSt12_Vector_baseISt10unique_ptrIN6openmc7TabularESt14default_deleteIS2_EESaIS5_EE17_Vector_impl_data12_M_swap_dataERS8_(ptr noundef nonnull align 8 dereferenceable(24) %_M_impl3, ptr noundef nonnull align 8 dereferenceable(24) %_M_impl4) #5
  %call = call noundef nonnull align 1 dereferenceable(1) ptr @_ZNSt12_Vector_baseISt10unique_ptrIN6openmc7TabularESt14default_deleteIS2_EESaIS5_EE19_M_get_Tp_allocatorEv(ptr noundef nonnull align 8 dereferenceable(24) %this1) #5
  %3 = load ptr, ptr %__x.addr, align 8, !tbaa !69
  %call5 = call noundef nonnull align 1 dereferenceable(1) ptr @_ZNSt12_Vector_baseISt10unique_ptrIN6openmc7TabularESt14default_deleteIS2_EESaIS5_EE19_M_get_Tp_allocatorEv(ptr noundef nonnull align 8 dereferenceable(24) %3) #5
  invoke void @_ZSt15__alloc_on_moveISaISt10unique_ptrIN6openmc7TabularESt14default_deleteIS2_EEEEvRT_S8_(ptr noundef nonnull align 1 dereferenceable(1) %call, ptr noundef nonnull align 1 dereferenceable(1) %call5)
          to label %invoke.cont unwind label %terminate.lpad

invoke.cont:                                      ; preds = %entry
  call void @_ZNSt6vectorISt10unique_ptrIN6openmc7TabularESt14default_deleteIS2_EESaIS5_EED2Ev(ptr noundef nonnull align 8 dereferenceable(24) %__tmp) #5
  call void @llvm.lifetime.end.p0(i64 24, ptr %__tmp) #5
  ret void

terminate.lpad:                                   ; preds = %entry
  %4 = landingpad { ptr, i32 }
          catch ptr null
  %5 = extractvalue { ptr, i32 } %4, 0
  call void @__clang_call_terminate(ptr %5) #23
  unreachable
}

; Function Attrs: mustprogress nounwind uwtable
define linkonce_odr void @_ZNKSt12_Vector_baseISt10unique_ptrIN6openmc7TabularESt14default_deleteIS2_EESaIS5_EE13get_allocatorEv(ptr dead_on_unwind noalias writable sret(%"class.std::allocator.2") align 1 %agg.result, ptr noundef nonnull align 8 dereferenceable(24) %this) #6 comdat align 2 {
entry:
  %result.ptr = alloca ptr, align 8
  %this.addr = alloca ptr, align 8
  store ptr %agg.result, ptr %result.ptr, align 8
  store ptr %this, ptr %this.addr, align 8, !tbaa !79
  %this1 = load ptr, ptr %this.addr, align 8
  %call = call noundef nonnull align 1 dereferenceable(1) ptr @_ZNKSt12_Vector_baseISt10unique_ptrIN6openmc7TabularESt14default_deleteIS2_EESaIS5_EE19_M_get_Tp_allocatorEv(ptr noundef nonnull align 8 dereferenceable(24) %this1) #5
  call void @_ZNSaISt10unique_ptrIN6openmc7TabularESt14default_deleteIS1_EEEC2ERKS5_(ptr noundef nonnull align 1 dereferenceable(1) %agg.result, ptr noundef nonnull align 1 dereferenceable(1) %call) #5
  ret void
}

; Function Attrs: mustprogress nounwind uwtable
define linkonce_odr void @_ZNSt6vectorISt10unique_ptrIN6openmc7TabularESt14default_deleteIS2_EESaIS5_EEC2ERKS6_(ptr noundef nonnull align 8 dereferenceable(24) %this, ptr noundef nonnull align 1 dereferenceable(1) %__a) unnamed_addr #6 comdat align 2 {
entry:
  %this.addr = alloca ptr, align 8
  %__a.addr = alloca ptr, align 8
  store ptr %this, ptr %this.addr, align 8, !tbaa !69
  store ptr %__a, ptr %__a.addr, align 8, !tbaa !83
  %this1 = load ptr, ptr %this.addr, align 8
  %0 = load ptr, ptr %__a.addr, align 8, !tbaa !83
  call void @_ZNSt12_Vector_baseISt10unique_ptrIN6openmc7TabularESt14default_deleteIS2_EESaIS5_EEC2ERKS6_(ptr noundef nonnull align 8 dereferenceable(24) %this1, ptr noundef nonnull align 1 dereferenceable(1) %0) #5
  ret void
}

; Function Attrs: mustprogress nounwind uwtable
define linkonce_odr void @_ZNSt12_Vector_baseISt10unique_ptrIN6openmc7TabularESt14default_deleteIS2_EESaIS5_EE17_Vector_impl_data12_M_swap_dataERS8_(ptr noundef nonnull align 8 dereferenceable(24) %this, ptr noundef nonnull align 8 dereferenceable(24) %__x) #6 comdat align 2 {
entry:
  %this.addr = alloca ptr, align 8
  %__x.addr = alloca ptr, align 8
  %__tmp = alloca %"struct.std::_Vector_base<std::unique_ptr<openmc::Tabular>, std::allocator<std::unique_ptr<openmc::Tabular>>>::_Vector_impl_data", align 8
  store ptr %this, ptr %this.addr, align 8, !tbaa !108
  store ptr %__x, ptr %__x.addr, align 8, !tbaa !108
  %this1 = load ptr, ptr %this.addr, align 8
  call void @llvm.lifetime.start.p0(i64 24, ptr %__tmp) #5
  call void @_ZNSt12_Vector_baseISt10unique_ptrIN6openmc7TabularESt14default_deleteIS2_EESaIS5_EE17_Vector_impl_dataC2Ev(ptr noundef nonnull align 8 dereferenceable(24) %__tmp) #5
  call void @_ZNSt12_Vector_baseISt10unique_ptrIN6openmc7TabularESt14default_deleteIS2_EESaIS5_EE17_Vector_impl_data12_M_copy_dataERKS8_(ptr noundef nonnull align 8 dereferenceable(24) %__tmp, ptr noundef nonnull align 8 dereferenceable(24) %this1) #5
  %0 = load ptr, ptr %__x.addr, align 8, !tbaa !108
  call void @_ZNSt12_Vector_baseISt10unique_ptrIN6openmc7TabularESt14default_deleteIS2_EESaIS5_EE17_Vector_impl_data12_M_copy_dataERKS8_(ptr noundef nonnull align 8 dereferenceable(24) %this1, ptr noundef nonnull align 8 dereferenceable(24) %0) #5
  %1 = load ptr, ptr %__x.addr, align 8, !tbaa !108
  call void @_ZNSt12_Vector_baseISt10unique_ptrIN6openmc7TabularESt14default_deleteIS2_EESaIS5_EE17_Vector_impl_data12_M_copy_dataERKS8_(ptr noundef nonnull align 8 dereferenceable(24) %1, ptr noundef nonnull align 8 dereferenceable(24) %__tmp) #5
  call void @llvm.lifetime.end.p0(i64 24, ptr %__tmp) #5
  ret void
}

; Function Attrs: inlinehint mustprogress nounwind uwtable
define linkonce_odr void @_ZSt15__alloc_on_moveISaISt10unique_ptrIN6openmc7TabularESt14default_deleteIS2_EEEEvRT_S8_(ptr noundef nonnull align 1 dereferenceable(1) %__one, ptr noundef nonnull align 1 dereferenceable(1) %__two) #1 comdat {
entry:
  %__one.addr = alloca ptr, align 8
  %__two.addr = alloca ptr, align 8
  store ptr %__one, ptr %__one.addr, align 8, !tbaa !83
  store ptr %__two, ptr %__two.addr, align 8, !tbaa !83
  %0 = load ptr, ptr %__two.addr, align 8, !tbaa !83
  %1 = load ptr, ptr %__one.addr, align 8, !tbaa !83
  ret void
}

; Function Attrs: mustprogress nounwind uwtable
define linkonce_odr noundef nonnull align 1 dereferenceable(1) ptr @_ZNSt12_Vector_baseISt10unique_ptrIN6openmc7TabularESt14default_deleteIS2_EESaIS5_EE19_M_get_Tp_allocatorEv(ptr noundef nonnull align 8 dereferenceable(24) %this) #6 comdat align 2 {
entry:
  %this.addr = alloca ptr, align 8
  store ptr %this, ptr %this.addr, align 8, !tbaa !79
  %this1 = load ptr, ptr %this.addr, align 8
  %_M_impl = getelementptr inbounds nuw %"struct.std::_Vector_base.1", ptr %this1, i32 0, i32 0
  ret ptr %_M_impl
}

; Function Attrs: mustprogress nounwind uwtable
define linkonce_odr void @_ZNSt6vectorISt10unique_ptrIN6openmc7TabularESt14default_deleteIS2_EESaIS5_EED2Ev(ptr noundef nonnull align 8 dereferenceable(24) %this) unnamed_addr #6 comdat align 2 personality ptr @__gxx_personality_v0 {
entry:
  %this.addr = alloca ptr, align 8
  store ptr %this, ptr %this.addr, align 8, !tbaa !69
  %this1 = load ptr, ptr %this.addr, align 8
  %_M_impl = getelementptr inbounds nuw %"struct.std::_Vector_base.1", ptr %this1, i32 0, i32 0
  %_M_start = getelementptr inbounds nuw %"struct.std::_Vector_base<std::unique_ptr<openmc::Tabular>, std::allocator<std::unique_ptr<openmc::Tabular>>>::_Vector_impl_data", ptr %_M_impl, i32 0, i32 0
  %0 = load ptr, ptr %_M_start, align 8, !tbaa !110
  %_M_impl2 = getelementptr inbounds nuw %"struct.std::_Vector_base.1", ptr %this1, i32 0, i32 0
  %_M_finish = getelementptr inbounds nuw %"struct.std::_Vector_base<std::unique_ptr<openmc::Tabular>, std::allocator<std::unique_ptr<openmc::Tabular>>>::_Vector_impl_data", ptr %_M_impl2, i32 0, i32 1
  %1 = load ptr, ptr %_M_finish, align 8, !tbaa !111
  %call = call noundef nonnull align 1 dereferenceable(1) ptr @_ZNSt12_Vector_baseISt10unique_ptrIN6openmc7TabularESt14default_deleteIS2_EESaIS5_EE19_M_get_Tp_allocatorEv(ptr noundef nonnull align 8 dereferenceable(24) %this1) #5
  invoke void @_ZSt8_DestroyIPSt10unique_ptrIN6openmc7TabularESt14default_deleteIS2_EES5_EvT_S7_RSaIT0_E(ptr noundef %0, ptr noundef %1, ptr noundef nonnull align 1 dereferenceable(1) %call)
          to label %invoke.cont unwind label %terminate.lpad

invoke.cont:                                      ; preds = %entry
  call void @_ZNSt12_Vector_baseISt10unique_ptrIN6openmc7TabularESt14default_deleteIS2_EESaIS5_EED2Ev(ptr noundef nonnull align 8 dereferenceable(24) %this1) #5
  ret void

terminate.lpad:                                   ; preds = %entry
  %2 = landingpad { ptr, i32 }
          catch ptr null
  %3 = extractvalue { ptr, i32 } %2, 0
  call void @__clang_call_terminate(ptr %3) #23
  unreachable
}

; Function Attrs: mustprogress nounwind uwtable
define linkonce_odr noundef nonnull align 1 dereferenceable(1) ptr @_ZNKSt12_Vector_baseISt10unique_ptrIN6openmc7TabularESt14default_deleteIS2_EESaIS5_EE19_M_get_Tp_allocatorEv(ptr noundef nonnull align 8 dereferenceable(24) %this) #6 comdat align 2 {
entry:
  %this.addr = alloca ptr, align 8
  store ptr %this, ptr %this.addr, align 8, !tbaa !79
  %this1 = load ptr, ptr %this.addr, align 8
  %_M_impl = getelementptr inbounds nuw %"struct.std::_Vector_base.1", ptr %this1, i32 0, i32 0
  ret ptr %_M_impl
}

; Function Attrs: mustprogress nounwind uwtable
define linkonce_odr void @_ZNSaISt10unique_ptrIN6openmc7TabularESt14default_deleteIS1_EEEC2ERKS5_(ptr noundef nonnull align 1 dereferenceable(1) %this, ptr noundef nonnull align 1 dereferenceable(1) %__a) unnamed_addr #6 comdat align 2 {
entry:
  %this.addr = alloca ptr, align 8
  %__a.addr = alloca ptr, align 8
  store ptr %this, ptr %this.addr, align 8, !tbaa !83
  store ptr %__a, ptr %__a.addr, align 8, !tbaa !83
  %this1 = load ptr, ptr %this.addr, align 8
  %0 = load ptr, ptr %__a.addr, align 8, !tbaa !83
  call void @_ZNSt15__new_allocatorISt10unique_ptrIN6openmc7TabularESt14default_deleteIS2_EEEC2ERKS6_(ptr noundef nonnull align 1 dereferenceable(1) %this1, ptr noundef nonnull align 1 dereferenceable(1) %0) #5
  ret void
}

; Function Attrs: mustprogress nounwind uwtable
define linkonce_odr void @_ZNSt15__new_allocatorISt10unique_ptrIN6openmc7TabularESt14default_deleteIS2_EEEC2ERKS6_(ptr noundef nonnull align 1 dereferenceable(1) %this, ptr noundef nonnull align 1 dereferenceable(1) %0) unnamed_addr #6 comdat align 2 {
entry:
  %this.addr = alloca ptr, align 8
  %.addr = alloca ptr, align 8
  store ptr %this, ptr %this.addr, align 8, !tbaa !85
  store ptr %0, ptr %.addr, align 8, !tbaa !85
  %this1 = load ptr, ptr %this.addr, align 8
  ret void
}

; Function Attrs: mustprogress nounwind uwtable
define linkonce_odr void @_ZNSt12_Vector_baseISt10unique_ptrIN6openmc7TabularESt14default_deleteIS2_EESaIS5_EEC2ERKS6_(ptr noundef nonnull align 8 dereferenceable(24) %this, ptr noundef nonnull align 1 dereferenceable(1) %__a) unnamed_addr #6 comdat align 2 {
entry:
  %this.addr = alloca ptr, align 8
  %__a.addr = alloca ptr, align 8
  store ptr %this, ptr %this.addr, align 8, !tbaa !79
  store ptr %__a, ptr %__a.addr, align 8, !tbaa !83
  %this1 = load ptr, ptr %this.addr, align 8
  %_M_impl = getelementptr inbounds nuw %"struct.std::_Vector_base.1", ptr %this1, i32 0, i32 0
  %0 = load ptr, ptr %__a.addr, align 8, !tbaa !83
  call void @_ZNSt12_Vector_baseISt10unique_ptrIN6openmc7TabularESt14default_deleteIS2_EESaIS5_EE12_Vector_implC2ERKS6_(ptr noundef nonnull align 8 dereferenceable(24) %_M_impl, ptr noundef nonnull align 1 dereferenceable(1) %0) #5
  ret void
}

; Function Attrs: mustprogress nounwind uwtable
define linkonce_odr void @_ZNSt12_Vector_baseISt10unique_ptrIN6openmc7TabularESt14default_deleteIS2_EESaIS5_EE12_Vector_implC2ERKS6_(ptr noundef nonnull align 8 dereferenceable(24) %this, ptr noundef nonnull align 1 dereferenceable(1) %__a) unnamed_addr #6 comdat align 2 {
entry:
  %this.addr = alloca ptr, align 8
  %__a.addr = alloca ptr, align 8
  store ptr %this, ptr %this.addr, align 8, !tbaa !81
  store ptr %__a, ptr %__a.addr, align 8, !tbaa !83
  %this1 = load ptr, ptr %this.addr, align 8
  %0 = load ptr, ptr %__a.addr, align 8, !tbaa !83
  call void @_ZNSaISt10unique_ptrIN6openmc7TabularESt14default_deleteIS1_EEEC2ERKS5_(ptr noundef nonnull align 1 dereferenceable(1) %this1, ptr noundef nonnull align 1 dereferenceable(1) %0) #5
  call void @_ZNSt12_Vector_baseISt10unique_ptrIN6openmc7TabularESt14default_deleteIS2_EESaIS5_EE17_Vector_impl_dataC2Ev(ptr noundef nonnull align 8 dereferenceable(24) %this1) #5
  ret void
}

; Function Attrs: mustprogress nounwind uwtable
define linkonce_odr void @_ZNSt12_Vector_baseISt10unique_ptrIN6openmc7TabularESt14default_deleteIS2_EESaIS5_EE17_Vector_impl_dataC2Ev(ptr noundef nonnull align 8 dereferenceable(24) %this) unnamed_addr #6 comdat align 2 {
entry:
  %this.addr = alloca ptr, align 8
  store ptr %this, ptr %this.addr, align 8, !tbaa !108
  %this1 = load ptr, ptr %this.addr, align 8
  %_M_start = getelementptr inbounds nuw %"struct.std::_Vector_base<std::unique_ptr<openmc::Tabular>, std::allocator<std::unique_ptr<openmc::Tabular>>>::_Vector_impl_data", ptr %this1, i32 0, i32 0
  store ptr null, ptr %_M_start, align 8, !tbaa !110
  %_M_finish = getelementptr inbounds nuw %"struct.std::_Vector_base<std::unique_ptr<openmc::Tabular>, std::allocator<std::unique_ptr<openmc::Tabular>>>::_Vector_impl_data", ptr %this1, i32 0, i32 1
  store ptr null, ptr %_M_finish, align 8, !tbaa !111
  %_M_end_of_storage = getelementptr inbounds nuw %"struct.std::_Vector_base<std::unique_ptr<openmc::Tabular>, std::allocator<std::unique_ptr<openmc::Tabular>>>::_Vector_impl_data", ptr %this1, i32 0, i32 2
  store ptr null, ptr %_M_end_of_storage, align 8, !tbaa !112
  ret void
}

; Function Attrs: mustprogress nounwind uwtable
define linkonce_odr void @_ZNSt12_Vector_baseISt10unique_ptrIN6openmc7TabularESt14default_deleteIS2_EESaIS5_EE17_Vector_impl_data12_M_copy_dataERKS8_(ptr noundef nonnull align 8 dereferenceable(24) %this, ptr noundef nonnull align 8 dereferenceable(24) %__x) #6 comdat align 2 {
entry:
  %this.addr = alloca ptr, align 8
  %__x.addr = alloca ptr, align 8
  store ptr %this, ptr %this.addr, align 8, !tbaa !108
  store ptr %__x, ptr %__x.addr, align 8, !tbaa !108
  %this1 = load ptr, ptr %this.addr, align 8
  %0 = load ptr, ptr %__x.addr, align 8, !tbaa !108
  %_M_start = getelementptr inbounds nuw %"struct.std::_Vector_base<std::unique_ptr<openmc::Tabular>, std::allocator<std::unique_ptr<openmc::Tabular>>>::_Vector_impl_data", ptr %0, i32 0, i32 0
  %1 = load ptr, ptr %_M_start, align 8, !tbaa !110
  %_M_start2 = getelementptr inbounds nuw %"struct.std::_Vector_base<std::unique_ptr<openmc::Tabular>, std::allocator<std::unique_ptr<openmc::Tabular>>>::_Vector_impl_data", ptr %this1, i32 0, i32 0
  store ptr %1, ptr %_M_start2, align 8, !tbaa !110
  %2 = load ptr, ptr %__x.addr, align 8, !tbaa !108
  %_M_finish = getelementptr inbounds nuw %"struct.std::_Vector_base<std::unique_ptr<openmc::Tabular>, std::allocator<std::unique_ptr<openmc::Tabular>>>::_Vector_impl_data", ptr %2, i32 0, i32 1
  %3 = load ptr, ptr %_M_finish, align 8, !tbaa !111
  %_M_finish3 = getelementptr inbounds nuw %"struct.std::_Vector_base<std::unique_ptr<openmc::Tabular>, std::allocator<std::unique_ptr<openmc::Tabular>>>::_Vector_impl_data", ptr %this1, i32 0, i32 1
  store ptr %3, ptr %_M_finish3, align 8, !tbaa !111
  %4 = load ptr, ptr %__x.addr, align 8, !tbaa !108
  %_M_end_of_storage = getelementptr inbounds nuw %"struct.std::_Vector_base<std::unique_ptr<openmc::Tabular>, std::allocator<std::unique_ptr<openmc::Tabular>>>::_Vector_impl_data", ptr %4, i32 0, i32 2
  %5 = load ptr, ptr %_M_end_of_storage, align 8, !tbaa !112
  %_M_end_of_storage4 = getelementptr inbounds nuw %"struct.std::_Vector_base<std::unique_ptr<openmc::Tabular>, std::allocator<std::unique_ptr<openmc::Tabular>>>::_Vector_impl_data", ptr %this1, i32 0, i32 2
  store ptr %5, ptr %_M_end_of_storage4, align 8, !tbaa !112
  ret void
}

; Function Attrs: inlinehint mustprogress uwtable
define linkonce_odr void @_ZSt8_DestroyIPSt10unique_ptrIN6openmc7TabularESt14default_deleteIS2_EES5_EvT_S7_RSaIT0_E(ptr noundef %__first, ptr noundef %__last, ptr noundef nonnull align 1 dereferenceable(1) %0) #8 comdat {
entry:
  %__first.addr = alloca ptr, align 8
  %__last.addr = alloca ptr, align 8
  %.addr = alloca ptr, align 8
  store ptr %__first, ptr %__first.addr, align 8, !tbaa !113
  store ptr %__last, ptr %__last.addr, align 8, !tbaa !113
  store ptr %0, ptr %.addr, align 8, !tbaa !83
  %1 = load ptr, ptr %__first.addr, align 8, !tbaa !113
  %2 = load ptr, ptr %__last.addr, align 8, !tbaa !113
  call void @_ZSt8_DestroyIPSt10unique_ptrIN6openmc7TabularESt14default_deleteIS2_EEEvT_S7_(ptr noundef %1, ptr noundef %2)
  ret void
}

; Function Attrs: mustprogress nounwind uwtable
define linkonce_odr void @_ZNSt12_Vector_baseISt10unique_ptrIN6openmc7TabularESt14default_deleteIS2_EESaIS5_EED2Ev(ptr noundef nonnull align 8 dereferenceable(24) %this) unnamed_addr #6 comdat align 2 personality ptr @__gxx_personality_v0 {
entry:
  %this.addr = alloca ptr, align 8
  store ptr %this, ptr %this.addr, align 8, !tbaa !79
  %this1 = load ptr, ptr %this.addr, align 8
  %_M_impl = getelementptr inbounds nuw %"struct.std::_Vector_base.1", ptr %this1, i32 0, i32 0
  %_M_start = getelementptr inbounds nuw %"struct.std::_Vector_base<std::unique_ptr<openmc::Tabular>, std::allocator<std::unique_ptr<openmc::Tabular>>>::_Vector_impl_data", ptr %_M_impl, i32 0, i32 0
  %0 = load ptr, ptr %_M_start, align 8, !tbaa !110
  %_M_impl2 = getelementptr inbounds nuw %"struct.std::_Vector_base.1", ptr %this1, i32 0, i32 0
  %_M_end_of_storage = getelementptr inbounds nuw %"struct.std::_Vector_base<std::unique_ptr<openmc::Tabular>, std::allocator<std::unique_ptr<openmc::Tabular>>>::_Vector_impl_data", ptr %_M_impl2, i32 0, i32 2
  %1 = load ptr, ptr %_M_end_of_storage, align 8, !tbaa !112
  %_M_impl3 = getelementptr inbounds nuw %"struct.std::_Vector_base.1", ptr %this1, i32 0, i32 0
  %_M_start4 = getelementptr inbounds nuw %"struct.std::_Vector_base<std::unique_ptr<openmc::Tabular>, std::allocator<std::unique_ptr<openmc::Tabular>>>::_Vector_impl_data", ptr %_M_impl3, i32 0, i32 0
  %2 = load ptr, ptr %_M_start4, align 8, !tbaa !110
  %sub.ptr.lhs.cast = ptrtoint ptr %1 to i64
  %sub.ptr.rhs.cast = ptrtoint ptr %2 to i64
  %sub.ptr.sub = sub i64 %sub.ptr.lhs.cast, %sub.ptr.rhs.cast
  %sub.ptr.div = sdiv exact i64 %sub.ptr.sub, 8
  invoke void @_ZNSt12_Vector_baseISt10unique_ptrIN6openmc7TabularESt14default_deleteIS2_EESaIS5_EE13_M_deallocateEPS5_m(ptr noundef nonnull align 8 dereferenceable(24) %this1, ptr noundef %0, i64 noundef %sub.ptr.div)
          to label %invoke.cont unwind label %terminate.lpad

invoke.cont:                                      ; preds = %entry
  %_M_impl5 = getelementptr inbounds nuw %"struct.std::_Vector_base.1", ptr %this1, i32 0, i32 0
  call void @_ZNSt15__new_allocatorISt10unique_ptrIN6openmc7TabularESt14default_deleteIS2_EEED2Ev(ptr noundef nonnull align 8 dereferenceable(24) %_M_impl5) #5
  ret void

terminate.lpad:                                   ; preds = %entry
  %3 = landingpad { ptr, i32 }
          catch ptr null
  %4 = extractvalue { ptr, i32 } %3, 0
  call void @__clang_call_terminate(ptr %4) #23
  unreachable
}

; Function Attrs: inlinehint mustprogress uwtable
define linkonce_odr void @_ZSt8_DestroyIPSt10unique_ptrIN6openmc7TabularESt14default_deleteIS2_EEEvT_S7_(ptr noundef %__first, ptr noundef %__last) #8 comdat {
entry:
  %__first.addr = alloca ptr, align 8
  %__last.addr = alloca ptr, align 8
  store ptr %__first, ptr %__first.addr, align 8, !tbaa !113
  store ptr %__last, ptr %__last.addr, align 8, !tbaa !113
  %0 = load ptr, ptr %__first.addr, align 8, !tbaa !113
  %1 = load ptr, ptr %__last.addr, align 8, !tbaa !113
  call void @_ZNSt12_Destroy_auxILb0EE9__destroyIPSt10unique_ptrIN6openmc7TabularESt14default_deleteIS4_EEEEvT_S9_(ptr noundef %0, ptr noundef %1)
  ret void
}

; Function Attrs: mustprogress uwtable
define linkonce_odr void @_ZNSt12_Destroy_auxILb0EE9__destroyIPSt10unique_ptrIN6openmc7TabularESt14default_deleteIS4_EEEEvT_S9_(ptr noundef %__first, ptr noundef %__last) #0 comdat align 2 {
entry:
  %__first.addr = alloca ptr, align 8
  %__last.addr = alloca ptr, align 8
  store ptr %__first, ptr %__first.addr, align 8, !tbaa !113
  store ptr %__last, ptr %__last.addr, align 8, !tbaa !113
  br label %for.cond

for.cond:                                         ; preds = %for.inc, %entry
  %0 = load ptr, ptr %__first.addr, align 8, !tbaa !113
  %1 = load ptr, ptr %__last.addr, align 8, !tbaa !113
  %cmp = icmp ne ptr %0, %1
  br i1 %cmp, label %for.body, label %for.end

for.body:                                         ; preds = %for.cond
  %2 = load ptr, ptr %__first.addr, align 8, !tbaa !113
  call void @_ZSt8_DestroyISt10unique_ptrIN6openmc7TabularESt14default_deleteIS2_EEEvPT_(ptr noundef %2)
  br label %for.inc

for.inc:                                          ; preds = %for.body
  %3 = load ptr, ptr %__first.addr, align 8, !tbaa !113
  %incdec.ptr = getelementptr inbounds nuw %"class.std::unique_ptr.25", ptr %3, i32 1
  store ptr %incdec.ptr, ptr %__first.addr, align 8, !tbaa !113
  br label %for.cond, !llvm.loop !114

for.end:                                          ; preds = %for.cond
  ret void
}

; Function Attrs: inlinehint mustprogress nounwind uwtable
define linkonce_odr void @_ZSt8_DestroyISt10unique_ptrIN6openmc7TabularESt14default_deleteIS2_EEEvPT_(ptr noundef %__pointer) #1 comdat {
entry:
  %__pointer.addr = alloca ptr, align 8
  store ptr %__pointer, ptr %__pointer.addr, align 8, !tbaa !113
  %0 = load ptr, ptr %__pointer.addr, align 8, !tbaa !113
  call void @_ZNSt10unique_ptrIN6openmc7TabularESt14default_deleteIS1_EED2Ev(ptr noundef nonnull align 8 dereferenceable(8) %0) #5
  ret void
}

; Function Attrs: mustprogress nounwind uwtable
define linkonce_odr void @_ZNSt10unique_ptrIN6openmc7TabularESt14default_deleteIS1_EED2Ev(ptr noundef nonnull align 8 dereferenceable(8) %this) unnamed_addr #6 comdat align 2 personality ptr @__gxx_personality_v0 {
entry:
  %this.addr = alloca ptr, align 8
  %__ptr = alloca ptr, align 8
  store ptr %this, ptr %this.addr, align 8, !tbaa !113
  %this1 = load ptr, ptr %this.addr, align 8
  call void @llvm.lifetime.start.p0(i64 8, ptr %__ptr) #5
  %_M_t = getelementptr inbounds nuw %"class.std::unique_ptr.25", ptr %this1, i32 0, i32 0
  %call = call noundef nonnull align 8 dereferenceable(8) ptr @_ZNSt15__uniq_ptr_implIN6openmc7TabularESt14default_deleteIS1_EE6_M_ptrEv(ptr noundef nonnull align 8 dereferenceable(8) %_M_t) #5
  store ptr %call, ptr %__ptr, align 8, !tbaa !116
  %0 = load ptr, ptr %__ptr, align 8, !tbaa !116
  %1 = load ptr, ptr %0, align 8, !tbaa !118
  %cmp = icmp ne ptr %1, null
  br i1 %cmp, label %if.then, label %if.end

if.then:                                          ; preds = %entry
  %call2 = call noundef nonnull align 1 dereferenceable(1) ptr @_ZNSt10unique_ptrIN6openmc7TabularESt14default_deleteIS1_EE11get_deleterEv(ptr noundef nonnull align 8 dereferenceable(8) %this1) #5
  %2 = load ptr, ptr %__ptr, align 8, !tbaa !116
  %3 = load ptr, ptr %2, align 8, !tbaa !118
  invoke void @_ZNKSt14default_deleteIN6openmc7TabularEEclEPS1_(ptr noundef nonnull align 1 dereferenceable(1) %call2, ptr noundef %3)
          to label %invoke.cont unwind label %terminate.lpad

invoke.cont:                                      ; preds = %if.then
  br label %if.end

if.end:                                           ; preds = %invoke.cont, %entry
  %4 = load ptr, ptr %__ptr, align 8, !tbaa !116
  store ptr null, ptr %4, align 8, !tbaa !118
  call void @llvm.lifetime.end.p0(i64 8, ptr %__ptr) #5
  ret void

terminate.lpad:                                   ; preds = %if.then
  %5 = landingpad { ptr, i32 }
          catch ptr null
  %6 = extractvalue { ptr, i32 } %5, 0
  call void @__clang_call_terminate(ptr %6) #23
  unreachable
}

; Function Attrs: mustprogress nounwind uwtable
define linkonce_odr noundef nonnull align 8 dereferenceable(8) ptr @_ZNSt15__uniq_ptr_implIN6openmc7TabularESt14default_deleteIS1_EE6_M_ptrEv(ptr noundef nonnull align 8 dereferenceable(8) %this) #6 comdat align 2 {
entry:
  %this.addr = alloca ptr, align 8
  store ptr %this, ptr %this.addr, align 8, !tbaa !120
  %this1 = load ptr, ptr %this.addr, align 8
  %_M_t = getelementptr inbounds nuw %"class.std::__uniq_ptr_impl.27", ptr %this1, i32 0, i32 0
  %call = call noundef nonnull align 8 dereferenceable(8) ptr @_ZSt3getILm0EJPN6openmc7TabularESt14default_deleteIS1_EEERNSt13tuple_elementIXT_ESt5tupleIJDpT0_EEE4typeERS9_(ptr noundef nonnull align 8 dereferenceable(8) %_M_t) #5
  ret ptr %call
}

; Function Attrs: mustprogress nounwind uwtable
define linkonce_odr noundef nonnull align 1 dereferenceable(1) ptr @_ZNSt10unique_ptrIN6openmc7TabularESt14default_deleteIS1_EE11get_deleterEv(ptr noundef nonnull align 8 dereferenceable(8) %this) #6 comdat align 2 {
entry:
  %this.addr = alloca ptr, align 8
  store ptr %this, ptr %this.addr, align 8, !tbaa !113
  %this1 = load ptr, ptr %this.addr, align 8
  %_M_t = getelementptr inbounds nuw %"class.std::unique_ptr.25", ptr %this1, i32 0, i32 0
  %call = call noundef nonnull align 1 dereferenceable(1) ptr @_ZNSt15__uniq_ptr_implIN6openmc7TabularESt14default_deleteIS1_EE10_M_deleterEv(ptr noundef nonnull align 8 dereferenceable(8) %_M_t) #5
  ret ptr %call
}

; Function Attrs: mustprogress nounwind uwtable
define linkonce_odr void @_ZNKSt14default_deleteIN6openmc7TabularEEclEPS1_(ptr noundef nonnull align 1 dereferenceable(1) %this, ptr noundef %__ptr) #6 comdat align 2 {
entry:
  %this.addr = alloca ptr, align 8
  %__ptr.addr = alloca ptr, align 8
  store ptr %this, ptr %this.addr, align 8, !tbaa !122
  store ptr %__ptr, ptr %__ptr.addr, align 8, !tbaa !118
  %this1 = load ptr, ptr %this.addr, align 8
  %0 = load ptr, ptr %__ptr.addr, align 8, !tbaa !118
  %isnull = icmp eq ptr %0, null
  br i1 %isnull, label %delete.end, label %delete.notnull

delete.notnull:                                   ; preds = %entry
  %vtable = load ptr, ptr %0, align 8, !tbaa !45
  %vfn = getelementptr inbounds ptr, ptr %vtable, i64 1
  %1 = load ptr, ptr %vfn, align 8
  call void %1(ptr noundef nonnull align 8 dereferenceable(84) %0) #5
  br label %delete.end

delete.end:                                       ; preds = %delete.notnull, %entry
  ret void
}

; Function Attrs: mustprogress nounwind uwtable
define linkonce_odr noundef nonnull align 8 dereferenceable(8) ptr @_ZSt3getILm0EJPN6openmc7TabularESt14default_deleteIS1_EEERNSt13tuple_elementIXT_ESt5tupleIJDpT0_EEE4typeERS9_(ptr noundef nonnull align 8 dereferenceable(8) %__t) #6 comdat {
entry:
  %__t.addr = alloca ptr, align 8
  store ptr %__t, ptr %__t.addr, align 8, !tbaa !124
  %0 = load ptr, ptr %__t.addr, align 8, !tbaa !124
  %call = call noundef nonnull align 8 dereferenceable(8) ptr @_ZSt12__get_helperILm0EPN6openmc7TabularEJSt14default_deleteIS1_EEERT0_RSt11_Tuple_implIXT_EJS5_DpT1_EE(ptr noundef nonnull align 8 dereferenceable(8) %0) #5
  ret ptr %call
}

; Function Attrs: mustprogress nounwind uwtable
define linkonce_odr noundef nonnull align 8 dereferenceable(8) ptr @_ZSt12__get_helperILm0EPN6openmc7TabularEJSt14default_deleteIS1_EEERT0_RSt11_Tuple_implIXT_EJS5_DpT1_EE(ptr noundef nonnull align 8 dereferenceable(8) %__t) #6 comdat {
entry:
  %__t.addr = alloca ptr, align 8
  store ptr %__t, ptr %__t.addr, align 8, !tbaa !126
  %0 = load ptr, ptr %__t.addr, align 8, !tbaa !126
  %call = call noundef nonnull align 8 dereferenceable(8) ptr @_ZNSt11_Tuple_implILm0EJPN6openmc7TabularESt14default_deleteIS1_EEE7_M_headERS5_(ptr noundef nonnull align 8 dereferenceable(8) %0) #5
  ret ptr %call
}

; Function Attrs: mustprogress nounwind uwtable
define linkonce_odr noundef nonnull align 8 dereferenceable(8) ptr @_ZNSt11_Tuple_implILm0EJPN6openmc7TabularESt14default_deleteIS1_EEE7_M_headERS5_(ptr noundef nonnull align 8 dereferenceable(8) %__t) #6 comdat align 2 {
entry:
  %__t.addr = alloca ptr, align 8
  store ptr %__t, ptr %__t.addr, align 8, !tbaa !126
  %0 = load ptr, ptr %__t.addr, align 8, !tbaa !126
  %call = call noundef nonnull align 8 dereferenceable(8) ptr @_ZNSt10_Head_baseILm0EPN6openmc7TabularELb0EE7_M_headERS3_(ptr noundef nonnull align 8 dereferenceable(8) %0) #5
  ret ptr %call
}

; Function Attrs: mustprogress nounwind uwtable
define linkonce_odr noundef nonnull align 8 dereferenceable(8) ptr @_ZNSt10_Head_baseILm0EPN6openmc7TabularELb0EE7_M_headERS3_(ptr noundef nonnull align 8 dereferenceable(8) %__b) #6 comdat align 2 {
entry:
  %__b.addr = alloca ptr, align 8
  store ptr %__b, ptr %__b.addr, align 8, !tbaa !128
  %0 = load ptr, ptr %__b.addr, align 8, !tbaa !128
  %_M_head_impl = getelementptr inbounds nuw %"struct.std::_Head_base.32", ptr %0, i32 0, i32 0
  ret ptr %_M_head_impl
}

; Function Attrs: mustprogress nounwind uwtable
define linkonce_odr noundef nonnull align 1 dereferenceable(1) ptr @_ZNSt15__uniq_ptr_implIN6openmc7TabularESt14default_deleteIS1_EE10_M_deleterEv(ptr noundef nonnull align 8 dereferenceable(8) %this) #6 comdat align 2 {
entry:
  %this.addr = alloca ptr, align 8
  store ptr %this, ptr %this.addr, align 8, !tbaa !120
  %this1 = load ptr, ptr %this.addr, align 8
  %_M_t = getelementptr inbounds nuw %"class.std::__uniq_ptr_impl.27", ptr %this1, i32 0, i32 0
  %call = call noundef nonnull align 1 dereferenceable(1) ptr @_ZSt3getILm1EJPN6openmc7TabularESt14default_deleteIS1_EEERNSt13tuple_elementIXT_ESt5tupleIJDpT0_EEE4typeERS9_(ptr noundef nonnull align 8 dereferenceable(8) %_M_t) #5
  ret ptr %call
}

; Function Attrs: mustprogress nounwind uwtable
define linkonce_odr noundef nonnull align 1 dereferenceable(1) ptr @_ZSt3getILm1EJPN6openmc7TabularESt14default_deleteIS1_EEERNSt13tuple_elementIXT_ESt5tupleIJDpT0_EEE4typeERS9_(ptr noundef nonnull align 8 dereferenceable(8) %__t) #6 comdat {
entry:
  %__t.addr = alloca ptr, align 8
  store ptr %__t, ptr %__t.addr, align 8, !tbaa !124
  %0 = load ptr, ptr %__t.addr, align 8, !tbaa !124
  %call = call noundef nonnull align 1 dereferenceable(1) ptr @_ZSt12__get_helperILm1ESt14default_deleteIN6openmc7TabularEEJEERT0_RSt11_Tuple_implIXT_EJS4_DpT1_EE(ptr noundef nonnull align 1 dereferenceable(1) %0) #5
  ret ptr %call
}

; Function Attrs: mustprogress nounwind uwtable
define linkonce_odr noundef nonnull align 1 dereferenceable(1) ptr @_ZSt12__get_helperILm1ESt14default_deleteIN6openmc7TabularEEJEERT0_RSt11_Tuple_implIXT_EJS4_DpT1_EE(ptr noundef nonnull align 1 dereferenceable(1) %__t) #6 comdat {
entry:
  %__t.addr = alloca ptr, align 8
  store ptr %__t, ptr %__t.addr, align 8, !tbaa !130
  %0 = load ptr, ptr %__t.addr, align 8, !tbaa !130
  %call = call noundef nonnull align 1 dereferenceable(1) ptr @_ZNSt11_Tuple_implILm1EJSt14default_deleteIN6openmc7TabularEEEE7_M_headERS4_(ptr noundef nonnull align 1 dereferenceable(1) %0) #5
  ret ptr %call
}

; Function Attrs: mustprogress nounwind uwtable
define linkonce_odr noundef nonnull align 1 dereferenceable(1) ptr @_ZNSt11_Tuple_implILm1EJSt14default_deleteIN6openmc7TabularEEEE7_M_headERS4_(ptr noundef nonnull align 1 dereferenceable(1) %__t) #6 comdat align 2 {
entry:
  %__t.addr = alloca ptr, align 8
  store ptr %__t, ptr %__t.addr, align 8, !tbaa !130
  %0 = load ptr, ptr %__t.addr, align 8, !tbaa !130
  %call = call noundef nonnull align 1 dereferenceable(1) ptr @_ZNSt10_Head_baseILm1ESt14default_deleteIN6openmc7TabularEELb1EE7_M_headERS4_(ptr noundef nonnull align 1 dereferenceable(1) %0) #5
  ret ptr %call
}

; Function Attrs: mustprogress nounwind uwtable
define linkonce_odr noundef nonnull align 1 dereferenceable(1) ptr @_ZNSt10_Head_baseILm1ESt14default_deleteIN6openmc7TabularEELb1EE7_M_headERS4_(ptr noundef nonnull align 1 dereferenceable(1) %__b) #6 comdat align 2 {
entry:
  %__b.addr = alloca ptr, align 8
  store ptr %__b, ptr %__b.addr, align 8, !tbaa !132
  %0 = load ptr, ptr %__b.addr, align 8, !tbaa !132
  ret ptr %0
}

; Function Attrs: mustprogress uwtable
define linkonce_odr void @_ZNSt12_Vector_baseISt10unique_ptrIN6openmc7TabularESt14default_deleteIS2_EESaIS5_EE13_M_deallocateEPS5_m(ptr noundef nonnull align 8 dereferenceable(24) %this, ptr noundef %__p, i64 noundef %__n) #0 comdat align 2 {
entry:
  %this.addr = alloca ptr, align 8
  %__p.addr = alloca ptr, align 8
  %__n.addr = alloca i64, align 8
  store ptr %this, ptr %this.addr, align 8, !tbaa !79
  store ptr %__p, ptr %__p.addr, align 8, !tbaa !113
  store i64 %__n, ptr %__n.addr, align 8, !tbaa !51
  %this1 = load ptr, ptr %this.addr, align 8
  %0 = load ptr, ptr %__p.addr, align 8, !tbaa !113
  %tobool = icmp ne ptr %0, null
  br i1 %tobool, label %if.then, label %if.end

if.then:                                          ; preds = %entry
  %_M_impl = getelementptr inbounds nuw %"struct.std::_Vector_base.1", ptr %this1, i32 0, i32 0
  %1 = load ptr, ptr %__p.addr, align 8, !tbaa !113
  %2 = load i64, ptr %__n.addr, align 8, !tbaa !51
  call void @_ZNSt16allocator_traitsISaISt10unique_ptrIN6openmc7TabularESt14default_deleteIS2_EEEE10deallocateERS6_PS5_m(ptr noundef nonnull align 1 dereferenceable(1) %_M_impl, ptr noundef %1, i64 noundef %2)
  br label %if.end

if.end:                                           ; preds = %if.then, %entry
  ret void
}

; Function Attrs: mustprogress nounwind uwtable
define linkonce_odr void @_ZNSt15__new_allocatorISt10unique_ptrIN6openmc7TabularESt14default_deleteIS2_EEED2Ev(ptr noundef nonnull align 1 dereferenceable(1) %this) unnamed_addr #6 comdat align 2 {
entry:
  %this.addr = alloca ptr, align 8
  store ptr %this, ptr %this.addr, align 8, !tbaa !85
  %this1 = load ptr, ptr %this.addr, align 8
  ret void
}

; Function Attrs: mustprogress uwtable
define linkonce_odr void @_ZNSt16allocator_traitsISaISt10unique_ptrIN6openmc7TabularESt14default_deleteIS2_EEEE10deallocateERS6_PS5_m(ptr noundef nonnull align 1 dereferenceable(1) %__a, ptr noundef %__p, i64 noundef %__n) #0 comdat align 2 {
entry:
  %__a.addr = alloca ptr, align 8
  %__p.addr = alloca ptr, align 8
  %__n.addr = alloca i64, align 8
  store ptr %__a, ptr %__a.addr, align 8, !tbaa !83
  store ptr %__p, ptr %__p.addr, align 8, !tbaa !113
  store i64 %__n, ptr %__n.addr, align 8, !tbaa !51
  %0 = load ptr, ptr %__a.addr, align 8, !tbaa !83
  %1 = load ptr, ptr %__p.addr, align 8, !tbaa !113
  %2 = load i64, ptr %__n.addr, align 8, !tbaa !51
  call void @_ZNSt15__new_allocatorISt10unique_ptrIN6openmc7TabularESt14default_deleteIS2_EEE10deallocateEPS5_m(ptr noundef nonnull align 1 dereferenceable(1) %0, ptr noundef %1, i64 noundef %2)
  ret void
}

; Function Attrs: mustprogress nounwind uwtable
define linkonce_odr void @_ZNSt15__new_allocatorISt10unique_ptrIN6openmc7TabularESt14default_deleteIS2_EEE10deallocateEPS5_m(ptr noundef nonnull align 1 dereferenceable(1) %this, ptr noundef %__p, i64 noundef %__n) #6 comdat align 2 {
entry:
  %this.addr = alloca ptr, align 8
  %__p.addr = alloca ptr, align 8
  %__n.addr = alloca i64, align 8
  store ptr %this, ptr %this.addr, align 8, !tbaa !85
  store ptr %__p, ptr %__p.addr, align 8, !tbaa !113
  store i64 %__n, ptr %__n.addr, align 8, !tbaa !51
  %this1 = load ptr, ptr %this.addr, align 8
  %0 = load ptr, ptr %__p.addr, align 8, !tbaa !113
  %1 = load i64, ptr %__n.addr, align 8, !tbaa !51
  %mul = mul i64 %1, 8
  call void @_ZdlPvm(ptr noundef %0, i64 noundef %mul) #21
  ret void
}

; Function Attrs: mustprogress nounwind uwtable
define available_externally noundef ptr @_ZNSt7__cxx1112basic_stringIcSt11char_traitsIcESaIcEE13_M_local_dataEv(ptr noundef nonnull align 8 dereferenceable(32) %this) #6 align 2 {
entry:
  %this.addr = alloca ptr, align 8
  store ptr %this, ptr %this.addr, align 8, !tbaa !59
  %this1 = load ptr, ptr %this.addr, align 8
  %0 = getelementptr inbounds nuw %"class.std::__cxx11::basic_string", ptr %this1, i32 0, i32 2
  %arraydecay = getelementptr inbounds [16 x i8], ptr %0, i64 0, i64 0
  %call = call noundef ptr @_ZNSt19__ptr_traits_ptr_toIPccLb0EE10pointer_toERc(ptr noundef nonnull align 1 dereferenceable(1) %arraydecay) #5
  ret ptr %call
}

; Function Attrs: mustprogress nounwind uwtable
define available_externally void @_ZNSaIcEC2Ev(ptr noundef nonnull align 1 dereferenceable(1) %this) unnamed_addr #6 align 2 {
entry:
  %this.addr = alloca ptr, align 8
  store ptr %this, ptr %this.addr, align 8, !tbaa !134
  %this1 = load ptr, ptr %this.addr, align 8
  call void @_ZNSt15__new_allocatorIcEC2Ev(ptr noundef nonnull align 1 dereferenceable(1) %this1) #5
  ret void
}

; Function Attrs: mustprogress nounwind uwtable
define available_externally void @_ZNSt7__cxx1112basic_stringIcSt11char_traitsIcESaIcEE12_Alloc_hiderC2EPcOS3_(ptr noundef nonnull align 8 dereferenceable(8) %this, ptr noundef %__dat, ptr noundef nonnull align 1 dereferenceable(1) %__a) unnamed_addr #6 align 2 {
entry:
  %this.addr = alloca ptr, align 8
  %__dat.addr = alloca ptr, align 8
  %__a.addr = alloca ptr, align 8
  store ptr %this, ptr %this.addr, align 8, !tbaa !136
  store ptr %__dat, ptr %__dat.addr, align 8, !tbaa !61
  store ptr %__a, ptr %__a.addr, align 8, !tbaa !134
  %this1 = load ptr, ptr %this.addr, align 8
  %0 = load ptr, ptr %__a.addr, align 8, !tbaa !134
  call void @_ZNSaIcEC2ERKS_(ptr noundef nonnull align 1 dereferenceable(1) %this1, ptr noundef nonnull align 1 dereferenceable(1) %0) #5
  %_M_p = getelementptr inbounds nuw %"struct.std::__cxx11::basic_string<char>::_Alloc_hider", ptr %this1, i32 0, i32 0
  %1 = load ptr, ptr %__dat.addr, align 8, !tbaa !61
  store ptr %1, ptr %_M_p, align 8, !tbaa !138
  ret void
}

; Function Attrs: alwaysinline mustprogress nounwind uwtable
define available_externally noundef ptr @_ZNSt7__cxx1112basic_stringIcSt11char_traitsIcESaIcEE17_M_use_local_dataEv(ptr noundef nonnull align 8 dereferenceable(32) %this) #14 align 2 {
entry:
  %this.addr = alloca ptr, align 8
  store ptr %this, ptr %this.addr, align 8, !tbaa !59
  %this1 = load ptr, ptr %this.addr, align 8
  %call = call noundef ptr @_ZNSt7__cxx1112basic_stringIcSt11char_traitsIcESaIcEE13_M_local_dataEv(ptr noundef nonnull align 8 dereferenceable(32) %this1)
  ret ptr %call
}

; Function Attrs: mustprogress uwtable
define available_externally void @_ZNSt7__cxx1112basic_stringIcSt11char_traitsIcESaIcEE13_M_set_lengthEm(ptr noundef nonnull align 8 dereferenceable(32) %this, i64 noundef %__n) #0 align 2 {
entry:
  %this.addr = alloca ptr, align 8
  %__n.addr = alloca i64, align 8
  %ref.tmp = alloca i8, align 1
  store ptr %this, ptr %this.addr, align 8, !tbaa !59
  store i64 %__n, ptr %__n.addr, align 8, !tbaa !51
  %this1 = load ptr, ptr %this.addr, align 8
  %0 = load i64, ptr %__n.addr, align 8, !tbaa !51
  call void @_ZNSt7__cxx1112basic_stringIcSt11char_traitsIcESaIcEE9_M_lengthEm(ptr noundef nonnull align 8 dereferenceable(32) %this1, i64 noundef %0)
  %call = call noundef ptr @_ZNKSt7__cxx1112basic_stringIcSt11char_traitsIcESaIcEE7_M_dataEv(ptr noundef nonnull align 8 dereferenceable(32) %this1)
  %1 = load i64, ptr %__n.addr, align 8, !tbaa !51
  %arrayidx = getelementptr inbounds nuw i8, ptr %call, i64 %1
  call void @llvm.lifetime.start.p0(i64 1, ptr %ref.tmp) #5
  store i8 0, ptr %ref.tmp, align 1, !tbaa !140
  call void @_ZNSt11char_traitsIcE6assignERcRKc(ptr noundef nonnull align 1 dereferenceable(1) %arrayidx, ptr noundef nonnull align 1 dereferenceable(1) %ref.tmp) #5
  call void @llvm.lifetime.end.p0(i64 1, ptr %ref.tmp) #5
  ret void
}

; Function Attrs: mustprogress nounwind uwtable
define linkonce_odr noundef ptr @_ZNSt19__ptr_traits_ptr_toIPccLb0EE10pointer_toERc(ptr noundef nonnull align 1 dereferenceable(1) %__r) #6 comdat align 2 {
entry:
  %__r.addr = alloca ptr, align 8
  store ptr %__r, ptr %__r.addr, align 8, !tbaa !61
  %0 = load ptr, ptr %__r.addr, align 8, !tbaa !61
  ret ptr %0
}

; Function Attrs: mustprogress nounwind uwtable
define linkonce_odr void @_ZNSt15__new_allocatorIcEC2Ev(ptr noundef nonnull align 1 dereferenceable(1) %this) unnamed_addr #6 comdat align 2 {
entry:
  %this.addr = alloca ptr, align 8
  store ptr %this, ptr %this.addr, align 8, !tbaa !141
  %this1 = load ptr, ptr %this.addr, align 8
  ret void
}

; Function Attrs: mustprogress nounwind uwtable
define available_externally void @_ZNSaIcEC2ERKS_(ptr noundef nonnull align 1 dereferenceable(1) %this, ptr noundef nonnull align 1 dereferenceable(1) %__a) unnamed_addr #6 align 2 {
entry:
  %this.addr = alloca ptr, align 8
  %__a.addr = alloca ptr, align 8
  store ptr %this, ptr %this.addr, align 8, !tbaa !134
  store ptr %__a, ptr %__a.addr, align 8, !tbaa !134
  %this1 = load ptr, ptr %this.addr, align 8
  %0 = load ptr, ptr %__a.addr, align 8, !tbaa !134
  call void @_ZNSt15__new_allocatorIcEC2ERKS0_(ptr noundef nonnull align 1 dereferenceable(1) %this1, ptr noundef nonnull align 1 dereferenceable(1) %0) #5
  ret void
}

; Function Attrs: mustprogress nounwind uwtable
define linkonce_odr void @_ZNSt15__new_allocatorIcEC2ERKS0_(ptr noundef nonnull align 1 dereferenceable(1) %this, ptr noundef nonnull align 1 dereferenceable(1) %0) unnamed_addr #6 comdat align 2 {
entry:
  %this.addr = alloca ptr, align 8
  %.addr = alloca ptr, align 8
  store ptr %this, ptr %this.addr, align 8, !tbaa !141
  store ptr %0, ptr %.addr, align 8, !tbaa !141
  %this1 = load ptr, ptr %this.addr, align 8
  ret void
}

; Function Attrs: mustprogress nounwind uwtable
define available_externally void @_ZNSt7__cxx1112basic_stringIcSt11char_traitsIcESaIcEE9_M_lengthEm(ptr noundef nonnull align 8 dereferenceable(32) %this, i64 noundef %__length) #6 align 2 {
entry:
  %this.addr = alloca ptr, align 8
  %__length.addr = alloca i64, align 8
  store ptr %this, ptr %this.addr, align 8, !tbaa !59
  store i64 %__length, ptr %__length.addr, align 8, !tbaa !51
  %this1 = load ptr, ptr %this.addr, align 8
  %0 = load i64, ptr %__length.addr, align 8, !tbaa !51
  %_M_string_length = getelementptr inbounds nuw %"class.std::__cxx11::basic_string", ptr %this1, i32 0, i32 1
  store i64 %0, ptr %_M_string_length, align 8, !tbaa !143
  ret void
}

; Function Attrs: mustprogress nounwind uwtable
define linkonce_odr void @_ZNSt11char_traitsIcE6assignERcRKc(ptr noundef nonnull align 1 dereferenceable(1) %__c1, ptr noundef nonnull align 1 dereferenceable(1) %__c2) #6 comdat align 2 {
entry:
  %__c1.addr = alloca ptr, align 8
  %__c2.addr = alloca ptr, align 8
  store ptr %__c1, ptr %__c1.addr, align 8, !tbaa !61
  store ptr %__c2, ptr %__c2.addr, align 8, !tbaa !61
  %0 = load ptr, ptr %__c2.addr, align 8, !tbaa !61
  %1 = load i8, ptr %0, align 1, !tbaa !140
  %2 = load ptr, ptr %__c1.addr, align 8, !tbaa !61
  store i8 %1, ptr %2, align 1, !tbaa !140
  ret void
}

; Function Attrs: mustprogress nounwind uwtable
define available_externally noundef ptr @_ZNKSt7__cxx1112basic_stringIcSt11char_traitsIcESaIcEE7_M_dataEv(ptr noundef nonnull align 8 dereferenceable(32) %this) #6 align 2 {
entry:
  %this.addr = alloca ptr, align 8
  store ptr %this, ptr %this.addr, align 8, !tbaa !59
  %this1 = load ptr, ptr %this.addr, align 8
  %_M_dataplus = getelementptr inbounds nuw %"class.std::__cxx11::basic_string", ptr %this1, i32 0, i32 0
  %_M_p = getelementptr inbounds nuw %"struct.std::__cxx11::basic_string<char>::_Alloc_hider", ptr %_M_dataplus, i32 0, i32 0
  %0 = load ptr, ptr %_M_p, align 8, !tbaa !145
  ret ptr %0
}

declare i64 @attribute_typesize(i64 noundef, ptr noundef) #3

; Function Attrs: nobuiltin allocsize(0)
declare noundef nonnull ptr @_Znam(i64 noundef) #9

declare void @read_attr_string(i64 noundef, ptr noundef, i64 noundef, ptr noundef) #3

; Function Attrs: mustprogress uwtable
define available_externally void @_ZNSt7__cxx1112basic_stringIcSt11char_traitsIcESaIcEEC2EPKcmRKS3_(ptr noundef nonnull align 8 dereferenceable(32) %this, ptr noundef %__s, i64 noundef %__n, ptr noundef nonnull align 1 dereferenceable(1) %__a) unnamed_addr #0 align 2 personality ptr @__gxx_personality_v0 {
entry:
  %this.addr = alloca ptr, align 8
  %__s.addr = alloca ptr, align 8
  %__n.addr = alloca i64, align 8
  %__a.addr = alloca ptr, align 8
  %exn.slot = alloca ptr, align 8
  %ehselector.slot = alloca i32, align 4
  %agg.tmp = alloca %"struct.std::forward_iterator_tag", align 1
  store ptr %this, ptr %this.addr, align 8, !tbaa !59
  store ptr %__s, ptr %__s.addr, align 8, !tbaa !61
  store i64 %__n, ptr %__n.addr, align 8, !tbaa !51
  store ptr %__a, ptr %__a.addr, align 8, !tbaa !134
  %this1 = load ptr, ptr %this.addr, align 8
  %_M_dataplus = getelementptr inbounds nuw %"class.std::__cxx11::basic_string", ptr %this1, i32 0, i32 0
  %call = call noundef ptr @_ZNSt7__cxx1112basic_stringIcSt11char_traitsIcESaIcEE13_M_local_dataEv(ptr noundef nonnull align 8 dereferenceable(32) %this1)
  %0 = load ptr, ptr %__a.addr, align 8, !tbaa !134
  call void @_ZNSt7__cxx1112basic_stringIcSt11char_traitsIcESaIcEE12_Alloc_hiderC2EPcRKS3_(ptr noundef nonnull align 8 dereferenceable(8) %_M_dataplus, ptr noundef %call, ptr noundef nonnull align 1 dereferenceable(1) %0)
  %1 = load ptr, ptr %__s.addr, align 8, !tbaa !61
  %cmp = icmp eq ptr %1, null
  br i1 %cmp, label %land.lhs.true, label %if.end

land.lhs.true:                                    ; preds = %entry
  %2 = load i64, ptr %__n.addr, align 8, !tbaa !51
  %cmp2 = icmp ugt i64 %2, 0
  br i1 %cmp2, label %if.then, label %if.end

if.then:                                          ; preds = %land.lhs.true
  invoke void @_ZSt19__throw_logic_errorPKc(ptr noundef @.str.10) #24
          to label %invoke.cont unwind label %lpad

invoke.cont:                                      ; preds = %if.then
  unreachable

lpad:                                             ; preds = %if.end, %if.then
  %3 = landingpad { ptr, i32 }
          cleanup
  %4 = extractvalue { ptr, i32 } %3, 0
  store ptr %4, ptr %exn.slot, align 8
  %5 = extractvalue { ptr, i32 } %3, 1
  store i32 %5, ptr %ehselector.slot, align 4
  call void @_ZNSt15__new_allocatorIcED2Ev(ptr noundef nonnull align 8 dereferenceable(8) %_M_dataplus) #5
  br label %eh.resume

if.end:                                           ; preds = %land.lhs.true, %entry
  %6 = load ptr, ptr %__s.addr, align 8, !tbaa !61
  %7 = load ptr, ptr %__s.addr, align 8, !tbaa !61
  %8 = load i64, ptr %__n.addr, align 8, !tbaa !51
  %add.ptr = getelementptr inbounds nuw i8, ptr %7, i64 %8
  invoke void @_ZNSt7__cxx1112basic_stringIcSt11char_traitsIcESaIcEE12_M_constructIPKcEEvT_S8_St20forward_iterator_tag(ptr noundef nonnull align 8 dereferenceable(32) %this1, ptr noundef %6, ptr noundef %add.ptr)
          to label %invoke.cont3 unwind label %lpad

invoke.cont3:                                     ; preds = %if.end
  ret void

eh.resume:                                        ; preds = %lpad
  %exn = load ptr, ptr %exn.slot, align 8
  %sel = load i32, ptr %ehselector.slot, align 4
  %lpad.val = insertvalue { ptr, i32 } poison, ptr %exn, 0
  %lpad.val4 = insertvalue { ptr, i32 } %lpad.val, i32 %sel, 1
  resume { ptr, i32 } %lpad.val4
}

; Function Attrs: mustprogress nounwind uwtable
define available_externally noundef nonnull align 8 dereferenceable(32) ptr @_ZNSt7__cxx1112basic_stringIcSt11char_traitsIcESaIcEEaSEOS4_(ptr noundef nonnull align 8 dereferenceable(32) %this, ptr noundef nonnull align 8 dereferenceable(32) %__str) #6 align 2 personality ptr @__gxx_personality_v0 {
entry:
  %this.addr = alloca ptr, align 8
  %__str.addr = alloca ptr, align 8
  %__data = alloca ptr, align 8
  %__capacity = alloca i64, align 8
  store ptr %this, ptr %this.addr, align 8, !tbaa !59
  store ptr %__str, ptr %__str.addr, align 8, !tbaa !59
  %this1 = load ptr, ptr %this.addr, align 8
  %call = invoke noundef zeroext i1 @_ZNKSt7__cxx1112basic_stringIcSt11char_traitsIcESaIcEE11_M_is_localEv(ptr noundef nonnull align 8 dereferenceable(32) %this1)
          to label %invoke.cont unwind label %terminate.lpad

invoke.cont:                                      ; preds = %entry
  br i1 %call, label %if.end, label %land.lhs.true

land.lhs.true:                                    ; preds = %invoke.cont
  %call3 = invoke noundef zeroext i1 @_ZN9__gnu_cxx14__alloc_traitsISaIcEcE15_S_always_equalEv()
          to label %invoke.cont2 unwind label %terminate.lpad

invoke.cont2:                                     ; preds = %land.lhs.true
  br i1 %call3, label %if.end, label %land.lhs.true4

land.lhs.true4:                                   ; preds = %invoke.cont2
  %call5 = call noundef nonnull align 1 dereferenceable(1) ptr @_ZNSt7__cxx1112basic_stringIcSt11char_traitsIcESaIcEE16_M_get_allocatorEv(ptr noundef nonnull align 8 dereferenceable(32) %this1)
  %0 = load ptr, ptr %__str.addr, align 8, !tbaa !59
  %call6 = call noundef nonnull align 1 dereferenceable(1) ptr @_ZNSt7__cxx1112basic_stringIcSt11char_traitsIcESaIcEE16_M_get_allocatorEv(ptr noundef nonnull align 8 dereferenceable(32) %0)
  %call7 = call noundef zeroext i1 @_ZStneRKSaIcES1_(ptr noundef nonnull align 1 dereferenceable(1) %call5, ptr noundef nonnull align 1 dereferenceable(1) %call6) #5
  br i1 %call7, label %if.then, label %if.end

if.then:                                          ; preds = %land.lhs.true4
  %1 = getelementptr inbounds nuw %"class.std::__cxx11::basic_string", ptr %this1, i32 0, i32 2
  %2 = load i64, ptr %1, align 8, !tbaa !140
  call void @_ZNSt7__cxx1112basic_stringIcSt11char_traitsIcESaIcEE10_M_destroyEm(ptr noundef nonnull align 8 dereferenceable(32) %this1, i64 noundef %2) #5
  %call8 = call noundef ptr @_ZNSt7__cxx1112basic_stringIcSt11char_traitsIcESaIcEE13_M_local_dataEv(ptr noundef nonnull align 8 dereferenceable(32) %this1)
  call void @_ZNSt7__cxx1112basic_stringIcSt11char_traitsIcESaIcEE7_M_dataEPc(ptr noundef nonnull align 8 dereferenceable(32) %this1, ptr noundef %call8)
  invoke void @_ZNSt7__cxx1112basic_stringIcSt11char_traitsIcESaIcEE13_M_set_lengthEm(ptr noundef nonnull align 8 dereferenceable(32) %this1, i64 noundef 0)
          to label %invoke.cont9 unwind label %terminate.lpad

invoke.cont9:                                     ; preds = %if.then
  br label %if.end

if.end:                                           ; preds = %invoke.cont9, %land.lhs.true4, %invoke.cont2, %invoke.cont
  %call10 = call noundef nonnull align 1 dereferenceable(1) ptr @_ZNSt7__cxx1112basic_stringIcSt11char_traitsIcESaIcEE16_M_get_allocatorEv(ptr noundef nonnull align 8 dereferenceable(32) %this1)
  %3 = load ptr, ptr %__str.addr, align 8, !tbaa !59
  %call11 = call noundef nonnull align 1 dereferenceable(1) ptr @_ZNSt7__cxx1112basic_stringIcSt11char_traitsIcESaIcEE16_M_get_allocatorEv(ptr noundef nonnull align 8 dereferenceable(32) %3)
  invoke void @_ZSt15__alloc_on_moveISaIcEEvRT_S2_(ptr noundef nonnull align 1 dereferenceable(1) %call10, ptr noundef nonnull align 1 dereferenceable(1) %call11)
          to label %invoke.cont12 unwind label %terminate.lpad

invoke.cont12:                                    ; preds = %if.end
  %4 = load ptr, ptr %__str.addr, align 8, !tbaa !59
  %call14 = invoke noundef zeroext i1 @_ZNKSt7__cxx1112basic_stringIcSt11char_traitsIcESaIcEE11_M_is_localEv(ptr noundef nonnull align 8 dereferenceable(32) %4)
          to label %invoke.cont13 unwind label %terminate.lpad

invoke.cont13:                                    ; preds = %invoke.cont12
  br i1 %call14, label %if.then15, label %if.else

if.then15:                                        ; preds = %invoke.cont13
  %5 = load ptr, ptr %__str.addr, align 8, !tbaa !59
  %cmp = icmp ne ptr %5, %this1
  %conv = zext i1 %cmp to i64
  %expval = call i64 @llvm.expect.i64(i64 %conv, i64 1)
  %tobool = icmp ne i64 %expval, 0
  br i1 %tobool, label %if.then16, label %if.end27

if.then16:                                        ; preds = %if.then15
  %6 = load ptr, ptr %__str.addr, align 8, !tbaa !59
  %call17 = call noundef i64 @_ZNKSt7__cxx1112basic_stringIcSt11char_traitsIcESaIcEE4sizeEv(ptr noundef nonnull align 8 dereferenceable(32) %6) #5
  %tobool18 = icmp ne i64 %call17, 0
  br i1 %tobool18, label %if.then19, label %if.end24

if.then19:                                        ; preds = %if.then16
  %call20 = call noundef ptr @_ZNKSt7__cxx1112basic_stringIcSt11char_traitsIcESaIcEE7_M_dataEv(ptr noundef nonnull align 8 dereferenceable(32) %this1)
  %7 = load ptr, ptr %__str.addr, align 8, !tbaa !59
  %call21 = call noundef ptr @_ZNKSt7__cxx1112basic_stringIcSt11char_traitsIcESaIcEE7_M_dataEv(ptr noundef nonnull align 8 dereferenceable(32) %7)
  %8 = load ptr, ptr %__str.addr, align 8, !tbaa !59
  %call22 = call noundef i64 @_ZNKSt7__cxx1112basic_stringIcSt11char_traitsIcESaIcEE4sizeEv(ptr noundef nonnull align 8 dereferenceable(32) %8) #5
  invoke void @_ZNSt7__cxx1112basic_stringIcSt11char_traitsIcESaIcEE7_S_copyEPcPKcm(ptr noundef %call20, ptr noundef %call21, i64 noundef %call22)
          to label %invoke.cont23 unwind label %terminate.lpad

invoke.cont23:                                    ; preds = %if.then19
  br label %if.end24

if.end24:                                         ; preds = %invoke.cont23, %if.then16
  %9 = load ptr, ptr %__str.addr, align 8, !tbaa !59
  %call25 = call noundef i64 @_ZNKSt7__cxx1112basic_stringIcSt11char_traitsIcESaIcEE4sizeEv(ptr noundef nonnull align 8 dereferenceable(32) %9) #5
  invoke void @_ZNSt7__cxx1112basic_stringIcSt11char_traitsIcESaIcEE13_M_set_lengthEm(ptr noundef nonnull align 8 dereferenceable(32) %this1, i64 noundef %call25)
          to label %invoke.cont26 unwind label %terminate.lpad

invoke.cont26:                                    ; preds = %if.end24
  br label %if.end27

if.end27:                                         ; preds = %invoke.cont26, %if.then15
  br label %if.end39

if.else:                                          ; preds = %invoke.cont13
  call void @llvm.lifetime.start.p0(i64 8, ptr %__data) #5
  store ptr null, ptr %__data, align 8, !tbaa !61
  call void @llvm.lifetime.start.p0(i64 8, ptr %__capacity) #5
  %call29 = invoke noundef zeroext i1 @_ZNKSt7__cxx1112basic_stringIcSt11char_traitsIcESaIcEE11_M_is_localEv(ptr noundef nonnull align 8 dereferenceable(32) %this1)
          to label %invoke.cont28 unwind label %terminate.lpad

invoke.cont28:                                    ; preds = %if.else
  br i1 %call29, label %if.end32, label %if.then30

if.then30:                                        ; preds = %invoke.cont28
  %call31 = call noundef ptr @_ZNKSt7__cxx1112basic_stringIcSt11char_traitsIcESaIcEE7_M_dataEv(ptr noundef nonnull align 8 dereferenceable(32) %this1)
  store ptr %call31, ptr %__data, align 8, !tbaa !61
  %10 = getelementptr inbounds nuw %"class.std::__cxx11::basic_string", ptr %this1, i32 0, i32 2
  %11 = load i64, ptr %10, align 8, !tbaa !140
  store i64 %11, ptr %__capacity, align 8, !tbaa !51
  br label %if.end32

if.end32:                                         ; preds = %if.then30, %invoke.cont28
  %12 = load ptr, ptr %__str.addr, align 8, !tbaa !59
  %call33 = call noundef ptr @_ZNKSt7__cxx1112basic_stringIcSt11char_traitsIcESaIcEE7_M_dataEv(ptr noundef nonnull align 8 dereferenceable(32) %12)
  call void @_ZNSt7__cxx1112basic_stringIcSt11char_traitsIcESaIcEE7_M_dataEPc(ptr noundef nonnull align 8 dereferenceable(32) %this1, ptr noundef %call33)
  %13 = load ptr, ptr %__str.addr, align 8, !tbaa !59
  %call34 = call noundef i64 @_ZNKSt7__cxx1112basic_stringIcSt11char_traitsIcESaIcEE6lengthEv(ptr noundef nonnull align 8 dereferenceable(32) %13) #5
  call void @_ZNSt7__cxx1112basic_stringIcSt11char_traitsIcESaIcEE9_M_lengthEm(ptr noundef nonnull align 8 dereferenceable(32) %this1, i64 noundef %call34)
  %14 = load ptr, ptr %__str.addr, align 8, !tbaa !59
  %15 = getelementptr inbounds nuw %"class.std::__cxx11::basic_string", ptr %14, i32 0, i32 2
  %16 = load i64, ptr %15, align 8, !tbaa !140
  call void @_ZNSt7__cxx1112basic_stringIcSt11char_traitsIcESaIcEE11_M_capacityEm(ptr noundef nonnull align 8 dereferenceable(32) %this1, i64 noundef %16)
  %17 = load ptr, ptr %__data, align 8, !tbaa !61
  %tobool35 = icmp ne ptr %17, null
  br i1 %tobool35, label %if.then36, label %if.else37

if.then36:                                        ; preds = %if.end32
  %18 = load ptr, ptr %__str.addr, align 8, !tbaa !59
  %19 = load ptr, ptr %__data, align 8, !tbaa !61
  call void @_ZNSt7__cxx1112basic_stringIcSt11char_traitsIcESaIcEE7_M_dataEPc(ptr noundef nonnull align 8 dereferenceable(32) %18, ptr noundef %19)
  %20 = load ptr, ptr %__str.addr, align 8, !tbaa !59
  %21 = load i64, ptr %__capacity, align 8, !tbaa !51
  call void @_ZNSt7__cxx1112basic_stringIcSt11char_traitsIcESaIcEE11_M_capacityEm(ptr noundef nonnull align 8 dereferenceable(32) %20, i64 noundef %21)
  br label %if.end38

if.else37:                                        ; preds = %if.end32
  %22 = load ptr, ptr %__str.addr, align 8, !tbaa !59
  %23 = load ptr, ptr %__str.addr, align 8, !tbaa !59
  %24 = getelementptr inbounds nuw %"class.std::__cxx11::basic_string", ptr %23, i32 0, i32 2
  %arraydecay = getelementptr inbounds [16 x i8], ptr %24, i64 0, i64 0
  call void @_ZNSt7__cxx1112basic_stringIcSt11char_traitsIcESaIcEE7_M_dataEPc(ptr noundef nonnull align 8 dereferenceable(32) %22, ptr noundef %arraydecay)
  br label %if.end38

if.end38:                                         ; preds = %if.else37, %if.then36
  call void @llvm.lifetime.end.p0(i64 8, ptr %__capacity) #5
  call void @llvm.lifetime.end.p0(i64 8, ptr %__data) #5
  br label %if.end39

if.end39:                                         ; preds = %if.end38, %if.end27
  %25 = load ptr, ptr %__str.addr, align 8, !tbaa !59
  call void @_ZNSt7__cxx1112basic_stringIcSt11char_traitsIcESaIcEE5clearEv(ptr noundef nonnull align 8 dereferenceable(32) %25) #5
  ret ptr %this1

terminate.lpad:                                   ; preds = %if.else, %if.end24, %if.then19, %invoke.cont12, %if.end, %if.then, %land.lhs.true, %entry
  %26 = landingpad { ptr, i32 }
          catch ptr null
  %27 = extractvalue { ptr, i32 } %26, 0
  call void @__clang_call_terminate(ptr %27) #23
  unreachable
}

; Function Attrs: nobuiltin nounwind
declare void @_ZdaPv(ptr noundef) #10

; Function Attrs: mustprogress nounwind uwtable
define available_externally void @_ZNSt7__cxx1112basic_stringIcSt11char_traitsIcESaIcEE12_Alloc_hiderC2EPcRKS3_(ptr noundef nonnull align 8 dereferenceable(8) %this, ptr noundef %__dat, ptr noundef nonnull align 1 dereferenceable(1) %__a) unnamed_addr #6 align 2 {
entry:
  %this.addr = alloca ptr, align 8
  %__dat.addr = alloca ptr, align 8
  %__a.addr = alloca ptr, align 8
  store ptr %this, ptr %this.addr, align 8, !tbaa !136
  store ptr %__dat, ptr %__dat.addr, align 8, !tbaa !61
  store ptr %__a, ptr %__a.addr, align 8, !tbaa !134
  %this1 = load ptr, ptr %this.addr, align 8
  %0 = load ptr, ptr %__a.addr, align 8, !tbaa !134
  call void @_ZNSaIcEC2ERKS_(ptr noundef nonnull align 1 dereferenceable(1) %this1, ptr noundef nonnull align 1 dereferenceable(1) %0) #5
  %_M_p = getelementptr inbounds nuw %"struct.std::__cxx11::basic_string<char>::_Alloc_hider", ptr %this1, i32 0, i32 0
  %1 = load ptr, ptr %__dat.addr, align 8, !tbaa !61
  store ptr %1, ptr %_M_p, align 8, !tbaa !138
  ret void
}

; Function Attrs: noreturn
declare void @_ZSt19__throw_logic_errorPKc(ptr noundef) #15

; Function Attrs: mustprogress uwtable
define linkonce_odr void @_ZNSt7__cxx1112basic_stringIcSt11char_traitsIcESaIcEE12_M_constructIPKcEEvT_S8_St20forward_iterator_tag(ptr noundef nonnull align 8 dereferenceable(32) %this, ptr noundef %__beg, ptr noundef %__end) #0 comdat align 2 personality ptr @__gxx_personality_v0 {
entry:
  %0 = alloca %"struct.std::forward_iterator_tag", align 1
  %this.addr = alloca ptr, align 8
  %__beg.addr = alloca ptr, align 8
  %__end.addr = alloca ptr, align 8
  %__dnew = alloca i64, align 8
  %__guard = alloca %struct._Guard, align 8
  %exn.slot = alloca ptr, align 8
  %ehselector.slot = alloca i32, align 4
  store ptr %this, ptr %this.addr, align 8, !tbaa !59
  store ptr %__beg, ptr %__beg.addr, align 8, !tbaa !61
  store ptr %__end, ptr %__end.addr, align 8, !tbaa !61
  %this1 = load ptr, ptr %this.addr, align 8
  call void @llvm.lifetime.start.p0(i64 8, ptr %__dnew) #5
  %1 = load ptr, ptr %__beg.addr, align 8, !tbaa !61
  %2 = load ptr, ptr %__end.addr, align 8, !tbaa !61
  %call = call noundef i64 @_ZSt8distanceIPKcENSt15iterator_traitsIT_E15difference_typeES3_S3_(ptr noundef %1, ptr noundef %2)
  store i64 %call, ptr %__dnew, align 8, !tbaa !51
  %3 = load i64, ptr %__dnew, align 8, !tbaa !51
  %cmp = icmp ugt i64 %3, 15
  br i1 %cmp, label %if.then, label %if.else

if.then:                                          ; preds = %entry
  %call2 = call noundef ptr @_ZNSt7__cxx1112basic_stringIcSt11char_traitsIcESaIcEE9_M_createERmm(ptr noundef nonnull align 8 dereferenceable(32) %this1, ptr noundef nonnull align 8 dereferenceable(8) %__dnew, i64 noundef 0)
  call void @_ZNSt7__cxx1112basic_stringIcSt11char_traitsIcESaIcEE7_M_dataEPc(ptr noundef nonnull align 8 dereferenceable(32) %this1, ptr noundef %call2)
  %4 = load i64, ptr %__dnew, align 8, !tbaa !51
  call void @_ZNSt7__cxx1112basic_stringIcSt11char_traitsIcESaIcEE11_M_capacityEm(ptr noundef nonnull align 8 dereferenceable(32) %this1, i64 noundef %4)
  br label %if.end

if.else:                                          ; preds = %entry
  %call3 = call noundef ptr @_ZNSt7__cxx1112basic_stringIcSt11char_traitsIcESaIcEE17_M_use_local_dataEv(ptr noundef nonnull align 8 dereferenceable(32) %this1) #5
  br label %if.end

if.end:                                           ; preds = %if.else, %if.then
  call void @llvm.lifetime.start.p0(i64 8, ptr %__guard) #5
  call void @_ZZNSt7__cxx1112basic_stringIcSt11char_traitsIcESaIcEE12_M_constructIPKcEEvT_S8_St20forward_iterator_tagEN6_GuardC2EPS4_(ptr noundef nonnull align 8 dereferenceable(8) %__guard, ptr noundef %this1)
  %call4 = call noundef ptr @_ZNKSt7__cxx1112basic_stringIcSt11char_traitsIcESaIcEE7_M_dataEv(ptr noundef nonnull align 8 dereferenceable(32) %this1)
  %5 = load ptr, ptr %__beg.addr, align 8, !tbaa !61
  %6 = load ptr, ptr %__end.addr, align 8, !tbaa !61
  call void @_ZNSt7__cxx1112basic_stringIcSt11char_traitsIcESaIcEE13_S_copy_charsEPcPKcS7_(ptr noundef %call4, ptr noundef %5, ptr noundef %6) #5
  %_M_guarded = getelementptr inbounds nuw %struct._Guard, ptr %__guard, i32 0, i32 0
  store ptr null, ptr %_M_guarded, align 8, !tbaa !146
  %7 = load i64, ptr %__dnew, align 8, !tbaa !51
  invoke void @_ZNSt7__cxx1112basic_stringIcSt11char_traitsIcESaIcEE13_M_set_lengthEm(ptr noundef nonnull align 8 dereferenceable(32) %this1, i64 noundef %7)
          to label %invoke.cont unwind label %lpad

invoke.cont:                                      ; preds = %if.end
  call void @_ZZNSt7__cxx1112basic_stringIcSt11char_traitsIcESaIcEE12_M_constructIPKcEEvT_S8_St20forward_iterator_tagEN6_GuardD2Ev(ptr noundef nonnull align 8 dereferenceable(8) %__guard) #5
  call void @llvm.lifetime.end.p0(i64 8, ptr %__guard) #5
  call void @llvm.lifetime.end.p0(i64 8, ptr %__dnew) #5
  ret void

lpad:                                             ; preds = %if.end
  %8 = landingpad { ptr, i32 }
          cleanup
  %9 = extractvalue { ptr, i32 } %8, 0
  store ptr %9, ptr %exn.slot, align 8
  %10 = extractvalue { ptr, i32 } %8, 1
  store i32 %10, ptr %ehselector.slot, align 4
  call void @_ZZNSt7__cxx1112basic_stringIcSt11char_traitsIcESaIcEE12_M_constructIPKcEEvT_S8_St20forward_iterator_tagEN6_GuardD2Ev(ptr noundef nonnull align 8 dereferenceable(8) %__guard) #5
  call void @llvm.lifetime.end.p0(i64 8, ptr %__guard) #5
  call void @llvm.lifetime.end.p0(i64 8, ptr %__dnew) #5
  br label %eh.resume

eh.resume:                                        ; preds = %lpad
  %exn = load ptr, ptr %exn.slot, align 8
  %sel = load i32, ptr %ehselector.slot, align 4
  %lpad.val = insertvalue { ptr, i32 } poison, ptr %exn, 0
  %lpad.val5 = insertvalue { ptr, i32 } %lpad.val, i32 %sel, 1
  resume { ptr, i32 } %lpad.val5
}

; Function Attrs: mustprogress nounwind uwtable
define linkonce_odr void @_ZNSt15__new_allocatorIcED2Ev(ptr noundef nonnull align 1 dereferenceable(1) %this) unnamed_addr #6 comdat align 2 {
entry:
  %this.addr = alloca ptr, align 8
  store ptr %this, ptr %this.addr, align 8, !tbaa !141
  %this1 = load ptr, ptr %this.addr, align 8
  ret void
}

; Function Attrs: inlinehint mustprogress uwtable
define linkonce_odr noundef i64 @_ZSt8distanceIPKcENSt15iterator_traitsIT_E15difference_typeES3_S3_(ptr noundef %__first, ptr noundef %__last) #8 comdat {
entry:
  %__first.addr = alloca ptr, align 8
  %__last.addr = alloca ptr, align 8
  %agg.tmp = alloca %"struct.std::random_access_iterator_tag", align 1
  %undef.agg.tmp = alloca %"struct.std::random_access_iterator_tag", align 1
  store ptr %__first, ptr %__first.addr, align 8, !tbaa !61
  store ptr %__last, ptr %__last.addr, align 8, !tbaa !61
  %0 = load ptr, ptr %__first.addr, align 8, !tbaa !61
  %1 = load ptr, ptr %__last.addr, align 8, !tbaa !61
  call void @_ZSt19__iterator_categoryIPKcENSt15iterator_traitsIT_E17iterator_categoryERKS3_(ptr noundef nonnull align 8 dereferenceable(8) %__first.addr)
  %call = call noundef i64 @_ZSt10__distanceIPKcENSt15iterator_traitsIT_E15difference_typeES3_S3_St26random_access_iterator_tag(ptr noundef %0, ptr noundef %1)
  ret i64 %call
}

; Function Attrs: mustprogress nounwind uwtable
define available_externally void @_ZNSt7__cxx1112basic_stringIcSt11char_traitsIcESaIcEE7_M_dataEPc(ptr noundef nonnull align 8 dereferenceable(32) %this, ptr noundef %__p) #6 align 2 {
entry:
  %this.addr = alloca ptr, align 8
  %__p.addr = alloca ptr, align 8
  store ptr %this, ptr %this.addr, align 8, !tbaa !59
  store ptr %__p, ptr %__p.addr, align 8, !tbaa !61
  %this1 = load ptr, ptr %this.addr, align 8
  %0 = load ptr, ptr %__p.addr, align 8, !tbaa !61
  %_M_dataplus = getelementptr inbounds nuw %"class.std::__cxx11::basic_string", ptr %this1, i32 0, i32 0
  %_M_p = getelementptr inbounds nuw %"struct.std::__cxx11::basic_string<char>::_Alloc_hider", ptr %_M_dataplus, i32 0, i32 0
  store ptr %0, ptr %_M_p, align 8, !tbaa !145
  ret void
}

declare noundef ptr @_ZNSt7__cxx1112basic_stringIcSt11char_traitsIcESaIcEE9_M_createERmm(ptr noundef nonnull align 8 dereferenceable(32), ptr noundef nonnull align 8 dereferenceable(8), i64 noundef) #3

; Function Attrs: mustprogress nounwind uwtable
define available_externally void @_ZNSt7__cxx1112basic_stringIcSt11char_traitsIcESaIcEE11_M_capacityEm(ptr noundef nonnull align 8 dereferenceable(32) %this, i64 noundef %__capacity) #6 align 2 {
entry:
  %this.addr = alloca ptr, align 8
  %__capacity.addr = alloca i64, align 8
  store ptr %this, ptr %this.addr, align 8, !tbaa !59
  store i64 %__capacity, ptr %__capacity.addr, align 8, !tbaa !51
  %this1 = load ptr, ptr %this.addr, align 8
  %0 = load i64, ptr %__capacity.addr, align 8, !tbaa !51
  %1 = getelementptr inbounds nuw %"class.std::__cxx11::basic_string", ptr %this1, i32 0, i32 2
  store i64 %0, ptr %1, align 8, !tbaa !140
  ret void
}

; Function Attrs: mustprogress nounwind uwtable
define linkonce_odr void @_ZZNSt7__cxx1112basic_stringIcSt11char_traitsIcESaIcEE12_M_constructIPKcEEvT_S8_St20forward_iterator_tagEN6_GuardC2EPS4_(ptr noundef nonnull align 8 dereferenceable(8) %this, ptr noundef %__s) unnamed_addr #6 comdat align 2 {
entry:
  %this.addr = alloca ptr, align 8
  %__s.addr = alloca ptr, align 8
  store ptr %this, ptr %this.addr, align 8, !tbaa !148
  store ptr %__s, ptr %__s.addr, align 8, !tbaa !59
  %this1 = load ptr, ptr %this.addr, align 8
  %_M_guarded = getelementptr inbounds nuw %struct._Guard, ptr %this1, i32 0, i32 0
  %0 = load ptr, ptr %__s.addr, align 8, !tbaa !59
  store ptr %0, ptr %_M_guarded, align 8, !tbaa !146
  ret void
}

; Function Attrs: mustprogress nounwind uwtable
define available_externally void @_ZNSt7__cxx1112basic_stringIcSt11char_traitsIcESaIcEE13_S_copy_charsEPcPKcS7_(ptr noundef %__p, ptr noundef %__k1, ptr noundef %__k2) #6 align 2 personality ptr @__gxx_personality_v0 {
entry:
  %__p.addr = alloca ptr, align 8
  %__k1.addr = alloca ptr, align 8
  %__k2.addr = alloca ptr, align 8
  store ptr %__p, ptr %__p.addr, align 8, !tbaa !61
  store ptr %__k1, ptr %__k1.addr, align 8, !tbaa !61
  store ptr %__k2, ptr %__k2.addr, align 8, !tbaa !61
  %0 = load ptr, ptr %__p.addr, align 8, !tbaa !61
  %1 = load ptr, ptr %__k1.addr, align 8, !tbaa !61
  %2 = load ptr, ptr %__k2.addr, align 8, !tbaa !61
  %3 = load ptr, ptr %__k1.addr, align 8, !tbaa !61
  %sub.ptr.lhs.cast = ptrtoint ptr %2 to i64
  %sub.ptr.rhs.cast = ptrtoint ptr %3 to i64
  %sub.ptr.sub = sub i64 %sub.ptr.lhs.cast, %sub.ptr.rhs.cast
  invoke void @_ZNSt7__cxx1112basic_stringIcSt11char_traitsIcESaIcEE7_S_copyEPcPKcm(ptr noundef %0, ptr noundef %1, i64 noundef %sub.ptr.sub)
          to label %invoke.cont unwind label %terminate.lpad

invoke.cont:                                      ; preds = %entry
  ret void

terminate.lpad:                                   ; preds = %entry
  %4 = landingpad { ptr, i32 }
          catch ptr null
  %5 = extractvalue { ptr, i32 } %4, 0
  call void @__clang_call_terminate(ptr %5) #23
  unreachable
}

; Function Attrs: mustprogress nounwind uwtable
define linkonce_odr void @_ZZNSt7__cxx1112basic_stringIcSt11char_traitsIcESaIcEE12_M_constructIPKcEEvT_S8_St20forward_iterator_tagEN6_GuardD2Ev(ptr noundef nonnull align 8 dereferenceable(8) %this) unnamed_addr #6 comdat align 2 personality ptr @__gxx_personality_v0 {
entry:
  %this.addr = alloca ptr, align 8
  store ptr %this, ptr %this.addr, align 8, !tbaa !148
  %this1 = load ptr, ptr %this.addr, align 8
  %_M_guarded = getelementptr inbounds nuw %struct._Guard, ptr %this1, i32 0, i32 0
  %0 = load ptr, ptr %_M_guarded, align 8, !tbaa !146
  %tobool = icmp ne ptr %0, null
  br i1 %tobool, label %if.then, label %if.end

if.then:                                          ; preds = %entry
  %_M_guarded2 = getelementptr inbounds nuw %struct._Guard, ptr %this1, i32 0, i32 0
  %1 = load ptr, ptr %_M_guarded2, align 8, !tbaa !146
  invoke void @_ZNSt7__cxx1112basic_stringIcSt11char_traitsIcESaIcEE10_M_disposeEv(ptr noundef nonnull align 8 dereferenceable(32) %1)
          to label %invoke.cont unwind label %terminate.lpad

invoke.cont:                                      ; preds = %if.then
  br label %if.end

if.end:                                           ; preds = %invoke.cont, %entry
  ret void

terminate.lpad:                                   ; preds = %if.then
  %2 = landingpad { ptr, i32 }
          catch ptr null
  %3 = extractvalue { ptr, i32 } %2, 0
  call void @__clang_call_terminate(ptr %3) #23
  unreachable
}

; Function Attrs: inlinehint mustprogress nounwind uwtable
define linkonce_odr noundef i64 @_ZSt10__distanceIPKcENSt15iterator_traitsIT_E15difference_typeES3_S3_St26random_access_iterator_tag(ptr noundef %__first, ptr noundef %__last) #1 comdat {
entry:
  %0 = alloca %"struct.std::random_access_iterator_tag", align 1
  %__first.addr = alloca ptr, align 8
  %__last.addr = alloca ptr, align 8
  store ptr %__first, ptr %__first.addr, align 8, !tbaa !61
  store ptr %__last, ptr %__last.addr, align 8, !tbaa !61
  %1 = load ptr, ptr %__last.addr, align 8, !tbaa !61
  %2 = load ptr, ptr %__first.addr, align 8, !tbaa !61
  %sub.ptr.lhs.cast = ptrtoint ptr %1 to i64
  %sub.ptr.rhs.cast = ptrtoint ptr %2 to i64
  %sub.ptr.sub = sub i64 %sub.ptr.lhs.cast, %sub.ptr.rhs.cast
  ret i64 %sub.ptr.sub
}

; Function Attrs: inlinehint mustprogress nounwind uwtable
define linkonce_odr void @_ZSt19__iterator_categoryIPKcENSt15iterator_traitsIT_E17iterator_categoryERKS3_(ptr noundef nonnull align 8 dereferenceable(8) %0) #1 comdat {
entry:
  %.addr = alloca ptr, align 8
  store ptr %0, ptr %.addr, align 8, !tbaa !150
  ret void
}

; Function Attrs: mustprogress uwtable
define available_externally void @_ZNSt7__cxx1112basic_stringIcSt11char_traitsIcESaIcEE7_S_copyEPcPKcm(ptr noundef %__d, ptr noundef %__s, i64 noundef %__n) #0 align 2 {
entry:
  %__d.addr = alloca ptr, align 8
  %__s.addr = alloca ptr, align 8
  %__n.addr = alloca i64, align 8
  store ptr %__d, ptr %__d.addr, align 8, !tbaa !61
  store ptr %__s, ptr %__s.addr, align 8, !tbaa !61
  store i64 %__n, ptr %__n.addr, align 8, !tbaa !51
  %0 = load i64, ptr %__n.addr, align 8, !tbaa !51
  %cmp = icmp eq i64 %0, 1
  br i1 %cmp, label %if.then, label %if.else

if.then:                                          ; preds = %entry
  %1 = load ptr, ptr %__d.addr, align 8, !tbaa !61
  %2 = load ptr, ptr %__s.addr, align 8, !tbaa !61
  call void @_ZNSt11char_traitsIcE6assignERcRKc(ptr noundef nonnull align 1 dereferenceable(1) %1, ptr noundef nonnull align 1 dereferenceable(1) %2) #5
  br label %if.end

if.else:                                          ; preds = %entry
  %3 = load ptr, ptr %__d.addr, align 8, !tbaa !61
  %4 = load ptr, ptr %__s.addr, align 8, !tbaa !61
  %5 = load i64, ptr %__n.addr, align 8, !tbaa !51
  %call = call noundef ptr @_ZNSt11char_traitsIcE4copyEPcPKcm(ptr noundef %3, ptr noundef %4, i64 noundef %5)
  br label %if.end

if.end:                                           ; preds = %if.else, %if.then
  ret void
}

; Function Attrs: mustprogress nounwind uwtable
define linkonce_odr noundef ptr @_ZNSt11char_traitsIcE4copyEPcPKcm(ptr noundef %__s1, ptr noundef %__s2, i64 noundef %__n) #6 comdat align 2 {
entry:
  %retval = alloca ptr, align 8
  %__s1.addr = alloca ptr, align 8
  %__s2.addr = alloca ptr, align 8
  %__n.addr = alloca i64, align 8
  store ptr %__s1, ptr %__s1.addr, align 8, !tbaa !61
  store ptr %__s2, ptr %__s2.addr, align 8, !tbaa !61
  store i64 %__n, ptr %__n.addr, align 8, !tbaa !51
  %0 = load i64, ptr %__n.addr, align 8, !tbaa !51
  %cmp = icmp eq i64 %0, 0
  br i1 %cmp, label %if.then, label %if.end

if.then:                                          ; preds = %entry
  %1 = load ptr, ptr %__s1.addr, align 8, !tbaa !61
  store ptr %1, ptr %retval, align 8
  br label %return

if.end:                                           ; preds = %entry
  %2 = load ptr, ptr %__s1.addr, align 8, !tbaa !61
  %3 = load ptr, ptr %__s2.addr, align 8, !tbaa !61
  %4 = load i64, ptr %__n.addr, align 8, !tbaa !51
  call void @llvm.memcpy.p0.p0.i64(ptr align 1 %2, ptr align 1 %3, i64 %4, i1 false)
  store ptr %2, ptr %retval, align 8
  br label %return

return:                                           ; preds = %if.end, %if.then
  %5 = load ptr, ptr %retval, align 8
  ret ptr %5
}

; Function Attrs: nocallback nofree nounwind willreturn memory(argmem: readwrite)
declare void @llvm.memcpy.p0.p0.i64(ptr noalias writeonly captures(none), ptr noalias readonly captures(none), i64, i1 immarg) #16

; Function Attrs: mustprogress uwtable
define available_externally void @_ZNSt7__cxx1112basic_stringIcSt11char_traitsIcESaIcEE10_M_disposeEv(ptr noundef nonnull align 8 dereferenceable(32) %this) #0 align 2 {
entry:
  %this.addr = alloca ptr, align 8
  store ptr %this, ptr %this.addr, align 8, !tbaa !59
  %this1 = load ptr, ptr %this.addr, align 8
  %call = call noundef zeroext i1 @_ZNKSt7__cxx1112basic_stringIcSt11char_traitsIcESaIcEE11_M_is_localEv(ptr noundef nonnull align 8 dereferenceable(32) %this1)
  br i1 %call, label %if.end, label %if.then

if.then:                                          ; preds = %entry
  %0 = getelementptr inbounds nuw %"class.std::__cxx11::basic_string", ptr %this1, i32 0, i32 2
  %1 = load i64, ptr %0, align 8, !tbaa !140
  call void @_ZNSt7__cxx1112basic_stringIcSt11char_traitsIcESaIcEE10_M_destroyEm(ptr noundef nonnull align 8 dereferenceable(32) %this1, i64 noundef %1) #5
  br label %if.end

if.end:                                           ; preds = %if.then, %entry
  ret void
}

; Function Attrs: mustprogress uwtable
define available_externally noundef zeroext i1 @_ZNKSt7__cxx1112basic_stringIcSt11char_traitsIcESaIcEE11_M_is_localEv(ptr noundef nonnull align 8 dereferenceable(32) %this) #0 align 2 {
entry:
  %this.addr = alloca ptr, align 8
  store ptr %this, ptr %this.addr, align 8, !tbaa !59
  %this1 = load ptr, ptr %this.addr, align 8
  %call = call noundef ptr @_ZNKSt7__cxx1112basic_stringIcSt11char_traitsIcESaIcEE7_M_dataEv(ptr noundef nonnull align 8 dereferenceable(32) %this1)
  %call2 = call noundef ptr @_ZNKSt7__cxx1112basic_stringIcSt11char_traitsIcESaIcEE13_M_local_dataEv(ptr noundef nonnull align 8 dereferenceable(32) %this1)
  %cmp = icmp eq ptr %call, %call2
  ret i1 %cmp
}

; Function Attrs: mustprogress nounwind uwtable
define available_externally void @_ZNSt7__cxx1112basic_stringIcSt11char_traitsIcESaIcEE10_M_destroyEm(ptr noundef nonnull align 8 dereferenceable(32) %this, i64 noundef %__size) #6 align 2 personality ptr @__gxx_personality_v0 {
entry:
  %this.addr = alloca ptr, align 8
  %__size.addr = alloca i64, align 8
  store ptr %this, ptr %this.addr, align 8, !tbaa !59
  store i64 %__size, ptr %__size.addr, align 8, !tbaa !51
  %this1 = load ptr, ptr %this.addr, align 8
  %call = invoke noundef nonnull align 1 dereferenceable(1) ptr @_ZNSt7__cxx1112basic_stringIcSt11char_traitsIcESaIcEE16_M_get_allocatorEv(ptr noundef nonnull align 8 dereferenceable(32) %this1)
          to label %invoke.cont unwind label %terminate.lpad

invoke.cont:                                      ; preds = %entry
  %call2 = call noundef ptr @_ZNKSt7__cxx1112basic_stringIcSt11char_traitsIcESaIcEE7_M_dataEv(ptr noundef nonnull align 8 dereferenceable(32) %this1)
  %0 = load i64, ptr %__size.addr, align 8, !tbaa !51
  %add = add i64 %0, 1
  invoke void @_ZNSt16allocator_traitsISaIcEE10deallocateERS0_Pcm(ptr noundef nonnull align 1 dereferenceable(1) %call, ptr noundef %call2, i64 noundef %add)
          to label %invoke.cont3 unwind label %terminate.lpad

invoke.cont3:                                     ; preds = %invoke.cont
  ret void

terminate.lpad:                                   ; preds = %invoke.cont, %entry
  %1 = landingpad { ptr, i32 }
          catch ptr null
  %2 = extractvalue { ptr, i32 } %1, 0
  call void @__clang_call_terminate(ptr %2) #23
  unreachable
}

; Function Attrs: mustprogress nounwind uwtable
define available_externally noundef ptr @_ZNKSt7__cxx1112basic_stringIcSt11char_traitsIcESaIcEE13_M_local_dataEv(ptr noundef nonnull align 8 dereferenceable(32) %this) #6 align 2 {
entry:
  %this.addr = alloca ptr, align 8
  store ptr %this, ptr %this.addr, align 8, !tbaa !59
  %this1 = load ptr, ptr %this.addr, align 8
  %0 = getelementptr inbounds nuw %"class.std::__cxx11::basic_string", ptr %this1, i32 0, i32 2
  %arraydecay = getelementptr inbounds [16 x i8], ptr %0, i64 0, i64 0
  %call = call noundef ptr @_ZNSt19__ptr_traits_ptr_toIPKcS0_Lb0EE10pointer_toERS0_(ptr noundef nonnull align 1 dereferenceable(1) %arraydecay) #5
  ret ptr %call
}

; Function Attrs: mustprogress nounwind uwtable
define linkonce_odr noundef ptr @_ZNSt19__ptr_traits_ptr_toIPKcS0_Lb0EE10pointer_toERS0_(ptr noundef nonnull align 1 dereferenceable(1) %__r) #6 comdat align 2 {
entry:
  %__r.addr = alloca ptr, align 8
  store ptr %__r, ptr %__r.addr, align 8, !tbaa !61
  %0 = load ptr, ptr %__r.addr, align 8, !tbaa !61
  ret ptr %0
}

; Function Attrs: mustprogress uwtable
define linkonce_odr void @_ZNSt16allocator_traitsISaIcEE10deallocateERS0_Pcm(ptr noundef nonnull align 1 dereferenceable(1) %__a, ptr noundef %__p, i64 noundef %__n) #0 comdat align 2 {
entry:
  %__a.addr = alloca ptr, align 8
  %__p.addr = alloca ptr, align 8
  %__n.addr = alloca i64, align 8
  store ptr %__a, ptr %__a.addr, align 8, !tbaa !134
  store ptr %__p, ptr %__p.addr, align 8, !tbaa !61
  store i64 %__n, ptr %__n.addr, align 8, !tbaa !51
  %0 = load ptr, ptr %__a.addr, align 8, !tbaa !134
  %1 = load ptr, ptr %__p.addr, align 8, !tbaa !61
  %2 = load i64, ptr %__n.addr, align 8, !tbaa !51
  call void @_ZNSt15__new_allocatorIcE10deallocateEPcm(ptr noundef nonnull align 1 dereferenceable(1) %0, ptr noundef %1, i64 noundef %2)
  ret void
}

; Function Attrs: mustprogress nounwind uwtable
define available_externally noundef nonnull align 1 dereferenceable(1) ptr @_ZNSt7__cxx1112basic_stringIcSt11char_traitsIcESaIcEE16_M_get_allocatorEv(ptr noundef nonnull align 8 dereferenceable(32) %this) #6 align 2 {
entry:
  %this.addr = alloca ptr, align 8
  store ptr %this, ptr %this.addr, align 8, !tbaa !59
  %this1 = load ptr, ptr %this.addr, align 8
  %_M_dataplus = getelementptr inbounds nuw %"class.std::__cxx11::basic_string", ptr %this1, i32 0, i32 0
  ret ptr %_M_dataplus
}

; Function Attrs: mustprogress nounwind uwtable
define linkonce_odr void @_ZNSt15__new_allocatorIcE10deallocateEPcm(ptr noundef nonnull align 1 dereferenceable(1) %this, ptr noundef %__p, i64 noundef %__n) #6 comdat align 2 {
entry:
  %this.addr = alloca ptr, align 8
  %__p.addr = alloca ptr, align 8
  %__n.addr = alloca i64, align 8
  store ptr %this, ptr %this.addr, align 8, !tbaa !141
  store ptr %__p, ptr %__p.addr, align 8, !tbaa !61
  store i64 %__n, ptr %__n.addr, align 8, !tbaa !51
  %this1 = load ptr, ptr %this.addr, align 8
  %0 = load ptr, ptr %__p.addr, align 8, !tbaa !61
  %1 = load i64, ptr %__n.addr, align 8, !tbaa !51
  %mul = mul i64 %1, 1
  call void @_ZdlPvm(ptr noundef %0, i64 noundef %mul) #21
  ret void
}

; Function Attrs: mustprogress nounwind uwtable
define linkonce_odr noundef zeroext i1 @_ZN9__gnu_cxx14__alloc_traitsISaIcEcE15_S_always_equalEv() #6 comdat align 2 {
entry:
  ret i1 true
}

; Function Attrs: mustprogress nounwind uwtable
define linkonce_odr noundef zeroext i1 @_ZStneRKSaIcES1_(ptr noundef nonnull align 1 dereferenceable(1) %0, ptr noundef nonnull align 1 dereferenceable(1) %1) #6 comdat {
entry:
  %.addr = alloca ptr, align 8
  %.addr1 = alloca ptr, align 8
  store ptr %0, ptr %.addr, align 8, !tbaa !134
  store ptr %1, ptr %.addr1, align 8, !tbaa !134
  ret i1 false
}

; Function Attrs: inlinehint mustprogress nounwind uwtable
define linkonce_odr void @_ZSt15__alloc_on_moveISaIcEEvRT_S2_(ptr noundef nonnull align 1 dereferenceable(1) %__one, ptr noundef nonnull align 1 dereferenceable(1) %__two) #1 comdat {
entry:
  %__one.addr = alloca ptr, align 8
  %__two.addr = alloca ptr, align 8
  store ptr %__one, ptr %__one.addr, align 8, !tbaa !134
  store ptr %__two, ptr %__two.addr, align 8, !tbaa !134
  %0 = load ptr, ptr %__two.addr, align 8, !tbaa !134
  %1 = load ptr, ptr %__one.addr, align 8, !tbaa !134
  ret void
}

; Function Attrs: nocallback nofree nosync nounwind willreturn memory(none)
declare i64 @llvm.expect.i64(i64, i64) #17

; Function Attrs: mustprogress nounwind uwtable
define available_externally noundef i64 @_ZNKSt7__cxx1112basic_stringIcSt11char_traitsIcESaIcEE4sizeEv(ptr noundef nonnull align 8 dereferenceable(32) %this) #6 align 2 {
entry:
  %this.addr = alloca ptr, align 8
  store ptr %this, ptr %this.addr, align 8, !tbaa !59
  %this1 = load ptr, ptr %this.addr, align 8
  %_M_string_length = getelementptr inbounds nuw %"class.std::__cxx11::basic_string", ptr %this1, i32 0, i32 1
  %0 = load i64, ptr %_M_string_length, align 8, !tbaa !143
  ret i64 %0
}

; Function Attrs: mustprogress nounwind uwtable
define available_externally noundef i64 @_ZNKSt7__cxx1112basic_stringIcSt11char_traitsIcESaIcEE6lengthEv(ptr noundef nonnull align 8 dereferenceable(32) %this) #6 align 2 {
entry:
  %this.addr = alloca ptr, align 8
  store ptr %this, ptr %this.addr, align 8, !tbaa !59
  %this1 = load ptr, ptr %this.addr, align 8
  %_M_string_length = getelementptr inbounds nuw %"class.std::__cxx11::basic_string", ptr %this1, i32 0, i32 1
  %0 = load i64, ptr %_M_string_length, align 8, !tbaa !143
  ret i64 %0
}

; Function Attrs: mustprogress nounwind uwtable
define available_externally void @_ZNSt7__cxx1112basic_stringIcSt11char_traitsIcESaIcEE5clearEv(ptr noundef nonnull align 8 dereferenceable(32) %this) #6 align 2 personality ptr @__gxx_personality_v0 {
entry:
  %this.addr = alloca ptr, align 8
  store ptr %this, ptr %this.addr, align 8, !tbaa !59
  %this1 = load ptr, ptr %this.addr, align 8
  invoke void @_ZNSt7__cxx1112basic_stringIcSt11char_traitsIcESaIcEE13_M_set_lengthEm(ptr noundef nonnull align 8 dereferenceable(32) %this1, i64 noundef 0)
          to label %invoke.cont unwind label %terminate.lpad

invoke.cont:                                      ; preds = %entry
  ret void

terminate.lpad:                                   ; preds = %entry
  %0 = landingpad { ptr, i32 }
          catch ptr null
  %1 = extractvalue { ptr, i32 } %0, 0
  call void @__clang_call_terminate(ptr %1) #23
  unreachable
}

; Function Attrs: nounwind
declare noundef i32 @_ZNKSt7__cxx1112basic_stringIcSt11char_traitsIcESaIcEE7compareEPKc(ptr noundef nonnull align 8 dereferenceable(32), ptr noundef) #4

; Function Attrs: inlinehint mustprogress uwtable
define linkonce_odr void @_ZNSt15__uniq_ptr_dataIN6openmc18EnergyDistributionESt14default_deleteIS1_ELb1ELb1EECI2St15__uniq_ptr_implIS1_S3_EEPS1_(ptr noundef nonnull align 8 dereferenceable(8) %this, ptr noundef %0) unnamed_addr #8 comdat align 2 {
entry:
  %this.addr = alloca ptr, align 8
  %.addr = alloca ptr, align 8
  store ptr %this, ptr %this.addr, align 8, !tbaa !87
  store ptr %0, ptr %.addr, align 8, !tbaa !63
  %this1 = load ptr, ptr %this.addr, align 8
  %1 = load ptr, ptr %.addr, align 8, !tbaa !63
  call void @_ZNSt15__uniq_ptr_implIN6openmc18EnergyDistributionESt14default_deleteIS1_EEC2EPS1_(ptr noundef nonnull align 8 dereferenceable(8) %this1, ptr noundef %1)
  ret void
}

; Function Attrs: mustprogress nounwind uwtable
define linkonce_odr void @_ZNSt15__uniq_ptr_implIN6openmc18EnergyDistributionESt14default_deleteIS1_EEC2EPS1_(ptr noundef nonnull align 8 dereferenceable(8) %this, ptr noundef %__p) unnamed_addr #6 comdat align 2 {
entry:
  %this.addr = alloca ptr, align 8
  %__p.addr = alloca ptr, align 8
  store ptr %this, ptr %this.addr, align 8, !tbaa !89
  store ptr %__p, ptr %__p.addr, align 8, !tbaa !63
  %this1 = load ptr, ptr %this.addr, align 8
  %_M_t = getelementptr inbounds nuw %"class.std::__uniq_ptr_impl", ptr %this1, i32 0, i32 0
  call void @_ZNSt5tupleIJPN6openmc18EnergyDistributionESt14default_deleteIS1_EEEC2ILb1ETnNSt9enable_ifIXclsr17_TupleConstraintsIXT_ES2_S4_EE37__is_implicitly_default_constructibleEEbE4typeELb1EEEv(ptr noundef nonnull align 8 dereferenceable(8) %_M_t) #5
  %0 = load ptr, ptr %__p.addr, align 8, !tbaa !63
  %call = call noundef nonnull align 8 dereferenceable(8) ptr @_ZNSt15__uniq_ptr_implIN6openmc18EnergyDistributionESt14default_deleteIS1_EE6_M_ptrEv(ptr noundef nonnull align 8 dereferenceable(8) %this1) #5
  store ptr %0, ptr %call, align 8, !tbaa !63
  ret void
}

; Function Attrs: mustprogress nounwind uwtable
define linkonce_odr noundef nonnull align 8 dereferenceable(8) ptr @_ZNSt15__uniq_ptr_implIN6openmc18EnergyDistributionESt14default_deleteIS1_EE6_M_ptrEv(ptr noundef nonnull align 8 dereferenceable(8) %this) #6 comdat align 2 {
entry:
  %this.addr = alloca ptr, align 8
  store ptr %this, ptr %this.addr, align 8, !tbaa !89
  %this1 = load ptr, ptr %this.addr, align 8
  %_M_t = getelementptr inbounds nuw %"class.std::__uniq_ptr_impl", ptr %this1, i32 0, i32 0
  %call = call noundef nonnull align 8 dereferenceable(8) ptr @_ZSt3getILm0EJPN6openmc18EnergyDistributionESt14default_deleteIS1_EEERNSt13tuple_elementIXT_ESt5tupleIJDpT0_EEE4typeERS9_(ptr noundef nonnull align 8 dereferenceable(8) %_M_t) #5
  ret ptr %call
}

; Function Attrs: mustprogress nounwind uwtable
define linkonce_odr noundef nonnull align 8 dereferenceable(8) ptr @_ZSt3getILm0EJPN6openmc18EnergyDistributionESt14default_deleteIS1_EEERNSt13tuple_elementIXT_ESt5tupleIJDpT0_EEE4typeERS9_(ptr noundef nonnull align 8 dereferenceable(8) %__t) #6 comdat {
entry:
  %__t.addr = alloca ptr, align 8
  store ptr %__t, ptr %__t.addr, align 8, !tbaa !91
  %0 = load ptr, ptr %__t.addr, align 8, !tbaa !91
  %call = call noundef nonnull align 8 dereferenceable(8) ptr @_ZSt12__get_helperILm0EPN6openmc18EnergyDistributionEJSt14default_deleteIS1_EEERT0_RSt11_Tuple_implIXT_EJS5_DpT1_EE(ptr noundef nonnull align 8 dereferenceable(8) %0) #5
  ret ptr %call
}

; Function Attrs: mustprogress nounwind uwtable
define linkonce_odr noundef nonnull align 8 dereferenceable(8) ptr @_ZSt12__get_helperILm0EPN6openmc18EnergyDistributionEJSt14default_deleteIS1_EEERT0_RSt11_Tuple_implIXT_EJS5_DpT1_EE(ptr noundef nonnull align 8 dereferenceable(8) %__t) #6 comdat {
entry:
  %__t.addr = alloca ptr, align 8
  store ptr %__t, ptr %__t.addr, align 8, !tbaa !93
  %0 = load ptr, ptr %__t.addr, align 8, !tbaa !93
  %call = call noundef nonnull align 8 dereferenceable(8) ptr @_ZNSt11_Tuple_implILm0EJPN6openmc18EnergyDistributionESt14default_deleteIS1_EEE7_M_headERS5_(ptr noundef nonnull align 8 dereferenceable(8) %0) #5
  ret ptr %call
}

; Function Attrs: mustprogress nounwind uwtable
define linkonce_odr noundef nonnull align 8 dereferenceable(8) ptr @_ZNSt11_Tuple_implILm0EJPN6openmc18EnergyDistributionESt14default_deleteIS1_EEE7_M_headERS5_(ptr noundef nonnull align 8 dereferenceable(8) %__t) #6 comdat align 2 {
entry:
  %__t.addr = alloca ptr, align 8
  store ptr %__t, ptr %__t.addr, align 8, !tbaa !93
  %0 = load ptr, ptr %__t.addr, align 8, !tbaa !93
  %call = call noundef nonnull align 8 dereferenceable(8) ptr @_ZNSt10_Head_baseILm0EPN6openmc18EnergyDistributionELb0EE7_M_headERS3_(ptr noundef nonnull align 8 dereferenceable(8) %0) #5
  ret ptr %call
}

; Function Attrs: mustprogress nounwind uwtable
define linkonce_odr noundef nonnull align 8 dereferenceable(8) ptr @_ZNSt10_Head_baseILm0EPN6openmc18EnergyDistributionELb0EE7_M_headERS3_(ptr noundef nonnull align 8 dereferenceable(8) %__b) #6 comdat align 2 {
entry:
  %__b.addr = alloca ptr, align 8
  store ptr %__b, ptr %__b.addr, align 8, !tbaa !97
  %0 = load ptr, ptr %__b.addr, align 8, !tbaa !97
  %_M_head_impl = getelementptr inbounds nuw %"struct.std::_Head_base.6", ptr %0, i32 0, i32 0
  ret ptr %_M_head_impl
}

; Function Attrs: mustprogress nounwind uwtable
define linkonce_odr noundef nonnull align 8 dereferenceable(8) ptr @_ZNSt15__uniq_ptr_dataIN6openmc18EnergyDistributionESt14default_deleteIS1_ELb1ELb1EEaSEOS4_(ptr noundef nonnull align 8 dereferenceable(8) %this, ptr noundef nonnull align 8 dereferenceable(8) %0) #6 comdat align 2 {
entry:
  %this.addr = alloca ptr, align 8
  %.addr = alloca ptr, align 8
  store ptr %this, ptr %this.addr, align 8, !tbaa !87
  store ptr %0, ptr %.addr, align 8, !tbaa !87
  %this1 = load ptr, ptr %this.addr, align 8
  %1 = load ptr, ptr %.addr, align 8, !tbaa !87
  %call = call noundef nonnull align 8 dereferenceable(8) ptr @_ZNSt15__uniq_ptr_implIN6openmc18EnergyDistributionESt14default_deleteIS1_EEaSEOS4_(ptr noundef nonnull align 8 dereferenceable(8) %this1, ptr noundef nonnull align 8 dereferenceable(8) %1) #5
  ret ptr %this1
}

; Function Attrs: mustprogress nounwind uwtable
define linkonce_odr noundef nonnull align 8 dereferenceable(8) ptr @_ZNSt15__uniq_ptr_implIN6openmc18EnergyDistributionESt14default_deleteIS1_EEaSEOS4_(ptr noundef nonnull align 8 dereferenceable(8) %this, ptr noundef nonnull align 8 dereferenceable(8) %__u) #6 comdat align 2 {
entry:
  %this.addr = alloca ptr, align 8
  %__u.addr = alloca ptr, align 8
  store ptr %this, ptr %this.addr, align 8, !tbaa !89
  store ptr %__u, ptr %__u.addr, align 8, !tbaa !89
  %this1 = load ptr, ptr %this.addr, align 8
  %0 = load ptr, ptr %__u.addr, align 8, !tbaa !89
  %call = call noundef ptr @_ZNSt15__uniq_ptr_implIN6openmc18EnergyDistributionESt14default_deleteIS1_EE7releaseEv(ptr noundef nonnull align 8 dereferenceable(8) %0) #5
  call void @_ZNSt15__uniq_ptr_implIN6openmc18EnergyDistributionESt14default_deleteIS1_EE5resetEPS1_(ptr noundef nonnull align 8 dereferenceable(8) %this1, ptr noundef %call) #5
  %1 = load ptr, ptr %__u.addr, align 8, !tbaa !89
  %call2 = call noundef nonnull align 1 dereferenceable(1) ptr @_ZNSt15__uniq_ptr_implIN6openmc18EnergyDistributionESt14default_deleteIS1_EE10_M_deleterEv(ptr noundef nonnull align 8 dereferenceable(8) %1) #5
  %call3 = call noundef nonnull align 1 dereferenceable(1) ptr @_ZNSt15__uniq_ptr_implIN6openmc18EnergyDistributionESt14default_deleteIS1_EE10_M_deleterEv(ptr noundef nonnull align 8 dereferenceable(8) %this1) #5
  ret ptr %this1
}

; Function Attrs: mustprogress nounwind uwtable
define linkonce_odr void @_ZNSt15__uniq_ptr_implIN6openmc18EnergyDistributionESt14default_deleteIS1_EE5resetEPS1_(ptr noundef nonnull align 8 dereferenceable(8) %this, ptr noundef %__p) #6 comdat align 2 personality ptr @__gxx_personality_v0 {
entry:
  %this.addr = alloca ptr, align 8
  %__p.addr = alloca ptr, align 8
  %__old_p = alloca ptr, align 8
  store ptr %this, ptr %this.addr, align 8, !tbaa !89
  store ptr %__p, ptr %__p.addr, align 8, !tbaa !63
  %this1 = load ptr, ptr %this.addr, align 8
  call void @llvm.lifetime.start.p0(i64 8, ptr %__old_p) #5
  %call = call noundef nonnull align 8 dereferenceable(8) ptr @_ZNSt15__uniq_ptr_implIN6openmc18EnergyDistributionESt14default_deleteIS1_EE6_M_ptrEv(ptr noundef nonnull align 8 dereferenceable(8) %this1) #5
  %0 = load ptr, ptr %call, align 8, !tbaa !63
  store ptr %0, ptr %__old_p, align 8, !tbaa !63
  %1 = load ptr, ptr %__p.addr, align 8, !tbaa !63
  %call2 = call noundef nonnull align 8 dereferenceable(8) ptr @_ZNSt15__uniq_ptr_implIN6openmc18EnergyDistributionESt14default_deleteIS1_EE6_M_ptrEv(ptr noundef nonnull align 8 dereferenceable(8) %this1) #5
  store ptr %1, ptr %call2, align 8, !tbaa !63
  %2 = load ptr, ptr %__old_p, align 8, !tbaa !63
  %tobool = icmp ne ptr %2, null
  br i1 %tobool, label %if.then, label %if.end

if.then:                                          ; preds = %entry
  %call3 = call noundef nonnull align 1 dereferenceable(1) ptr @_ZNSt15__uniq_ptr_implIN6openmc18EnergyDistributionESt14default_deleteIS1_EE10_M_deleterEv(ptr noundef nonnull align 8 dereferenceable(8) %this1) #5
  %3 = load ptr, ptr %__old_p, align 8, !tbaa !63
  invoke void @_ZNKSt14default_deleteIN6openmc18EnergyDistributionEEclEPS1_(ptr noundef nonnull align 1 dereferenceable(1) %call3, ptr noundef %3)
          to label %invoke.cont unwind label %terminate.lpad

invoke.cont:                                      ; preds = %if.then
  br label %if.end

if.end:                                           ; preds = %invoke.cont, %entry
  call void @llvm.lifetime.end.p0(i64 8, ptr %__old_p) #5
  ret void

terminate.lpad:                                   ; preds = %if.then
  %4 = landingpad { ptr, i32 }
          catch ptr null
  %5 = extractvalue { ptr, i32 } %4, 0
  call void @__clang_call_terminate(ptr %5) #23
  unreachable
}

; Function Attrs: mustprogress nounwind uwtable
define linkonce_odr noundef ptr @_ZNSt15__uniq_ptr_implIN6openmc18EnergyDistributionESt14default_deleteIS1_EE7releaseEv(ptr noundef nonnull align 8 dereferenceable(8) %this) #6 comdat align 2 {
entry:
  %this.addr = alloca ptr, align 8
  %__p = alloca ptr, align 8
  store ptr %this, ptr %this.addr, align 8, !tbaa !89
  %this1 = load ptr, ptr %this.addr, align 8
  call void @llvm.lifetime.start.p0(i64 8, ptr %__p) #5
  %call = call noundef nonnull align 8 dereferenceable(8) ptr @_ZNSt15__uniq_ptr_implIN6openmc18EnergyDistributionESt14default_deleteIS1_EE6_M_ptrEv(ptr noundef nonnull align 8 dereferenceable(8) %this1) #5
  %0 = load ptr, ptr %call, align 8, !tbaa !63
  store ptr %0, ptr %__p, align 8, !tbaa !63
  %call2 = call noundef nonnull align 8 dereferenceable(8) ptr @_ZNSt15__uniq_ptr_implIN6openmc18EnergyDistributionESt14default_deleteIS1_EE6_M_ptrEv(ptr noundef nonnull align 8 dereferenceable(8) %this1) #5
  store ptr null, ptr %call2, align 8, !tbaa !63
  %1 = load ptr, ptr %__p, align 8, !tbaa !63
  call void @llvm.lifetime.end.p0(i64 8, ptr %__p) #5
  ret ptr %1
}

; Function Attrs: mustprogress nounwind uwtable
define linkonce_odr noundef nonnull align 1 dereferenceable(1) ptr @_ZNSt15__uniq_ptr_implIN6openmc18EnergyDistributionESt14default_deleteIS1_EE10_M_deleterEv(ptr noundef nonnull align 8 dereferenceable(8) %this) #6 comdat align 2 {
entry:
  %this.addr = alloca ptr, align 8
  store ptr %this, ptr %this.addr, align 8, !tbaa !89
  %this1 = load ptr, ptr %this.addr, align 8
  %_M_t = getelementptr inbounds nuw %"class.std::__uniq_ptr_impl", ptr %this1, i32 0, i32 0
  %call = call noundef nonnull align 1 dereferenceable(1) ptr @_ZSt3getILm1EJPN6openmc18EnergyDistributionESt14default_deleteIS1_EEERNSt13tuple_elementIXT_ESt5tupleIJDpT0_EEE4typeERS9_(ptr noundef nonnull align 8 dereferenceable(8) %_M_t) #5
  ret ptr %call
}

; Function Attrs: mustprogress nounwind uwtable
define linkonce_odr void @_ZNKSt14default_deleteIN6openmc18EnergyDistributionEEclEPS1_(ptr noundef nonnull align 1 dereferenceable(1) %this, ptr noundef %__ptr) #6 comdat align 2 {
entry:
  %this.addr = alloca ptr, align 8
  %__ptr.addr = alloca ptr, align 8
  store ptr %this, ptr %this.addr, align 8, !tbaa !152
  store ptr %__ptr, ptr %__ptr.addr, align 8, !tbaa !63
  %this1 = load ptr, ptr %this.addr, align 8
  %0 = load ptr, ptr %__ptr.addr, align 8, !tbaa !63
  %isnull = icmp eq ptr %0, null
  br i1 %isnull, label %delete.end, label %delete.notnull

delete.notnull:                                   ; preds = %entry
  %vtable = load ptr, ptr %0, align 8, !tbaa !45
  %vfn = getelementptr inbounds ptr, ptr %vtable, i64 3
  %1 = load ptr, ptr %vfn, align 8
  call void %1(ptr noundef nonnull align 8 dereferenceable(8) %0) #5
  br label %delete.end

delete.end:                                       ; preds = %delete.notnull, %entry
  ret void
}

; Function Attrs: mustprogress nounwind uwtable
define linkonce_odr noundef nonnull align 1 dereferenceable(1) ptr @_ZSt3getILm1EJPN6openmc18EnergyDistributionESt14default_deleteIS1_EEERNSt13tuple_elementIXT_ESt5tupleIJDpT0_EEE4typeERS9_(ptr noundef nonnull align 8 dereferenceable(8) %__t) #6 comdat {
entry:
  %__t.addr = alloca ptr, align 8
  store ptr %__t, ptr %__t.addr, align 8, !tbaa !91
  %0 = load ptr, ptr %__t.addr, align 8, !tbaa !91
  %call = call noundef nonnull align 1 dereferenceable(1) ptr @_ZSt12__get_helperILm1ESt14default_deleteIN6openmc18EnergyDistributionEEJEERT0_RSt11_Tuple_implIXT_EJS4_DpT1_EE(ptr noundef nonnull align 1 dereferenceable(1) %0) #5
  ret ptr %call
}

; Function Attrs: mustprogress nounwind uwtable
define linkonce_odr noundef nonnull align 1 dereferenceable(1) ptr @_ZSt12__get_helperILm1ESt14default_deleteIN6openmc18EnergyDistributionEEJEERT0_RSt11_Tuple_implIXT_EJS4_DpT1_EE(ptr noundef nonnull align 1 dereferenceable(1) %__t) #6 comdat {
entry:
  %__t.addr = alloca ptr, align 8
  store ptr %__t, ptr %__t.addr, align 8, !tbaa !95
  %0 = load ptr, ptr %__t.addr, align 8, !tbaa !95
  %call = call noundef nonnull align 1 dereferenceable(1) ptr @_ZNSt11_Tuple_implILm1EJSt14default_deleteIN6openmc18EnergyDistributionEEEE7_M_headERS4_(ptr noundef nonnull align 1 dereferenceable(1) %0) #5
  ret ptr %call
}

; Function Attrs: mustprogress nounwind uwtable
define linkonce_odr noundef nonnull align 1 dereferenceable(1) ptr @_ZNSt11_Tuple_implILm1EJSt14default_deleteIN6openmc18EnergyDistributionEEEE7_M_headERS4_(ptr noundef nonnull align 1 dereferenceable(1) %__t) #6 comdat align 2 {
entry:
  %__t.addr = alloca ptr, align 8
  store ptr %__t, ptr %__t.addr, align 8, !tbaa !95
  %0 = load ptr, ptr %__t.addr, align 8, !tbaa !95
  %call = call noundef nonnull align 1 dereferenceable(1) ptr @_ZNSt10_Head_baseILm1ESt14default_deleteIN6openmc18EnergyDistributionEELb1EE7_M_headERS4_(ptr noundef nonnull align 1 dereferenceable(1) %0) #5
  ret ptr %call
}

; Function Attrs: mustprogress nounwind uwtable
define linkonce_odr noundef nonnull align 1 dereferenceable(1) ptr @_ZNSt10_Head_baseILm1ESt14default_deleteIN6openmc18EnergyDistributionEELb1EE7_M_headERS4_(ptr noundef nonnull align 1 dereferenceable(1) %__b) #6 comdat align 2 {
entry:
  %__b.addr = alloca ptr, align 8
  store ptr %__b, ptr %__b.addr, align 8, !tbaa !100
  %0 = load ptr, ptr %__b.addr, align 8, !tbaa !100
  ret ptr %0
}

; Function Attrs: mustprogress nounwind uwtable
define linkonce_odr noundef nonnull align 1 dereferenceable(1) ptr @_ZNSt10unique_ptrIN6openmc18EnergyDistributionESt14default_deleteIS1_EE11get_deleterEv(ptr noundef nonnull align 8 dereferenceable(8) %this) #6 comdat align 2 {
entry:
  %this.addr = alloca ptr, align 8
  store ptr %this, ptr %this.addr, align 8, !tbaa !57
  %this1 = load ptr, ptr %this.addr, align 8
  %_M_t = getelementptr inbounds nuw %"class.std::unique_ptr", ptr %this1, i32 0, i32 0
  %call = call noundef nonnull align 1 dereferenceable(1) ptr @_ZNSt15__uniq_ptr_implIN6openmc18EnergyDistributionESt14default_deleteIS1_EE10_M_deleterEv(ptr noundef nonnull align 8 dereferenceable(8) %_M_t) #5
  ret ptr %call
}

; Function Attrs: inlinehint mustprogress uwtable
define linkonce_odr void @_ZN3fmt2v68internal7vformatIcEENSt7__cxx1112basic_stringIT_St11char_traitsIS5_ESaIS5_EEENS0_17basic_string_viewIS5_EENS0_17basic_format_argsINS0_20basic_format_contextISt20back_insert_iteratorINS1_6bufferIS5_EEES5_EEEE(ptr dead_on_unwind noalias writable sret(%"class.std::__cxx11::basic_string") align 8 %agg.result, ptr %format_str.coerce0, i64 %format_str.coerce1, i64 %args.coerce0, ptr %args.coerce1) #8 comdat personality ptr @__gxx_personality_v0 {
entry:
  %result.ptr = alloca ptr, align 8
  %format_str = alloca %"class.fmt::v6::basic_string_view", align 8
  %args = alloca %"class.fmt::v6::basic_format_args", align 8
  %buffer = alloca %"class.fmt::v6::basic_memory_buffer", align 8
  %ref.tmp = alloca %"class.std::allocator.7", align 1
  %exn.slot = alloca ptr, align 8
  %ehselector.slot = alloca i32, align 4
  %agg.tmp = alloca %"class.fmt::v6::basic_string_view", align 8
  %agg.tmp1 = alloca %"class.fmt::v6::basic_format_args", align 8
  %coerce = alloca %"class.std::back_insert_iterator", align 8
  store ptr %agg.result, ptr %result.ptr, align 8
  %0 = getelementptr inbounds nuw { ptr, i64 }, ptr %format_str, i32 0, i32 0
  store ptr %format_str.coerce0, ptr %0, align 8
  %1 = getelementptr inbounds nuw { ptr, i64 }, ptr %format_str, i32 0, i32 1
  store i64 %format_str.coerce1, ptr %1, align 8
  %2 = getelementptr inbounds nuw { i64, ptr }, ptr %args, i32 0, i32 0
  store i64 %args.coerce0, ptr %2, align 8
  %3 = getelementptr inbounds nuw { i64, ptr }, ptr %args, i32 0, i32 1
  store ptr %args.coerce1, ptr %3, align 8
  call void @llvm.lifetime.start.p0(i64 536, ptr %buffer) #5
  call void @llvm.lifetime.start.p0(i64 1, ptr %ref.tmp) #5
  call void @_ZNSaIcEC2Ev(ptr noundef nonnull align 1 dereferenceable(1) %ref.tmp) #5
  invoke void @_ZN3fmt2v619basic_memory_bufferIcLm500ESaIcEEC2ERKS2_(ptr noundef nonnull align 8 dereferenceable(532) %buffer, ptr noundef nonnull align 1 dereferenceable(1) %ref.tmp)
          to label %invoke.cont unwind label %lpad

invoke.cont:                                      ; preds = %entry
  call void @_ZNSt15__new_allocatorIcED2Ev(ptr noundef nonnull align 1 dereferenceable(1) %ref.tmp) #5
  call void @llvm.lifetime.end.p0(i64 1, ptr %ref.tmp) #5
  call void @llvm.memcpy.p0.p0.i64(ptr align 8 %agg.tmp, ptr align 8 %format_str, i64 16, i1 false), !tbaa.struct !154
  call void @llvm.memcpy.p0.p0.i64(ptr align 8 %agg.tmp1, ptr align 8 %args, i64 16, i1 false), !tbaa.struct !155
  %4 = getelementptr inbounds nuw { ptr, i64 }, ptr %agg.tmp, i32 0, i32 0
  %5 = load ptr, ptr %4, align 8
  %6 = getelementptr inbounds nuw { ptr, i64 }, ptr %agg.tmp, i32 0, i32 1
  %7 = load i64, ptr %6, align 8
  %8 = getelementptr inbounds nuw { i64, ptr }, ptr %agg.tmp1, i32 0, i32 0
  %9 = load i64, ptr %8, align 8
  %10 = getelementptr inbounds nuw { i64, ptr }, ptr %agg.tmp1, i32 0, i32 1
  %11 = load ptr, ptr %10, align 8
  %call = invoke ptr @_ZN3fmt2v68internal10vformat_toIcEENS0_20basic_format_contextISt20back_insert_iteratorINS1_6bufferIT_EEES6_E8iteratorERS7_NS0_17basic_string_viewIS6_EENS0_17basic_format_argsIS9_EE(ptr noundef nonnull align 8 dereferenceable(32) %buffer, ptr %5, i64 %7, i64 %9, ptr %11)
          to label %invoke.cont3 unwind label %lpad2

invoke.cont3:                                     ; preds = %invoke.cont
  %coerce.dive = getelementptr inbounds nuw %"class.std::back_insert_iterator", ptr %coerce, i32 0, i32 0
  store ptr %call, ptr %coerce.dive, align 8
  invoke void @_ZN3fmt2v69to_stringIcLm500EEENSt7__cxx1112basic_stringIT_St11char_traitsIS4_ESaIS4_EEERKNS0_19basic_memory_bufferIS4_XT0_ES7_EE(ptr dead_on_unwind writable sret(%"class.std::__cxx11::basic_string") align 8 %agg.result, ptr noundef nonnull align 8 dereferenceable(532) %buffer)
          to label %invoke.cont4 unwind label %lpad2

invoke.cont4:                                     ; preds = %invoke.cont3
  call void @_ZN3fmt2v619basic_memory_bufferIcLm500ESaIcEED2Ev(ptr noundef nonnull align 8 dereferenceable(532) %buffer) #5
  call void @llvm.lifetime.end.p0(i64 536, ptr %buffer) #5
  ret void

lpad:                                             ; preds = %entry
  %12 = landingpad { ptr, i32 }
          cleanup
  %13 = extractvalue { ptr, i32 } %12, 0
  store ptr %13, ptr %exn.slot, align 8
  %14 = extractvalue { ptr, i32 } %12, 1
  store i32 %14, ptr %ehselector.slot, align 4
  call void @_ZNSt15__new_allocatorIcED2Ev(ptr noundef nonnull align 1 dereferenceable(1) %ref.tmp) #5
  call void @llvm.lifetime.end.p0(i64 1, ptr %ref.tmp) #5
  br label %ehcleanup

lpad2:                                            ; preds = %invoke.cont3, %invoke.cont
  %15 = landingpad { ptr, i32 }
          cleanup
  %16 = extractvalue { ptr, i32 } %15, 0
  store ptr %16, ptr %exn.slot, align 8
  %17 = extractvalue { ptr, i32 } %15, 1
  store i32 %17, ptr %ehselector.slot, align 4
  call void @_ZN3fmt2v619basic_memory_bufferIcLm500ESaIcEED2Ev(ptr noundef nonnull align 8 dereferenceable(532) %buffer) #5
  br label %ehcleanup

ehcleanup:                                        ; preds = %lpad2, %lpad
  call void @llvm.lifetime.end.p0(i64 536, ptr %buffer) #5
  br label %eh.resume

eh.resume:                                        ; preds = %ehcleanup
  %exn = load ptr, ptr %exn.slot, align 8
  %sel = load i32, ptr %ehselector.slot, align 4
  %lpad.val = insertvalue { ptr, i32 } poison, ptr %exn, 0
  %lpad.val5 = insertvalue { ptr, i32 } %lpad.val, i32 %sel, 1
  resume { ptr, i32 } %lpad.val5
}

; Function Attrs: inlinehint mustprogress uwtable
define linkonce_odr { ptr, i64 } @_ZN3fmt2v614to_string_viewIcTnNSt9enable_ifIXsr7is_charIT_EE5valueEiE4typeELi0EEENS0_17basic_string_viewIS3_EEPKS3_(ptr noundef %s) #8 comdat {
entry:
  %retval = alloca %"class.fmt::v6::basic_string_view", align 8
  %s.addr = alloca ptr, align 8
  store ptr %s, ptr %s.addr, align 8, !tbaa !61
  %0 = load ptr, ptr %s.addr, align 8, !tbaa !61
  call void @_ZN3fmt2v617basic_string_viewIcEC2EPKc(ptr noundef nonnull align 8 dereferenceable(16) %retval, ptr noundef %0)
  %1 = load { ptr, i64 }, ptr %retval, align 8
  ret { ptr, i64 } %1
}

; Function Attrs: inlinehint mustprogress uwtable
define linkonce_odr { i64, i64 } @_ZN3fmt2v68internal17make_args_checkedIJRNSt7__cxx1112basic_stringIcSt11char_traitsIcESaIcEEEEA47_ccEENS0_16format_arg_storeINS0_20basic_format_contextISt20back_insert_iteratorINS1_6bufferIT1_EEESF_EEJDpNSt16remove_referenceIT_E4typeEEEERKT0_DpRKSM_(ptr noundef nonnull align 1 dereferenceable(47) %format_str, ptr noundef nonnull align 8 dereferenceable(32) %args) #8 comdat {
entry:
  %retval = alloca %"class.fmt::v6::format_arg_store", align 16
  %format_str.addr = alloca ptr, align 8
  %args.addr = alloca ptr, align 8
  store ptr %format_str, ptr %format_str.addr, align 8, !tbaa !61
  store ptr %args, ptr %args.addr, align 8, !tbaa !59
  %0 = load ptr, ptr %format_str.addr, align 8, !tbaa !61
  call void @_ZN3fmt2v68internal19check_format_stringIJNSt7__cxx1112basic_stringIcSt11char_traitsIcESaIcEEEEA47_cTnNSt9enable_ifIXntsr17is_compile_stringIT0_EE5valueEiE4typeELi0EEEvRKSB_(ptr noundef nonnull align 1 dereferenceable(47) %0)
  %1 = load ptr, ptr %args.addr, align 8, !tbaa !59
  call void @_ZN3fmt2v616format_arg_storeINS0_20basic_format_contextISt20back_insert_iteratorINS0_8internal6bufferIcEEEcEEJNSt7__cxx1112basic_stringIcSt11char_traitsIcESaIcEEEEEC2ERKSE_(ptr noundef nonnull align 16 dereferenceable(16) %retval, ptr noundef nonnull align 8 dereferenceable(32) %1)
  %coerce.dive = getelementptr inbounds nuw %"class.fmt::v6::format_arg_store", ptr %retval, i32 0, i32 0
  %2 = load { i64, i64 }, ptr %coerce.dive, align 16
  ret { i64, i64 } %2
}

; Function Attrs: mustprogress uwtable
define linkonce_odr void @_ZN3fmt2v617basic_format_argsINS0_20basic_format_contextISt20back_insert_iteratorINS0_8internal6bufferIcEEEcEEEC2IJNSt7__cxx1112basic_stringIcSt11char_traitsIcESaIcEEEEEERKNS0_16format_arg_storeIS8_JDpT_EEE(ptr noundef nonnull align 8 dereferenceable(16) %this, ptr noundef nonnull align 16 dereferenceable(16) %store) unnamed_addr #0 comdat align 2 {
entry:
  %this.addr = alloca ptr, align 8
  %store.addr = alloca ptr, align 8
  store ptr %this, ptr %this.addr, align 8, !tbaa !158
  store ptr %store, ptr %store.addr, align 8, !tbaa !160
  %this1 = load ptr, ptr %this.addr, align 8
  %types_ = getelementptr inbounds nuw %"class.fmt::v6::basic_format_args", ptr %this1, i32 0, i32 0
  %0 = load ptr, ptr %store.addr, align 8, !tbaa !160
  store i64 14, ptr %types_, align 8, !tbaa !162
  %1 = load ptr, ptr %store.addr, align 8, !tbaa !160
  %data_ = getelementptr inbounds nuw %"class.fmt::v6::format_arg_store", ptr %1, i32 0, i32 0
  %arraydecay = getelementptr inbounds [1 x %"class.fmt::v6::internal::value"], ptr %data_, i64 0, i64 0
  call void @_ZN3fmt2v617basic_format_argsINS0_20basic_format_contextISt20back_insert_iteratorINS0_8internal6bufferIcEEEcEEE8set_dataEPKNS4_5valueIS8_EE(ptr noundef nonnull align 8 dereferenceable(16) %this1, ptr noundef %arraydecay)
  ret void
}

; Function Attrs: mustprogress nounwind uwtable
define linkonce_odr void @_ZN3fmt2v619basic_memory_bufferIcLm500ESaIcEEC2ERKS2_(ptr noundef nonnull align 8 dereferenceable(532) %this, ptr noundef nonnull align 1 dereferenceable(1) %alloc) unnamed_addr #6 comdat align 2 {
entry:
  %this.addr = alloca ptr, align 8
  %alloc.addr = alloca ptr, align 8
  store ptr %this, ptr %this.addr, align 8, !tbaa !164
  store ptr %alloc, ptr %alloc.addr, align 8, !tbaa !134
  %this1 = load ptr, ptr %this.addr, align 8
  %0 = load ptr, ptr %alloc.addr, align 8, !tbaa !134
  call void @_ZNSaIcEC2ERKS_(ptr noundef nonnull align 1 dereferenceable(1) %this1, ptr noundef nonnull align 1 dereferenceable(1) %0) #5
  call void @_ZN3fmt2v68internal6bufferIcEC2EPcmm(ptr noundef nonnull align 8 dereferenceable(32) %this1, ptr noundef null, i64 noundef 0, i64 noundef 0) #5
  store ptr getelementptr inbounds inrange(-16, 24) ({ [5 x ptr] }, ptr @_ZTVN3fmt2v619basic_memory_bufferIcLm500ESaIcEEE, i32 0, i32 0, i32 2), ptr %this1, align 8, !tbaa !45
  %store_ = getelementptr inbounds nuw %"class.fmt::v6::basic_memory_buffer", ptr %this1, i32 0, i32 1
  %arraydecay = getelementptr inbounds [500 x i8], ptr %store_, i64 0, i64 0
  call void @_ZN3fmt2v68internal6bufferIcE3setEPcm(ptr noundef nonnull align 8 dereferenceable(32) %this1, ptr noundef %arraydecay, i64 noundef 500) #5
  ret void
}

; Function Attrs: mustprogress uwtable
define linkonce_odr ptr @_ZN3fmt2v68internal10vformat_toIcEENS0_20basic_format_contextISt20back_insert_iteratorINS1_6bufferIT_EEES6_E8iteratorERS7_NS0_17basic_string_viewIS6_EENS0_17basic_format_argsIS9_EE(ptr noundef nonnull align 8 dereferenceable(32) %buf, ptr %format_str.coerce0, i64 %format_str.coerce1, i64 %args.coerce0, ptr %args.coerce1) #0 comdat {
entry:
  %retval = alloca %"class.std::back_insert_iterator", align 8
  %format_str = alloca %"class.fmt::v6::basic_string_view", align 8
  %args = alloca %"class.fmt::v6::basic_format_args", align 8
  %buf.addr = alloca ptr, align 8
  %agg.tmp = alloca %"class.fmt::v6::buffer_range", align 8
  %agg.tmp1 = alloca %"class.fmt::v6::basic_string_view", align 8
  %agg.tmp2 = alloca %"class.fmt::v6::basic_string_view", align 8
  %agg.tmp3 = alloca %"class.fmt::v6::basic_format_args", align 8
  %agg.tmp4 = alloca %"class.fmt::v6::internal::locale_ref", align 8
  %0 = getelementptr inbounds nuw { ptr, i64 }, ptr %format_str, i32 0, i32 0
  store ptr %format_str.coerce0, ptr %0, align 8
  %1 = getelementptr inbounds nuw { ptr, i64 }, ptr %format_str, i32 0, i32 1
  store i64 %format_str.coerce1, ptr %1, align 8
  %2 = getelementptr inbounds nuw { i64, ptr }, ptr %args, i32 0, i32 0
  store i64 %args.coerce0, ptr %2, align 8
  %3 = getelementptr inbounds nuw { i64, ptr }, ptr %args, i32 0, i32 1
  store ptr %args.coerce1, ptr %3, align 8
  store ptr %buf, ptr %buf.addr, align 8, !tbaa !166
  %4 = load ptr, ptr %buf.addr, align 8, !tbaa !166
  call void @_ZN3fmt2v612buffer_rangeIcEC2ERNS0_8internal6bufferIcEE(ptr noundef nonnull align 8 dereferenceable(8) %agg.tmp, ptr noundef nonnull align 8 dereferenceable(32) %4)
  call void @llvm.memcpy.p0.p0.i64(ptr align 8 %agg.tmp2, ptr align 8 %format_str, i64 16, i1 false), !tbaa.struct !154
  %5 = getelementptr inbounds nuw { ptr, i64 }, ptr %agg.tmp2, i32 0, i32 0
  %6 = load ptr, ptr %5, align 8
  %7 = getelementptr inbounds nuw { ptr, i64 }, ptr %agg.tmp2, i32 0, i32 1
  %8 = load i64, ptr %7, align 8
  %call = call { ptr, i64 } @_ZN3fmt2v614to_string_viewIcEENS0_17basic_string_viewIT_EES4_(ptr %6, i64 %8)
  %9 = getelementptr inbounds nuw { ptr, i64 }, ptr %agg.tmp1, i32 0, i32 0
  %10 = extractvalue { ptr, i64 } %call, 0
  store ptr %10, ptr %9, align 8
  %11 = getelementptr inbounds nuw { ptr, i64 }, ptr %agg.tmp1, i32 0, i32 1
  %12 = extractvalue { ptr, i64 } %call, 1
  store i64 %12, ptr %11, align 8
  call void @llvm.memcpy.p0.p0.i64(ptr align 8 %agg.tmp3, ptr align 8 %args, i64 16, i1 false), !tbaa.struct !155
  call void @_ZN3fmt2v68internal10locale_refC2Ev(ptr noundef nonnull align 8 dereferenceable(8) %agg.tmp4)
  %coerce.dive = getelementptr inbounds nuw %"class.fmt::v6::buffer_range", ptr %agg.tmp, i32 0, i32 0
  %coerce.dive5 = getelementptr inbounds nuw %"class.fmt::v6::internal::output_range", ptr %coerce.dive, i32 0, i32 0
  %coerce.dive6 = getelementptr inbounds nuw %"class.std::back_insert_iterator", ptr %coerce.dive5, i32 0, i32 0
  %13 = load ptr, ptr %coerce.dive6, align 8
  %14 = getelementptr inbounds nuw { ptr, i64 }, ptr %agg.tmp1, i32 0, i32 0
  %15 = load ptr, ptr %14, align 8
  %16 = getelementptr inbounds nuw { ptr, i64 }, ptr %agg.tmp1, i32 0, i32 1
  %17 = load i64, ptr %16, align 8
  %18 = getelementptr inbounds nuw { i64, ptr }, ptr %agg.tmp3, i32 0, i32 0
  %19 = load i64, ptr %18, align 8
  %20 = getelementptr inbounds nuw { i64, ptr }, ptr %agg.tmp3, i32 0, i32 1
  %21 = load ptr, ptr %20, align 8
  %coerce.dive7 = getelementptr inbounds nuw %"class.fmt::v6::internal::locale_ref", ptr %agg.tmp4, i32 0, i32 0
  %22 = load ptr, ptr %coerce.dive7, align 8
  %call8 = call ptr @_ZN3fmt2v610vformat_toINS0_13arg_formatterINS0_12buffer_rangeIcEEEEcNS0_20basic_format_contextISt20back_insert_iteratorINS0_8internal6bufferIcEEEcEEEENT1_8iteratorENT_5rangeENS0_17basic_string_viewIT0_EENS0_17basic_format_argsISD_EENS8_10locale_refE(ptr %13, ptr %15, i64 %17, i64 %19, ptr %21, ptr %22)
  %coerce.dive9 = getelementptr inbounds nuw %"class.std::back_insert_iterator", ptr %retval, i32 0, i32 0
  store ptr %call8, ptr %coerce.dive9, align 8
  %coerce.dive10 = getelementptr inbounds nuw %"class.std::back_insert_iterator", ptr %retval, i32 0, i32 0
  %23 = load ptr, ptr %coerce.dive10, align 8
  ret ptr %23
}

; Function Attrs: mustprogress uwtable
define linkonce_odr void @_ZN3fmt2v69to_stringIcLm500EEENSt7__cxx1112basic_stringIT_St11char_traitsIS4_ESaIS4_EEERKNS0_19basic_memory_bufferIS4_XT0_ES7_EE(ptr dead_on_unwind noalias writable sret(%"class.std::__cxx11::basic_string") align 8 %agg.result, ptr noundef nonnull align 8 dereferenceable(532) %buf) #0 comdat personality ptr @__gxx_personality_v0 {
entry:
  %result.ptr = alloca ptr, align 8
  %buf.addr = alloca ptr, align 8
  %ref.tmp = alloca %"class.std::allocator.7", align 1
  %exn.slot = alloca ptr, align 8
  %ehselector.slot = alloca i32, align 4
  store ptr %agg.result, ptr %result.ptr, align 8
  store ptr %buf, ptr %buf.addr, align 8, !tbaa !164
  %0 = load ptr, ptr %buf.addr, align 8, !tbaa !164
  %call = call noundef ptr @_ZNK3fmt2v68internal6bufferIcE4dataEv(ptr noundef nonnull align 8 dereferenceable(32) %0) #5
  %1 = load ptr, ptr %buf.addr, align 8, !tbaa !164
  %call1 = call noundef i64 @_ZNK3fmt2v68internal6bufferIcE4sizeEv(ptr noundef nonnull align 8 dereferenceable(32) %1) #5
  call void @llvm.lifetime.start.p0(i64 1, ptr %ref.tmp) #5
  call void @_ZNSaIcEC2Ev(ptr noundef nonnull align 1 dereferenceable(1) %ref.tmp) #5
  invoke void @_ZNSt7__cxx1112basic_stringIcSt11char_traitsIcESaIcEEC2EPKcmRKS3_(ptr noundef nonnull align 8 dereferenceable(32) %agg.result, ptr noundef %call, i64 noundef %call1, ptr noundef nonnull align 1 dereferenceable(1) %ref.tmp)
          to label %invoke.cont unwind label %lpad

invoke.cont:                                      ; preds = %entry
  call void @_ZNSt15__new_allocatorIcED2Ev(ptr noundef nonnull align 1 dereferenceable(1) %ref.tmp) #5
  call void @llvm.lifetime.end.p0(i64 1, ptr %ref.tmp) #5
  ret void

lpad:                                             ; preds = %entry
  %2 = landingpad { ptr, i32 }
          cleanup
  %3 = extractvalue { ptr, i32 } %2, 0
  store ptr %3, ptr %exn.slot, align 8
  %4 = extractvalue { ptr, i32 } %2, 1
  store i32 %4, ptr %ehselector.slot, align 4
  call void @_ZNSt15__new_allocatorIcED2Ev(ptr noundef nonnull align 1 dereferenceable(1) %ref.tmp) #5
  call void @llvm.lifetime.end.p0(i64 1, ptr %ref.tmp) #5
  br label %eh.resume

eh.resume:                                        ; preds = %lpad
  %exn = load ptr, ptr %exn.slot, align 8
  %sel = load i32, ptr %ehselector.slot, align 4
  %lpad.val = insertvalue { ptr, i32 } poison, ptr %exn, 0
  %lpad.val2 = insertvalue { ptr, i32 } %lpad.val, i32 %sel, 1
  resume { ptr, i32 } %lpad.val2
}

; Function Attrs: mustprogress nounwind uwtable
define linkonce_odr void @_ZN3fmt2v619basic_memory_bufferIcLm500ESaIcEED2Ev(ptr noundef nonnull align 8 dereferenceable(532) %this) unnamed_addr #6 comdat align 2 personality ptr @__gxx_personality_v0 {
entry:
  %this.addr = alloca ptr, align 8
  store ptr %this, ptr %this.addr, align 8, !tbaa !164
  %this1 = load ptr, ptr %this.addr, align 8
  store ptr getelementptr inbounds inrange(-16, 24) ({ [5 x ptr] }, ptr @_ZTVN3fmt2v619basic_memory_bufferIcLm500ESaIcEEE, i32 0, i32 0, i32 2), ptr %this1, align 8, !tbaa !45
  invoke void @_ZN3fmt2v619basic_memory_bufferIcLm500ESaIcEE10deallocateEv(ptr noundef nonnull align 8 dereferenceable(532) %this1)
          to label %invoke.cont unwind label %terminate.lpad

invoke.cont:                                      ; preds = %entry
  call void @_ZN3fmt2v68internal6bufferIcED2Ev(ptr noundef nonnull align 8 dereferenceable(32) %this1) #5
  call void @_ZNSt15__new_allocatorIcED2Ev(ptr noundef nonnull align 1 dereferenceable(1) %this1) #5
  ret void

terminate.lpad:                                   ; preds = %entry
  %0 = landingpad { ptr, i32 }
          catch ptr null
  %1 = extractvalue { ptr, i32 } %0, 0
  call void @__clang_call_terminate(ptr %1) #23
  unreachable
}

; Function Attrs: mustprogress nounwind uwtable
define linkonce_odr void @_ZN3fmt2v68internal6bufferIcEC2EPcmm(ptr noundef nonnull align 8 dereferenceable(32) %this, ptr noundef %p, i64 noundef %sz, i64 noundef %cap) unnamed_addr #6 comdat align 2 {
entry:
  %this.addr = alloca ptr, align 8
  %p.addr = alloca ptr, align 8
  %sz.addr = alloca i64, align 8
  %cap.addr = alloca i64, align 8
  store ptr %this, ptr %this.addr, align 8, !tbaa !166
  store ptr %p, ptr %p.addr, align 8, !tbaa !61
  store i64 %sz, ptr %sz.addr, align 8, !tbaa !51
  store i64 %cap, ptr %cap.addr, align 8, !tbaa !51
  %this1 = load ptr, ptr %this.addr, align 8
  store ptr getelementptr inbounds inrange(-16, 24) ({ [5 x ptr] }, ptr @_ZTVN3fmt2v68internal6bufferIcEE, i32 0, i32 0, i32 2), ptr %this1, align 8, !tbaa !45
  %ptr_ = getelementptr inbounds nuw %"class.fmt::v6::internal::buffer", ptr %this1, i32 0, i32 1
  %0 = load ptr, ptr %p.addr, align 8, !tbaa !61
  store ptr %0, ptr %ptr_, align 8, !tbaa !168
  %size_ = getelementptr inbounds nuw %"class.fmt::v6::internal::buffer", ptr %this1, i32 0, i32 2
  %1 = load i64, ptr %sz.addr, align 8, !tbaa !51
  store i64 %1, ptr %size_, align 8, !tbaa !170
  %capacity_ = getelementptr inbounds nuw %"class.fmt::v6::internal::buffer", ptr %this1, i32 0, i32 3
  %2 = load i64, ptr %cap.addr, align 8, !tbaa !51
  store i64 %2, ptr %capacity_, align 8, !tbaa !171
  ret void
}

; Function Attrs: mustprogress nounwind uwtable
define linkonce_odr void @_ZN3fmt2v68internal6bufferIcE3setEPcm(ptr noundef nonnull align 8 dereferenceable(32) %this, ptr noundef %buf_data, i64 noundef %buf_capacity) #6 comdat align 2 {
entry:
  %this.addr = alloca ptr, align 8
  %buf_data.addr = alloca ptr, align 8
  %buf_capacity.addr = alloca i64, align 8
  store ptr %this, ptr %this.addr, align 8, !tbaa !166
  store ptr %buf_data, ptr %buf_data.addr, align 8, !tbaa !61
  store i64 %buf_capacity, ptr %buf_capacity.addr, align 8, !tbaa !51
  %this1 = load ptr, ptr %this.addr, align 8
  %0 = load ptr, ptr %buf_data.addr, align 8, !tbaa !61
  %ptr_ = getelementptr inbounds nuw %"class.fmt::v6::internal::buffer", ptr %this1, i32 0, i32 1
  store ptr %0, ptr %ptr_, align 8, !tbaa !168
  %1 = load i64, ptr %buf_capacity.addr, align 8, !tbaa !51
  %capacity_ = getelementptr inbounds nuw %"class.fmt::v6::internal::buffer", ptr %this1, i32 0, i32 3
  store i64 %1, ptr %capacity_, align 8, !tbaa !171
  ret void
}

; Function Attrs: mustprogress uwtable
define linkonce_odr void @_ZN3fmt2v619basic_memory_bufferIcLm500ESaIcEE4growEm(ptr noundef nonnull align 8 dereferenceable(532) %this, i64 noundef %size) unnamed_addr #0 comdat align 2 {
entry:
  %this.addr = alloca ptr, align 8
  %size.addr = alloca i64, align 8
  %old_capacity = alloca i64, align 8
  %new_capacity = alloca i64, align 8
  %old_data = alloca ptr, align 8
  %new_data = alloca ptr, align 8
  store ptr %this, ptr %this.addr, align 8, !tbaa !164
  store i64 %size, ptr %size.addr, align 8, !tbaa !51
  %this1 = load ptr, ptr %this.addr, align 8
  call void @llvm.lifetime.start.p0(i64 8, ptr %old_capacity) #5
  %call = call noundef i64 @_ZNK3fmt2v68internal6bufferIcE8capacityEv(ptr noundef nonnull align 8 dereferenceable(32) %this1) #5
  store i64 %call, ptr %old_capacity, align 8, !tbaa !51
  call void @llvm.lifetime.start.p0(i64 8, ptr %new_capacity) #5
  %0 = load i64, ptr %old_capacity, align 8, !tbaa !51
  %1 = load i64, ptr %old_capacity, align 8, !tbaa !51
  %div = udiv i64 %1, 2
  %add = add i64 %0, %div
  store i64 %add, ptr %new_capacity, align 8, !tbaa !51
  %2 = load i64, ptr %size.addr, align 8, !tbaa !51
  %3 = load i64, ptr %new_capacity, align 8, !tbaa !51
  %cmp = icmp ugt i64 %2, %3
  br i1 %cmp, label %if.then, label %if.end

if.then:                                          ; preds = %entry
  %4 = load i64, ptr %size.addr, align 8, !tbaa !51
  store i64 %4, ptr %new_capacity, align 8, !tbaa !51
  br label %if.end

if.end:                                           ; preds = %if.then, %entry
  call void @llvm.lifetime.start.p0(i64 8, ptr %old_data) #5
  %call2 = call noundef ptr @_ZN3fmt2v68internal6bufferIcE4dataEv(ptr noundef nonnull align 8 dereferenceable(32) %this1) #5
  store ptr %call2, ptr %old_data, align 8, !tbaa !61
  call void @llvm.lifetime.start.p0(i64 8, ptr %new_data) #5
  %5 = load i64, ptr %new_capacity, align 8, !tbaa !51
  %call3 = call noundef ptr @_ZNSt16allocator_traitsISaIcEE8allocateERS0_m(ptr noundef nonnull align 1 dereferenceable(1) %this1, i64 noundef %5)
  store ptr %call3, ptr %new_data, align 8, !tbaa !61
  %6 = load ptr, ptr %old_data, align 8, !tbaa !61
  %7 = load ptr, ptr %old_data, align 8, !tbaa !61
  %call4 = call noundef i64 @_ZNK3fmt2v68internal6bufferIcE4sizeEv(ptr noundef nonnull align 8 dereferenceable(32) %this1) #5
  %add.ptr = getelementptr inbounds nuw i8, ptr %7, i64 %call4
  %8 = load ptr, ptr %new_data, align 8, !tbaa !61
  %9 = load i64, ptr %new_capacity, align 8, !tbaa !51
  %call5 = call noundef ptr @_ZN3fmt2v68internal12make_checkedIcEEPT_S4_m(ptr noundef %8, i64 noundef %9)
  %call6 = call noundef ptr @_ZSt18uninitialized_copyIPcS0_ET0_T_S2_S1_(ptr noundef %6, ptr noundef %add.ptr, ptr noundef %call5)
  %10 = load ptr, ptr %new_data, align 8, !tbaa !61
  %11 = load i64, ptr %new_capacity, align 8, !tbaa !51
  call void @_ZN3fmt2v68internal6bufferIcE3setEPcm(ptr noundef nonnull align 8 dereferenceable(32) %this1, ptr noundef %10, i64 noundef %11) #5
  %12 = load ptr, ptr %old_data, align 8, !tbaa !61
  %store_ = getelementptr inbounds nuw %"class.fmt::v6::basic_memory_buffer", ptr %this1, i32 0, i32 1
  %arraydecay = getelementptr inbounds [500 x i8], ptr %store_, i64 0, i64 0
  %cmp7 = icmp ne ptr %12, %arraydecay
  br i1 %cmp7, label %if.then8, label %if.end9

if.then8:                                         ; preds = %if.end
  %13 = load ptr, ptr %old_data, align 8, !tbaa !61
  %14 = load i64, ptr %old_capacity, align 8, !tbaa !51
  call void @_ZNSt15__new_allocatorIcE10deallocateEPcm(ptr noundef nonnull align 1 dereferenceable(1) %this1, ptr noundef %13, i64 noundef %14)
  br label %if.end9

if.end9:                                          ; preds = %if.then8, %if.end
  call void @llvm.lifetime.end.p0(i64 8, ptr %new_data) #5
  call void @llvm.lifetime.end.p0(i64 8, ptr %old_data) #5
  call void @llvm.lifetime.end.p0(i64 8, ptr %new_capacity) #5
  call void @llvm.lifetime.end.p0(i64 8, ptr %old_capacity) #5
  ret void
}

; Function Attrs: mustprogress nounwind uwtable
define linkonce_odr void @_ZN3fmt2v619basic_memory_bufferIcLm500ESaIcEED0Ev(ptr noundef nonnull align 8 dereferenceable(532) %this) unnamed_addr #6 comdat align 2 {
entry:
  %this.addr = alloca ptr, align 8
  store ptr %this, ptr %this.addr, align 8, !tbaa !164
  %this1 = load ptr, ptr %this.addr, align 8
  call void @_ZN3fmt2v619basic_memory_bufferIcLm500ESaIcEED2Ev(ptr noundef nonnull align 8 dereferenceable(532) %this1) #5
  call void @_ZdlPvm(ptr noundef %this1, i64 noundef 536) #21
  ret void
}

; Function Attrs: mustprogress nounwind uwtable
define linkonce_odr void @_ZN3fmt2v68internal6bufferIcED2Ev(ptr noundef nonnull align 8 dereferenceable(32) %this) unnamed_addr #6 comdat align 2 {
entry:
  %this.addr = alloca ptr, align 8
  store ptr %this, ptr %this.addr, align 8, !tbaa !166
  %this1 = load ptr, ptr %this.addr, align 8
  ret void
}

; Function Attrs: mustprogress nounwind uwtable
define linkonce_odr void @_ZN3fmt2v68internal6bufferIcED0Ev(ptr noundef nonnull align 8 dereferenceable(32) %this) unnamed_addr #6 comdat align 2 {
entry:
  %this.addr = alloca ptr, align 8
  store ptr %this, ptr %this.addr, align 8, !tbaa !166
  %this1 = load ptr, ptr %this.addr, align 8
  call void @llvm.trap() #23
  unreachable
}

; Function Attrs: mustprogress nounwind uwtable
define linkonce_odr noundef i64 @_ZNK3fmt2v68internal6bufferIcE8capacityEv(ptr noundef nonnull align 8 dereferenceable(32) %this) #6 comdat align 2 {
entry:
  %this.addr = alloca ptr, align 8
  store ptr %this, ptr %this.addr, align 8, !tbaa !166
  %this1 = load ptr, ptr %this.addr, align 8
  %capacity_ = getelementptr inbounds nuw %"class.fmt::v6::internal::buffer", ptr %this1, i32 0, i32 3
  %0 = load i64, ptr %capacity_, align 8, !tbaa !171
  ret i64 %0
}

; Function Attrs: mustprogress nounwind uwtable
define linkonce_odr noundef ptr @_ZN3fmt2v68internal6bufferIcE4dataEv(ptr noundef nonnull align 8 dereferenceable(32) %this) #6 comdat align 2 {
entry:
  %this.addr = alloca ptr, align 8
  store ptr %this, ptr %this.addr, align 8, !tbaa !166
  %this1 = load ptr, ptr %this.addr, align 8
  %ptr_ = getelementptr inbounds nuw %"class.fmt::v6::internal::buffer", ptr %this1, i32 0, i32 1
  %0 = load ptr, ptr %ptr_, align 8, !tbaa !168
  ret ptr %0
}

; Function Attrs: mustprogress uwtable
define linkonce_odr noundef ptr @_ZNSt16allocator_traitsISaIcEE8allocateERS0_m(ptr noundef nonnull align 1 dereferenceable(1) %__a, i64 noundef %__n) #0 comdat align 2 {
entry:
  %__a.addr = alloca ptr, align 8
  %__n.addr = alloca i64, align 8
  store ptr %__a, ptr %__a.addr, align 8, !tbaa !134
  store i64 %__n, ptr %__n.addr, align 8, !tbaa !51
  %0 = load ptr, ptr %__a.addr, align 8, !tbaa !134
  %1 = load i64, ptr %__n.addr, align 8, !tbaa !51
  %call = call noundef ptr @_ZNSt15__new_allocatorIcE8allocateEmPKv(ptr noundef nonnull align 1 dereferenceable(1) %0, i64 noundef %1, ptr noundef null)
  ret ptr %call
}

; Function Attrs: inlinehint mustprogress uwtable
define linkonce_odr noundef ptr @_ZSt18uninitialized_copyIPcS0_ET0_T_S2_S1_(ptr noundef %__first, ptr noundef %__last, ptr noundef %__result) #8 comdat {
entry:
  %__first.addr = alloca ptr, align 8
  %__last.addr = alloca ptr, align 8
  %__result.addr = alloca ptr, align 8
  %__can_memmove = alloca i8, align 1
  %__assignable = alloca i8, align 1
  store ptr %__first, ptr %__first.addr, align 8, !tbaa !61
  store ptr %__last, ptr %__last.addr, align 8, !tbaa !61
  store ptr %__result, ptr %__result.addr, align 8, !tbaa !61
  call void @llvm.lifetime.start.p0(i64 1, ptr %__can_memmove) #5
  store i8 1, ptr %__can_memmove, align 1, !tbaa !102
  call void @llvm.lifetime.start.p0(i64 1, ptr %__assignable) #5
  store i8 1, ptr %__assignable, align 1, !tbaa !102
  %0 = load ptr, ptr %__first.addr, align 8, !tbaa !61
  %1 = load ptr, ptr %__last.addr, align 8, !tbaa !61
  %2 = load ptr, ptr %__result.addr, align 8, !tbaa !61
  %call = call noundef ptr @_ZNSt20__uninitialized_copyILb1EE13__uninit_copyIPcS2_EET0_T_S4_S3_(ptr noundef %0, ptr noundef %1, ptr noundef %2)
  call void @llvm.lifetime.end.p0(i64 1, ptr %__assignable) #5
  call void @llvm.lifetime.end.p0(i64 1, ptr %__can_memmove) #5
  ret ptr %call
}

; Function Attrs: mustprogress nounwind uwtable
define linkonce_odr noundef i64 @_ZNK3fmt2v68internal6bufferIcE4sizeEv(ptr noundef nonnull align 8 dereferenceable(32) %this) #6 comdat align 2 {
entry:
  %this.addr = alloca ptr, align 8
  store ptr %this, ptr %this.addr, align 8, !tbaa !166
  %this1 = load ptr, ptr %this.addr, align 8
  %size_ = getelementptr inbounds nuw %"class.fmt::v6::internal::buffer", ptr %this1, i32 0, i32 2
  %0 = load i64, ptr %size_, align 8, !tbaa !170
  ret i64 %0
}

; Function Attrs: inlinehint mustprogress nounwind uwtable
define linkonce_odr noundef ptr @_ZN3fmt2v68internal12make_checkedIcEEPT_S4_m(ptr noundef %p, i64 noundef %0) #1 comdat {
entry:
  %p.addr = alloca ptr, align 8
  %.addr = alloca i64, align 8
  store ptr %p, ptr %p.addr, align 8, !tbaa !61
  store i64 %0, ptr %.addr, align 8, !tbaa !51
  %1 = load ptr, ptr %p.addr, align 8, !tbaa !61
  ret ptr %1
}

; Function Attrs: mustprogress uwtable
define linkonce_odr noundef ptr @_ZNSt15__new_allocatorIcE8allocateEmPKv(ptr noundef nonnull align 1 dereferenceable(1) %this, i64 noundef %__n, ptr noundef %0) #0 comdat align 2 {
entry:
  %this.addr = alloca ptr, align 8
  %__n.addr = alloca i64, align 8
  %.addr = alloca ptr, align 8
  store ptr %this, ptr %this.addr, align 8, !tbaa !141
  store i64 %__n, ptr %__n.addr, align 8, !tbaa !51
  store ptr %0, ptr %.addr, align 8, !tbaa !172
  %this1 = load ptr, ptr %this.addr, align 8
  %1 = load i64, ptr %__n.addr, align 8, !tbaa !51
  %call = call noundef i64 @_ZNKSt15__new_allocatorIcE11_M_max_sizeEv(ptr noundef nonnull align 1 dereferenceable(1) %this1) #5
  %cmp = icmp ugt i64 %1, %call
  %conv = zext i1 %cmp to i64
  %expval = call i64 @llvm.expect.i64(i64 %conv, i64 0)
  %tobool = icmp ne i64 %expval, 0
  br i1 %tobool, label %if.then, label %if.end4

if.then:                                          ; preds = %entry
  %2 = load i64, ptr %__n.addr, align 8, !tbaa !51
  %cmp2 = icmp ugt i64 %2, -1
  br i1 %cmp2, label %if.then3, label %if.end

if.then3:                                         ; preds = %if.then
  call void @_ZSt28__throw_bad_array_new_lengthv() #24
  unreachable

if.end:                                           ; preds = %if.then
  call void @_ZSt17__throw_bad_allocv() #24
  unreachable

if.end4:                                          ; preds = %entry
  %3 = load i64, ptr %__n.addr, align 8, !tbaa !51
  %mul = mul i64 %3, 1
  %call5 = call noalias noundef nonnull ptr @_Znwm(i64 noundef %mul) #22
  ret ptr %call5
}

; Function Attrs: mustprogress nounwind uwtable
define linkonce_odr noundef i64 @_ZNKSt15__new_allocatorIcE11_M_max_sizeEv(ptr noundef nonnull align 1 dereferenceable(1) %this) #6 comdat align 2 {
entry:
  %this.addr = alloca ptr, align 8
  store ptr %this, ptr %this.addr, align 8, !tbaa !141
  %this1 = load ptr, ptr %this.addr, align 8
  ret i64 9223372036854775807
}

; Function Attrs: noreturn
declare void @_ZSt28__throw_bad_array_new_lengthv() #15

; Function Attrs: noreturn
declare void @_ZSt17__throw_bad_allocv() #15

; Function Attrs: mustprogress uwtable
define linkonce_odr noundef ptr @_ZNSt20__uninitialized_copyILb1EE13__uninit_copyIPcS2_EET0_T_S4_S3_(ptr noundef %__first, ptr noundef %__last, ptr noundef %__result) #0 comdat align 2 {
entry:
  %__first.addr = alloca ptr, align 8
  %__last.addr = alloca ptr, align 8
  %__result.addr = alloca ptr, align 8
  store ptr %__first, ptr %__first.addr, align 8, !tbaa !61
  store ptr %__last, ptr %__last.addr, align 8, !tbaa !61
  store ptr %__result, ptr %__result.addr, align 8, !tbaa !61
  %0 = load ptr, ptr %__first.addr, align 8, !tbaa !61
  %1 = load ptr, ptr %__last.addr, align 8, !tbaa !61
  %2 = load ptr, ptr %__result.addr, align 8, !tbaa !61
  %call = call noundef ptr @_ZSt4copyIPcS0_ET0_T_S2_S1_(ptr noundef %0, ptr noundef %1, ptr noundef %2)
  ret ptr %call
}

; Function Attrs: inlinehint mustprogress uwtable
define linkonce_odr noundef ptr @_ZSt4copyIPcS0_ET0_T_S2_S1_(ptr noundef %__first, ptr noundef %__last, ptr noundef %__result) #8 comdat {
entry:
  %__first.addr = alloca ptr, align 8
  %__last.addr = alloca ptr, align 8
  %__result.addr = alloca ptr, align 8
  store ptr %__first, ptr %__first.addr, align 8, !tbaa !61
  store ptr %__last, ptr %__last.addr, align 8, !tbaa !61
  store ptr %__result, ptr %__result.addr, align 8, !tbaa !61
  %0 = load ptr, ptr %__first.addr, align 8, !tbaa !61
  %call = call noundef ptr @_ZSt12__miter_baseIPcET_S1_(ptr noundef %0)
  %1 = load ptr, ptr %__last.addr, align 8, !tbaa !61
  %call1 = call noundef ptr @_ZSt12__miter_baseIPcET_S1_(ptr noundef %1)
  %2 = load ptr, ptr %__result.addr, align 8, !tbaa !61
  %call2 = call noundef ptr @_ZSt13__copy_move_aILb0EPcS0_ET1_T0_S2_S1_(ptr noundef %call, ptr noundef %call1, ptr noundef %2)
  ret ptr %call2
}

; Function Attrs: inlinehint mustprogress uwtable
define linkonce_odr noundef ptr @_ZSt13__copy_move_aILb0EPcS0_ET1_T0_S2_S1_(ptr noundef %__first, ptr noundef %__last, ptr noundef %__result) #8 comdat {
entry:
  %__first.addr = alloca ptr, align 8
  %__last.addr = alloca ptr, align 8
  %__result.addr = alloca ptr, align 8
  store ptr %__first, ptr %__first.addr, align 8, !tbaa !61
  store ptr %__last, ptr %__last.addr, align 8, !tbaa !61
  store ptr %__result, ptr %__result.addr, align 8, !tbaa !61
  %0 = load ptr, ptr %__first.addr, align 8, !tbaa !61
  %call = call noundef ptr @_ZSt12__niter_baseIPcET_S1_(ptr noundef %0) #5
  %1 = load ptr, ptr %__last.addr, align 8, !tbaa !61
  %call1 = call noundef ptr @_ZSt12__niter_baseIPcET_S1_(ptr noundef %1) #5
  %2 = load ptr, ptr %__result.addr, align 8, !tbaa !61
  %call2 = call noundef ptr @_ZSt12__niter_baseIPcET_S1_(ptr noundef %2) #5
  %call3 = call noundef ptr @_ZSt14__copy_move_a1ILb0EPcS0_ET1_T0_S2_S1_(ptr noundef %call, ptr noundef %call1, ptr noundef %call2)
  %call4 = call noundef ptr @_ZSt12__niter_wrapIPcET_RKS1_S1_(ptr noundef nonnull align 8 dereferenceable(8) %__result.addr, ptr noundef %call3)
  ret ptr %call4
}

; Function Attrs: inlinehint mustprogress nounwind uwtable
define linkonce_odr noundef ptr @_ZSt12__miter_baseIPcET_S1_(ptr noundef %__it) #1 comdat {
entry:
  %__it.addr = alloca ptr, align 8
  store ptr %__it, ptr %__it.addr, align 8, !tbaa !61
  %0 = load ptr, ptr %__it.addr, align 8, !tbaa !61
  ret ptr %0
}

; Function Attrs: inlinehint mustprogress nounwind uwtable
define linkonce_odr noundef ptr @_ZSt12__niter_wrapIPcET_RKS1_S1_(ptr noundef nonnull align 8 dereferenceable(8) %0, ptr noundef %__res) #1 comdat {
entry:
  %.addr = alloca ptr, align 8
  %__res.addr = alloca ptr, align 8
  store ptr %0, ptr %.addr, align 8, !tbaa !150
  store ptr %__res, ptr %__res.addr, align 8, !tbaa !61
  %1 = load ptr, ptr %__res.addr, align 8, !tbaa !61
  ret ptr %1
}

; Function Attrs: inlinehint mustprogress uwtable
define linkonce_odr noundef ptr @_ZSt14__copy_move_a1ILb0EPcS0_ET1_T0_S2_S1_(ptr noundef %__first, ptr noundef %__last, ptr noundef %__result) #8 comdat {
entry:
  %__first.addr = alloca ptr, align 8
  %__last.addr = alloca ptr, align 8
  %__result.addr = alloca ptr, align 8
  store ptr %__first, ptr %__first.addr, align 8, !tbaa !61
  store ptr %__last, ptr %__last.addr, align 8, !tbaa !61
  store ptr %__result, ptr %__result.addr, align 8, !tbaa !61
  %0 = load ptr, ptr %__first.addr, align 8, !tbaa !61
  %1 = load ptr, ptr %__last.addr, align 8, !tbaa !61
  %2 = load ptr, ptr %__result.addr, align 8, !tbaa !61
  %call = call noundef ptr @_ZSt14__copy_move_a2ILb0EPcS0_ET1_T0_S2_S1_(ptr noundef %0, ptr noundef %1, ptr noundef %2)
  ret ptr %call
}

; Function Attrs: inlinehint mustprogress nounwind uwtable
define linkonce_odr noundef ptr @_ZSt12__niter_baseIPcET_S1_(ptr noundef %__it) #1 comdat {
entry:
  %__it.addr = alloca ptr, align 8
  store ptr %__it, ptr %__it.addr, align 8, !tbaa !61
  %0 = load ptr, ptr %__it.addr, align 8, !tbaa !61
  ret ptr %0
}

; Function Attrs: inlinehint mustprogress uwtable
define linkonce_odr noundef ptr @_ZSt14__copy_move_a2ILb0EPcS0_ET1_T0_S2_S1_(ptr noundef %__first, ptr noundef %__last, ptr noundef %__result) #8 comdat {
entry:
  %__first.addr = alloca ptr, align 8
  %__last.addr = alloca ptr, align 8
  %__result.addr = alloca ptr, align 8
  store ptr %__first, ptr %__first.addr, align 8, !tbaa !61
  store ptr %__last, ptr %__last.addr, align 8, !tbaa !61
  store ptr %__result, ptr %__result.addr, align 8, !tbaa !61
  %0 = load ptr, ptr %__first.addr, align 8, !tbaa !61
  %1 = load ptr, ptr %__last.addr, align 8, !tbaa !61
  %2 = load ptr, ptr %__result.addr, align 8, !tbaa !61
  %call = call noundef ptr @_ZNSt11__copy_moveILb0ELb1ESt26random_access_iterator_tagE8__copy_mIcEEPT_PKS3_S6_S4_(ptr noundef %0, ptr noundef %1, ptr noundef %2)
  ret ptr %call
}

; Function Attrs: mustprogress nounwind uwtable
define linkonce_odr noundef ptr @_ZNSt11__copy_moveILb0ELb1ESt26random_access_iterator_tagE8__copy_mIcEEPT_PKS3_S6_S4_(ptr noundef %__first, ptr noundef %__last, ptr noundef %__result) #6 comdat align 2 {
entry:
  %__first.addr = alloca ptr, align 8
  %__last.addr = alloca ptr, align 8
  %__result.addr = alloca ptr, align 8
  %_Num = alloca i64, align 8
  store ptr %__first, ptr %__first.addr, align 8, !tbaa !61
  store ptr %__last, ptr %__last.addr, align 8, !tbaa !61
  store ptr %__result, ptr %__result.addr, align 8, !tbaa !61
  call void @llvm.lifetime.start.p0(i64 8, ptr %_Num) #5
  %0 = load ptr, ptr %__last.addr, align 8, !tbaa !61
  %1 = load ptr, ptr %__first.addr, align 8, !tbaa !61
  %sub.ptr.lhs.cast = ptrtoint ptr %0 to i64
  %sub.ptr.rhs.cast = ptrtoint ptr %1 to i64
  %sub.ptr.sub = sub i64 %sub.ptr.lhs.cast, %sub.ptr.rhs.cast
  store i64 %sub.ptr.sub, ptr %_Num, align 8, !tbaa !51
  %2 = load i64, ptr %_Num, align 8, !tbaa !51
  %tobool = icmp ne i64 %2, 0
  br i1 %tobool, label %if.then, label %if.end

if.then:                                          ; preds = %entry
  %3 = load ptr, ptr %__result.addr, align 8, !tbaa !61
  %4 = load ptr, ptr %__first.addr, align 8, !tbaa !61
  %5 = load i64, ptr %_Num, align 8, !tbaa !51
  %mul = mul i64 1, %5
  call void @llvm.memmove.p0.p0.i64(ptr align 1 %3, ptr align 1 %4, i64 %mul, i1 false)
  br label %if.end

if.end:                                           ; preds = %if.then, %entry
  %6 = load ptr, ptr %__result.addr, align 8, !tbaa !61
  %7 = load i64, ptr %_Num, align 8, !tbaa !51
  %add.ptr = getelementptr inbounds i8, ptr %6, i64 %7
  call void @llvm.lifetime.end.p0(i64 8, ptr %_Num) #5
  ret ptr %add.ptr
}

; Function Attrs: nocallback nofree nounwind willreturn memory(argmem: readwrite)
declare void @llvm.memmove.p0.p0.i64(ptr writeonly captures(none), ptr readonly captures(none), i64, i1 immarg) #16

; Function Attrs: mustprogress uwtable
define linkonce_odr ptr @_ZN3fmt2v610vformat_toINS0_13arg_formatterINS0_12buffer_rangeIcEEEEcNS0_20basic_format_contextISt20back_insert_iteratorINS0_8internal6bufferIcEEEcEEEENT1_8iteratorENT_5rangeENS0_17basic_string_viewIT0_EENS0_17basic_format_argsISD_EENS8_10locale_refE(ptr %out.coerce, ptr %format_str.coerce0, i64 %format_str.coerce1, i64 %args.coerce0, ptr %args.coerce1, ptr %loc.coerce) #0 comdat personality ptr @__gxx_personality_v0 {
entry:
  %retval = alloca %"class.std::back_insert_iterator", align 8
  %out = alloca %"class.fmt::v6::buffer_range", align 8
  %format_str = alloca %"class.fmt::v6::basic_string_view", align 8
  %args = alloca %"class.fmt::v6::basic_format_args", align 8
  %loc = alloca %"class.fmt::v6::internal::locale_ref", align 8
  %h = alloca %"struct.fmt::v6::format_handler", align 16
  %agg.tmp = alloca %"class.fmt::v6::buffer_range", align 8
  %agg.tmp4 = alloca %"class.fmt::v6::basic_string_view", align 8
  %agg.tmp5 = alloca %"class.fmt::v6::basic_format_args", align 8
  %agg.tmp6 = alloca %"class.fmt::v6::internal::locale_ref", align 8
  %agg.tmp11 = alloca %"class.fmt::v6::basic_string_view", align 8
  %exn.slot = alloca ptr, align 8
  %ehselector.slot = alloca i32, align 4
  %coerce.dive = getelementptr inbounds nuw %"class.fmt::v6::buffer_range", ptr %out, i32 0, i32 0
  %coerce.dive1 = getelementptr inbounds nuw %"class.fmt::v6::internal::output_range", ptr %coerce.dive, i32 0, i32 0
  %coerce.dive2 = getelementptr inbounds nuw %"class.std::back_insert_iterator", ptr %coerce.dive1, i32 0, i32 0
  store ptr %out.coerce, ptr %coerce.dive2, align 8
  %0 = getelementptr inbounds nuw { ptr, i64 }, ptr %format_str, i32 0, i32 0
  store ptr %format_str.coerce0, ptr %0, align 8
  %1 = getelementptr inbounds nuw { ptr, i64 }, ptr %format_str, i32 0, i32 1
  store i64 %format_str.coerce1, ptr %1, align 8
  %2 = getelementptr inbounds nuw { i64, ptr }, ptr %args, i32 0, i32 0
  store i64 %args.coerce0, ptr %2, align 8
  %3 = getelementptr inbounds nuw { i64, ptr }, ptr %args, i32 0, i32 1
  store ptr %args.coerce1, ptr %3, align 8
  %coerce.dive3 = getelementptr inbounds nuw %"class.fmt::v6::internal::locale_ref", ptr %loc, i32 0, i32 0
  store ptr %loc.coerce, ptr %coerce.dive3, align 8
  call void @llvm.lifetime.start.p0(i64 112, ptr %h) #5
  call void @llvm.memcpy.p0.p0.i64(ptr align 8 %agg.tmp, ptr align 8 %out, i64 8, i1 false)
  call void @llvm.memcpy.p0.p0.i64(ptr align 8 %agg.tmp4, ptr align 8 %format_str, i64 16, i1 false), !tbaa.struct !154
  call void @llvm.memcpy.p0.p0.i64(ptr align 8 %agg.tmp5, ptr align 8 %args, i64 16, i1 false), !tbaa.struct !155
  call void @llvm.memcpy.p0.p0.i64(ptr align 8 %agg.tmp6, ptr align 8 %loc, i64 8, i1 false), !tbaa.struct !173
  %coerce.dive7 = getelementptr inbounds nuw %"class.fmt::v6::buffer_range", ptr %agg.tmp, i32 0, i32 0
  %coerce.dive8 = getelementptr inbounds nuw %"class.fmt::v6::internal::output_range", ptr %coerce.dive7, i32 0, i32 0
  %coerce.dive9 = getelementptr inbounds nuw %"class.std::back_insert_iterator", ptr %coerce.dive8, i32 0, i32 0
  %4 = load ptr, ptr %coerce.dive9, align 8
  %5 = getelementptr inbounds nuw { ptr, i64 }, ptr %agg.tmp4, i32 0, i32 0
  %6 = load ptr, ptr %5, align 8
  %7 = getelementptr inbounds nuw { ptr, i64 }, ptr %agg.tmp4, i32 0, i32 1
  %8 = load i64, ptr %7, align 8
  %9 = getelementptr inbounds nuw { i64, ptr }, ptr %agg.tmp5, i32 0, i32 0
  %10 = load i64, ptr %9, align 8
  %11 = getelementptr inbounds nuw { i64, ptr }, ptr %agg.tmp5, i32 0, i32 1
  %12 = load ptr, ptr %11, align 8
  %coerce.dive10 = getelementptr inbounds nuw %"class.fmt::v6::internal::locale_ref", ptr %agg.tmp6, i32 0, i32 0
  %13 = load ptr, ptr %coerce.dive10, align 8
  %coerce.val.pi = ptrtoint ptr %13 to i64
  call void @_ZN3fmt2v614format_handlerINS0_13arg_formatterINS0_12buffer_rangeIcEEEEcNS0_20basic_format_contextISt20back_insert_iteratorINS0_8internal6bufferIcEEEcEEEC2ES4_NS0_17basic_string_viewIcEENS0_17basic_format_argsISC_EENS8_10locale_refE(ptr noundef nonnull align 16 dereferenceable(112) %h, ptr %4, ptr %6, i64 %8, i64 %10, ptr %12, i64 %coerce.val.pi)
  call void @llvm.memcpy.p0.p0.i64(ptr align 8 %agg.tmp11, ptr align 8 %format_str, i64 16, i1 false), !tbaa.struct !154
  %14 = getelementptr inbounds nuw { ptr, i64 }, ptr %agg.tmp11, i32 0, i32 0
  %15 = load ptr, ptr %14, align 8
  %16 = getelementptr inbounds nuw { ptr, i64 }, ptr %agg.tmp11, i32 0, i32 1
  %17 = load i64, ptr %16, align 8
  invoke void @_ZN3fmt2v68internal19parse_format_stringILb0EcRNS0_14format_handlerINS0_13arg_formatterINS0_12buffer_rangeIcEEEEcNS0_20basic_format_contextISt20back_insert_iteratorINS1_6bufferIcEEEcEEEEEEvNS0_17basic_string_viewIT0_EEOT1_(ptr %15, i64 %17, ptr noundef nonnull align 16 dereferenceable(112) %h)
          to label %invoke.cont unwind label %lpad

invoke.cont:                                      ; preds = %entry
  %context = getelementptr inbounds nuw %"struct.fmt::v6::format_handler", ptr %h, i32 0, i32 2
  %call = invoke ptr @_ZN3fmt2v620basic_format_contextISt20back_insert_iteratorINS0_8internal6bufferIcEEEcE3outEv(ptr noundef nonnull align 8 dereferenceable(48) %context)
          to label %invoke.cont12 unwind label %lpad

invoke.cont12:                                    ; preds = %invoke.cont
  %coerce.dive13 = getelementptr inbounds nuw %"class.std::back_insert_iterator", ptr %retval, i32 0, i32 0
  store ptr %call, ptr %coerce.dive13, align 8
  call void @_ZN3fmt2v614format_handlerINS0_13arg_formatterINS0_12buffer_rangeIcEEEEcNS0_20basic_format_contextISt20back_insert_iteratorINS0_8internal6bufferIcEEEcEEED2Ev(ptr noundef nonnull align 16 dereferenceable(112) %h) #5
  call void @llvm.lifetime.end.p0(i64 112, ptr %h) #5
  %coerce.dive14 = getelementptr inbounds nuw %"class.std::back_insert_iterator", ptr %retval, i32 0, i32 0
  %18 = load ptr, ptr %coerce.dive14, align 8
  ret ptr %18

lpad:                                             ; preds = %invoke.cont, %entry
  %19 = landingpad { ptr, i32 }
          cleanup
  %20 = extractvalue { ptr, i32 } %19, 0
  store ptr %20, ptr %exn.slot, align 8
  %21 = extractvalue { ptr, i32 } %19, 1
  store i32 %21, ptr %ehselector.slot, align 4
  call void @_ZN3fmt2v614format_handlerINS0_13arg_formatterINS0_12buffer_rangeIcEEEEcNS0_20basic_format_contextISt20back_insert_iteratorINS0_8internal6bufferIcEEEcEEED2Ev(ptr noundef nonnull align 16 dereferenceable(112) %h) #5
  call void @llvm.lifetime.end.p0(i64 112, ptr %h) #5
  br label %eh.resume

eh.resume:                                        ; preds = %lpad
  %exn = load ptr, ptr %exn.slot, align 8
  %sel = load i32, ptr %ehselector.slot, align 4
  %lpad.val = insertvalue { ptr, i32 } poison, ptr %exn, 0
  %lpad.val15 = insertvalue { ptr, i32 } %lpad.val, i32 %sel, 1
  resume { ptr, i32 } %lpad.val15
}

; Function Attrs: mustprogress uwtable
define linkonce_odr void @_ZN3fmt2v612buffer_rangeIcEC2ERNS0_8internal6bufferIcEE(ptr noundef nonnull align 8 dereferenceable(8) %this, ptr noundef nonnull align 8 dereferenceable(32) %buf) unnamed_addr #0 comdat align 2 {
entry:
  %this.addr = alloca ptr, align 8
  %buf.addr = alloca ptr, align 8
  %agg.tmp = alloca %"class.std::back_insert_iterator", align 8
  store ptr %this, ptr %this.addr, align 8, !tbaa !174
  store ptr %buf, ptr %buf.addr, align 8, !tbaa !166
  %this1 = load ptr, ptr %this.addr, align 8
  %0 = load ptr, ptr %buf.addr, align 8, !tbaa !166
  %call = call ptr @_ZSt13back_inserterIN3fmt2v68internal6bufferIcEEESt20back_insert_iteratorIT_ERS6_(ptr noundef nonnull align 8 dereferenceable(32) %0)
  %coerce.dive = getelementptr inbounds nuw %"class.std::back_insert_iterator", ptr %agg.tmp, i32 0, i32 0
  store ptr %call, ptr %coerce.dive, align 8
  %coerce.dive2 = getelementptr inbounds nuw %"class.std::back_insert_iterator", ptr %agg.tmp, i32 0, i32 0
  %1 = load ptr, ptr %coerce.dive2, align 8
  call void @_ZN3fmt2v68internal12output_rangeISt20back_insert_iteratorINS1_6bufferIcEEEcEC2ES6_(ptr noundef nonnull align 8 dereferenceable(8) %this1, ptr %1)
  ret void
}

; Function Attrs: inlinehint mustprogress nounwind uwtable
define linkonce_odr { ptr, i64 } @_ZN3fmt2v614to_string_viewIcEENS0_17basic_string_viewIT_EES4_(ptr %s.coerce0, i64 %s.coerce1) #1 comdat {
entry:
  %retval = alloca %"class.fmt::v6::basic_string_view", align 8
  %s = alloca %"class.fmt::v6::basic_string_view", align 8
  %0 = getelementptr inbounds nuw { ptr, i64 }, ptr %s, i32 0, i32 0
  store ptr %s.coerce0, ptr %0, align 8
  %1 = getelementptr inbounds nuw { ptr, i64 }, ptr %s, i32 0, i32 1
  store i64 %s.coerce1, ptr %1, align 8
  call void @llvm.memcpy.p0.p0.i64(ptr align 8 %retval, ptr align 8 %s, i64 16, i1 false), !tbaa.struct !154
  %2 = load { ptr, i64 }, ptr %retval, align 8
  ret { ptr, i64 } %2
}

; Function Attrs: mustprogress nounwind uwtable
define linkonce_odr void @_ZN3fmt2v68internal10locale_refC2Ev(ptr noundef nonnull align 8 dereferenceable(8) %this) unnamed_addr #6 comdat align 2 {
entry:
  %this.addr = alloca ptr, align 8
  store ptr %this, ptr %this.addr, align 8, !tbaa !176
  %this1 = load ptr, ptr %this.addr, align 8
  %locale_ = getelementptr inbounds nuw %"class.fmt::v6::internal::locale_ref", ptr %this1, i32 0, i32 0
  store ptr null, ptr %locale_, align 8, !tbaa !178
  ret void
}

; Function Attrs: mustprogress uwtable
define linkonce_odr void @_ZN3fmt2v614format_handlerINS0_13arg_formatterINS0_12buffer_rangeIcEEEEcNS0_20basic_format_contextISt20back_insert_iteratorINS0_8internal6bufferIcEEEcEEEC2ES4_NS0_17basic_string_viewIcEENS0_17basic_format_argsISC_EENS8_10locale_refE(ptr noundef nonnull align 16 dereferenceable(112) %this, ptr %r.coerce, ptr %str.coerce0, i64 %str.coerce1, i64 %format_args.coerce0, ptr %format_args.coerce1, i64 %loc.coerce) unnamed_addr #0 comdat align 2 personality ptr @__gxx_personality_v0 {
entry:
  %r = alloca %"class.fmt::v6::buffer_range", align 8
  %str = alloca %"class.fmt::v6::basic_string_view", align 8
  %format_args = alloca %"class.fmt::v6::basic_format_args", align 8
  %loc = alloca %"class.fmt::v6::internal::locale_ref", align 8
  %this.addr = alloca ptr, align 8
  %agg.tmp = alloca %"class.fmt::v6::basic_string_view", align 8
  %agg.tmp5 = alloca %"struct.fmt::v6::internal::error_handler", align 1
  %agg.tmp6 = alloca %"class.std::back_insert_iterator", align 8
  %agg.tmp8 = alloca %"class.fmt::v6::basic_format_args", align 8
  %agg.tmp9 = alloca %"class.fmt::v6::internal::locale_ref", align 8
  %exn.slot = alloca ptr, align 8
  %ehselector.slot = alloca i32, align 4
  %coerce.dive = getelementptr inbounds nuw %"class.fmt::v6::buffer_range", ptr %r, i32 0, i32 0
  %coerce.dive1 = getelementptr inbounds nuw %"class.fmt::v6::internal::output_range", ptr %coerce.dive, i32 0, i32 0
  %coerce.dive2 = getelementptr inbounds nuw %"class.std::back_insert_iterator", ptr %coerce.dive1, i32 0, i32 0
  store ptr %r.coerce, ptr %coerce.dive2, align 8
  %0 = getelementptr inbounds nuw { ptr, i64 }, ptr %str, i32 0, i32 0
  store ptr %str.coerce0, ptr %0, align 8
  %1 = getelementptr inbounds nuw { ptr, i64 }, ptr %str, i32 0, i32 1
  store i64 %str.coerce1, ptr %1, align 8
  %2 = getelementptr inbounds nuw { i64, ptr }, ptr %format_args, i32 0, i32 0
  store i64 %format_args.coerce0, ptr %2, align 8
  %3 = getelementptr inbounds nuw { i64, ptr }, ptr %format_args, i32 0, i32 1
  store ptr %format_args.coerce1, ptr %3, align 8
  %coerce.dive3 = getelementptr inbounds nuw %"class.fmt::v6::internal::locale_ref", ptr %loc, i32 0, i32 0
  %coerce.val.ip = inttoptr i64 %loc.coerce to ptr
  store ptr %coerce.val.ip, ptr %coerce.dive3, align 8
  store ptr %this, ptr %this.addr, align 8, !tbaa !180
  %this4 = load ptr, ptr %this.addr, align 8
  %parse_context = getelementptr inbounds nuw %"struct.fmt::v6::format_handler", ptr %this4, i32 0, i32 1
  call void @llvm.memcpy.p0.p0.i64(ptr align 8 %agg.tmp, ptr align 8 %str, i64 16, i1 false), !tbaa.struct !154
  %4 = getelementptr inbounds nuw { ptr, i64 }, ptr %agg.tmp, i32 0, i32 0
  %5 = load ptr, ptr %4, align 8
  %6 = getelementptr inbounds nuw { ptr, i64 }, ptr %agg.tmp, i32 0, i32 1
  %7 = load i64, ptr %6, align 8
  call void @_ZN3fmt2v626basic_format_parse_contextIcNS0_8internal13error_handlerEEC2ENS0_17basic_string_viewIcEES3_(ptr noundef nonnull align 8 dereferenceable(20) %parse_context, ptr %5, i64 %7)
  %context = getelementptr inbounds nuw %"struct.fmt::v6::format_handler", ptr %this4, i32 0, i32 2
  %call = call ptr @_ZNK3fmt2v68internal12output_rangeISt20back_insert_iteratorINS1_6bufferIcEEEcE5beginEv(ptr noundef nonnull align 8 dereferenceable(8) %r)
  %coerce.dive7 = getelementptr inbounds nuw %"class.std::back_insert_iterator", ptr %agg.tmp6, i32 0, i32 0
  store ptr %call, ptr %coerce.dive7, align 8
  call void @llvm.memcpy.p0.p0.i64(ptr align 8 %agg.tmp8, ptr align 8 %format_args, i64 16, i1 false), !tbaa.struct !155
  call void @llvm.memcpy.p0.p0.i64(ptr align 8 %agg.tmp9, ptr align 8 %loc, i64 8, i1 false), !tbaa.struct !173
  %coerce.dive10 = getelementptr inbounds nuw %"class.std::back_insert_iterator", ptr %agg.tmp6, i32 0, i32 0
  %8 = load ptr, ptr %coerce.dive10, align 8
  %9 = getelementptr inbounds nuw { i64, ptr }, ptr %agg.tmp8, i32 0, i32 0
  %10 = load i64, ptr %9, align 8
  %11 = getelementptr inbounds nuw { i64, ptr }, ptr %agg.tmp8, i32 0, i32 1
  %12 = load ptr, ptr %11, align 8
  %coerce.dive11 = getelementptr inbounds nuw %"class.fmt::v6::internal::locale_ref", ptr %agg.tmp9, i32 0, i32 0
  %13 = load ptr, ptr %coerce.dive11, align 8
  call void @_ZN3fmt2v620basic_format_contextISt20back_insert_iteratorINS0_8internal6bufferIcEEEcEC2ES6_NS0_17basic_format_argsIS7_EENS3_10locale_refE(ptr noundef nonnull align 8 dereferenceable(48) %context, ptr %8, i64 %10, ptr %12, ptr %13)
  %arg = getelementptr inbounds nuw %"struct.fmt::v6::format_handler", ptr %this4, i32 0, i32 3
  invoke void @_ZN3fmt2v616basic_format_argINS0_20basic_format_contextISt20back_insert_iteratorINS0_8internal6bufferIcEEEcEEEC2Ev(ptr noundef nonnull align 16 dereferenceable(20) %arg)
          to label %invoke.cont unwind label %lpad

invoke.cont:                                      ; preds = %entry
  ret void

lpad:                                             ; preds = %entry
  %14 = landingpad { ptr, i32 }
          cleanup
  %15 = extractvalue { ptr, i32 } %14, 0
  store ptr %15, ptr %exn.slot, align 8
  %16 = extractvalue { ptr, i32 } %14, 1
  store i32 %16, ptr %ehselector.slot, align 4
  call void @_ZN3fmt2v620basic_format_contextISt20back_insert_iteratorINS0_8internal6bufferIcEEEcED2Ev(ptr noundef nonnull align 8 dereferenceable(48) %context) #5
  br label %eh.resume

eh.resume:                                        ; preds = %lpad
  %exn = load ptr, ptr %exn.slot, align 8
  %sel = load i32, ptr %ehselector.slot, align 4
  %lpad.val = insertvalue { ptr, i32 } poison, ptr %exn, 0
  %lpad.val12 = insertvalue { ptr, i32 } %lpad.val, i32 %sel, 1
  resume { ptr, i32 } %lpad.val12
}

; Function Attrs: mustprogress uwtable
define linkonce_odr void @_ZN3fmt2v68internal19parse_format_stringILb0EcRNS0_14format_handlerINS0_13arg_formatterINS0_12buffer_rangeIcEEEEcNS0_20basic_format_contextISt20back_insert_iteratorINS1_6bufferIcEEEcEEEEEEvNS0_17basic_string_viewIT0_EEOT1_(ptr %format_str.coerce0, i64 %format_str.coerce1, ptr noundef nonnull align 16 dereferenceable(112) %handler) #0 comdat {
entry:
  %format_str = alloca %"class.fmt::v6::basic_string_view", align 8
  %handler.addr = alloca ptr, align 8
  %write = alloca %struct.pfs_writer, align 8
  %begin = alloca ptr, align 8
  %end = alloca ptr, align 8
  %p = alloca ptr, align 8
  %cleanup.dest.slot = alloca i32, align 4
  %ref.tmp = alloca %"struct.fmt::v6::internal::id_adapter", align 8
  %c = alloca i8, align 1
  %0 = getelementptr inbounds nuw { ptr, i64 }, ptr %format_str, i32 0, i32 0
  store ptr %format_str.coerce0, ptr %0, align 8
  %1 = getelementptr inbounds nuw { ptr, i64 }, ptr %format_str, i32 0, i32 1
  store i64 %format_str.coerce1, ptr %1, align 8
  store ptr %handler, ptr %handler.addr, align 8, !tbaa !180
  call void @llvm.lifetime.start.p0(i64 8, ptr %write) #5
  %handler_ = getelementptr inbounds nuw %struct.pfs_writer, ptr %write, i32 0, i32 0
  %2 = load ptr, ptr %handler.addr, align 8, !tbaa !180
  store ptr %2, ptr %handler_, align 8, !tbaa !180
  call void @llvm.lifetime.start.p0(i64 8, ptr %begin) #5
  %call = call noundef ptr @_ZNK3fmt2v617basic_string_viewIcE4dataEv(ptr noundef nonnull align 8 dereferenceable(16) %format_str)
  store ptr %call, ptr %begin, align 8, !tbaa !61
  call void @llvm.lifetime.start.p0(i64 8, ptr %end) #5
  %3 = load ptr, ptr %begin, align 8, !tbaa !61
  %call1 = call noundef i64 @_ZNK3fmt2v617basic_string_viewIcE4sizeEv(ptr noundef nonnull align 8 dereferenceable(16) %format_str)
  %add.ptr = getelementptr inbounds nuw i8, ptr %3, i64 %call1
  store ptr %add.ptr, ptr %end, align 8, !tbaa !61
  br label %while.cond

while.cond:                                       ; preds = %cleanup.cont40, %entry
  %4 = load ptr, ptr %begin, align 8, !tbaa !61
  %5 = load ptr, ptr %end, align 8, !tbaa !61
  %cmp = icmp ne ptr %4, %5
  br i1 %cmp, label %while.body, label %while.end

while.body:                                       ; preds = %while.cond
  call void @llvm.lifetime.start.p0(i64 8, ptr %p) #5
  %6 = load ptr, ptr %begin, align 8, !tbaa !61
  store ptr %6, ptr %p, align 8, !tbaa !61
  %7 = load ptr, ptr %begin, align 8, !tbaa !61
  %8 = load i8, ptr %7, align 1, !tbaa !140
  %conv = sext i8 %8 to i32
  %cmp2 = icmp ne i32 %conv, 123
  br i1 %cmp2, label %land.lhs.true, label %if.end

land.lhs.true:                                    ; preds = %while.body
  %9 = load ptr, ptr %begin, align 8, !tbaa !61
  %10 = load ptr, ptr %end, align 8, !tbaa !61
  %call3 = call noundef zeroext i1 @_ZN3fmt2v68internal4findILb0EcPKcEEbT1_S5_T0_RS5_(ptr noundef %9, ptr noundef %10, i8 noundef signext 123, ptr noundef nonnull align 8 dereferenceable(8) %p)
  br i1 %call3, label %if.end, label %if.then

if.then:                                          ; preds = %land.lhs.true
  %11 = load ptr, ptr %begin, align 8, !tbaa !61
  %12 = load ptr, ptr %end, align 8, !tbaa !61
  call void @_ZZN3fmt2v68internal19parse_format_stringILb0EcRNS0_14format_handlerINS0_13arg_formatterINS0_12buffer_rangeIcEEEEcNS0_20basic_format_contextISt20back_insert_iteratorINS1_6bufferIcEEEcEEEEEEvNS0_17basic_string_viewIT0_EEOT1_EN10pfs_writerclEPKcSN_(ptr noundef nonnull align 8 dereferenceable(8) %write, ptr noundef %11, ptr noundef %12)
  store i32 1, ptr %cleanup.dest.slot, align 4
  br label %cleanup38

if.end:                                           ; preds = %land.lhs.true, %while.body
  %13 = load ptr, ptr %begin, align 8, !tbaa !61
  %14 = load ptr, ptr %p, align 8, !tbaa !61
  call void @_ZZN3fmt2v68internal19parse_format_stringILb0EcRNS0_14format_handlerINS0_13arg_formatterINS0_12buffer_rangeIcEEEEcNS0_20basic_format_contextISt20back_insert_iteratorINS1_6bufferIcEEEcEEEEEEvNS0_17basic_string_viewIT0_EEOT1_EN10pfs_writerclEPKcSN_(ptr noundef nonnull align 8 dereferenceable(8) %write, ptr noundef %13, ptr noundef %14)
  %15 = load ptr, ptr %p, align 8, !tbaa !61
  %incdec.ptr = getelementptr inbounds nuw i8, ptr %15, i32 1
  store ptr %incdec.ptr, ptr %p, align 8, !tbaa !61
  %16 = load ptr, ptr %p, align 8, !tbaa !61
  %17 = load ptr, ptr %end, align 8, !tbaa !61
  %cmp4 = icmp eq ptr %16, %17
  br i1 %cmp4, label %if.then5, label %if.end6

if.then5:                                         ; preds = %if.end
  %18 = load ptr, ptr %handler.addr, align 8, !tbaa !180
  call void @_ZN3fmt2v68internal13error_handler8on_errorEPKc(ptr noundef nonnull align 1 dereferenceable(1) %18, ptr noundef @.str.11) #24
  unreachable

19:                                               ; No predecessors!
  store i32 1, ptr %cleanup.dest.slot, align 4
  br label %cleanup38

if.end6:                                          ; preds = %if.end
  %20 = load ptr, ptr %p, align 8, !tbaa !61
  %21 = load i8, ptr %20, align 1, !tbaa !140
  %conv7 = sext i8 %21 to i32
  %cmp8 = icmp eq i32 %conv7, 125
  br i1 %cmp8, label %if.then9, label %if.else

if.then9:                                         ; preds = %if.end6
  %22 = load ptr, ptr %handler.addr, align 8, !tbaa !180
  call void @_ZN3fmt2v614format_handlerINS0_13arg_formatterINS0_12buffer_rangeIcEEEEcNS0_20basic_format_contextISt20back_insert_iteratorINS0_8internal6bufferIcEEEcEEE9on_arg_idEv(ptr noundef nonnull align 16 dereferenceable(112) %22)
  %23 = load ptr, ptr %handler.addr, align 8, !tbaa !180
  %24 = load ptr, ptr %p, align 8, !tbaa !61
  call void @_ZN3fmt2v614format_handlerINS0_13arg_formatterINS0_12buffer_rangeIcEEEEcNS0_20basic_format_contextISt20back_insert_iteratorINS0_8internal6bufferIcEEEcEEE20on_replacement_fieldEPKc(ptr noundef nonnull align 16 dereferenceable(112) %23, ptr noundef %24)
  br label %if.end36

if.else:                                          ; preds = %if.end6
  %25 = load ptr, ptr %p, align 8, !tbaa !61
  %26 = load i8, ptr %25, align 1, !tbaa !140
  %conv10 = sext i8 %26 to i32
  %cmp11 = icmp eq i32 %conv10, 123
  br i1 %cmp11, label %if.then12, label %if.else14

if.then12:                                        ; preds = %if.else
  %27 = load ptr, ptr %handler.addr, align 8, !tbaa !180
  %28 = load ptr, ptr %p, align 8, !tbaa !61
  %29 = load ptr, ptr %p, align 8, !tbaa !61
  %add.ptr13 = getelementptr inbounds i8, ptr %29, i64 1
  call void @_ZN3fmt2v614format_handlerINS0_13arg_formatterINS0_12buffer_rangeIcEEEEcNS0_20basic_format_contextISt20back_insert_iteratorINS0_8internal6bufferIcEEEcEEE7on_textEPKcSF_(ptr noundef nonnull align 16 dereferenceable(112) %27, ptr noundef %28, ptr noundef %add.ptr13)
  br label %if.end35

if.else14:                                        ; preds = %if.else
  %30 = load ptr, ptr %p, align 8, !tbaa !61
  %31 = load ptr, ptr %end, align 8, !tbaa !61
  call void @llvm.lifetime.start.p0(i64 8, ptr %ref.tmp) #5
  %handler15 = getelementptr inbounds nuw %"struct.fmt::v6::internal::id_adapter", ptr %ref.tmp, i32 0, i32 0
  %32 = load ptr, ptr %handler.addr, align 8, !tbaa !180
  store ptr %32, ptr %handler15, align 8, !tbaa !180
  %call16 = call noundef ptr @_ZN3fmt2v68internal12parse_arg_idIcNS1_10id_adapterIRNS0_14format_handlerINS0_13arg_formatterINS0_12buffer_rangeIcEEEEcNS0_20basic_format_contextISt20back_insert_iteratorINS1_6bufferIcEEEcEEEEcEEEEPKT_SK_SK_OT0_(ptr noundef %30, ptr noundef %31, ptr noundef nonnull align 8 dereferenceable(8) %ref.tmp)
  store ptr %call16, ptr %p, align 8, !tbaa !61
  call void @llvm.lifetime.end.p0(i64 8, ptr %ref.tmp) #5
  call void @llvm.lifetime.start.p0(i64 1, ptr %c) #5
  %33 = load ptr, ptr %p, align 8, !tbaa !61
  %34 = load ptr, ptr %end, align 8, !tbaa !61
  %cmp17 = icmp ne ptr %33, %34
  br i1 %cmp17, label %cond.true, label %cond.false

cond.true:                                        ; preds = %if.else14
  %35 = load ptr, ptr %p, align 8, !tbaa !61
  %36 = load i8, ptr %35, align 1, !tbaa !140
  br label %cond.end

cond.false:                                       ; preds = %if.else14
  br label %cond.end

cond.end:                                         ; preds = %cond.false, %cond.true
  %cond = phi i8 [ %36, %cond.true ], [ 0, %cond.false ]
  store i8 %cond, ptr %c, align 1, !tbaa !140
  %37 = load i8, ptr %c, align 1, !tbaa !140
  %conv18 = sext i8 %37 to i32
  %cmp19 = icmp eq i32 %conv18, 125
  br i1 %cmp19, label %if.then20, label %if.else21

if.then20:                                        ; preds = %cond.end
  %38 = load ptr, ptr %handler.addr, align 8, !tbaa !180
  %39 = load ptr, ptr %p, align 8, !tbaa !61
  call void @_ZN3fmt2v614format_handlerINS0_13arg_formatterINS0_12buffer_rangeIcEEEEcNS0_20basic_format_contextISt20back_insert_iteratorINS0_8internal6bufferIcEEEcEEE20on_replacement_fieldEPKc(ptr noundef nonnull align 16 dereferenceable(112) %38, ptr noundef %39)
  br label %if.end34

if.else21:                                        ; preds = %cond.end
  %40 = load i8, ptr %c, align 1, !tbaa !140
  %conv22 = sext i8 %40 to i32
  %cmp23 = icmp eq i32 %conv22, 58
  br i1 %cmp23, label %if.then24, label %if.else32

if.then24:                                        ; preds = %if.else21
  %41 = load ptr, ptr %handler.addr, align 8, !tbaa !180
  %42 = load ptr, ptr %p, align 8, !tbaa !61
  %add.ptr25 = getelementptr inbounds i8, ptr %42, i64 1
  %43 = load ptr, ptr %end, align 8, !tbaa !61
  %call26 = call noundef ptr @_ZN3fmt2v614format_handlerINS0_13arg_formatterINS0_12buffer_rangeIcEEEEcNS0_20basic_format_contextISt20back_insert_iteratorINS0_8internal6bufferIcEEEcEEE15on_format_specsEPKcSF_(ptr noundef nonnull align 16 dereferenceable(112) %41, ptr noundef %add.ptr25, ptr noundef %43)
  store ptr %call26, ptr %p, align 8, !tbaa !61
  %44 = load ptr, ptr %p, align 8, !tbaa !61
  %45 = load ptr, ptr %end, align 8, !tbaa !61
  %cmp27 = icmp eq ptr %44, %45
  br i1 %cmp27, label %if.then30, label %lor.lhs.false

lor.lhs.false:                                    ; preds = %if.then24
  %46 = load ptr, ptr %p, align 8, !tbaa !61
  %47 = load i8, ptr %46, align 1, !tbaa !140
  %conv28 = sext i8 %47 to i32
  %cmp29 = icmp ne i32 %conv28, 125
  br i1 %cmp29, label %if.then30, label %if.end31

if.then30:                                        ; preds = %lor.lhs.false, %if.then24
  %48 = load ptr, ptr %handler.addr, align 8, !tbaa !180
  call void @_ZN3fmt2v68internal13error_handler8on_errorEPKc(ptr noundef nonnull align 1 dereferenceable(1) %48, ptr noundef @.str.12) #24
  unreachable

49:                                               ; No predecessors!
  store i32 1, ptr %cleanup.dest.slot, align 4
  br label %cleanup

if.end31:                                         ; preds = %lor.lhs.false
  br label %if.end33

if.else32:                                        ; preds = %if.else21
  %50 = load ptr, ptr %handler.addr, align 8, !tbaa !180
  call void @_ZN3fmt2v68internal13error_handler8on_errorEPKc(ptr noundef nonnull align 1 dereferenceable(1) %50, ptr noundef @.str.13) #24
  unreachable

51:                                               ; No predecessors!
  store i32 1, ptr %cleanup.dest.slot, align 4
  br label %cleanup

if.end33:                                         ; preds = %if.end31
  br label %if.end34

if.end34:                                         ; preds = %if.end33, %if.then20
  store i32 0, ptr %cleanup.dest.slot, align 4
  br label %cleanup

cleanup:                                          ; preds = %if.end34, %51, %49
  call void @llvm.lifetime.end.p0(i64 1, ptr %c) #5
  %cleanup.dest = load i32, ptr %cleanup.dest.slot, align 4
  switch i32 %cleanup.dest, label %cleanup38 [
    i32 0, label %cleanup.cont
  ]

cleanup.cont:                                     ; preds = %cleanup
  br label %if.end35

if.end35:                                         ; preds = %cleanup.cont, %if.then12
  br label %if.end36

if.end36:                                         ; preds = %if.end35, %if.then9
  %52 = load ptr, ptr %p, align 8, !tbaa !61
  %add.ptr37 = getelementptr inbounds i8, ptr %52, i64 1
  store ptr %add.ptr37, ptr %begin, align 8, !tbaa !61
  store i32 0, ptr %cleanup.dest.slot, align 4
  br label %cleanup38

cleanup38:                                        ; preds = %if.end36, %cleanup, %19, %if.then
  call void @llvm.lifetime.end.p0(i64 8, ptr %p) #5
  %cleanup.dest39 = load i32, ptr %cleanup.dest.slot, align 4
  switch i32 %cleanup.dest39, label %cleanup41 [
    i32 0, label %cleanup.cont40
  ]

cleanup.cont40:                                   ; preds = %cleanup38
  br label %while.cond, !llvm.loop !182

while.end:                                        ; preds = %while.cond
  store i32 0, ptr %cleanup.dest.slot, align 4
  br label %cleanup41

cleanup41:                                        ; preds = %while.end, %cleanup38
  call void @llvm.lifetime.end.p0(i64 8, ptr %end) #5
  call void @llvm.lifetime.end.p0(i64 8, ptr %begin) #5
  call void @llvm.lifetime.end.p0(i64 8, ptr %write) #5
  %cleanup.dest44 = load i32, ptr %cleanup.dest.slot, align 4
  switch i32 %cleanup.dest44, label %unreachable [
    i32 0, label %cleanup.cont45
    i32 1, label %cleanup.cont45
  ]

cleanup.cont45:                                   ; preds = %cleanup41, %cleanup41
  ret void

unreachable:                                      ; preds = %cleanup41
  unreachable
}

; Function Attrs: mustprogress nounwind uwtable
define linkonce_odr ptr @_ZN3fmt2v620basic_format_contextISt20back_insert_iteratorINS0_8internal6bufferIcEEEcE3outEv(ptr noundef nonnull align 8 dereferenceable(48) %this) #6 comdat align 2 {
entry:
  %retval = alloca %"class.std::back_insert_iterator", align 8
  %this.addr = alloca ptr, align 8
  store ptr %this, ptr %this.addr, align 8, !tbaa !183
  %this1 = load ptr, ptr %this.addr, align 8
  %out_ = getelementptr inbounds nuw %"class.fmt::v6::basic_format_context", ptr %this1, i32 0, i32 0
  call void @llvm.memcpy.p0.p0.i64(ptr align 8 %retval, ptr align 8 %out_, i64 8, i1 false)
  %coerce.dive = getelementptr inbounds nuw %"class.std::back_insert_iterator", ptr %retval, i32 0, i32 0
  %0 = load ptr, ptr %coerce.dive, align 8
  ret ptr %0
}

; Function Attrs: inlinehint mustprogress nounwind uwtable
define linkonce_odr void @_ZN3fmt2v614format_handlerINS0_13arg_formatterINS0_12buffer_rangeIcEEEEcNS0_20basic_format_contextISt20back_insert_iteratorINS0_8internal6bufferIcEEEcEEED2Ev(ptr noundef nonnull align 16 dereferenceable(112) %this) unnamed_addr #1 comdat align 2 {
entry:
  %this.addr = alloca ptr, align 8
  store ptr %this, ptr %this.addr, align 8, !tbaa !180
  %this1 = load ptr, ptr %this.addr, align 8
  %context = getelementptr inbounds nuw %"struct.fmt::v6::format_handler", ptr %this1, i32 0, i32 2
  call void @_ZN3fmt2v620basic_format_contextISt20back_insert_iteratorINS0_8internal6bufferIcEEEcED2Ev(ptr noundef nonnull align 8 dereferenceable(48) %context) #5
  ret void
}

; Function Attrs: mustprogress nounwind uwtable
define linkonce_odr void @_ZN3fmt2v626basic_format_parse_contextIcNS0_8internal13error_handlerEEC2ENS0_17basic_string_viewIcEES3_(ptr noundef nonnull align 8 dereferenceable(20) %this, ptr %format_str.coerce0, i64 %format_str.coerce1) unnamed_addr #6 comdat align 2 {
entry:
  %format_str = alloca %"class.fmt::v6::basic_string_view", align 8
  %eh = alloca %"struct.fmt::v6::internal::error_handler", align 1
  %this.addr = alloca ptr, align 8
  %0 = getelementptr inbounds nuw { ptr, i64 }, ptr %format_str, i32 0, i32 0
  store ptr %format_str.coerce0, ptr %0, align 8
  %1 = getelementptr inbounds nuw { ptr, i64 }, ptr %format_str, i32 0, i32 1
  store i64 %format_str.coerce1, ptr %1, align 8
  store ptr %this, ptr %this.addr, align 8, !tbaa !185
  %this1 = load ptr, ptr %this.addr, align 8
  %format_str_ = getelementptr inbounds nuw %"class.fmt::v6::basic_format_parse_context", ptr %this1, i32 0, i32 0
  call void @llvm.memcpy.p0.p0.i64(ptr align 8 %format_str_, ptr align 8 %format_str, i64 16, i1 false), !tbaa.struct !154
  %next_arg_id_ = getelementptr inbounds nuw %"class.fmt::v6::basic_format_parse_context", ptr %this1, i32 0, i32 1
  store i32 0, ptr %next_arg_id_, align 8, !tbaa !187
  ret void
}

; Function Attrs: mustprogress nounwind uwtable
define linkonce_odr ptr @_ZNK3fmt2v68internal12output_rangeISt20back_insert_iteratorINS1_6bufferIcEEEcE5beginEv(ptr noundef nonnull align 8 dereferenceable(8) %this) #6 comdat align 2 {
entry:
  %retval = alloca %"class.std::back_insert_iterator", align 8
  %this.addr = alloca ptr, align 8
  store ptr %this, ptr %this.addr, align 8, !tbaa !190
  %this1 = load ptr, ptr %this.addr, align 8
  %it_ = getelementptr inbounds nuw %"class.fmt::v6::internal::output_range", ptr %this1, i32 0, i32 0
  call void @llvm.memcpy.p0.p0.i64(ptr align 8 %retval, ptr align 8 %it_, i64 8, i1 false)
  %coerce.dive = getelementptr inbounds nuw %"class.std::back_insert_iterator", ptr %retval, i32 0, i32 0
  %0 = load ptr, ptr %coerce.dive, align 8
  ret ptr %0
}

; Function Attrs: mustprogress uwtable
define linkonce_odr void @_ZN3fmt2v620basic_format_contextISt20back_insert_iteratorINS0_8internal6bufferIcEEEcEC2ES6_NS0_17basic_format_argsIS7_EENS3_10locale_refE(ptr noundef nonnull align 8 dereferenceable(48) %this, ptr %out.coerce, i64 %ctx_args.coerce0, ptr %ctx_args.coerce1, ptr %loc.coerce) unnamed_addr #0 comdat align 2 {
entry:
  %out = alloca %"class.std::back_insert_iterator", align 8
  %ctx_args = alloca %"class.fmt::v6::basic_format_args", align 8
  %loc = alloca %"class.fmt::v6::internal::locale_ref", align 8
  %this.addr = alloca ptr, align 8
  %coerce.dive = getelementptr inbounds nuw %"class.std::back_insert_iterator", ptr %out, i32 0, i32 0
  store ptr %out.coerce, ptr %coerce.dive, align 8
  %0 = getelementptr inbounds nuw { i64, ptr }, ptr %ctx_args, i32 0, i32 0
  store i64 %ctx_args.coerce0, ptr %0, align 8
  %1 = getelementptr inbounds nuw { i64, ptr }, ptr %ctx_args, i32 0, i32 1
  store ptr %ctx_args.coerce1, ptr %1, align 8
  %coerce.dive1 = getelementptr inbounds nuw %"class.fmt::v6::internal::locale_ref", ptr %loc, i32 0, i32 0
  store ptr %loc.coerce, ptr %coerce.dive1, align 8
  store ptr %this, ptr %this.addr, align 8, !tbaa !183
  %this2 = load ptr, ptr %this.addr, align 8
  %out_ = getelementptr inbounds nuw %"class.fmt::v6::basic_format_context", ptr %this2, i32 0, i32 0
  call void @llvm.memcpy.p0.p0.i64(ptr align 8 %out_, ptr align 8 %out, i64 8, i1 false)
  %args_ = getelementptr inbounds nuw %"class.fmt::v6::basic_format_context", ptr %this2, i32 0, i32 1
  call void @llvm.memcpy.p0.p0.i64(ptr align 8 %args_, ptr align 8 %ctx_args, i64 16, i1 false), !tbaa.struct !155
  %map_ = getelementptr inbounds nuw %"class.fmt::v6::basic_format_context", ptr %this2, i32 0, i32 2
  call void @_ZN3fmt2v68internal7arg_mapINS0_20basic_format_contextISt20back_insert_iteratorINS1_6bufferIcEEEcEEEC2Ev(ptr noundef nonnull align 8 dereferenceable(12) %map_)
  %loc_ = getelementptr inbounds nuw %"class.fmt::v6::basic_format_context", ptr %this2, i32 0, i32 3
  call void @llvm.memcpy.p0.p0.i64(ptr align 8 %loc_, ptr align 8 %loc, i64 8, i1 false), !tbaa.struct !173
  ret void
}

; Function Attrs: mustprogress uwtable
define linkonce_odr void @_ZN3fmt2v616basic_format_argINS0_20basic_format_contextISt20back_insert_iteratorINS0_8internal6bufferIcEEEcEEEC2Ev(ptr noundef nonnull align 16 dereferenceable(20) %this) unnamed_addr #0 comdat align 2 {
entry:
  %this.addr = alloca ptr, align 8
  store ptr %this, ptr %this.addr, align 8, !tbaa !192
  %this1 = load ptr, ptr %this.addr, align 8
  %value_ = getelementptr inbounds nuw %"class.fmt::v6::basic_format_arg", ptr %this1, i32 0, i32 0
  call void @_ZN3fmt2v68internal5valueINS0_20basic_format_contextISt20back_insert_iteratorINS1_6bufferIcEEEcEEEC2Ei(ptr noundef nonnull align 16 dereferenceable(16) %value_, i32 noundef 0)
  %type_ = getelementptr inbounds nuw %"class.fmt::v6::basic_format_arg", ptr %this1, i32 0, i32 1
  store i32 0, ptr %type_, align 16, !tbaa !194
  ret void
}

; Function Attrs: inlinehint mustprogress nounwind uwtable
define linkonce_odr void @_ZN3fmt2v620basic_format_contextISt20back_insert_iteratorINS0_8internal6bufferIcEEEcED2Ev(ptr noundef nonnull align 8 dereferenceable(48) %this) unnamed_addr #1 comdat align 2 {
entry:
  %this.addr = alloca ptr, align 8
  store ptr %this, ptr %this.addr, align 8, !tbaa !183
  %this1 = load ptr, ptr %this.addr, align 8
  %map_ = getelementptr inbounds nuw %"class.fmt::v6::basic_format_context", ptr %this1, i32 0, i32 2
  call void @_ZN3fmt2v68internal7arg_mapINS0_20basic_format_contextISt20back_insert_iteratorINS1_6bufferIcEEEcEEED2Ev(ptr noundef nonnull align 8 dereferenceable(12) %map_) #5
  ret void
}

; Function Attrs: mustprogress nounwind uwtable
define linkonce_odr void @_ZN3fmt2v68internal7arg_mapINS0_20basic_format_contextISt20back_insert_iteratorINS1_6bufferIcEEEcEEEC2Ev(ptr noundef nonnull align 8 dereferenceable(12) %this) unnamed_addr #6 comdat align 2 {
entry:
  %this.addr = alloca ptr, align 8
  store ptr %this, ptr %this.addr, align 8, !tbaa !198
  %this1 = load ptr, ptr %this.addr, align 8
  %map_ = getelementptr inbounds nuw %"class.fmt::v6::internal::arg_map", ptr %this1, i32 0, i32 0
  store ptr null, ptr %map_, align 8, !tbaa !200
  %size_ = getelementptr inbounds nuw %"class.fmt::v6::internal::arg_map", ptr %this1, i32 0, i32 1
  store i32 0, ptr %size_, align 8, !tbaa !203
  ret void
}

; Function Attrs: mustprogress nounwind uwtable
define linkonce_odr void @_ZN3fmt2v68internal5valueINS0_20basic_format_contextISt20back_insert_iteratorINS1_6bufferIcEEEcEEEC2Ei(ptr noundef nonnull align 16 dereferenceable(16) %this, i32 noundef %val) unnamed_addr #6 comdat align 2 {
entry:
  %this.addr = alloca ptr, align 8
  %val.addr = alloca i32, align 4
  store ptr %this, ptr %this.addr, align 8, !tbaa !204
  store i32 %val, ptr %val.addr, align 4, !tbaa !49
  %this1 = load ptr, ptr %this.addr, align 8
  %0 = getelementptr inbounds nuw %"class.fmt::v6::internal::value", ptr %this1, i32 0, i32 0
  %1 = load i32, ptr %val.addr, align 4, !tbaa !49
  store i32 %1, ptr %0, align 16, !tbaa !140
  ret void
}

; Function Attrs: mustprogress nounwind uwtable
define linkonce_odr void @_ZN3fmt2v68internal7arg_mapINS0_20basic_format_contextISt20back_insert_iteratorINS1_6bufferIcEEEcEEED2Ev(ptr noundef nonnull align 8 dereferenceable(12) %this) unnamed_addr #6 comdat align 2 {
entry:
  %this.addr = alloca ptr, align 8
  store ptr %this, ptr %this.addr, align 8, !tbaa !198
  %this1 = load ptr, ptr %this.addr, align 8
  %map_ = getelementptr inbounds nuw %"class.fmt::v6::internal::arg_map", ptr %this1, i32 0, i32 0
  %0 = load ptr, ptr %map_, align 8, !tbaa !200
  %isnull = icmp eq ptr %0, null
  br i1 %isnull, label %delete.end, label %delete.notnull

delete.notnull:                                   ; preds = %entry
  call void @_ZdaPv(ptr noundef %0) #21
  br label %delete.end

delete.end:                                       ; preds = %delete.notnull, %entry
  ret void
}

; Function Attrs: mustprogress nounwind uwtable
define linkonce_odr noundef ptr @_ZNK3fmt2v617basic_string_viewIcE4dataEv(ptr noundef nonnull align 8 dereferenceable(16) %this) #6 comdat align 2 {
entry:
  %this.addr = alloca ptr, align 8
  store ptr %this, ptr %this.addr, align 8, !tbaa !206
  %this1 = load ptr, ptr %this.addr, align 8
  %data_ = getelementptr inbounds nuw %"class.fmt::v6::basic_string_view", ptr %this1, i32 0, i32 0
  %0 = load ptr, ptr %data_, align 8, !tbaa !208
  ret ptr %0
}

; Function Attrs: mustprogress nounwind uwtable
define linkonce_odr noundef i64 @_ZNK3fmt2v617basic_string_viewIcE4sizeEv(ptr noundef nonnull align 8 dereferenceable(16) %this) #6 comdat align 2 {
entry:
  %this.addr = alloca ptr, align 8
  store ptr %this, ptr %this.addr, align 8, !tbaa !206
  %this1 = load ptr, ptr %this.addr, align 8
  %size_ = getelementptr inbounds nuw %"class.fmt::v6::basic_string_view", ptr %this1, i32 0, i32 1
  %0 = load i64, ptr %size_, align 8, !tbaa !209
  ret i64 %0
}

; Function Attrs: inlinehint mustprogress uwtable
define linkonce_odr noundef zeroext i1 @_ZN3fmt2v68internal4findILb0EcPKcEEbT1_S5_T0_RS5_(ptr noundef %first, ptr noundef %last, i8 noundef signext %value, ptr noundef nonnull align 8 dereferenceable(8) %out) #8 comdat {
entry:
  %first.addr = alloca ptr, align 8
  %last.addr = alloca ptr, align 8
  %value.addr = alloca i8, align 1
  %out.addr = alloca ptr, align 8
  store ptr %first, ptr %first.addr, align 8, !tbaa !61
  store ptr %last, ptr %last.addr, align 8, !tbaa !61
  store i8 %value, ptr %value.addr, align 1, !tbaa !140
  store ptr %out, ptr %out.addr, align 8, !tbaa !150
  %0 = load ptr, ptr %first.addr, align 8, !tbaa !61
  %1 = load i8, ptr %value.addr, align 1, !tbaa !140
  %conv = sext i8 %1 to i32
  %2 = load ptr, ptr %last.addr, align 8, !tbaa !61
  %3 = load ptr, ptr %first.addr, align 8, !tbaa !61
  %sub.ptr.lhs.cast = ptrtoint ptr %2 to i64
  %sub.ptr.rhs.cast = ptrtoint ptr %3 to i64
  %sub.ptr.sub = sub i64 %sub.ptr.lhs.cast, %sub.ptr.rhs.cast
  %call = call noundef i64 @_ZN3fmt2v68internal11to_unsignedIlEENSt13make_unsignedIT_E4typeES4_(i64 noundef %sub.ptr.sub)
  %call1 = call noundef ptr @memchr(ptr noundef %0, i32 noundef %conv, i64 noundef %call) #25
  %4 = load ptr, ptr %out.addr, align 8, !tbaa !150
  store ptr %call1, ptr %4, align 8, !tbaa !61
  %5 = load ptr, ptr %out.addr, align 8, !tbaa !150
  %6 = load ptr, ptr %5, align 8, !tbaa !61
  %cmp = icmp ne ptr %6, null
  ret i1 %cmp
}

; Function Attrs: mustprogress uwtable
define linkonce_odr void @_ZZN3fmt2v68internal19parse_format_stringILb0EcRNS0_14format_handlerINS0_13arg_formatterINS0_12buffer_rangeIcEEEEcNS0_20basic_format_contextISt20back_insert_iteratorINS1_6bufferIcEEEcEEEEEEvNS0_17basic_string_viewIT0_EEOT1_EN10pfs_writerclEPKcSN_(ptr noundef nonnull align 8 dereferenceable(8) %this, ptr noundef %begin, ptr noundef %end) #0 comdat align 2 {
entry:
  %this.addr = alloca ptr, align 8
  %begin.addr = alloca ptr, align 8
  %end.addr = alloca ptr, align 8
  %p = alloca ptr, align 8
  %cleanup.dest.slot = alloca i32, align 4
  store ptr %this, ptr %this.addr, align 8, !tbaa !210
  store ptr %begin, ptr %begin.addr, align 8, !tbaa !61
  store ptr %end, ptr %end.addr, align 8, !tbaa !61
  %this1 = load ptr, ptr %this.addr, align 8
  %0 = load ptr, ptr %begin.addr, align 8, !tbaa !61
  %1 = load ptr, ptr %end.addr, align 8, !tbaa !61
  %cmp = icmp eq ptr %0, %1
  br i1 %cmp, label %if.then, label %if.end

if.then:                                          ; preds = %entry
  br label %return

if.end:                                           ; preds = %entry
  br label %for.cond

for.cond:                                         ; preds = %cleanup.cont, %if.end
  call void @llvm.lifetime.start.p0(i64 8, ptr %p) #5
  store ptr null, ptr %p, align 8, !tbaa !61
  %2 = load ptr, ptr %begin.addr, align 8, !tbaa !61
  %3 = load ptr, ptr %end.addr, align 8, !tbaa !61
  %call = call noundef zeroext i1 @_ZN3fmt2v68internal4findILb0EcPKcEEbT1_S5_T0_RS5_(ptr noundef %2, ptr noundef %3, i8 noundef signext 125, ptr noundef nonnull align 8 dereferenceable(8) %p)
  br i1 %call, label %if.end3, label %if.then2

if.then2:                                         ; preds = %for.cond
  %handler_ = getelementptr inbounds nuw %struct.pfs_writer, ptr %this1, i32 0, i32 0
  %4 = load ptr, ptr %handler_, align 8, !tbaa !212
  %5 = load ptr, ptr %begin.addr, align 8, !tbaa !61
  %6 = load ptr, ptr %end.addr, align 8, !tbaa !61
  call void @_ZN3fmt2v614format_handlerINS0_13arg_formatterINS0_12buffer_rangeIcEEEEcNS0_20basic_format_contextISt20back_insert_iteratorINS0_8internal6bufferIcEEEcEEE7on_textEPKcSF_(ptr noundef nonnull align 16 dereferenceable(112) %4, ptr noundef %5, ptr noundef %6)
  store i32 1, ptr %cleanup.dest.slot, align 4
  br label %cleanup

if.end3:                                          ; preds = %for.cond
  %7 = load ptr, ptr %p, align 8, !tbaa !61
  %incdec.ptr = getelementptr inbounds nuw i8, ptr %7, i32 1
  store ptr %incdec.ptr, ptr %p, align 8, !tbaa !61
  %8 = load ptr, ptr %p, align 8, !tbaa !61
  %9 = load ptr, ptr %end.addr, align 8, !tbaa !61
  %cmp4 = icmp eq ptr %8, %9
  br i1 %cmp4, label %if.then6, label %lor.lhs.false

lor.lhs.false:                                    ; preds = %if.end3
  %10 = load ptr, ptr %p, align 8, !tbaa !61
  %11 = load i8, ptr %10, align 1, !tbaa !140
  %conv = sext i8 %11 to i32
  %cmp5 = icmp ne i32 %conv, 125
  br i1 %cmp5, label %if.then6, label %if.end8

if.then6:                                         ; preds = %lor.lhs.false, %if.end3
  %handler_7 = getelementptr inbounds nuw %struct.pfs_writer, ptr %this1, i32 0, i32 0
  %12 = load ptr, ptr %handler_7, align 8, !tbaa !212
  call void @_ZN3fmt2v68internal13error_handler8on_errorEPKc(ptr noundef nonnull align 1 dereferenceable(1) %12, ptr noundef @.str.16) #24
  unreachable

13:                                               ; No predecessors!
  store i32 1, ptr %cleanup.dest.slot, align 4
  br label %cleanup

if.end8:                                          ; preds = %lor.lhs.false
  %handler_9 = getelementptr inbounds nuw %struct.pfs_writer, ptr %this1, i32 0, i32 0
  %14 = load ptr, ptr %handler_9, align 8, !tbaa !212
  %15 = load ptr, ptr %begin.addr, align 8, !tbaa !61
  %16 = load ptr, ptr %p, align 8, !tbaa !61
  call void @_ZN3fmt2v614format_handlerINS0_13arg_formatterINS0_12buffer_rangeIcEEEEcNS0_20basic_format_contextISt20back_insert_iteratorINS0_8internal6bufferIcEEEcEEE7on_textEPKcSF_(ptr noundef nonnull align 16 dereferenceable(112) %14, ptr noundef %15, ptr noundef %16)
  %17 = load ptr, ptr %p, align 8, !tbaa !61
  %add.ptr = getelementptr inbounds i8, ptr %17, i64 1
  store ptr %add.ptr, ptr %begin.addr, align 8, !tbaa !61
  store i32 0, ptr %cleanup.dest.slot, align 4
  br label %cleanup

cleanup:                                          ; preds = %if.end8, %13, %if.then2
  call void @llvm.lifetime.end.p0(i64 8, ptr %p) #5
  %cleanup.dest = load i32, ptr %cleanup.dest.slot, align 4
  switch i32 %cleanup.dest, label %unreachable [
    i32 0, label %cleanup.cont
    i32 1, label %return
  ]

cleanup.cont:                                     ; preds = %cleanup
  br label %for.cond, !llvm.loop !214

return:                                           ; preds = %cleanup, %if.then
  ret void

unreachable:                                      ; preds = %cleanup
  unreachable
}

; Function Attrs: noreturn
declare void @_ZN3fmt2v68internal13error_handler8on_errorEPKc(ptr noundef nonnull align 1 dereferenceable(1), ptr noundef) #15

; Function Attrs: mustprogress uwtable
define linkonce_odr void @_ZN3fmt2v614format_handlerINS0_13arg_formatterINS0_12buffer_rangeIcEEEEcNS0_20basic_format_contextISt20back_insert_iteratorINS0_8internal6bufferIcEEEcEEE9on_arg_idEv(ptr noundef nonnull align 16 dereferenceable(112) %this) #0 comdat align 2 {
entry:
  %this.addr = alloca ptr, align 8
  store ptr %this, ptr %this.addr, align 8, !tbaa !180
  %this1 = load ptr, ptr %this.addr, align 8
  %parse_context = getelementptr inbounds nuw %"struct.fmt::v6::format_handler", ptr %this1, i32 0, i32 1
  %call = call noundef i32 @_ZN3fmt2v626basic_format_parse_contextIcNS0_8internal13error_handlerEE11next_arg_idEv(ptr noundef nonnull align 8 dereferenceable(20) %parse_context)
  call void @_ZN3fmt2v614format_handlerINS0_13arg_formatterINS0_12buffer_rangeIcEEEEcNS0_20basic_format_contextISt20back_insert_iteratorINS0_8internal6bufferIcEEEcEEE7get_argEi(ptr noundef nonnull align 16 dereferenceable(112) %this1, i32 noundef %call)
  ret void
}

; Function Attrs: mustprogress uwtable
define linkonce_odr void @_ZN3fmt2v614format_handlerINS0_13arg_formatterINS0_12buffer_rangeIcEEEEcNS0_20basic_format_contextISt20back_insert_iteratorINS0_8internal6bufferIcEEEcEEE20on_replacement_fieldEPKc(ptr noundef nonnull align 16 dereferenceable(112) %this, ptr noundef %p) #0 comdat align 2 {
entry:
  %this.addr = alloca ptr, align 8
  %p.addr = alloca ptr, align 8
  %agg.tmp = alloca %"class.std::back_insert_iterator", align 8
  %ref.tmp = alloca %"class.fmt::v6::arg_formatter", align 8
  store ptr %this, ptr %this.addr, align 8, !tbaa !180
  store ptr %p, ptr %p.addr, align 8, !tbaa !61
  %this1 = load ptr, ptr %this.addr, align 8
  %parse_context = getelementptr inbounds nuw %"struct.fmt::v6::format_handler", ptr %this1, i32 0, i32 1
  %0 = load ptr, ptr %p.addr, align 8, !tbaa !61
  call void @_ZN3fmt2v610advance_toIcNS0_8internal13error_handlerEEEvRNS0_26basic_format_parse_contextIT_T0_EEPKS5_(ptr noundef nonnull align 8 dereferenceable(20) %parse_context, ptr noundef %0)
  %context = getelementptr inbounds nuw %"struct.fmt::v6::format_handler", ptr %this1, i32 0, i32 2
  call void @llvm.lifetime.start.p0(i64 40, ptr %ref.tmp) #5
  %context2 = getelementptr inbounds nuw %"struct.fmt::v6::format_handler", ptr %this1, i32 0, i32 2
  %parse_context3 = getelementptr inbounds nuw %"struct.fmt::v6::format_handler", ptr %this1, i32 0, i32 1
  call void @_ZN3fmt2v613arg_formatterINS0_12buffer_rangeIcEEEC2ERNS0_20basic_format_contextISt20back_insert_iteratorINS0_8internal6bufferIcEEEcEEPNS0_26basic_format_parse_contextIcNS7_13error_handlerEEEPNS0_18basic_format_specsIcEE(ptr noundef nonnull align 8 dereferenceable(40) %ref.tmp, ptr noundef nonnull align 8 dereferenceable(48) %context2, ptr noundef %parse_context3, ptr noundef null)
  %arg = getelementptr inbounds nuw %"struct.fmt::v6::format_handler", ptr %this1, i32 0, i32 3
  %call = call ptr @_ZN3fmt2v616visit_format_argINS0_13arg_formatterINS0_12buffer_rangeIcEEEENS0_20basic_format_contextISt20back_insert_iteratorINS0_8internal6bufferIcEEEcEEEEDTclfp_Li0EEEOT_RKNS0_16basic_format_argIT0_EE(ptr noundef nonnull align 8 dereferenceable(40) %ref.tmp, ptr noundef nonnull align 16 dereferenceable(20) %arg)
  %coerce.dive = getelementptr inbounds nuw %"class.std::back_insert_iterator", ptr %agg.tmp, i32 0, i32 0
  store ptr %call, ptr %coerce.dive, align 8
  %coerce.dive4 = getelementptr inbounds nuw %"class.std::back_insert_iterator", ptr %agg.tmp, i32 0, i32 0
  %1 = load ptr, ptr %coerce.dive4, align 8
  call void @_ZN3fmt2v620basic_format_contextISt20back_insert_iteratorINS0_8internal6bufferIcEEEcE10advance_toES6_(ptr noundef nonnull align 8 dereferenceable(48) %context, ptr %1)
  call void @llvm.lifetime.end.p0(i64 40, ptr %ref.tmp) #5
  ret void
}

; Function Attrs: mustprogress uwtable
define linkonce_odr void @_ZN3fmt2v614format_handlerINS0_13arg_formatterINS0_12buffer_rangeIcEEEEcNS0_20basic_format_contextISt20back_insert_iteratorINS0_8internal6bufferIcEEEcEEE7on_textEPKcSF_(ptr noundef nonnull align 16 dereferenceable(112) %this, ptr noundef %begin, ptr noundef %end) #0 comdat align 2 {
entry:
  %this.addr = alloca ptr, align 8
  %begin.addr = alloca ptr, align 8
  %end.addr = alloca ptr, align 8
  %size = alloca i64, align 8
  %out = alloca %"class.std::back_insert_iterator", align 8
  %it = alloca ptr, align 8
  %ref.tmp = alloca ptr, align 8
  %agg.tmp = alloca %"class.std::back_insert_iterator", align 8
  store ptr %this, ptr %this.addr, align 8, !tbaa !180
  store ptr %begin, ptr %begin.addr, align 8, !tbaa !61
  store ptr %end, ptr %end.addr, align 8, !tbaa !61
  %this1 = load ptr, ptr %this.addr, align 8
  call void @llvm.lifetime.start.p0(i64 8, ptr %size) #5
  %0 = load ptr, ptr %end.addr, align 8, !tbaa !61
  %1 = load ptr, ptr %begin.addr, align 8, !tbaa !61
  %sub.ptr.lhs.cast = ptrtoint ptr %0 to i64
  %sub.ptr.rhs.cast = ptrtoint ptr %1 to i64
  %sub.ptr.sub = sub i64 %sub.ptr.lhs.cast, %sub.ptr.rhs.cast
  %call = call noundef i64 @_ZN3fmt2v68internal11to_unsignedIlEENSt13make_unsignedIT_E4typeES4_(i64 noundef %sub.ptr.sub)
  store i64 %call, ptr %size, align 8, !tbaa !51
  call void @llvm.lifetime.start.p0(i64 8, ptr %out) #5
  %context = getelementptr inbounds nuw %"struct.fmt::v6::format_handler", ptr %this1, i32 0, i32 2
  %call2 = call ptr @_ZN3fmt2v620basic_format_contextISt20back_insert_iteratorINS0_8internal6bufferIcEEEcE3outEv(ptr noundef nonnull align 8 dereferenceable(48) %context)
  %coerce.dive = getelementptr inbounds nuw %"class.std::back_insert_iterator", ptr %out, i32 0, i32 0
  store ptr %call2, ptr %coerce.dive, align 8
  call void @llvm.lifetime.start.p0(i64 8, ptr %it) #5
  call void @llvm.lifetime.start.p0(i64 8, ptr %ref.tmp) #5
  %2 = load i64, ptr %size, align 8, !tbaa !51
  %call3 = call noundef ptr @_ZN3fmt2v68internal7reserveINS1_6bufferIcEETnNSt9enable_ifIXsr13is_contiguousIT_EE5valueEiE4typeELi0EEEPNS6_10value_typeERSt20back_insert_iteratorIS6_Em(ptr noundef nonnull align 8 dereferenceable(8) %out, i64 noundef %2)
  store ptr %call3, ptr %ref.tmp, align 8, !tbaa !61
  store ptr %ref.tmp, ptr %it, align 8, !tbaa !150
  %3 = load ptr, ptr %begin.addr, align 8, !tbaa !61
  %4 = load i64, ptr %size, align 8, !tbaa !51
  %5 = load ptr, ptr %it, align 8, !tbaa !150
  %6 = load ptr, ptr %5, align 8, !tbaa !61
  %call4 = call noundef ptr @_ZSt6copy_nIPKcmPcET1_T_T0_S3_(ptr noundef %3, i64 noundef %4, ptr noundef %6)
  %7 = load ptr, ptr %it, align 8, !tbaa !150
  store ptr %call4, ptr %7, align 8, !tbaa !61
  %context5 = getelementptr inbounds nuw %"struct.fmt::v6::format_handler", ptr %this1, i32 0, i32 2
  call void @llvm.memcpy.p0.p0.i64(ptr align 8 %agg.tmp, ptr align 8 %out, i64 8, i1 false)
  %coerce.dive6 = getelementptr inbounds nuw %"class.std::back_insert_iterator", ptr %agg.tmp, i32 0, i32 0
  %8 = load ptr, ptr %coerce.dive6, align 8
  call void @_ZN3fmt2v620basic_format_contextISt20back_insert_iteratorINS0_8internal6bufferIcEEEcE10advance_toES6_(ptr noundef nonnull align 8 dereferenceable(48) %context5, ptr %8)
  call void @llvm.lifetime.end.p0(i64 8, ptr %ref.tmp) #5
  call void @llvm.lifetime.end.p0(i64 8, ptr %it) #5
  call void @llvm.lifetime.end.p0(i64 8, ptr %out) #5
  call void @llvm.lifetime.end.p0(i64 8, ptr %size) #5
  ret void
}

; Function Attrs: mustprogress uwtable
define linkonce_odr noundef ptr @_ZN3fmt2v68internal12parse_arg_idIcNS1_10id_adapterIRNS0_14format_handlerINS0_13arg_formatterINS0_12buffer_rangeIcEEEEcNS0_20basic_format_contextISt20back_insert_iteratorINS1_6bufferIcEEEcEEEEcEEEEPKT_SK_SK_OT0_(ptr noundef %begin, ptr noundef %end, ptr noundef nonnull align 8 dereferenceable(8) %handler) #0 comdat {
entry:
  %retval = alloca ptr, align 8
  %begin.addr = alloca ptr, align 8
  %end.addr = alloca ptr, align 8
  %handler.addr = alloca ptr, align 8
  %c = alloca i8, align 1
  %cleanup.dest.slot = alloca i32, align 4
  %index = alloca i32, align 4
  %it = alloca ptr, align 8
  %agg.tmp = alloca %"class.fmt::v6::basic_string_view", align 8
  store ptr %begin, ptr %begin.addr, align 8, !tbaa !61
  store ptr %end, ptr %end.addr, align 8, !tbaa !61
  store ptr %handler, ptr %handler.addr, align 8, !tbaa !215
  %0 = load ptr, ptr %begin.addr, align 8, !tbaa !61
  %1 = load ptr, ptr %end.addr, align 8, !tbaa !61
  %cmp = icmp ne ptr %0, %1
  br i1 %cmp, label %cond.true, label %cond.false

cond.true:                                        ; preds = %entry
  br label %cond.end

cond.false:                                       ; preds = %entry
  call void @_ZN3fmt2v68internal11assert_failEPKciS3_(ptr noundef @.str.20, i32 noundef 2263, ptr noundef @.str.34)
  br label %cond.end

cond.end:                                         ; preds = %cond.false, %cond.true
  call void @llvm.lifetime.start.p0(i64 1, ptr %c) #5
  %2 = load ptr, ptr %begin.addr, align 8, !tbaa !61
  %3 = load i8, ptr %2, align 1, !tbaa !140
  store i8 %3, ptr %c, align 1, !tbaa !140
  %4 = load i8, ptr %c, align 1, !tbaa !140
  %conv = sext i8 %4 to i32
  %cmp1 = icmp eq i32 %conv, 125
  br i1 %cmp1, label %if.then, label %lor.lhs.false

lor.lhs.false:                                    ; preds = %cond.end
  %5 = load i8, ptr %c, align 1, !tbaa !140
  %conv2 = sext i8 %5 to i32
  %cmp3 = icmp eq i32 %conv2, 58
  br i1 %cmp3, label %if.then, label %if.end

if.then:                                          ; preds = %lor.lhs.false, %cond.end
  %6 = load ptr, ptr %handler.addr, align 8, !tbaa !215
  call void @_ZN3fmt2v68internal10id_adapterIRNS0_14format_handlerINS0_13arg_formatterINS0_12buffer_rangeIcEEEEcNS0_20basic_format_contextISt20back_insert_iteratorINS1_6bufferIcEEEcEEEEcEclEv(ptr noundef nonnull align 8 dereferenceable(8) %6)
  %7 = load ptr, ptr %begin.addr, align 8, !tbaa !61
  store ptr %7, ptr %retval, align 8
  store i32 1, ptr %cleanup.dest.slot, align 4
  br label %cleanup

if.end:                                           ; preds = %lor.lhs.false
  %8 = load i8, ptr %c, align 1, !tbaa !140
  %conv4 = sext i8 %8 to i32
  %cmp5 = icmp sge i32 %conv4, 48
  br i1 %cmp5, label %land.lhs.true, label %if.end18

land.lhs.true:                                    ; preds = %if.end
  %9 = load i8, ptr %c, align 1, !tbaa !140
  %conv6 = sext i8 %9 to i32
  %cmp7 = icmp sle i32 %conv6, 57
  br i1 %cmp7, label %if.then8, label %if.end18

if.then8:                                         ; preds = %land.lhs.true
  call void @llvm.lifetime.start.p0(i64 4, ptr %index) #5
  %10 = load ptr, ptr %end.addr, align 8, !tbaa !61
  %11 = load ptr, ptr %handler.addr, align 8, !tbaa !215
  %call = call noundef i32 @_ZN3fmt2v68internal21parse_nonnegative_intIcRNS1_10id_adapterIRNS0_14format_handlerINS0_13arg_formatterINS0_12buffer_rangeIcEEEEcNS0_20basic_format_contextISt20back_insert_iteratorINS1_6bufferIcEEEcEEEEcEEEEiRPKT_SL_OT0_(ptr noundef nonnull align 8 dereferenceable(8) %begin.addr, ptr noundef %10, ptr noundef nonnull align 8 dereferenceable(8) %11)
  store i32 %call, ptr %index, align 4, !tbaa !49
  %12 = load ptr, ptr %begin.addr, align 8, !tbaa !61
  %13 = load ptr, ptr %end.addr, align 8, !tbaa !61
  %cmp9 = icmp eq ptr %12, %13
  br i1 %cmp9, label %if.then16, label %lor.lhs.false10

lor.lhs.false10:                                  ; preds = %if.then8
  %14 = load ptr, ptr %begin.addr, align 8, !tbaa !61
  %15 = load i8, ptr %14, align 1, !tbaa !140
  %conv11 = sext i8 %15 to i32
  %cmp12 = icmp ne i32 %conv11, 125
  br i1 %cmp12, label %land.lhs.true13, label %if.else

land.lhs.true13:                                  ; preds = %lor.lhs.false10
  %16 = load ptr, ptr %begin.addr, align 8, !tbaa !61
  %17 = load i8, ptr %16, align 1, !tbaa !140
  %conv14 = sext i8 %17 to i32
  %cmp15 = icmp ne i32 %conv14, 58
  br i1 %cmp15, label %if.then16, label %if.else

if.then16:                                        ; preds = %land.lhs.true13, %if.then8
  %18 = load ptr, ptr %handler.addr, align 8, !tbaa !215
  call void @_ZN3fmt2v68internal10id_adapterIRNS0_14format_handlerINS0_13arg_formatterINS0_12buffer_rangeIcEEEEcNS0_20basic_format_contextISt20back_insert_iteratorINS1_6bufferIcEEEcEEEEcE8on_errorEPKc(ptr noundef nonnull align 8 dereferenceable(8) %18, ptr noundef @.str.11)
  br label %if.end17

if.else:                                          ; preds = %land.lhs.true13, %lor.lhs.false10
  %19 = load ptr, ptr %handler.addr, align 8, !tbaa !215
  %20 = load i32, ptr %index, align 4, !tbaa !49
  call void @_ZN3fmt2v68internal10id_adapterIRNS0_14format_handlerINS0_13arg_formatterINS0_12buffer_rangeIcEEEEcNS0_20basic_format_contextISt20back_insert_iteratorINS1_6bufferIcEEEcEEEEcEclEi(ptr noundef nonnull align 8 dereferenceable(8) %19, i32 noundef %20)
  br label %if.end17

if.end17:                                         ; preds = %if.else, %if.then16
  %21 = load ptr, ptr %begin.addr, align 8, !tbaa !61
  store ptr %21, ptr %retval, align 8
  store i32 1, ptr %cleanup.dest.slot, align 4
  call void @llvm.lifetime.end.p0(i64 4, ptr %index) #5
  br label %cleanup

if.end18:                                         ; preds = %land.lhs.true, %if.end
  %22 = load i8, ptr %c, align 1, !tbaa !140
  %call19 = call noundef zeroext i1 @_ZN3fmt2v68internal13is_name_startIcEEbT_(i8 noundef signext %22)
  br i1 %call19, label %if.end21, label %if.then20

if.then20:                                        ; preds = %if.end18
  %23 = load ptr, ptr %handler.addr, align 8, !tbaa !215
  call void @_ZN3fmt2v68internal10id_adapterIRNS0_14format_handlerINS0_13arg_formatterINS0_12buffer_rangeIcEEEEcNS0_20basic_format_contextISt20back_insert_iteratorINS1_6bufferIcEEEcEEEEcE8on_errorEPKc(ptr noundef nonnull align 8 dereferenceable(8) %23, ptr noundef @.str.11)
  %24 = load ptr, ptr %begin.addr, align 8, !tbaa !61
  store ptr %24, ptr %retval, align 8
  store i32 1, ptr %cleanup.dest.slot, align 4
  br label %cleanup

if.end21:                                         ; preds = %if.end18
  call void @llvm.lifetime.start.p0(i64 8, ptr %it) #5
  %25 = load ptr, ptr %begin.addr, align 8, !tbaa !61
  store ptr %25, ptr %it, align 8, !tbaa !61
  br label %do.body

do.body:                                          ; preds = %land.end29, %if.end21
  %26 = load ptr, ptr %it, align 8, !tbaa !61
  %incdec.ptr = getelementptr inbounds nuw i8, ptr %26, i32 1
  store ptr %incdec.ptr, ptr %it, align 8, !tbaa !61
  br label %do.cond

do.cond:                                          ; preds = %do.body
  %27 = load ptr, ptr %it, align 8, !tbaa !61
  %28 = load ptr, ptr %end.addr, align 8, !tbaa !61
  %cmp22 = icmp ne ptr %27, %28
  br i1 %cmp22, label %land.rhs, label %land.end29

land.rhs:                                         ; preds = %do.cond
  %29 = load ptr, ptr %it, align 8, !tbaa !61
  %30 = load i8, ptr %29, align 1, !tbaa !140
  store i8 %30, ptr %c, align 1, !tbaa !140
  %call23 = call noundef zeroext i1 @_ZN3fmt2v68internal13is_name_startIcEEbT_(i8 noundef signext %30)
  br i1 %call23, label %lor.end, label %lor.rhs

lor.rhs:                                          ; preds = %land.rhs
  %31 = load i8, ptr %c, align 1, !tbaa !140
  %conv24 = sext i8 %31 to i32
  %cmp25 = icmp sle i32 48, %conv24
  br i1 %cmp25, label %land.rhs26, label %land.end

land.rhs26:                                       ; preds = %lor.rhs
  %32 = load i8, ptr %c, align 1, !tbaa !140
  %conv27 = sext i8 %32 to i32
  %cmp28 = icmp sle i32 %conv27, 57
  br label %land.end

land.end:                                         ; preds = %land.rhs26, %lor.rhs
  %33 = phi i1 [ false, %lor.rhs ], [ %cmp28, %land.rhs26 ]
  br label %lor.end

lor.end:                                          ; preds = %land.end, %land.rhs
  %34 = phi i1 [ true, %land.rhs ], [ %33, %land.end ]
  br label %land.end29

land.end29:                                       ; preds = %lor.end, %do.cond
  %35 = phi i1 [ false, %do.cond ], [ %34, %lor.end ]
  br i1 %35, label %do.body, label %do.end, !llvm.loop !217

do.end:                                           ; preds = %land.end29
  %36 = load ptr, ptr %handler.addr, align 8, !tbaa !215
  %37 = load ptr, ptr %begin.addr, align 8, !tbaa !61
  %38 = load ptr, ptr %it, align 8, !tbaa !61
  %39 = load ptr, ptr %begin.addr, align 8, !tbaa !61
  %sub.ptr.lhs.cast = ptrtoint ptr %38 to i64
  %sub.ptr.rhs.cast = ptrtoint ptr %39 to i64
  %sub.ptr.sub = sub i64 %sub.ptr.lhs.cast, %sub.ptr.rhs.cast
  %call30 = call noundef i64 @_ZN3fmt2v68internal11to_unsignedIlEENSt13make_unsignedIT_E4typeES4_(i64 noundef %sub.ptr.sub)
  call void @_ZN3fmt2v617basic_string_viewIcEC2EPKcm(ptr noundef nonnull align 8 dereferenceable(16) %agg.tmp, ptr noundef %37, i64 noundef %call30) #5
  %40 = getelementptr inbounds nuw { ptr, i64 }, ptr %agg.tmp, i32 0, i32 0
  %41 = load ptr, ptr %40, align 8
  %42 = getelementptr inbounds nuw { ptr, i64 }, ptr %agg.tmp, i32 0, i32 1
  %43 = load i64, ptr %42, align 8
  call void @_ZN3fmt2v68internal10id_adapterIRNS0_14format_handlerINS0_13arg_formatterINS0_12buffer_rangeIcEEEEcNS0_20basic_format_contextISt20back_insert_iteratorINS1_6bufferIcEEEcEEEEcEclENS0_17basic_string_viewIcEE(ptr noundef nonnull align 8 dereferenceable(8) %36, ptr %41, i64 %43)
  %44 = load ptr, ptr %it, align 8, !tbaa !61
  store ptr %44, ptr %retval, align 8
  store i32 1, ptr %cleanup.dest.slot, align 4
  call void @llvm.lifetime.end.p0(i64 8, ptr %it) #5
  br label %cleanup

cleanup:                                          ; preds = %do.end, %if.then20, %if.end17, %if.then
  call void @llvm.lifetime.end.p0(i64 1, ptr %c) #5
  %45 = load ptr, ptr %retval, align 8
  ret ptr %45
}

; Function Attrs: mustprogress uwtable
define linkonce_odr noundef ptr @_ZN3fmt2v614format_handlerINS0_13arg_formatterINS0_12buffer_rangeIcEEEEcNS0_20basic_format_contextISt20back_insert_iteratorINS0_8internal6bufferIcEEEcEEE15on_format_specsEPKcSF_(ptr noundef nonnull align 16 dereferenceable(112) %this, ptr noundef %begin, ptr noundef %end) #0 comdat align 2 {
entry:
  %retval = alloca ptr, align 8
  %this.addr = alloca ptr, align 8
  %begin.addr = alloca ptr, align 8
  %end.addr = alloca ptr, align 8
  %f = alloca %"class.fmt::v6::internal::custom_formatter", align 8
  %cleanup.dest.slot = alloca i32, align 4
  %specs = alloca %"struct.fmt::v6::basic_format_specs", align 4
  %handler = alloca %"class.fmt::v6::internal::specs_checker", align 8
  %ref.tmp = alloca %"class.fmt::v6::internal::specs_handler", align 8
  %agg.tmp = alloca %"class.std::back_insert_iterator", align 8
  %ref.tmp15 = alloca %"class.fmt::v6::arg_formatter", align 8
  store ptr %this, ptr %this.addr, align 8, !tbaa !180
  store ptr %begin, ptr %begin.addr, align 8, !tbaa !61
  store ptr %end, ptr %end.addr, align 8, !tbaa !61
  %this1 = load ptr, ptr %this.addr, align 8
  %parse_context = getelementptr inbounds nuw %"struct.fmt::v6::format_handler", ptr %this1, i32 0, i32 1
  %0 = load ptr, ptr %begin.addr, align 8, !tbaa !61
  call void @_ZN3fmt2v610advance_toIcNS0_8internal13error_handlerEEEvRNS0_26basic_format_parse_contextIT_T0_EEPKS5_(ptr noundef nonnull align 8 dereferenceable(20) %parse_context, ptr noundef %0)
  call void @llvm.lifetime.start.p0(i64 16, ptr %f) #5
  %parse_context2 = getelementptr inbounds nuw %"struct.fmt::v6::format_handler", ptr %this1, i32 0, i32 1
  %context = getelementptr inbounds nuw %"struct.fmt::v6::format_handler", ptr %this1, i32 0, i32 2
  call void @_ZN3fmt2v68internal16custom_formatterINS0_20basic_format_contextISt20back_insert_iteratorINS1_6bufferIcEEEcEEEC2ERNS0_26basic_format_parse_contextIcNS1_13error_handlerEEERS8_(ptr noundef nonnull align 8 dereferenceable(16) %f, ptr noundef nonnull align 8 dereferenceable(20) %parse_context2, ptr noundef nonnull align 8 dereferenceable(48) %context)
  %arg = getelementptr inbounds nuw %"struct.fmt::v6::format_handler", ptr %this1, i32 0, i32 3
  %call = call noundef zeroext i1 @_ZN3fmt2v616visit_format_argIRNS0_8internal16custom_formatterINS0_20basic_format_contextISt20back_insert_iteratorINS2_6bufferIcEEEcEEEES9_EEDTclfp_Li0EEEOT_RKNS0_16basic_format_argIT0_EE(ptr noundef nonnull align 8 dereferenceable(16) %f, ptr noundef nonnull align 16 dereferenceable(20) %arg)
  br i1 %call, label %if.then, label %if.end

if.then:                                          ; preds = %entry
  %parse_context3 = getelementptr inbounds nuw %"struct.fmt::v6::format_handler", ptr %this1, i32 0, i32 1
  %call4 = call noundef ptr @_ZNK3fmt2v626basic_format_parse_contextIcNS0_8internal13error_handlerEE5beginEv(ptr noundef nonnull align 8 dereferenceable(20) %parse_context3) #5
  store ptr %call4, ptr %retval, align 8
  store i32 1, ptr %cleanup.dest.slot, align 4
  br label %cleanup

if.end:                                           ; preds = %entry
  call void @llvm.lifetime.start.p0(i64 16, ptr %specs) #5
  call void @_ZN3fmt2v618basic_format_specsIcEC2Ev(ptr noundef nonnull align 4 dereferenceable(16) %specs)
  call void @llvm.lifetime.start.p0(i64 40, ptr %handler) #5
  call void @llvm.lifetime.start.p0(i64 24, ptr %ref.tmp) #5
  %parse_context5 = getelementptr inbounds nuw %"struct.fmt::v6::format_handler", ptr %this1, i32 0, i32 1
  %context6 = getelementptr inbounds nuw %"struct.fmt::v6::format_handler", ptr %this1, i32 0, i32 2
  call void @_ZN3fmt2v68internal13specs_handlerINS0_26basic_format_parse_contextIcNS1_13error_handlerEEENS0_20basic_format_contextISt20back_insert_iteratorINS1_6bufferIcEEEcEEEC2ERNS0_18basic_format_specsIcEERS5_RSB_(ptr noundef nonnull align 8 dereferenceable(24) %ref.tmp, ptr noundef nonnull align 4 dereferenceable(16) %specs, ptr noundef nonnull align 8 dereferenceable(20) %parse_context5, ptr noundef nonnull align 8 dereferenceable(48) %context6)
  %arg7 = getelementptr inbounds nuw %"struct.fmt::v6::format_handler", ptr %this1, i32 0, i32 3
  %call8 = call noundef i32 @_ZNK3fmt2v616basic_format_argINS0_20basic_format_contextISt20back_insert_iteratorINS0_8internal6bufferIcEEEcEEE4typeEv(ptr noundef nonnull align 16 dereferenceable(20) %arg7)
  call void @_ZN3fmt2v68internal13specs_checkerINS1_13specs_handlerINS0_26basic_format_parse_contextIcNS1_13error_handlerEEENS0_20basic_format_contextISt20back_insert_iteratorINS1_6bufferIcEEEcEEEEEC2ERKSD_NS1_4typeE(ptr noundef nonnull align 8 dereferenceable(40) %handler, ptr noundef nonnull align 8 dereferenceable(24) %ref.tmp, i32 noundef %call8)
  call void @llvm.lifetime.end.p0(i64 24, ptr %ref.tmp) #5
  %1 = load ptr, ptr %begin.addr, align 8, !tbaa !61
  %2 = load ptr, ptr %end.addr, align 8, !tbaa !61
  %call9 = call noundef ptr @_ZN3fmt2v68internal18parse_format_specsIcRNS1_13specs_checkerINS1_13specs_handlerINS0_26basic_format_parse_contextIcNS1_13error_handlerEEENS0_20basic_format_contextISt20back_insert_iteratorINS1_6bufferIcEEEcEEEEEEEEPKT_SJ_SJ_OT0_(ptr noundef %1, ptr noundef %2, ptr noundef nonnull align 8 dereferenceable(40) %handler)
  store ptr %call9, ptr %begin.addr, align 8, !tbaa !61
  %3 = load ptr, ptr %begin.addr, align 8, !tbaa !61
  %4 = load ptr, ptr %end.addr, align 8, !tbaa !61
  %cmp = icmp eq ptr %3, %4
  br i1 %cmp, label %if.then11, label %lor.lhs.false

lor.lhs.false:                                    ; preds = %if.end
  %5 = load ptr, ptr %begin.addr, align 8, !tbaa !61
  %6 = load i8, ptr %5, align 1, !tbaa !140
  %conv = sext i8 %6 to i32
  %cmp10 = icmp ne i32 %conv, 125
  br i1 %cmp10, label %if.then11, label %if.end12

if.then11:                                        ; preds = %lor.lhs.false, %if.end
  call void @_ZN3fmt2v68internal13error_handler8on_errorEPKc(ptr noundef nonnull align 1 dereferenceable(1) %this1, ptr noundef @.str.13) #24
  unreachable

if.end12:                                         ; preds = %lor.lhs.false
  %parse_context13 = getelementptr inbounds nuw %"struct.fmt::v6::format_handler", ptr %this1, i32 0, i32 1
  %7 = load ptr, ptr %begin.addr, align 8, !tbaa !61
  call void @_ZN3fmt2v610advance_toIcNS0_8internal13error_handlerEEEvRNS0_26basic_format_parse_contextIT_T0_EEPKS5_(ptr noundef nonnull align 8 dereferenceable(20) %parse_context13, ptr noundef %7)
  %context14 = getelementptr inbounds nuw %"struct.fmt::v6::format_handler", ptr %this1, i32 0, i32 2
  call void @llvm.lifetime.start.p0(i64 40, ptr %ref.tmp15) #5
  %context16 = getelementptr inbounds nuw %"struct.fmt::v6::format_handler", ptr %this1, i32 0, i32 2
  %parse_context17 = getelementptr inbounds nuw %"struct.fmt::v6::format_handler", ptr %this1, i32 0, i32 1
  call void @_ZN3fmt2v613arg_formatterINS0_12buffer_rangeIcEEEC2ERNS0_20basic_format_contextISt20back_insert_iteratorINS0_8internal6bufferIcEEEcEEPNS0_26basic_format_parse_contextIcNS7_13error_handlerEEEPNS0_18basic_format_specsIcEE(ptr noundef nonnull align 8 dereferenceable(40) %ref.tmp15, ptr noundef nonnull align 8 dereferenceable(48) %context16, ptr noundef %parse_context17, ptr noundef %specs)
  %arg18 = getelementptr inbounds nuw %"struct.fmt::v6::format_handler", ptr %this1, i32 0, i32 3
  %call19 = call ptr @_ZN3fmt2v616visit_format_argINS0_13arg_formatterINS0_12buffer_rangeIcEEEENS0_20basic_format_contextISt20back_insert_iteratorINS0_8internal6bufferIcEEEcEEEEDTclfp_Li0EEEOT_RKNS0_16basic_format_argIT0_EE(ptr noundef nonnull align 8 dereferenceable(40) %ref.tmp15, ptr noundef nonnull align 16 dereferenceable(20) %arg18)
  %coerce.dive = getelementptr inbounds nuw %"class.std::back_insert_iterator", ptr %agg.tmp, i32 0, i32 0
  store ptr %call19, ptr %coerce.dive, align 8
  %coerce.dive20 = getelementptr inbounds nuw %"class.std::back_insert_iterator", ptr %agg.tmp, i32 0, i32 0
  %8 = load ptr, ptr %coerce.dive20, align 8
  call void @_ZN3fmt2v620basic_format_contextISt20back_insert_iteratorINS0_8internal6bufferIcEEEcE10advance_toES6_(ptr noundef nonnull align 8 dereferenceable(48) %context14, ptr %8)
  call void @llvm.lifetime.end.p0(i64 40, ptr %ref.tmp15) #5
  %9 = load ptr, ptr %begin.addr, align 8, !tbaa !61
  store ptr %9, ptr %retval, align 8
  store i32 1, ptr %cleanup.dest.slot, align 4
  call void @llvm.lifetime.end.p0(i64 40, ptr %handler) #5
  call void @llvm.lifetime.end.p0(i64 16, ptr %specs) #5
  br label %cleanup

cleanup:                                          ; preds = %if.end12, %if.then
  call void @llvm.lifetime.end.p0(i64 16, ptr %f) #5
  %10 = load ptr, ptr %retval, align 8
  ret ptr %10
}

; Function Attrs: nounwind willreturn memory(read)
declare noundef ptr @memchr(ptr noundef, i32 noundef, i64 noundef) #18

; Function Attrs: mustprogress uwtable
define linkonce_odr noundef i64 @_ZN3fmt2v68internal11to_unsignedIlEENSt13make_unsignedIT_E4typeES4_(i64 noundef %value) #0 comdat {
entry:
  %value.addr = alloca i64, align 8
  store i64 %value, ptr %value.addr, align 8, !tbaa !51
  %0 = load i64, ptr %value.addr, align 8, !tbaa !51
  %cmp = icmp sge i64 %0, 0
  br i1 %cmp, label %cond.true, label %cond.false

cond.true:                                        ; preds = %entry
  br label %cond.end

cond.false:                                       ; preds = %entry
  call void @_ZN3fmt2v68internal11assert_failEPKciS3_(ptr noundef @.str.14, i32 noundef 284, ptr noundef @.str.15)
  br label %cond.end

cond.end:                                         ; preds = %cond.false, %cond.true
  %1 = load i64, ptr %value.addr, align 8, !tbaa !51
  ret i64 %1
}

declare void @_ZN3fmt2v68internal11assert_failEPKciS3_(ptr noundef, i32 noundef, ptr noundef) #3

; Function Attrs: mustprogress uwtable
define linkonce_odr void @_ZN3fmt2v614format_handlerINS0_13arg_formatterINS0_12buffer_rangeIcEEEEcNS0_20basic_format_contextISt20back_insert_iteratorINS0_8internal6bufferIcEEEcEEE7get_argEi(ptr noundef nonnull align 16 dereferenceable(112) %this, i32 noundef %id) #0 comdat align 2 {
entry:
  %this.addr = alloca ptr, align 8
  %id.addr = alloca i32, align 4
  %ref.tmp = alloca %"class.fmt::v6::basic_format_arg", align 16
  store ptr %this, ptr %this.addr, align 8, !tbaa !180
  store i32 %id, ptr %id.addr, align 4, !tbaa !49
  %this1 = load ptr, ptr %this.addr, align 8
  call void @llvm.lifetime.start.p0(i64 32, ptr %ref.tmp) #5
  %context = getelementptr inbounds nuw %"struct.fmt::v6::format_handler", ptr %this1, i32 0, i32 2
  %0 = load i32, ptr %id.addr, align 4, !tbaa !49
  call void @_ZN3fmt2v68internal7get_argINS0_20basic_format_contextISt20back_insert_iteratorINS1_6bufferIcEEEcEEEENT_10format_argERS9_i(ptr dead_on_unwind writable sret(%"class.fmt::v6::basic_format_arg") align 16 %ref.tmp, ptr noundef nonnull align 8 dereferenceable(48) %context, i32 noundef %0)
  %arg = getelementptr inbounds nuw %"struct.fmt::v6::format_handler", ptr %this1, i32 0, i32 3
  call void @llvm.memcpy.p0.p0.i64(ptr align 16 %arg, ptr align 16 %ref.tmp, i64 20, i1 false), !tbaa.struct !218
  call void @llvm.lifetime.end.p0(i64 32, ptr %ref.tmp) #5
  ret void
}

; Function Attrs: mustprogress uwtable
define linkonce_odr noundef i32 @_ZN3fmt2v626basic_format_parse_contextIcNS0_8internal13error_handlerEE11next_arg_idEv(ptr noundef nonnull align 8 dereferenceable(20) %this) #0 comdat align 2 {
entry:
  %retval = alloca i32, align 4
  %this.addr = alloca ptr, align 8
  store ptr %this, ptr %this.addr, align 8, !tbaa !185
  %this1 = load ptr, ptr %this.addr, align 8
  %next_arg_id_ = getelementptr inbounds nuw %"class.fmt::v6::basic_format_parse_context", ptr %this1, i32 0, i32 1
  %0 = load i32, ptr %next_arg_id_, align 8, !tbaa !187
  %cmp = icmp sge i32 %0, 0
  br i1 %cmp, label %if.then, label %if.end

if.then:                                          ; preds = %entry
  %next_arg_id_2 = getelementptr inbounds nuw %"class.fmt::v6::basic_format_parse_context", ptr %this1, i32 0, i32 1
  %1 = load i32, ptr %next_arg_id_2, align 8, !tbaa !187
  %inc = add nsw i32 %1, 1
  store i32 %inc, ptr %next_arg_id_2, align 8, !tbaa !187
  store i32 %1, ptr %retval, align 4
  br label %return

if.end:                                           ; preds = %entry
  call void @_ZN3fmt2v626basic_format_parse_contextIcNS0_8internal13error_handlerEE8on_errorEPKc(ptr noundef nonnull align 8 dereferenceable(20) %this1, ptr noundef @.str.18)
  store i32 0, ptr %retval, align 4
  br label %return

return:                                           ; preds = %if.end, %if.then
  %2 = load i32, ptr %retval, align 4
  ret i32 %2
}

; Function Attrs: mustprogress uwtable
define linkonce_odr void @_ZN3fmt2v68internal7get_argINS0_20basic_format_contextISt20back_insert_iteratorINS1_6bufferIcEEEcEEEENT_10format_argERS9_i(ptr dead_on_unwind noalias writable sret(%"class.fmt::v6::basic_format_arg") align 16 %agg.result, ptr noundef nonnull align 8 dereferenceable(48) %ctx, i32 noundef %id) #0 comdat {
entry:
  %ctx.addr = alloca ptr, align 8
  %id.addr = alloca i32, align 4
  store ptr %ctx, ptr %ctx.addr, align 8, !tbaa !183
  store i32 %id, ptr %id.addr, align 4, !tbaa !49
  %0 = load ptr, ptr %ctx.addr, align 8, !tbaa !183
  %1 = load i32, ptr %id.addr, align 4, !tbaa !49
  call void @_ZNK3fmt2v620basic_format_contextISt20back_insert_iteratorINS0_8internal6bufferIcEEEcE3argEi(ptr dead_on_unwind writable sret(%"class.fmt::v6::basic_format_arg") align 16 %agg.result, ptr noundef nonnull align 8 dereferenceable(48) %0, i32 noundef %1)
  %call = call noundef zeroext i1 @_ZNK3fmt2v616basic_format_argINS0_20basic_format_contextISt20back_insert_iteratorINS0_8internal6bufferIcEEEcEEEcvbEv(ptr noundef nonnull align 16 dereferenceable(20) %agg.result) #5
  br i1 %call, label %if.end, label %if.then

if.then:                                          ; preds = %entry
  %2 = load ptr, ptr %ctx.addr, align 8, !tbaa !183
  call void @_ZN3fmt2v620basic_format_contextISt20back_insert_iteratorINS0_8internal6bufferIcEEEcE8on_errorEPKc(ptr noundef nonnull align 8 dereferenceable(48) %2, ptr noundef @.str.17)
  br label %if.end

if.end:                                           ; preds = %if.then, %entry
  ret void
}

; Function Attrs: mustprogress uwtable
define linkonce_odr void @_ZNK3fmt2v620basic_format_contextISt20back_insert_iteratorINS0_8internal6bufferIcEEEcE3argEi(ptr dead_on_unwind noalias writable sret(%"class.fmt::v6::basic_format_arg") align 16 %agg.result, ptr noundef nonnull align 8 dereferenceable(48) %this, i32 noundef %id) #0 comdat align 2 {
entry:
  %this.addr = alloca ptr, align 8
  %id.addr = alloca i32, align 4
  store ptr %this, ptr %this.addr, align 8, !tbaa !183
  store i32 %id, ptr %id.addr, align 4, !tbaa !49
  %this1 = load ptr, ptr %this.addr, align 8
  %args_ = getelementptr inbounds nuw %"class.fmt::v6::basic_format_context", ptr %this1, i32 0, i32 1
  %0 = load i32, ptr %id.addr, align 4, !tbaa !49
  call void @_ZNK3fmt2v617basic_format_argsINS0_20basic_format_contextISt20back_insert_iteratorINS0_8internal6bufferIcEEEcEEE3getEi(ptr dead_on_unwind writable sret(%"class.fmt::v6::basic_format_arg") align 16 %agg.result, ptr noundef nonnull align 8 dereferenceable(16) %args_, i32 noundef %0)
  ret void
}

; Function Attrs: mustprogress nounwind uwtable
define linkonce_odr noundef zeroext i1 @_ZNK3fmt2v616basic_format_argINS0_20basic_format_contextISt20back_insert_iteratorINS0_8internal6bufferIcEEEcEEEcvbEv(ptr noundef nonnull align 16 dereferenceable(20) %this) #6 comdat align 2 {
entry:
  %this.addr = alloca ptr, align 8
  store ptr %this, ptr %this.addr, align 8, !tbaa !192
  %this1 = load ptr, ptr %this.addr, align 8
  %type_ = getelementptr inbounds nuw %"class.fmt::v6::basic_format_arg", ptr %this1, i32 0, i32 1
  %0 = load i32, ptr %type_, align 16, !tbaa !194
  %cmp = icmp ne i32 %0, 0
  ret i1 %cmp
}

; Function Attrs: mustprogress uwtable
define linkonce_odr void @_ZN3fmt2v620basic_format_contextISt20back_insert_iteratorINS0_8internal6bufferIcEEEcE8on_errorEPKc(ptr noundef nonnull align 8 dereferenceable(48) %this, ptr noundef %message) #0 comdat align 2 {
entry:
  %this.addr = alloca ptr, align 8
  %message.addr = alloca ptr, align 8
  %ref.tmp = alloca %"struct.fmt::v6::internal::error_handler", align 1
  %undef.agg.tmp = alloca %"struct.fmt::v6::internal::error_handler", align 1
  store ptr %this, ptr %this.addr, align 8, !tbaa !183
  store ptr %message, ptr %message.addr, align 8, !tbaa !61
  %this1 = load ptr, ptr %this.addr, align 8
  call void @llvm.lifetime.start.p0(i64 1, ptr %ref.tmp) #5
  call void @_ZN3fmt2v620basic_format_contextISt20back_insert_iteratorINS0_8internal6bufferIcEEEcE13error_handlerEv(ptr noundef nonnull align 8 dereferenceable(48) %this1)
  %0 = load ptr, ptr %message.addr, align 8, !tbaa !61
  call void @_ZN3fmt2v68internal13error_handler8on_errorEPKc(ptr noundef nonnull align 1 dereferenceable(1) %ref.tmp, ptr noundef %0) #24
  unreachable
}

; Function Attrs: mustprogress uwtable
define linkonce_odr void @_ZNK3fmt2v617basic_format_argsINS0_20basic_format_contextISt20back_insert_iteratorINS0_8internal6bufferIcEEEcEEE3getEi(ptr dead_on_unwind noalias writable sret(%"class.fmt::v6::basic_format_arg") align 16 %agg.result, ptr noundef nonnull align 8 dereferenceable(16) %this, i32 noundef %index) #0 comdat align 2 {
entry:
  %this.addr = alloca ptr, align 8
  %index.addr = alloca i32, align 4
  %ref.tmp = alloca %"class.fmt::v6::basic_format_arg", align 16
  store ptr %this, ptr %this.addr, align 8, !tbaa !158
  store i32 %index, ptr %index.addr, align 4, !tbaa !49
  %this1 = load ptr, ptr %this.addr, align 8
  %0 = load i32, ptr %index.addr, align 4, !tbaa !49
  call void @_ZNK3fmt2v617basic_format_argsINS0_20basic_format_contextISt20back_insert_iteratorINS0_8internal6bufferIcEEEcEEE6do_getEi(ptr dead_on_unwind writable sret(%"class.fmt::v6::basic_format_arg") align 16 %agg.result, ptr noundef nonnull align 8 dereferenceable(16) %this1, i32 noundef %0)
  %type_ = getelementptr inbounds nuw %"class.fmt::v6::basic_format_arg", ptr %agg.result, i32 0, i32 1
  %1 = load i32, ptr %type_, align 16, !tbaa !194
  %cmp = icmp eq i32 %1, 1
  br i1 %cmp, label %if.then, label %if.end

if.then:                                          ; preds = %entry
  call void @llvm.lifetime.start.p0(i64 32, ptr %ref.tmp) #5
  %value_ = getelementptr inbounds nuw %"class.fmt::v6::basic_format_arg", ptr %agg.result, i32 0, i32 0
  %2 = getelementptr inbounds nuw %"class.fmt::v6::internal::value", ptr %value_, i32 0, i32 0
  %3 = load ptr, ptr %2, align 16, !tbaa !140
  call void @_ZNK3fmt2v68internal14named_arg_baseIcE11deserializeINS0_20basic_format_contextISt20back_insert_iteratorINS1_6bufferIcEEEcEEEENS0_16basic_format_argIT_EEv(ptr dead_on_unwind writable sret(%"class.fmt::v6::basic_format_arg") align 16 %ref.tmp, ptr noundef nonnull align 8 dereferenceable(48) %3)
  call void @llvm.memcpy.p0.p0.i64(ptr align 16 %agg.result, ptr align 16 %ref.tmp, i64 20, i1 false), !tbaa.struct !218
  call void @llvm.lifetime.end.p0(i64 32, ptr %ref.tmp) #5
  br label %if.end

if.end:                                           ; preds = %if.then, %entry
  ret void
}

; Function Attrs: mustprogress uwtable
define linkonce_odr void @_ZNK3fmt2v617basic_format_argsINS0_20basic_format_contextISt20back_insert_iteratorINS0_8internal6bufferIcEEEcEEE6do_getEi(ptr dead_on_unwind noalias writable sret(%"class.fmt::v6::basic_format_arg") align 16 %agg.result, ptr noundef nonnull align 8 dereferenceable(16) %this, i32 noundef %index) #0 comdat align 2 {
entry:
  %this.addr = alloca ptr, align 8
  %index.addr = alloca i32, align 4
  %num_args = alloca i32, align 4
  %val = alloca ptr, align 8
  store ptr %this, ptr %this.addr, align 8, !tbaa !158
  store i32 %index, ptr %index.addr, align 4, !tbaa !49
  %this1 = load ptr, ptr %this.addr, align 8
  call void @_ZN3fmt2v616basic_format_argINS0_20basic_format_contextISt20back_insert_iteratorINS0_8internal6bufferIcEEEcEEEC2Ev(ptr noundef nonnull align 16 dereferenceable(20) %agg.result)
  %call = call noundef zeroext i1 @_ZNK3fmt2v617basic_format_argsINS0_20basic_format_contextISt20back_insert_iteratorINS0_8internal6bufferIcEEEcEEE9is_packedEv(ptr noundef nonnull align 8 dereferenceable(16) %this1)
  br i1 %call, label %if.end4, label %if.then

if.then:                                          ; preds = %entry
  call void @llvm.lifetime.start.p0(i64 4, ptr %num_args) #5
  %call2 = call noundef i32 @_ZNK3fmt2v617basic_format_argsINS0_20basic_format_contextISt20back_insert_iteratorINS0_8internal6bufferIcEEEcEEE8max_sizeEv(ptr noundef nonnull align 8 dereferenceable(16) %this1)
  store i32 %call2, ptr %num_args, align 4, !tbaa !49
  %0 = load i32, ptr %index.addr, align 4, !tbaa !49
  %1 = load i32, ptr %num_args, align 4, !tbaa !49
  %cmp = icmp slt i32 %0, %1
  br i1 %cmp, label %if.then3, label %if.end

if.then3:                                         ; preds = %if.then
  %2 = getelementptr inbounds nuw %"class.fmt::v6::basic_format_args", ptr %this1, i32 0, i32 1
  %3 = load ptr, ptr %2, align 8, !tbaa !140
  %4 = load i32, ptr %index.addr, align 4, !tbaa !49
  %idxprom = sext i32 %4 to i64
  %arrayidx = getelementptr inbounds %"class.fmt::v6::basic_format_arg", ptr %3, i64 %idxprom
  call void @llvm.memcpy.p0.p0.i64(ptr align 16 %agg.result, ptr align 16 %arrayidx, i64 20, i1 false), !tbaa.struct !218
  br label %if.end

if.end:                                           ; preds = %if.then3, %if.then
  call void @llvm.lifetime.end.p0(i64 4, ptr %num_args) #5
  br label %return

if.end4:                                          ; preds = %entry
  %5 = load i32, ptr %index.addr, align 4, !tbaa !49
  %cmp5 = icmp sgt i32 %5, 12
  br i1 %cmp5, label %if.then6, label %if.end7

if.then6:                                         ; preds = %if.end4
  br label %return

if.end7:                                          ; preds = %if.end4
  %6 = load i32, ptr %index.addr, align 4, !tbaa !49
  %call8 = call noundef i32 @_ZNK3fmt2v617basic_format_argsINS0_20basic_format_contextISt20back_insert_iteratorINS0_8internal6bufferIcEEEcEEE4typeEi(ptr noundef nonnull align 8 dereferenceable(16) %this1, i32 noundef %6)
  %type_ = getelementptr inbounds nuw %"class.fmt::v6::basic_format_arg", ptr %agg.result, i32 0, i32 1
  store i32 %call8, ptr %type_, align 16, !tbaa !194
  %type_9 = getelementptr inbounds nuw %"class.fmt::v6::basic_format_arg", ptr %agg.result, i32 0, i32 1
  %7 = load i32, ptr %type_9, align 16, !tbaa !194
  %cmp10 = icmp eq i32 %7, 0
  br i1 %cmp10, label %if.then11, label %if.end12

if.then11:                                        ; preds = %if.end7
  br label %return

if.end12:                                         ; preds = %if.end7
  call void @llvm.lifetime.start.p0(i64 8, ptr %val) #5
  %value_ = getelementptr inbounds nuw %"class.fmt::v6::basic_format_arg", ptr %agg.result, i32 0, i32 0
  store ptr %value_, ptr %val, align 8, !tbaa !204
  %8 = getelementptr inbounds nuw %"class.fmt::v6::basic_format_args", ptr %this1, i32 0, i32 1
  %9 = load ptr, ptr %8, align 8, !tbaa !140
  %10 = load i32, ptr %index.addr, align 4, !tbaa !49
  %idxprom13 = sext i32 %10 to i64
  %arrayidx14 = getelementptr inbounds %"class.fmt::v6::internal::value", ptr %9, i64 %idxprom13
  %11 = load ptr, ptr %val, align 8, !tbaa !204
  call void @llvm.memcpy.p0.p0.i64(ptr align 16 %11, ptr align 16 %arrayidx14, i64 16, i1 false), !tbaa.struct !220
  call void @llvm.lifetime.end.p0(i64 8, ptr %val) #5
  br label %return

return:                                           ; preds = %if.end12, %if.then11, %if.then6, %if.end
  ret void
}

; Function Attrs: mustprogress uwtable
define linkonce_odr void @_ZNK3fmt2v68internal14named_arg_baseIcE11deserializeINS0_20basic_format_contextISt20back_insert_iteratorINS1_6bufferIcEEEcEEEENS0_16basic_format_argIT_EEv(ptr dead_on_unwind noalias writable sret(%"class.fmt::v6::basic_format_arg") align 16 %agg.result, ptr noundef nonnull align 8 dereferenceable(48) %this) #0 comdat align 2 {
entry:
  %this.addr = alloca ptr, align 8
  store ptr %this, ptr %this.addr, align 8, !tbaa !221
  %this1 = load ptr, ptr %this.addr, align 8
  call void @_ZN3fmt2v616basic_format_argINS0_20basic_format_contextISt20back_insert_iteratorINS0_8internal6bufferIcEEEcEEEC2Ev(ptr noundef nonnull align 16 dereferenceable(20) %agg.result)
  %data = getelementptr inbounds nuw %"struct.fmt::v6::internal::named_arg_base", ptr %this1, i32 0, i32 1
  %arraydecay = getelementptr inbounds [32 x i8], ptr %data, i64 0, i64 0
  call void @llvm.memcpy.p0.p0.i64(ptr align 16 %agg.result, ptr align 8 %arraydecay, i64 32, i1 false)
  ret void
}

; Function Attrs: mustprogress nounwind uwtable
define linkonce_odr noundef zeroext i1 @_ZNK3fmt2v617basic_format_argsINS0_20basic_format_contextISt20back_insert_iteratorINS0_8internal6bufferIcEEEcEEE9is_packedEv(ptr noundef nonnull align 8 dereferenceable(16) %this) #6 comdat align 2 {
entry:
  %this.addr = alloca ptr, align 8
  store ptr %this, ptr %this.addr, align 8, !tbaa !158
  %this1 = load ptr, ptr %this.addr, align 8
  %types_ = getelementptr inbounds nuw %"class.fmt::v6::basic_format_args", ptr %this1, i32 0, i32 0
  %0 = load i64, ptr %types_, align 8, !tbaa !162
  %and = and i64 %0, -9223372036854775808
  %cmp = icmp eq i64 %and, 0
  ret i1 %cmp
}

; Function Attrs: mustprogress nounwind uwtable
define linkonce_odr noundef i32 @_ZNK3fmt2v617basic_format_argsINS0_20basic_format_contextISt20back_insert_iteratorINS0_8internal6bufferIcEEEcEEE8max_sizeEv(ptr noundef nonnull align 8 dereferenceable(16) %this) #6 comdat align 2 {
entry:
  %this.addr = alloca ptr, align 8
  %max_packed = alloca i64, align 8
  store ptr %this, ptr %this.addr, align 8, !tbaa !158
  %this1 = load ptr, ptr %this.addr, align 8
  call void @llvm.lifetime.start.p0(i64 8, ptr %max_packed) #5
  store i64 12, ptr %max_packed, align 8, !tbaa !156
  %call = call noundef zeroext i1 @_ZNK3fmt2v617basic_format_argsINS0_20basic_format_contextISt20back_insert_iteratorINS0_8internal6bufferIcEEEcEEE9is_packedEv(ptr noundef nonnull align 8 dereferenceable(16) %this1)
  br i1 %call, label %cond.true, label %cond.false

cond.true:                                        ; preds = %entry
  %0 = load i64, ptr %max_packed, align 8, !tbaa !156
  br label %cond.end

cond.false:                                       ; preds = %entry
  %types_ = getelementptr inbounds nuw %"class.fmt::v6::basic_format_args", ptr %this1, i32 0, i32 0
  %1 = load i64, ptr %types_, align 8, !tbaa !162
  %and = and i64 %1, 9223372036854775807
  br label %cond.end

cond.end:                                         ; preds = %cond.false, %cond.true
  %cond = phi i64 [ %0, %cond.true ], [ %and, %cond.false ]
  %conv = trunc i64 %cond to i32
  call void @llvm.lifetime.end.p0(i64 8, ptr %max_packed) #5
  ret i32 %conv
}

; Function Attrs: mustprogress nounwind uwtable
define linkonce_odr noundef i32 @_ZNK3fmt2v617basic_format_argsINS0_20basic_format_contextISt20back_insert_iteratorINS0_8internal6bufferIcEEEcEEE4typeEi(ptr noundef nonnull align 8 dereferenceable(16) %this, i32 noundef %index) #6 comdat align 2 {
entry:
  %this.addr = alloca ptr, align 8
  %index.addr = alloca i32, align 4
  %shift = alloca i32, align 4
  %mask = alloca i32, align 4
  store ptr %this, ptr %this.addr, align 8, !tbaa !158
  store i32 %index, ptr %index.addr, align 4, !tbaa !49
  %this1 = load ptr, ptr %this.addr, align 8
  call void @llvm.lifetime.start.p0(i64 4, ptr %shift) #5
  %0 = load i32, ptr %index.addr, align 4, !tbaa !49
  %mul = mul nsw i32 %0, 5
  store i32 %mul, ptr %shift, align 4, !tbaa !49
  call void @llvm.lifetime.start.p0(i64 4, ptr %mask) #5
  store i32 31, ptr %mask, align 4, !tbaa !49
  %types_ = getelementptr inbounds nuw %"class.fmt::v6::basic_format_args", ptr %this1, i32 0, i32 0
  %1 = load i64, ptr %types_, align 8, !tbaa !162
  %2 = load i32, ptr %shift, align 4, !tbaa !49
  %sh_prom = zext i32 %2 to i64
  %shr = lshr i64 %1, %sh_prom
  %3 = load i32, ptr %mask, align 4, !tbaa !49
  %conv = zext i32 %3 to i64
  %and = and i64 %shr, %conv
  %conv2 = trunc i64 %and to i32
  call void @llvm.lifetime.end.p0(i64 4, ptr %mask) #5
  call void @llvm.lifetime.end.p0(i64 4, ptr %shift) #5
  ret i32 %conv2
}

; Function Attrs: mustprogress nounwind uwtable
define linkonce_odr void @_ZN3fmt2v620basic_format_contextISt20back_insert_iteratorINS0_8internal6bufferIcEEEcE13error_handlerEv(ptr noundef nonnull align 8 dereferenceable(48) %this) #6 comdat align 2 {
entry:
  %this.addr = alloca ptr, align 8
  store ptr %this, ptr %this.addr, align 8, !tbaa !183
  %this1 = load ptr, ptr %this.addr, align 8
  ret void
}

; Function Attrs: mustprogress uwtable
define linkonce_odr void @_ZN3fmt2v626basic_format_parse_contextIcNS0_8internal13error_handlerEE8on_errorEPKc(ptr noundef nonnull align 8 dereferenceable(20) %this, ptr noundef %message) #0 comdat align 2 {
entry:
  %this.addr = alloca ptr, align 8
  %message.addr = alloca ptr, align 8
  store ptr %this, ptr %this.addr, align 8, !tbaa !185
  store ptr %message, ptr %message.addr, align 8, !tbaa !61
  %this1 = load ptr, ptr %this.addr, align 8
  %0 = load ptr, ptr %message.addr, align 8, !tbaa !61
  call void @_ZN3fmt2v68internal13error_handler8on_errorEPKc(ptr noundef nonnull align 1 dereferenceable(1) %this1, ptr noundef %0) #24
  unreachable
}

; Function Attrs: mustprogress uwtable
define linkonce_odr void @_ZN3fmt2v610advance_toIcNS0_8internal13error_handlerEEEvRNS0_26basic_format_parse_contextIT_T0_EEPKS5_(ptr noundef nonnull align 8 dereferenceable(20) %ctx, ptr noundef %p) #0 comdat {
entry:
  %ctx.addr = alloca ptr, align 8
  %p.addr = alloca ptr, align 8
  store ptr %ctx, ptr %ctx.addr, align 8, !tbaa !185
  store ptr %p, ptr %p.addr, align 8, !tbaa !61
  %0 = load ptr, ptr %ctx.addr, align 8, !tbaa !185
  %1 = load ptr, ptr %ctx.addr, align 8, !tbaa !185
  %call = call noundef ptr @_ZNK3fmt2v626basic_format_parse_contextIcNS0_8internal13error_handlerEE5beginEv(ptr noundef nonnull align 8 dereferenceable(20) %1) #5
  %2 = load ptr, ptr %p.addr, align 8, !tbaa !61
  %3 = load ptr, ptr %ctx.addr, align 8, !tbaa !185
  %call1 = call noundef ptr @_ZNK3fmt2v626basic_format_parse_contextIcNS0_8internal13error_handlerEE5beginEv(ptr noundef nonnull align 8 dereferenceable(20) %3) #5
  %sub.ptr.lhs.cast = ptrtoint ptr %2 to i64
  %sub.ptr.rhs.cast = ptrtoint ptr %call1 to i64
  %sub.ptr.sub = sub i64 %sub.ptr.lhs.cast, %sub.ptr.rhs.cast
  %add.ptr = getelementptr inbounds i8, ptr %call, i64 %sub.ptr.sub
  call void @_ZN3fmt2v626basic_format_parse_contextIcNS0_8internal13error_handlerEE10advance_toEPKc(ptr noundef nonnull align 8 dereferenceable(20) %0, ptr noundef %add.ptr)
  ret void
}

; Function Attrs: mustprogress nounwind uwtable
define linkonce_odr void @_ZN3fmt2v620basic_format_contextISt20back_insert_iteratorINS0_8internal6bufferIcEEEcE10advance_toES6_(ptr noundef nonnull align 8 dereferenceable(48) %this, ptr %it.coerce) #6 comdat align 2 {
entry:
  %it = alloca %"class.std::back_insert_iterator", align 8
  %this.addr = alloca ptr, align 8
  %coerce.dive = getelementptr inbounds nuw %"class.std::back_insert_iterator", ptr %it, i32 0, i32 0
  store ptr %it.coerce, ptr %coerce.dive, align 8
  store ptr %this, ptr %this.addr, align 8, !tbaa !183
  %this1 = load ptr, ptr %this.addr, align 8
  %out_ = getelementptr inbounds nuw %"class.fmt::v6::basic_format_context", ptr %this1, i32 0, i32 0
  call void @llvm.memcpy.p0.p0.i64(ptr align 8 %out_, ptr align 8 %it, i64 8, i1 false)
  ret void
}

; Function Attrs: mustprogress uwtable
define linkonce_odr ptr @_ZN3fmt2v616visit_format_argINS0_13arg_formatterINS0_12buffer_rangeIcEEEENS0_20basic_format_contextISt20back_insert_iteratorINS0_8internal6bufferIcEEEcEEEEDTclfp_Li0EEEOT_RKNS0_16basic_format_argIT0_EE(ptr noundef nonnull align 8 dereferenceable(40) %vis, ptr noundef nonnull align 16 dereferenceable(20) %arg) #0 comdat {
entry:
  %retval = alloca %"class.std::back_insert_iterator", align 8
  %vis.addr = alloca ptr, align 8
  %arg.addr = alloca ptr, align 8
  %coerce = alloca i128, align 16
  %coerce20 = alloca i128, align 16
  %agg.tmp = alloca %"class.fmt::v6::basic_string_view", align 8
  %agg.tmp58 = alloca %"class.fmt::v6::basic_format_arg<fmt::v6::basic_format_context<std::back_insert_iterator<fmt::v6::internal::buffer<char>>, char>>::handle", align 8
  %agg.tmp59 = alloca %"struct.fmt::v6::internal::custom_value", align 8
  %agg.tmp63 = alloca %"struct.fmt::v6::monostate", align 1
  store ptr %vis, ptr %vis.addr, align 8, !tbaa !223
  store ptr %arg, ptr %arg.addr, align 8, !tbaa !192
  %0 = load ptr, ptr %arg.addr, align 8, !tbaa !192
  %type_ = getelementptr inbounds nuw %"class.fmt::v6::basic_format_arg", ptr %0, i32 0, i32 1
  %1 = load i32, ptr %type_, align 16, !tbaa !194
  switch i32 %1, label %sw.epilog [
    i32 0, label %sw.epilog
    i32 1, label %sw.bb
    i32 2, label %sw.bb1
    i32 3, label %sw.bb2
    i32 4, label %sw.bb6
    i32 5, label %sw.bb10
    i32 6, label %sw.bb14
    i32 7, label %sw.bb18
    i32 8, label %sw.bb23
    i32 9, label %sw.bb27
    i32 10, label %sw.bb31
    i32 11, label %sw.bb35
    i32 12, label %sw.bb39
    i32 13, label %sw.bb43
    i32 14, label %sw.bb47
    i32 15, label %sw.bb53
    i32 16, label %sw.bb57
  ]

sw.bb:                                            ; preds = %entry
  call void @_ZN3fmt2v68internal11assert_failEPKciS3_(ptr noundef @.str.14, i32 noundef 1041, ptr noundef @.str.19)
  br label %sw.epilog

sw.bb1:                                           ; preds = %entry
  %2 = load ptr, ptr %vis.addr, align 8, !tbaa !223
  %3 = load ptr, ptr %arg.addr, align 8, !tbaa !192
  %value_ = getelementptr inbounds nuw %"class.fmt::v6::basic_format_arg", ptr %3, i32 0, i32 0
  %4 = getelementptr inbounds nuw %"class.fmt::v6::internal::value", ptr %value_, i32 0, i32 0
  %5 = load i32, ptr %4, align 16, !tbaa !140
  %call = call ptr @_ZN3fmt2v68internal18arg_formatter_baseINS0_12buffer_rangeIcEENS1_13error_handlerEEclIiTnNSt9enable_ifIXsr11is_integralIT_EE5valueEiE4typeELi0EEESt20back_insert_iteratorINS1_6bufferIcEEES9_(ptr noundef nonnull align 8 dereferenceable(24) %2, i32 noundef %5)
  %coerce.dive = getelementptr inbounds nuw %"class.std::back_insert_iterator", ptr %retval, i32 0, i32 0
  store ptr %call, ptr %coerce.dive, align 8
  br label %return

sw.bb2:                                           ; preds = %entry
  %6 = load ptr, ptr %vis.addr, align 8, !tbaa !223
  %7 = load ptr, ptr %arg.addr, align 8, !tbaa !192
  %value_3 = getelementptr inbounds nuw %"class.fmt::v6::basic_format_arg", ptr %7, i32 0, i32 0
  %8 = getelementptr inbounds nuw %"class.fmt::v6::internal::value", ptr %value_3, i32 0, i32 0
  %9 = load i32, ptr %8, align 16, !tbaa !140
  %call4 = call ptr @_ZN3fmt2v68internal18arg_formatter_baseINS0_12buffer_rangeIcEENS1_13error_handlerEEclIjTnNSt9enable_ifIXsr11is_integralIT_EE5valueEiE4typeELi0EEESt20back_insert_iteratorINS1_6bufferIcEEES9_(ptr noundef nonnull align 8 dereferenceable(24) %6, i32 noundef %9)
  %coerce.dive5 = getelementptr inbounds nuw %"class.std::back_insert_iterator", ptr %retval, i32 0, i32 0
  store ptr %call4, ptr %coerce.dive5, align 8
  br label %return

sw.bb6:                                           ; preds = %entry
  %10 = load ptr, ptr %vis.addr, align 8, !tbaa !223
  %11 = load ptr, ptr %arg.addr, align 8, !tbaa !192
  %value_7 = getelementptr inbounds nuw %"class.fmt::v6::basic_format_arg", ptr %11, i32 0, i32 0
  %12 = getelementptr inbounds nuw %"class.fmt::v6::internal::value", ptr %value_7, i32 0, i32 0
  %13 = load i64, ptr %12, align 16, !tbaa !140
  %call8 = call ptr @_ZN3fmt2v68internal18arg_formatter_baseINS0_12buffer_rangeIcEENS1_13error_handlerEEclIxTnNSt9enable_ifIXsr11is_integralIT_EE5valueEiE4typeELi0EEESt20back_insert_iteratorINS1_6bufferIcEEES9_(ptr noundef nonnull align 8 dereferenceable(24) %10, i64 noundef %13)
  %coerce.dive9 = getelementptr inbounds nuw %"class.std::back_insert_iterator", ptr %retval, i32 0, i32 0
  store ptr %call8, ptr %coerce.dive9, align 8
  br label %return

sw.bb10:                                          ; preds = %entry
  %14 = load ptr, ptr %vis.addr, align 8, !tbaa !223
  %15 = load ptr, ptr %arg.addr, align 8, !tbaa !192
  %value_11 = getelementptr inbounds nuw %"class.fmt::v6::basic_format_arg", ptr %15, i32 0, i32 0
  %16 = getelementptr inbounds nuw %"class.fmt::v6::internal::value", ptr %value_11, i32 0, i32 0
  %17 = load i64, ptr %16, align 16, !tbaa !140
  %call12 = call ptr @_ZN3fmt2v68internal18arg_formatter_baseINS0_12buffer_rangeIcEENS1_13error_handlerEEclIyTnNSt9enable_ifIXsr11is_integralIT_EE5valueEiE4typeELi0EEESt20back_insert_iteratorINS1_6bufferIcEEES9_(ptr noundef nonnull align 8 dereferenceable(24) %14, i64 noundef %17)
  %coerce.dive13 = getelementptr inbounds nuw %"class.std::back_insert_iterator", ptr %retval, i32 0, i32 0
  store ptr %call12, ptr %coerce.dive13, align 8
  br label %return

sw.bb14:                                          ; preds = %entry
  %18 = load ptr, ptr %vis.addr, align 8, !tbaa !223
  %19 = load ptr, ptr %arg.addr, align 8, !tbaa !192
  %value_15 = getelementptr inbounds nuw %"class.fmt::v6::basic_format_arg", ptr %19, i32 0, i32 0
  %20 = getelementptr inbounds nuw %"class.fmt::v6::internal::value", ptr %value_15, i32 0, i32 0
  %21 = load i128, ptr %20, align 16, !tbaa !140
  store i128 %21, ptr %coerce, align 16, !tbaa !225
  %22 = getelementptr inbounds nuw { i64, i64 }, ptr %coerce, i32 0, i32 0
  %23 = load i64, ptr %22, align 16
  %24 = getelementptr inbounds nuw { i64, i64 }, ptr %coerce, i32 0, i32 1
  %25 = load i64, ptr %24, align 8
  %call16 = call ptr @_ZN3fmt2v68internal18arg_formatter_baseINS0_12buffer_rangeIcEENS1_13error_handlerEEclInTnNSt9enable_ifIXsr11is_integralIT_EE5valueEiE4typeELi0EEESt20back_insert_iteratorINS1_6bufferIcEEES9_(ptr noundef nonnull align 8 dereferenceable(24) %18, i64 noundef %23, i64 noundef %25)
  %coerce.dive17 = getelementptr inbounds nuw %"class.std::back_insert_iterator", ptr %retval, i32 0, i32 0
  store ptr %call16, ptr %coerce.dive17, align 8
  br label %return

sw.bb18:                                          ; preds = %entry
  %26 = load ptr, ptr %vis.addr, align 8, !tbaa !223
  %27 = load ptr, ptr %arg.addr, align 8, !tbaa !192
  %value_19 = getelementptr inbounds nuw %"class.fmt::v6::basic_format_arg", ptr %27, i32 0, i32 0
  %28 = getelementptr inbounds nuw %"class.fmt::v6::internal::value", ptr %value_19, i32 0, i32 0
  %29 = load i128, ptr %28, align 16, !tbaa !140
  store i128 %29, ptr %coerce20, align 16, !tbaa !225
  %30 = getelementptr inbounds nuw { i64, i64 }, ptr %coerce20, i32 0, i32 0
  %31 = load i64, ptr %30, align 16
  %32 = getelementptr inbounds nuw { i64, i64 }, ptr %coerce20, i32 0, i32 1
  %33 = load i64, ptr %32, align 8
  %call21 = call ptr @_ZN3fmt2v68internal18arg_formatter_baseINS0_12buffer_rangeIcEENS1_13error_handlerEEclIoTnNSt9enable_ifIXsr11is_integralIT_EE5valueEiE4typeELi0EEESt20back_insert_iteratorINS1_6bufferIcEEES9_(ptr noundef nonnull align 8 dereferenceable(24) %26, i64 noundef %31, i64 noundef %33)
  %coerce.dive22 = getelementptr inbounds nuw %"class.std::back_insert_iterator", ptr %retval, i32 0, i32 0
  store ptr %call21, ptr %coerce.dive22, align 8
  br label %return

sw.bb23:                                          ; preds = %entry
  %34 = load ptr, ptr %vis.addr, align 8, !tbaa !223
  %35 = load ptr, ptr %arg.addr, align 8, !tbaa !192
  %value_24 = getelementptr inbounds nuw %"class.fmt::v6::basic_format_arg", ptr %35, i32 0, i32 0
  %36 = getelementptr inbounds nuw %"class.fmt::v6::internal::value", ptr %value_24, i32 0, i32 0
  %37 = load i8, ptr %36, align 16, !tbaa !140, !range !43, !noundef !44
  %loadedv = trunc i8 %37 to i1
  %call25 = call ptr @_ZN3fmt2v68internal18arg_formatter_baseINS0_12buffer_rangeIcEENS1_13error_handlerEEclEb(ptr noundef nonnull align 8 dereferenceable(24) %34, i1 noundef zeroext %loadedv)
  %coerce.dive26 = getelementptr inbounds nuw %"class.std::back_insert_iterator", ptr %retval, i32 0, i32 0
  store ptr %call25, ptr %coerce.dive26, align 8
  br label %return

sw.bb27:                                          ; preds = %entry
  %38 = load ptr, ptr %vis.addr, align 8, !tbaa !223
  %39 = load ptr, ptr %arg.addr, align 8, !tbaa !192
  %value_28 = getelementptr inbounds nuw %"class.fmt::v6::basic_format_arg", ptr %39, i32 0, i32 0
  %40 = getelementptr inbounds nuw %"class.fmt::v6::internal::value", ptr %value_28, i32 0, i32 0
