; ModuleID = 'urr-host-x86_64-unknown-linux-gnu.bc'
source_filename = "/g/g0/wright117/workspace/openmc/openmc-omp/openmc/src/urr.cpp"
target datalayout = "e-m:e-p270:32:32-p271:32:32-p272:64:64-i64:64-i128:128-f80:128-n8:16:32:64-S128"
target triple = "x86_64-unknown-linux-gnu"

%"class.std::ios_base::Init" = type { i8 }
%"struct.std::array" = type { [6 x i32] }
%"class.openmc::UrrData" = type { i32, i32, i32, i8, i32, %"class.xt::xtensor_container", ptr, %"class.xt::xtensor_container.2", ptr, i32, i32 }
%"class.xt::xtensor_container" = type { %"class.xt::xstrided_container.base", %"class.xt::xcontainer_semantic", %"class.xt::uvector" }
%"class.xt::xstrided_container.base" = type <{ %"struct.std::array.0", %"struct.std::array.1", %"struct.std::array.1", i32 }>
%"struct.std::array.0" = type { [1 x i64] }
%"struct.std::array.1" = type { [1 x i64] }
%"class.xt::xcontainer_semantic" = type { %"class.xt::xsemantic_base" }
%"class.xt::xsemantic_base" = type { %"class.xt::xsharable_expression" }
%"class.xt::xsharable_expression" = type { %"class.std::shared_ptr" }
%"class.std::shared_ptr" = type { %"class.std::__shared_ptr" }
%"class.std::__shared_ptr" = type { ptr, %"class.std::__shared_count" }
%"class.std::__shared_count" = type { ptr }
%"class.xt::uvector" = type { [8 x i8], ptr, ptr }
%"class.xt::xtensor_container.2" = type { %"class.xt::xstrided_container.base.12", %"class.xt::xcontainer_semantic.13", %"class.xt::uvector" }
%"class.xt::xstrided_container.base.12" = type <{ %"struct.std::array.10", %"struct.std::array.11", %"struct.std::array.11", i32 }>
%"struct.std::array.10" = type { [3 x i64] }
%"struct.std::array.11" = type { [3 x i64] }
%"class.xt::xcontainer_semantic.13" = type { %"class.xt::xsemantic_base.14" }
%"class.xt::xsemantic_base.14" = type { %"class.xt::xsharable_expression.15" }
%"class.xt::xsharable_expression.15" = type { %"class.std::shared_ptr.17" }
%"class.std::shared_ptr.17" = type { %"class.std::__shared_ptr.18" }
%"class.std::__shared_ptr.18" = type { ptr, %"class.std::__shared_count" }
%"class.std::allocator" = type { i8 }
%"class.std::vector" = type { %"struct.std::_Vector_base" }
%"struct.std::_Vector_base" = type { %"struct.std::_Vector_base<unsigned long, std::allocator<unsigned long>>::_Vector_impl" }
%"struct.std::_Vector_base<unsigned long, std::allocator<unsigned long>>::_Vector_impl" = type { %"struct.std::_Vector_base<unsigned long, std::allocator<unsigned long>>::_Vector_impl_data" }
%"struct.std::_Vector_base<unsigned long, std::allocator<unsigned long>>::_Vector_impl_data" = type { ptr, ptr, ptr }
%"class.std::allocator.20" = type { i8 }
%"class.xt::xarray_container" = type { %"class.xt::xstrided_container.base.31", %"class.xt::xcontainer_semantic.32", %"class.xt::uvector" }
%"class.xt::xstrided_container.base.31" = type <{ %"class.xt::svector", %"class.xt::svector.30", %"class.xt::svector.30", i32 }>
%"class.xt::svector" = type { [8 x i8], ptr, ptr, ptr, [4 x i64] }
%"class.xt::svector.30" = type { [8 x i8], ptr, ptr, ptr, [4 x i64] }
%"class.xt::xcontainer_semantic.32" = type { %"class.xt::xsemantic_base.33" }
%"class.xt::xsemantic_base.33" = type { %"class.xt::xsharable_expression.34" }
%"class.xt::xsharable_expression.34" = type { %"class.std::shared_ptr.36" }
%"class.std::shared_ptr.36" = type { %"class.std::__shared_ptr.37" }
%"class.std::__shared_ptr.37" = type { ptr, %"class.std::__shared_count" }
%"class.xt::xstrided_container" = type <{ %"struct.std::array.0", %"struct.std::array.1", %"struct.std::array.1", i32, [4 x i8] }>
%"struct.std::random_access_iterator_tag" = type { i8 }
%"class.std::_Sp_counted_base" = type { ptr, i32, i32 }
%"class.xt::xstrided_container.3" = type <{ %"struct.std::array.10", %"struct.std::array.11", %"struct.std::array.11", i32, [4 x i8] }>
%"class.__gnu_cxx::__normal_iterator" = type { ptr }
%"class.xt::xstrided_container.23" = type <{ %"class.xt::svector", %"class.xt::svector.30", %"class.xt::svector.30", i32, [4 x i8] }>
%"class.std::allocator.39" = type { i8 }
%"class.__gnu_cxx::__normal_iterator.42" = type { ptr }
%class.anon = type { ptr, ptr }
%class.anon.43 = type { ptr, ptr }
%"struct.std::integral_constant" = type { i8 }
%"struct.xtl::identity" = type { i8 }
%"class.xt::stepper_assigner" = type { ptr, %"class.xt::xstepper", %"class.xt::xstepper.44", %"struct.std::array.0" }
%"class.xt::xstepper" = type { ptr, ptr, i64 }
%"class.xt::xstepper.44" = type { ptr, ptr, i64 }
%"struct.std::integral_constant.45" = type { i8 }
%"struct.std::is_convertible" = type { i8 }
%class.anon.46 = type { ptr }
%class.anon.47 = type { ptr }
%class.anon.48 = type { ptr }
%class.anon.49 = type { ptr }
%"struct.xt::conditional_cast_functor" = type { i8 }
%class.anon.50 = type { ptr, ptr }
%class.anon.51 = type { ptr, ptr }
%"class.xt::stepper_assigner.52" = type { ptr, %"class.xt::xstepper.53", %"class.xt::xstepper.44", %"struct.std::array.10" }
%"class.xt::xstepper.53" = type { ptr, ptr, i64 }
%class.anon.54 = type { ptr }
%class.anon.55 = type { ptr }

$_ZN2xt17xtensor_containerINS_7uvectorIdSaIdEEELm1ELNS_11layout_typeE1ENS_22xtensor_expression_tagEEC2Ev = comdat any

$_ZN2xt17xtensor_containerINS_7uvectorIdSaIdEEELm3ELNS_11layout_typeE1ENS_22xtensor_expression_tagEEC2Ev = comdat any

$_ZN6openmc14read_attributeIiEEvlPKcRT_ = comdat any

$_ZN6openmc12read_datasetIdLm1EEEvlPKcRN2xt17xtensor_containerINS3_7uvectorIT_SaIS6_EEEXT0_ELNS3_11layout_typeE1ENS3_22xtensor_expression_tagEEEb = comdat any

$_ZNK2xt10xcontainerINS_17xtensor_containerINS_7uvectorIdSaIdEEELm1ELNS_11layout_typeE1ENS_22xtensor_expression_tagEEEE5shapeEv = comdat any

$_ZNKSt5arrayImLm1EEixEm = comdat any

$_ZN6openmc12read_datasetIdLm3EEEvlPKcRN2xt17xtensor_containerINS3_7uvectorIT_SaIS6_EEEXT0_ELNS3_11layout_typeE1ENS3_22xtensor_expression_tagEEEb = comdat any

$_ZN2xt17xtensor_containerINS_7uvectorIdSaIdEEELm3ELNS_11layout_typeE1ENS_22xtensor_expression_tagEED2Ev = comdat any

$_ZN2xt17xtensor_containerINS_7uvectorIdSaIdEEELm1ELNS_11layout_typeE1ENS_22xtensor_expression_tagEED2Ev = comdat any

$_ZN2xt18xstrided_containerINS_17xtensor_containerINS_7uvectorIdSaIdEEELm1ELNS_11layout_typeE1ENS_22xtensor_expression_tagEEEEC2Ev = comdat any

$_ZN2xt19xcontainer_semanticINS_17xtensor_containerINS_7uvectorIdSaIdEEELm1ELNS_11layout_typeE1ENS_22xtensor_expression_tagEEEEC2Ev = comdat any

$_ZNSaIdEC2Ev = comdat any

$_ZN2xt7uvectorIdSaIdEEC2EmRKdRKS1_ = comdat any

$_ZNSt15__new_allocatorIdED2Ev = comdat any

$_ZN2xt20xsharable_expressionINS_17xtensor_containerINS_7uvectorIdSaIdEEELm1ELNS_11layout_typeE1ENS_22xtensor_expression_tagEEEED2Ev = comdat any

$_ZN3xtl13make_sequenceISt5arrayImLm1EEEET_NS3_9size_typeENS3_10value_typeE = comdat any

$_ZNK2xt10xcontainerINS_17xtensor_containerINS_7uvectorIdSaIdEEELm1ELNS_11layout_typeE1ENS_22xtensor_expression_tagEEEE9dimensionEv = comdat any

$__clang_call_terminate = comdat any

$_ZN3xtl13make_sequenceISt5arrayIlLm1EEEET_NS3_9size_typeENS3_10value_typeE = comdat any

$_ZN3xtl6detail16sequence_builderISt5arrayImLm1EEE4makeEmm = comdat any

$_ZNSt5arrayImLm1EE4fillERKm = comdat any

$_ZSt6fill_nIPmmmET_S1_T0_RKT1_ = comdat any

$_ZNSt5arrayImLm1EE5beginEv = comdat any

$_ZNKSt5arrayImLm1EE4sizeEv = comdat any

$_ZSt10__fill_n_aIPmmmET_S1_T0_RKT1_St26random_access_iterator_tag = comdat any

$_ZSt17__size_to_integerm = comdat any

$_ZSt19__iterator_categoryIPmENSt15iterator_traitsIT_E17iterator_categoryERKS2_ = comdat any

$_ZSt8__fill_aIPmmEvT_S1_RKT0_ = comdat any

$_ZSt9__fill_a1IPmmEN9__gnu_cxx11__enable_ifIXsr11__is_scalarIT0_EE7__valueEvE6__typeET_S6_RKS3_ = comdat any

$_ZNSt5arrayImLm1EE4dataEv = comdat any

$_ZNSt14__array_traitsImLm1EE6_S_ptrERA1_Km = comdat any

$_ZN3xtl6detail16sequence_builderISt5arrayIlLm1EEE4makeEml = comdat any

$_ZNSt5arrayIlLm1EE4fillERKl = comdat any

$_ZSt6fill_nIPlmlET_S1_T0_RKT1_ = comdat any

$_ZNSt5arrayIlLm1EE5beginEv = comdat any

$_ZNKSt5arrayIlLm1EE4sizeEv = comdat any

$_ZSt10__fill_n_aIPlmlET_S1_T0_RKT1_St26random_access_iterator_tag = comdat any

$_ZSt19__iterator_categoryIPlENSt15iterator_traitsIT_E17iterator_categoryERKS2_ = comdat any

$_ZSt8__fill_aIPllEvT_S1_RKT0_ = comdat any

$_ZSt9__fill_a1IPllEN9__gnu_cxx11__enable_ifIXsr11__is_scalarIT0_EE7__valueEvE6__typeET_S6_RKS3_ = comdat any

$_ZNSt5arrayIlLm1EE4dataEv = comdat any

$_ZNSt14__array_traitsIlLm1EE6_S_ptrERA1_Kl = comdat any

$_ZN2xt14xsemantic_baseINS_17xtensor_containerINS_7uvectorIdSaIdEEELm1ELNS_11layout_typeE1ENS_22xtensor_expression_tagEEEEC2Ev = comdat any

$_ZN2xt20xsharable_expressionINS_17xtensor_containerINS_7uvectorIdSaIdEEELm1ELNS_11layout_typeE1ENS_22xtensor_expression_tagEEEEC2Ev = comdat any

$_ZNSt10shared_ptrIN2xt17xtensor_containerINS0_7uvectorIdSaIdEEELm1ELNS0_11layout_typeE1ENS0_22xtensor_expression_tagEEEEC2EDn = comdat any

$_ZNSt10shared_ptrIN2xt17xtensor_containerINS0_7uvectorIdSaIdEEELm1ELNS0_11layout_typeE1ENS0_22xtensor_expression_tagEEEEC2Ev = comdat any

$_ZNSt12__shared_ptrIN2xt17xtensor_containerINS0_7uvectorIdSaIdEEELm1ELNS0_11layout_typeE1ENS0_22xtensor_expression_tagEEELN9__gnu_cxx12_Lock_policyE2EEC2Ev = comdat any

$_ZNSt14__shared_countILN9__gnu_cxx12_Lock_policyE2EEC2Ev = comdat any

$_ZNSt15__new_allocatorIdEC2Ev = comdat any

$_ZNSaIdEC2ERKS_ = comdat any

$_ZNSt15__new_allocatorIdE8allocateEmPKv = comdat any

$_ZSt18uninitialized_fillIPddEvT_S1_RKT0_ = comdat any

$_ZNSt15__new_allocatorIdEC2ERKS0_ = comdat any

$_ZNKSt15__new_allocatorIdE11_M_max_sizeEv = comdat any

$_ZNSt20__uninitialized_fillILb1EE13__uninit_fillIPddEEvT_S3_RKT0_ = comdat any

$_ZSt4fillIPddEvT_S1_RKT0_ = comdat any

$_ZSt8__fill_aIPddEvT_S1_RKT0_ = comdat any

$_ZSt9__fill_a1IPddEN9__gnu_cxx11__enable_ifIXsr11__is_scalarIT0_EE7__valueEvE6__typeET_S6_RKS3_ = comdat any

$_ZNSt14__shared_countILN9__gnu_cxx12_Lock_policyE2EED2Ev = comdat any

$_ZNSt16_Sp_counted_baseILN9__gnu_cxx12_Lock_policyE2EE10_M_releaseEv = comdat any

$_ZN9__gnu_cxx27__exchange_and_add_dispatchEPii = comdat any

$_ZNSt16_Sp_counted_baseILN9__gnu_cxx12_Lock_policyE2EE24_M_release_last_use_coldEv = comdat any

$_ZN9__gnu_cxx20__is_single_threadedEv = comdat any

$_ZN9__gnu_cxx25__exchange_and_add_singleEPii = comdat any

$_ZN9__gnu_cxx18__exchange_and_addEPVii = comdat any

$_ZNSt16_Sp_counted_baseILN9__gnu_cxx12_Lock_policyE2EE19_M_release_last_useEv = comdat any

$_ZN2xt18xstrided_containerINS_17xtensor_containerINS_7uvectorIdSaIdEEELm3ELNS_11layout_typeE1ENS_22xtensor_expression_tagEEEEC2Ev = comdat any

$_ZN2xt19xcontainer_semanticINS_17xtensor_containerINS_7uvectorIdSaIdEEELm3ELNS_11layout_typeE1ENS_22xtensor_expression_tagEEEEC2Ev = comdat any

$_ZN2xt20xsharable_expressionINS_17xtensor_containerINS_7uvectorIdSaIdEEELm3ELNS_11layout_typeE1ENS_22xtensor_expression_tagEEEED2Ev = comdat any

$_ZN3xtl13make_sequenceISt5arrayImLm3EEEET_NS3_9size_typeENS3_10value_typeE = comdat any

$_ZNK2xt10xcontainerINS_17xtensor_containerINS_7uvectorIdSaIdEEELm3ELNS_11layout_typeE1ENS_22xtensor_expression_tagEEEE9dimensionEv = comdat any

$_ZN3xtl13make_sequenceISt5arrayIlLm3EEEET_NS3_9size_typeENS3_10value_typeE = comdat any

$_ZN3xtl6detail16sequence_builderISt5arrayImLm3EEE4makeEmm = comdat any

$_ZNSt5arrayImLm3EE4fillERKm = comdat any

$_ZNSt5arrayImLm3EE5beginEv = comdat any

$_ZNKSt5arrayImLm3EE4sizeEv = comdat any

$_ZNSt5arrayImLm3EE4dataEv = comdat any

$_ZNSt14__array_traitsImLm3EE6_S_ptrERA3_Km = comdat any

$_ZNK2xt10xcontainerINS_17xtensor_containerINS_7uvectorIdSaIdEEELm3ELNS_11layout_typeE1ENS_22xtensor_expression_tagEEEE5shapeEv = comdat any

$_ZNKR2xt10xcontainerINS_17xtensor_containerINS_7uvectorIdSaIdEEELm3ELNS_11layout_typeE1ENS_22xtensor_expression_tagEEEE12derived_castEv = comdat any

$_ZNK2xt18xstrided_containerINS_17xtensor_containerINS_7uvectorIdSaIdEEELm3ELNS_11layout_typeE1ENS_22xtensor_expression_tagEEEE10shape_implEv = comdat any

$_ZN3xtl6detail16sequence_builderISt5arrayIlLm3EEE4makeEml = comdat any

$_ZNSt5arrayIlLm3EE4fillERKl = comdat any

$_ZNSt5arrayIlLm3EE5beginEv = comdat any

$_ZNKSt5arrayIlLm3EE4sizeEv = comdat any

$_ZNSt5arrayIlLm3EE4dataEv = comdat any

$_ZNSt14__array_traitsIlLm3EE6_S_ptrERA3_Kl = comdat any

$_ZN2xt14xsemantic_baseINS_17xtensor_containerINS_7uvectorIdSaIdEEELm3ELNS_11layout_typeE1ENS_22xtensor_expression_tagEEEEC2Ev = comdat any

$_ZN2xt20xsharable_expressionINS_17xtensor_containerINS_7uvectorIdSaIdEEELm3ELNS_11layout_typeE1ENS_22xtensor_expression_tagEEEEC2Ev = comdat any

$_ZNSt10shared_ptrIN2xt17xtensor_containerINS0_7uvectorIdSaIdEEELm3ELNS0_11layout_typeE1ENS0_22xtensor_expression_tagEEEEC2EDn = comdat any

$_ZNSt10shared_ptrIN2xt17xtensor_containerINS0_7uvectorIdSaIdEEELm3ELNS0_11layout_typeE1ENS0_22xtensor_expression_tagEEEEC2Ev = comdat any

$_ZNSt12__shared_ptrIN2xt17xtensor_containerINS0_7uvectorIdSaIdEEELm3ELNS0_11layout_typeE1ENS0_22xtensor_expression_tagEEELN9__gnu_cxx12_Lock_policyE2EEC2Ev = comdat any

$_ZNKSt6vectorImSaImEE4sizeEv = comdat any

$_ZNSaImEC2Ev = comdat any

$_ZNSt6vectorImSaImEEC2EmRKS0_ = comdat any

$_ZNSt15__new_allocatorImED2Ev = comdat any

$_ZNSt6vectorImSaImEEixEm = comdat any

$_ZN2xt7svectorImLm4ESaImELb1EEC2ERKSt6vectorImS1_E = comdat any

$_ZN2xt16xarray_containerINS_7uvectorIdSaIdEEELNS_11layout_typeE1ENS_7svectorImLm4ESaImELb1EEENS_22xtensor_expression_tagEEC2ERKS7_S4_ = comdat any

$_ZN2xt7svectorImLm4ESaImELb1EED2Ev = comdat any

$_ZN6openmc12read_datasetIdEEvlPKcRN2xt16xarray_containerINS3_7uvectorIT_SaIS6_EEELNS3_11layout_typeE1ENS3_7svectorINS8_9size_typeELm4ESaINSt6vectorIS6_S7_E9size_typeEELb1EEENS3_22xtensor_expression_tagEEEb = comdat any

$_ZN2xt17xtensor_containerINS_7uvectorIdSaIdEEELm1ELNS_11layout_typeE1ENS_22xtensor_expression_tagEEaSINS_16xarray_containerIS3_LS4_1ENS_7svectorImLm4ESaImELb1EEES5_EEEERS6_RKNS_11xexpressionIT_EE = comdat any

$_ZN2xt16xarray_containerINS_7uvectorIdSaIdEEELNS_11layout_typeE1ENS_7svectorImLm4ESaImELb1EEENS_22xtensor_expression_tagEED2Ev = comdat any

$_ZNSt6vectorImSaImEED2Ev = comdat any

$_ZNSt15__new_allocatorImEC2Ev = comdat any

$_ZNSt6vectorImSaImEE17_S_check_init_lenEmRKS0_ = comdat any

$_ZNSt12_Vector_baseImSaImEEC2EmRKS0_ = comdat any

$_ZNSt6vectorImSaImEE21_M_default_initializeEm = comdat any

$_ZNSt12_Vector_baseImSaImEED2Ev = comdat any

$_ZNSt6vectorImSaImEE11_S_max_sizeERKS0_ = comdat any

$_ZNSaImEC2ERKS_ = comdat any

$_ZNSt16allocator_traitsISaImEE8max_sizeERKS0_ = comdat any

$_ZSt3minImERKT_S2_S2_ = comdat any

$_ZNKSt15__new_allocatorImE8max_sizeEv = comdat any

$_ZNKSt15__new_allocatorImE11_M_max_sizeEv = comdat any

$_ZNSt15__new_allocatorImEC2ERKS0_ = comdat any

$_ZNSt12_Vector_baseImSaImEE12_Vector_implC2ERKS0_ = comdat any

$_ZNSt12_Vector_baseImSaImEE17_M_create_storageEm = comdat any

$_ZNSt12_Vector_baseImSaImEE17_Vector_impl_dataC2Ev = comdat any

$_ZNSt12_Vector_baseImSaImEE11_M_allocateEm = comdat any

$_ZNSt16allocator_traitsISaImEE8allocateERS0_m = comdat any

$_ZNSt15__new_allocatorImE8allocateEmPKv = comdat any

$_ZSt27__uninitialized_default_n_aIPmmmET_S1_T0_RSaIT1_E = comdat any

$_ZNSt12_Vector_baseImSaImEE19_M_get_Tp_allocatorEv = comdat any

$_ZSt25__uninitialized_default_nIPmmET_S1_T0_ = comdat any

$_ZNSt27__uninitialized_default_n_1ILb1EE18__uninit_default_nIPmmEET_S3_T0_ = comdat any

$_ZSt10_ConstructImJEEvPT_DpOT0_ = comdat any

$_ZNSt12_Vector_baseImSaImEE13_M_deallocateEPmm = comdat any

$_ZNSt16allocator_traitsISaImEE10deallocateERS0_Pmm = comdat any

$_ZNSt15__new_allocatorImE10deallocateEPmm = comdat any

$_ZSt5beginImLm4EEPT_RAT0__S0_ = comdat any

$_ZSt3endImLm4EEPT_RAT0__S0_ = comdat any

$_ZN2xt7svectorImLm4ESaImELb1EE6assignIN9__gnu_cxx17__normal_iteratorIPKmSt6vectorImS1_EEEEEvT_SB_ = comdat any

$_ZNKSt6vectorImSaImEE5beginEv = comdat any

$_ZNKSt6vectorImSaImEE3endEv = comdat any

$_ZN9__gnu_cxxmiIPKmSt6vectorImSaImEEEENS_17__normal_iteratorIT_T0_E15difference_typeERKS9_SC_ = comdat any

$_ZNK2xt7svectorImLm4ESaImELb1EE8capacityEv = comdat any

$_ZN2xt7svectorImLm4ESaImELb1EE4growEm = comdat any

$_ZSt18uninitialized_copyIN9__gnu_cxx17__normal_iteratorIPKmSt6vectorImSaImEEEEPmET0_T_SA_S9_ = comdat any

$_ZNK9__gnu_cxx17__normal_iteratorIPKmSt6vectorImSaImEEE4baseEv = comdat any

$_ZNK2xt7svectorImLm4ESaImELb1EE4sizeEv = comdat any

$_ZSt18uninitialized_copyIPmS0_ET0_T_S2_S1_ = comdat any

$_ZNSt20__uninitialized_copyILb1EE13__uninit_copyIPmS2_EET0_T_S4_S3_ = comdat any

$_ZSt4copyIPmS0_ET0_T_S2_S1_ = comdat any

$_ZSt13__copy_move_aILb0EPmS0_ET1_T0_S2_S1_ = comdat any

$_ZSt12__miter_baseIPmET_S1_ = comdat any

$_ZSt12__niter_wrapIPmET_RKS1_S1_ = comdat any

$_ZSt14__copy_move_a1ILb0EPmS0_ET1_T0_S2_S1_ = comdat any

$_ZSt12__niter_baseIPmET_S1_ = comdat any

$_ZSt14__copy_move_a2ILb0EPmS0_ET1_T0_S2_S1_ = comdat any

$_ZNSt11__copy_moveILb0ELb1ESt26random_access_iterator_tagE8__copy_mImEEPT_PKS3_S6_S4_ = comdat any

$_ZNSt20__uninitialized_copyILb1EE13__uninit_copyIN9__gnu_cxx17__normal_iteratorIPKmSt6vectorImSaImEEEEPmEET0_T_SC_SB_ = comdat any

$_ZSt4copyIN9__gnu_cxx17__normal_iteratorIPKmSt6vectorImSaImEEEEPmET0_T_SA_S9_ = comdat any

$_ZSt13__copy_move_aILb0EN9__gnu_cxx17__normal_iteratorIPKmSt6vectorImSaImEEEEPmET1_T0_SA_S9_ = comdat any

$_ZSt12__miter_baseIN9__gnu_cxx17__normal_iteratorIPKmSt6vectorImSaImEEEEET_S8_ = comdat any

$_ZSt14__copy_move_a1ILb0EPKmPmET1_T0_S4_S3_ = comdat any

$_ZSt12__niter_baseIPKmSt6vectorImSaImEEET_N9__gnu_cxx17__normal_iteratorIS5_T0_EE = comdat any

$_ZSt14__copy_move_a2ILb0EPKmPmET1_T0_S4_S3_ = comdat any

$_ZN9__gnu_cxx17__normal_iteratorIPKmSt6vectorImSaImEEEC2ERKS2_ = comdat any

$_ZN2xt18xstrided_containerINS_16xarray_containerINS_7uvectorIdSaIdEEELNS_11layout_typeE1ENS_7svectorImLm4ESaImELb1EEENS_22xtensor_expression_tagEEEEC2Ev = comdat any

$_ZN2xt19xcontainer_semanticINS_16xarray_containerINS_7uvectorIdSaIdEEELNS_11layout_typeE1ENS_7svectorImLm4ESaImELb1EEENS_22xtensor_expression_tagEEEEC2Ev = comdat any

$_ZN2xt7uvectorIdSaIdEEC2Ev = comdat any

$_ZN2xt18xstrided_containerINS_16xarray_containerINS_7uvectorIdSaIdEEELNS_11layout_typeE1ENS_7svectorImLm4ESaImELb1EEENS_22xtensor_expression_tagEEEE6resizeIRKS8_EEvOT_S5_ = comdat any

$_ZN2xt7uvectorIdSaIdEED2Ev = comdat any

$_ZN2xt20xsharable_expressionINS_16xarray_containerINS_7uvectorIdSaIdEEELNS_11layout_typeE1ENS_7svectorImLm4ESaImELb1EEENS_22xtensor_expression_tagEEEED2Ev = comdat any

$_ZN2xt18xstrided_containerINS_16xarray_containerINS_7uvectorIdSaIdEEELNS_11layout_typeE1ENS_7svectorImLm4ESaImELb1EEENS_22xtensor_expression_tagEEEED2Ev = comdat any

$_ZN2xt7svectorImLm4ESaImELb1EEC2Ev = comdat any

$_ZN2xt7svectorIlLm4ESaIlELb1EEC2Ev = comdat any

$_ZN3xtl13make_sequenceIN2xt7svectorImLm4ESaImELb1EEEEET_NS5_9size_typeENS5_10value_typeE = comdat any

$_ZNK2xt10xcontainerINS_16xarray_containerINS_7uvectorIdSaIdEEELNS_11layout_typeE1ENS_7svectorImLm4ESaImELb1EEENS_22xtensor_expression_tagEEEE9dimensionEv = comdat any

$_ZN2xt7svectorImLm4ESaImELb1EEaSEOS2_ = comdat any

$_ZN3xtl13make_sequenceIN2xt7svectorIlLm4ESaIlELb1EEEEET_NS5_9size_typeENS5_10value_typeE = comdat any

$_ZN2xt7svectorIlLm4ESaIlELb1EEaSEOS2_ = comdat any

$_ZN2xt7svectorIlLm4ESaIlELb1EED2Ev = comdat any

$_ZN2xt7svectorImLm4ESaImELb1EEC2ERKS1_ = comdat any

$_ZNSaIlEC2Ev = comdat any

$_ZN2xt7svectorIlLm4ESaIlELb1EEC2ERKS1_ = comdat any

$_ZNSt15__new_allocatorIlED2Ev = comdat any

$_ZNSt15__new_allocatorIlEC2Ev = comdat any

$_ZNSaIlEC2ERKS_ = comdat any

$_ZSt5beginIlLm4EEPT_RAT0__S0_ = comdat any

$_ZSt3endIlLm4EEPT_RAT0__S0_ = comdat any

$_ZNSt15__new_allocatorIlEC2ERKS0_ = comdat any

$_ZN3xtl6detail16sequence_builderIN2xt7svectorImLm4ESaImELb1EEEE4makeEmm = comdat any

$_ZN2xt7svectorImLm4ESaImELb1EEC2EmRKmRKS1_ = comdat any

$_ZN2xt7svectorImLm4ESaImELb1EE6assignEmRKm = comdat any

$_ZSt4fillIPmmEvT_S1_RKT0_ = comdat any

$_ZN2xt7svectorImLm4ESaImELb1EE5beginEv = comdat any

$_ZN2xt7svectorImLm4ESaImELb1EE3endEv = comdat any

$_ZNK2xt10xcontainerINS_16xarray_containerINS_7uvectorIdSaIdEEELNS_11layout_typeE1ENS_7svectorImLm4ESaImELb1EEENS_22xtensor_expression_tagEEEE5shapeEv = comdat any

$_ZNKR2xt10xcontainerINS_16xarray_containerINS_7uvectorIdSaIdEEELNS_11layout_typeE1ENS_7svectorImLm4ESaImELb1EEENS_22xtensor_expression_tagEEEE12derived_castEv = comdat any

$_ZNK2xt18xstrided_containerINS_16xarray_containerINS_7uvectorIdSaIdEEELNS_11layout_typeE1ENS_7svectorImLm4ESaImELb1EEENS_22xtensor_expression_tagEEEE10shape_implEv = comdat any

$_ZN2xt7svectorImLm4ESaImELb1EE6assignIPmEEvT_S5_ = comdat any

$_ZN3xtl6detail16sequence_builderIN2xt7svectorIlLm4ESaIlELb1EEEE4makeEml = comdat any

$_ZN2xt7svectorIlLm4ESaIlELb1EEC2EmRKlRKS1_ = comdat any

$_ZN2xt7svectorIlLm4ESaIlELb1EE6assignEmRKl = comdat any

$_ZNK2xt7svectorIlLm4ESaIlELb1EE8capacityEv = comdat any

$_ZN2xt7svectorIlLm4ESaIlELb1EE4growEm = comdat any

$_ZSt4fillIPllEvT_S1_RKT0_ = comdat any

$_ZN2xt7svectorIlLm4ESaIlELb1EE5beginEv = comdat any

$_ZN2xt7svectorIlLm4ESaIlELb1EE3endEv = comdat any

$_ZNK2xt7svectorIlLm4ESaIlELb1EE4sizeEv = comdat any

$_ZNSt15__new_allocatorIlE8allocateEmPKv = comdat any

$_ZSt18uninitialized_copyIPlS0_ET0_T_S2_S1_ = comdat any

$_ZNSt15__new_allocatorIlE10deallocateEPlm = comdat any

$_ZNKSt15__new_allocatorIlE11_M_max_sizeEv = comdat any

$_ZNSt20__uninitialized_copyILb1EE13__uninit_copyIPlS2_EET0_T_S4_S3_ = comdat any

$_ZSt4copyIPlS0_ET0_T_S2_S1_ = comdat any

$_ZSt13__copy_move_aILb0EPlS0_ET1_T0_S2_S1_ = comdat any

$_ZSt12__miter_baseIPlET_S1_ = comdat any

$_ZSt12__niter_wrapIPlET_RKS1_S1_ = comdat any

$_ZSt14__copy_move_a1ILb0EPlS0_ET1_T0_S2_S1_ = comdat any

$_ZSt12__niter_baseIPlET_S1_ = comdat any

$_ZSt14__copy_move_a2ILb0EPlS0_ET1_T0_S2_S1_ = comdat any

$_ZNSt11__copy_moveILb0ELb1ESt26random_access_iterator_tagE8__copy_mIlEEPT_PKS3_S6_S4_ = comdat any

$_ZN2xt7svectorIlLm4ESaIlELb1EE6assignIPlEEvT_S5_ = comdat any

$_ZN2xt7svectorIlLm4ESaIlELb1EE8on_stackEv = comdat any

$_ZN2xt6detail23safe_destroy_deallocateISaIlEEEvRT_NSt16allocator_traitsIS3_E7pointerENS6_9size_typeE = comdat any

$_ZNSt16allocator_traitsISaIlEE10deallocateERS0_Plm = comdat any

$_ZN2xt14xsemantic_baseINS_16xarray_containerINS_7uvectorIdSaIdEEELNS_11layout_typeE1ENS_7svectorImLm4ESaImELb1EEENS_22xtensor_expression_tagEEEEC2Ev = comdat any

$_ZN2xt20xsharable_expressionINS_16xarray_containerINS_7uvectorIdSaIdEEELNS_11layout_typeE1ENS_7svectorImLm4ESaImELb1EEENS_22xtensor_expression_tagEEEEC2Ev = comdat any

$_ZNSt10shared_ptrIN2xt16xarray_containerINS0_7uvectorIdSaIdEEELNS0_11layout_typeE1ENS0_7svectorImLm4ESaImELb1EEENS0_22xtensor_expression_tagEEEEC2EDn = comdat any

$_ZNSt10shared_ptrIN2xt16xarray_containerINS0_7uvectorIdSaIdEEELNS0_11layout_typeE1ENS0_7svectorImLm4ESaImELb1EEENS0_22xtensor_expression_tagEEEEC2Ev = comdat any

$_ZNSt12__shared_ptrIN2xt16xarray_containerINS0_7uvectorIdSaIdEEELNS0_11layout_typeE1ENS0_7svectorImLm4ESaImELb1EEENS0_22xtensor_expression_tagEEELN9__gnu_cxx12_Lock_policyE2EEC2Ev = comdat any

$_ZN2xt7uvectorIdSaIdEEC2ERKS1_ = comdat any

$_ZN2xt18xstrided_containerINS_16xarray_containerINS_7uvectorIdSaIdEEELNS_11layout_typeE1ENS_7svectorImLm4ESaImELb1EEENS_22xtensor_expression_tagEEEE6resizeIRKS8_EEvOT_b = comdat any

$_ZSt5equalIPKmPmEbT_S3_T0_ = comdat any

$_ZSt5beginIN2xt7svectorImLm4ESaImELb1EEEEDTcldtfp_5beginEERKT_ = comdat any

$_ZSt3endIN2xt7svectorImLm4ESaImELb1EEEEDTcldtfp_3endEERKT_ = comdat any

$_ZSt5beginIN2xt7svectorImLm4ESaImELb1EEEEDTcldtfp_5beginEERT_ = comdat any

$_ZN3xtl16forward_sequenceIN2xt7svectorImLm4ESaImELb1EEERKS4_EEDcRNSt16remove_referenceIT0_E4typeE = comdat any

$_ZN2xt7svectorImLm4ESaImELb1EEaSERKS2_ = comdat any

$_ZN2xt16resize_containerINS_7svectorIlLm4ESaIlELb1EEEEEbRT_NS4_9size_typeE = comdat any

$_ZN2xt15compute_stridesILNS_11layout_typeE1ENS_7svectorImLm4ESaImELb1EEENS2_IlLm4ESaIlELb1EEES6_EEmRKT0_S1_RT1_RT2_ = comdat any

$_ZN2xt6detail21resize_data_containerINS_7uvectorIdSaIdEEEmEEvRT_T0_ = comdat any

$_ZN2xt10xcontainerINS_16xarray_containerINS_7uvectorIdSaIdEEELNS_11layout_typeE1ENS_7svectorImLm4ESaImELb1EEENS_22xtensor_expression_tagEEEE7storageEv = comdat any

$_ZSt11__equal_auxIPKmPmEbT_S3_T0_ = comdat any

$_ZSt12__equal_aux1IPKmPmEbT_S3_T0_ = comdat any

$_ZSt12__niter_baseIPKmET_S2_ = comdat any

$_ZNSt7__equalILb1EE5equalImEEbPKT_S4_S4_ = comdat any

$_ZSt8__memcmpImmEiPKT_PKT0_m = comdat any

$_ZNK2xt7svectorImLm4ESaImELb1EE5beginEv = comdat any

$_ZNK2xt7svectorImLm4ESaImELb1EE3endEv = comdat any

$_ZN3xtl6detail18sequence_forwarderIN2xt7svectorImLm4ESaImELb1EEES5_E7forwardIRKS5_EEOT_SB_ = comdat any

$_ZN2xt7svectorImLm4ESaImELb1EE6assignIPKmEEvT_S6_ = comdat any

$_ZSt18uninitialized_copyIPKmPmET0_T_S4_S3_ = comdat any

$_ZNSt20__uninitialized_copyILb1EE13__uninit_copyIPKmPmEET0_T_S6_S5_ = comdat any

$_ZSt4copyIPKmPmET0_T_S4_S3_ = comdat any

$_ZSt13__copy_move_aILb0EPKmPmET1_T0_S4_S3_ = comdat any

$_ZSt12__miter_baseIPKmET_S2_ = comdat any

$_ZN2xt7svectorIlLm4ESaIlELb1EE6resizeEm = comdat any

$_ZN2xt6detail15compute_stridesILNS_11layout_typeE1ENS_7svectorImLm4ESaImELb1EEENS3_IlLm4ESaIlELb1EEEPS7_EEmRKT0_S2_RT1_T2_ = comdat any

$_ZN2xt7svectorIlLm4ESaIlELb1EEixEm = comdat any

$_ZNK2xt7svectorImLm4ESaImELb1EEixEm = comdat any

$_ZN2xt6detail13adapt_stridesINS_7svectorImLm4ESaImELb1EEENS2_IlLm4ESaIlELb1EEEPS6_EEvRKT_RT0_T1_NSB_9size_typeE = comdat any

$_ZN2xt16resize_containerINS_7uvectorIdSaIdEEEEEbRT_NS4_9size_typeE = comdat any

$_ZN2xt7uvectorIdSaIdEE6resizeEm = comdat any

$_ZN2xt7uvectorIdSaIdEE11resize_implEm = comdat any

$_ZNK2xt7uvectorIdSaIdEE4sizeEv = comdat any

$_ZN2xt6detail18safe_init_allocateISaIdEEENSt16allocator_traitsIT_E7pointerERS4_NS5_9size_typeE = comdat any

$_ZN2xt6detail23safe_destroy_deallocateISaIdEEEvRT_NSt16allocator_traitsIS3_E7pointerENS6_9size_typeE = comdat any

$_ZNSt16allocator_traitsISaIdEE10deallocateERS0_Pdm = comdat any

$_ZNSt15__new_allocatorIdE10deallocateEPdm = comdat any

$_ZNR2xt10xcontainerINS_16xarray_containerINS_7uvectorIdSaIdEEELNS_11layout_typeE1ENS_7svectorImLm4ESaImELb1EEENS_22xtensor_expression_tagEEEE12derived_castEv = comdat any

$_ZN2xt16xarray_containerINS_7uvectorIdSaIdEEELNS_11layout_typeE1ENS_7svectorImLm4ESaImELb1EEENS_22xtensor_expression_tagEE12storage_implEv = comdat any

$_ZNSt12__shared_ptrIN2xt16xarray_containerINS0_7uvectorIdSaIdEEELNS0_11layout_typeE1ENS0_7svectorImLm4ESaImELb1EEENS0_22xtensor_expression_tagEEELN9__gnu_cxx12_Lock_policyE2EED2Ev = comdat any

$_ZN2xt7svectorImLm4ESaImELb1EE8on_stackEv = comdat any

$_ZN2xt6detail23safe_destroy_deallocateISaImEEEvRT_NSt16allocator_traitsIS3_E7pointerENS6_9size_typeE = comdat any

$_ZN6openmc12read_datasetIdEEvlRN2xt16xarray_containerINS1_7uvectorIT_SaIS4_EEELNS1_11layout_typeE1ENS1_7svectorINS6_9size_typeELm4ESaINSt6vectorIS4_S5_E9size_typeEELb1EEENS1_22xtensor_expression_tagEEEb = comdat any

$_ZNSt6vectorImSaImEE5beginEv = comdat any

$_ZNSt6vectorImSaImEE3endEv = comdat any

$_ZN9__gnu_cxxneIPmSt6vectorImSaImEEEEbRKNS_17__normal_iteratorIT_T0_EESA_ = comdat any

$_ZNK9__gnu_cxx17__normal_iteratorIPmSt6vectorImSaImEEEdeEv = comdat any

$_ZN9__gnu_cxx17__normal_iteratorIPmSt6vectorImSaImEEEppEv = comdat any

$_ZN2xt18xstrided_containerINS_16xarray_containerINS_7uvectorIdSaIdEEELNS_11layout_typeE1ENS_7svectorImLm4ESaImELb1EEENS_22xtensor_expression_tagEEEE6resizeIRSt6vectorImS7_EEEvOT_b = comdat any

$_ZN2xt10xcontainerINS_16xarray_containerINS_7uvectorIdSaIdEEELNS_11layout_typeE1ENS_7svectorImLm4ESaImELb1EEENS_22xtensor_expression_tagEEEE4dataEv = comdat any

$_ZN9__gnu_cxx17__normal_iteratorIPmSt6vectorImSaImEEEC2ERKS1_ = comdat any

$_ZNK9__gnu_cxx17__normal_iteratorIPmSt6vectorImSaImEEE4baseEv = comdat any

$_ZSt5equalIN9__gnu_cxx17__normal_iteratorIPmSt6vectorImSaImEEEES2_EbT_S7_T0_ = comdat any

$_ZSt5beginISt6vectorImSaImEEEDTcldtfp_5beginEERT_ = comdat any

$_ZSt3endISt6vectorImSaImEEEDTcldtfp_3endEERT_ = comdat any

$_ZN3xtl16forward_sequenceIN2xt7svectorImLm4ESaImELb1EEERSt6vectorImS3_EEEDcRNSt16remove_referenceIT0_E4typeE = comdat any

$_ZSt11__equal_auxIN9__gnu_cxx17__normal_iteratorIPmSt6vectorImSaImEEEES2_EbT_S7_T0_ = comdat any

$_ZSt12__equal_aux1IPmS0_EbT_S1_T0_ = comdat any

$_ZSt12__niter_baseIPmSt6vectorImSaImEEET_N9__gnu_cxx17__normal_iteratorIS4_T0_EE = comdat any

$_ZN3xtl6detail23sequence_forwarder_implIN2xt7svectorImLm4ESaImELb1EEESt6vectorImS4_EvE7forwardIS7_EEDaRKT_ = comdat any

$_ZSt5beginISt6vectorImSaImEEEDTcldtfp_5beginEERKT_ = comdat any

$_ZSt3endISt6vectorImSaImEEEDTcldtfp_3endEERKT_ = comdat any

$_ZN2xt7svectorImLm4ESaImELb1EEC2IN9__gnu_cxx17__normal_iteratorIPKmSt6vectorImS1_EEEvEET_SB_RKS1_ = comdat any

$_ZN2xt7uvectorIdSaIdEE4dataEv = comdat any

$_ZN2xt19xcontainer_semanticINS_17xtensor_containerINS_7uvectorIdSaIdEEELm1ELNS_11layout_typeE1ENS_22xtensor_expression_tagEEEEaSINS_16xarray_containerIS4_LS5_1ENS_7svectorImLm4ESaImELb1EEES6_EEEERS7_RKNS_11xexpressionIT_EE = comdat any

$_ZN2xt14xsemantic_baseINS_17xtensor_containerINS_7uvectorIdSaIdEEELm1ELNS_11layout_typeE1ENS_22xtensor_expression_tagEEEEaSINS_16xarray_containerIS4_LS5_1ENS_7svectorImLm4ESaImELb1EEES6_EEEERS7_RKNS_11xexpressionIT_EE = comdat any

$_ZN2xt17xtensor_containerINS_7uvectorIdSaIdEEELm1ELNS_11layout_typeE1ENS_22xtensor_expression_tagEEC2INS_16xarray_containerIS3_LS4_1ENS_7svectorImLm4ESaImELb1EEES5_EEEERKNS_11xexpressionIT_EE = comdat any

$_ZNR2xt11xexpressionINS_17xtensor_containerINS_7uvectorIdSaIdEEELm1ELNS_11layout_typeE1ENS_22xtensor_expression_tagEEEE12derived_castEv = comdat any

$_ZN2xt19xcontainer_semanticINS_17xtensor_containerINS_7uvectorIdSaIdEEELm1ELNS_11layout_typeE1ENS_22xtensor_expression_tagEEEE16assign_temporaryEOS7_ = comdat any

$_ZNKR2xt11xexpressionINS_16xarray_containerINS_7uvectorIdSaIdEEELNS_11layout_typeE1ENS_7svectorImLm4ESaImELb1EEENS_22xtensor_expression_tagEEEE12derived_castEv = comdat any

$_ZN2xt14xsemantic_baseINS_17xtensor_containerINS_7uvectorIdSaIdEEELm1ELNS_11layout_typeE1ENS_22xtensor_expression_tagEEEE6assignINS_16xarray_containerIS4_LS5_1ENS_7svectorImLm4ESaImELb1EEES6_EEEERS7_RKNS_11xexpressionIT_EE = comdat any

$_ZN2xt19xcontainer_semanticINS_17xtensor_containerINS_7uvectorIdSaIdEEELm1ELNS_11layout_typeE1ENS_22xtensor_expression_tagEEEE18assign_xexpressionINS_16xarray_containerIS4_LS5_1ENS_7svectorImLm4ESaImELb1EEES6_EEEERS7_RKNS_11xexpressionIT_EE = comdat any

$_ZN2xt18assign_xexpressionINS_17xtensor_containerINS_7uvectorIdSaIdEEELm1ELNS_11layout_typeE1ENS_22xtensor_expression_tagEEENS_16xarray_containerIS4_LS5_1ENS_7svectorImLm4ESaImELb1EEES6_EEEEvRNS_11xexpressionIT_EERKNSD_IT0_EE = comdat any

$_ZN3xtl3mpl9static_ifILb0EZN2xt18assign_xexpressionINS2_17xtensor_containerINS2_7uvectorIdSaIdEEELm1ELNS2_11layout_typeE1ENS2_22xtensor_expression_tagEEENS2_16xarray_containerIS7_LS8_1ENS2_7svectorImLm4ESaImELb1EEES9_EEEEvRNS2_11xexpressionIT_EERKNSG_IT0_EEEUlSH_E_ZNS3_ISA_SF_EEvSJ_SN_EUlSH_E0_EEDcRKSK_RKT1_ = comdat any

$_ZN3xtl3mpl9static_ifIZN2xt18assign_xexpressionINS2_17xtensor_containerINS2_7uvectorIdSaIdEEELm1ELNS2_11layout_typeE1ENS2_22xtensor_expression_tagEEENS2_16xarray_containerIS7_LS8_1ENS2_7svectorImLm4ESaImELb1EEES9_EEEEvRNS2_11xexpressionIT_EERKNSG_IT0_EEEUlSH_E_ZNS3_ISA_SF_EEvSJ_SN_EUlSH_E0_EEDcSt17integral_constantIbLb0EERKSH_RKSK_ = comdat any

$_ZZN2xt18assign_xexpressionINS_17xtensor_containerINS_7uvectorIdSaIdEEELm1ELNS_11layout_typeE1ENS_22xtensor_expression_tagEEENS_16xarray_containerIS4_LS5_1ENS_7svectorImLm4ESaImELb1EEES6_EEEEvRNS_11xexpressionIT_EERKNSD_IT0_EEENKUlSE_E0_clIN3xtl8identityEEEDaSE_ = comdat any

$_ZN2xt20xexpression_assignerINS_22xtensor_expression_tagEE18assign_xexpressionINS_11xexpressionINS_17xtensor_containerINS_7uvectorIdSaIdEEELm1ELNS_11layout_typeE1ES1_EEEENS4_INS_16xarray_containerIS8_LS9_1ENS_7svectorImLm4ESaImELb1EEES1_EEEEEEvRT_RKT0_ = comdat any

$_ZN2xt20xexpression_assignerINS_22xtensor_expression_tagEE6resizeINS_17xtensor_containerINS_7uvectorIdSaIdEEELm1ELNS_11layout_typeE1ES1_EENS_16xarray_containerIS7_LS8_1ENS_7svectorImLm4ESaImELb1EEES1_EEEEbRT_RKT0_ = comdat any

$_ZN2xt25xexpression_assigner_baseINS_22xtensor_expression_tagEE11assign_dataINS_17xtensor_containerINS_7uvectorIdSaIdEEELm1ELNS_11layout_typeE1ES1_EENS_16xarray_containerIS7_LS8_1ENS_7svectorImLm4ESaImELb1EEES1_EEEEvRNS_11xexpressionIT_EERKNSF_IT0_EEb = comdat any

$_ZN2xt18xstrided_containerINS_17xtensor_containerINS_7uvectorIdSaIdEEELm1ELNS_11layout_typeE1ENS_22xtensor_expression_tagEEEE6resizeIRKNS_7svectorImLm4ESaImELb1EEEEEvOT_b = comdat any

$_ZSt5beginISt5arrayImLm1EEEDTcldtfp_5beginEERT_ = comdat any

$_ZN3xtl16forward_sequenceISt5arrayImLm1EERKN2xt7svectorImLm4ESaImELb1EEEEEDcRNSt16remove_referenceIT0_E4typeE = comdat any

$_ZN2xt16resize_containerIlLm1EEEbRSt5arrayIT_XT0_EENS3_9size_typeE = comdat any

$_ZN2xt15compute_stridesILNS_11layout_typeE1ESt5arrayImLm1EES2_IlLm1EES4_EEmRKT0_S1_RT1_RT2_ = comdat any

$_ZN2xt10xcontainerINS_17xtensor_containerINS_7uvectorIdSaIdEEELm1ELNS_11layout_typeE1ENS_22xtensor_expression_tagEEEE7storageEv = comdat any

$_ZN3xtl6detail23sequence_forwarder_implISt5arrayImLm1EEN2xt7svectorImLm4ESaImELb1EEEvE7forwardIS7_EES3_RKT_ = comdat any

$_ZN2xt6detail15compute_stridesILNS_11layout_typeE1ESt5arrayImLm1EES3_IlLm1EEPS5_EEmRKT0_S2_RT1_T2_ = comdat any

$_ZNSt5arrayIlLm1EEixEm = comdat any

$_ZN2xt6detail13adapt_stridesISt5arrayImLm1EES2_IlLm1EEPS4_EEvRKT_RT0_T1_NS9_9size_typeE = comdat any

$_ZNSt14__array_traitsIlLm1EE6_S_refERA1_Klm = comdat any

$_ZNR2xt10xcontainerINS_17xtensor_containerINS_7uvectorIdSaIdEEELm1ELNS_11layout_typeE1ENS_22xtensor_expression_tagEEEE12derived_castEv = comdat any

$_ZN2xt17xtensor_containerINS_7uvectorIdSaIdEEELm1ELNS_11layout_typeE1ENS_22xtensor_expression_tagEE12storage_implEv = comdat any

$_ZN2xt14xassign_traitsINS_17xtensor_containerINS_7uvectorIdSaIdEEELm1ELNS_11layout_typeE1ENS_22xtensor_expression_tagEEENS_16xarray_containerIS4_LS5_1ENS_7svectorImLm4ESaImELb1EEES6_EEE13linear_assignERKS7_RKSC_b = comdat any

$_ZN2xt14xassign_traitsINS_17xtensor_containerINS_7uvectorIdSaIdEEELm1ELNS_11layout_typeE1ENS_22xtensor_expression_tagEEENS_16xarray_containerIS4_LS5_1ENS_7svectorImLm4ESaImELb1EEES6_EEE18simd_linear_assignERKS7_RKSC_ = comdat any

$_ZN2xt15linear_assignerILb0EE3runINS_17xtensor_containerINS_7uvectorIdSaIdEEELm1ELNS_11layout_typeE1ENS_22xtensor_expression_tagEEENS_16xarray_containerIS6_LS7_1ENS_7svectorImLm4ESaImELb1EEES8_EEEEvRT_RKT0_ = comdat any

$_ZN2xt16stepper_assignerINS_17xtensor_containerINS_7uvectorIdSaIdEEELm1ELNS_11layout_typeE1ENS_22xtensor_expression_tagEEENS_16xarray_containerIS4_LS5_1ENS_7svectorImLm4ESaImELb1EEES6_EELS5_1EEC2ERS7_RKSC_ = comdat any

$_ZN2xt16stepper_assignerINS_17xtensor_containerINS_7uvectorIdSaIdEEELm1ELNS_11layout_typeE1ENS_22xtensor_expression_tagEEENS_16xarray_containerIS4_LS5_1ENS_7svectorImLm4ESaImELb1EEES6_EELS5_1EE3runEv = comdat any

$_ZN2xt6detail16is_linear_assignINS_17xtensor_containerINS_7uvectorIdSaIdEEELm1ELNS_11layout_typeE1ENS_22xtensor_expression_tagEEENS_16xarray_containerIS5_LS6_1ENS_7svectorImLm4ESaImELb1EEES7_EEEENSt9enable_ifIXsr11has_stridesIT_EE5valueEbE4typeERKSF_RKT0_ = comdat any

$_ZN2xt15linear_assignerILb0EE8run_implINS_17xtensor_containerINS_7uvectorIdSaIdEEELm1ELNS_11layout_typeE1ENS_22xtensor_expression_tagEEENS_16xarray_containerIS6_LS7_1ENS_7svectorImLm4ESaImELb1EEES8_EEEEvRT_RKT0_St17integral_constantIbLb1EE = comdat any

$_ZN2xt12linear_beginINS_16xarray_containerINS_7uvectorIdSaIdEEELNS_11layout_typeE1ENS_7svectorImLm4ESaImELb1EEENS_22xtensor_expression_tagEEEEEDaRKT_ = comdat any

$_ZN2xt12linear_beginINS_17xtensor_containerINS_7uvectorIdSaIdEEELm1ELNS_11layout_typeE1ENS_22xtensor_expression_tagEEEEEDaRT_ = comdat any

$_ZNK2xt10xcontainerINS_17xtensor_containerINS_7uvectorIdSaIdEEELm1ELNS_11layout_typeE1ENS_22xtensor_expression_tagEEEE4sizeEv = comdat any

$_ZN3xtl3mpl9static_ifILb1EZN2xt12linear_beginINS2_16xarray_containerINS2_7uvectorIdSaIdEEELNS2_11layout_typeE1ENS2_7svectorImLm4ESaImELb1EEENS2_22xtensor_expression_tagEEEEEDaRKT_EUlSE_E_ZNS3_ISD_EEDaSG_EUlSE_E0_EEDcRKT0_RKT1_ = comdat any

$_ZN3xtl3mpl9static_ifIZN2xt12linear_beginINS2_16xarray_containerINS2_7uvectorIdSaIdEEELNS2_11layout_typeE1ENS2_7svectorImLm4ESaImELb1EEENS2_22xtensor_expression_tagEEEEEDaRKT_EUlSE_E_ZNS3_ISD_EEDaSG_EUlSE_E0_EEDcSt17integral_constantIbLb1EESG_RKT0_ = comdat any

$_ZZN2xt12linear_beginINS_16xarray_containerINS_7uvectorIdSaIdEEELNS_11layout_typeE1ENS_7svectorImLm4ESaImELb1EEENS_22xtensor_expression_tagEEEEEDaRKT_ENKUlSB_E_clIN3xtl8identityEEEDaSB_ = comdat any

$_ZNK3xtl8identityclIRKN2xt16xarray_containerINS2_7uvectorIdSaIdEEELNS2_11layout_typeE1ENS2_7svectorImLm4ESaImELb1EEENS2_22xtensor_expression_tagEEEEEOT_SG_ = comdat any

$_ZNK2xt10xcontainerINS_16xarray_containerINS_7uvectorIdSaIdEEELNS_11layout_typeE1ENS_7svectorImLm4ESaImELb1EEENS_22xtensor_expression_tagEEEE14storage_cbeginEv = comdat any

$_ZNK2xt10xcontainerINS_16xarray_containerINS_7uvectorIdSaIdEEELNS_11layout_typeE1ENS_7svectorImLm4ESaImELb1EEENS_22xtensor_expression_tagEEEE7storageEv = comdat any

$_ZNK2xt7uvectorIdSaIdEE6cbeginEv = comdat any

$_ZNK2xt16xarray_containerINS_7uvectorIdSaIdEEELNS_11layout_typeE1ENS_7svectorImLm4ESaImELb1EEENS_22xtensor_expression_tagEE12storage_implEv = comdat any

$_ZNK2xt7uvectorIdSaIdEE5beginEv = comdat any

$_ZN3xtl3mpl9static_ifILb1EZN2xt12linear_beginINS2_17xtensor_containerINS2_7uvectorIdSaIdEEELm1ELNS2_11layout_typeE1ENS2_22xtensor_expression_tagEEEEEDaRT_EUlSB_E_ZNS3_ISA_EEDaSC_EUlSB_E0_EEDcRKT0_RKT1_ = comdat any

$_ZN3xtl3mpl9static_ifIZN2xt12linear_beginINS2_17xtensor_containerINS2_7uvectorIdSaIdEEELm1ELNS2_11layout_typeE1ENS2_22xtensor_expression_tagEEEEEDaRT_EUlSB_E_ZNS3_ISA_EEDaSC_EUlSB_E0_EEDcSt17integral_constantIbLb1EERKSB_RKT0_ = comdat any

$_ZZN2xt12linear_beginINS_17xtensor_containerINS_7uvectorIdSaIdEEELm1ELNS_11layout_typeE1ENS_22xtensor_expression_tagEEEEEDaRT_ENKUlS8_E_clIN3xtl8identityEEEDaS8_ = comdat any

$_ZNK3xtl8identityclIRN2xt17xtensor_containerINS2_7uvectorIdSaIdEEELm1ELNS2_11layout_typeE1ENS2_22xtensor_expression_tagEEEEEOT_SC_ = comdat any

$_ZN2xt10xcontainerINS_17xtensor_containerINS_7uvectorIdSaIdEEELm1ELNS_11layout_typeE1ENS_22xtensor_expression_tagEEEE13storage_beginEv = comdat any

$_ZN2xt7uvectorIdSaIdEE5beginEv = comdat any

$_ZNK2xt10xcontainerINS_17xtensor_containerINS_7uvectorIdSaIdEEELm1ELNS_11layout_typeE1ENS_22xtensor_expression_tagEEEE7storageEv = comdat any

$_ZNKR2xt10xcontainerINS_17xtensor_containerINS_7uvectorIdSaIdEEELm1ELNS_11layout_typeE1ENS_22xtensor_expression_tagEEEE12derived_castEv = comdat any

$_ZNK2xt17xtensor_containerINS_7uvectorIdSaIdEEELm1ELNS_11layout_typeE1ENS_22xtensor_expression_tagEE12storage_implEv = comdat any

$_ZN2xt10xcontainerINS_17xtensor_containerINS_7uvectorIdSaIdEEELm1ELNS_11layout_typeE1ENS_22xtensor_expression_tagEEEE13stepper_beginISt5arrayImLm1EEEENS_8xstepperIS7_EERKT_ = comdat any

$_ZNK2xt10xcontainerINS_16xarray_containerINS_7uvectorIdSaIdEEELNS_11layout_typeE1ENS_7svectorImLm4ESaImELb1EEENS_22xtensor_expression_tagEEEE13stepper_beginISt5arrayImLm1EEEENS_8xstepperIKSA_EERKT_ = comdat any

$_ZN2xt10xcontainerINS_17xtensor_containerINS_7uvectorIdSaIdEEELm1ELNS_11layout_typeE1ENS_22xtensor_expression_tagEEEE11data_xbeginEv = comdat any

$_ZN2xt8xstepperINS_17xtensor_containerINS_7uvectorIdSaIdEEELm1ELNS_11layout_typeE1ENS_22xtensor_expression_tagEEEEC2EPS7_Pdm = comdat any

$_ZNK2xt10xcontainerINS_16xarray_containerINS_7uvectorIdSaIdEEELNS_11layout_typeE1ENS_7svectorImLm4ESaImELb1EEENS_22xtensor_expression_tagEEEE11data_xbeginEv = comdat any

$_ZN2xt8xstepperIKNS_16xarray_containerINS_7uvectorIdSaIdEEELNS_11layout_typeE1ENS_7svectorImLm4ESaImELb1EEENS_22xtensor_expression_tagEEEEC2EPSB_PKdm = comdat any

$_ZN2xt16conditional_castILb0EdRKdEEDaOT1_ = comdat any

$_ZNK2xt8xstepperIKNS_16xarray_containerINS_7uvectorIdSaIdEEELNS_11layout_typeE1ENS_7svectorImLm4ESaImELb1EEENS_22xtensor_expression_tagEEEEdeEv = comdat any

$_ZNK2xt8xstepperINS_17xtensor_containerINS_7uvectorIdSaIdEEELm1ELNS_11layout_typeE1ENS_22xtensor_expression_tagEEEEdeEv = comdat any

$_ZN2xt13stepper_toolsILNS_11layout_typeE1EE17increment_stepperINS_16stepper_assignerINS_17xtensor_containerINS_7uvectorIdSaIdEEELm1ELS1_1ENS_22xtensor_expression_tagEEENS_16xarray_containerIS8_LS1_1ENS_7svectorImLm4ESaImELb1EEES9_EELS1_1EEESt5arrayImLm1EESI_EEvRT_RT0_RKT1_ = comdat any

$_ZNK3xtl8identityclIRKdEEOT_S5_ = comdat any

$_ZNSt5arrayImLm1EEixEm = comdat any

$_ZN2xt16stepper_assignerINS_17xtensor_containerINS_7uvectorIdSaIdEEELm1ELNS_11layout_typeE1ENS_22xtensor_expression_tagEEENS_16xarray_containerIS4_LS5_1ENS_7svectorImLm4ESaImELb1EEES6_EELS5_1EE4stepEm = comdat any

$_ZN2xt16stepper_assignerINS_17xtensor_containerINS_7uvectorIdSaIdEEELm1ELNS_11layout_typeE1ENS_22xtensor_expression_tagEEENS_16xarray_containerIS4_LS5_1ENS_7svectorImLm4ESaImELb1EEES6_EELS5_1EE5resetEm = comdat any

$_ZNKSt5arrayImLm1EE6cbeginEv = comdat any

$_ZNKSt5arrayImLm1EE4cendEv = comdat any

$_ZN2xt16stepper_assignerINS_17xtensor_containerINS_7uvectorIdSaIdEEELm1ELNS_11layout_typeE1ENS_22xtensor_expression_tagEEENS_16xarray_containerIS4_LS5_1ENS_7svectorImLm4ESaImELb1EEES6_EELS5_1EE6to_endES5_ = comdat any

$_ZNSt14__array_traitsImLm1EE6_S_refERA1_Kmm = comdat any

$_ZN2xt8xstepperINS_17xtensor_containerINS_7uvectorIdSaIdEEELm1ELNS_11layout_typeE1ENS_22xtensor_expression_tagEEEE4stepEmm = comdat any

$_ZN2xt8xstepperIKNS_16xarray_containerINS_7uvectorIdSaIdEEELNS_11layout_typeE1ENS_7svectorImLm4ESaImELb1EEENS_22xtensor_expression_tagEEEE4stepEmm = comdat any

$_ZNK2xt10xcontainerINS_17xtensor_containerINS_7uvectorIdSaIdEEELm1ELNS_11layout_typeE1ENS_22xtensor_expression_tagEEEE7stridesEv = comdat any

$_ZNKSt5arrayIlLm1EEixEm = comdat any

$_ZNK2xt18xstrided_containerINS_17xtensor_containerINS_7uvectorIdSaIdEEELm1ELNS_11layout_typeE1ENS_22xtensor_expression_tagEEEE12strides_implEv = comdat any

$_ZNK2xt10xcontainerINS_16xarray_containerINS_7uvectorIdSaIdEEELNS_11layout_typeE1ENS_7svectorImLm4ESaImELb1EEENS_22xtensor_expression_tagEEEE7stridesEv = comdat any

$_ZNK2xt7svectorIlLm4ESaIlELb1EEixEm = comdat any

$_ZNK2xt18xstrided_containerINS_16xarray_containerINS_7uvectorIdSaIdEEELNS_11layout_typeE1ENS_7svectorImLm4ESaImELb1EEENS_22xtensor_expression_tagEEEE12strides_implEv = comdat any

$_ZN2xt8xstepperINS_17xtensor_containerINS_7uvectorIdSaIdEEELm1ELNS_11layout_typeE1ENS_22xtensor_expression_tagEEEE5resetEm = comdat any

$_ZN2xt8xstepperIKNS_16xarray_containerINS_7uvectorIdSaIdEEELNS_11layout_typeE1ENS_7svectorImLm4ESaImELb1EEENS_22xtensor_expression_tagEEEE5resetEm = comdat any

$_ZNK2xt10xcontainerINS_17xtensor_containerINS_7uvectorIdSaIdEEELm1ELNS_11layout_typeE1ENS_22xtensor_expression_tagEEEE11backstridesEv = comdat any

$_ZNK2xt18xstrided_containerINS_17xtensor_containerINS_7uvectorIdSaIdEEELm1ELNS_11layout_typeE1ENS_22xtensor_expression_tagEEEE16backstrides_implEv = comdat any

$_ZNK2xt10xcontainerINS_16xarray_containerINS_7uvectorIdSaIdEEELNS_11layout_typeE1ENS_7svectorImLm4ESaImELb1EEENS_22xtensor_expression_tagEEEE11backstridesEv = comdat any

$_ZNK2xt18xstrided_containerINS_16xarray_containerINS_7uvectorIdSaIdEEELNS_11layout_typeE1ENS_7svectorImLm4ESaImELb1EEENS_22xtensor_expression_tagEEEE16backstrides_implEv = comdat any

$_ZNKSt5arrayImLm1EE4dataEv = comdat any

$_ZN2xt8xstepperINS_17xtensor_containerINS_7uvectorIdSaIdEEELm1ELNS_11layout_typeE1ENS_22xtensor_expression_tagEEEE6to_endES5_ = comdat any

$_ZN2xt8xstepperIKNS_16xarray_containerINS_7uvectorIdSaIdEEELNS_11layout_typeE1ENS_7svectorImLm4ESaImELb1EEENS_22xtensor_expression_tagEEEE6to_endES5_ = comdat any

$_ZN2xt10xcontainerINS_17xtensor_containerINS_7uvectorIdSaIdEEELm1ELNS_11layout_typeE1ENS_22xtensor_expression_tagEEEE9data_xendES5_m = comdat any

$_ZNK2xt10xcontainerINS_17xtensor_containerINS_7uvectorIdSaIdEEELm1ELNS_11layout_typeE1ENS_22xtensor_expression_tagEEEE14data_xend_implIPdEET_SB_S5_m = comdat any

$_ZN2xt16strided_data_endINS_10xcontainerINS_17xtensor_containerINS_7uvectorIdSaIdEEELm1ELNS_11layout_typeE1ENS_22xtensor_expression_tagEEEEEPdmEET0_RKT_SB_S6_T1_ = comdat any

$_ZNKSt5arrayIlLm1EE4backEv = comdat any

$_ZNKSt5arrayIlLm1EE5frontEv = comdat any

$_ZNK2xt10xcontainerINS_16xarray_containerINS_7uvectorIdSaIdEEELNS_11layout_typeE1ENS_7svectorImLm4ESaImELb1EEENS_22xtensor_expression_tagEEEE9data_xendES5_m = comdat any

$_ZNK2xt10xcontainerINS_16xarray_containerINS_7uvectorIdSaIdEEELNS_11layout_typeE1ENS_7svectorImLm4ESaImELb1EEENS_22xtensor_expression_tagEEEE14data_xend_implIPKdEET_SF_S5_m = comdat any

$_ZN2xt16strided_data_endINS_10xcontainerINS_16xarray_containerINS_7uvectorIdSaIdEEELNS_11layout_typeE1ENS_7svectorImLm4ESaImELb1EEENS_22xtensor_expression_tagEEEEEPKdmEET0_RKT_SF_S6_T1_ = comdat any

$_ZNK2xt7svectorIlLm4ESaIlELb1EE4backEv = comdat any

$_ZNK2xt7svectorIlLm4ESaIlELb1EE5frontEv = comdat any

$_ZN2xt17xtensor_containerINS_7uvectorIdSaIdEEELm1ELNS_11layout_typeE1ENS_22xtensor_expression_tagEEaSEOS6_ = comdat any

$_ZN2xt19xcontainer_semanticINS_17xtensor_containerINS_7uvectorIdSaIdEEELm1ELNS_11layout_typeE1ENS_22xtensor_expression_tagEEEEaSEOS8_ = comdat any

$_ZN2xt7uvectorIdSaIdEEaSEOS2_ = comdat any

$_ZN2xt14xsemantic_baseINS_17xtensor_containerINS_7uvectorIdSaIdEEELm1ELNS_11layout_typeE1ENS_22xtensor_expression_tagEEEEaSEOS8_ = comdat any

$_ZN2xt20xsharable_expressionINS_17xtensor_containerINS_7uvectorIdSaIdEEELm1ELNS_11layout_typeE1ENS_22xtensor_expression_tagEEEEaSEOS8_ = comdat any

$_ZNSt10shared_ptrIN2xt17xtensor_containerINS0_7uvectorIdSaIdEEELm1ELNS0_11layout_typeE1ENS0_22xtensor_expression_tagEEEEaSEOS8_ = comdat any

$_ZNSt12__shared_ptrIN2xt17xtensor_containerINS0_7uvectorIdSaIdEEELm1ELNS0_11layout_typeE1ENS0_22xtensor_expression_tagEEELN9__gnu_cxx12_Lock_policyE2EEaSEOSA_ = comdat any

$_ZNSt12__shared_ptrIN2xt17xtensor_containerINS0_7uvectorIdSaIdEEELm1ELNS0_11layout_typeE1ENS0_22xtensor_expression_tagEEELN9__gnu_cxx12_Lock_policyE2EEC2EOSA_ = comdat any

$_ZNSt12__shared_ptrIN2xt17xtensor_containerINS0_7uvectorIdSaIdEEELm1ELNS0_11layout_typeE1ENS0_22xtensor_expression_tagEEELN9__gnu_cxx12_Lock_policyE2EE4swapERSA_ = comdat any

$_ZNSt12__shared_ptrIN2xt17xtensor_containerINS0_7uvectorIdSaIdEEELm1ELNS0_11layout_typeE1ENS0_22xtensor_expression_tagEEELN9__gnu_cxx12_Lock_policyE2EED2Ev = comdat any

$_ZNSt14__shared_countILN9__gnu_cxx12_Lock_policyE2EE7_M_swapERS2_ = comdat any

$_ZSt4swapIPN2xt17xtensor_containerINS0_7uvectorIdSaIdEEELm1ELNS0_11layout_typeE1ENS0_22xtensor_expression_tagEEEENSt9enable_ifIXsr6__and_ISt6__not_ISt15__is_tuple_likeIT_EESt21is_move_constructibleISC_ESt18is_move_assignableISC_EEE5valueEvE4typeERSC_SL_ = comdat any

$_ZN2xt7uvectorIdSaIdEEC2EOS2_ = comdat any

$_ZSt4swapIPdENSt9enable_ifIXsr6__and_ISt6__not_ISt15__is_tuple_likeIT_EESt21is_move_constructibleIS4_ESt18is_move_assignableIS4_EEE5valueEvE4typeERS4_SD_ = comdat any

$_ZSt8_DestroyIPmmEvT_S1_RSaIT0_E = comdat any

$_ZSt8_DestroyIPmEvT_S1_ = comdat any

$_ZNSt12_Destroy_auxILb1EE9__destroyIPmEEvT_S3_ = comdat any

$_ZNK2xt18xstrided_containerINS_17xtensor_containerINS_7uvectorIdSaIdEEELm1ELNS_11layout_typeE1ENS_22xtensor_expression_tagEEEE10shape_implEv = comdat any

$_ZN2xt17xtensor_containerINS_7uvectorIdSaIdEEELm3ELNS_11layout_typeE1ENS_22xtensor_expression_tagEEaSINS_16xarray_containerIS3_LS4_1ENS_7svectorImLm4ESaImELb1EEES5_EEEERS6_RKNS_11xexpressionIT_EE = comdat any

$_ZN2xt19xcontainer_semanticINS_17xtensor_containerINS_7uvectorIdSaIdEEELm3ELNS_11layout_typeE1ENS_22xtensor_expression_tagEEEEaSINS_16xarray_containerIS4_LS5_1ENS_7svectorImLm4ESaImELb1EEES6_EEEERS7_RKNS_11xexpressionIT_EE = comdat any

$_ZN2xt14xsemantic_baseINS_17xtensor_containerINS_7uvectorIdSaIdEEELm3ELNS_11layout_typeE1ENS_22xtensor_expression_tagEEEEaSINS_16xarray_containerIS4_LS5_1ENS_7svectorImLm4ESaImELb1EEES6_EEEERS7_RKNS_11xexpressionIT_EE = comdat any

$_ZN2xt17xtensor_containerINS_7uvectorIdSaIdEEELm3ELNS_11layout_typeE1ENS_22xtensor_expression_tagEEC2INS_16xarray_containerIS3_LS4_1ENS_7svectorImLm4ESaImELb1EEES5_EEEERKNS_11xexpressionIT_EE = comdat any

$_ZNR2xt11xexpressionINS_17xtensor_containerINS_7uvectorIdSaIdEEELm3ELNS_11layout_typeE1ENS_22xtensor_expression_tagEEEE12derived_castEv = comdat any

$_ZN2xt19xcontainer_semanticINS_17xtensor_containerINS_7uvectorIdSaIdEEELm3ELNS_11layout_typeE1ENS_22xtensor_expression_tagEEEE16assign_temporaryEOS7_ = comdat any

$_ZN2xt14xsemantic_baseINS_17xtensor_containerINS_7uvectorIdSaIdEEELm3ELNS_11layout_typeE1ENS_22xtensor_expression_tagEEEE6assignINS_16xarray_containerIS4_LS5_1ENS_7svectorImLm4ESaImELb1EEES6_EEEERS7_RKNS_11xexpressionIT_EE = comdat any

$_ZN2xt19xcontainer_semanticINS_17xtensor_containerINS_7uvectorIdSaIdEEELm3ELNS_11layout_typeE1ENS_22xtensor_expression_tagEEEE18assign_xexpressionINS_16xarray_containerIS4_LS5_1ENS_7svectorImLm4ESaImELb1EEES6_EEEERS7_RKNS_11xexpressionIT_EE = comdat any

$_ZN2xt18assign_xexpressionINS_17xtensor_containerINS_7uvectorIdSaIdEEELm3ELNS_11layout_typeE1ENS_22xtensor_expression_tagEEENS_16xarray_containerIS4_LS5_1ENS_7svectorImLm4ESaImELb1EEES6_EEEEvRNS_11xexpressionIT_EERKNSD_IT0_EE = comdat any

$_ZN3xtl3mpl9static_ifILb0EZN2xt18assign_xexpressionINS2_17xtensor_containerINS2_7uvectorIdSaIdEEELm3ELNS2_11layout_typeE1ENS2_22xtensor_expression_tagEEENS2_16xarray_containerIS7_LS8_1ENS2_7svectorImLm4ESaImELb1EEES9_EEEEvRNS2_11xexpressionIT_EERKNSG_IT0_EEEUlSH_E_ZNS3_ISA_SF_EEvSJ_SN_EUlSH_E0_EEDcRKSK_RKT1_ = comdat any

$_ZN3xtl3mpl9static_ifIZN2xt18assign_xexpressionINS2_17xtensor_containerINS2_7uvectorIdSaIdEEELm3ELNS2_11layout_typeE1ENS2_22xtensor_expression_tagEEENS2_16xarray_containerIS7_LS8_1ENS2_7svectorImLm4ESaImELb1EEES9_EEEEvRNS2_11xexpressionIT_EERKNSG_IT0_EEEUlSH_E_ZNS3_ISA_SF_EEvSJ_SN_EUlSH_E0_EEDcSt17integral_constantIbLb0EERKSH_RKSK_ = comdat any

$_ZZN2xt18assign_xexpressionINS_17xtensor_containerINS_7uvectorIdSaIdEEELm3ELNS_11layout_typeE1ENS_22xtensor_expression_tagEEENS_16xarray_containerIS4_LS5_1ENS_7svectorImLm4ESaImELb1EEES6_EEEEvRNS_11xexpressionIT_EERKNSD_IT0_EEENKUlSE_E0_clIN3xtl8identityEEEDaSE_ = comdat any

$_ZN2xt20xexpression_assignerINS_22xtensor_expression_tagEE18assign_xexpressionINS_11xexpressionINS_17xtensor_containerINS_7uvectorIdSaIdEEELm3ELNS_11layout_typeE1ES1_EEEENS4_INS_16xarray_containerIS8_LS9_1ENS_7svectorImLm4ESaImELb1EEES1_EEEEEEvRT_RKT0_ = comdat any

$_ZN2xt20xexpression_assignerINS_22xtensor_expression_tagEE6resizeINS_17xtensor_containerINS_7uvectorIdSaIdEEELm3ELNS_11layout_typeE1ES1_EENS_16xarray_containerIS7_LS8_1ENS_7svectorImLm4ESaImELb1EEES1_EEEEbRT_RKT0_ = comdat any

$_ZN2xt25xexpression_assigner_baseINS_22xtensor_expression_tagEE11assign_dataINS_17xtensor_containerINS_7uvectorIdSaIdEEELm3ELNS_11layout_typeE1ES1_EENS_16xarray_containerIS7_LS8_1ENS_7svectorImLm4ESaImELb1EEES1_EEEEvRNS_11xexpressionIT_EERKNSF_IT0_EEb = comdat any

$_ZN2xt18xstrided_containerINS_17xtensor_containerINS_7uvectorIdSaIdEEELm3ELNS_11layout_typeE1ENS_22xtensor_expression_tagEEEE6resizeIRKNS_7svectorImLm4ESaImELb1EEEEEvOT_b = comdat any

$_ZSt5beginISt5arrayImLm3EEEDTcldtfp_5beginEERT_ = comdat any

$_ZN3xtl16forward_sequenceISt5arrayImLm3EERKN2xt7svectorImLm4ESaImELb1EEEEEDcRNSt16remove_referenceIT0_E4typeE = comdat any

$_ZN2xt16resize_containerIlLm3EEEbRSt5arrayIT_XT0_EENS3_9size_typeE = comdat any

$_ZN2xt15compute_stridesILNS_11layout_typeE1ESt5arrayImLm3EES2_IlLm3EES4_EEmRKT0_S1_RT1_RT2_ = comdat any

$_ZN2xt10xcontainerINS_17xtensor_containerINS_7uvectorIdSaIdEEELm3ELNS_11layout_typeE1ENS_22xtensor_expression_tagEEEE7storageEv = comdat any

$_ZN3xtl6detail23sequence_forwarder_implISt5arrayImLm3EEN2xt7svectorImLm4ESaImELb1EEEvE7forwardIS7_EES3_RKT_ = comdat any

$_ZN2xt6detail15compute_stridesILNS_11layout_typeE1ESt5arrayImLm3EES3_IlLm3EEPS5_EEmRKT0_S2_RT1_T2_ = comdat any

$_ZNSt5arrayIlLm3EEixEm = comdat any

$_ZNKSt5arrayImLm3EEixEm = comdat any

$_ZN2xt6detail13adapt_stridesISt5arrayImLm3EES2_IlLm3EEPS4_EEvRKT_RT0_T1_NS9_9size_typeE = comdat any

$_ZNSt14__array_traitsIlLm3EE6_S_refERA3_Klm = comdat any

$_ZNSt14__array_traitsImLm3EE6_S_refERA3_Kmm = comdat any

$_ZNR2xt10xcontainerINS_17xtensor_containerINS_7uvectorIdSaIdEEELm3ELNS_11layout_typeE1ENS_22xtensor_expression_tagEEEE12derived_castEv = comdat any

$_ZN2xt17xtensor_containerINS_7uvectorIdSaIdEEELm3ELNS_11layout_typeE1ENS_22xtensor_expression_tagEE12storage_implEv = comdat any

$_ZN2xt14xassign_traitsINS_17xtensor_containerINS_7uvectorIdSaIdEEELm3ELNS_11layout_typeE1ENS_22xtensor_expression_tagEEENS_16xarray_containerIS4_LS5_1ENS_7svectorImLm4ESaImELb1EEES6_EEE13linear_assignERKS7_RKSC_b = comdat any

$_ZN2xt14xassign_traitsINS_17xtensor_containerINS_7uvectorIdSaIdEEELm3ELNS_11layout_typeE1ENS_22xtensor_expression_tagEEENS_16xarray_containerIS4_LS5_1ENS_7svectorImLm4ESaImELb1EEES6_EEE18simd_linear_assignERKS7_RKSC_ = comdat any

$_ZN2xt15linear_assignerILb0EE3runINS_17xtensor_containerINS_7uvectorIdSaIdEEELm3ELNS_11layout_typeE1ENS_22xtensor_expression_tagEEENS_16xarray_containerIS6_LS7_1ENS_7svectorImLm4ESaImELb1EEES8_EEEEvRT_RKT0_ = comdat any

$_ZN2xt16stepper_assignerINS_17xtensor_containerINS_7uvectorIdSaIdEEELm3ELNS_11layout_typeE1ENS_22xtensor_expression_tagEEENS_16xarray_containerIS4_LS5_1ENS_7svectorImLm4ESaImELb1EEES6_EELS5_1EEC2ERS7_RKSC_ = comdat any

$_ZN2xt16stepper_assignerINS_17xtensor_containerINS_7uvectorIdSaIdEEELm3ELNS_11layout_typeE1ENS_22xtensor_expression_tagEEENS_16xarray_containerIS4_LS5_1ENS_7svectorImLm4ESaImELb1EEES6_EELS5_1EE3runEv = comdat any

$_ZN2xt6detail16is_linear_assignINS_17xtensor_containerINS_7uvectorIdSaIdEEELm3ELNS_11layout_typeE1ENS_22xtensor_expression_tagEEENS_16xarray_containerIS5_LS6_1ENS_7svectorImLm4ESaImELb1EEES7_EEEENSt9enable_ifIXsr11has_stridesIT_EE5valueEbE4typeERKSF_RKT0_ = comdat any

$_ZN2xt15linear_assignerILb0EE8run_implINS_17xtensor_containerINS_7uvectorIdSaIdEEELm3ELNS_11layout_typeE1ENS_22xtensor_expression_tagEEENS_16xarray_containerIS6_LS7_1ENS_7svectorImLm4ESaImELb1EEES8_EEEEvRT_RKT0_St17integral_constantIbLb1EE = comdat any

$_ZN2xt12linear_beginINS_17xtensor_containerINS_7uvectorIdSaIdEEELm3ELNS_11layout_typeE1ENS_22xtensor_expression_tagEEEEEDaRT_ = comdat any

$_ZNK2xt10xcontainerINS_17xtensor_containerINS_7uvectorIdSaIdEEELm3ELNS_11layout_typeE1ENS_22xtensor_expression_tagEEEE4sizeEv = comdat any

$_ZN3xtl3mpl9static_ifILb1EZN2xt12linear_beginINS2_17xtensor_containerINS2_7uvectorIdSaIdEEELm3ELNS2_11layout_typeE1ENS2_22xtensor_expression_tagEEEEEDaRT_EUlSB_E_ZNS3_ISA_EEDaSC_EUlSB_E0_EEDcRKT0_RKT1_ = comdat any

$_ZN3xtl3mpl9static_ifIZN2xt12linear_beginINS2_17xtensor_containerINS2_7uvectorIdSaIdEEELm3ELNS2_11layout_typeE1ENS2_22xtensor_expression_tagEEEEEDaRT_EUlSB_E_ZNS3_ISA_EEDaSC_EUlSB_E0_EEDcSt17integral_constantIbLb1EERKSB_RKT0_ = comdat any

$_ZZN2xt12linear_beginINS_17xtensor_containerINS_7uvectorIdSaIdEEELm3ELNS_11layout_typeE1ENS_22xtensor_expression_tagEEEEEDaRT_ENKUlS8_E_clIN3xtl8identityEEEDaS8_ = comdat any

$_ZNK3xtl8identityclIRN2xt17xtensor_containerINS2_7uvectorIdSaIdEEELm3ELNS2_11layout_typeE1ENS2_22xtensor_expression_tagEEEEEOT_SC_ = comdat any

$_ZN2xt10xcontainerINS_17xtensor_containerINS_7uvectorIdSaIdEEELm3ELNS_11layout_typeE1ENS_22xtensor_expression_tagEEEE13storage_beginEv = comdat any

$_ZNK2xt10xcontainerINS_17xtensor_containerINS_7uvectorIdSaIdEEELm3ELNS_11layout_typeE1ENS_22xtensor_expression_tagEEEE7storageEv = comdat any

$_ZNK2xt17xtensor_containerINS_7uvectorIdSaIdEEELm3ELNS_11layout_typeE1ENS_22xtensor_expression_tagEE12storage_implEv = comdat any

$_ZN2xt10xcontainerINS_17xtensor_containerINS_7uvectorIdSaIdEEELm3ELNS_11layout_typeE1ENS_22xtensor_expression_tagEEEE13stepper_beginISt5arrayImLm3EEEENS_8xstepperIS7_EERKT_ = comdat any

$_ZNK2xt10xcontainerINS_16xarray_containerINS_7uvectorIdSaIdEEELNS_11layout_typeE1ENS_7svectorImLm4ESaImELb1EEENS_22xtensor_expression_tagEEEE13stepper_beginISt5arrayImLm3EEEENS_8xstepperIKSA_EERKT_ = comdat any

$_ZN2xt10xcontainerINS_17xtensor_containerINS_7uvectorIdSaIdEEELm3ELNS_11layout_typeE1ENS_22xtensor_expression_tagEEEE11data_xbeginEv = comdat any

$_ZN2xt8xstepperINS_17xtensor_containerINS_7uvectorIdSaIdEEELm3ELNS_11layout_typeE1ENS_22xtensor_expression_tagEEEEC2EPS7_Pdm = comdat any

$_ZNK2xt8xstepperINS_17xtensor_containerINS_7uvectorIdSaIdEEELm3ELNS_11layout_typeE1ENS_22xtensor_expression_tagEEEEdeEv = comdat any

$_ZN2xt13stepper_toolsILNS_11layout_typeE1EE17increment_stepperINS_16stepper_assignerINS_17xtensor_containerINS_7uvectorIdSaIdEEELm3ELS1_1ENS_22xtensor_expression_tagEEENS_16xarray_containerIS8_LS1_1ENS_7svectorImLm4ESaImELb1EEES9_EELS1_1EEESt5arrayImLm3EESI_EEvRT_RT0_RKT1_ = comdat any

$_ZNSt5arrayImLm3EEixEm = comdat any

$_ZN2xt16stepper_assignerINS_17xtensor_containerINS_7uvectorIdSaIdEEELm3ELNS_11layout_typeE1ENS_22xtensor_expression_tagEEENS_16xarray_containerIS4_LS5_1ENS_7svectorImLm4ESaImELb1EEES6_EELS5_1EE4stepEm = comdat any

$_ZN2xt16stepper_assignerINS_17xtensor_containerINS_7uvectorIdSaIdEEELm3ELNS_11layout_typeE1ENS_22xtensor_expression_tagEEENS_16xarray_containerIS4_LS5_1ENS_7svectorImLm4ESaImELb1EEES6_EELS5_1EE5resetEm = comdat any

$_ZNKSt5arrayImLm3EE6cbeginEv = comdat any

$_ZNKSt5arrayImLm3EE4cendEv = comdat any

$_ZN2xt16stepper_assignerINS_17xtensor_containerINS_7uvectorIdSaIdEEELm3ELNS_11layout_typeE1ENS_22xtensor_expression_tagEEENS_16xarray_containerIS4_LS5_1ENS_7svectorImLm4ESaImELb1EEES6_EELS5_1EE6to_endES5_ = comdat any

$_ZN2xt8xstepperINS_17xtensor_containerINS_7uvectorIdSaIdEEELm3ELNS_11layout_typeE1ENS_22xtensor_expression_tagEEEE4stepEmm = comdat any

$_ZNK2xt10xcontainerINS_17xtensor_containerINS_7uvectorIdSaIdEEELm3ELNS_11layout_typeE1ENS_22xtensor_expression_tagEEEE7stridesEv = comdat any

$_ZNKSt5arrayIlLm3EEixEm = comdat any

$_ZNK2xt18xstrided_containerINS_17xtensor_containerINS_7uvectorIdSaIdEEELm3ELNS_11layout_typeE1ENS_22xtensor_expression_tagEEEE12strides_implEv = comdat any

$_ZN2xt8xstepperINS_17xtensor_containerINS_7uvectorIdSaIdEEELm3ELNS_11layout_typeE1ENS_22xtensor_expression_tagEEEE5resetEm = comdat any

$_ZNK2xt10xcontainerINS_17xtensor_containerINS_7uvectorIdSaIdEEELm3ELNS_11layout_typeE1ENS_22xtensor_expression_tagEEEE11backstridesEv = comdat any

$_ZNK2xt18xstrided_containerINS_17xtensor_containerINS_7uvectorIdSaIdEEELm3ELNS_11layout_typeE1ENS_22xtensor_expression_tagEEEE16backstrides_implEv = comdat any

$_ZNKSt5arrayImLm3EE4dataEv = comdat any

$_ZN2xt8xstepperINS_17xtensor_containerINS_7uvectorIdSaIdEEELm3ELNS_11layout_typeE1ENS_22xtensor_expression_tagEEEE6to_endES5_ = comdat any

$_ZN2xt10xcontainerINS_17xtensor_containerINS_7uvectorIdSaIdEEELm3ELNS_11layout_typeE1ENS_22xtensor_expression_tagEEEE9data_xendES5_m = comdat any

$_ZNK2xt10xcontainerINS_17xtensor_containerINS_7uvectorIdSaIdEEELm3ELNS_11layout_typeE1ENS_22xtensor_expression_tagEEEE14data_xend_implIPdEET_SB_S5_m = comdat any

$_ZN2xt16strided_data_endINS_10xcontainerINS_17xtensor_containerINS_7uvectorIdSaIdEEELm3ELNS_11layout_typeE1ENS_22xtensor_expression_tagEEEEEPdmEET0_RKT_SB_S6_T1_ = comdat any

$_ZNKSt5arrayIlLm3EE4backEv = comdat any

$_ZNKSt5arrayIlLm3EE5frontEv = comdat any

$_ZN2xt17xtensor_containerINS_7uvectorIdSaIdEEELm3ELNS_11layout_typeE1ENS_22xtensor_expression_tagEEaSEOS6_ = comdat any

$_ZN2xt19xcontainer_semanticINS_17xtensor_containerINS_7uvectorIdSaIdEEELm3ELNS_11layout_typeE1ENS_22xtensor_expression_tagEEEEaSEOS8_ = comdat any

$_ZN2xt14xsemantic_baseINS_17xtensor_containerINS_7uvectorIdSaIdEEELm3ELNS_11layout_typeE1ENS_22xtensor_expression_tagEEEEaSEOS8_ = comdat any

$_ZN2xt20xsharable_expressionINS_17xtensor_containerINS_7uvectorIdSaIdEEELm3ELNS_11layout_typeE1ENS_22xtensor_expression_tagEEEEaSEOS8_ = comdat any

$_ZNSt10shared_ptrIN2xt17xtensor_containerINS0_7uvectorIdSaIdEEELm3ELNS0_11layout_typeE1ENS0_22xtensor_expression_tagEEEEaSEOS8_ = comdat any

$_ZNSt12__shared_ptrIN2xt17xtensor_containerINS0_7uvectorIdSaIdEEELm3ELNS0_11layout_typeE1ENS0_22xtensor_expression_tagEEELN9__gnu_cxx12_Lock_policyE2EEaSEOSA_ = comdat any

$_ZNSt12__shared_ptrIN2xt17xtensor_containerINS0_7uvectorIdSaIdEEELm3ELNS0_11layout_typeE1ENS0_22xtensor_expression_tagEEELN9__gnu_cxx12_Lock_policyE2EEC2EOSA_ = comdat any

$_ZNSt12__shared_ptrIN2xt17xtensor_containerINS0_7uvectorIdSaIdEEELm3ELNS0_11layout_typeE1ENS0_22xtensor_expression_tagEEELN9__gnu_cxx12_Lock_policyE2EE4swapERSA_ = comdat any

$_ZNSt12__shared_ptrIN2xt17xtensor_containerINS0_7uvectorIdSaIdEEELm3ELNS0_11layout_typeE1ENS0_22xtensor_expression_tagEEELN9__gnu_cxx12_Lock_policyE2EED2Ev = comdat any

$_ZSt4swapIPN2xt17xtensor_containerINS0_7uvectorIdSaIdEEELm3ELNS0_11layout_typeE1ENS0_22xtensor_expression_tagEEEENSt9enable_ifIXsr6__and_ISt6__not_ISt15__is_tuple_likeIT_EESt21is_move_constructibleISC_ESt18is_move_assignableISC_EEE5valueEvE4typeERSC_SL_ = comdat any

$_ZN2xt10xcontainerINS_17xtensor_containerINS_7uvectorIdSaIdEEELm1ELNS_11layout_typeE1ENS_22xtensor_expression_tagEEEE4dataEv = comdat any

$_ZN2xt10xcontainerINS_17xtensor_containerINS_7uvectorIdSaIdEEELm3ELNS_11layout_typeE1ENS_22xtensor_expression_tagEEEE4dataEv = comdat any

$_ZNK2xt17xconst_accessibleINS_17xtensor_containerINS_7uvectorIdSaIdEEELm3ELNS_11layout_typeE1ENS_22xtensor_expression_tagEEEE5shapeEm = comdat any

$_ZNK2xt17xconst_accessibleINS_17xtensor_containerINS_7uvectorIdSaIdEEELm3ELNS_11layout_typeE1ENS_22xtensor_expression_tagEEEE12derived_castEv = comdat any

@dagmc = external global i8, align 1
@run_CE = external global i8, align 1
@max_lost_particles = external global i32, align 4
@gen_per_batch = external global i32, align 4
@n_particles = external global i64, align 8
@_ZStL8__ioinit = internal global %"class.std::ios_base::Init" zeroinitializer, align 1
@__dso_handle = external hidden global i8
@_ZN6openmcL12DEPLETION_RXE = internal constant %"struct.std::array" { [6 x i32] [i32 102, i32 103, i32 107, i32 16, i32 17, i32 37] }, align 4
@.str = private unnamed_addr constant [14 x i8] c"interpolation\00", align 1
@.str.1 = private unnamed_addr constant [10 x i8] c"inelastic\00", align 1
@.str.2 = private unnamed_addr constant [11 x i8] c"absorption\00", align 1
@.str.3 = private unnamed_addr constant [16 x i8] c"multiply_smooth\00", align 1
@.str.4 = private unnamed_addr constant [7 x i8] c"energy\00", align 1
@.str.5 = private unnamed_addr constant [6 x i8] c"table\00", align 1
@_ZZL18__gthread_active_pvE20__gthread_active_ptr = internal constant ptr @__pthread_key_create, align 8
@_ZN6openmc9H5TypeMapIiE7type_idE = external constant i64, align 8
@.str.6 = private unnamed_addr constant [49 x i8] c"cannot create std::vector larger than max_size()\00", align 1
@.str.7 = private unnamed_addr constant [74 x i8] c"Cannot change layout_type if template parameter not layout_type::dynamic.\00", align 1
@_ZTISt13runtime_error = external constant ptr
@_ZN6openmc9H5TypeMapIdE7type_idE = external constant i64, align 8
@llvm.global_ctors = appending global [1 x { i32, ptr, ptr }] [{ i32, ptr, ptr } { i32 65535, ptr @_GLOBAL__sub_I_urr.cpp, ptr null }]

@_ZN6openmc7UrrDataC1El = unnamed_addr alias void (ptr, i64), ptr @_ZN6openmc7UrrDataC2El

; Function Attrs: uwtable
define internal void @__cxx_global_var_init() #0 section ".text.startup" {
entry:
  call void @_ZNSt8ios_base4InitC1Ev(ptr noundef nonnull align 1 dereferenceable(1) @_ZStL8__ioinit)
  %0 = call i32 @__cxa_atexit(ptr @_ZNSt8ios_base4InitD1Ev, ptr @_ZStL8__ioinit, ptr @__dso_handle) #3
  ret void
}

declare void @_ZNSt8ios_base4InitC1Ev(ptr noundef nonnull align 1 dereferenceable(1)) unnamed_addr #1

; Function Attrs: nounwind
declare void @_ZNSt8ios_base4InitD1Ev(ptr noundef nonnull align 1 dereferenceable(1)) unnamed_addr #2

; Function Attrs: nounwind
declare i32 @__cxa_atexit(ptr, ptr, ptr) #3

; Function Attrs: mustprogress uwtable
define void @_ZN6openmc7UrrDataC2El(ptr noundef nonnull align 8 dereferenceable(240) %this, i64 noundef %group_id) unnamed_addr #4 align 2 personality ptr @__gxx_personality_v0 {
entry:
  %this.addr = alloca ptr, align 8
  %group_id.addr = alloca i64, align 8
  %exn.slot = alloca ptr, align 8
  %ehselector.slot = alloca i32, align 4
  %interp_temp = alloca i32, align 4
  %temp_multiply_smooth = alloca i32, align 4
  store ptr %this, ptr %this.addr, align 8, !tbaa !11
  store i64 %group_id, ptr %group_id.addr, align 8, !tbaa !16
  %this1 = load ptr, ptr %this.addr, align 8
  %energy_ = getelementptr inbounds nuw %"class.openmc::UrrData", ptr %this1, i32 0, i32 5
  call void @_ZN2xt17xtensor_containerINS_7uvectorIdSaIdEEELm1ELNS_11layout_typeE1ENS_22xtensor_expression_tagEEC2Ev(ptr noundef nonnull align 8 dereferenceable(72) %energy_)
  %device_energy_ = getelementptr inbounds nuw %"class.openmc::UrrData", ptr %this1, i32 0, i32 6
  store ptr null, ptr %device_energy_, align 8, !tbaa !18
  %prob_ = getelementptr inbounds nuw %"class.openmc::UrrData", ptr %this1, i32 0, i32 7
  invoke void @_ZN2xt17xtensor_containerINS_7uvectorIdSaIdEEELm3ELNS_11layout_typeE1ENS_22xtensor_expression_tagEEC2Ev(ptr noundef nonnull align 8 dereferenceable(120) %prob_)
          to label %invoke.cont unwind label %lpad

invoke.cont:                                      ; preds = %entry
  %device_prob_ = getelementptr inbounds nuw %"class.openmc::UrrData", ptr %this1, i32 0, i32 8
  store ptr null, ptr %device_prob_, align 8, !tbaa !49
  call void @llvm.lifetime.start.p0(i64 4, ptr %interp_temp) #3
  %0 = load i64, ptr %group_id.addr, align 8, !tbaa !16
  invoke void @_ZN6openmc14read_attributeIiEEvlPKcRT_(i64 noundef %0, ptr noundef @.str, ptr noundef nonnull align 4 dereferenceable(4) %interp_temp)
          to label %invoke.cont3 unwind label %lpad2

invoke.cont3:                                     ; preds = %invoke.cont
  %1 = load i32, ptr %interp_temp, align 4, !tbaa !50
  %interp_ = getelementptr inbounds nuw %"class.openmc::UrrData", ptr %this1, i32 0, i32 0
  store i32 %1, ptr %interp_, align 8, !tbaa !51
  %2 = load i64, ptr %group_id.addr, align 8, !tbaa !16
  %inelastic_flag_ = getelementptr inbounds nuw %"class.openmc::UrrData", ptr %this1, i32 0, i32 1
  invoke void @_ZN6openmc14read_attributeIiEEvlPKcRT_(i64 noundef %2, ptr noundef @.str.1, ptr noundef nonnull align 4 dereferenceable(4) %inelastic_flag_)
          to label %invoke.cont4 unwind label %lpad2

invoke.cont4:                                     ; preds = %invoke.cont3
  %3 = load i64, ptr %group_id.addr, align 8, !tbaa !16
  %absorption_flag_ = getelementptr inbounds nuw %"class.openmc::UrrData", ptr %this1, i32 0, i32 2
  invoke void @_ZN6openmc14read_attributeIiEEvlPKcRT_(i64 noundef %3, ptr noundef @.str.2, ptr noundef nonnull align 4 dereferenceable(4) %absorption_flag_)
          to label %invoke.cont5 unwind label %lpad2

invoke.cont5:                                     ; preds = %invoke.cont4
  call void @llvm.lifetime.start.p0(i64 4, ptr %temp_multiply_smooth) #3
  %4 = load i64, ptr %group_id.addr, align 8, !tbaa !16
  invoke void @_ZN6openmc14read_attributeIiEEvlPKcRT_(i64 noundef %4, ptr noundef @.str.3, ptr noundef nonnull align 4 dereferenceable(4) %temp_multiply_smooth)
          to label %invoke.cont7 unwind label %lpad6

invoke.cont7:                                     ; preds = %invoke.cont5
  %5 = load i32, ptr %temp_multiply_smooth, align 4, !tbaa !50
  %cmp = icmp eq i32 %5, 1
  %multiply_smooth_ = getelementptr inbounds nuw %"class.openmc::UrrData", ptr %this1, i32 0, i32 3
  %storedv = zext i1 %cmp to i8
  store i8 %storedv, ptr %multiply_smooth_, align 4, !tbaa !52
  %6 = load i64, ptr %group_id.addr, align 8, !tbaa !16
  %energy_8 = getelementptr inbounds nuw %"class.openmc::UrrData", ptr %this1, i32 0, i32 5
  invoke void @_ZN6openmc12read_datasetIdLm1EEEvlPKcRN2xt17xtensor_containerINS3_7uvectorIT_SaIS6_EEEXT0_ELNS3_11layout_typeE1ENS3_22xtensor_expression_tagEEEb(i64 noundef %6, ptr noundef @.str.4, ptr noundef nonnull align 8 dereferenceable(72) %energy_8, i1 noundef zeroext false)
          to label %invoke.cont9 unwind label %lpad6

invoke.cont9:                                     ; preds = %invoke.cont7
  %energy_10 = getelementptr inbounds nuw %"class.openmc::UrrData", ptr %this1, i32 0, i32 5
  %call = call noundef nonnull align 8 dereferenceable(8) ptr @_ZNK2xt10xcontainerINS_17xtensor_containerINS_7uvectorIdSaIdEEELm1ELNS_11layout_typeE1ENS_22xtensor_expression_tagEEEE5shapeEv(ptr noundef nonnull align 1 dereferenceable(1) %energy_10) #3
  %call11 = call noundef nonnull align 8 dereferenceable(8) ptr @_ZNKSt5arrayImLm1EEixEm(ptr noundef nonnull align 8 dereferenceable(8) %call, i64 noundef 0) #3
  %7 = load i64, ptr %call11, align 8, !tbaa !16
  %conv = trunc i64 %7 to i32
  %n_energy_ = getelementptr inbounds nuw %"class.openmc::UrrData", ptr %this1, i32 0, i32 4
  store i32 %conv, ptr %n_energy_, align 8, !tbaa !53
  %8 = load i64, ptr %group_id.addr, align 8, !tbaa !16
  %prob_12 = getelementptr inbounds nuw %"class.openmc::UrrData", ptr %this1, i32 0, i32 7
  invoke void @_ZN6openmc12read_datasetIdLm3EEEvlPKcRN2xt17xtensor_containerINS3_7uvectorIT_SaIS6_EEEXT0_ELNS3_11layout_typeE1ENS3_22xtensor_expression_tagEEEb(i64 noundef %8, ptr noundef @.str.5, ptr noundef nonnull align 8 dereferenceable(120) %prob_12, i1 noundef zeroext false)
          to label %invoke.cont13 unwind label %lpad6

invoke.cont13:                                    ; preds = %invoke.cont9
  call void @llvm.lifetime.end.p0(i64 4, ptr %temp_multiply_smooth) #3
  call void @llvm.lifetime.end.p0(i64 4, ptr %interp_temp) #3
  ret void

lpad:                                             ; preds = %entry
  %9 = landingpad { ptr, i32 }
          cleanup
  %10 = extractvalue { ptr, i32 } %9, 0
  store ptr %10, ptr %exn.slot, align 8
  %11 = extractvalue { ptr, i32 } %9, 1
  store i32 %11, ptr %ehselector.slot, align 4
  br label %ehcleanup15

lpad2:                                            ; preds = %invoke.cont4, %invoke.cont3, %invoke.cont
  %12 = landingpad { ptr, i32 }
          cleanup
  %13 = extractvalue { ptr, i32 } %12, 0
  store ptr %13, ptr %exn.slot, align 8
  %14 = extractvalue { ptr, i32 } %12, 1
  store i32 %14, ptr %ehselector.slot, align 4
  br label %ehcleanup

lpad6:                                            ; preds = %invoke.cont9, %invoke.cont7, %invoke.cont5
  %15 = landingpad { ptr, i32 }
          cleanup
  %16 = extractvalue { ptr, i32 } %15, 0
  store ptr %16, ptr %exn.slot, align 8
  %17 = extractvalue { ptr, i32 } %15, 1
  store i32 %17, ptr %ehselector.slot, align 4
  call void @llvm.lifetime.end.p0(i64 4, ptr %temp_multiply_smooth) #3
  br label %ehcleanup

ehcleanup:                                        ; preds = %lpad6, %lpad2
  call void @llvm.lifetime.end.p0(i64 4, ptr %interp_temp) #3
  call void @_ZN2xt17xtensor_containerINS_7uvectorIdSaIdEEELm3ELNS_11layout_typeE1ENS_22xtensor_expression_tagEED2Ev(ptr noundef nonnull align 8 dereferenceable(120) %prob_) #3
  br label %ehcleanup15

ehcleanup15:                                      ; preds = %ehcleanup, %lpad
  call void @_ZN2xt17xtensor_containerINS_7uvectorIdSaIdEEELm1ELNS_11layout_typeE1ENS_22xtensor_expression_tagEED2Ev(ptr noundef nonnull align 8 dereferenceable(72) %energy_) #3
  br label %eh.resume

eh.resume:                                        ; preds = %ehcleanup15
  %exn = load ptr, ptr %exn.slot, align 8
  %sel = load i32, ptr %ehselector.slot, align 4
  %lpad.val = insertvalue { ptr, i32 } poison, ptr %exn, 0
  %lpad.val16 = insertvalue { ptr, i32 } %lpad.val, i32 %sel, 1
  resume { ptr, i32 } %lpad.val16
}

; Function Attrs: inlinehint mustprogress uwtable
define linkonce_odr void @_ZN2xt17xtensor_containerINS_7uvectorIdSaIdEEELm1ELNS_11layout_typeE1ENS_22xtensor_expression_tagEEC2Ev(ptr noundef nonnull align 8 dereferenceable(72) %this) unnamed_addr #5 comdat align 2 personality ptr @__gxx_personality_v0 {
entry:
  %this.addr = alloca ptr, align 8
  %ref.tmp = alloca double, align 8
  %ref.tmp2 = alloca %"class.std::allocator", align 1
  %exn.slot = alloca ptr, align 8
  %ehselector.slot = alloca i32, align 4
  store ptr %this, ptr %this.addr, align 8, !tbaa !54
  %this1 = load ptr, ptr %this.addr, align 8
  call void @_ZN2xt18xstrided_containerINS_17xtensor_containerINS_7uvectorIdSaIdEEELm1ELNS_11layout_typeE1ENS_22xtensor_expression_tagEEEEC2Ev(ptr noundef nonnull align 8 dereferenceable(28) %this1) #3
  %0 = getelementptr inbounds i8, ptr %this1, i64 32
  call void @_ZN2xt19xcontainer_semanticINS_17xtensor_containerINS_7uvectorIdSaIdEEELm1ELNS_11layout_typeE1ENS_22xtensor_expression_tagEEEEC2Ev(ptr noundef nonnull align 8 dereferenceable(16) %0)
  %m_storage = getelementptr inbounds nuw %"class.xt::xtensor_container", ptr %this1, i32 0, i32 2
  call void @llvm.lifetime.start.p0(i64 8, ptr %ref.tmp) #3
  store double 0.000000e+00, ptr %ref.tmp, align 8, !tbaa !55
  call void @llvm.lifetime.start.p0(i64 1, ptr %ref.tmp2) #3
  call void @_ZNSaIdEC2Ev(ptr noundef nonnull align 1 dereferenceable(1) %ref.tmp2) #3
  invoke void @_ZN2xt7uvectorIdSaIdEEC2EmRKdRKS1_(ptr noundef nonnull align 8 dereferenceable(24) %m_storage, i64 noundef 0, ptr noundef nonnull align 8 dereferenceable(8) %ref.tmp, ptr noundef nonnull align 1 dereferenceable(1) %ref.tmp2)
          to label %invoke.cont unwind label %lpad

invoke.cont:                                      ; preds = %entry
  call void @_ZNSt15__new_allocatorIdED2Ev(ptr noundef nonnull align 1 dereferenceable(1) %ref.tmp2) #3
  call void @llvm.lifetime.end.p0(i64 1, ptr %ref.tmp2) #3
  call void @llvm.lifetime.end.p0(i64 8, ptr %ref.tmp) #3
  ret void

lpad:                                             ; preds = %entry
  %1 = landingpad { ptr, i32 }
          cleanup
  %2 = extractvalue { ptr, i32 } %1, 0
  store ptr %2, ptr %exn.slot, align 8
  %3 = extractvalue { ptr, i32 } %1, 1
  store i32 %3, ptr %ehselector.slot, align 4
  call void @_ZNSt15__new_allocatorIdED2Ev(ptr noundef nonnull align 1 dereferenceable(1) %ref.tmp2) #3
  call void @llvm.lifetime.end.p0(i64 1, ptr %ref.tmp2) #3
  call void @llvm.lifetime.end.p0(i64 8, ptr %ref.tmp) #3
  %4 = getelementptr inbounds i8, ptr %this1, i64 32
  call void @_ZN2xt20xsharable_expressionINS_17xtensor_containerINS_7uvectorIdSaIdEEELm1ELNS_11layout_typeE1ENS_22xtensor_expression_tagEEEED2Ev(ptr noundef nonnull align 8 dereferenceable(16) %4) #3
  br label %eh.resume

eh.resume:                                        ; preds = %lpad
  %exn = load ptr, ptr %exn.slot, align 8
  %sel = load i32, ptr %ehselector.slot, align 4
  %lpad.val = insertvalue { ptr, i32 } poison, ptr %exn, 0
  %lpad.val3 = insertvalue { ptr, i32 } %lpad.val, i32 %sel, 1
  resume { ptr, i32 } %lpad.val3
}

; Function Attrs: inlinehint mustprogress uwtable
define linkonce_odr void @_ZN2xt17xtensor_containerINS_7uvectorIdSaIdEEELm3ELNS_11layout_typeE1ENS_22xtensor_expression_tagEEC2Ev(ptr noundef nonnull align 8 dereferenceable(120) %this) unnamed_addr #5 comdat align 2 personality ptr @__gxx_personality_v0 {
entry:
  %this.addr = alloca ptr, align 8
  %ref.tmp = alloca double, align 8
  %ref.tmp2 = alloca %"class.std::allocator", align 1
  %exn.slot = alloca ptr, align 8
  %ehselector.slot = alloca i32, align 4
  store ptr %this, ptr %this.addr, align 8, !tbaa !57
  %this1 = load ptr, ptr %this.addr, align 8
  call void @_ZN2xt18xstrided_containerINS_17xtensor_containerINS_7uvectorIdSaIdEEELm3ELNS_11layout_typeE1ENS_22xtensor_expression_tagEEEEC2Ev(ptr noundef nonnull align 8 dereferenceable(76) %this1) #3
  %0 = getelementptr inbounds i8, ptr %this1, i64 80
  call void @_ZN2xt19xcontainer_semanticINS_17xtensor_containerINS_7uvectorIdSaIdEEELm3ELNS_11layout_typeE1ENS_22xtensor_expression_tagEEEEC2Ev(ptr noundef nonnull align 8 dereferenceable(16) %0)
  %m_storage = getelementptr inbounds nuw %"class.xt::xtensor_container.2", ptr %this1, i32 0, i32 2
  call void @llvm.lifetime.start.p0(i64 8, ptr %ref.tmp) #3
  store double 0.000000e+00, ptr %ref.tmp, align 8, !tbaa !55
  call void @llvm.lifetime.start.p0(i64 1, ptr %ref.tmp2) #3
  call void @_ZNSaIdEC2Ev(ptr noundef nonnull align 1 dereferenceable(1) %ref.tmp2) #3
  invoke void @_ZN2xt7uvectorIdSaIdEEC2EmRKdRKS1_(ptr noundef nonnull align 8 dereferenceable(24) %m_storage, i64 noundef 0, ptr noundef nonnull align 8 dereferenceable(8) %ref.tmp, ptr noundef nonnull align 1 dereferenceable(1) %ref.tmp2)
          to label %invoke.cont unwind label %lpad

invoke.cont:                                      ; preds = %entry
  call void @_ZNSt15__new_allocatorIdED2Ev(ptr noundef nonnull align 1 dereferenceable(1) %ref.tmp2) #3
  call void @llvm.lifetime.end.p0(i64 1, ptr %ref.tmp2) #3
  call void @llvm.lifetime.end.p0(i64 8, ptr %ref.tmp) #3
  ret void

lpad:                                             ; preds = %entry
  %1 = landingpad { ptr, i32 }
          cleanup
  %2 = extractvalue { ptr, i32 } %1, 0
  store ptr %2, ptr %exn.slot, align 8
  %3 = extractvalue { ptr, i32 } %1, 1
  store i32 %3, ptr %ehselector.slot, align 4
  call void @_ZNSt15__new_allocatorIdED2Ev(ptr noundef nonnull align 1 dereferenceable(1) %ref.tmp2) #3
  call void @llvm.lifetime.end.p0(i64 1, ptr %ref.tmp2) #3
  call void @llvm.lifetime.end.p0(i64 8, ptr %ref.tmp) #3
  %4 = getelementptr inbounds i8, ptr %this1, i64 80
  call void @_ZN2xt20xsharable_expressionINS_17xtensor_containerINS_7uvectorIdSaIdEEELm3ELNS_11layout_typeE1ENS_22xtensor_expression_tagEEEED2Ev(ptr noundef nonnull align 8 dereferenceable(16) %4) #3
  br label %eh.resume

eh.resume:                                        ; preds = %lpad
  %exn = load ptr, ptr %exn.slot, align 8
  %sel = load i32, ptr %ehselector.slot, align 4
  %lpad.val = insertvalue { ptr, i32 } poison, ptr %exn, 0
  %lpad.val3 = insertvalue { ptr, i32 } %lpad.val, i32 %sel, 1
  resume { ptr, i32 } %lpad.val3
}

declare i32 @__gxx_personality_v0(...)

; Function Attrs: nocallback nofree nosync nounwind willreturn memory(argmem: readwrite)
declare void @llvm.lifetime.start.p0(i64 immarg, ptr captures(none)) #6

; Function Attrs: mustprogress uwtable
define linkonce_odr void @_ZN6openmc14read_attributeIiEEvlPKcRT_(i64 noundef %obj_id, ptr noundef %name, ptr noundef nonnull align 4 dereferenceable(4) %buffer) #4 comdat {
entry:
  %obj_id.addr = alloca i64, align 8
  %name.addr = alloca ptr, align 8
  %buffer.addr = alloca ptr, align 8
  store i64 %obj_id, ptr %obj_id.addr, align 8, !tbaa !16
  store ptr %name, ptr %name.addr, align 8, !tbaa !58
  store ptr %buffer, ptr %buffer.addr, align 8, !tbaa !60
  %0 = load i64, ptr %obj_id.addr, align 8, !tbaa !16
  %1 = load ptr, ptr %name.addr, align 8, !tbaa !58
  %2 = load i64, ptr @_ZN6openmc9H5TypeMapIiE7type_idE, align 8, !tbaa !16
  %3 = load ptr, ptr %buffer.addr, align 8, !tbaa !60
  call void @_ZN6openmc9read_attrElPKclPv(i64 noundef %0, ptr noundef %1, i64 noundef %2, ptr noundef %3)
  ret void
}

; Function Attrs: mustprogress uwtable
define linkonce_odr void @_ZN6openmc12read_datasetIdLm1EEEvlPKcRN2xt17xtensor_containerINS3_7uvectorIT_SaIS6_EEEXT0_ELNS3_11layout_typeE1ENS3_22xtensor_expression_tagEEEb(i64 noundef %obj_id, ptr noundef %name, ptr noundef nonnull align 8 dereferenceable(72) %arr, i1 noundef zeroext %indep) #4 comdat personality ptr @__gxx_personality_v0 {
entry:
  %obj_id.addr = alloca i64, align 8
  %name.addr = alloca ptr, align 8
  %arr.addr = alloca ptr, align 8
  %indep.addr = alloca i8, align 1
  %dset = alloca i64, align 8
  %hsize_t_shape = alloca %"class.std::vector", align 8
  %exn.slot = alloca ptr, align 8
  %ehselector.slot = alloca i32, align 4
  %shape = alloca %"class.std::vector", align 8
  %ref.tmp = alloca %"class.std::allocator.20", align 1
  %i = alloca i32, align 4
  %xarr = alloca %"class.xt::xarray_container", align 8
  %ref.tmp9 = alloca %"class.xt::svector", align 8
  store i64 %obj_id, ptr %obj_id.addr, align 8, !tbaa !16
  store ptr %name, ptr %name.addr, align 8, !tbaa !58
  store ptr %arr, ptr %arr.addr, align 8, !tbaa !54
  %storedv = zext i1 %indep to i8
  store i8 %storedv, ptr %indep.addr, align 1, !tbaa !62
  call void @llvm.lifetime.start.p0(i64 8, ptr %dset) #3
  %0 = load i64, ptr %obj_id.addr, align 8, !tbaa !16
  %1 = load ptr, ptr %name.addr, align 8, !tbaa !58
  %call = call i64 @open_dataset(i64 noundef %0, ptr noundef %1)
  store i64 %call, ptr %dset, align 8, !tbaa !16
  call void @llvm.lifetime.start.p0(i64 24, ptr %hsize_t_shape) #3
  %2 = load i64, ptr %dset, align 8, !tbaa !16
  call void @_ZN6openmc12object_shapeEl(ptr dead_on_unwind writable sret(%"class.std::vector") align 8 %hsize_t_shape, i64 noundef %2)
  %3 = load i64, ptr %dset, align 8, !tbaa !16
  invoke void @close_dataset(i64 noundef %3)
          to label %invoke.cont unwind label %lpad

invoke.cont:                                      ; preds = %entry
  call void @llvm.lifetime.start.p0(i64 24, ptr %shape) #3
  %call1 = call noundef i64 @_ZNKSt6vectorImSaImEE4sizeEv(ptr noundef nonnull align 8 dereferenceable(24) %hsize_t_shape) #3
  call void @llvm.lifetime.start.p0(i64 1, ptr %ref.tmp) #3
  call void @_ZNSaImEC2Ev(ptr noundef nonnull align 1 dereferenceable(1) %ref.tmp) #3
  invoke void @_ZNSt6vectorImSaImEEC2EmRKS0_(ptr noundef nonnull align 8 dereferenceable(24) %shape, i64 noundef %call1, ptr noundef nonnull align 1 dereferenceable(1) %ref.tmp)
          to label %invoke.cont3 unwind label %lpad2

invoke.cont3:                                     ; preds = %invoke.cont
  call void @_ZNSt15__new_allocatorImED2Ev(ptr noundef nonnull align 1 dereferenceable(1) %ref.tmp) #3
  call void @llvm.lifetime.end.p0(i64 1, ptr %ref.tmp) #3
  call void @llvm.lifetime.start.p0(i64 4, ptr %i) #3
  store i32 0, ptr %i, align 4, !tbaa !50
  br label %for.cond

for.cond:                                         ; preds = %for.inc, %invoke.cont3
  %4 = load i32, ptr %i, align 4, !tbaa !50
  %conv = sext i32 %4 to i64
  %call4 = call noundef i64 @_ZNKSt6vectorImSaImEE4sizeEv(ptr noundef nonnull align 8 dereferenceable(24) %shape) #3
  %cmp = icmp ult i64 %conv, %call4
  br i1 %cmp, label %for.body, label %for.cond.cleanup

for.cond.cleanup:                                 ; preds = %for.cond
  call void @llvm.lifetime.end.p0(i64 4, ptr %i) #3
  br label %for.end

lpad:                                             ; preds = %entry
  %5 = landingpad { ptr, i32 }
          cleanup
  %6 = extractvalue { ptr, i32 } %5, 0
  store ptr %6, ptr %exn.slot, align 8
  %7 = extractvalue { ptr, i32 } %5, 1
  store i32 %7, ptr %ehselector.slot, align 4
  br label %ehcleanup22

lpad2:                                            ; preds = %invoke.cont
  %8 = landingpad { ptr, i32 }
          cleanup
  %9 = extractvalue { ptr, i32 } %8, 0
  store ptr %9, ptr %exn.slot, align 8
  %10 = extractvalue { ptr, i32 } %8, 1
  store i32 %10, ptr %ehselector.slot, align 4
  call void @_ZNSt15__new_allocatorImED2Ev(ptr noundef nonnull align 1 dereferenceable(1) %ref.tmp) #3
  call void @llvm.lifetime.end.p0(i64 1, ptr %ref.tmp) #3
  br label %ehcleanup21

for.body:                                         ; preds = %for.cond
  %11 = load i32, ptr %i, align 4, !tbaa !50
  %conv5 = sext i32 %11 to i64
  %call6 = call noundef nonnull align 8 dereferenceable(8) ptr @_ZNSt6vectorImSaImEEixEm(ptr noundef nonnull align 8 dereferenceable(24) %hsize_t_shape, i64 noundef %conv5) #3
  %12 = load i64, ptr %call6, align 8, !tbaa !16
  %13 = load i32, ptr %i, align 4, !tbaa !50
  %conv7 = sext i32 %13 to i64
  %call8 = call noundef nonnull align 8 dereferenceable(8) ptr @_ZNSt6vectorImSaImEEixEm(ptr noundef nonnull align 8 dereferenceable(24) %shape, i64 noundef %conv7) #3
  store i64 %12, ptr %call8, align 8, !tbaa !16
  br label %for.inc

for.inc:                                          ; preds = %for.body
  %14 = load i32, ptr %i, align 4, !tbaa !50
  %inc = add nsw i32 %14, 1
  store i32 %inc, ptr %i, align 4, !tbaa !50
  br label %for.cond, !llvm.loop !63

for.end:                                          ; preds = %for.cond.cleanup
  call void @llvm.lifetime.start.p0(i64 240, ptr %xarr) #3
  call void @llvm.lifetime.start.p0(i64 64, ptr %ref.tmp9) #3
  invoke void @_ZN2xt7svectorImLm4ESaImELb1EEC2ERKSt6vectorImS1_E(ptr noundef nonnull align 8 dereferenceable(64) %ref.tmp9, ptr noundef nonnull align 8 dereferenceable(24) %shape)
          to label %invoke.cont11 unwind label %lpad10

invoke.cont11:                                    ; preds = %for.end
  invoke void @_ZN2xt16xarray_containerINS_7uvectorIdSaIdEEELNS_11layout_typeE1ENS_7svectorImLm4ESaImELb1EEENS_22xtensor_expression_tagEEC2ERKS7_S4_(ptr noundef nonnull align 8 dereferenceable(240) %xarr, ptr noundef nonnull align 8 dereferenceable(64) %ref.tmp9, i32 noundef 1)
          to label %invoke.cont13 unwind label %lpad12

invoke.cont13:                                    ; preds = %invoke.cont11
  call void @_ZN2xt7svectorImLm4ESaImELb1EED2Ev(ptr noundef nonnull align 8 dereferenceable(64) %ref.tmp9) #3
  call void @llvm.lifetime.end.p0(i64 64, ptr %ref.tmp9) #3
  %15 = load i64, ptr %obj_id.addr, align 8, !tbaa !16
  %16 = load ptr, ptr %name.addr, align 8, !tbaa !58
  invoke void @_ZN6openmc12read_datasetIdEEvlPKcRN2xt16xarray_containerINS3_7uvectorIT_SaIS6_EEELNS3_11layout_typeE1ENS3_7svectorINS8_9size_typeELm4ESaINSt6vectorIS6_S7_E9size_typeEELb1EEENS3_22xtensor_expression_tagEEEb(i64 noundef %15, ptr noundef %16, ptr noundef nonnull align 8 dereferenceable(240) %xarr, i1 noundef zeroext false)
          to label %invoke.cont15 unwind label %lpad14

invoke.cont15:                                    ; preds = %invoke.cont13
  %add.ptr = getelementptr inbounds i8, ptr %xarr, i64 200
  %17 = load ptr, ptr %arr.addr, align 8, !tbaa !54
  %call17 = invoke noundef nonnull align 8 dereferenceable(72) ptr @_ZN2xt17xtensor_containerINS_7uvectorIdSaIdEEELm1ELNS_11layout_typeE1ENS_22xtensor_expression_tagEEaSINS_16xarray_containerIS3_LS4_1ENS_7svectorImLm4ESaImELb1EEES5_EEEERS6_RKNS_11xexpressionIT_EE(ptr noundef nonnull align 8 dereferenceable(72) %17, ptr noundef nonnull align 1 dereferenceable(1) %add.ptr)
          to label %invoke.cont16 unwind label %lpad14

invoke.cont16:                                    ; preds = %invoke.cont15
  call void @_ZN2xt16xarray_containerINS_7uvectorIdSaIdEEELNS_11layout_typeE1ENS_7svectorImLm4ESaImELb1EEENS_22xtensor_expression_tagEED2Ev(ptr noundef nonnull align 8 dereferenceable(240) %xarr) #3
  call void @llvm.lifetime.end.p0(i64 240, ptr %xarr) #3
  call void @_ZNSt6vectorImSaImEED2Ev(ptr noundef nonnull align 8 dereferenceable(24) %shape) #3
  call void @llvm.lifetime.end.p0(i64 24, ptr %shape) #3
  call void @_ZNSt6vectorImSaImEED2Ev(ptr noundef nonnull align 8 dereferenceable(24) %hsize_t_shape) #3
  call void @llvm.lifetime.end.p0(i64 24, ptr %hsize_t_shape) #3
  call void @llvm.lifetime.end.p0(i64 8, ptr %dset) #3
  ret void

lpad10:                                           ; preds = %for.end
  %18 = landingpad { ptr, i32 }
          cleanup
  %19 = extractvalue { ptr, i32 } %18, 0
  store ptr %19, ptr %exn.slot, align 8
  %20 = extractvalue { ptr, i32 } %18, 1
  store i32 %20, ptr %ehselector.slot, align 4
  br label %ehcleanup

lpad12:                                           ; preds = %invoke.cont11
  %21 = landingpad { ptr, i32 }
          cleanup
  %22 = extractvalue { ptr, i32 } %21, 0
  store ptr %22, ptr %exn.slot, align 8
  %23 = extractvalue { ptr, i32 } %21, 1
  store i32 %23, ptr %ehselector.slot, align 4
  call void @_ZN2xt7svectorImLm4ESaImELb1EED2Ev(ptr noundef nonnull align 8 dereferenceable(64) %ref.tmp9) #3
  br label %ehcleanup

ehcleanup:                                        ; preds = %lpad12, %lpad10
  call void @llvm.lifetime.end.p0(i64 64, ptr %ref.tmp9) #3
  br label %ehcleanup19

lpad14:                                           ; preds = %invoke.cont15, %invoke.cont13
  %24 = landingpad { ptr, i32 }
          cleanup
  %25 = extractvalue { ptr, i32 } %24, 0
  store ptr %25, ptr %exn.slot, align 8
  %26 = extractvalue { ptr, i32 } %24, 1
  store i32 %26, ptr %ehselector.slot, align 4
  call void @_ZN2xt16xarray_containerINS_7uvectorIdSaIdEEELNS_11layout_typeE1ENS_7svectorImLm4ESaImELb1EEENS_22xtensor_expression_tagEED2Ev(ptr noundef nonnull align 8 dereferenceable(240) %xarr) #3
  br label %ehcleanup19

ehcleanup19:                                      ; preds = %lpad14, %ehcleanup
  call void @llvm.lifetime.end.p0(i64 240, ptr %xarr) #3
  call void @_ZNSt6vectorImSaImEED2Ev(ptr noundef nonnull align 8 dereferenceable(24) %shape) #3
  br label %ehcleanup21

ehcleanup21:                                      ; preds = %ehcleanup19, %lpad2
  call void @llvm.lifetime.end.p0(i64 24, ptr %shape) #3
  br label %ehcleanup22

ehcleanup22:                                      ; preds = %ehcleanup21, %lpad
  call void @_ZNSt6vectorImSaImEED2Ev(ptr noundef nonnull align 8 dereferenceable(24) %hsize_t_shape) #3
  call void @llvm.lifetime.end.p0(i64 24, ptr %hsize_t_shape) #3
  call void @llvm.lifetime.end.p0(i64 8, ptr %dset) #3
  br label %eh.resume

eh.resume:                                        ; preds = %ehcleanup22
  %exn = load ptr, ptr %exn.slot, align 8
  %sel = load i32, ptr %ehselector.slot, align 4
  %lpad.val = insertvalue { ptr, i32 } poison, ptr %exn, 0
  %lpad.val25 = insertvalue { ptr, i32 } %lpad.val, i32 %sel, 1
  resume { ptr, i32 } %lpad.val25
}

; Function Attrs: mustprogress nounwind uwtable
define linkonce_odr noundef nonnull align 8 dereferenceable(8) ptr @_ZNK2xt10xcontainerINS_17xtensor_containerINS_7uvectorIdSaIdEEELm1ELNS_11layout_typeE1ENS_22xtensor_expression_tagEEEE5shapeEv(ptr noundef nonnull align 1 dereferenceable(1) %this) #7 comdat align 2 {
entry:
  %this.addr = alloca ptr, align 8
  store ptr %this, ptr %this.addr, align 8, !tbaa !65
  %this1 = load ptr, ptr %this.addr, align 8
  %call = call noundef nonnull align 8 dereferenceable(72) ptr @_ZNKR2xt10xcontainerINS_17xtensor_containerINS_7uvectorIdSaIdEEELm1ELNS_11layout_typeE1ENS_22xtensor_expression_tagEEEE12derived_castEv(ptr noundef nonnull align 1 dereferenceable(1) %this1) #3
  %call2 = call noundef nonnull align 8 dereferenceable(8) ptr @_ZNK2xt18xstrided_containerINS_17xtensor_containerINS_7uvectorIdSaIdEEELm1ELNS_11layout_typeE1ENS_22xtensor_expression_tagEEEE10shape_implEv(ptr noundef nonnull align 8 dereferenceable(28) %call) #3
  ret ptr %call2
}

; Function Attrs: mustprogress nounwind uwtable
define linkonce_odr noundef nonnull align 8 dereferenceable(8) ptr @_ZNKSt5arrayImLm1EEixEm(ptr noundef nonnull align 8 dereferenceable(8) %this, i64 noundef %__n) #7 comdat align 2 {
entry:
  %this.addr = alloca ptr, align 8
  %__n.addr = alloca i64, align 8
  store ptr %this, ptr %this.addr, align 8, !tbaa !67
  store i64 %__n, ptr %__n.addr, align 8, !tbaa !16
  %this1 = load ptr, ptr %this.addr, align 8
  %_M_elems = getelementptr inbounds nuw %"struct.std::array.0", ptr %this1, i32 0, i32 0
  %0 = load i64, ptr %__n.addr, align 8, !tbaa !16
  %call = call noundef nonnull align 8 dereferenceable(8) ptr @_ZNSt14__array_traitsImLm1EE6_S_refERA1_Kmm(ptr noundef nonnull align 8 dereferenceable(8) %_M_elems, i64 noundef %0) #3
  ret ptr %call
}

; Function Attrs: mustprogress uwtable
define linkonce_odr void @_ZN6openmc12read_datasetIdLm3EEEvlPKcRN2xt17xtensor_containerINS3_7uvectorIT_SaIS6_EEEXT0_ELNS3_11layout_typeE1ENS3_22xtensor_expression_tagEEEb(i64 noundef %obj_id, ptr noundef %name, ptr noundef nonnull align 8 dereferenceable(120) %arr, i1 noundef zeroext %indep) #4 comdat personality ptr @__gxx_personality_v0 {
entry:
  %obj_id.addr = alloca i64, align 8
  %name.addr = alloca ptr, align 8
  %arr.addr = alloca ptr, align 8
  %indep.addr = alloca i8, align 1
  %dset = alloca i64, align 8
  %hsize_t_shape = alloca %"class.std::vector", align 8
  %exn.slot = alloca ptr, align 8
  %ehselector.slot = alloca i32, align 4
  %shape = alloca %"class.std::vector", align 8
  %ref.tmp = alloca %"class.std::allocator.20", align 1
  %i = alloca i32, align 4
  %xarr = alloca %"class.xt::xarray_container", align 8
  %ref.tmp9 = alloca %"class.xt::svector", align 8
  store i64 %obj_id, ptr %obj_id.addr, align 8, !tbaa !16
  store ptr %name, ptr %name.addr, align 8, !tbaa !58
  store ptr %arr, ptr %arr.addr, align 8, !tbaa !57
  %storedv = zext i1 %indep to i8
  store i8 %storedv, ptr %indep.addr, align 1, !tbaa !62
  call void @llvm.lifetime.start.p0(i64 8, ptr %dset) #3
  %0 = load i64, ptr %obj_id.addr, align 8, !tbaa !16
  %1 = load ptr, ptr %name.addr, align 8, !tbaa !58
  %call = call i64 @open_dataset(i64 noundef %0, ptr noundef %1)
  store i64 %call, ptr %dset, align 8, !tbaa !16
  call void @llvm.lifetime.start.p0(i64 24, ptr %hsize_t_shape) #3
  %2 = load i64, ptr %dset, align 8, !tbaa !16
  call void @_ZN6openmc12object_shapeEl(ptr dead_on_unwind writable sret(%"class.std::vector") align 8 %hsize_t_shape, i64 noundef %2)
  %3 = load i64, ptr %dset, align 8, !tbaa !16
  invoke void @close_dataset(i64 noundef %3)
          to label %invoke.cont unwind label %lpad

invoke.cont:                                      ; preds = %entry
  call void @llvm.lifetime.start.p0(i64 24, ptr %shape) #3
  %call1 = call noundef i64 @_ZNKSt6vectorImSaImEE4sizeEv(ptr noundef nonnull align 8 dereferenceable(24) %hsize_t_shape) #3
  call void @llvm.lifetime.start.p0(i64 1, ptr %ref.tmp) #3
  call void @_ZNSaImEC2Ev(ptr noundef nonnull align 1 dereferenceable(1) %ref.tmp) #3
  invoke void @_ZNSt6vectorImSaImEEC2EmRKS0_(ptr noundef nonnull align 8 dereferenceable(24) %shape, i64 noundef %call1, ptr noundef nonnull align 1 dereferenceable(1) %ref.tmp)
          to label %invoke.cont3 unwind label %lpad2

invoke.cont3:                                     ; preds = %invoke.cont
  call void @_ZNSt15__new_allocatorImED2Ev(ptr noundef nonnull align 1 dereferenceable(1) %ref.tmp) #3
  call void @llvm.lifetime.end.p0(i64 1, ptr %ref.tmp) #3
  call void @llvm.lifetime.start.p0(i64 4, ptr %i) #3
  store i32 0, ptr %i, align 4, !tbaa !50
  br label %for.cond

for.cond:                                         ; preds = %for.inc, %invoke.cont3
  %4 = load i32, ptr %i, align 4, !tbaa !50
  %conv = sext i32 %4 to i64
  %call4 = call noundef i64 @_ZNKSt6vectorImSaImEE4sizeEv(ptr noundef nonnull align 8 dereferenceable(24) %shape) #3
  %cmp = icmp ult i64 %conv, %call4
  br i1 %cmp, label %for.body, label %for.cond.cleanup

for.cond.cleanup:                                 ; preds = %for.cond
  call void @llvm.lifetime.end.p0(i64 4, ptr %i) #3
  br label %for.end

lpad:                                             ; preds = %entry
  %5 = landingpad { ptr, i32 }
          cleanup
  %6 = extractvalue { ptr, i32 } %5, 0
  store ptr %6, ptr %exn.slot, align 8
  %7 = extractvalue { ptr, i32 } %5, 1
  store i32 %7, ptr %ehselector.slot, align 4
  br label %ehcleanup22

lpad2:                                            ; preds = %invoke.cont
  %8 = landingpad { ptr, i32 }
          cleanup
  %9 = extractvalue { ptr, i32 } %8, 0
  store ptr %9, ptr %exn.slot, align 8
  %10 = extractvalue { ptr, i32 } %8, 1
  store i32 %10, ptr %ehselector.slot, align 4
  call void @_ZNSt15__new_allocatorImED2Ev(ptr noundef nonnull align 1 dereferenceable(1) %ref.tmp) #3
  call void @llvm.lifetime.end.p0(i64 1, ptr %ref.tmp) #3
  br label %ehcleanup21

for.body:                                         ; preds = %for.cond
  %11 = load i32, ptr %i, align 4, !tbaa !50
  %conv5 = sext i32 %11 to i64
  %call6 = call noundef nonnull align 8 dereferenceable(8) ptr @_ZNSt6vectorImSaImEEixEm(ptr noundef nonnull align 8 dereferenceable(24) %hsize_t_shape, i64 noundef %conv5) #3
  %12 = load i64, ptr %call6, align 8, !tbaa !16
  %13 = load i32, ptr %i, align 4, !tbaa !50
  %conv7 = sext i32 %13 to i64
  %call8 = call noundef nonnull align 8 dereferenceable(8) ptr @_ZNSt6vectorImSaImEEixEm(ptr noundef nonnull align 8 dereferenceable(24) %shape, i64 noundef %conv7) #3
  store i64 %12, ptr %call8, align 8, !tbaa !16
  br label %for.inc

for.inc:                                          ; preds = %for.body
  %14 = load i32, ptr %i, align 4, !tbaa !50
  %inc = add nsw i32 %14, 1
  store i32 %inc, ptr %i, align 4, !tbaa !50
  br label %for.cond, !llvm.loop !69

for.end:                                          ; preds = %for.cond.cleanup
  call void @llvm.lifetime.start.p0(i64 240, ptr %xarr) #3
  call void @llvm.lifetime.start.p0(i64 64, ptr %ref.tmp9) #3
  invoke void @_ZN2xt7svectorImLm4ESaImELb1EEC2ERKSt6vectorImS1_E(ptr noundef nonnull align 8 dereferenceable(64) %ref.tmp9, ptr noundef nonnull align 8 dereferenceable(24) %shape)
          to label %invoke.cont11 unwind label %lpad10

invoke.cont11:                                    ; preds = %for.end
  invoke void @_ZN2xt16xarray_containerINS_7uvectorIdSaIdEEELNS_11layout_typeE1ENS_7svectorImLm4ESaImELb1EEENS_22xtensor_expression_tagEEC2ERKS7_S4_(ptr noundef nonnull align 8 dereferenceable(240) %xarr, ptr noundef nonnull align 8 dereferenceable(64) %ref.tmp9, i32 noundef 1)
          to label %invoke.cont13 unwind label %lpad12

invoke.cont13:                                    ; preds = %invoke.cont11
  call void @_ZN2xt7svectorImLm4ESaImELb1EED2Ev(ptr noundef nonnull align 8 dereferenceable(64) %ref.tmp9) #3
  call void @llvm.lifetime.end.p0(i64 64, ptr %ref.tmp9) #3
  %15 = load i64, ptr %obj_id.addr, align 8, !tbaa !16
  %16 = load ptr, ptr %name.addr, align 8, !tbaa !58
  invoke void @_ZN6openmc12read_datasetIdEEvlPKcRN2xt16xarray_containerINS3_7uvectorIT_SaIS6_EEELNS3_11layout_typeE1ENS3_7svectorINS8_9size_typeELm4ESaINSt6vectorIS6_S7_E9size_typeEELb1EEENS3_22xtensor_expression_tagEEEb(i64 noundef %15, ptr noundef %16, ptr noundef nonnull align 8 dereferenceable(240) %xarr, i1 noundef zeroext false)
          to label %invoke.cont15 unwind label %lpad14

invoke.cont15:                                    ; preds = %invoke.cont13
  %add.ptr = getelementptr inbounds i8, ptr %xarr, i64 200
  %17 = load ptr, ptr %arr.addr, align 8, !tbaa !57
  %call17 = invoke noundef nonnull align 8 dereferenceable(120) ptr @_ZN2xt17xtensor_containerINS_7uvectorIdSaIdEEELm3ELNS_11layout_typeE1ENS_22xtensor_expression_tagEEaSINS_16xarray_containerIS3_LS4_1ENS_7svectorImLm4ESaImELb1EEES5_EEEERS6_RKNS_11xexpressionIT_EE(ptr noundef nonnull align 8 dereferenceable(120) %17, ptr noundef nonnull align 1 dereferenceable(1) %add.ptr)
          to label %invoke.cont16 unwind label %lpad14

invoke.cont16:                                    ; preds = %invoke.cont15
  call void @_ZN2xt16xarray_containerINS_7uvectorIdSaIdEEELNS_11layout_typeE1ENS_7svectorImLm4ESaImELb1EEENS_22xtensor_expression_tagEED2Ev(ptr noundef nonnull align 8 dereferenceable(240) %xarr) #3
  call void @llvm.lifetime.end.p0(i64 240, ptr %xarr) #3
  call void @_ZNSt6vectorImSaImEED2Ev(ptr noundef nonnull align 8 dereferenceable(24) %shape) #3
  call void @llvm.lifetime.end.p0(i64 24, ptr %shape) #3
  call void @_ZNSt6vectorImSaImEED2Ev(ptr noundef nonnull align 8 dereferenceable(24) %hsize_t_shape) #3
  call void @llvm.lifetime.end.p0(i64 24, ptr %hsize_t_shape) #3
  call void @llvm.lifetime.end.p0(i64 8, ptr %dset) #3
  ret void

lpad10:                                           ; preds = %for.end
  %18 = landingpad { ptr, i32 }
          cleanup
  %19 = extractvalue { ptr, i32 } %18, 0
  store ptr %19, ptr %exn.slot, align 8
  %20 = extractvalue { ptr, i32 } %18, 1
  store i32 %20, ptr %ehselector.slot, align 4
  br label %ehcleanup

lpad12:                                           ; preds = %invoke.cont11
  %21 = landingpad { ptr, i32 }
          cleanup
  %22 = extractvalue { ptr, i32 } %21, 0
  store ptr %22, ptr %exn.slot, align 8
  %23 = extractvalue { ptr, i32 } %21, 1
  store i32 %23, ptr %ehselector.slot, align 4
  call void @_ZN2xt7svectorImLm4ESaImELb1EED2Ev(ptr noundef nonnull align 8 dereferenceable(64) %ref.tmp9) #3
  br label %ehcleanup

ehcleanup:                                        ; preds = %lpad12, %lpad10
  call void @llvm.lifetime.end.p0(i64 64, ptr %ref.tmp9) #3
  br label %ehcleanup19

lpad14:                                           ; preds = %invoke.cont15, %invoke.cont13
  %24 = landingpad { ptr, i32 }
          cleanup
  %25 = extractvalue { ptr, i32 } %24, 0
  store ptr %25, ptr %exn.slot, align 8
  %26 = extractvalue { ptr, i32 } %24, 1
  store i32 %26, ptr %ehselector.slot, align 4
  call void @_ZN2xt16xarray_containerINS_7uvectorIdSaIdEEELNS_11layout_typeE1ENS_7svectorImLm4ESaImELb1EEENS_22xtensor_expression_tagEED2Ev(ptr noundef nonnull align 8 dereferenceable(240) %xarr) #3
  br label %ehcleanup19

ehcleanup19:                                      ; preds = %lpad14, %ehcleanup
  call void @llvm.lifetime.end.p0(i64 240, ptr %xarr) #3
  call void @_ZNSt6vectorImSaImEED2Ev(ptr noundef nonnull align 8 dereferenceable(24) %shape) #3
  br label %ehcleanup21

ehcleanup21:                                      ; preds = %ehcleanup19, %lpad2
  call void @llvm.lifetime.end.p0(i64 24, ptr %shape) #3
  br label %ehcleanup22

ehcleanup22:                                      ; preds = %ehcleanup21, %lpad
  call void @_ZNSt6vectorImSaImEED2Ev(ptr noundef nonnull align 8 dereferenceable(24) %hsize_t_shape) #3
  call void @llvm.lifetime.end.p0(i64 24, ptr %hsize_t_shape) #3
  call void @llvm.lifetime.end.p0(i64 8, ptr %dset) #3
  br label %eh.resume

eh.resume:                                        ; preds = %ehcleanup22
  %exn = load ptr, ptr %exn.slot, align 8
  %sel = load i32, ptr %ehselector.slot, align 4
  %lpad.val = insertvalue { ptr, i32 } poison, ptr %exn, 0
  %lpad.val25 = insertvalue { ptr, i32 } %lpad.val, i32 %sel, 1
  resume { ptr, i32 } %lpad.val25
}

; Function Attrs: nocallback nofree nosync nounwind willreturn memory(argmem: readwrite)
declare void @llvm.lifetime.end.p0(i64 immarg, ptr captures(none)) #6

; Function Attrs: mustprogress nounwind uwtable
define linkonce_odr void @_ZN2xt17xtensor_containerINS_7uvectorIdSaIdEEELm3ELNS_11layout_typeE1ENS_22xtensor_expression_tagEED2Ev(ptr noundef nonnull align 8 dereferenceable(120) %this) unnamed_addr #7 comdat align 2 {
entry:
  %this.addr = alloca ptr, align 8
  store ptr %this, ptr %this.addr, align 8, !tbaa !57
  %this1 = load ptr, ptr %this.addr, align 8
  %m_storage = getelementptr inbounds nuw %"class.xt::xtensor_container.2", ptr %this1, i32 0, i32 2
  call void @_ZN2xt7uvectorIdSaIdEED2Ev(ptr noundef nonnull align 8 dereferenceable(24) %m_storage) #3
  %0 = getelementptr inbounds i8, ptr %this1, i64 80
  call void @_ZN2xt20xsharable_expressionINS_17xtensor_containerINS_7uvectorIdSaIdEEELm3ELNS_11layout_typeE1ENS_22xtensor_expression_tagEEEED2Ev(ptr noundef nonnull align 8 dereferenceable(16) %0) #3
  ret void
}

; Function Attrs: mustprogress nounwind uwtable
define linkonce_odr void @_ZN2xt17xtensor_containerINS_7uvectorIdSaIdEEELm1ELNS_11layout_typeE1ENS_22xtensor_expression_tagEED2Ev(ptr noundef nonnull align 8 dereferenceable(72) %this) unnamed_addr #7 comdat align 2 {
entry:
  %this.addr = alloca ptr, align 8
  store ptr %this, ptr %this.addr, align 8, !tbaa !54
  %this1 = load ptr, ptr %this.addr, align 8
  %m_storage = getelementptr inbounds nuw %"class.xt::xtensor_container", ptr %this1, i32 0, i32 2
  call void @_ZN2xt7uvectorIdSaIdEED2Ev(ptr noundef nonnull align 8 dereferenceable(24) %m_storage) #3
  %0 = getelementptr inbounds i8, ptr %this1, i64 32
  call void @_ZN2xt20xsharable_expressionINS_17xtensor_containerINS_7uvectorIdSaIdEEELm1ELNS_11layout_typeE1ENS_22xtensor_expression_tagEEEED2Ev(ptr noundef nonnull align 8 dereferenceable(16) %0) #3
  ret void
}

; Function Attrs: inlinehint mustprogress nounwind uwtable
define linkonce_odr void @_ZN2xt18xstrided_containerINS_17xtensor_containerINS_7uvectorIdSaIdEEELm1ELNS_11layout_typeE1ENS_22xtensor_expression_tagEEEEC2Ev(ptr noundef nonnull align 8 dereferenceable(28) %this) unnamed_addr #8 comdat align 2 personality ptr @__gxx_personality_v0 {
entry:
  %this.addr = alloca ptr, align 8
  %ref.tmp = alloca %"struct.std::array.0", align 8
  %ref.tmp4 = alloca %"struct.std::array.1", align 8
  %ref.tmp10 = alloca %"struct.std::array.1", align 8
  store ptr %this, ptr %this.addr, align 8, !tbaa !70
  %this1 = load ptr, ptr %this.addr, align 8
  %m_shape = getelementptr inbounds nuw %"class.xt::xstrided_container", ptr %this1, i32 0, i32 0
  %m_strides = getelementptr inbounds nuw %"class.xt::xstrided_container", ptr %this1, i32 0, i32 1
  %m_backstrides = getelementptr inbounds nuw %"class.xt::xstrided_container", ptr %this1, i32 0, i32 2
  %m_layout = getelementptr inbounds nuw %"class.xt::xstrided_container", ptr %this1, i32 0, i32 3
  store i32 1, ptr %m_layout, align 8, !tbaa !72
  call void @llvm.lifetime.start.p0(i64 8, ptr %ref.tmp) #3
  %call = call noundef i64 @_ZNK2xt10xcontainerINS_17xtensor_containerINS_7uvectorIdSaIdEEELm1ELNS_11layout_typeE1ENS_22xtensor_expression_tagEEEE9dimensionEv(ptr noundef nonnull align 1 dereferenceable(1) %this1) #3
  %call2 = invoke i64 @_ZN3xtl13make_sequenceISt5arrayImLm1EEEET_NS3_9size_typeENS3_10value_typeE(i64 noundef %call, i64 noundef 0)
          to label %invoke.cont unwind label %terminate.lpad

invoke.cont:                                      ; preds = %entry
  %coerce.dive = getelementptr inbounds nuw %"struct.std::array.0", ptr %ref.tmp, i32 0, i32 0
  store i64 %call2, ptr %coerce.dive, align 8
  %m_shape3 = getelementptr inbounds nuw %"class.xt::xstrided_container", ptr %this1, i32 0, i32 0
  call void @llvm.memcpy.p0.p0.i64(ptr align 8 %m_shape3, ptr align 8 %ref.tmp, i64 8, i1 false), !tbaa.struct !73
  call void @llvm.lifetime.end.p0(i64 8, ptr %ref.tmp) #3
  call void @llvm.lifetime.start.p0(i64 8, ptr %ref.tmp4) #3
  %call5 = call noundef i64 @_ZNK2xt10xcontainerINS_17xtensor_containerINS_7uvectorIdSaIdEEELm1ELNS_11layout_typeE1ENS_22xtensor_expression_tagEEEE9dimensionEv(ptr noundef nonnull align 1 dereferenceable(1) %this1) #3
  %call7 = invoke i64 @_ZN3xtl13make_sequenceISt5arrayIlLm1EEEET_NS3_9size_typeENS3_10value_typeE(i64 noundef %call5, i64 noundef 0)
          to label %invoke.cont6 unwind label %terminate.lpad

invoke.cont6:                                     ; preds = %invoke.cont
  %coerce.dive8 = getelementptr inbounds nuw %"struct.std::array.1", ptr %ref.tmp4, i32 0, i32 0
  store i64 %call7, ptr %coerce.dive8, align 8
  %m_strides9 = getelementptr inbounds nuw %"class.xt::xstrided_container", ptr %this1, i32 0, i32 1
  call void @llvm.memcpy.p0.p0.i64(ptr align 8 %m_strides9, ptr align 8 %ref.tmp4, i64 8, i1 false), !tbaa.struct !73
  call void @llvm.lifetime.end.p0(i64 8, ptr %ref.tmp4) #3
  call void @llvm.lifetime.start.p0(i64 8, ptr %ref.tmp10) #3
  %call11 = call noundef i64 @_ZNK2xt10xcontainerINS_17xtensor_containerINS_7uvectorIdSaIdEEELm1ELNS_11layout_typeE1ENS_22xtensor_expression_tagEEEE9dimensionEv(ptr noundef nonnull align 1 dereferenceable(1) %this1) #3
  %call13 = invoke i64 @_ZN3xtl13make_sequenceISt5arrayIlLm1EEEET_NS3_9size_typeENS3_10value_typeE(i64 noundef %call11, i64 noundef 0)
          to label %invoke.cont12 unwind label %terminate.lpad

invoke.cont12:                                    ; preds = %invoke.cont6
  %coerce.dive14 = getelementptr inbounds nuw %"struct.std::array.1", ptr %ref.tmp10, i32 0, i32 0
  store i64 %call13, ptr %coerce.dive14, align 8
  %m_backstrides15 = getelementptr inbounds nuw %"class.xt::xstrided_container", ptr %this1, i32 0, i32 2
  call void @llvm.memcpy.p0.p0.i64(ptr align 8 %m_backstrides15, ptr align 8 %ref.tmp10, i64 8, i1 false), !tbaa.struct !73
  call void @llvm.lifetime.end.p0(i64 8, ptr %ref.tmp10) #3
  ret void

terminate.lpad:                                   ; preds = %invoke.cont6, %invoke.cont, %entry
  %0 = landingpad { ptr, i32 }
          catch ptr null
  %1 = extractvalue { ptr, i32 } %0, 0
  call void @__clang_call_terminate(ptr %1) #19
  unreachable
}

; Function Attrs: mustprogress uwtable
define linkonce_odr void @_ZN2xt19xcontainer_semanticINS_17xtensor_containerINS_7uvectorIdSaIdEEELm1ELNS_11layout_typeE1ENS_22xtensor_expression_tagEEEEC2Ev(ptr noundef nonnull align 8 dereferenceable(16) %this) unnamed_addr #4 comdat align 2 {
entry:
  %this.addr = alloca ptr, align 8
  store ptr %this, ptr %this.addr, align 8, !tbaa !75
  %this1 = load ptr, ptr %this.addr, align 8
  call void @_ZN2xt14xsemantic_baseINS_17xtensor_containerINS_7uvectorIdSaIdEEELm1ELNS_11layout_typeE1ENS_22xtensor_expression_tagEEEEC2Ev(ptr noundef nonnull align 8 dereferenceable(16) %this1)
  ret void
}

; Function Attrs: mustprogress nounwind uwtable
define linkonce_odr void @_ZNSaIdEC2Ev(ptr noundef nonnull align 1 dereferenceable(1) %this) unnamed_addr #7 comdat align 2 {
entry:
  %this.addr = alloca ptr, align 8
  store ptr %this, ptr %this.addr, align 8, !tbaa !77
  %this1 = load ptr, ptr %this.addr, align 8
  call void @_ZNSt15__new_allocatorIdEC2Ev(ptr noundef nonnull align 1 dereferenceable(1) %this1) #3
  ret void
}

; Function Attrs: inlinehint mustprogress uwtable
define linkonce_odr void @_ZN2xt7uvectorIdSaIdEEC2EmRKdRKS1_(ptr noundef nonnull align 8 dereferenceable(24) %this, i64 noundef %count, ptr noundef nonnull align 8 dereferenceable(8) %value, ptr noundef nonnull align 1 dereferenceable(1) %alloc) unnamed_addr #5 comdat align 2 personality ptr @__gxx_personality_v0 {
entry:
  %this.addr = alloca ptr, align 8
  %count.addr = alloca i64, align 8
  %value.addr = alloca ptr, align 8
  %alloc.addr = alloca ptr, align 8
  %exn.slot = alloca ptr, align 8
  %ehselector.slot = alloca i32, align 4
  store ptr %this, ptr %this.addr, align 8, !tbaa !79
  store i64 %count, ptr %count.addr, align 8, !tbaa !16
  store ptr %value, ptr %value.addr, align 8, !tbaa !81
  store ptr %alloc, ptr %alloc.addr, align 8, !tbaa !77
  %this1 = load ptr, ptr %this.addr, align 8
  %0 = load ptr, ptr %alloc.addr, align 8, !tbaa !77
  call void @_ZNSaIdEC2ERKS_(ptr noundef nonnull align 1 dereferenceable(1) %this1, ptr noundef nonnull align 1 dereferenceable(1) %0) #3
  %p_begin = getelementptr inbounds nuw %"class.xt::uvector", ptr %this1, i32 0, i32 1
  store ptr null, ptr %p_begin, align 8, !tbaa !82
  %p_end = getelementptr inbounds nuw %"class.xt::uvector", ptr %this1, i32 0, i32 2
  store ptr null, ptr %p_end, align 8, !tbaa !83
  %1 = load i64, ptr %count.addr, align 8, !tbaa !16
  %cmp = icmp ne i64 %1, 0
  br i1 %cmp, label %if.then, label %if.end

if.then:                                          ; preds = %entry
  %2 = load i64, ptr %count.addr, align 8, !tbaa !16
  %call = invoke noundef ptr @_ZNSt15__new_allocatorIdE8allocateEmPKv(ptr noundef nonnull align 1 dereferenceable(1) %this1, i64 noundef %2, ptr noundef null)
          to label %invoke.cont unwind label %lpad

invoke.cont:                                      ; preds = %if.then
  %p_begin2 = getelementptr inbounds nuw %"class.xt::uvector", ptr %this1, i32 0, i32 1
  store ptr %call, ptr %p_begin2, align 8, !tbaa !82
  %p_begin3 = getelementptr inbounds nuw %"class.xt::uvector", ptr %this1, i32 0, i32 1
  %3 = load ptr, ptr %p_begin3, align 8, !tbaa !82
  %4 = load i64, ptr %count.addr, align 8, !tbaa !16
  %add.ptr = getelementptr inbounds nuw double, ptr %3, i64 %4
  %p_end4 = getelementptr inbounds nuw %"class.xt::uvector", ptr %this1, i32 0, i32 2
  store ptr %add.ptr, ptr %p_end4, align 8, !tbaa !83
  %p_begin5 = getelementptr inbounds nuw %"class.xt::uvector", ptr %this1, i32 0, i32 1
  %5 = load ptr, ptr %p_begin5, align 8, !tbaa !82
  %p_end6 = getelementptr inbounds nuw %"class.xt::uvector", ptr %this1, i32 0, i32 2
  %6 = load ptr, ptr %p_end6, align 8, !tbaa !83
  %7 = load ptr, ptr %value.addr, align 8, !tbaa !81
  invoke void @_ZSt18uninitialized_fillIPddEvT_S1_RKT0_(ptr noundef %5, ptr noundef %6, ptr noundef nonnull align 8 dereferenceable(8) %7)
          to label %invoke.cont7 unwind label %lpad

invoke.cont7:                                     ; preds = %invoke.cont
  br label %if.end

lpad:                                             ; preds = %invoke.cont, %if.then
  %8 = landingpad { ptr, i32 }
          cleanup
  %9 = extractvalue { ptr, i32 } %8, 0
  store ptr %9, ptr %exn.slot, align 8
  %10 = extractvalue { ptr, i32 } %8, 1
  store i32 %10, ptr %ehselector.slot, align 4
  call void @_ZNSt15__new_allocatorIdED2Ev(ptr noundef nonnull align 1 dereferenceable(1) %this1) #3
  br label %eh.resume

if.end:                                           ; preds = %invoke.cont7, %entry
  ret void

eh.resume:                                        ; preds = %lpad
  %exn = load ptr, ptr %exn.slot, align 8
  %sel = load i32, ptr %ehselector.slot, align 4
  %lpad.val = insertvalue { ptr, i32 } poison, ptr %exn, 0
  %lpad.val8 = insertvalue { ptr, i32 } %lpad.val, i32 %sel, 1
  resume { ptr, i32 } %lpad.val8
}

; Function Attrs: mustprogress nounwind uwtable
define linkonce_odr void @_ZNSt15__new_allocatorIdED2Ev(ptr noundef nonnull align 1 dereferenceable(1) %this) unnamed_addr #7 comdat align 2 {
entry:
  %this.addr = alloca ptr, align 8
  store ptr %this, ptr %this.addr, align 8, !tbaa !84
  %this1 = load ptr, ptr %this.addr, align 8
  ret void
}

; Function Attrs: mustprogress nounwind uwtable
define linkonce_odr void @_ZN2xt20xsharable_expressionINS_17xtensor_containerINS_7uvectorIdSaIdEEELm1ELNS_11layout_typeE1ENS_22xtensor_expression_tagEEEED2Ev(ptr noundef nonnull align 8 dereferenceable(16) %this) unnamed_addr #7 comdat align 2 {
entry:
  %this.addr = alloca ptr, align 8
  store ptr %this, ptr %this.addr, align 8, !tbaa !86
  %this1 = load ptr, ptr %this.addr, align 8
  %p_shared = getelementptr inbounds nuw %"class.xt::xsharable_expression", ptr %this1, i32 0, i32 0
  call void @_ZNSt12__shared_ptrIN2xt17xtensor_containerINS0_7uvectorIdSaIdEEELm1ELNS0_11layout_typeE1ENS0_22xtensor_expression_tagEEELN9__gnu_cxx12_Lock_policyE2EED2Ev(ptr noundef nonnull align 8 dereferenceable(16) %p_shared) #3
  ret void
}

; Function Attrs: inlinehint mustprogress uwtable
define linkonce_odr i64 @_ZN3xtl13make_sequenceISt5arrayImLm1EEEET_NS3_9size_typeENS3_10value_typeE(i64 noundef %size, i64 noundef %v) #5 comdat {
entry:
  %retval = alloca %"struct.std::array.0", align 8
  %size.addr = alloca i64, align 8
  %v.addr = alloca i64, align 8
  store i64 %size, ptr %size.addr, align 8, !tbaa !16
  store i64 %v, ptr %v.addr, align 8, !tbaa !16
  %0 = load i64, ptr %size.addr, align 8, !tbaa !16
  %1 = load i64, ptr %v.addr, align 8, !tbaa !16
  %call = call i64 @_ZN3xtl6detail16sequence_builderISt5arrayImLm1EEE4makeEmm(i64 noundef %0, i64 noundef %1)
  %coerce.dive = getelementptr inbounds nuw %"struct.std::array.0", ptr %retval, i32 0, i32 0
  store i64 %call, ptr %coerce.dive, align 8
  %coerce.dive1 = getelementptr inbounds nuw %"struct.std::array.0", ptr %retval, i32 0, i32 0
  %2 = load i64, ptr %coerce.dive1, align 8
  ret i64 %2
}

; Function Attrs: mustprogress nounwind uwtable
define linkonce_odr noundef i64 @_ZNK2xt10xcontainerINS_17xtensor_containerINS_7uvectorIdSaIdEEELm1ELNS_11layout_typeE1ENS_22xtensor_expression_tagEEEE9dimensionEv(ptr noundef nonnull align 1 dereferenceable(1) %this) #7 comdat align 2 {
entry:
  %this.addr = alloca ptr, align 8
  store ptr %this, ptr %this.addr, align 8, !tbaa !65
  %this1 = load ptr, ptr %this.addr, align 8
  %call = call noundef nonnull align 8 dereferenceable(8) ptr @_ZNK2xt10xcontainerINS_17xtensor_containerINS_7uvectorIdSaIdEEELm1ELNS_11layout_typeE1ENS_22xtensor_expression_tagEEEE5shapeEv(ptr noundef nonnull align 1 dereferenceable(1) %this1) #3
  %call2 = call noundef i64 @_ZNKSt5arrayImLm1EE4sizeEv(ptr noundef nonnull align 8 dereferenceable(8) %call) #20
  ret i64 %call2
}

; Function Attrs: noinline noreturn nounwind uwtable
define linkonce_odr hidden void @__clang_call_terminate(ptr noundef %0) #9 comdat {
  %2 = call ptr @__cxa_begin_catch(ptr %0) #3
  call void @_ZSt9terminatev() #19
  unreachable
}

declare ptr @__cxa_begin_catch(ptr)

declare void @_ZSt9terminatev()

; Function Attrs: nocallback nofree nounwind willreturn memory(argmem: readwrite)
declare void @llvm.memcpy.p0.p0.i64(ptr noalias writeonly captures(none), ptr noalias readonly captures(none), i64, i1 immarg) #10

; Function Attrs: inlinehint mustprogress uwtable
define linkonce_odr i64 @_ZN3xtl13make_sequenceISt5arrayIlLm1EEEET_NS3_9size_typeENS3_10value_typeE(i64 noundef %size, i64 noundef %v) #5 comdat {
entry:
  %retval = alloca %"struct.std::array.1", align 8
  %size.addr = alloca i64, align 8
  %v.addr = alloca i64, align 8
  store i64 %size, ptr %size.addr, align 8, !tbaa !16
  store i64 %v, ptr %v.addr, align 8, !tbaa !16
  %0 = load i64, ptr %size.addr, align 8, !tbaa !16
  %1 = load i64, ptr %v.addr, align 8, !tbaa !16
  %call = call i64 @_ZN3xtl6detail16sequence_builderISt5arrayIlLm1EEE4makeEml(i64 noundef %0, i64 noundef %1)
  %coerce.dive = getelementptr inbounds nuw %"struct.std::array.1", ptr %retval, i32 0, i32 0
  store i64 %call, ptr %coerce.dive, align 8
  %coerce.dive1 = getelementptr inbounds nuw %"struct.std::array.1", ptr %retval, i32 0, i32 0
  %2 = load i64, ptr %coerce.dive1, align 8
  ret i64 %2
}

; Function Attrs: inlinehint mustprogress uwtable
define linkonce_odr i64 @_ZN3xtl6detail16sequence_builderISt5arrayImLm1EEE4makeEmm(i64 noundef %0, i64 noundef %v) #5 comdat align 2 {
entry:
  %retval = alloca %"struct.std::array.0", align 8
  %.addr = alloca i64, align 8
  %v.addr = alloca i64, align 8
  store i64 %0, ptr %.addr, align 8, !tbaa !16
  store i64 %v, ptr %v.addr, align 8, !tbaa !16
  call void @_ZNSt5arrayImLm1EE4fillERKm(ptr noundef nonnull align 8 dereferenceable(8) %retval, ptr noundef nonnull align 8 dereferenceable(8) %v.addr)
  %coerce.dive = getelementptr inbounds nuw %"struct.std::array.0", ptr %retval, i32 0, i32 0
  %1 = load i64, ptr %coerce.dive, align 8
  ret i64 %1
}

; Function Attrs: mustprogress uwtable
define linkonce_odr void @_ZNSt5arrayImLm1EE4fillERKm(ptr noundef nonnull align 8 dereferenceable(8) %this, ptr noundef nonnull align 8 dereferenceable(8) %__u) #4 comdat align 2 {
entry:
  %this.addr = alloca ptr, align 8
  %__u.addr = alloca ptr, align 8
  store ptr %this, ptr %this.addr, align 8, !tbaa !67
  store ptr %__u, ptr %__u.addr, align 8, !tbaa !88
  %this1 = load ptr, ptr %this.addr, align 8
  %call = call noundef ptr @_ZNSt5arrayImLm1EE5beginEv(ptr noundef nonnull align 8 dereferenceable(8) %this1) #20
  %call2 = call noundef i64 @_ZNKSt5arrayImLm1EE4sizeEv(ptr noundef nonnull align 8 dereferenceable(8) %this1) #20
  %0 = load ptr, ptr %__u.addr, align 8, !tbaa !88
  %call3 = call noundef ptr @_ZSt6fill_nIPmmmET_S1_T0_RKT1_(ptr noundef %call, i64 noundef %call2, ptr noundef nonnull align 8 dereferenceable(8) %0)
  ret void
}

; Function Attrs: inlinehint mustprogress uwtable
define linkonce_odr noundef ptr @_ZSt6fill_nIPmmmET_S1_T0_RKT1_(ptr noundef %__first, i64 noundef %__n, ptr noundef nonnull align 8 dereferenceable(8) %__value) #5 comdat {
entry:
  %__first.addr = alloca ptr, align 8
  %__n.addr = alloca i64, align 8
  %__value.addr = alloca ptr, align 8
  %agg.tmp = alloca %"struct.std::random_access_iterator_tag", align 1
  %undef.agg.tmp = alloca %"struct.std::random_access_iterator_tag", align 1
  store ptr %__first, ptr %__first.addr, align 8, !tbaa !88
  store i64 %__n, ptr %__n.addr, align 8, !tbaa !16
  store ptr %__value, ptr %__value.addr, align 8, !tbaa !88
  %0 = load ptr, ptr %__first.addr, align 8, !tbaa !88
  %1 = load i64, ptr %__n.addr, align 8, !tbaa !16
  %call = call noundef i64 @_ZSt17__size_to_integerm(i64 noundef %1)
  %2 = load ptr, ptr %__value.addr, align 8, !tbaa !88
  call void @_ZSt19__iterator_categoryIPmENSt15iterator_traitsIT_E17iterator_categoryERKS2_(ptr noundef nonnull align 8 dereferenceable(8) %__first.addr)
  %call1 = call noundef ptr @_ZSt10__fill_n_aIPmmmET_S1_T0_RKT1_St26random_access_iterator_tag(ptr noundef %0, i64 noundef %call, ptr noundef nonnull align 8 dereferenceable(8) %2)
  ret ptr %call1
}

; Function Attrs: mustprogress nounwind willreturn memory(none) uwtable
define linkonce_odr noundef ptr @_ZNSt5arrayImLm1EE5beginEv(ptr noundef nonnull align 8 dereferenceable(8) %this) #11 comdat align 2 {
entry:
  %this.addr = alloca ptr, align 8
  store ptr %this, ptr %this.addr, align 8, !tbaa !67
  %this1 = load ptr, ptr %this.addr, align 8
  %call = call noundef ptr @_ZNSt5arrayImLm1EE4dataEv(ptr noundef nonnull align 8 dereferenceable(8) %this1) #20
  ret ptr %call
}

; Function Attrs: mustprogress nounwind willreturn memory(none) uwtable
define linkonce_odr noundef i64 @_ZNKSt5arrayImLm1EE4sizeEv(ptr noundef nonnull align 8 dereferenceable(8) %this) #11 comdat align 2 {
entry:
  %this.addr = alloca ptr, align 8
  store ptr %this, ptr %this.addr, align 8, !tbaa !67
  %this1 = load ptr, ptr %this.addr, align 8
  ret i64 1
}

; Function Attrs: inlinehint mustprogress uwtable
define linkonce_odr noundef ptr @_ZSt10__fill_n_aIPmmmET_S1_T0_RKT1_St26random_access_iterator_tag(ptr noundef %__first, i64 noundef %__n, ptr noundef nonnull align 8 dereferenceable(8) %__value) #5 comdat {
entry:
  %retval = alloca ptr, align 8
  %0 = alloca %"struct.std::random_access_iterator_tag", align 1
  %__first.addr = alloca ptr, align 8
  %__n.addr = alloca i64, align 8
  %__value.addr = alloca ptr, align 8
  store ptr %__first, ptr %__first.addr, align 8, !tbaa !88
  store i64 %__n, ptr %__n.addr, align 8, !tbaa !16
  store ptr %__value, ptr %__value.addr, align 8, !tbaa !88
  %1 = load i64, ptr %__n.addr, align 8, !tbaa !16
  %cmp = icmp ule i64 %1, 0
  br i1 %cmp, label %if.then, label %if.end

if.then:                                          ; preds = %entry
  %2 = load ptr, ptr %__first.addr, align 8, !tbaa !88
  store ptr %2, ptr %retval, align 8
  br label %return

if.end:                                           ; preds = %entry
  %3 = load ptr, ptr %__first.addr, align 8, !tbaa !88
  %4 = load ptr, ptr %__first.addr, align 8, !tbaa !88
  %5 = load i64, ptr %__n.addr, align 8, !tbaa !16
  %add.ptr = getelementptr inbounds nuw i64, ptr %4, i64 %5
  %6 = load ptr, ptr %__value.addr, align 8, !tbaa !88
  call void @_ZSt8__fill_aIPmmEvT_S1_RKT0_(ptr noundef %3, ptr noundef %add.ptr, ptr noundef nonnull align 8 dereferenceable(8) %6)
  %7 = load ptr, ptr %__first.addr, align 8, !tbaa !88
  %8 = load i64, ptr %__n.addr, align 8, !tbaa !16
  %add.ptr1 = getelementptr inbounds nuw i64, ptr %7, i64 %8
  store ptr %add.ptr1, ptr %retval, align 8
  br label %return

return:                                           ; preds = %if.end, %if.then
  %9 = load ptr, ptr %retval, align 8
  ret ptr %9
}

; Function Attrs: inlinehint mustprogress nounwind uwtable
define linkonce_odr noundef i64 @_ZSt17__size_to_integerm(i64 noundef %__n) #8 comdat {
entry:
  %__n.addr = alloca i64, align 8
  store i64 %__n, ptr %__n.addr, align 8, !tbaa !16
  %0 = load i64, ptr %__n.addr, align 8, !tbaa !16
  ret i64 %0
}

; Function Attrs: inlinehint mustprogress nounwind uwtable
define linkonce_odr void @_ZSt19__iterator_categoryIPmENSt15iterator_traitsIT_E17iterator_categoryERKS2_(ptr noundef nonnull align 8 dereferenceable(8) %0) #8 comdat {
entry:
  %.addr = alloca ptr, align 8
  store ptr %0, ptr %.addr, align 8, !tbaa !90
  ret void
}

; Function Attrs: inlinehint mustprogress uwtable
define linkonce_odr void @_ZSt8__fill_aIPmmEvT_S1_RKT0_(ptr noundef %__first, ptr noundef %__last, ptr noundef nonnull align 8 dereferenceable(8) %__value) #5 comdat {
entry:
  %__first.addr = alloca ptr, align 8
  %__last.addr = alloca ptr, align 8
  %__value.addr = alloca ptr, align 8
  store ptr %__first, ptr %__first.addr, align 8, !tbaa !88
  store ptr %__last, ptr %__last.addr, align 8, !tbaa !88
  store ptr %__value, ptr %__value.addr, align 8, !tbaa !88
  %0 = load ptr, ptr %__first.addr, align 8, !tbaa !88
  %1 = load ptr, ptr %__last.addr, align 8, !tbaa !88
  %2 = load ptr, ptr %__value.addr, align 8, !tbaa !88
  call void @_ZSt9__fill_a1IPmmEN9__gnu_cxx11__enable_ifIXsr11__is_scalarIT0_EE7__valueEvE6__typeET_S6_RKS3_(ptr noundef %0, ptr noundef %1, ptr noundef nonnull align 8 dereferenceable(8) %2)
  ret void
}

; Function Attrs: inlinehint mustprogress nounwind uwtable
define linkonce_odr void @_ZSt9__fill_a1IPmmEN9__gnu_cxx11__enable_ifIXsr11__is_scalarIT0_EE7__valueEvE6__typeET_S6_RKS3_(ptr noundef %__first, ptr noundef %__last, ptr noundef nonnull align 8 dereferenceable(8) %__value) #8 comdat {
entry:
  %__first.addr = alloca ptr, align 8
  %__last.addr = alloca ptr, align 8
  %__value.addr = alloca ptr, align 8
  %__tmp = alloca i64, align 8
  store ptr %__first, ptr %__first.addr, align 8, !tbaa !88
  store ptr %__last, ptr %__last.addr, align 8, !tbaa !88
  store ptr %__value, ptr %__value.addr, align 8, !tbaa !88
  call void @llvm.lifetime.start.p0(i64 8, ptr %__tmp) #3
  %0 = load ptr, ptr %__value.addr, align 8, !tbaa !88
  %1 = load i64, ptr %0, align 8, !tbaa !16
  store i64 %1, ptr %__tmp, align 8, !tbaa !16
  br label %for.cond

for.cond:                                         ; preds = %for.inc, %entry
  %2 = load ptr, ptr %__first.addr, align 8, !tbaa !88
  %3 = load ptr, ptr %__last.addr, align 8, !tbaa !88
  %cmp = icmp ne ptr %2, %3
  br i1 %cmp, label %for.body, label %for.end

for.body:                                         ; preds = %for.cond
  %4 = load i64, ptr %__tmp, align 8, !tbaa !16
  %5 = load ptr, ptr %__first.addr, align 8, !tbaa !88
  store i64 %4, ptr %5, align 8, !tbaa !16
  br label %for.inc

for.inc:                                          ; preds = %for.body
  %6 = load ptr, ptr %__first.addr, align 8, !tbaa !88
  %incdec.ptr = getelementptr inbounds nuw i64, ptr %6, i32 1
  store ptr %incdec.ptr, ptr %__first.addr, align 8, !tbaa !88
  br label %for.cond, !llvm.loop !93

for.end:                                          ; preds = %for.cond
  call void @llvm.lifetime.end.p0(i64 8, ptr %__tmp) #3
  ret void
}

; Function Attrs: mustprogress nounwind willreturn memory(none) uwtable
define linkonce_odr noundef ptr @_ZNSt5arrayImLm1EE4dataEv(ptr noundef nonnull align 8 dereferenceable(8) %this) #11 comdat align 2 {
entry:
  %this.addr = alloca ptr, align 8
  store ptr %this, ptr %this.addr, align 8, !tbaa !67
  %this1 = load ptr, ptr %this.addr, align 8
  %_M_elems = getelementptr inbounds nuw %"struct.std::array.0", ptr %this1, i32 0, i32 0
  %call = call noundef ptr @_ZNSt14__array_traitsImLm1EE6_S_ptrERA1_Km(ptr noundef nonnull align 8 dereferenceable(8) %_M_elems) #3
  ret ptr %call
}

; Function Attrs: mustprogress nounwind uwtable
define linkonce_odr noundef ptr @_ZNSt14__array_traitsImLm1EE6_S_ptrERA1_Km(ptr noundef nonnull align 8 dereferenceable(8) %__t) #7 comdat align 2 {
entry:
  %__t.addr = alloca ptr, align 8
  store ptr %__t, ptr %__t.addr, align 8, !tbaa !88
  %0 = load ptr, ptr %__t.addr, align 8, !tbaa !88
  %arraydecay = getelementptr inbounds [1 x i64], ptr %0, i64 0, i64 0
  ret ptr %arraydecay
}

; Function Attrs: inlinehint mustprogress uwtable
define linkonce_odr i64 @_ZN3xtl6detail16sequence_builderISt5arrayIlLm1EEE4makeEml(i64 noundef %0, i64 noundef %v) #5 comdat align 2 {
entry:
  %retval = alloca %"struct.std::array.1", align 8
  %.addr = alloca i64, align 8
  %v.addr = alloca i64, align 8
  store i64 %0, ptr %.addr, align 8, !tbaa !16
  store i64 %v, ptr %v.addr, align 8, !tbaa !16
  call void @_ZNSt5arrayIlLm1EE4fillERKl(ptr noundef nonnull align 8 dereferenceable(8) %retval, ptr noundef nonnull align 8 dereferenceable(8) %v.addr)
  %coerce.dive = getelementptr inbounds nuw %"struct.std::array.1", ptr %retval, i32 0, i32 0
  %1 = load i64, ptr %coerce.dive, align 8
  ret i64 %1
}

; Function Attrs: mustprogress uwtable
define linkonce_odr void @_ZNSt5arrayIlLm1EE4fillERKl(ptr noundef nonnull align 8 dereferenceable(8) %this, ptr noundef nonnull align 8 dereferenceable(8) %__u) #4 comdat align 2 {
entry:
  %this.addr = alloca ptr, align 8
  %__u.addr = alloca ptr, align 8
  store ptr %this, ptr %this.addr, align 8, !tbaa !94
  store ptr %__u, ptr %__u.addr, align 8, !tbaa !88
  %this1 = load ptr, ptr %this.addr, align 8
  %call = call noundef ptr @_ZNSt5arrayIlLm1EE5beginEv(ptr noundef nonnull align 8 dereferenceable(8) %this1) #20
  %call2 = call noundef i64 @_ZNKSt5arrayIlLm1EE4sizeEv(ptr noundef nonnull align 8 dereferenceable(8) %this1) #20
  %0 = load ptr, ptr %__u.addr, align 8, !tbaa !88
  %call3 = call noundef ptr @_ZSt6fill_nIPlmlET_S1_T0_RKT1_(ptr noundef %call, i64 noundef %call2, ptr noundef nonnull align 8 dereferenceable(8) %0)
  ret void
}

; Function Attrs: inlinehint mustprogress uwtable
define linkonce_odr noundef ptr @_ZSt6fill_nIPlmlET_S1_T0_RKT1_(ptr noundef %__first, i64 noundef %__n, ptr noundef nonnull align 8 dereferenceable(8) %__value) #5 comdat {
entry:
  %__first.addr = alloca ptr, align 8
  %__n.addr = alloca i64, align 8
  %__value.addr = alloca ptr, align 8
  %agg.tmp = alloca %"struct.std::random_access_iterator_tag", align 1
  %undef.agg.tmp = alloca %"struct.std::random_access_iterator_tag", align 1
  store ptr %__first, ptr %__first.addr, align 8, !tbaa !88
  store i64 %__n, ptr %__n.addr, align 8, !tbaa !16
  store ptr %__value, ptr %__value.addr, align 8, !tbaa !88
  %0 = load ptr, ptr %__first.addr, align 8, !tbaa !88
  %1 = load i64, ptr %__n.addr, align 8, !tbaa !16
  %call = call noundef i64 @_ZSt17__size_to_integerm(i64 noundef %1)
  %2 = load ptr, ptr %__value.addr, align 8, !tbaa !88
  call void @_ZSt19__iterator_categoryIPlENSt15iterator_traitsIT_E17iterator_categoryERKS2_(ptr noundef nonnull align 8 dereferenceable(8) %__first.addr)
  %call1 = call noundef ptr @_ZSt10__fill_n_aIPlmlET_S1_T0_RKT1_St26random_access_iterator_tag(ptr noundef %0, i64 noundef %call, ptr noundef nonnull align 8 dereferenceable(8) %2)
  ret ptr %call1
}

; Function Attrs: mustprogress nounwind willreturn memory(none) uwtable
define linkonce_odr noundef ptr @_ZNSt5arrayIlLm1EE5beginEv(ptr noundef nonnull align 8 dereferenceable(8) %this) #11 comdat align 2 {
entry:
  %this.addr = alloca ptr, align 8
  store ptr %this, ptr %this.addr, align 8, !tbaa !94
  %this1 = load ptr, ptr %this.addr, align 8
  %call = call noundef ptr @_ZNSt5arrayIlLm1EE4dataEv(ptr noundef nonnull align 8 dereferenceable(8) %this1) #20
  ret ptr %call
}

; Function Attrs: mustprogress nounwind willreturn memory(none) uwtable
define linkonce_odr noundef i64 @_ZNKSt5arrayIlLm1EE4sizeEv(ptr noundef nonnull align 8 dereferenceable(8) %this) #11 comdat align 2 {
entry:
  %this.addr = alloca ptr, align 8
  store ptr %this, ptr %this.addr, align 8, !tbaa !94
  %this1 = load ptr, ptr %this.addr, align 8
  ret i64 1
}

; Function Attrs: inlinehint mustprogress uwtable
define linkonce_odr noundef ptr @_ZSt10__fill_n_aIPlmlET_S1_T0_RKT1_St26random_access_iterator_tag(ptr noundef %__first, i64 noundef %__n, ptr noundef nonnull align 8 dereferenceable(8) %__value) #5 comdat {
entry:
  %retval = alloca ptr, align 8
  %0 = alloca %"struct.std::random_access_iterator_tag", align 1
  %__first.addr = alloca ptr, align 8
  %__n.addr = alloca i64, align 8
  %__value.addr = alloca ptr, align 8
  store ptr %__first, ptr %__first.addr, align 8, !tbaa !88
  store i64 %__n, ptr %__n.addr, align 8, !tbaa !16
  store ptr %__value, ptr %__value.addr, align 8, !tbaa !88
  %1 = load i64, ptr %__n.addr, align 8, !tbaa !16
  %cmp = icmp ule i64 %1, 0
  br i1 %cmp, label %if.then, label %if.end

if.then:                                          ; preds = %entry
  %2 = load ptr, ptr %__first.addr, align 8, !tbaa !88
  store ptr %2, ptr %retval, align 8
  br label %return

if.end:                                           ; preds = %entry
  %3 = load ptr, ptr %__first.addr, align 8, !tbaa !88
  %4 = load ptr, ptr %__first.addr, align 8, !tbaa !88
  %5 = load i64, ptr %__n.addr, align 8, !tbaa !16
  %add.ptr = getelementptr inbounds nuw i64, ptr %4, i64 %5
  %6 = load ptr, ptr %__value.addr, align 8, !tbaa !88
  call void @_ZSt8__fill_aIPllEvT_S1_RKT0_(ptr noundef %3, ptr noundef %add.ptr, ptr noundef nonnull align 8 dereferenceable(8) %6)
  %7 = load ptr, ptr %__first.addr, align 8, !tbaa !88
  %8 = load i64, ptr %__n.addr, align 8, !tbaa !16
  %add.ptr1 = getelementptr inbounds nuw i64, ptr %7, i64 %8
  store ptr %add.ptr1, ptr %retval, align 8
  br label %return

return:                                           ; preds = %if.end, %if.then
  %9 = load ptr, ptr %retval, align 8
  ret ptr %9
}

; Function Attrs: inlinehint mustprogress nounwind uwtable
define linkonce_odr void @_ZSt19__iterator_categoryIPlENSt15iterator_traitsIT_E17iterator_categoryERKS2_(ptr noundef nonnull align 8 dereferenceable(8) %0) #8 comdat {
entry:
  %.addr = alloca ptr, align 8
  store ptr %0, ptr %.addr, align 8, !tbaa !90
  ret void
}

; Function Attrs: inlinehint mustprogress uwtable
define linkonce_odr void @_ZSt8__fill_aIPllEvT_S1_RKT0_(ptr noundef %__first, ptr noundef %__last, ptr noundef nonnull align 8 dereferenceable(8) %__value) #5 comdat {
entry:
  %__first.addr = alloca ptr, align 8
  %__last.addr = alloca ptr, align 8
  %__value.addr = alloca ptr, align 8
  store ptr %__first, ptr %__first.addr, align 8, !tbaa !88
  store ptr %__last, ptr %__last.addr, align 8, !tbaa !88
  store ptr %__value, ptr %__value.addr, align 8, !tbaa !88
  %0 = load ptr, ptr %__first.addr, align 8, !tbaa !88
  %1 = load ptr, ptr %__last.addr, align 8, !tbaa !88
  %2 = load ptr, ptr %__value.addr, align 8, !tbaa !88
  call void @_ZSt9__fill_a1IPllEN9__gnu_cxx11__enable_ifIXsr11__is_scalarIT0_EE7__valueEvE6__typeET_S6_RKS3_(ptr noundef %0, ptr noundef %1, ptr noundef nonnull align 8 dereferenceable(8) %2)
  ret void
}

; Function Attrs: inlinehint mustprogress nounwind uwtable
define linkonce_odr void @_ZSt9__fill_a1IPllEN9__gnu_cxx11__enable_ifIXsr11__is_scalarIT0_EE7__valueEvE6__typeET_S6_RKS3_(ptr noundef %__first, ptr noundef %__last, ptr noundef nonnull align 8 dereferenceable(8) %__value) #8 comdat {
entry:
  %__first.addr = alloca ptr, align 8
  %__last.addr = alloca ptr, align 8
  %__value.addr = alloca ptr, align 8
  %__tmp = alloca i64, align 8
  store ptr %__first, ptr %__first.addr, align 8, !tbaa !88
  store ptr %__last, ptr %__last.addr, align 8, !tbaa !88
  store ptr %__value, ptr %__value.addr, align 8, !tbaa !88
  call void @llvm.lifetime.start.p0(i64 8, ptr %__tmp) #3
  %0 = load ptr, ptr %__value.addr, align 8, !tbaa !88
  %1 = load i64, ptr %0, align 8, !tbaa !16
  store i64 %1, ptr %__tmp, align 8, !tbaa !16
  br label %for.cond

for.cond:                                         ; preds = %for.inc, %entry
  %2 = load ptr, ptr %__first.addr, align 8, !tbaa !88
  %3 = load ptr, ptr %__last.addr, align 8, !tbaa !88
  %cmp = icmp ne ptr %2, %3
  br i1 %cmp, label %for.body, label %for.end

for.body:                                         ; preds = %for.cond
  %4 = load i64, ptr %__tmp, align 8, !tbaa !16
  %5 = load ptr, ptr %__first.addr, align 8, !tbaa !88
  store i64 %4, ptr %5, align 8, !tbaa !16
  br label %for.inc

for.inc:                                          ; preds = %for.body
  %6 = load ptr, ptr %__first.addr, align 8, !tbaa !88
  %incdec.ptr = getelementptr inbounds nuw i64, ptr %6, i32 1
  store ptr %incdec.ptr, ptr %__first.addr, align 8, !tbaa !88
  br label %for.cond, !llvm.loop !96

for.end:                                          ; preds = %for.cond
  call void @llvm.lifetime.end.p0(i64 8, ptr %__tmp) #3
  ret void
}

; Function Attrs: mustprogress nounwind willreturn memory(none) uwtable
define linkonce_odr noundef ptr @_ZNSt5arrayIlLm1EE4dataEv(ptr noundef nonnull align 8 dereferenceable(8) %this) #11 comdat align 2 {
entry:
  %this.addr = alloca ptr, align 8
  store ptr %this, ptr %this.addr, align 8, !tbaa !94
  %this1 = load ptr, ptr %this.addr, align 8
  %_M_elems = getelementptr inbounds nuw %"struct.std::array.1", ptr %this1, i32 0, i32 0
  %call = call noundef ptr @_ZNSt14__array_traitsIlLm1EE6_S_ptrERA1_Kl(ptr noundef nonnull align 8 dereferenceable(8) %_M_elems) #3
  ret ptr %call
}

; Function Attrs: mustprogress nounwind uwtable
define linkonce_odr noundef ptr @_ZNSt14__array_traitsIlLm1EE6_S_ptrERA1_Kl(ptr noundef nonnull align 8 dereferenceable(8) %__t) #7 comdat align 2 {
entry:
  %__t.addr = alloca ptr, align 8
  store ptr %__t, ptr %__t.addr, align 8, !tbaa !88
  %0 = load ptr, ptr %__t.addr, align 8, !tbaa !88
  %arraydecay = getelementptr inbounds [1 x i64], ptr %0, i64 0, i64 0
  ret ptr %arraydecay
}

; Function Attrs: mustprogress uwtable
define linkonce_odr void @_ZN2xt14xsemantic_baseINS_17xtensor_containerINS_7uvectorIdSaIdEEELm1ELNS_11layout_typeE1ENS_22xtensor_expression_tagEEEEC2Ev(ptr noundef nonnull align 8 dereferenceable(16) %this) unnamed_addr #4 comdat align 2 {
entry:
  %this.addr = alloca ptr, align 8
  store ptr %this, ptr %this.addr, align 8, !tbaa !97
  %this1 = load ptr, ptr %this.addr, align 8
  call void @_ZN2xt20xsharable_expressionINS_17xtensor_containerINS_7uvectorIdSaIdEEELm1ELNS_11layout_typeE1ENS_22xtensor_expression_tagEEEEC2Ev(ptr noundef nonnull align 8 dereferenceable(16) %this1)
  ret void
}

; Function Attrs: inlinehint mustprogress nounwind uwtable
define linkonce_odr void @_ZN2xt20xsharable_expressionINS_17xtensor_containerINS_7uvectorIdSaIdEEELm1ELNS_11layout_typeE1ENS_22xtensor_expression_tagEEEEC2Ev(ptr noundef nonnull align 8 dereferenceable(16) %this) unnamed_addr #8 comdat align 2 {
entry:
  %this.addr = alloca ptr, align 8
  store ptr %this, ptr %this.addr, align 8, !tbaa !86
  %this1 = load ptr, ptr %this.addr, align 8
  %p_shared = getelementptr inbounds nuw %"class.xt::xsharable_expression", ptr %this1, i32 0, i32 0
  call void @_ZNSt10shared_ptrIN2xt17xtensor_containerINS0_7uvectorIdSaIdEEELm1ELNS0_11layout_typeE1ENS0_22xtensor_expression_tagEEEEC2EDn(ptr noundef nonnull align 8 dereferenceable(16) %p_shared, ptr null) #3
  ret void
}

; Function Attrs: mustprogress nounwind uwtable
define linkonce_odr void @_ZNSt10shared_ptrIN2xt17xtensor_containerINS0_7uvectorIdSaIdEEELm1ELNS0_11layout_typeE1ENS0_22xtensor_expression_tagEEEEC2EDn(ptr noundef nonnull align 8 dereferenceable(16) %this, ptr %0) unnamed_addr #7 comdat align 2 {
entry:
  %this.addr = alloca ptr, align 8
  %.addr = alloca ptr, align 8
  store ptr %this, ptr %this.addr, align 8, !tbaa !99
  store ptr %0, ptr %.addr, align 8, !tbaa !101
  %this1 = load ptr, ptr %this.addr, align 8
  call void @_ZNSt10shared_ptrIN2xt17xtensor_containerINS0_7uvectorIdSaIdEEELm1ELNS0_11layout_typeE1ENS0_22xtensor_expression_tagEEEEC2Ev(ptr noundef nonnull align 8 dereferenceable(16) %this1) #3
  ret void
}

; Function Attrs: mustprogress nounwind uwtable
define linkonce_odr void @_ZNSt10shared_ptrIN2xt17xtensor_containerINS0_7uvectorIdSaIdEEELm1ELNS0_11layout_typeE1ENS0_22xtensor_expression_tagEEEEC2Ev(ptr noundef nonnull align 8 dereferenceable(16) %this) unnamed_addr #7 comdat align 2 {
entry:
  %this.addr = alloca ptr, align 8
  store ptr %this, ptr %this.addr, align 8, !tbaa !99
  %this1 = load ptr, ptr %this.addr, align 8
  call void @_ZNSt12__shared_ptrIN2xt17xtensor_containerINS0_7uvectorIdSaIdEEELm1ELNS0_11layout_typeE1ENS0_22xtensor_expression_tagEEELN9__gnu_cxx12_Lock_policyE2EEC2Ev(ptr noundef nonnull align 8 dereferenceable(16) %this1) #3
  ret void
}

; Function Attrs: mustprogress nounwind uwtable
define linkonce_odr void @_ZNSt12__shared_ptrIN2xt17xtensor_containerINS0_7uvectorIdSaIdEEELm1ELNS0_11layout_typeE1ENS0_22xtensor_expression_tagEEELN9__gnu_cxx12_Lock_policyE2EEC2Ev(ptr noundef nonnull align 8 dereferenceable(16) %this) unnamed_addr #7 comdat align 2 {
entry:
  %this.addr = alloca ptr, align 8
  store ptr %this, ptr %this.addr, align 8, !tbaa !103
  %this1 = load ptr, ptr %this.addr, align 8
  %_M_ptr = getelementptr inbounds nuw %"class.std::__shared_ptr", ptr %this1, i32 0, i32 0
  store ptr null, ptr %_M_ptr, align 8, !tbaa !105
  %_M_refcount = getelementptr inbounds nuw %"class.std::__shared_ptr", ptr %this1, i32 0, i32 1
  call void @_ZNSt14__shared_countILN9__gnu_cxx12_Lock_policyE2EEC2Ev(ptr noundef nonnull align 8 dereferenceable(8) %_M_refcount) #3
  ret void
}

; Function Attrs: mustprogress nounwind uwtable
define linkonce_odr void @_ZNSt14__shared_countILN9__gnu_cxx12_Lock_policyE2EEC2Ev(ptr noundef nonnull align 8 dereferenceable(8) %this) unnamed_addr #7 comdat align 2 {
entry:
  %this.addr = alloca ptr, align 8
  store ptr %this, ptr %this.addr, align 8, !tbaa !106
  %this1 = load ptr, ptr %this.addr, align 8
  %_M_pi = getelementptr inbounds nuw %"class.std::__shared_count", ptr %this1, i32 0, i32 0
  store ptr null, ptr %_M_pi, align 8, !tbaa !108
  ret void
}

; Function Attrs: mustprogress nounwind uwtable
define linkonce_odr void @_ZNSt15__new_allocatorIdEC2Ev(ptr noundef nonnull align 1 dereferenceable(1) %this) unnamed_addr #7 comdat align 2 {
entry:
  %this.addr = alloca ptr, align 8
  store ptr %this, ptr %this.addr, align 8, !tbaa !84
  %this1 = load ptr, ptr %this.addr, align 8
  ret void
}

; Function Attrs: mustprogress nounwind uwtable
define linkonce_odr void @_ZNSaIdEC2ERKS_(ptr noundef nonnull align 1 dereferenceable(1) %this, ptr noundef nonnull align 1 dereferenceable(1) %__a) unnamed_addr #7 comdat align 2 {
entry:
  %this.addr = alloca ptr, align 8
  %__a.addr = alloca ptr, align 8
  store ptr %this, ptr %this.addr, align 8, !tbaa !77
  store ptr %__a, ptr %__a.addr, align 8, !tbaa !77
  %this1 = load ptr, ptr %this.addr, align 8
  %0 = load ptr, ptr %__a.addr, align 8, !tbaa !77
  call void @_ZNSt15__new_allocatorIdEC2ERKS0_(ptr noundef nonnull align 1 dereferenceable(1) %this1, ptr noundef nonnull align 1 dereferenceable(1) %0) #3
  ret void
}

; Function Attrs: mustprogress uwtable
define linkonce_odr noundef ptr @_ZNSt15__new_allocatorIdE8allocateEmPKv(ptr noundef nonnull align 1 dereferenceable(1) %this, i64 noundef %__n, ptr noundef %0) #4 comdat align 2 {
entry:
  %this.addr = alloca ptr, align 8
  %__n.addr = alloca i64, align 8
  %.addr = alloca ptr, align 8
  store ptr %this, ptr %this.addr, align 8, !tbaa !84
  store i64 %__n, ptr %__n.addr, align 8, !tbaa !16
  store ptr %0, ptr %.addr, align 8, !tbaa !109
  %this1 = load ptr, ptr %this.addr, align 8
  %1 = load i64, ptr %__n.addr, align 8, !tbaa !16
  %call = call noundef i64 @_ZNKSt15__new_allocatorIdE11_M_max_sizeEv(ptr noundef nonnull align 1 dereferenceable(1) %this1) #3
  %cmp = icmp ugt i64 %1, %call
  %conv = zext i1 %cmp to i64
  %expval = call i64 @llvm.expect.i64(i64 %conv, i64 0)
  %tobool = icmp ne i64 %expval, 0
  br i1 %tobool, label %if.then, label %if.end4

if.then:                                          ; preds = %entry
  %2 = load i64, ptr %__n.addr, align 8, !tbaa !16
  %cmp2 = icmp ugt i64 %2, 2305843009213693951
  br i1 %cmp2, label %if.then3, label %if.end

if.then3:                                         ; preds = %if.then
  call void @_ZSt28__throw_bad_array_new_lengthv() #21
  unreachable

if.end:                                           ; preds = %if.then
  call void @_ZSt17__throw_bad_allocv() #21
  unreachable

if.end4:                                          ; preds = %entry
  %3 = load i64, ptr %__n.addr, align 8, !tbaa !16
  %mul = mul i64 %3, 8
  %call5 = call noalias noundef nonnull ptr @_Znwm(i64 noundef %mul) #22
  ret ptr %call5
}

; Function Attrs: inlinehint mustprogress uwtable
define linkonce_odr void @_ZSt18uninitialized_fillIPddEvT_S1_RKT0_(ptr noundef %__first, ptr noundef %__last, ptr noundef nonnull align 8 dereferenceable(8) %__x) #5 comdat {
entry:
  %__first.addr = alloca ptr, align 8
  %__last.addr = alloca ptr, align 8
  %__x.addr = alloca ptr, align 8
  %__can_fill = alloca i8, align 1
  store ptr %__first, ptr %__first.addr, align 8, !tbaa !81
  store ptr %__last, ptr %__last.addr, align 8, !tbaa !81
  store ptr %__x, ptr %__x.addr, align 8, !tbaa !81
  call void @llvm.lifetime.start.p0(i64 1, ptr %__can_fill) #3
  store i8 1, ptr %__can_fill, align 1, !tbaa !62
  %0 = load ptr, ptr %__first.addr, align 8, !tbaa !81
  %1 = load ptr, ptr %__last.addr, align 8, !tbaa !81
  %2 = load ptr, ptr %__x.addr, align 8, !tbaa !81
  call void @_ZNSt20__uninitialized_fillILb1EE13__uninit_fillIPddEEvT_S3_RKT0_(ptr noundef %0, ptr noundef %1, ptr noundef nonnull align 8 dereferenceable(8) %2)
  call void @llvm.lifetime.end.p0(i64 1, ptr %__can_fill) #3
  ret void
}

; Function Attrs: mustprogress nounwind uwtable
define linkonce_odr void @_ZNSt15__new_allocatorIdEC2ERKS0_(ptr noundef nonnull align 1 dereferenceable(1) %this, ptr noundef nonnull align 1 dereferenceable(1) %0) unnamed_addr #7 comdat align 2 {
entry:
  %this.addr = alloca ptr, align 8
  %.addr = alloca ptr, align 8
  store ptr %this, ptr %this.addr, align 8, !tbaa !84
  store ptr %0, ptr %.addr, align 8, !tbaa !84
  %this1 = load ptr, ptr %this.addr, align 8
  ret void
}

; Function Attrs: mustprogress nounwind uwtable
define linkonce_odr noundef i64 @_ZNKSt15__new_allocatorIdE11_M_max_sizeEv(ptr noundef nonnull align 1 dereferenceable(1) %this) #7 comdat align 2 {
entry:
  %this.addr = alloca ptr, align 8
  store ptr %this, ptr %this.addr, align 8, !tbaa !84
  %this1 = load ptr, ptr %this.addr, align 8
  ret i64 1152921504606846975
}

; Function Attrs: nocallback nofree nosync nounwind willreturn memory(none)
declare i64 @llvm.expect.i64(i64, i64) #12

; Function Attrs: noreturn
declare void @_ZSt28__throw_bad_array_new_lengthv() #13

; Function Attrs: noreturn
declare void @_ZSt17__throw_bad_allocv() #13

; Function Attrs: nobuiltin allocsize(0)
declare noundef nonnull ptr @_Znwm(i64 noundef) #14

; Function Attrs: mustprogress uwtable
define linkonce_odr void @_ZNSt20__uninitialized_fillILb1EE13__uninit_fillIPddEEvT_S3_RKT0_(ptr noundef %__first, ptr noundef %__last, ptr noundef nonnull align 8 dereferenceable(8) %__x) #4 comdat align 2 {
entry:
  %__first.addr = alloca ptr, align 8
  %__last.addr = alloca ptr, align 8
  %__x.addr = alloca ptr, align 8
  store ptr %__first, ptr %__first.addr, align 8, !tbaa !81
  store ptr %__last, ptr %__last.addr, align 8, !tbaa !81
  store ptr %__x, ptr %__x.addr, align 8, !tbaa !81
  %0 = load ptr, ptr %__first.addr, align 8, !tbaa !81
  %1 = load ptr, ptr %__last.addr, align 8, !tbaa !81
  %2 = load ptr, ptr %__x.addr, align 8, !tbaa !81
  call void @_ZSt4fillIPddEvT_S1_RKT0_(ptr noundef %0, ptr noundef %1, ptr noundef nonnull align 8 dereferenceable(8) %2)
  ret void
}

; Function Attrs: inlinehint mustprogress uwtable
define linkonce_odr void @_ZSt4fillIPddEvT_S1_RKT0_(ptr noundef %__first, ptr noundef %__last, ptr noundef nonnull align 8 dereferenceable(8) %__value) #5 comdat {
entry:
  %__first.addr = alloca ptr, align 8
  %__last.addr = alloca ptr, align 8
  %__value.addr = alloca ptr, align 8
  store ptr %__first, ptr %__first.addr, align 8, !tbaa !81
  store ptr %__last, ptr %__last.addr, align 8, !tbaa !81
  store ptr %__value, ptr %__value.addr, align 8, !tbaa !81
  %0 = load ptr, ptr %__first.addr, align 8, !tbaa !81
  %1 = load ptr, ptr %__last.addr, align 8, !tbaa !81
  %2 = load ptr, ptr %__value.addr, align 8, !tbaa !81
  call void @_ZSt8__fill_aIPddEvT_S1_RKT0_(ptr noundef %0, ptr noundef %1, ptr noundef nonnull align 8 dereferenceable(8) %2)
  ret void
}

; Function Attrs: inlinehint mustprogress uwtable
define linkonce_odr void @_ZSt8__fill_aIPddEvT_S1_RKT0_(ptr noundef %__first, ptr noundef %__last, ptr noundef nonnull align 8 dereferenceable(8) %__value) #5 comdat {
entry:
  %__first.addr = alloca ptr, align 8
  %__last.addr = alloca ptr, align 8
  %__value.addr = alloca ptr, align 8
  store ptr %__first, ptr %__first.addr, align 8, !tbaa !81
  store ptr %__last, ptr %__last.addr, align 8, !tbaa !81
  store ptr %__value, ptr %__value.addr, align 8, !tbaa !81
  %0 = load ptr, ptr %__first.addr, align 8, !tbaa !81
  %1 = load ptr, ptr %__last.addr, align 8, !tbaa !81
  %2 = load ptr, ptr %__value.addr, align 8, !tbaa !81
  call void @_ZSt9__fill_a1IPddEN9__gnu_cxx11__enable_ifIXsr11__is_scalarIT0_EE7__valueEvE6__typeET_S6_RKS3_(ptr noundef %0, ptr noundef %1, ptr noundef nonnull align 8 dereferenceable(8) %2)
  ret void
}

; Function Attrs: inlinehint mustprogress nounwind uwtable
define linkonce_odr void @_ZSt9__fill_a1IPddEN9__gnu_cxx11__enable_ifIXsr11__is_scalarIT0_EE7__valueEvE6__typeET_S6_RKS3_(ptr noundef %__first, ptr noundef %__last, ptr noundef nonnull align 8 dereferenceable(8) %__value) #8 comdat {
entry:
  %__first.addr = alloca ptr, align 8
  %__last.addr = alloca ptr, align 8
  %__value.addr = alloca ptr, align 8
  %__tmp = alloca double, align 8
  store ptr %__first, ptr %__first.addr, align 8, !tbaa !81
  store ptr %__last, ptr %__last.addr, align 8, !tbaa !81
  store ptr %__value, ptr %__value.addr, align 8, !tbaa !81
  call void @llvm.lifetime.start.p0(i64 8, ptr %__tmp) #3
  %0 = load ptr, ptr %__value.addr, align 8, !tbaa !81
  %1 = load double, ptr %0, align 8, !tbaa !55
  store double %1, ptr %__tmp, align 8, !tbaa !55
  br label %for.cond

for.cond:                                         ; preds = %for.inc, %entry
  %2 = load ptr, ptr %__first.addr, align 8, !tbaa !81
  %3 = load ptr, ptr %__last.addr, align 8, !tbaa !81
  %cmp = icmp ne ptr %2, %3
  br i1 %cmp, label %for.body, label %for.end

for.body:                                         ; preds = %for.cond
  %4 = load double, ptr %__tmp, align 8, !tbaa !55
  %5 = load ptr, ptr %__first.addr, align 8, !tbaa !81
  store double %4, ptr %5, align 8, !tbaa !55
  br label %for.inc

for.inc:                                          ; preds = %for.body
  %6 = load ptr, ptr %__first.addr, align 8, !tbaa !81
  %incdec.ptr = getelementptr inbounds nuw double, ptr %6, i32 1
  store ptr %incdec.ptr, ptr %__first.addr, align 8, !tbaa !81
  br label %for.cond, !llvm.loop !110

for.end:                                          ; preds = %for.cond
  call void @llvm.lifetime.end.p0(i64 8, ptr %__tmp) #3
  ret void
}

; Function Attrs: mustprogress nounwind uwtable
define linkonce_odr void @_ZNSt14__shared_countILN9__gnu_cxx12_Lock_policyE2EED2Ev(ptr noundef nonnull align 8 dereferenceable(8) %this) unnamed_addr #7 comdat align 2 {
entry:
  %this.addr = alloca ptr, align 8
  store ptr %this, ptr %this.addr, align 8, !tbaa !106
  %this1 = load ptr, ptr %this.addr, align 8
  %_M_pi = getelementptr inbounds nuw %"class.std::__shared_count", ptr %this1, i32 0, i32 0
  %0 = load ptr, ptr %_M_pi, align 8, !tbaa !108
  %cmp = icmp ne ptr %0, null
  br i1 %cmp, label %if.then, label %if.end

if.then:                                          ; preds = %entry
  %_M_pi2 = getelementptr inbounds nuw %"class.std::__shared_count", ptr %this1, i32 0, i32 0
  %1 = load ptr, ptr %_M_pi2, align 8, !tbaa !108
  call void @_ZNSt16_Sp_counted_baseILN9__gnu_cxx12_Lock_policyE2EE10_M_releaseEv(ptr noundef nonnull align 8 dereferenceable(16) %1) #3
  br label %if.end

if.end:                                           ; preds = %if.then, %entry
  ret void
}

; Function Attrs: inlinehint mustprogress nounwind uwtable
define linkonce_odr void @_ZNSt16_Sp_counted_baseILN9__gnu_cxx12_Lock_policyE2EE10_M_releaseEv(ptr noundef nonnull align 8 dereferenceable(16) %this) #8 comdat align 2 personality ptr @__gxx_personality_v0 {
entry:
  %this.addr = alloca ptr, align 8
  %__lock_free = alloca i8, align 1
  %__double_word = alloca i8, align 1
  %__aligned = alloca i8, align 1
  %__wordbits = alloca i32, align 4
  %__shiftbits = alloca i32, align 4
  %__unique_ref = alloca i64, align 8
  %__both_counts = alloca ptr, align 8
  %atomic-temp = alloca i64, align 8
  %cleanup.dest.slot = alloca i32, align 4
  store ptr %this, ptr %this.addr, align 8, !tbaa !111
  %this1 = load ptr, ptr %this.addr, align 8
  call void @llvm.lifetime.start.p0(i64 1, ptr %__lock_free) #3
  store i8 1, ptr %__lock_free, align 1, !tbaa !62
  call void @llvm.lifetime.start.p0(i64 1, ptr %__double_word) #3
  store i8 1, ptr %__double_word, align 1, !tbaa !62
  call void @llvm.lifetime.start.p0(i64 1, ptr %__aligned) #3
  store i8 1, ptr %__aligned, align 1, !tbaa !62
  call void @llvm.lifetime.start.p0(i64 4, ptr %__wordbits) #3
  store i32 32, ptr %__wordbits, align 4, !tbaa !50
  call void @llvm.lifetime.start.p0(i64 4, ptr %__shiftbits) #3
  store i32 32, ptr %__shiftbits, align 4, !tbaa !50
  call void @llvm.lifetime.start.p0(i64 8, ptr %__unique_ref) #3
  store i64 4294967297, ptr %__unique_ref, align 8, !tbaa !112
  call void @llvm.lifetime.start.p0(i64 8, ptr %__both_counts) #3
  %_M_use_count = getelementptr inbounds nuw %"class.std::_Sp_counted_base", ptr %this1, i32 0, i32 1
  store ptr %_M_use_count, ptr %__both_counts, align 8, !tbaa !114
  %0 = load ptr, ptr %__both_counts, align 8, !tbaa !114
  %1 = load atomic i64, ptr %0 acquire, align 8
  store i64 %1, ptr %atomic-temp, align 8
  %2 = load i64, ptr %atomic-temp, align 8, !tbaa !112
  %cmp = icmp eq i64 %2, 4294967297
  br i1 %cmp, label %if.then, label %if.end

if.then:                                          ; preds = %entry
  %_M_use_count2 = getelementptr inbounds nuw %"class.std::_Sp_counted_base", ptr %this1, i32 0, i32 1
  store i32 0, ptr %_M_use_count2, align 8, !tbaa !116
  %_M_weak_count = getelementptr inbounds nuw %"class.std::_Sp_counted_base", ptr %this1, i32 0, i32 2
  store i32 0, ptr %_M_weak_count, align 4, !tbaa !118
  %vtable = load ptr, ptr %this1, align 8, !tbaa !119
  %vfn = getelementptr inbounds ptr, ptr %vtable, i64 2
  %3 = load ptr, ptr %vfn, align 8
  call void %3(ptr noundef nonnull align 8 dereferenceable(16) %this1) #3
  %vtable3 = load ptr, ptr %this1, align 8, !tbaa !119
  %vfn4 = getelementptr inbounds ptr, ptr %vtable3, i64 3
  %4 = load ptr, ptr %vfn4, align 8
  call void %4(ptr noundef nonnull align 8 dereferenceable(16) %this1) #3
  store i32 1, ptr %cleanup.dest.slot, align 4
  br label %cleanup

if.end:                                           ; preds = %entry
  %_M_use_count5 = getelementptr inbounds nuw %"class.std::_Sp_counted_base", ptr %this1, i32 0, i32 1
  %call = invoke noundef i32 @_ZN9__gnu_cxx27__exchange_and_add_dispatchEPii(ptr noundef %_M_use_count5, i32 noundef -1)
          to label %invoke.cont unwind label %terminate.lpad

invoke.cont:                                      ; preds = %if.end
  %cmp6 = icmp eq i32 %call, 1
  %cmp6.expval = call i1 @llvm.expect.i1(i1 %cmp6, i1 false)
  br i1 %cmp6.expval, label %if.then7, label %if.end8

if.then7:                                         ; preds = %invoke.cont
  call void @_ZNSt16_Sp_counted_baseILN9__gnu_cxx12_Lock_policyE2EE24_M_release_last_use_coldEv(ptr noundef nonnull align 8 dereferenceable(16) %this1) #3
  store i32 1, ptr %cleanup.dest.slot, align 4
  br label %cleanup

if.end8:                                          ; preds = %invoke.cont
  store i32 0, ptr %cleanup.dest.slot, align 4
  br label %cleanup

cleanup:                                          ; preds = %if.end8, %if.then7, %if.then
  call void @llvm.lifetime.end.p0(i64 8, ptr %__both_counts) #3
  call void @llvm.lifetime.end.p0(i64 8, ptr %__unique_ref) #3
  call void @llvm.lifetime.end.p0(i64 4, ptr %__shiftbits) #3
  call void @llvm.lifetime.end.p0(i64 4, ptr %__wordbits) #3
  %cleanup.dest = load i32, ptr %cleanup.dest.slot, align 4
  switch i32 %cleanup.dest, label %cleanup12 [
    i32 0, label %cleanup.cont
  ]

cleanup.cont:                                     ; preds = %cleanup
  store i32 0, ptr %cleanup.dest.slot, align 4
  br label %cleanup12

cleanup12:                                        ; preds = %cleanup.cont, %cleanup
  call void @llvm.lifetime.end.p0(i64 1, ptr %__aligned) #3
  call void @llvm.lifetime.end.p0(i64 1, ptr %__double_word) #3
  call void @llvm.lifetime.end.p0(i64 1, ptr %__lock_free) #3
  %cleanup.dest15 = load i32, ptr %cleanup.dest.slot, align 4
  switch i32 %cleanup.dest15, label %unreachable [
    i32 0, label %cleanup.cont16
    i32 1, label %cleanup.cont16
  ]

cleanup.cont16:                                   ; preds = %cleanup12, %cleanup12
  ret void

terminate.lpad:                                   ; preds = %if.end
  %5 = landingpad { ptr, i32 }
          catch ptr null
  %6 = extractvalue { ptr, i32 } %5, 0
  call void @__clang_call_terminate(ptr %6) #19
  unreachable

unreachable:                                      ; preds = %cleanup12
  unreachable
}

; Function Attrs: alwaysinline mustprogress uwtable
define linkonce_odr noundef i32 @_ZN9__gnu_cxx27__exchange_and_add_dispatchEPii(ptr noundef %__mem, i32 noundef %__val) #15 comdat {
entry:
  %retval = alloca i32, align 4
  %__mem.addr = alloca ptr, align 8
  %__val.addr = alloca i32, align 4
  store ptr %__mem, ptr %__mem.addr, align 8, !tbaa !60
  store i32 %__val, ptr %__val.addr, align 4, !tbaa !50
  %call = call noundef zeroext i1 @_ZN9__gnu_cxx20__is_single_threadedEv() #3
  br i1 %call, label %if.then, label %if.else

if.then:                                          ; preds = %entry
  %0 = load ptr, ptr %__mem.addr, align 8, !tbaa !60
  %1 = load i32, ptr %__val.addr, align 4, !tbaa !50
  %call1 = call noundef i32 @_ZN9__gnu_cxx25__exchange_and_add_singleEPii(ptr noundef %0, i32 noundef %1)
  store i32 %call1, ptr %retval, align 4
  br label %return

if.else:                                          ; preds = %entry
  %2 = load ptr, ptr %__mem.addr, align 8, !tbaa !60
  %3 = load i32, ptr %__val.addr, align 4, !tbaa !50
  %call2 = call noundef i32 @_ZN9__gnu_cxx18__exchange_and_addEPVii(ptr noundef %2, i32 noundef %3)
  store i32 %call2, ptr %retval, align 4
  br label %return

return:                                           ; preds = %if.else, %if.then
  %4 = load i32, ptr %retval, align 4
  ret i32 %4
}

; Function Attrs: nocallback nofree nosync nounwind willreturn memory(none)
declare i1 @llvm.expect.i1(i1, i1) #12

; Function Attrs: mustprogress noinline nounwind uwtable
define linkonce_odr void @_ZNSt16_Sp_counted_baseILN9__gnu_cxx12_Lock_policyE2EE24_M_release_last_use_coldEv(ptr noundef nonnull align 8 dereferenceable(16) %this) #16 comdat align 2 {
entry:
  %this.addr = alloca ptr, align 8
  store ptr %this, ptr %this.addr, align 8, !tbaa !111
  %this1 = load ptr, ptr %this.addr, align 8
  call void @_ZNSt16_Sp_counted_baseILN9__gnu_cxx12_Lock_policyE2EE19_M_release_last_useEv(ptr noundef nonnull align 8 dereferenceable(16) %this1) #3
  ret void
}

; Function Attrs: alwaysinline mustprogress nounwind uwtable
define linkonce_odr noundef zeroext i1 @_ZN9__gnu_cxx20__is_single_threadedEv() #17 comdat personality ptr @__gxx_personality_v0 {
entry:
  %call = invoke noundef i32 @_ZL18__gthread_active_pv()
          to label %invoke.cont unwind label %terminate.lpad

invoke.cont:                                      ; preds = %entry
  %tobool = icmp ne i32 %call, 0
  %lnot = xor i1 %tobool, true
  ret i1 %lnot

terminate.lpad:                                   ; preds = %entry
  %0 = landingpad { ptr, i32 }
          catch ptr null
  %1 = extractvalue { ptr, i32 } %0, 0
  call void @__clang_call_terminate(ptr %1) #19
  unreachable
}

; Function Attrs: alwaysinline mustprogress nounwind uwtable
define linkonce_odr noundef i32 @_ZN9__gnu_cxx25__exchange_and_add_singleEPii(ptr noundef %__mem, i32 noundef %__val) #17 comdat {
entry:
  %__mem.addr = alloca ptr, align 8
  %__val.addr = alloca i32, align 4
  %__result = alloca i32, align 4
  store ptr %__mem, ptr %__mem.addr, align 8, !tbaa !60
  store i32 %__val, ptr %__val.addr, align 4, !tbaa !50
  call void @llvm.lifetime.start.p0(i64 4, ptr %__result) #3
  %0 = load ptr, ptr %__mem.addr, align 8, !tbaa !60
  %1 = load i32, ptr %0, align 4, !tbaa !50
  store i32 %1, ptr %__result, align 4, !tbaa !50
  %2 = load i32, ptr %__val.addr, align 4, !tbaa !50
  %3 = load ptr, ptr %__mem.addr, align 8, !tbaa !60
  %4 = load i32, ptr %3, align 4, !tbaa !50
  %add = add nsw i32 %4, %2
  store i32 %add, ptr %3, align 4, !tbaa !50
  %5 = load i32, ptr %__result, align 4, !tbaa !50
  call void @llvm.lifetime.end.p0(i64 4, ptr %__result) #3
  ret i32 %5
}

; Function Attrs: alwaysinline mustprogress nounwind uwtable
define linkonce_odr noundef i32 @_ZN9__gnu_cxx18__exchange_and_addEPVii(ptr noundef %__mem, i32 noundef %__val) #17 comdat {
entry:
  %__mem.addr = alloca ptr, align 8
  %__val.addr = alloca i32, align 4
  %.atomictmp = alloca i32, align 4
  %atomic-temp = alloca i32, align 4
  store ptr %__mem, ptr %__mem.addr, align 8, !tbaa !60
  store i32 %__val, ptr %__val.addr, align 4, !tbaa !50
  %0 = load ptr, ptr %__mem.addr, align 8, !tbaa !60
  %1 = load i32, ptr %__val.addr, align 4, !tbaa !50
  store i32 %1, ptr %.atomictmp, align 4, !tbaa !50
  %2 = load i32, ptr %.atomictmp, align 4
  %3 = atomicrmw volatile add ptr %0, i32 %2 acq_rel, align 4
  store i32 %3, ptr %atomic-temp, align 4
  %4 = load i32, ptr %atomic-temp, align 4, !tbaa !50
  ret i32 %4
}

; Function Attrs: inlinehint mustprogress nounwind uwtable
define internal noundef i32 @_ZL18__gthread_active_pv() #8 {
entry:
  %cmp = icmp ne ptr @__pthread_key_create, null
  %conv = zext i1 %cmp to i32
  ret i32 %conv
}

; Function Attrs: nounwind
declare extern_weak noundef i32 @__pthread_key_create(ptr noundef, ptr noundef) #2

; Function Attrs: mustprogress nounwind uwtable
define linkonce_odr void @_ZNSt16_Sp_counted_baseILN9__gnu_cxx12_Lock_policyE2EE19_M_release_last_useEv(ptr noundef nonnull align 8 dereferenceable(16) %this) #7 comdat align 2 personality ptr @__gxx_personality_v0 {
entry:
  %this.addr = alloca ptr, align 8
  store ptr %this, ptr %this.addr, align 8, !tbaa !111
  %this1 = load ptr, ptr %this.addr, align 8
  %vtable = load ptr, ptr %this1, align 8, !tbaa !119
  %vfn = getelementptr inbounds ptr, ptr %vtable, i64 2
  %0 = load ptr, ptr %vfn, align 8
  call void %0(ptr noundef nonnull align 8 dereferenceable(16) %this1) #3
  %_M_weak_count = getelementptr inbounds nuw %"class.std::_Sp_counted_base", ptr %this1, i32 0, i32 2
  %call = invoke noundef i32 @_ZN9__gnu_cxx27__exchange_and_add_dispatchEPii(ptr noundef %_M_weak_count, i32 noundef -1)
          to label %invoke.cont unwind label %terminate.lpad

invoke.cont:                                      ; preds = %entry
  %cmp = icmp eq i32 %call, 1
  br i1 %cmp, label %if.then, label %if.end

if.then:                                          ; preds = %invoke.cont
  %vtable2 = load ptr, ptr %this1, align 8, !tbaa !119
  %vfn3 = getelementptr inbounds ptr, ptr %vtable2, i64 3
  %1 = load ptr, ptr %vfn3, align 8
  call void %1(ptr noundef nonnull align 8 dereferenceable(16) %this1) #3
  br label %if.end

if.end:                                           ; preds = %if.then, %invoke.cont
  ret void

terminate.lpad:                                   ; preds = %entry
  %2 = landingpad { ptr, i32 }
          catch ptr null
  %3 = extractvalue { ptr, i32 } %2, 0
  call void @__clang_call_terminate(ptr %3) #19
  unreachable
}

; Function Attrs: inlinehint mustprogress nounwind uwtable
define linkonce_odr void @_ZN2xt18xstrided_containerINS_17xtensor_containerINS_7uvectorIdSaIdEEELm3ELNS_11layout_typeE1ENS_22xtensor_expression_tagEEEEC2Ev(ptr noundef nonnull align 8 dereferenceable(76) %this) unnamed_addr #8 comdat align 2 personality ptr @__gxx_personality_v0 {
entry:
  %this.addr = alloca ptr, align 8
  %ref.tmp = alloca %"struct.std::array.10", align 8
  %ref.tmp3 = alloca %"struct.std::array.11", align 8
  %ref.tmp7 = alloca %"struct.std::array.11", align 8
  store ptr %this, ptr %this.addr, align 8, !tbaa !121
  %this1 = load ptr, ptr %this.addr, align 8
  %m_shape = getelementptr inbounds nuw %"class.xt::xstrided_container.3", ptr %this1, i32 0, i32 0
  %m_strides = getelementptr inbounds nuw %"class.xt::xstrided_container.3", ptr %this1, i32 0, i32 1
  %m_backstrides = getelementptr inbounds nuw %"class.xt::xstrided_container.3", ptr %this1, i32 0, i32 2
  %m_layout = getelementptr inbounds nuw %"class.xt::xstrided_container.3", ptr %this1, i32 0, i32 3
  store i32 1, ptr %m_layout, align 8, !tbaa !123
  call void @llvm.lifetime.start.p0(i64 24, ptr %ref.tmp) #3
  %call = call noundef i64 @_ZNK2xt10xcontainerINS_17xtensor_containerINS_7uvectorIdSaIdEEELm3ELNS_11layout_typeE1ENS_22xtensor_expression_tagEEEE9dimensionEv(ptr noundef nonnull align 1 dereferenceable(1) %this1) #3
  invoke void @_ZN3xtl13make_sequenceISt5arrayImLm3EEEET_NS3_9size_typeENS3_10value_typeE(ptr dead_on_unwind writable sret(%"struct.std::array.10") align 8 %ref.tmp, i64 noundef %call, i64 noundef 0)
          to label %invoke.cont unwind label %terminate.lpad

invoke.cont:                                      ; preds = %entry
  %m_shape2 = getelementptr inbounds nuw %"class.xt::xstrided_container.3", ptr %this1, i32 0, i32 0
  call void @llvm.memcpy.p0.p0.i64(ptr align 8 %m_shape2, ptr align 8 %ref.tmp, i64 24, i1 false), !tbaa.struct !124
  call void @llvm.lifetime.end.p0(i64 24, ptr %ref.tmp) #3
  call void @llvm.lifetime.start.p0(i64 24, ptr %ref.tmp3) #3
  %call4 = call noundef i64 @_ZNK2xt10xcontainerINS_17xtensor_containerINS_7uvectorIdSaIdEEELm3ELNS_11layout_typeE1ENS_22xtensor_expression_tagEEEE9dimensionEv(ptr noundef nonnull align 1 dereferenceable(1) %this1) #3
  invoke void @_ZN3xtl13make_sequenceISt5arrayIlLm3EEEET_NS3_9size_typeENS3_10value_typeE(ptr dead_on_unwind writable sret(%"struct.std::array.11") align 8 %ref.tmp3, i64 noundef %call4, i64 noundef 0)
          to label %invoke.cont5 unwind label %terminate.lpad

invoke.cont5:                                     ; preds = %invoke.cont
  %m_strides6 = getelementptr inbounds nuw %"class.xt::xstrided_container.3", ptr %this1, i32 0, i32 1
  call void @llvm.memcpy.p0.p0.i64(ptr align 8 %m_strides6, ptr align 8 %ref.tmp3, i64 24, i1 false), !tbaa.struct !124
  call void @llvm.lifetime.end.p0(i64 24, ptr %ref.tmp3) #3
  call void @llvm.lifetime.start.p0(i64 24, ptr %ref.tmp7) #3
  %call8 = call noundef i64 @_ZNK2xt10xcontainerINS_17xtensor_containerINS_7uvectorIdSaIdEEELm3ELNS_11layout_typeE1ENS_22xtensor_expression_tagEEEE9dimensionEv(ptr noundef nonnull align 1 dereferenceable(1) %this1) #3
  invoke void @_ZN3xtl13make_sequenceISt5arrayIlLm3EEEET_NS3_9size_typeENS3_10value_typeE(ptr dead_on_unwind writable sret(%"struct.std::array.11") align 8 %ref.tmp7, i64 noundef %call8, i64 noundef 0)
          to label %invoke.cont9 unwind label %terminate.lpad

invoke.cont9:                                     ; preds = %invoke.cont5
  %m_backstrides10 = getelementptr inbounds nuw %"class.xt::xstrided_container.3", ptr %this1, i32 0, i32 2
  call void @llvm.memcpy.p0.p0.i64(ptr align 8 %m_backstrides10, ptr align 8 %ref.tmp7, i64 24, i1 false), !tbaa.struct !124
  call void @llvm.lifetime.end.p0(i64 24, ptr %ref.tmp7) #3
  ret void

terminate.lpad:                                   ; preds = %invoke.cont5, %invoke.cont, %entry
  %0 = landingpad { ptr, i32 }
          catch ptr null
  %1 = extractvalue { ptr, i32 } %0, 0
  call void @__clang_call_terminate(ptr %1) #19
  unreachable
}

; Function Attrs: mustprogress uwtable
define linkonce_odr void @_ZN2xt19xcontainer_semanticINS_17xtensor_containerINS_7uvectorIdSaIdEEELm3ELNS_11layout_typeE1ENS_22xtensor_expression_tagEEEEC2Ev(ptr noundef nonnull align 8 dereferenceable(16) %this) unnamed_addr #4 comdat align 2 {
entry:
  %this.addr = alloca ptr, align 8
  store ptr %this, ptr %this.addr, align 8, !tbaa !125
  %this1 = load ptr, ptr %this.addr, align 8
  call void @_ZN2xt14xsemantic_baseINS_17xtensor_containerINS_7uvectorIdSaIdEEELm3ELNS_11layout_typeE1ENS_22xtensor_expression_tagEEEEC2Ev(ptr noundef nonnull align 8 dereferenceable(16) %this1)
  ret void
}

; Function Attrs: mustprogress nounwind uwtable
define linkonce_odr void @_ZN2xt20xsharable_expressionINS_17xtensor_containerINS_7uvectorIdSaIdEEELm3ELNS_11layout_typeE1ENS_22xtensor_expression_tagEEEED2Ev(ptr noundef nonnull align 8 dereferenceable(16) %this) unnamed_addr #7 comdat align 2 {
entry:
  %this.addr = alloca ptr, align 8
  store ptr %this, ptr %this.addr, align 8, !tbaa !127
  %this1 = load ptr, ptr %this.addr, align 8
  %p_shared = getelementptr inbounds nuw %"class.xt::xsharable_expression.15", ptr %this1, i32 0, i32 0
  call void @_ZNSt12__shared_ptrIN2xt17xtensor_containerINS0_7uvectorIdSaIdEEELm3ELNS0_11layout_typeE1ENS0_22xtensor_expression_tagEEELN9__gnu_cxx12_Lock_policyE2EED2Ev(ptr noundef nonnull align 8 dereferenceable(16) %p_shared) #3
  ret void
}

; Function Attrs: inlinehint mustprogress uwtable
define linkonce_odr void @_ZN3xtl13make_sequenceISt5arrayImLm3EEEET_NS3_9size_typeENS3_10value_typeE(ptr dead_on_unwind noalias writable sret(%"struct.std::array.10") align 8 %agg.result, i64 noundef %size, i64 noundef %v) #5 comdat {
entry:
  %size.addr = alloca i64, align 8
  %v.addr = alloca i64, align 8
  store i64 %size, ptr %size.addr, align 8, !tbaa !16
  store i64 %v, ptr %v.addr, align 8, !tbaa !16
  %0 = load i64, ptr %size.addr, align 8, !tbaa !16
  %1 = load i64, ptr %v.addr, align 8, !tbaa !16
  call void @_ZN3xtl6detail16sequence_builderISt5arrayImLm3EEE4makeEmm(ptr dead_on_unwind writable sret(%"struct.std::array.10") align 8 %agg.result, i64 noundef %0, i64 noundef %1)
  ret void
}

; Function Attrs: mustprogress nounwind uwtable
define linkonce_odr noundef i64 @_ZNK2xt10xcontainerINS_17xtensor_containerINS_7uvectorIdSaIdEEELm3ELNS_11layout_typeE1ENS_22xtensor_expression_tagEEEE9dimensionEv(ptr noundef nonnull align 1 dereferenceable(1) %this) #7 comdat align 2 {
entry:
  %this.addr = alloca ptr, align 8
  store ptr %this, ptr %this.addr, align 8, !tbaa !129
  %this1 = load ptr, ptr %this.addr, align 8
  %call = call noundef nonnull align 8 dereferenceable(24) ptr @_ZNK2xt10xcontainerINS_17xtensor_containerINS_7uvectorIdSaIdEEELm3ELNS_11layout_typeE1ENS_22xtensor_expression_tagEEEE5shapeEv(ptr noundef nonnull align 1 dereferenceable(1) %this1) #3
  %call2 = call noundef i64 @_ZNKSt5arrayImLm3EE4sizeEv(ptr noundef nonnull align 8 dereferenceable(24) %call) #20
  ret i64 %call2
}

; Function Attrs: inlinehint mustprogress uwtable
define linkonce_odr void @_ZN3xtl13make_sequenceISt5arrayIlLm3EEEET_NS3_9size_typeENS3_10value_typeE(ptr dead_on_unwind noalias writable sret(%"struct.std::array.11") align 8 %agg.result, i64 noundef %size, i64 noundef %v) #5 comdat {
entry:
  %size.addr = alloca i64, align 8
  %v.addr = alloca i64, align 8
  store i64 %size, ptr %size.addr, align 8, !tbaa !16
  store i64 %v, ptr %v.addr, align 8, !tbaa !16
  %0 = load i64, ptr %size.addr, align 8, !tbaa !16
  %1 = load i64, ptr %v.addr, align 8, !tbaa !16
  call void @_ZN3xtl6detail16sequence_builderISt5arrayIlLm3EEE4makeEml(ptr dead_on_unwind writable sret(%"struct.std::array.11") align 8 %agg.result, i64 noundef %0, i64 noundef %1)
  ret void
}

; Function Attrs: inlinehint mustprogress uwtable
define linkonce_odr void @_ZN3xtl6detail16sequence_builderISt5arrayImLm3EEE4makeEmm(ptr dead_on_unwind noalias writable sret(%"struct.std::array.10") align 8 %agg.result, i64 noundef %0, i64 noundef %v) #5 comdat align 2 {
entry:
  %.addr = alloca i64, align 8
  %v.addr = alloca i64, align 8
  store i64 %0, ptr %.addr, align 8, !tbaa !16
  store i64 %v, ptr %v.addr, align 8, !tbaa !16
  call void @_ZNSt5arrayImLm3EE4fillERKm(ptr noundef nonnull align 8 dereferenceable(24) %agg.result, ptr noundef nonnull align 8 dereferenceable(8) %v.addr)
  ret void
}

; Function Attrs: mustprogress uwtable
define linkonce_odr void @_ZNSt5arrayImLm3EE4fillERKm(ptr noundef nonnull align 8 dereferenceable(24) %this, ptr noundef nonnull align 8 dereferenceable(8) %__u) #4 comdat align 2 {
entry:
  %this.addr = alloca ptr, align 8
  %__u.addr = alloca ptr, align 8
  store ptr %this, ptr %this.addr, align 8, !tbaa !131
  store ptr %__u, ptr %__u.addr, align 8, !tbaa !88
  %this1 = load ptr, ptr %this.addr, align 8
  %call = call noundef ptr @_ZNSt5arrayImLm3EE5beginEv(ptr noundef nonnull align 8 dereferenceable(24) %this1) #20
  %call2 = call noundef i64 @_ZNKSt5arrayImLm3EE4sizeEv(ptr noundef nonnull align 8 dereferenceable(24) %this1) #20
  %0 = load ptr, ptr %__u.addr, align 8, !tbaa !88
  %call3 = call noundef ptr @_ZSt6fill_nIPmmmET_S1_T0_RKT1_(ptr noundef %call, i64 noundef %call2, ptr noundef nonnull align 8 dereferenceable(8) %0)
  ret void
}

; Function Attrs: mustprogress nounwind willreturn memory(none) uwtable
define linkonce_odr noundef ptr @_ZNSt5arrayImLm3EE5beginEv(ptr noundef nonnull align 8 dereferenceable(24) %this) #11 comdat align 2 {
entry:
  %this.addr = alloca ptr, align 8
  store ptr %this, ptr %this.addr, align 8, !tbaa !131
  %this1 = load ptr, ptr %this.addr, align 8
  %call = call noundef ptr @_ZNSt5arrayImLm3EE4dataEv(ptr noundef nonnull align 8 dereferenceable(24) %this1) #20
  ret ptr %call
}

; Function Attrs: mustprogress nounwind willreturn memory(none) uwtable
define linkonce_odr noundef i64 @_ZNKSt5arrayImLm3EE4sizeEv(ptr noundef nonnull align 8 dereferenceable(24) %this) #11 comdat align 2 {
entry:
  %this.addr = alloca ptr, align 8
  store ptr %this, ptr %this.addr, align 8, !tbaa !131
  %this1 = load ptr, ptr %this.addr, align 8
  ret i64 3
}

; Function Attrs: mustprogress nounwind willreturn memory(none) uwtable
define linkonce_odr noundef ptr @_ZNSt5arrayImLm3EE4dataEv(ptr noundef nonnull align 8 dereferenceable(24) %this) #11 comdat align 2 {
entry:
  %this.addr = alloca ptr, align 8
  store ptr %this, ptr %this.addr, align 8, !tbaa !131
  %this1 = load ptr, ptr %this.addr, align 8
  %_M_elems = getelementptr inbounds nuw %"struct.std::array.10", ptr %this1, i32 0, i32 0
  %call = call noundef ptr @_ZNSt14__array_traitsImLm3EE6_S_ptrERA3_Km(ptr noundef nonnull align 8 dereferenceable(24) %_M_elems) #3
  ret ptr %call
}

; Function Attrs: mustprogress nounwind uwtable
define linkonce_odr noundef ptr @_ZNSt14__array_traitsImLm3EE6_S_ptrERA3_Km(ptr noundef nonnull align 8 dereferenceable(24) %__t) #7 comdat align 2 {
entry:
  %__t.addr = alloca ptr, align 8
  store ptr %__t, ptr %__t.addr, align 8, !tbaa !88
  %0 = load ptr, ptr %__t.addr, align 8, !tbaa !88
  %arraydecay = getelementptr inbounds [3 x i64], ptr %0, i64 0, i64 0
  ret ptr %arraydecay
}

; Function Attrs: mustprogress nounwind uwtable
define linkonce_odr noundef nonnull align 8 dereferenceable(24) ptr @_ZNK2xt10xcontainerINS_17xtensor_containerINS_7uvectorIdSaIdEEELm3ELNS_11layout_typeE1ENS_22xtensor_expression_tagEEEE5shapeEv(ptr noundef nonnull align 1 dereferenceable(1) %this) #7 comdat align 2 {
entry:
  %this.addr = alloca ptr, align 8
  store ptr %this, ptr %this.addr, align 8, !tbaa !129
  %this1 = load ptr, ptr %this.addr, align 8
  %call = call noundef nonnull align 8 dereferenceable(120) ptr @_ZNKR2xt10xcontainerINS_17xtensor_containerINS_7uvectorIdSaIdEEELm3ELNS_11layout_typeE1ENS_22xtensor_expression_tagEEEE12derived_castEv(ptr noundef nonnull align 1 dereferenceable(1) %this1) #3
  %call2 = call noundef nonnull align 8 dereferenceable(24) ptr @_ZNK2xt18xstrided_containerINS_17xtensor_containerINS_7uvectorIdSaIdEEELm3ELNS_11layout_typeE1ENS_22xtensor_expression_tagEEEE10shape_implEv(ptr noundef nonnull align 8 dereferenceable(76) %call) #3
  ret ptr %call2
}

; Function Attrs: inlinehint mustprogress nounwind uwtable
define linkonce_odr noundef nonnull align 8 dereferenceable(120) ptr @_ZNKR2xt10xcontainerINS_17xtensor_containerINS_7uvectorIdSaIdEEELm3ELNS_11layout_typeE1ENS_22xtensor_expression_tagEEEE12derived_castEv(ptr noundef nonnull align 1 dereferenceable(1) %this) #8 comdat align 2 {
entry:
  %this.addr = alloca ptr, align 8
  store ptr %this, ptr %this.addr, align 8, !tbaa !129
  %this1 = load ptr, ptr %this.addr, align 8
  ret ptr %this1
}

; Function Attrs: inlinehint mustprogress nounwind uwtable
define linkonce_odr noundef nonnull align 8 dereferenceable(24) ptr @_ZNK2xt18xstrided_containerINS_17xtensor_containerINS_7uvectorIdSaIdEEELm3ELNS_11layout_typeE1ENS_22xtensor_expression_tagEEEE10shape_implEv(ptr noundef nonnull align 8 dereferenceable(76) %this) #8 comdat align 2 {
entry:
  %this.addr = alloca ptr, align 8
  store ptr %this, ptr %this.addr, align 8, !tbaa !121
  %this1 = load ptr, ptr %this.addr, align 8
  %m_shape = getelementptr inbounds nuw %"class.xt::xstrided_container.3", ptr %this1, i32 0, i32 0
  ret ptr %m_shape
}

; Function Attrs: inlinehint mustprogress uwtable
define linkonce_odr void @_ZN3xtl6detail16sequence_builderISt5arrayIlLm3EEE4makeEml(ptr dead_on_unwind noalias writable sret(%"struct.std::array.11") align 8 %agg.result, i64 noundef %0, i64 noundef %v) #5 comdat align 2 {
entry:
  %.addr = alloca i64, align 8
  %v.addr = alloca i64, align 8
  store i64 %0, ptr %.addr, align 8, !tbaa !16
  store i64 %v, ptr %v.addr, align 8, !tbaa !16
  call void @_ZNSt5arrayIlLm3EE4fillERKl(ptr noundef nonnull align 8 dereferenceable(24) %agg.result, ptr noundef nonnull align 8 dereferenceable(8) %v.addr)
  ret void
}

; Function Attrs: mustprogress uwtable
define linkonce_odr void @_ZNSt5arrayIlLm3EE4fillERKl(ptr noundef nonnull align 8 dereferenceable(24) %this, ptr noundef nonnull align 8 dereferenceable(8) %__u) #4 comdat align 2 {
entry:
  %this.addr = alloca ptr, align 8
  %__u.addr = alloca ptr, align 8
  store ptr %this, ptr %this.addr, align 8, !tbaa !133
  store ptr %__u, ptr %__u.addr, align 8, !tbaa !88
  %this1 = load ptr, ptr %this.addr, align 8
  %call = call noundef ptr @_ZNSt5arrayIlLm3EE5beginEv(ptr noundef nonnull align 8 dereferenceable(24) %this1) #20
  %call2 = call noundef i64 @_ZNKSt5arrayIlLm3EE4sizeEv(ptr noundef nonnull align 8 dereferenceable(24) %this1) #20
  %0 = load ptr, ptr %__u.addr, align 8, !tbaa !88
  %call3 = call noundef ptr @_ZSt6fill_nIPlmlET_S1_T0_RKT1_(ptr noundef %call, i64 noundef %call2, ptr noundef nonnull align 8 dereferenceable(8) %0)
  ret void
}

; Function Attrs: mustprogress nounwind willreturn memory(none) uwtable
define linkonce_odr noundef ptr @_ZNSt5arrayIlLm3EE5beginEv(ptr noundef nonnull align 8 dereferenceable(24) %this) #11 comdat align 2 {
entry:
  %this.addr = alloca ptr, align 8
  store ptr %this, ptr %this.addr, align 8, !tbaa !133
  %this1 = load ptr, ptr %this.addr, align 8
  %call = call noundef ptr @_ZNSt5arrayIlLm3EE4dataEv(ptr noundef nonnull align 8 dereferenceable(24) %this1) #20
  ret ptr %call
}

; Function Attrs: mustprogress nounwind willreturn memory(none) uwtable
define linkonce_odr noundef i64 @_ZNKSt5arrayIlLm3EE4sizeEv(ptr noundef nonnull align 8 dereferenceable(24) %this) #11 comdat align 2 {
entry:
  %this.addr = alloca ptr, align 8
  store ptr %this, ptr %this.addr, align 8, !tbaa !133
  %this1 = load ptr, ptr %this.addr, align 8
  ret i64 3
}

; Function Attrs: mustprogress nounwind willreturn memory(none) uwtable
define linkonce_odr noundef ptr @_ZNSt5arrayIlLm3EE4dataEv(ptr noundef nonnull align 8 dereferenceable(24) %this) #11 comdat align 2 {
entry:
  %this.addr = alloca ptr, align 8
  store ptr %this, ptr %this.addr, align 8, !tbaa !133
  %this1 = load ptr, ptr %this.addr, align 8
  %_M_elems = getelementptr inbounds nuw %"struct.std::array.11", ptr %this1, i32 0, i32 0
  %call = call noundef ptr @_ZNSt14__array_traitsIlLm3EE6_S_ptrERA3_Kl(ptr noundef nonnull align 8 dereferenceable(24) %_M_elems) #3
  ret ptr %call
}

; Function Attrs: mustprogress nounwind uwtable
define linkonce_odr noundef ptr @_ZNSt14__array_traitsIlLm3EE6_S_ptrERA3_Kl(ptr noundef nonnull align 8 dereferenceable(24) %__t) #7 comdat align 2 {
entry:
  %__t.addr = alloca ptr, align 8
  store ptr %__t, ptr %__t.addr, align 8, !tbaa !88
  %0 = load ptr, ptr %__t.addr, align 8, !tbaa !88
  %arraydecay = getelementptr inbounds [3 x i64], ptr %0, i64 0, i64 0
  ret ptr %arraydecay
}

; Function Attrs: mustprogress uwtable
define linkonce_odr void @_ZN2xt14xsemantic_baseINS_17xtensor_containerINS_7uvectorIdSaIdEEELm3ELNS_11layout_typeE1ENS_22xtensor_expression_tagEEEEC2Ev(ptr noundef nonnull align 8 dereferenceable(16) %this) unnamed_addr #4 comdat align 2 {
entry:
  %this.addr = alloca ptr, align 8
  store ptr %this, ptr %this.addr, align 8, !tbaa !135
  %this1 = load ptr, ptr %this.addr, align 8
  call void @_ZN2xt20xsharable_expressionINS_17xtensor_containerINS_7uvectorIdSaIdEEELm3ELNS_11layout_typeE1ENS_22xtensor_expression_tagEEEEC2Ev(ptr noundef nonnull align 8 dereferenceable(16) %this1)
  ret void
}

; Function Attrs: inlinehint mustprogress nounwind uwtable
define linkonce_odr void @_ZN2xt20xsharable_expressionINS_17xtensor_containerINS_7uvectorIdSaIdEEELm3ELNS_11layout_typeE1ENS_22xtensor_expression_tagEEEEC2Ev(ptr noundef nonnull align 8 dereferenceable(16) %this) unnamed_addr #8 comdat align 2 {
entry:
  %this.addr = alloca ptr, align 8
  store ptr %this, ptr %this.addr, align 8, !tbaa !127
  %this1 = load ptr, ptr %this.addr, align 8
  %p_shared = getelementptr inbounds nuw %"class.xt::xsharable_expression.15", ptr %this1, i32 0, i32 0
  call void @_ZNSt10shared_ptrIN2xt17xtensor_containerINS0_7uvectorIdSaIdEEELm3ELNS0_11layout_typeE1ENS0_22xtensor_expression_tagEEEEC2EDn(ptr noundef nonnull align 8 dereferenceable(16) %p_shared, ptr null) #3
  ret void
}

; Function Attrs: mustprogress nounwind uwtable
define linkonce_odr void @_ZNSt10shared_ptrIN2xt17xtensor_containerINS0_7uvectorIdSaIdEEELm3ELNS0_11layout_typeE1ENS0_22xtensor_expression_tagEEEEC2EDn(ptr noundef nonnull align 8 dereferenceable(16) %this, ptr %0) unnamed_addr #7 comdat align 2 {
entry:
  %this.addr = alloca ptr, align 8
  %.addr = alloca ptr, align 8
  store ptr %this, ptr %this.addr, align 8, !tbaa !137
  store ptr %0, ptr %.addr, align 8, !tbaa !101
  %this1 = load ptr, ptr %this.addr, align 8
  call void @_ZNSt10shared_ptrIN2xt17xtensor_containerINS0_7uvectorIdSaIdEEELm3ELNS0_11layout_typeE1ENS0_22xtensor_expression_tagEEEEC2Ev(ptr noundef nonnull align 8 dereferenceable(16) %this1) #3
  ret void
}

; Function Attrs: mustprogress nounwind uwtable
define linkonce_odr void @_ZNSt10shared_ptrIN2xt17xtensor_containerINS0_7uvectorIdSaIdEEELm3ELNS0_11layout_typeE1ENS0_22xtensor_expression_tagEEEEC2Ev(ptr noundef nonnull align 8 dereferenceable(16) %this) unnamed_addr #7 comdat align 2 {
entry:
  %this.addr = alloca ptr, align 8
  store ptr %this, ptr %this.addr, align 8, !tbaa !137
  %this1 = load ptr, ptr %this.addr, align 8
  call void @_ZNSt12__shared_ptrIN2xt17xtensor_containerINS0_7uvectorIdSaIdEEELm3ELNS0_11layout_typeE1ENS0_22xtensor_expression_tagEEELN9__gnu_cxx12_Lock_policyE2EEC2Ev(ptr noundef nonnull align 8 dereferenceable(16) %this1) #3
  ret void
}

; Function Attrs: mustprogress nounwind uwtable
define linkonce_odr void @_ZNSt12__shared_ptrIN2xt17xtensor_containerINS0_7uvectorIdSaIdEEELm3ELNS0_11layout_typeE1ENS0_22xtensor_expression_tagEEELN9__gnu_cxx12_Lock_policyE2EEC2Ev(ptr noundef nonnull align 8 dereferenceable(16) %this) unnamed_addr #7 comdat align 2 {
entry:
  %this.addr = alloca ptr, align 8
  store ptr %this, ptr %this.addr, align 8, !tbaa !139
  %this1 = load ptr, ptr %this.addr, align 8
  %_M_ptr = getelementptr inbounds nuw %"class.std::__shared_ptr.18", ptr %this1, i32 0, i32 0
  store ptr null, ptr %_M_ptr, align 8, !tbaa !141
  %_M_refcount = getelementptr inbounds nuw %"class.std::__shared_ptr.18", ptr %this1, i32 0, i32 1
  call void @_ZNSt14__shared_countILN9__gnu_cxx12_Lock_policyE2EEC2Ev(ptr noundef nonnull align 8 dereferenceable(8) %_M_refcount) #3
  ret void
}

declare void @_ZN6openmc9read_attrElPKclPv(i64 noundef, ptr noundef, i64 noundef, ptr noundef) #1

declare i64 @open_dataset(i64 noundef, ptr noundef) #1

declare void @_ZN6openmc12object_shapeEl(ptr dead_on_unwind writable sret(%"class.std::vector") align 8, i64 noundef) #1

declare void @close_dataset(i64 noundef) #1

; Function Attrs: mustprogress nounwind uwtable
define linkonce_odr noundef i64 @_ZNKSt6vectorImSaImEE4sizeEv(ptr noundef nonnull align 8 dereferenceable(24) %this) #7 comdat align 2 {
entry:
  %this.addr = alloca ptr, align 8
  store ptr %this, ptr %this.addr, align 8, !tbaa !142
  %this1 = load ptr, ptr %this.addr, align 8
  %_M_impl = getelementptr inbounds nuw %"struct.std::_Vector_base", ptr %this1, i32 0, i32 0
  %_M_finish = getelementptr inbounds nuw %"struct.std::_Vector_base<unsigned long, std::allocator<unsigned long>>::_Vector_impl_data", ptr %_M_impl, i32 0, i32 1
  %0 = load ptr, ptr %_M_finish, align 8, !tbaa !144
  %_M_impl2 = getelementptr inbounds nuw %"struct.std::_Vector_base", ptr %this1, i32 0, i32 0
  %_M_start = getelementptr inbounds nuw %"struct.std::_Vector_base<unsigned long, std::allocator<unsigned long>>::_Vector_impl_data", ptr %_M_impl2, i32 0, i32 0
  %1 = load ptr, ptr %_M_start, align 8, !tbaa !146
  %sub.ptr.lhs.cast = ptrtoint ptr %0 to i64
  %sub.ptr.rhs.cast = ptrtoint ptr %1 to i64
  %sub.ptr.sub = sub i64 %sub.ptr.lhs.cast, %sub.ptr.rhs.cast
  %sub.ptr.div = sdiv exact i64 %sub.ptr.sub, 8
  ret i64 %sub.ptr.div
}

; Function Attrs: mustprogress nounwind uwtable
define linkonce_odr void @_ZNSaImEC2Ev(ptr noundef nonnull align 1 dereferenceable(1) %this) unnamed_addr #7 comdat align 2 {
entry:
  %this.addr = alloca ptr, align 8
  store ptr %this, ptr %this.addr, align 8, !tbaa !147
  %this1 = load ptr, ptr %this.addr, align 8
  call void @_ZNSt15__new_allocatorImEC2Ev(ptr noundef nonnull align 1 dereferenceable(1) %this1) #3
  ret void
}

; Function Attrs: mustprogress uwtable
define linkonce_odr void @_ZNSt6vectorImSaImEEC2EmRKS0_(ptr noundef nonnull align 8 dereferenceable(24) %this, i64 noundef %__n, ptr noundef nonnull align 1 dereferenceable(1) %__a) unnamed_addr #4 comdat align 2 personality ptr @__gxx_personality_v0 {
entry:
  %this.addr = alloca ptr, align 8
  %__n.addr = alloca i64, align 8
  %__a.addr = alloca ptr, align 8
  %exn.slot = alloca ptr, align 8
  %ehselector.slot = alloca i32, align 4
  store ptr %this, ptr %this.addr, align 8, !tbaa !142
  store i64 %__n, ptr %__n.addr, align 8, !tbaa !16
  store ptr %__a, ptr %__a.addr, align 8, !tbaa !147
  %this1 = load ptr, ptr %this.addr, align 8
  %0 = load i64, ptr %__n.addr, align 8, !tbaa !16
  %1 = load ptr, ptr %__a.addr, align 8, !tbaa !147
  %call = call noundef i64 @_ZNSt6vectorImSaImEE17_S_check_init_lenEmRKS0_(i64 noundef %0, ptr noundef nonnull align 1 dereferenceable(1) %1)
  %2 = load ptr, ptr %__a.addr, align 8, !tbaa !147
  call void @_ZNSt12_Vector_baseImSaImEEC2EmRKS0_(ptr noundef nonnull align 8 dereferenceable(24) %this1, i64 noundef %call, ptr noundef nonnull align 1 dereferenceable(1) %2)
  %3 = load i64, ptr %__n.addr, align 8, !tbaa !16
  invoke void @_ZNSt6vectorImSaImEE21_M_default_initializeEm(ptr noundef nonnull align 8 dereferenceable(24) %this1, i64 noundef %3)
          to label %invoke.cont unwind label %lpad

invoke.cont:                                      ; preds = %entry
  ret void

lpad:                                             ; preds = %entry
  %4 = landingpad { ptr, i32 }
          cleanup
  %5 = extractvalue { ptr, i32 } %4, 0
  store ptr %5, ptr %exn.slot, align 8
  %6 = extractvalue { ptr, i32 } %4, 1
  store i32 %6, ptr %ehselector.slot, align 4
  call void @_ZNSt12_Vector_baseImSaImEED2Ev(ptr noundef nonnull align 8 dereferenceable(24) %this1) #3
  br label %eh.resume

eh.resume:                                        ; preds = %lpad
  %exn = load ptr, ptr %exn.slot, align 8
  %sel = load i32, ptr %ehselector.slot, align 4
  %lpad.val = insertvalue { ptr, i32 } poison, ptr %exn, 0
  %lpad.val2 = insertvalue { ptr, i32 } %lpad.val, i32 %sel, 1
  resume { ptr, i32 } %lpad.val2
}

; Function Attrs: mustprogress nounwind uwtable
define linkonce_odr void @_ZNSt15__new_allocatorImED2Ev(ptr noundef nonnull align 1 dereferenceable(1) %this) unnamed_addr #7 comdat align 2 {
entry:
  %this.addr = alloca ptr, align 8
  store ptr %this, ptr %this.addr, align 8, !tbaa !149
  %this1 = load ptr, ptr %this.addr, align 8
  ret void
}

; Function Attrs: mustprogress nounwind uwtable
define linkonce_odr noundef nonnull align 8 dereferenceable(8) ptr @_ZNSt6vectorImSaImEEixEm(ptr noundef nonnull align 8 dereferenceable(24) %this, i64 noundef %__n) #7 comdat align 2 {
entry:
  %this.addr = alloca ptr, align 8
  %__n.addr = alloca i64, align 8
  store ptr %this, ptr %this.addr, align 8, !tbaa !142
  store i64 %__n, ptr %__n.addr, align 8, !tbaa !16
  %this1 = load ptr, ptr %this.addr, align 8
  %_M_impl = getelementptr inbounds nuw %"struct.std::_Vector_base", ptr %this1, i32 0, i32 0
  %_M_start = getelementptr inbounds nuw %"struct.std::_Vector_base<unsigned long, std::allocator<unsigned long>>::_Vector_impl_data", ptr %_M_impl, i32 0, i32 0
  %0 = load ptr, ptr %_M_start, align 8, !tbaa !146
  %1 = load i64, ptr %__n.addr, align 8, !tbaa !16
  %add.ptr = getelementptr inbounds nuw i64, ptr %0, i64 %1
  ret ptr %add.ptr
}

; Function Attrs: inlinehint mustprogress uwtable
define linkonce_odr void @_ZN2xt7svectorImLm4ESaImELb1EEC2ERKSt6vectorImS1_E(ptr noundef nonnull align 8 dereferenceable(64) %this, ptr noundef nonnull align 8 dereferenceable(24) %vec) unnamed_addr #5 comdat align 2 personality ptr @__gxx_personality_v0 {
entry:
  %this.addr = alloca ptr, align 8
  %vec.addr = alloca ptr, align 8
  %agg.tmp = alloca %"class.__gnu_cxx::__normal_iterator", align 8
  %agg.tmp7 = alloca %"class.__gnu_cxx::__normal_iterator", align 8
  %exn.slot = alloca ptr, align 8
  %ehselector.slot = alloca i32, align 4
  store ptr %this, ptr %this.addr, align 8, !tbaa !151
  store ptr %vec, ptr %vec.addr, align 8, !tbaa !142
  %this1 = load ptr, ptr %this.addr, align 8
  call void @_ZNSaImEC2Ev(ptr noundef nonnull align 1 dereferenceable(1) %this1) #3
  %m_begin = getelementptr inbounds nuw %"class.xt::svector", ptr %this1, i32 0, i32 1
  %m_data = getelementptr inbounds nuw %"class.xt::svector", ptr %this1, i32 0, i32 4
  %call = call noundef ptr @_ZSt5beginImLm4EEPT_RAT0__S0_(ptr noundef nonnull align 8 dereferenceable(32) %m_data) #3
  store ptr %call, ptr %m_begin, align 8, !tbaa !153
  %m_end = getelementptr inbounds nuw %"class.xt::svector", ptr %this1, i32 0, i32 2
  %m_data2 = getelementptr inbounds nuw %"class.xt::svector", ptr %this1, i32 0, i32 4
  %call3 = call noundef ptr @_ZSt5beginImLm4EEPT_RAT0__S0_(ptr noundef nonnull align 8 dereferenceable(32) %m_data2) #3
  store ptr %call3, ptr %m_end, align 8, !tbaa !156
  %m_capacity = getelementptr inbounds nuw %"class.xt::svector", ptr %this1, i32 0, i32 3
  %m_data4 = getelementptr inbounds nuw %"class.xt::svector", ptr %this1, i32 0, i32 4
  %call5 = call noundef ptr @_ZSt3endImLm4EEPT_RAT0__S0_(ptr noundef nonnull align 8 dereferenceable(32) %m_data4) #3
  store ptr %call5, ptr %m_capacity, align 8, !tbaa !157
  %0 = load ptr, ptr %vec.addr, align 8, !tbaa !142
  %call6 = call ptr @_ZNKSt6vectorImSaImEE5beginEv(ptr noundef nonnull align 8 dereferenceable(24) %0) #3
  %coerce.dive = getelementptr inbounds nuw %"class.__gnu_cxx::__normal_iterator", ptr %agg.tmp, i32 0, i32 0
  store ptr %call6, ptr %coerce.dive, align 8
  %1 = load ptr, ptr %vec.addr, align 8, !tbaa !142
  %call8 = call ptr @_ZNKSt6vectorImSaImEE3endEv(ptr noundef nonnull align 8 dereferenceable(24) %1) #3
  %coerce.dive9 = getelementptr inbounds nuw %"class.__gnu_cxx::__normal_iterator", ptr %agg.tmp7, i32 0, i32 0
  store ptr %call8, ptr %coerce.dive9, align 8
  %coerce.dive10 = getelementptr inbounds nuw %"class.__gnu_cxx::__normal_iterator", ptr %agg.tmp, i32 0, i32 0
  %2 = load ptr, ptr %coerce.dive10, align 8
  %coerce.dive11 = getelementptr inbounds nuw %"class.__gnu_cxx::__normal_iterator", ptr %agg.tmp7, i32 0, i32 0
  %3 = load ptr, ptr %coerce.dive11, align 8
  invoke void @_ZN2xt7svectorImLm4ESaImELb1EE6assignIN9__gnu_cxx17__normal_iteratorIPKmSt6vectorImS1_EEEEEvT_SB_(ptr noundef nonnull align 8 dereferenceable(64) %this1, ptr %2, ptr %3)
          to label %invoke.cont unwind label %lpad

invoke.cont:                                      ; preds = %entry
  ret void

lpad:                                             ; preds = %entry
  %4 = landingpad { ptr, i32 }
          cleanup
  %5 = extractvalue { ptr, i32 } %4, 0
  store ptr %5, ptr %exn.slot, align 8
  %6 = extractvalue { ptr, i32 } %4, 1
  store i32 %6, ptr %ehselector.slot, align 4
  call void @_ZNSt15__new_allocatorImED2Ev(ptr noundef nonnull align 1 dereferenceable(1) %this1) #3
  br label %eh.resume

eh.resume:                                        ; preds = %lpad
  %exn = load ptr, ptr %exn.slot, align 8
  %sel = load i32, ptr %ehselector.slot, align 4
  %lpad.val = insertvalue { ptr, i32 } poison, ptr %exn, 0
  %lpad.val12 = insertvalue { ptr, i32 } %lpad.val, i32 %sel, 1
  resume { ptr, i32 } %lpad.val12
}

; Function Attrs: inlinehint mustprogress uwtable
define linkonce_odr void @_ZN2xt16xarray_containerINS_7uvectorIdSaIdEEELNS_11layout_typeE1ENS_7svectorImLm4ESaImELb1EEENS_22xtensor_expression_tagEEC2ERKS7_S4_(ptr noundef nonnull align 8 dereferenceable(240) %this, ptr noundef nonnull align 8 dereferenceable(64) %shape, i32 noundef %l) unnamed_addr #5 comdat align 2 personality ptr @__gxx_personality_v0 {
entry:
  %this.addr = alloca ptr, align 8
  %shape.addr = alloca ptr, align 8
  %l.addr = alloca i32, align 4
  %exn.slot = alloca ptr, align 8
  %ehselector.slot = alloca i32, align 4
  store ptr %this, ptr %this.addr, align 8, !tbaa !158
  store ptr %shape, ptr %shape.addr, align 8, !tbaa !151
  store i32 %l, ptr %l.addr, align 4, !tbaa !160
  %this1 = load ptr, ptr %this.addr, align 8
  call void @_ZN2xt18xstrided_containerINS_16xarray_containerINS_7uvectorIdSaIdEEELNS_11layout_typeE1ENS_7svectorImLm4ESaImELb1EEENS_22xtensor_expression_tagEEEEC2Ev(ptr noundef nonnull align 8 dereferenceable(196) %this1) #3
  %0 = getelementptr inbounds i8, ptr %this1, i64 200
  invoke void @_ZN2xt19xcontainer_semanticINS_16xarray_containerINS_7uvectorIdSaIdEEELNS_11layout_typeE1ENS_7svectorImLm4ESaImELb1EEENS_22xtensor_expression_tagEEEEC2Ev(ptr noundef nonnull align 8 dereferenceable(16) %0)
          to label %invoke.cont unwind label %lpad

invoke.cont:                                      ; preds = %entry
  %m_storage = getelementptr inbounds nuw %"class.xt::xarray_container", ptr %this1, i32 0, i32 2
  call void @_ZN2xt7uvectorIdSaIdEEC2Ev(ptr noundef nonnull align 8 dereferenceable(24) %m_storage) #3
  %1 = load ptr, ptr %shape.addr, align 8, !tbaa !151
  %2 = load i32, ptr %l.addr, align 4, !tbaa !160
  invoke void @_ZN2xt18xstrided_containerINS_16xarray_containerINS_7uvectorIdSaIdEEELNS_11layout_typeE1ENS_7svectorImLm4ESaImELb1EEENS_22xtensor_expression_tagEEEE6resizeIRKS8_EEvOT_S5_(ptr noundef nonnull align 8 dereferenceable(196) %this1, ptr noundef nonnull align 8 dereferenceable(64) %1, i32 noundef %2)
          to label %invoke.cont3 unwind label %lpad2

invoke.cont3:                                     ; preds = %invoke.cont
  ret void

lpad:                                             ; preds = %entry
  %3 = landingpad { ptr, i32 }
          cleanup
  %4 = extractvalue { ptr, i32 } %3, 0
  store ptr %4, ptr %exn.slot, align 8
  %5 = extractvalue { ptr, i32 } %3, 1
  store i32 %5, ptr %ehselector.slot, align 4
  br label %ehcleanup

lpad2:                                            ; preds = %invoke.cont
  %6 = landingpad { ptr, i32 }
          cleanup
  %7 = extractvalue { ptr, i32 } %6, 0
  store ptr %7, ptr %exn.slot, align 8
  %8 = extractvalue { ptr, i32 } %6, 1
  store i32 %8, ptr %ehselector.slot, align 4
  call void @_ZN2xt7uvectorIdSaIdEED2Ev(ptr noundef nonnull align 8 dereferenceable(24) %m_storage) #3
  %9 = getelementptr inbounds i8, ptr %this1, i64 200
  call void @_ZN2xt20xsharable_expressionINS_16xarray_containerINS_7uvectorIdSaIdEEELNS_11layout_typeE1ENS_7svectorImLm4ESaImELb1EEENS_22xtensor_expression_tagEEEED2Ev(ptr noundef nonnull align 8 dereferenceable(16) %9) #3
  br label %ehcleanup

ehcleanup:                                        ; preds = %lpad2, %lpad
  call void @_ZN2xt18xstrided_containerINS_16xarray_containerINS_7uvectorIdSaIdEEELNS_11layout_typeE1ENS_7svectorImLm4ESaImELb1EEENS_22xtensor_expression_tagEEEED2Ev(ptr noundef nonnull align 8 dereferenceable(196) %this1) #3
  br label %eh.resume

eh.resume:                                        ; preds = %ehcleanup
  %exn = load ptr, ptr %exn.slot, align 8
  %sel = load i32, ptr %ehselector.slot, align 4
  %lpad.val = insertvalue { ptr, i32 } poison, ptr %exn, 0
  %lpad.val4 = insertvalue { ptr, i32 } %lpad.val, i32 %sel, 1
  resume { ptr, i32 } %lpad.val4
}

; Function Attrs: inlinehint mustprogress nounwind uwtable
define linkonce_odr void @_ZN2xt7svectorImLm4ESaImELb1EED2Ev(ptr noundef nonnull align 8 dereferenceable(64) %this) unnamed_addr #8 comdat align 2 personality ptr @__gxx_personality_v0 {
entry:
  %this.addr = alloca ptr, align 8
  store ptr %this, ptr %this.addr, align 8, !tbaa !151
  %this1 = load ptr, ptr %this.addr, align 8
  %call = invoke noundef zeroext i1 @_ZN2xt7svectorImLm4ESaImELb1EE8on_stackEv(ptr noundef nonnull align 8 dereferenceable(64) %this1)
          to label %invoke.cont unwind label %terminate.lpad

invoke.cont:                                      ; preds = %entry
  br i1 %call, label %if.end, label %if.then

if.then:                                          ; preds = %invoke.cont
  %m_begin = getelementptr inbounds nuw %"class.xt::svector", ptr %this1, i32 0, i32 1
  %0 = load ptr, ptr %m_begin, align 8, !tbaa !153
  %m_capacity = getelementptr inbounds nuw %"class.xt::svector", ptr %this1, i32 0, i32 3
  %1 = load ptr, ptr %m_capacity, align 8, !tbaa !157
  %m_begin2 = getelementptr inbounds nuw %"class.xt::svector", ptr %this1, i32 0, i32 1
  %2 = load ptr, ptr %m_begin2, align 8, !tbaa !153
  %sub.ptr.lhs.cast = ptrtoint ptr %1 to i64
  %sub.ptr.rhs.cast = ptrtoint ptr %2 to i64
  %sub.ptr.sub = sub i64 %sub.ptr.lhs.cast, %sub.ptr.rhs.cast
  %sub.ptr.div = sdiv exact i64 %sub.ptr.sub, 8
  invoke void @_ZN2xt6detail23safe_destroy_deallocateISaImEEEvRT_NSt16allocator_traitsIS3_E7pointerENS6_9size_typeE(ptr noundef nonnull align 1 dereferenceable(1) %this1, ptr noundef %0, i64 noundef %sub.ptr.div)
          to label %invoke.cont3 unwind label %terminate.lpad

invoke.cont3:                                     ; preds = %if.then
  br label %if.end

if.end:                                           ; preds = %invoke.cont3, %invoke.cont
  call void @_ZNSt15__new_allocatorImED2Ev(ptr noundef nonnull align 1 dereferenceable(1) %this1) #3
  ret void

terminate.lpad:                                   ; preds = %if.then, %entry
  %3 = landingpad { ptr, i32 }
          catch ptr null
  %4 = extractvalue { ptr, i32 } %3, 0
  call void @__clang_call_terminate(ptr %4) #19
  unreachable
}

; Function Attrs: mustprogress uwtable
define linkonce_odr void @_ZN6openmc12read_datasetIdEEvlPKcRN2xt16xarray_containerINS3_7uvectorIT_SaIS6_EEELNS3_11layout_typeE1ENS3_7svectorINS8_9size_typeELm4ESaINSt6vectorIS6_S7_E9size_typeEELb1EEENS3_22xtensor_expression_tagEEEb(i64 noundef %obj_id, ptr noundef %name, ptr noundef nonnull align 8 dereferenceable(240) %arr, i1 noundef zeroext %indep) #4 comdat {
entry:
  %obj_id.addr = alloca i64, align 8
  %name.addr = alloca ptr, align 8
  %arr.addr = alloca ptr, align 8
  %indep.addr = alloca i8, align 1
  %dset = alloca i64, align 8
  store i64 %obj_id, ptr %obj_id.addr, align 8, !tbaa !16
  store ptr %name, ptr %name.addr, align 8, !tbaa !58
  store ptr %arr, ptr %arr.addr, align 8, !tbaa !158
  %storedv = zext i1 %indep to i8
  store i8 %storedv, ptr %indep.addr, align 1, !tbaa !62
  call void @llvm.lifetime.start.p0(i64 8, ptr %dset) #3
  %0 = load i64, ptr %obj_id.addr, align 8, !tbaa !16
  %1 = load ptr, ptr %name.addr, align 8, !tbaa !58
  %call = call i64 @open_dataset(i64 noundef %0, ptr noundef %1)
  store i64 %call, ptr %dset, align 8, !tbaa !16
  %2 = load i64, ptr %dset, align 8, !tbaa !16
  %3 = load ptr, ptr %arr.addr, align 8, !tbaa !158
  %4 = load i8, ptr %indep.addr, align 1, !tbaa !62, !range !161, !noundef !162
  %loadedv = trunc i8 %4 to i1
  call void @_ZN6openmc12read_datasetIdEEvlRN2xt16xarray_containerINS1_7uvectorIT_SaIS4_EEELNS1_11layout_typeE1ENS1_7svectorINS6_9size_typeELm4ESaINSt6vectorIS4_S5_E9size_typeEELb1EEENS1_22xtensor_expression_tagEEEb(i64 noundef %2, ptr noundef nonnull align 8 dereferenceable(240) %3, i1 noundef zeroext %loadedv)
  %5 = load i64, ptr %dset, align 8, !tbaa !16
  call void @close_dataset(i64 noundef %5)
  call void @llvm.lifetime.end.p0(i64 8, ptr %dset) #3
  ret void
}

; Function Attrs: inlinehint mustprogress uwtable
define linkonce_odr noundef nonnull align 8 dereferenceable(72) ptr @_ZN2xt17xtensor_containerINS_7uvectorIdSaIdEEELm1ELNS_11layout_typeE1ENS_22xtensor_expression_tagEEaSINS_16xarray_containerIS3_LS4_1ENS_7svectorImLm4ESaImELb1EEES5_EEEERS6_RKNS_11xexpressionIT_EE(ptr noundef nonnull align 8 dereferenceable(72) %this, ptr noundef nonnull align 1 dereferenceable(1) %e) #5 comdat align 2 {
entry:
  %this.addr = alloca ptr, align 8
  %e.addr = alloca ptr, align 8
  store ptr %this, ptr %this.addr, align 8, !tbaa !54
  store ptr %e, ptr %e.addr, align 8, !tbaa !163
  %this1 = load ptr, ptr %this.addr, align 8
  %add.ptr = getelementptr inbounds i8, ptr %this1, i64 32
  %0 = load ptr, ptr %e.addr, align 8, !tbaa !163
  %call = call noundef nonnull align 8 dereferenceable(72) ptr @_ZN2xt19xcontainer_semanticINS_17xtensor_containerINS_7uvectorIdSaIdEEELm1ELNS_11layout_typeE1ENS_22xtensor_expression_tagEEEEaSINS_16xarray_containerIS4_LS5_1ENS_7svectorImLm4ESaImELb1EEES6_EEEERS7_RKNS_11xexpressionIT_EE(ptr noundef nonnull align 8 dereferenceable(16) %add.ptr, ptr noundef nonnull align 1 dereferenceable(1) %0)
  ret ptr %call
}

; Function Attrs: mustprogress nounwind uwtable
define linkonce_odr void @_ZN2xt16xarray_containerINS_7uvectorIdSaIdEEELNS_11layout_typeE1ENS_7svectorImLm4ESaImELb1EEENS_22xtensor_expression_tagEED2Ev(ptr noundef nonnull align 8 dereferenceable(240) %this) unnamed_addr #7 comdat align 2 {
entry:
  %this.addr = alloca ptr, align 8
  store ptr %this, ptr %this.addr, align 8, !tbaa !158
  %this1 = load ptr, ptr %this.addr, align 8
  %m_storage = getelementptr inbounds nuw %"class.xt::xarray_container", ptr %this1, i32 0, i32 2
  call void @_ZN2xt7uvectorIdSaIdEED2Ev(ptr noundef nonnull align 8 dereferenceable(24) %m_storage) #3
  %0 = getelementptr inbounds i8, ptr %this1, i64 200
  call void @_ZN2xt20xsharable_expressionINS_16xarray_containerINS_7uvectorIdSaIdEEELNS_11layout_typeE1ENS_7svectorImLm4ESaImELb1EEENS_22xtensor_expression_tagEEEED2Ev(ptr noundef nonnull align 8 dereferenceable(16) %0) #3
  call void @_ZN2xt18xstrided_containerINS_16xarray_containerINS_7uvectorIdSaIdEEELNS_11layout_typeE1ENS_7svectorImLm4ESaImELb1EEENS_22xtensor_expression_tagEEEED2Ev(ptr noundef nonnull align 8 dereferenceable(196) %this1) #3
  ret void
}

; Function Attrs: mustprogress nounwind uwtable
define linkonce_odr void @_ZNSt6vectorImSaImEED2Ev(ptr noundef nonnull align 8 dereferenceable(24) %this) unnamed_addr #7 comdat align 2 personality ptr @__gxx_personality_v0 {
entry:
  %this.addr = alloca ptr, align 8
  store ptr %this, ptr %this.addr, align 8, !tbaa !142
  %this1 = load ptr, ptr %this.addr, align 8
  %_M_impl = getelementptr inbounds nuw %"struct.std::_Vector_base", ptr %this1, i32 0, i32 0
  %_M_start = getelementptr inbounds nuw %"struct.std::_Vector_base<unsigned long, std::allocator<unsigned long>>::_Vector_impl_data", ptr %_M_impl, i32 0, i32 0
  %0 = load ptr, ptr %_M_start, align 8, !tbaa !146
  %_M_impl2 = getelementptr inbounds nuw %"struct.std::_Vector_base", ptr %this1, i32 0, i32 0
  %_M_finish = getelementptr inbounds nuw %"struct.std::_Vector_base<unsigned long, std::allocator<unsigned long>>::_Vector_impl_data", ptr %_M_impl2, i32 0, i32 1
  %1 = load ptr, ptr %_M_finish, align 8, !tbaa !144
  %call = call noundef nonnull align 1 dereferenceable(1) ptr @_ZNSt12_Vector_baseImSaImEE19_M_get_Tp_allocatorEv(ptr noundef nonnull align 8 dereferenceable(24) %this1) #3
  invoke void @_ZSt8_DestroyIPmmEvT_S1_RSaIT0_E(ptr noundef %0, ptr noundef %1, ptr noundef nonnull align 1 dereferenceable(1) %call)
          to label %invoke.cont unwind label %terminate.lpad

invoke.cont:                                      ; preds = %entry
  call void @_ZNSt12_Vector_baseImSaImEED2Ev(ptr noundef nonnull align 8 dereferenceable(24) %this1) #3
  ret void

terminate.lpad:                                   ; preds = %entry
  %2 = landingpad { ptr, i32 }
          catch ptr null
  %3 = extractvalue { ptr, i32 } %2, 0
  call void @__clang_call_terminate(ptr %3) #19
  unreachable
}

; Function Attrs: mustprogress nounwind uwtable
define linkonce_odr void @_ZNSt15__new_allocatorImEC2Ev(ptr noundef nonnull align 1 dereferenceable(1) %this) unnamed_addr #7 comdat align 2 {
entry:
  %this.addr = alloca ptr, align 8
  store ptr %this, ptr %this.addr, align 8, !tbaa !149
  %this1 = load ptr, ptr %this.addr, align 8
  ret void
}

; Function Attrs: mustprogress uwtable
define linkonce_odr noundef i64 @_ZNSt6vectorImSaImEE17_S_check_init_lenEmRKS0_(i64 noundef %__n, ptr noundef nonnull align 1 dereferenceable(1) %__a) #4 comdat align 2 {
entry:
  %__n.addr = alloca i64, align 8
  %__a.addr = alloca ptr, align 8
  %ref.tmp = alloca %"class.std::allocator.20", align 1
  store i64 %__n, ptr %__n.addr, align 8, !tbaa !16
  store ptr %__a, ptr %__a.addr, align 8, !tbaa !147
  %0 = load i64, ptr %__n.addr, align 8, !tbaa !16
  call void @llvm.lifetime.start.p0(i64 1, ptr %ref.tmp) #3
  %1 = load ptr, ptr %__a.addr, align 8, !tbaa !147
  call void @_ZNSaImEC2ERKS_(ptr noundef nonnull align 1 dereferenceable(1) %ref.tmp, ptr noundef nonnull align 1 dereferenceable(1) %1) #3
  %call = call noundef i64 @_ZNSt6vectorImSaImEE11_S_max_sizeERKS0_(ptr noundef nonnull align 1 dereferenceable(1) %ref.tmp) #3
  %cmp = icmp ugt i64 %0, %call
  call void @_ZNSt15__new_allocatorImED2Ev(ptr noundef nonnull align 1 dereferenceable(1) %ref.tmp) #3
  call void @llvm.lifetime.end.p0(i64 1, ptr %ref.tmp) #3
  br i1 %cmp, label %if.then, label %if.end

if.then:                                          ; preds = %entry
  call void @_ZSt20__throw_length_errorPKc(ptr noundef @.str.6) #21
  unreachable

if.end:                                           ; preds = %entry
  %2 = load i64, ptr %__n.addr, align 8, !tbaa !16
  ret i64 %2
}

; Function Attrs: mustprogress uwtable
define linkonce_odr void @_ZNSt12_Vector_baseImSaImEEC2EmRKS0_(ptr noundef nonnull align 8 dereferenceable(24) %this, i64 noundef %__n, ptr noundef nonnull align 1 dereferenceable(1) %__a) unnamed_addr #4 comdat align 2 personality ptr @__gxx_personality_v0 {
entry:
  %this.addr = alloca ptr, align 8
  %__n.addr = alloca i64, align 8
  %__a.addr = alloca ptr, align 8
  %exn.slot = alloca ptr, align 8
  %ehselector.slot = alloca i32, align 4
  store ptr %this, ptr %this.addr, align 8, !tbaa !165
  store i64 %__n, ptr %__n.addr, align 8, !tbaa !16
  store ptr %__a, ptr %__a.addr, align 8, !tbaa !147
  %this1 = load ptr, ptr %this.addr, align 8
  %_M_impl = getelementptr inbounds nuw %"struct.std::_Vector_base", ptr %this1, i32 0, i32 0
  %0 = load ptr, ptr %__a.addr, align 8, !tbaa !147
  call void @_ZNSt12_Vector_baseImSaImEE12_Vector_implC2ERKS0_(ptr noundef nonnull align 8 dereferenceable(24) %_M_impl, ptr noundef nonnull align 1 dereferenceable(1) %0) #3
  %1 = load i64, ptr %__n.addr, align 8, !tbaa !16
  invoke void @_ZNSt12_Vector_baseImSaImEE17_M_create_storageEm(ptr noundef nonnull align 8 dereferenceable(24) %this1, i64 noundef %1)
          to label %invoke.cont unwind label %lpad

invoke.cont:                                      ; preds = %entry
  ret void

lpad:                                             ; preds = %entry
  %2 = landingpad { ptr, i32 }
          cleanup
  %3 = extractvalue { ptr, i32 } %2, 0
  store ptr %3, ptr %exn.slot, align 8
  %4 = extractvalue { ptr, i32 } %2, 1
  store i32 %4, ptr %ehselector.slot, align 4
  call void @_ZNSt15__new_allocatorImED2Ev(ptr noundef nonnull align 8 dereferenceable(24) %_M_impl) #3
  br label %eh.resume

eh.resume:                                        ; preds = %lpad
  %exn = load ptr, ptr %exn.slot, align 8
  %sel = load i32, ptr %ehselector.slot, align 4
  %lpad.val = insertvalue { ptr, i32 } poison, ptr %exn, 0
  %lpad.val2 = insertvalue { ptr, i32 } %lpad.val, i32 %sel, 1
  resume { ptr, i32 } %lpad.val2
}

; Function Attrs: mustprogress uwtable
define linkonce_odr void @_ZNSt6vectorImSaImEE21_M_default_initializeEm(ptr noundef nonnull align 8 dereferenceable(24) %this, i64 noundef %__n) #4 comdat align 2 {
entry:
  %this.addr = alloca ptr, align 8
  %__n.addr = alloca i64, align 8
  store ptr %this, ptr %this.addr, align 8, !tbaa !142
  store i64 %__n, ptr %__n.addr, align 8, !tbaa !16
  %this1 = load ptr, ptr %this.addr, align 8
  %_M_impl = getelementptr inbounds nuw %"struct.std::_Vector_base", ptr %this1, i32 0, i32 0
  %_M_start = getelementptr inbounds nuw %"struct.std::_Vector_base<unsigned long, std::allocator<unsigned long>>::_Vector_impl_data", ptr %_M_impl, i32 0, i32 0
  %0 = load ptr, ptr %_M_start, align 8, !tbaa !146
  %1 = load i64, ptr %__n.addr, align 8, !tbaa !16
  %call = call noundef nonnull align 1 dereferenceable(1) ptr @_ZNSt12_Vector_baseImSaImEE19_M_get_Tp_allocatorEv(ptr noundef nonnull align 8 dereferenceable(24) %this1) #3
  %call2 = call noundef ptr @_ZSt27__uninitialized_default_n_aIPmmmET_S1_T0_RSaIT1_E(ptr noundef %0, i64 noundef %1, ptr noundef nonnull align 1 dereferenceable(1) %call)
  %_M_impl3 = getelementptr inbounds nuw %"struct.std::_Vector_base", ptr %this1, i32 0, i32 0
  %_M_finish = getelementptr inbounds nuw %"struct.std::_Vector_base<unsigned long, std::allocator<unsigned long>>::_Vector_impl_data", ptr %_M_impl3, i32 0, i32 1
  store ptr %call2, ptr %_M_finish, align 8, !tbaa !144
  ret void
}

; Function Attrs: mustprogress nounwind uwtable
define linkonce_odr void @_ZNSt12_Vector_baseImSaImEED2Ev(ptr noundef nonnull align 8 dereferenceable(24) %this) unnamed_addr #7 comdat align 2 personality ptr @__gxx_personality_v0 {
entry:
  %this.addr = alloca ptr, align 8
  store ptr %this, ptr %this.addr, align 8, !tbaa !165
  %this1 = load ptr, ptr %this.addr, align 8
  %_M_impl = getelementptr inbounds nuw %"struct.std::_Vector_base", ptr %this1, i32 0, i32 0
  %_M_start = getelementptr inbounds nuw %"struct.std::_Vector_base<unsigned long, std::allocator<unsigned long>>::_Vector_impl_data", ptr %_M_impl, i32 0, i32 0
  %0 = load ptr, ptr %_M_start, align 8, !tbaa !146
  %_M_impl2 = getelementptr inbounds nuw %"struct.std::_Vector_base", ptr %this1, i32 0, i32 0
  %_M_end_of_storage = getelementptr inbounds nuw %"struct.std::_Vector_base<unsigned long, std::allocator<unsigned long>>::_Vector_impl_data", ptr %_M_impl2, i32 0, i32 2
  %1 = load ptr, ptr %_M_end_of_storage, align 8, !tbaa !167
  %_M_impl3 = getelementptr inbounds nuw %"struct.std::_Vector_base", ptr %this1, i32 0, i32 0
  %_M_start4 = getelementptr inbounds nuw %"struct.std::_Vector_base<unsigned long, std::allocator<unsigned long>>::_Vector_impl_data", ptr %_M_impl3, i32 0, i32 0
  %2 = load ptr, ptr %_M_start4, align 8, !tbaa !146
  %sub.ptr.lhs.cast = ptrtoint ptr %1 to i64
  %sub.ptr.rhs.cast = ptrtoint ptr %2 to i64
  %sub.ptr.sub = sub i64 %sub.ptr.lhs.cast, %sub.ptr.rhs.cast
  %sub.ptr.div = sdiv exact i64 %sub.ptr.sub, 8
  invoke void @_ZNSt12_Vector_baseImSaImEE13_M_deallocateEPmm(ptr noundef nonnull align 8 dereferenceable(24) %this1, ptr noundef %0, i64 noundef %sub.ptr.div)
          to label %invoke.cont unwind label %terminate.lpad

invoke.cont:                                      ; preds = %entry
  %_M_impl5 = getelementptr inbounds nuw %"struct.std::_Vector_base", ptr %this1, i32 0, i32 0
  call void @_ZNSt15__new_allocatorImED2Ev(ptr noundef nonnull align 8 dereferenceable(24) %_M_impl5) #3
  ret void

terminate.lpad:                                   ; preds = %entry
  %3 = landingpad { ptr, i32 }
          catch ptr null
  %4 = extractvalue { ptr, i32 } %3, 0
  call void @__clang_call_terminate(ptr %4) #19
  unreachable
}

; Function Attrs: mustprogress nounwind uwtable
define linkonce_odr noundef i64 @_ZNSt6vectorImSaImEE11_S_max_sizeERKS0_(ptr noundef nonnull align 1 dereferenceable(1) %__a) #7 comdat align 2 personality ptr @__gxx_personality_v0 {
entry:
  %__a.addr = alloca ptr, align 8
  %__diffmax = alloca i64, align 8
  %__allocmax = alloca i64, align 8
  store ptr %__a, ptr %__a.addr, align 8, !tbaa !147
  call void @llvm.lifetime.start.p0(i64 8, ptr %__diffmax) #3
  store i64 1152921504606846975, ptr %__diffmax, align 8, !tbaa !16
  call void @llvm.lifetime.start.p0(i64 8, ptr %__allocmax) #3
  %0 = load ptr, ptr %__a.addr, align 8, !tbaa !147
  %call = call noundef i64 @_ZNSt16allocator_traitsISaImEE8max_sizeERKS0_(ptr noundef nonnull align 1 dereferenceable(1) %0) #3
  store i64 %call, ptr %__allocmax, align 8, !tbaa !16
  %call1 = invoke noundef nonnull align 8 dereferenceable(8) ptr @_ZSt3minImERKT_S2_S2_(ptr noundef nonnull align 8 dereferenceable(8) %__diffmax, ptr noundef nonnull align 8 dereferenceable(8) %__allocmax)
          to label %invoke.cont unwind label %terminate.lpad

invoke.cont:                                      ; preds = %entry
  %1 = load i64, ptr %call1, align 8, !tbaa !16
  call void @llvm.lifetime.end.p0(i64 8, ptr %__allocmax) #3
  call void @llvm.lifetime.end.p0(i64 8, ptr %__diffmax) #3
  ret i64 %1

terminate.lpad:                                   ; preds = %entry
  %2 = landingpad { ptr, i32 }
          catch ptr null
  %3 = extractvalue { ptr, i32 } %2, 0
  call void @__clang_call_terminate(ptr %3) #19
  unreachable
}

; Function Attrs: mustprogress nounwind uwtable
define linkonce_odr void @_ZNSaImEC2ERKS_(ptr noundef nonnull align 1 dereferenceable(1) %this, ptr noundef nonnull align 1 dereferenceable(1) %__a) unnamed_addr #7 comdat align 2 {
entry:
  %this.addr = alloca ptr, align 8
  %__a.addr = alloca ptr, align 8
  store ptr %this, ptr %this.addr, align 8, !tbaa !147
  store ptr %__a, ptr %__a.addr, align 8, !tbaa !147
  %this1 = load ptr, ptr %this.addr, align 8
  %0 = load ptr, ptr %__a.addr, align 8, !tbaa !147
  call void @_ZNSt15__new_allocatorImEC2ERKS0_(ptr noundef nonnull align 1 dereferenceable(1) %this1, ptr noundef nonnull align 1 dereferenceable(1) %0) #3
  ret void
}

; Function Attrs: noreturn
declare void @_ZSt20__throw_length_errorPKc(ptr noundef) #13

; Function Attrs: mustprogress nounwind uwtable
define linkonce_odr noundef i64 @_ZNSt16allocator_traitsISaImEE8max_sizeERKS0_(ptr noundef nonnull align 1 dereferenceable(1) %__a) #7 comdat align 2 {
entry:
  %__a.addr = alloca ptr, align 8
  store ptr %__a, ptr %__a.addr, align 8, !tbaa !147
  %0 = load ptr, ptr %__a.addr, align 8, !tbaa !147
  %call = call noundef i64 @_ZNKSt15__new_allocatorImE8max_sizeEv(ptr noundef nonnull align 1 dereferenceable(1) %0) #3
  ret i64 %call
}

; Function Attrs: inlinehint mustprogress nounwind uwtable
define linkonce_odr noundef nonnull align 8 dereferenceable(8) ptr @_ZSt3minImERKT_S2_S2_(ptr noundef nonnull align 8 dereferenceable(8) %__a, ptr noundef nonnull align 8 dereferenceable(8) %__b) #8 comdat {
entry:
  %retval = alloca ptr, align 8
  %__a.addr = alloca ptr, align 8
  %__b.addr = alloca ptr, align 8
  store ptr %__a, ptr %__a.addr, align 8, !tbaa !88
  store ptr %__b, ptr %__b.addr, align 8, !tbaa !88
  %0 = load ptr, ptr %__b.addr, align 8, !tbaa !88
  %1 = load i64, ptr %0, align 8, !tbaa !16
  %2 = load ptr, ptr %__a.addr, align 8, !tbaa !88
  %3 = load i64, ptr %2, align 8, !tbaa !16
  %cmp = icmp ult i64 %1, %3
  br i1 %cmp, label %if.then, label %if.end

if.then:                                          ; preds = %entry
  %4 = load ptr, ptr %__b.addr, align 8, !tbaa !88
  store ptr %4, ptr %retval, align 8
  br label %return

if.end:                                           ; preds = %entry
  %5 = load ptr, ptr %__a.addr, align 8, !tbaa !88
  store ptr %5, ptr %retval, align 8
  br label %return

return:                                           ; preds = %if.end, %if.then
  %6 = load ptr, ptr %retval, align 8
  ret ptr %6
}

; Function Attrs: mustprogress nounwind uwtable
define linkonce_odr noundef i64 @_ZNKSt15__new_allocatorImE8max_sizeEv(ptr noundef nonnull align 1 dereferenceable(1) %this) #7 comdat align 2 {
entry:
  %this.addr = alloca ptr, align 8
  store ptr %this, ptr %this.addr, align 8, !tbaa !149
  %this1 = load ptr, ptr %this.addr, align 8
  %call = call noundef i64 @_ZNKSt15__new_allocatorImE11_M_max_sizeEv(ptr noundef nonnull align 1 dereferenceable(1) %this1) #3
  ret i64 %call
}

; Function Attrs: mustprogress nounwind uwtable
define linkonce_odr noundef i64 @_ZNKSt15__new_allocatorImE11_M_max_sizeEv(ptr noundef nonnull align 1 dereferenceable(1) %this) #7 comdat align 2 {
entry:
  %this.addr = alloca ptr, align 8
  store ptr %this, ptr %this.addr, align 8, !tbaa !149
  %this1 = load ptr, ptr %this.addr, align 8
  ret i64 1152921504606846975
}

; Function Attrs: mustprogress nounwind uwtable
define linkonce_odr void @_ZNSt15__new_allocatorImEC2ERKS0_(ptr noundef nonnull align 1 dereferenceable(1) %this, ptr noundef nonnull align 1 dereferenceable(1) %0) unnamed_addr #7 comdat align 2 {
entry:
  %this.addr = alloca ptr, align 8
  %.addr = alloca ptr, align 8
  store ptr %this, ptr %this.addr, align 8, !tbaa !149
  store ptr %0, ptr %.addr, align 8, !tbaa !149
  %this1 = load ptr, ptr %this.addr, align 8
  ret void
}

; Function Attrs: mustprogress nounwind uwtable
define linkonce_odr void @_ZNSt12_Vector_baseImSaImEE12_Vector_implC2ERKS0_(ptr noundef nonnull align 8 dereferenceable(24) %this, ptr noundef nonnull align 1 dereferenceable(1) %__a) unnamed_addr #7 comdat align 2 {
entry:
  %this.addr = alloca ptr, align 8
  %__a.addr = alloca ptr, align 8
  store ptr %this, ptr %this.addr, align 8, !tbaa !168
  store ptr %__a, ptr %__a.addr, align 8, !tbaa !147
  %this1 = load ptr, ptr %this.addr, align 8
  %0 = load ptr, ptr %__a.addr, align 8, !tbaa !147
  call void @_ZNSaImEC2ERKS_(ptr noundef nonnull align 1 dereferenceable(1) %this1, ptr noundef nonnull align 1 dereferenceable(1) %0) #3
  call void @_ZNSt12_Vector_baseImSaImEE17_Vector_impl_dataC2Ev(ptr noundef nonnull align 8 dereferenceable(24) %this1) #3
  ret void
}

; Function Attrs: mustprogress uwtable
define linkonce_odr void @_ZNSt12_Vector_baseImSaImEE17_M_create_storageEm(ptr noundef nonnull align 8 dereferenceable(24) %this, i64 noundef %__n) #4 comdat align 2 {
entry:
  %this.addr = alloca ptr, align 8
  %__n.addr = alloca i64, align 8
  store ptr %this, ptr %this.addr, align 8, !tbaa !165
  store i64 %__n, ptr %__n.addr, align 8, !tbaa !16
  %this1 = load ptr, ptr %this.addr, align 8
  %0 = load i64, ptr %__n.addr, align 8, !tbaa !16
  %call = call noundef ptr @_ZNSt12_Vector_baseImSaImEE11_M_allocateEm(ptr noundef nonnull align 8 dereferenceable(24) %this1, i64 noundef %0)
  %_M_impl = getelementptr inbounds nuw %"struct.std::_Vector_base", ptr %this1, i32 0, i32 0
  %_M_start = getelementptr inbounds nuw %"struct.std::_Vector_base<unsigned long, std::allocator<unsigned long>>::_Vector_impl_data", ptr %_M_impl, i32 0, i32 0
  store ptr %call, ptr %_M_start, align 8, !tbaa !146
  %_M_impl2 = getelementptr inbounds nuw %"struct.std::_Vector_base", ptr %this1, i32 0, i32 0
  %_M_start3 = getelementptr inbounds nuw %"struct.std::_Vector_base<unsigned long, std::allocator<unsigned long>>::_Vector_impl_data", ptr %_M_impl2, i32 0, i32 0
  %1 = load ptr, ptr %_M_start3, align 8, !tbaa !146
  %_M_impl4 = getelementptr inbounds nuw %"struct.std::_Vector_base", ptr %this1, i32 0, i32 0
  %_M_finish = getelementptr inbounds nuw %"struct.std::_Vector_base<unsigned long, std::allocator<unsigned long>>::_Vector_impl_data", ptr %_M_impl4, i32 0, i32 1
  store ptr %1, ptr %_M_finish, align 8, !tbaa !144
  %_M_impl5 = getelementptr inbounds nuw %"struct.std::_Vector_base", ptr %this1, i32 0, i32 0
  %_M_start6 = getelementptr inbounds nuw %"struct.std::_Vector_base<unsigned long, std::allocator<unsigned long>>::_Vector_impl_data", ptr %_M_impl5, i32 0, i32 0
  %2 = load ptr, ptr %_M_start6, align 8, !tbaa !146
  %3 = load i64, ptr %__n.addr, align 8, !tbaa !16
  %add.ptr = getelementptr inbounds nuw i64, ptr %2, i64 %3
  %_M_impl7 = getelementptr inbounds nuw %"struct.std::_Vector_base", ptr %this1, i32 0, i32 0
  %_M_end_of_storage = getelementptr inbounds nuw %"struct.std::_Vector_base<unsigned long, std::allocator<unsigned long>>::_Vector_impl_data", ptr %_M_impl7, i32 0, i32 2
  store ptr %add.ptr, ptr %_M_end_of_storage, align 8, !tbaa !167
  ret void
}

; Function Attrs: mustprogress nounwind uwtable
define linkonce_odr void @_ZNSt12_Vector_baseImSaImEE17_Vector_impl_dataC2Ev(ptr noundef nonnull align 8 dereferenceable(24) %this) unnamed_addr #7 comdat align 2 {
entry:
  %this.addr = alloca ptr, align 8
  store ptr %this, ptr %this.addr, align 8, !tbaa !170
  %this1 = load ptr, ptr %this.addr, align 8
  %_M_start = getelementptr inbounds nuw %"struct.std::_Vector_base<unsigned long, std::allocator<unsigned long>>::_Vector_impl_data", ptr %this1, i32 0, i32 0
  store ptr null, ptr %_M_start, align 8, !tbaa !146
  %_M_finish = getelementptr inbounds nuw %"struct.std::_Vector_base<unsigned long, std::allocator<unsigned long>>::_Vector_impl_data", ptr %this1, i32 0, i32 1
  store ptr null, ptr %_M_finish, align 8, !tbaa !144
  %_M_end_of_storage = getelementptr inbounds nuw %"struct.std::_Vector_base<unsigned long, std::allocator<unsigned long>>::_Vector_impl_data", ptr %this1, i32 0, i32 2
  store ptr null, ptr %_M_end_of_storage, align 8, !tbaa !167
  ret void
}

; Function Attrs: mustprogress uwtable
define linkonce_odr noundef ptr @_ZNSt12_Vector_baseImSaImEE11_M_allocateEm(ptr noundef nonnull align 8 dereferenceable(24) %this, i64 noundef %__n) #4 comdat align 2 {
entry:
  %this.addr = alloca ptr, align 8
  %__n.addr = alloca i64, align 8
  store ptr %this, ptr %this.addr, align 8, !tbaa !165
  store i64 %__n, ptr %__n.addr, align 8, !tbaa !16
  %this1 = load ptr, ptr %this.addr, align 8
  %0 = load i64, ptr %__n.addr, align 8, !tbaa !16
  %cmp = icmp ne i64 %0, 0
  br i1 %cmp, label %cond.true, label %cond.false

cond.true:                                        ; preds = %entry
  %_M_impl = getelementptr inbounds nuw %"struct.std::_Vector_base", ptr %this1, i32 0, i32 0
  %1 = load i64, ptr %__n.addr, align 8, !tbaa !16
  %call = call noundef ptr @_ZNSt16allocator_traitsISaImEE8allocateERS0_m(ptr noundef nonnull align 1 dereferenceable(1) %_M_impl, i64 noundef %1)
  br label %cond.end

cond.false:                                       ; preds = %entry
  br label %cond.end

cond.end:                                         ; preds = %cond.false, %cond.true
  %cond = phi ptr [ %call, %cond.true ], [ null, %cond.false ]
  ret ptr %cond
}

; Function Attrs: mustprogress uwtable
define linkonce_odr noundef ptr @_ZNSt16allocator_traitsISaImEE8allocateERS0_m(ptr noundef nonnull align 1 dereferenceable(1) %__a, i64 noundef %__n) #4 comdat align 2 {
entry:
  %__a.addr = alloca ptr, align 8
  %__n.addr = alloca i64, align 8
  store ptr %__a, ptr %__a.addr, align 8, !tbaa !147
  store i64 %__n, ptr %__n.addr, align 8, !tbaa !16
  %0 = load ptr, ptr %__a.addr, align 8, !tbaa !147
  %1 = load i64, ptr %__n.addr, align 8, !tbaa !16
  %call = call noundef ptr @_ZNSt15__new_allocatorImE8allocateEmPKv(ptr noundef nonnull align 1 dereferenceable(1) %0, i64 noundef %1, ptr noundef null)
  ret ptr %call
}

; Function Attrs: mustprogress uwtable
define linkonce_odr noundef ptr @_ZNSt15__new_allocatorImE8allocateEmPKv(ptr noundef nonnull align 1 dereferenceable(1) %this, i64 noundef %__n, ptr noundef %0) #4 comdat align 2 {
entry:
  %this.addr = alloca ptr, align 8
  %__n.addr = alloca i64, align 8
  %.addr = alloca ptr, align 8
  store ptr %this, ptr %this.addr, align 8, !tbaa !149
  store i64 %__n, ptr %__n.addr, align 8, !tbaa !16
  store ptr %0, ptr %.addr, align 8, !tbaa !109
  %this1 = load ptr, ptr %this.addr, align 8
  %1 = load i64, ptr %__n.addr, align 8, !tbaa !16
  %call = call noundef i64 @_ZNKSt15__new_allocatorImE11_M_max_sizeEv(ptr noundef nonnull align 1 dereferenceable(1) %this1) #3
  %cmp = icmp ugt i64 %1, %call
  %conv = zext i1 %cmp to i64
  %expval = call i64 @llvm.expect.i64(i64 %conv, i64 0)
  %tobool = icmp ne i64 %expval, 0
  br i1 %tobool, label %if.then, label %if.end4

if.then:                                          ; preds = %entry
  %2 = load i64, ptr %__n.addr, align 8, !tbaa !16
  %cmp2 = icmp ugt i64 %2, 2305843009213693951
  br i1 %cmp2, label %if.then3, label %if.end

if.then3:                                         ; preds = %if.then
  call void @_ZSt28__throw_bad_array_new_lengthv() #21
  unreachable

if.end:                                           ; preds = %if.then
  call void @_ZSt17__throw_bad_allocv() #21
  unreachable

if.end4:                                          ; preds = %entry
  %3 = load i64, ptr %__n.addr, align 8, !tbaa !16
  %mul = mul i64 %3, 8
  %call5 = call noalias noundef nonnull ptr @_Znwm(i64 noundef %mul) #22
  ret ptr %call5
}

; Function Attrs: inlinehint mustprogress uwtable
define linkonce_odr noundef ptr @_ZSt27__uninitialized_default_n_aIPmmmET_S1_T0_RSaIT1_E(ptr noundef %__first, i64 noundef %__n, ptr noundef nonnull align 1 dereferenceable(1) %0) #5 comdat {
entry:
  %__first.addr = alloca ptr, align 8
  %__n.addr = alloca i64, align 8
  %.addr = alloca ptr, align 8
  store ptr %__first, ptr %__first.addr, align 8, !tbaa !88
  store i64 %__n, ptr %__n.addr, align 8, !tbaa !16
  store ptr %0, ptr %.addr, align 8, !tbaa !147
  %1 = load ptr, ptr %__first.addr, align 8, !tbaa !88
  %2 = load i64, ptr %__n.addr, align 8, !tbaa !16
  %call = call noundef ptr @_ZSt25__uninitialized_default_nIPmmET_S1_T0_(ptr noundef %1, i64 noundef %2)
  ret ptr %call
}

; Function Attrs: mustprogress nounwind uwtable
define linkonce_odr noundef nonnull align 1 dereferenceable(1) ptr @_ZNSt12_Vector_baseImSaImEE19_M_get_Tp_allocatorEv(ptr noundef nonnull align 8 dereferenceable(24) %this) #7 comdat align 2 {
entry:
  %this.addr = alloca ptr, align 8
  store ptr %this, ptr %this.addr, align 8, !tbaa !165
  %this1 = load ptr, ptr %this.addr, align 8
  %_M_impl = getelementptr inbounds nuw %"struct.std::_Vector_base", ptr %this1, i32 0, i32 0
  ret ptr %_M_impl
}

; Function Attrs: inlinehint mustprogress uwtable
define linkonce_odr noundef ptr @_ZSt25__uninitialized_default_nIPmmET_S1_T0_(ptr noundef %__first, i64 noundef %__n) #5 comdat {
entry:
  %__first.addr = alloca ptr, align 8
  %__n.addr = alloca i64, align 8
  %__can_fill = alloca i8, align 1
  store ptr %__first, ptr %__first.addr, align 8, !tbaa !88
  store i64 %__n, ptr %__n.addr, align 8, !tbaa !16
  call void @llvm.lifetime.start.p0(i64 1, ptr %__can_fill) #3
  store i8 1, ptr %__can_fill, align 1, !tbaa !62
  %0 = load ptr, ptr %__first.addr, align 8, !tbaa !88
  %1 = load i64, ptr %__n.addr, align 8, !tbaa !16
  %call = call noundef ptr @_ZNSt27__uninitialized_default_n_1ILb1EE18__uninit_default_nIPmmEET_S3_T0_(ptr noundef %0, i64 noundef %1)
  call void @llvm.lifetime.end.p0(i64 1, ptr %__can_fill) #3
  ret ptr %call
}

; Function Attrs: mustprogress uwtable
define linkonce_odr noundef ptr @_ZNSt27__uninitialized_default_n_1ILb1EE18__uninit_default_nIPmmEET_S3_T0_(ptr noundef %__first, i64 noundef %__n) #4 comdat align 2 {
entry:
  %__first.addr = alloca ptr, align 8
  %__n.addr = alloca i64, align 8
  %__val = alloca ptr, align 8
  store ptr %__first, ptr %__first.addr, align 8, !tbaa !88
  store i64 %__n, ptr %__n.addr, align 8, !tbaa !16
  %0 = load i64, ptr %__n.addr, align 8, !tbaa !16
  %cmp = icmp ugt i64 %0, 0
  br i1 %cmp, label %if.then, label %if.end

if.then:                                          ; preds = %entry
  call void @llvm.lifetime.start.p0(i64 8, ptr %__val) #3
  %1 = load ptr, ptr %__first.addr, align 8, !tbaa !88
  store ptr %1, ptr %__val, align 8, !tbaa !88
  %2 = load ptr, ptr %__val, align 8, !tbaa !88
  call void @_ZSt10_ConstructImJEEvPT_DpOT0_(ptr noundef %2)
  %3 = load ptr, ptr %__first.addr, align 8, !tbaa !88
  %incdec.ptr = getelementptr inbounds nuw i64, ptr %3, i32 1
  store ptr %incdec.ptr, ptr %__first.addr, align 8, !tbaa !88
  %4 = load ptr, ptr %__first.addr, align 8, !tbaa !88
  %5 = load i64, ptr %__n.addr, align 8, !tbaa !16
  %sub = sub i64 %5, 1
  %6 = load ptr, ptr %__val, align 8, !tbaa !88
  %call = call noundef ptr @_ZSt6fill_nIPmmmET_S1_T0_RKT1_(ptr noundef %4, i64 noundef %sub, ptr noundef nonnull align 8 dereferenceable(8) %6)
  store ptr %call, ptr %__first.addr, align 8, !tbaa !88
  call void @llvm.lifetime.end.p0(i64 8, ptr %__val) #3
  br label %if.end

if.end:                                           ; preds = %if.then, %entry
  %7 = load ptr, ptr %__first.addr, align 8, !tbaa !88
  ret ptr %7
}

; Function Attrs: inlinehint mustprogress nounwind uwtable
define linkonce_odr void @_ZSt10_ConstructImJEEvPT_DpOT0_(ptr noundef %__p) #8 comdat {
entry:
  %__p.addr = alloca ptr, align 8
  store ptr %__p, ptr %__p.addr, align 8, !tbaa !88
  %0 = load ptr, ptr %__p.addr, align 8, !tbaa !88
  store i64 0, ptr %0, align 8, !tbaa !16
  ret void
}

; Function Attrs: mustprogress uwtable
define linkonce_odr void @_ZNSt12_Vector_baseImSaImEE13_M_deallocateEPmm(ptr noundef nonnull align 8 dereferenceable(24) %this, ptr noundef %__p, i64 noundef %__n) #4 comdat align 2 {
entry:
  %this.addr = alloca ptr, align 8
  %__p.addr = alloca ptr, align 8
  %__n.addr = alloca i64, align 8
  store ptr %this, ptr %this.addr, align 8, !tbaa !165
  store ptr %__p, ptr %__p.addr, align 8, !tbaa !88
  store i64 %__n, ptr %__n.addr, align 8, !tbaa !16
  %this1 = load ptr, ptr %this.addr, align 8
  %0 = load ptr, ptr %__p.addr, align 8, !tbaa !88
  %tobool = icmp ne ptr %0, null
  br i1 %tobool, label %if.then, label %if.end

if.then:                                          ; preds = %entry
  %_M_impl = getelementptr inbounds nuw %"struct.std::_Vector_base", ptr %this1, i32 0, i32 0
  %1 = load ptr, ptr %__p.addr, align 8, !tbaa !88
  %2 = load i64, ptr %__n.addr, align 8, !tbaa !16
  call void @_ZNSt16allocator_traitsISaImEE10deallocateERS0_Pmm(ptr noundef nonnull align 1 dereferenceable(1) %_M_impl, ptr noundef %1, i64 noundef %2)
  br label %if.end

if.end:                                           ; preds = %if.then, %entry
  ret void
}

; Function Attrs: mustprogress uwtable
define linkonce_odr void @_ZNSt16allocator_traitsISaImEE10deallocateERS0_Pmm(ptr noundef nonnull align 1 dereferenceable(1) %__a, ptr noundef %__p, i64 noundef %__n) #4 comdat align 2 {
entry:
  %__a.addr = alloca ptr, align 8
  %__p.addr = alloca ptr, align 8
  %__n.addr = alloca i64, align 8
  store ptr %__a, ptr %__a.addr, align 8, !tbaa !147
  store ptr %__p, ptr %__p.addr, align 8, !tbaa !88
  store i64 %__n, ptr %__n.addr, align 8, !tbaa !16
  %0 = load ptr, ptr %__a.addr, align 8, !tbaa !147
  %1 = load ptr, ptr %__p.addr, align 8, !tbaa !88
  %2 = load i64, ptr %__n.addr, align 8, !tbaa !16
  call void @_ZNSt15__new_allocatorImE10deallocateEPmm(ptr noundef nonnull align 1 dereferenceable(1) %0, ptr noundef %1, i64 noundef %2)
  ret void
}

; Function Attrs: mustprogress nounwind uwtable
define linkonce_odr void @_ZNSt15__new_allocatorImE10deallocateEPmm(ptr noundef nonnull align 1 dereferenceable(1) %this, ptr noundef %__p, i64 noundef %__n) #7 comdat align 2 {
entry:
  %this.addr = alloca ptr, align 8
  %__p.addr = alloca ptr, align 8
  %__n.addr = alloca i64, align 8
  store ptr %this, ptr %this.addr, align 8, !tbaa !149
  store ptr %__p, ptr %__p.addr, align 8, !tbaa !88
  store i64 %__n, ptr %__n.addr, align 8, !tbaa !16
  %this1 = load ptr, ptr %this.addr, align 8
  %0 = load ptr, ptr %__p.addr, align 8, !tbaa !88
  %1 = load i64, ptr %__n.addr, align 8, !tbaa !16
  %mul = mul i64 %1, 8
  call void @_ZdlPvm(ptr noundef %0, i64 noundef %mul) #23
  ret void
}

; Function Attrs: nobuiltin nounwind
declare void @_ZdlPvm(ptr noundef, i64 noundef) #18

; Function Attrs: inlinehint mustprogress nounwind uwtable
define linkonce_odr noundef ptr @_ZSt5beginImLm4EEPT_RAT0__S0_(ptr noundef nonnull align 8 dereferenceable(32) %__arr) #8 comdat {
entry:
  %__arr.addr = alloca ptr, align 8
  store ptr %__arr, ptr %__arr.addr, align 8, !tbaa !88
  %0 = load ptr, ptr %__arr.addr, align 8, !tbaa !88
  %arraydecay = getelementptr inbounds [4 x i64], ptr %0, i64 0, i64 0
  ret ptr %arraydecay
}

; Function Attrs: inlinehint mustprogress nounwind uwtable
define linkonce_odr noundef ptr @_ZSt3endImLm4EEPT_RAT0__S0_(ptr noundef nonnull align 8 dereferenceable(32) %__arr) #8 comdat {
entry:
  %__arr.addr = alloca ptr, align 8
  store ptr %__arr, ptr %__arr.addr, align 8, !tbaa !88
  %0 = load ptr, ptr %__arr.addr, align 8, !tbaa !88
  %arraydecay = getelementptr inbounds [4 x i64], ptr %0, i64 0, i64 0
  %add.ptr = getelementptr inbounds nuw i64, ptr %arraydecay, i64 4
  ret ptr %add.ptr
}

; Function Attrs: inlinehint mustprogress uwtable
define linkonce_odr void @_ZN2xt7svectorImLm4ESaImELb1EE6assignIN9__gnu_cxx17__normal_iteratorIPKmSt6vectorImS1_EEEEEvT_SB_(ptr noundef nonnull align 8 dereferenceable(64) %this, ptr %other_begin.coerce, ptr %other_end.coerce) #5 comdat align 2 {
entry:
  %other_begin = alloca %"class.__gnu_cxx::__normal_iterator", align 8
  %other_end = alloca %"class.__gnu_cxx::__normal_iterator", align 8
  %this.addr = alloca ptr, align 8
  %size = alloca i64, align 8
  %agg.tmp = alloca %"class.__gnu_cxx::__normal_iterator", align 8
  %agg.tmp5 = alloca %"class.__gnu_cxx::__normal_iterator", align 8
  %coerce.dive = getelementptr inbounds nuw %"class.__gnu_cxx::__normal_iterator", ptr %other_begin, i32 0, i32 0
  store ptr %other_begin.coerce, ptr %coerce.dive, align 8
  %coerce.dive1 = getelementptr inbounds nuw %"class.__gnu_cxx::__normal_iterator", ptr %other_end, i32 0, i32 0
  store ptr %other_end.coerce, ptr %coerce.dive1, align 8
  store ptr %this, ptr %this.addr, align 8, !tbaa !151
  %this2 = load ptr, ptr %this.addr, align 8
  call void @llvm.lifetime.start.p0(i64 8, ptr %size) #3
  %call = call noundef i64 @_ZN9__gnu_cxxmiIPKmSt6vectorImSaImEEEENS_17__normal_iteratorIT_T0_E15difference_typeERKS9_SC_(ptr noundef nonnull align 8 dereferenceable(8) %other_end, ptr noundef nonnull align 8 dereferenceable(8) %other_begin) #3
  store i64 %call, ptr %size, align 8, !tbaa !16
  %0 = load i64, ptr %size, align 8, !tbaa !16
  %cmp = icmp ugt i64 %0, 4
  br i1 %cmp, label %land.lhs.true, label %if.end

land.lhs.true:                                    ; preds = %entry
  %1 = load i64, ptr %size, align 8, !tbaa !16
  %call3 = call noundef i64 @_ZNK2xt7svectorImLm4ESaImELb1EE8capacityEv(ptr noundef nonnull align 8 dereferenceable(64) %this2)
  %cmp4 = icmp ugt i64 %1, %call3
  br i1 %cmp4, label %if.then, label %if.end

if.then:                                          ; preds = %land.lhs.true
  %2 = load i64, ptr %size, align 8, !tbaa !16
  call void @_ZN2xt7svectorImLm4ESaImELb1EE4growEm(ptr noundef nonnull align 8 dereferenceable(64) %this2, i64 noundef %2)
  br label %if.end

if.end:                                           ; preds = %if.then, %land.lhs.true, %entry
  call void @llvm.memcpy.p0.p0.i64(ptr align 8 %agg.tmp, ptr align 8 %other_begin, i64 8, i1 false), !tbaa.struct !172
  call void @llvm.memcpy.p0.p0.i64(ptr align 8 %agg.tmp5, ptr align 8 %other_end, i64 8, i1 false), !tbaa.struct !172
  %m_begin = getelementptr inbounds nuw %"class.xt::svector", ptr %this2, i32 0, i32 1
  %3 = load ptr, ptr %m_begin, align 8, !tbaa !153
  %coerce.dive6 = getelementptr inbounds nuw %"class.__gnu_cxx::__normal_iterator", ptr %agg.tmp, i32 0, i32 0
  %4 = load ptr, ptr %coerce.dive6, align 8
  %coerce.dive7 = getelementptr inbounds nuw %"class.__gnu_cxx::__normal_iterator", ptr %agg.tmp5, i32 0, i32 0
  %5 = load ptr, ptr %coerce.dive7, align 8
  %call8 = call noundef ptr @_ZSt18uninitialized_copyIN9__gnu_cxx17__normal_iteratorIPKmSt6vectorImSaImEEEEPmET0_T_SA_S9_(ptr %4, ptr %5, ptr noundef %3)
  %m_begin9 = getelementptr inbounds nuw %"class.xt::svector", ptr %this2, i32 0, i32 1
  %6 = load ptr, ptr %m_begin9, align 8, !tbaa !153
  %7 = load i64, ptr %size, align 8, !tbaa !16
  %add.ptr = getelementptr inbounds nuw i64, ptr %6, i64 %7
  %m_end = getelementptr inbounds nuw %"class.xt::svector", ptr %this2, i32 0, i32 2
  store ptr %add.ptr, ptr %m_end, align 8, !tbaa !156
  call void @llvm.lifetime.end.p0(i64 8, ptr %size) #3
  ret void
}

; Function Attrs: mustprogress nounwind uwtable
define linkonce_odr ptr @_ZNKSt6vectorImSaImEE5beginEv(ptr noundef nonnull align 8 dereferenceable(24) %this) #7 comdat align 2 {
entry:
  %retval = alloca %"class.__gnu_cxx::__normal_iterator", align 8
  %this.addr = alloca ptr, align 8
  store ptr %this, ptr %this.addr, align 8, !tbaa !142
  %this1 = load ptr, ptr %this.addr, align 8
  %_M_impl = getelementptr inbounds nuw %"struct.std::_Vector_base", ptr %this1, i32 0, i32 0
  %_M_start = getelementptr inbounds nuw %"struct.std::_Vector_base<unsigned long, std::allocator<unsigned long>>::_Vector_impl_data", ptr %_M_impl, i32 0, i32 0
  call void @_ZN9__gnu_cxx17__normal_iteratorIPKmSt6vectorImSaImEEEC2ERKS2_(ptr noundef nonnull align 8 dereferenceable(8) %retval, ptr noundef nonnull align 8 dereferenceable(8) %_M_start) #3
  %coerce.dive = getelementptr inbounds nuw %"class.__gnu_cxx::__normal_iterator", ptr %retval, i32 0, i32 0
  %0 = load ptr, ptr %coerce.dive, align 8
  ret ptr %0
}

; Function Attrs: mustprogress nounwind uwtable
define linkonce_odr ptr @_ZNKSt6vectorImSaImEE3endEv(ptr noundef nonnull align 8 dereferenceable(24) %this) #7 comdat align 2 {
entry:
  %retval = alloca %"class.__gnu_cxx::__normal_iterator", align 8
  %this.addr = alloca ptr, align 8
  store ptr %this, ptr %this.addr, align 8, !tbaa !142
  %this1 = load ptr, ptr %this.addr, align 8
  %_M_impl = getelementptr inbounds nuw %"struct.std::_Vector_base", ptr %this1, i32 0, i32 0
  %_M_finish = getelementptr inbounds nuw %"struct.std::_Vector_base<unsigned long, std::allocator<unsigned long>>::_Vector_impl_data", ptr %_M_impl, i32 0, i32 1
  call void @_ZN9__gnu_cxx17__normal_iteratorIPKmSt6vectorImSaImEEEC2ERKS2_(ptr noundef nonnull align 8 dereferenceable(8) %retval, ptr noundef nonnull align 8 dereferenceable(8) %_M_finish) #3
  %coerce.dive = getelementptr inbounds nuw %"class.__gnu_cxx::__normal_iterator", ptr %retval, i32 0, i32 0
  %0 = load ptr, ptr %coerce.dive, align 8
  ret ptr %0
}

; Function Attrs: inlinehint mustprogress nounwind uwtable
define linkonce_odr noundef i64 @_ZN9__gnu_cxxmiIPKmSt6vectorImSaImEEEENS_17__normal_iteratorIT_T0_E15difference_typeERKS9_SC_(ptr noundef nonnull align 8 dereferenceable(8) %__lhs, ptr noundef nonnull align 8 dereferenceable(8) %__rhs) #8 comdat {
entry:
  %__lhs.addr = alloca ptr, align 8
  %__rhs.addr = alloca ptr, align 8
  store ptr %__lhs, ptr %__lhs.addr, align 8, !tbaa !173
  store ptr %__rhs, ptr %__rhs.addr, align 8, !tbaa !173
  %0 = load ptr, ptr %__lhs.addr, align 8, !tbaa !173
  %call = call noundef nonnull align 8 dereferenceable(8) ptr @_ZNK9__gnu_cxx17__normal_iteratorIPKmSt6vectorImSaImEEE4baseEv(ptr noundef nonnull align 8 dereferenceable(8) %0) #3
  %1 = load ptr, ptr %call, align 8, !tbaa !88
  %2 = load ptr, ptr %__rhs.addr, align 8, !tbaa !173
  %call1 = call noundef nonnull align 8 dereferenceable(8) ptr @_ZNK9__gnu_cxx17__normal_iteratorIPKmSt6vectorImSaImEEE4baseEv(ptr noundef nonnull align 8 dereferenceable(8) %2) #3
  %3 = load ptr, ptr %call1, align 8, !tbaa !88
  %sub.ptr.lhs.cast = ptrtoint ptr %1 to i64
  %sub.ptr.rhs.cast = ptrtoint ptr %3 to i64
  %sub.ptr.sub = sub i64 %sub.ptr.lhs.cast, %sub.ptr.rhs.cast
  %sub.ptr.div = sdiv exact i64 %sub.ptr.sub, 8
  ret i64 %sub.ptr.div
}

; Function Attrs: inlinehint mustprogress nounwind uwtable
define linkonce_odr noundef i64 @_ZNK2xt7svectorImLm4ESaImELb1EE8capacityEv(ptr noundef nonnull align 8 dereferenceable(64) %this) #8 comdat align 2 {
entry:
  %this.addr = alloca ptr, align 8
  store ptr %this, ptr %this.addr, align 8, !tbaa !151
  %this1 = load ptr, ptr %this.addr, align 8
  %m_capacity = getelementptr inbounds nuw %"class.xt::svector", ptr %this1, i32 0, i32 3
  %0 = load ptr, ptr %m_capacity, align 8, !tbaa !157
  %m_begin = getelementptr inbounds nuw %"class.xt::svector", ptr %this1, i32 0, i32 1
  %1 = load ptr, ptr %m_begin, align 8, !tbaa !153
  %sub.ptr.lhs.cast = ptrtoint ptr %0 to i64
  %sub.ptr.rhs.cast = ptrtoint ptr %1 to i64
  %sub.ptr.sub = sub i64 %sub.ptr.lhs.cast, %sub.ptr.rhs.cast
  %sub.ptr.div = sdiv exact i64 %sub.ptr.sub, 8
  ret i64 %sub.ptr.div
}

; Function Attrs: inlinehint mustprogress uwtable
define linkonce_odr void @_ZN2xt7svectorImLm4ESaImELb1EE4growEm(ptr noundef nonnull align 8 dereferenceable(64) %this, i64 noundef %min_capacity) #5 comdat align 2 {
entry:
  %this.addr = alloca ptr, align 8
  %min_capacity.addr = alloca i64, align 8
  %current_size = alloca i64, align 8
  %new_capacity = alloca i64, align 8
  %new_alloc = alloca ptr, align 8
  store ptr %this, ptr %this.addr, align 8, !tbaa !151
  store i64 %min_capacity, ptr %min_capacity.addr, align 8, !tbaa !16
  %this1 = load ptr, ptr %this.addr, align 8
  call void @llvm.lifetime.start.p0(i64 8, ptr %current_size) #3
  %call = call noundef i64 @_ZNK2xt7svectorImLm4ESaImELb1EE4sizeEv(ptr noundef nonnull align 8 dereferenceable(64) %this1)
  store i64 %call, ptr %current_size, align 8, !tbaa !16
  call void @llvm.lifetime.start.p0(i64 8, ptr %new_capacity) #3
  %0 = load i64, ptr %current_size, align 8, !tbaa !16
  %mul = mul i64 2, %0
  %add = add i64 %mul, 1
  store i64 %add, ptr %new_capacity, align 8, !tbaa !16
  %1 = load i64, ptr %new_capacity, align 8, !tbaa !16
  %2 = load i64, ptr %min_capacity.addr, align 8, !tbaa !16
  %cmp = icmp ult i64 %1, %2
  br i1 %cmp, label %if.then, label %if.end

if.then:                                          ; preds = %entry
  %3 = load i64, ptr %min_capacity.addr, align 8, !tbaa !16
  store i64 %3, ptr %new_capacity, align 8, !tbaa !16
  br label %if.end

if.end:                                           ; preds = %if.then, %entry
  call void @llvm.lifetime.start.p0(i64 8, ptr %new_alloc) #3
  %m_begin = getelementptr inbounds nuw %"class.xt::svector", ptr %this1, i32 0, i32 1
  %4 = load ptr, ptr %m_begin, align 8, !tbaa !153
  %m_data = getelementptr inbounds nuw %"class.xt::svector", ptr %this1, i32 0, i32 4
  %arrayidx = getelementptr inbounds [4 x i64], ptr %m_data, i64 0, i64 0
  %cmp2 = icmp eq ptr %4, %arrayidx
  br i1 %cmp2, label %if.then3, label %if.else

if.then3:                                         ; preds = %if.end
  %5 = load i64, ptr %new_capacity, align 8, !tbaa !16
  %call4 = call noundef ptr @_ZNSt15__new_allocatorImE8allocateEmPKv(ptr noundef nonnull align 1 dereferenceable(1) %this1, i64 noundef %5, ptr noundef null)
  store ptr %call4, ptr %new_alloc, align 8, !tbaa !88
  %m_begin5 = getelementptr inbounds nuw %"class.xt::svector", ptr %this1, i32 0, i32 1
  %6 = load ptr, ptr %m_begin5, align 8, !tbaa !153
  %m_end = getelementptr inbounds nuw %"class.xt::svector", ptr %this1, i32 0, i32 2
  %7 = load ptr, ptr %m_end, align 8, !tbaa !156
  %8 = load ptr, ptr %new_alloc, align 8, !tbaa !88
  %call6 = call noundef ptr @_ZSt18uninitialized_copyIPmS0_ET0_T_S2_S1_(ptr noundef %6, ptr noundef %7, ptr noundef %8)
  br label %if.end13

if.else:                                          ; preds = %if.end
  %9 = load i64, ptr %new_capacity, align 8, !tbaa !16
  %call7 = call noundef ptr @_ZNSt15__new_allocatorImE8allocateEmPKv(ptr noundef nonnull align 1 dereferenceable(1) %this1, i64 noundef %9, ptr noundef null)
  store ptr %call7, ptr %new_alloc, align 8, !tbaa !88
  %m_begin8 = getelementptr inbounds nuw %"class.xt::svector", ptr %this1, i32 0, i32 1
  %10 = load ptr, ptr %m_begin8, align 8, !tbaa !153
  %m_end9 = getelementptr inbounds nuw %"class.xt::svector", ptr %this1, i32 0, i32 2
  %11 = load ptr, ptr %m_end9, align 8, !tbaa !156
  %12 = load ptr, ptr %new_alloc, align 8, !tbaa !88
  %call10 = call noundef ptr @_ZSt18uninitialized_copyIPmS0_ET0_T_S2_S1_(ptr noundef %10, ptr noundef %11, ptr noundef %12)
  %m_begin11 = getelementptr inbounds nuw %"class.xt::svector", ptr %this1, i32 0, i32 1
  %13 = load ptr, ptr %m_begin11, align 8, !tbaa !153
  %m_capacity = getelementptr inbounds nuw %"class.xt::svector", ptr %this1, i32 0, i32 3
  %14 = load ptr, ptr %m_capacity, align 8, !tbaa !157
  %m_begin12 = getelementptr inbounds nuw %"class.xt::svector", ptr %this1, i32 0, i32 1
  %15 = load ptr, ptr %m_begin12, align 8, !tbaa !153
  %sub.ptr.lhs.cast = ptrtoint ptr %14 to i64
  %sub.ptr.rhs.cast = ptrtoint ptr %15 to i64
  %sub.ptr.sub = sub i64 %sub.ptr.lhs.cast, %sub.ptr.rhs.cast
  %sub.ptr.div = sdiv exact i64 %sub.ptr.sub, 8
  call void @_ZNSt15__new_allocatorImE10deallocateEPmm(ptr noundef nonnull align 1 dereferenceable(1) %this1, ptr noundef %13, i64 noundef %sub.ptr.div)
  br label %if.end13

if.end13:                                         ; preds = %if.else, %if.then3
  %16 = load ptr, ptr %new_alloc, align 8, !tbaa !88
  %17 = load i64, ptr %current_size, align 8, !tbaa !16
  %add.ptr = getelementptr inbounds nuw i64, ptr %16, i64 %17
  %m_end14 = getelementptr inbounds nuw %"class.xt::svector", ptr %this1, i32 0, i32 2
  store ptr %add.ptr, ptr %m_end14, align 8, !tbaa !156
  %18 = load ptr, ptr %new_alloc, align 8, !tbaa !88
  %m_begin15 = getelementptr inbounds nuw %"class.xt::svector", ptr %this1, i32 0, i32 1
  store ptr %18, ptr %m_begin15, align 8, !tbaa !153
  %19 = load ptr, ptr %new_alloc, align 8, !tbaa !88
  %20 = load i64, ptr %new_capacity, align 8, !tbaa !16
  %add.ptr16 = getelementptr inbounds nuw i64, ptr %19, i64 %20
  %m_capacity17 = getelementptr inbounds nuw %"class.xt::svector", ptr %this1, i32 0, i32 3
  store ptr %add.ptr16, ptr %m_capacity17, align 8, !tbaa !157
  call void @llvm.lifetime.end.p0(i64 8, ptr %new_alloc) #3
  call void @llvm.lifetime.end.p0(i64 8, ptr %new_capacity) #3
  call void @llvm.lifetime.end.p0(i64 8, ptr %current_size) #3
  ret void
}

; Function Attrs: inlinehint mustprogress uwtable
define linkonce_odr noundef ptr @_ZSt18uninitialized_copyIN9__gnu_cxx17__normal_iteratorIPKmSt6vectorImSaImEEEEPmET0_T_SA_S9_(ptr %__first.coerce, ptr %__last.coerce, ptr noundef %__result) #5 comdat {
entry:
  %__first = alloca %"class.__gnu_cxx::__normal_iterator", align 8
  %__last = alloca %"class.__gnu_cxx::__normal_iterator", align 8
  %__result.addr = alloca ptr, align 8
  %__can_memmove = alloca i8, align 1
  %__assignable = alloca i8, align 1
  %agg.tmp = alloca %"class.__gnu_cxx::__normal_iterator", align 8
  %agg.tmp2 = alloca %"class.__gnu_cxx::__normal_iterator", align 8
  %coerce.dive = getelementptr inbounds nuw %"class.__gnu_cxx::__normal_iterator", ptr %__first, i32 0, i32 0
  store ptr %__first.coerce, ptr %coerce.dive, align 8
  %coerce.dive1 = getelementptr inbounds nuw %"class.__gnu_cxx::__normal_iterator", ptr %__last, i32 0, i32 0
  store ptr %__last.coerce, ptr %coerce.dive1, align 8
  store ptr %__result, ptr %__result.addr, align 8, !tbaa !88
  call void @llvm.lifetime.start.p0(i64 1, ptr %__can_memmove) #3
  store i8 1, ptr %__can_memmove, align 1, !tbaa !62
  call void @llvm.lifetime.start.p0(i64 1, ptr %__assignable) #3
  store i8 1, ptr %__assignable, align 1, !tbaa !62
  call void @llvm.memcpy.p0.p0.i64(ptr align 8 %agg.tmp, ptr align 8 %__first, i64 8, i1 false), !tbaa.struct !172
  call void @llvm.memcpy.p0.p0.i64(ptr align 8 %agg.tmp2, ptr align 8 %__last, i64 8, i1 false), !tbaa.struct !172
  %0 = load ptr, ptr %__result.addr, align 8, !tbaa !88
  %coerce.dive3 = getelementptr inbounds nuw %"class.__gnu_cxx::__normal_iterator", ptr %agg.tmp, i32 0, i32 0
  %1 = load ptr, ptr %coerce.dive3, align 8
  %coerce.dive4 = getelementptr inbounds nuw %"class.__gnu_cxx::__normal_iterator", ptr %agg.tmp2, i32 0, i32 0
  %2 = load ptr, ptr %coerce.dive4, align 8
  %call = call noundef ptr @_ZNSt20__uninitialized_copyILb1EE13__uninit_copyIN9__gnu_cxx17__normal_iteratorIPKmSt6vectorImSaImEEEEPmEET0_T_SC_SB_(ptr %1, ptr %2, ptr noundef %0)
  call void @llvm.lifetime.end.p0(i64 1, ptr %__assignable) #3
  call void @llvm.lifetime.end.p0(i64 1, ptr %__can_memmove) #3
  ret ptr %call
}

; Function Attrs: mustprogress nounwind uwtable
define linkonce_odr noundef nonnull align 8 dereferenceable(8) ptr @_ZNK9__gnu_cxx17__normal_iteratorIPKmSt6vectorImSaImEEE4baseEv(ptr noundef nonnull align 8 dereferenceable(8) %this) #7 comdat align 2 {
entry:
  %this.addr = alloca ptr, align 8
  store ptr %this, ptr %this.addr, align 8, !tbaa !173
  %this1 = load ptr, ptr %this.addr, align 8
  %_M_current = getelementptr inbounds nuw %"class.__gnu_cxx::__normal_iterator", ptr %this1, i32 0, i32 0
  ret ptr %_M_current
}

; Function Attrs: inlinehint mustprogress nounwind uwtable
define linkonce_odr noundef i64 @_ZNK2xt7svectorImLm4ESaImELb1EE4sizeEv(ptr noundef nonnull align 8 dereferenceable(64) %this) #8 comdat align 2 {
entry:
  %this.addr = alloca ptr, align 8
  store ptr %this, ptr %this.addr, align 8, !tbaa !151
  %this1 = load ptr, ptr %this.addr, align 8
  %m_end = getelementptr inbounds nuw %"class.xt::svector", ptr %this1, i32 0, i32 2
  %0 = load ptr, ptr %m_end, align 8, !tbaa !156
  %m_begin = getelementptr inbounds nuw %"class.xt::svector", ptr %this1, i32 0, i32 1
  %1 = load ptr, ptr %m_begin, align 8, !tbaa !153
  %sub.ptr.lhs.cast = ptrtoint ptr %0 to i64
  %sub.ptr.rhs.cast = ptrtoint ptr %1 to i64
  %sub.ptr.sub = sub i64 %sub.ptr.lhs.cast, %sub.ptr.rhs.cast
  %sub.ptr.div = sdiv exact i64 %sub.ptr.sub, 8
  ret i64 %sub.ptr.div
}

; Function Attrs: inlinehint mustprogress uwtable
define linkonce_odr noundef ptr @_ZSt18uninitialized_copyIPmS0_ET0_T_S2_S1_(ptr noundef %__first, ptr noundef %__last, ptr noundef %__result) #5 comdat {
entry:
  %__first.addr = alloca ptr, align 8
  %__last.addr = alloca ptr, align 8
  %__result.addr = alloca ptr, align 8
  %__can_memmove = alloca i8, align 1
  %__assignable = alloca i8, align 1
  store ptr %__first, ptr %__first.addr, align 8, !tbaa !88
  store ptr %__last, ptr %__last.addr, align 8, !tbaa !88
  store ptr %__result, ptr %__result.addr, align 8, !tbaa !88
  call void @llvm.lifetime.start.p0(i64 1, ptr %__can_memmove) #3
  store i8 1, ptr %__can_memmove, align 1, !tbaa !62
  call void @llvm.lifetime.start.p0(i64 1, ptr %__assignable) #3
  store i8 1, ptr %__assignable, align 1, !tbaa !62
  %0 = load ptr, ptr %__first.addr, align 8, !tbaa !88
  %1 = load ptr, ptr %__last.addr, align 8, !tbaa !88
  %2 = load ptr, ptr %__result.addr, align 8, !tbaa !88
